(dp0
S'successes'
p1
(lp2
I01
aI01
aI01
aI00
aI00
aI01
aI01
aI01
aI01
aI01
aI01
aI01
aI00
aI01
aI01
aI01
aI00
aI01
aI00
aI01
aI01
aI00
aI01
aI01
aI01
aI00
aI01
aI01
aI01
aI01
aI01
aI01
aI01
aI01
aI00
aI01
aI01
aI01
aI00
aI01
aI01
aI01
aI01
aI01
aI01
aI01
aI01
aI01
aI00
aI01
aI01
aI01
aI01
aI00
aI01
aI01
aI01
aI01
aI01
aI01
aI00
aI01
aI01
aI01
aI01
aI01
aI00
aI01
aI01
aI01
aI01
aI01
aI01
aI01
aI01
aI01
aI01
aI00
aI01
aI01
aI01
aI01
aI01
aI01
aI00
aI01
aI01
aI00
aI01
aI00
aI01
aI01
aI01
aI01
aI00
aI01
aI00
aI01
aI01
aI01
aI00
aI01
aI01
aI00
aI01
aI01
aI01
aI01
aI01
aI01
aI01
aI01
aI01
aI01
aI01
aI01
aI01
aI01
aI01
aI00
aI01
aI00
aI01
aI01
aI01
aI01
aI01
aI00
aI01
aI00
aI01
aI01
aI01
aI00
aI01
aI01
aI01
aI01
aI01
aI00
aI01
aI01
aI01
aI01
aI01
aI01
aI01
aI01
aI01
aI01
aI01
aI01
aI01
aI01
aI01
aI01
aI00
aI01
aI01
aI01
aI01
aI01
aI01
aI01
aI01
aI01
aI01
aI01
aI01
aI01
aI01
aI01
aI01
aI01
aI01
aI01
aI01
aI01
aI01
aI01
aI01
aI01
aI01
aI01
aI01
aI01
aI01
aI01
aI00
aI00
aI00
aI01
aI01
aI01
aI01
aI01
aI01
aI00
aI00
aI00
aI00
aI00
aI01
aI01
aI01
aI01
aI01
aI01
aI01
aI01
aI01
aI01
aI01
aI00
aI01
aI01
aI01
aI01
aI01
aI01
aI01
aI00
aI01
aI01
aI01
aI01
aI01
aI01
aI00
aI01
aI01
aI01
aI01
aI01
aI00
aI01
aI01
aI01
aI01
aI01
aI01
aI01
aI01
aI01
aI01
aI01
aI01
aI01
aI01
aI01
aI01
aI01
aI01
aI01
aI01
aI00
aI01
aI01
aI01
aI00
aI01
aI01
aI01
aI01
aI01
aI01
aI01
aI00
aI01
aI01
aI01
aI01
aI01
aI00
aI01
aI01
aI00
aI01
aI01
aI00
aI01
aI00
aI01
aI01
aI01
aI01
aI01
aI01
aI00
aI01
aI01
aI00
aI01
aI01
aI01
aI01
aI01
aI01
aI01
aI01
aI00
aI01
aI01
aI01
aI01
aI01
aI01
aI01
aI01
aI01
aI01
aI00
aI00
aI01
aI01
aI01
aI01
aI01
aI01
aI00
aI01
aI01
aI01
aI00
aI01
aI00
aI01
aI01
aI00
aI00
aI01
aI01
aI00
aI01
aI01
aI01
aI01
aI01
aI00
aI01
aI01
aI01
aI01
aI01
aI01
aI00
aI01
aI00
aI01
aI01
aI01
aI01
aI01
aI01
aI01
aI00
aI01
aI01
aI01
aI01
aI01
aI01
aI01
aI00
aI01
aI01
aI01
aI01
aI01
aI00
aI01
aI01
aI00
aI01
aI01
aI01
aI00
aI01
aI01
aI01
aI01
aI01
aI00
aI01
aI01
aI01
aI01
aI01
aI00
aI01
aI01
aI01
aI01
aI01
aI01
aI01
aI01
aI01
aI01
aI00
aI01
aI01
aI01
aI01
aI00
aI00
aI00
aI01
aI00
aI01
aI01
aI01
aI00
aI01
aI01
aI01
aI01
aI01
aI01
aI01
aI01
aI01
aI00
aI00
aI01
aI01
aI00
aI01
aI01
aI01
aI01
aI01
aI01
aI01
aI00
aI01
aI01
aI00
aI01
aI01
aI01
aI01
aI01
aI01
aI01
aI01
aI01
aI01
aI01
aI01
aI01
aI01
aI01
aI01
aI01
aI01
aI00
aI01
aI00
aI00
aI00
aI01
aI01
aI01
aI01
aI01
aI01
aI01
aI01
aI01
aI01
aI00
aI01
aI01
aI01
aI01
aI01
aI01
aI01
aI01
aI01
aI01
aI00
aI01
aI01
aI01
aI01
aI00
aI00
aI01
aI01
aI01
aI01
aI01
aI00
aI01
aI01
aI01
aI01
aI01
aI01
aI01
aI01
aI01
aI01
aI01
aI01
aI01
aI01
aI01
aI01
aI01
aI01
aI01
aI01
aI01
aI01
aI00
aI01
aI01
aI01
aI01
aI00
aI01
aI01
aI01
aI00
aI01
aI00
aI01
aI01
aI00
aI01
aI00
aI01
aI01
aI01
aI01
aI01
aI01
aI01
aI01
aI01
aI01
aI01
aI01
aI00
aI01
aI01
aI01
aI00
aI01
aI00
aI01
aI01
aI01
aI01
aI00
aI01
aI00
aI01
aI01
aI01
aI01
aI00
aI01
aI00
aI01
aI01
aI01
aI01
aI01
aI00
aI01
aI01
aI01
aI01
aI01
aI01
aI01
aI01
aI01
aI01
aI01
aI01
aI01
aI01
aI01
aI01
aI01
aI01
aI01
aI01
aI01
aI00
aI01
aI01
aI01
aI01
aI00
aI01
aI01
aI01
aI01
aI01
aI00
aI01
aI01
aI00
aI01
aI01
aI00
aI01
aI01
aI01
aI01
aI01
aI00
aI01
aI01
aI01
aI01
aI01
aI01
aI01
aI01
aI01
aI00
aI01
aI00
aI00
aI01
aI00
aI01
aI00
aI01
aI01
aI01
aI01
aI00
aI01
aI01
aI01
aI01
aI00
aI01
aI01
aI01
aI01
aI01
aI01
aI01
aI01
aI01
aI01
aI01
aI00
aI01
aI00
aI01
aI01
aI01
aI01
aI01
aI00
aI00
aI00
aI01
aI01
aI01
aI01
aI01
aI00
aI01
aI01
aI01
aI01
aI00
aI01
aI01
aI01
aI01
aI01
aI01
aI01
aI01
aI01
aI01
aI01
aI00
aI01
aI01
aI00
aI01
aI01
aI01
aI01
aI01
aI01
aI00
aI01
aI01
aI01
aI01
aI01
aI01
aI01
aI00
aI01
aI01
aI01
aI00
aI01
aI00
aI01
aI00
aI01
aI01
aI01
aI01
aI01
aI00
aI01
aI00
aI00
aI01
aI01
aI01
aI01
aI01
aI01
aI00
aI01
aI01
aI01
aI01
aI01
aI01
aI01
aI00
aI01
aI01
aI01
aI01
aI00
aI01
aI01
aI00
aI01
aI01
aI01
aI00
aI01
aI01
aI01
aI01
aI00
aI01
aI01
aI01
aI01
aI01
aI01
aI00
aI00
aI01
aI01
aI00
aI01
aI01
aI01
aI01
aI01
aI01
aI01
aI01
aI01
aI01
aI01
aI01
aI01
aI01
aI01
aI01
aI01
aI01
aI01
aI01
aI01
aI00
aI01
aI00
aI01
aI01
aI01
aI01
aI01
aI01
aI01
aI00
aI01
aI01
aI01
aI01
aI00
aI01
aI00
aI01
aI01
aI01
aI01
aI01
aI00
aI00
aI01
aI01
aI01
aI01
aI01
aI01
aI01
aI01
aI01
aI00
aI01
aI01
aI01
aI01
aI00
aI01
aI01
aI01
aI01
aI01
aI01
aI01
aI01
aI01
aI01
aI01
aI01
aI01
aI01
aI01
aI01
aI01
aI01
aI01
aI01
aI01
aI01
aI01
aI01
aI01
aI01
aI00
aI01
aI01
aI01
aI01
aI01
aI01
aI01
aI01
aI01
aI01
aI01
aI01
aI00
aI01
aI00
aI01
aI01
aI01
aI01
aI01
aI01
aI00
aI00
aI01
aI01
aI01
aI01
aI01
aI01
aI01
aI01
aI01
aI01
aI00
aI01
aI01
aI01
aI01
aI00
aI01
aI01
aI01
aI01
aI01
aI01
aI01
aI01
aI01
aI01
aI01
aI01
aI01
aI01
aI01
aI01
aI01
aI01
aI01
aI01
aI01
aI01
aI01
aI01
aI01
aI01
aI01
aI01
aI01
aI01
aI01
aI01
aI01
aI01
aI01
aI01
aI01
aI00
aI01
aI01
aI01
aI01
aI01
aI00
aI01
aI01
aI01
aI00
aI00
aI01
aI01
aI01
aI01
aI01
aI01
aI00
aI01
aI00
aI01
aI01
aI01
aI01
aI00
aI01
aI01
aI01
aI01
aI01
aI01
aI00
aI00
aI01
aI01
aI01
aI01
aI01
aI01
aI01
aI01
aI01
aI01
aI01
aI01
aI01
aI01
aI01
aI01
aI00
aI01
aI01
aI01
aI01
aI01
aI01
aI01
aI00
aI01
aI01
aI01
aI01
aI01
aI01
aI01
aI00
aI01
aI00
aI01
aI01
aI01
aI01
aI00
aI01
aI01
aI01
aI01
aI01
aI01
aI01
aI01
aI00
aI01
aI01
aI00
aI00
aI01
aI01
aI00
aI01
aI01
asS'pidxs'
p3
(lp4
I52
aI39
aI21
aI65
aI23
aI39
aI13
aI50
aI23
aI74
aI55
aI57
aI56
aI40
aI32
aI5
aI42
aI25
aI58
aI17
aI2
aI80
aI67
aI77
aI78
aI27
aI54
aI14
aI79
aI85
aI20
aI25
aI73
aI63
aI66
aI8
aI10
aI75
aI75
aI85
aI53
aI46
aI63
aI26
aI78
aI50
aI21
aI16
aI27
aI74
aI57
aI41
aI0
aI71
aI17
aI34
aI70
aI13
aI81
aI27
aI69
aI53
aI79
aI86
aI37
aI70
aI62
aI72
aI76
aI14
aI38
aI1
aI44
aI18
aI93
aI39
aI17
aI1
aI0
aI41
aI37
aI37
aI77
aI24
aI42
aI68
aI40
aI69
aI40
aI64
aI32
aI67
aI19
aI28
aI42
aI23
aI65
aI19
aI99
aI22
aI61
aI68
aI68
aI80
aI67
aI87
aI9
aI48
aI4
aI32
aI40
aI44
aI45
aI9
aI73
aI14
aI73
aI46
aI77
aI58
aI34
aI36
aI89
aI43
aI35
aI28
aI18
aI43
aI45
aI75
aI29
aI53
aI11
aI16
aI2
aI17
aI3
aI31
aI51
aI43
aI2
aI10
aI72
aI55
aI32
aI75
aI20
aI57
aI8
aI23
aI21
aI36
aI9
aI60
aI18
aI67
aI35
aI6
aI86
aI55
aI6
aI5
aI97
aI2
aI31
aI60
aI33
aI49
aI39
aI0
aI33
aI33
aI74
aI41
aI15
aI45
aI72
aI89
aI9
aI81
aI66
aI87
aI39
aI22
aI13
aI62
aI11
aI15
aI59
aI71
aI77
aI51
aI50
aI89
aI72
aI44
aI53
aI53
aI64
aI56
aI35
aI10
aI24
aI22
aI22
aI69
aI38
aI48
aI15
aI49
aI74
aI66
aI68
aI61
aI34
aI23
aI31
aI44
aI87
aI68
aI1
aI80
aI7
aI38
aI28
aI30
aI51
aI3
aI76
aI33
aI27
aI77
aI17
aI18
aI71
aI4
aI12
aI13
aI11
aI52
aI7
aI42
aI48
aI31
aI11
aI70
aI47
aI81
aI14
aI25
aI52
aI86
aI89
aI41
aI50
aI20
aI11
aI17
aI59
aI56
aI79
aI84
aI87
aI18
aI23
aI25
aI14
aI58
aI52
aI9
aI55
aI60
aI86
aI65
aI37
aI57
aI69
aI70
aI24
aI61
aI25
aI64
aI89
aI9
aI55
aI30
aI81
aI1
aI36
aI32
aI53
aI1
aI26
aI8
aI31
aI16
aI22
aI85
aI9
aI55
aI58
aI20
aI3
aI26
aI14
aI69
aI21
aI83
aI81
aI13
aI90
aI43
aI16
aI63
aI50
aI76
aI37
aI86
aI17
aI58
aI25
aI13
aI72
aI58
aI30
aI19
aI46
aI8
aI64
aI20
aI72
aI45
aI65
aI22
aI64
aI77
aI19
aI32
aI80
aI4
aI1
aI28
aI83
aI20
aI53
aI55
aI13
aI65
aI59
aI82
aI48
aI39
aI17
aI9
aI44
aI64
aI22
aI33
aI0
aI46
aI31
aI14
aI54
aI62
aI29
aI40
aI47
aI60
aI82
aI71
aI20
aI67
aI16
aI3
aI30
aI79
aI43
aI31
aI88
aI52
aI15
aI78
aI71
aI30
aI77
aI4
aI18
aI62
aI36
aI59
aI14
aI88
aI35
aI38
aI77
aI79
aI24
aI11
aI8
aI66
aI51
aI72
aI92
aI51
aI58
aI43
aI1
aI73
aI65
aI8
aI23
aI8
aI59
aI3
aI33
aI54
aI26
aI49
aI4
aI38
aI14
aI21
aI42
aI58
aI5
aI62
aI80
aI15
aI44
aI60
aI67
aI79
aI84
aI47
aI42
aI87
aI46
aI36
aI24
aI66
aI12
aI47
aI52
aI66
aI46
aI29
aI38
aI13
aI41
aI45
aI73
aI2
aI21
aI10
aI17
aI76
aI71
aI83
aI56
aI80
aI16
aI95
aI63
aI67
aI88
aI7
aI19
aI49
aI28
aI26
aI6
aI69
aI50
aI7
aI12
aI38
aI39
aI46
aI12
aI10
aI43
aI30
aI27
aI78
aI79
aI9
aI55
aI58
aI62
aI33
aI70
aI18
aI88
aI57
aI71
aI21
aI4
aI34
aI57
aI24
aI93
aI82
aI88
aI88
aI7
aI0
aI98
aI47
aI66
aI57
aI47
aI52
aI19
aI26
aI73
aI4
aI4
aI2
aI15
aI50
aI25
aI24
aI61
aI28
aI51
aI78
aI59
aI74
aI27
aI74
aI55
aI35
aI12
aI91
aI33
aI20
aI13
aI35
aI25
aI44
aI94
aI34
aI7
aI50
aI46
aI63
aI42
aI8
aI70
aI10
aI36
aI33
aI80
aI63
aI14
aI63
aI4
aI42
aI26
aI75
aI6
aI11
aI7
aI61
aI6
aI54
aI37
aI76
aI34
aI16
aI47
aI28
aI39
aI68
aI5
aI35
aI13
aI47
aI0
aI29
aI0
aI8
aI14
aI25
aI31
aI51
aI82
aI24
aI60
aI21
aI45
aI82
aI54
aI91
aI36
aI48
aI16
aI12
aI50
aI56
aI86
aI72
aI20
aI51
aI51
aI35
aI72
aI44
aI2
aI81
aI18
aI62
aI57
aI82
aI40
aI24
aI4
aI11
aI38
aI37
aI26
aI40
aI65
aI37
aI4
aI54
aI78
aI58
aI11
aI35
aI80
aI27
aI75
aI54
aI71
aI83
aI57
aI62
aI17
aI59
aI20
aI15
aI61
aI29
aI54
aI5
aI67
aI74
aI69
aI30
aI12
aI66
aI47
aI42
aI5
aI78
aI27
aI61
aI36
aI39
aI5
aI42
aI61
aI50
aI58
aI71
aI16
aI10
aI46
aI44
aI26
aI52
aI80
aI3
aI19
aI24
aI18
aI1
aI23
aI70
aI29
aI48
aI64
aI7
aI21
aI60
aI48
aI79
aI75
aI19
aI84
aI48
aI1
aI44
aI74
aI0
aI73
aI30
aI25
aI64
aI33
aI32
aI3
aI84
aI15
aI41
aI30
aI9
aI8
aI49
aI81
aI1
aI8
aI69
aI70
aI27
aI15
aI5
aI55
aI29
aI87
aI6
aI44
aI66
aI53
aI78
aI50
aI41
aI35
aI27
aI49
aI16
aI25
aI1
aI84
aI34
aI7
aI9
aI49
aI56
aI38
aI51
aI34
aI41
aI69
aI68
aI16
aI43
aI21
aI48
aI37
aI59
aI3
aI39
aI7
aI34
aI53
aI60
aI88
aI2
aI75
aI15
aI31
aI75
aI42
aI22
aI38
aI19
aI8
aI54
aI34
aI17
aI28
aI6
aI82
aI48
aI11
aI52
aI19
aI31
aI45
aI12
aI83
aI65
aI40
aI10
aI22
aI29
aI19
aI65
aI18
aI53
aI2
aI76
aI18
aI67
aI3
aI42
aI60
aI71
aI63
aI2
aI84
aI46
aI16
aI77
aI19
aI40
aI31
aI61
aI9
aI5
aI69
aI65
aI45
aI56
aI45
aI54
aI28
aI87
aI68
aI34
aI85
aI43
aI30
aI75
aI47
aI12
aI64
aI52
aI40
aI0
aI39
aI29
aI10
aI47
aI90
aI60
aI59
aI6
aI62
aI11
aI52
aI84
aI57
aI37
aI13
aI23
aI63
aI47
aI57
aI30
aI33
aI49
aI10
aI66
aI7
aI32
aI41
aI13
aI76
aI85
aI3
aI55
aI31
aI68
aI63
aI26
aI65
aI48
aI36
aI55
aI74
aI14
aI44
aI84
aI49
aI43
aI64
aI3
aI83
aI89
aI79
aI35
aI60
aI73
aI23
aI32
aI21
aI61
aI5
aI6
aI28
aI6
aI61
aI49
aI85
aI37
aI25
aI3
aI96
aI0
aI22
aI49
aI94
aI46
aI41
aI45
aI81
aI38
aI11
aI85
aI74
aI40
aI76
aI81
aI63
aI70
aI39
aI0
aI10
aI32
aI12
aI48
aI29
aI70
aI95
aI15
aI51
aI68
aI78
aI38
aI56
aI37
aI73
aI89
aI10
aI67
aI56
aI32
aI17
aI43
aI36
aI5
aI27
aI89
aI45
aI54
aI56
aI46
aI56
aI56
aI2
aI53
aI29
aI53
aI20
aI36
aI26
aI69
aI41
aI62
aI30
aI59
aI64
aI1
aI82
aI49
aI54
aI83
aI50
aI87
aI23
aI86
aI73
aI21
aI12
aI22
aI7
aI12
aI15
aI18
aI20
aI34
aI6
aI68
aI83
aI28
aI22
aI4
aI43
aI33
aI52
aI23
aI70
aI66
aI57
aI72
aI36
aI35
aI59
aI5
aI41
aI86
aI40
aI62
aI28
aI24
aI29
aI2
aI45
aI26
aI0
aI88
aI92
aI24
aI32
aI27
aI6
aI76
aI67
aI58
aI85
aI51
asS'plan_length'
p5
(lp6
I1
aI2
aI1
aI2
aI1
aI3
aI23
aI1
aI2
aI1
aI1
aI4
aI2
aI10
aI1
aI15
aI11
aI8
aI3
aI3
aI3
aI1
aI2
aI2
aI7
aI4
aI1
aI1
aI4
aI7
aI6
aI14
aI1
aI1
aI1
aI2
aI1
aI1
aI13
aI1
aI2
aI1
aI2
aI2
aI1
aI1
aI1
aI4
aI11
aI17
aI1
aI2
aI13
aI1
aI1
aI5
aI1
aI15
aI10
aI1
aI1
aI1
aI5
aI7
aI10
aI1
aI21
aI12
aI4
aI8
aI2
aI1
aI1
aI10
aI1
aI22
aI2
aI2
aI17
aI1
aI1
aI3
aI10
aI1
aI5
aI4
aI1
aI1
aI19
aI1
aI1
aI1
aI2
aI1
aI1
aI1
aI4
aI13
aI1
aI1
aI5
aI2
aI1
aI3
aI1
aI1
aI7
aI2
aI3
aI1
aI3
aI1
aI2
aI12
aI10
aI7
aI3
aI11
aI16
aI6
aI1
aI1
aI4
aI1
aI11
aI7
aI1
aI1
aI1
aI4
aI1
aI7
aI20
aI3
aI13
aI17
aI1
aI1
aI1
aI4
aI15
aI2
aI1
aI1
aI1
aI1
aI1
aI1
aI1
aI28
aI15
aI5
aI4
aI1
aI2
aI1
aI1
aI14
aI10
aI3
aI4
aI3
aI1
aI1
aI3
aI2
aI5
aI2
aI2
aI8
aI1
aI1
aI1
aI6
aI1
aI3
aI16
aI1
aI2
aI2
aI1
aI4
aI3
aI9
aI1
aI1
aI1
aI1
aI5
aI1
aI1
aI5
aI9
aI1
aI15
aI1
aI1
aI1
aI3
aI4
aI4
aI6
aI1
aI4
aI6
aI1
aI2
aI2
aI1
aI8
aI2
aI1
aI1
aI1
aI1
aI3
aI1
aI4
aI1
aI1
aI1
aI1
aI7
aI2
aI1
aI1
aI8
aI2
aI1
aI1
aI5
aI1
aI1
aI4
aI4
aI14
aI21
aI12
aI1
aI1
aI4
aI3
aI6
aI1
aI2
aI1
aI6
aI1
aI3
aI5
aI22
aI13
aI1
aI1
aI1
aI7
aI1
aI2
aI1
aI1
aI1
aI1
aI1
aI4
aI14
aI1
aI1
aI8
aI1
aI1
aI1
aI1
aI1
aI1
aI3
aI1
aI13
aI7
aI25
aI5
aI1
aI13
aI1
aI1
aI5
aI5
aI1
aI8
aI2
aI1
aI9
aI1
aI15
aI1
aI1
aI1
aI8
aI1
aI1
aI1
aI2
aI1
aI1
aI13
aI1
aI1
aI6
aI1
aI1
aI1
aI1
aI1
aI8
aI1
aI1
aI2
aI2
aI11
aI1
aI1
aI11
aI8
aI1
aI1
aI2
aI1
aI5
aI1
aI1
aI2
aI1
aI5
aI1
aI15
aI6
aI1
aI1
aI9
aI1
aI1
aI1
aI1
aI1
aI1
aI1
aI1
aI1
aI1
aI2
aI11
aI5
aI2
aI1
aI14
aI1
aI11
aI4
aI1
aI1
aI1
aI4
aI1
aI21
aI1
aI2
aI1
aI5
aI6
aI1
aI4
aI1
aI2
aI9
aI6
aI7
aI1
aI8
aI1
aI1
aI1
aI1
aI1
aI2
aI22
aI5
aI1
aI1
aI7
aI1
aI2
aI1
aI3
aI17
aI2
aI1
aI21
aI13
aI1
aI1
aI1
aI20
aI5
aI1
aI1
aI6
aI1
aI1
aI1
aI1
aI1
aI1
aI1
aI2
aI1
aI1
aI6
aI1
aI10
aI12
aI2
aI2
aI4
aI10
aI1
aI6
aI1
aI1
aI1
aI7
aI1
aI1
aI4
aI1
aI1
aI14
aI5
aI1
aI1
aI2
aI1
aI1
aI10
aI1
aI2
aI9
aI2
aI4
aI1
aI1
aI1
aI1
aI1
aI1
aI1
aI12
aI2
aI1
aI1
aI1
aI1
aI1
aI8
aI7
aI1
aI6
aI1
aI10
aI1
aI10
aI8
aI1
aI15
aI1
aI2
aI1
aI11
aI2
aI32
aI9
aI1
aI1
aI2
aI1
aI1
aI1
aI1
aI1
aI6
aI5
aI1
aI1
aI13
aI1
aI8
aI1
aI1
aI1
aI1
aI15
aI8
aI23
aI1
aI1
aI1
aI1
aI7
aI1
aI1
aI1
aI1
aI1
aI14
aI1
aI1
aI15
aI6
aI4
aI17
aI3
aI2
aI6
aI1
aI1
aI7
aI5
aI1
aI21
aI1
aI8
aI1
aI7
aI1
aI1
aI16
aI2
aI1
aI3
aI8
aI7
aI1
aI2
aI44
aI3
aI2
aI5
aI13
aI1
aI4
aI1
aI1
aI1
aI1
aI1
aI12
aI1
aI7
aI2
aI1
aI13
aI1
aI3
aI1
aI1
aI1
aI1
aI1
aI9
aI7
aI1
aI1
aI1
aI2
aI1
aI1
aI22
aI1
aI3
aI7
aI4
aI1
aI1
aI1
aI1
aI1
aI1
aI1
aI1
aI1
aI2
aI3
aI1
aI1
aI1
aI2
aI1
aI1
aI2
aI2
aI2
aI16
aI8
aI4
aI1
aI1
aI22
aI1
aI1
aI56
aI1
aI1
aI3
aI5
aI1
aI1
aI6
aI3
aI22
aI2
aI1
aI1
aI1
aI20
aI3
aI1
aI3
aI1
aI1
aI1
aI1
aI1
aI5
aI1
aI13
aI1
aI4
aI4
aI10
aI25
aI3
aI9
aI1
aI1
aI24
aI1
aI5
aI2
aI1
aI11
aI1
aI8
aI11
aI1
aI8
aI1
aI3
aI1
aI1
aI4
aI13
aI1
aI17
aI1
aI1
aI17
aI5
aI3
aI1
aI8
aI7
aI1
aI2
aI1
aI4
aI1
aI2
aI1
aI20
aI7
aI1
aI1
aI1
aI3
aI16
aI1
aI10
aI3
aI7
aI1
aI15
aI19
aI21
aI3
aI2
aI9
aI1
aI12
aI1
aI14
aI1
aI10
aI3
aI1
aI1
aI1
aI13
aI1
aI4
aI1
aI1
aI3
aI8
aI1
aI2
aI1
aI15
aI3
aI1
aI2
aI3
aI1
aI1
aI1
aI6
aI1
aI6
aI3
aI1
aI1
aI4
aI1
aI1
aI3
aI7
aI5
aI2
aI6
aI6
aI18
aI1
aI18
aI2
aI3
aI6
aI6
aI2
aI1
aI3
aI1
aI1
aI1
aI1
aI1
aI19
aI3
aI12
aI1
aI1
aI2
aI1
aI1
aI1
aI10
aI2
aI8
aI7
aI1
aI1
aI1
aI1
aI1
aI1
aI27
aI19
aI3
aI22
aI20
aI1
aI1
aI8
aI1
aI22
aI1
aI15
aI12
aI1
aI1
aI1
aI18
aI5
aI3
aI3
aI8
aI2
aI18
aI1
aI20
aI1
aI12
aI1
aI7
aI1
aI1
aI1
aI1
aI1
aI1
aI3
aI1
aI1
aI1
aI1
aI1
aI1
aI1
aI8
aI1
aI1
aI23
aI5
aI1
aI1
aI1
aI1
aI1
aI1
aI16
aI1
aI3
aI1
aI1
aI13
aI9
aI1
aI4
aI1
aI1
aI1
aI13
aI9
aI1
aI1
aI7
aI1
aI17
aI5
aI7
aI4
aI3
aI4
asS'num_nodes'
p7
(lp8
I1
aI8
aI1
aI48
aI44
aI4
aI1
aI4
aI86
aI2
aI4
aI1
aI73
aI2
aI14
aI4
aI15
aI41
aI3
aI1
aI44
aI24
aI12
aI27
aI14
aI110
aI8
aI4
aI2
aI8
aI5
aI23
aI7
aI2
aI22
aI1
aI21
aI21
aI88
aI24
aI58
aI1
aI1
aI1
aI4
aI1
aI1
aI81
aI128
aI1
aI3
aI1
aI7
aI35
aI3
aI1
aI2
aI2
aI5
aI58
aI92
aI64
aI1
aI3
aI16
aI2
aI82
aI1
aI18
aI1
aI16
aI49
aI1
aI1
aI2
aI25
aI8
aI20
aI45
aI1
aI64
aI15
aI10
aI9
aI86
aI9
aI1
aI65
aI1
aI17
aI29
aI1
aI72
aI3
aI25
aI7
aI38
aI80
aI2
aI1
aI111
aI8
aI48
aI5
aI1
aI6
aI10
aI1
aI1
aI107
aI2
aI2
aI1
aI6
aI1
aI1
aI1
aI5
aI67
aI18
aI1
aI88
aI1
aI24
aI11
aI1
aI4
aI64
aI1
aI83
aI1
aI32
aI6
aI44
aI15
aI1
aI4
aI1
aI6
aI140
aI51
aI44
aI8
aI16
aI42
aI79
aI16
aI1
aI2
aI16
aI1
aI55
aI24
aI1
aI1
aI1
aI8
aI15
aI1
aI27
aI61
aI13
aI58
aI98
aI1
aI1
aI1
aI5
aI44
aI5
aI2
aI1
aI1
aI1
aI1
aI1
aI1
aI29
aI80
aI6
aI11
aI1
aI4
aI1
aI2
aI50
aI26
aI4
aI95
aI36
aI19
aI18
aI4
aI1
aI1
aI4
aI8
aI101
aI0
aI6
aI62
aI104
aI6
aI3
aI3
aI39
aI1
aI1
aI2
aI7
aI1
aI8
aI41
aI113
aI1
aI6
aI3
aI1
aI5
aI10
aI32
aI8
aI1
aI1
aI2
aI1
aI13
aI1
aI64
aI2
aI17
aI41
aI1
aI16
aI3
aI1
aI1
aI2
aI13
aI5
aI5
aI26
aI1
aI5
aI23
aI1
aI11
aI3
aI1
aI37
aI3
aI1
aI1
aI1
aI1
aI123
aI15
aI1
aI16
aI98
aI1
aI2
aI1
aI1
aI17
aI9
aI1
aI22
aI1
aI39
aI7
aI2
aI1
aI90
aI36
aI1
aI83
aI1
aI5
aI60
aI10
aI0
aI15
aI63
aI13
aI1
aI1
aI15
aI97
aI19
aI21
aI97
aI1
aI3
aI1
aI28
aI1
aI7
aI17
aI56
aI4
aI61
aI1
aI2
aI2
aI22
aI1
aI3
aI1
aI1
aI2
aI124
aI86
aI1
aI1
aI15
aI49
aI1
aI2
aI9
aI47
aI2
aI1
aI12
aI2
aI128
aI1
aI1
aI12
aI122
aI2
aI4
aI25
aI1
aI90
aI27
aI78
aI12
aI2
aI2
aI77
aI1
aI1
aI21
aI31
aI113
aI1
aI69
aI32
aI3
aI2
aI56
aI1
aI94
aI1
aI20
aI1
aI1
aI29
aI1
aI1
aI1
aI9
aI45
aI1
aI2
aI17
aI2
aI2
aI43
aI20
aI1
aI24
aI1
aI1
aI2
aI102
aI1
aI9
aI1
aI1
aI4
aI62
aI3
aI54
aI2
aI1
aI38
aI81
aI36
aI2
aI1
aI4
aI1
aI22
aI1
aI1
aI5
aI2
aI17
aI14
aI2
aI73
aI15
aI5
aI106
aI15
aI1
aI117
aI1
aI55
aI1
aI81
aI1
aI1
aI2
aI2
aI1
aI1
aI1
aI1
aI1
aI33
aI2
aI8
aI62
aI3
aI6
aI3
aI2
aI15
aI1
aI68
aI10
aI28
aI1
aI2
aI153
aI1
aI10
aI1
aI109
aI1
aI5
aI1
aI6
aI7
aI2
aI5
aI1
aI3
aI32
aI7
aI25
aI1
aI22
aI53
aI1
aI125
aI20
aI50
aI2
aI2
aI1
aI1
aI3
aI116
aI6
aI2
aI1
aI20
aI65
aI2
aI3
aI2
aI4
aI47
aI3
aI1
aI38
aI58
aI2
aI145
aI2
aI1
aI85
aI32
aI21
aI124
aI1
aI1
aI7
aI1
aI1
aI60
aI2
aI1
aI2
aI1
aI2
aI3
aI1
aI1
aI7
aI1
aI14
aI53
aI4
aI4
aI5
aI33
aI1
aI32
aI1
aI2
aI2
aI8
aI113
aI1
aI1
aI16
aI1
aI55
aI1
aI20
aI13
aI107
aI1
aI93
aI1
aI4
aI29
aI2
aI98
aI1
aI37
aI1
aI9
aI34
aI3
aI5
aI2
aI1
aI1
aI2
aI2
aI37
aI1
aI2
aI54
aI121
aI3
aI3
aI1
aI2
aI1
aI1
aI32
aI2
aI72
aI39
aI28
aI1
aI14
aI134
aI1
aI112
aI53
aI1
aI38
aI44
aI1
aI53
aI59
aI1
aI11
aI1
aI39
aI4
aI33
aI15
aI2
aI1
aI5
aI2
aI2
aI1
aI1
aI1
aI7
aI6
aI1
aI2
aI54
aI106
aI1
aI40
aI1
aI2
aI133
aI1
aI1
aI74
aI28
aI40
aI7
aI2
aI2
aI110
aI1
aI2
aI120
aI8
aI1
aI2
aI1
aI1
aI113
aI1
aI51
aI2
aI1
aI39
aI12
aI5
aI89
aI9
aI3
aI7
aI18
aI4
aI25
aI35
aI2
aI54
aI1
aI8
aI31
aI2
aI107
aI77
aI1
aI16
aI1
aI38
aI30
aI1
aI2
aI78
aI3
aI1
aI11
aI16
aI27
aI2
aI8
aI111
aI134
aI125
aI10
aI8
aI35
aI56
aI2
aI10
aI25
aI122
aI16
aI1
aI1
aI1
aI1
aI16
aI1
aI67
aI1
aI8
aI42
aI10
aI2
aI21
aI1
aI13
aI1
aI1
aI2
aI1
aI2
aI35
aI90
aI29
aI1
aI36
aI1
aI1
aI4
aI2
aI1
aI75
aI0
aI1
aI8
aI8
aI12
aI1
aI2
aI1
aI60
aI2
aI1
aI1
aI51
aI1
aI60
aI1
aI102
aI2
aI3
aI12
aI1
aI1
aI103
aI1
aI24
aI107
aI10
aI1
aI1
aI4
aI5
aI3
aI116
aI102
aI51
aI10
aI1
aI1
aI75
aI1
aI103
aI1
aI83
aI1
aI2
aI81
aI7
aI21
aI121
aI1
aI2
aI41
aI101
aI4
aI115
aI3
aI1
aI85
aI2
aI1
aI95
aI9
aI1
aI4
aI115
aI24
aI2
aI1
aI63
aI1
aI1
aI2
aI6
aI1
aI22
aI1
aI5
aI11
aI11
aI78
aI4
aI10
aI2
aI1
aI94
aI1
aI21
aI3
aI1
aI50
aI20
aI1
aI41
aI22
aI63
aI1
aI9
aI1
aI9
aI1
aI3
aI1
aI17
aI39
aI1
aI99
aI52
aI105
aI2
aI1
aI62
aI19
aI13
aI4
aI68
aI1
aI37
aI8
aI1
aI3
aI1
aI15
aI2
aI4
aI90
aI1
aI99
aI20
aI1
aI13
aI1
aI1
aI12
aI27
aI1
aI35
aI9
aI11
aI1
aI80
aI77
aI72
aI10
aI3
aI30
aI1
aI44
aI1
aI28
aI1
aI23
aI4
aI1
aI2
aI1
aI86
aI12
aI1
aI8
aI2
aI1
aI12
aI44
aI1
aI6
aI1
aI27
aI4
aI2
aI90
aI3
aI92
aI13
aI2
aI2
aI1
aI29
aI1
aI130
aI0
aI7
aI4
aI1
aI1
aI28
aI1
aI1
aI8
aI24
aI6
aI94
aI9
aI27
aI7
aI68
aI56
aI1
aI112
aI6
aI8
aI7
aI24
aI12
aI1
aI4
aI2
aI1
aI1
aI1
aI1
aI20
aI16
aI34
aI2
aI1
aI8
aI1
aI2
aI1
aI16
aI5
aI14
aI37
aI1
aI2
aI1
aI2
aI2
aI1
aI137
aI110
aI13
aI23
aI86
aI24
aI1
aI1
aI23
aI2
aI103
aI74
aI1
aI71
aI117
aI82
aI45
aI1
aI1
aI1
aI88
aI6
aI93
aI8
aI98
aI7
aI9
aI7
aI77
aI108
aI1
aI39
aI2
aI37
aI2
aI30
aI24
aI67
aI1
aI1
aI2
aI1
aI1
aI1
aI12
aI1
aI1
aI2
aI2
aI2
aI2
aI2
aI9
aI1
aI78
aI2
aI121
aI13
aI1
aI1
aI1
aI1
aI104
aI2
aI2
aI35
aI1
aI12
aI1
aI1
aI103
aI63
aI128
aI33
aI1
aI5
aI1
aI34
aI1
aI1
aI14
aI30
aI2
aI1
aI38
aI1
aI115
aI18
aI13
aI98
aI124
aI22
aI5
aI4
aI10
aI22
asS'times'
p9
(lp10
F3.549077033996582
aF52.39023017883301
aF3.7135889530181885
aF896.7003071308136
aF653.2261371612549
aF19.684420824050903
aF3.4847888946533203
aF10.298722982406616
aF522.1668078899384
aF5.874727010726929
aF30.499668836593628
aF3.5598409175872803
aF600.5316648483276
aF13.204039096832275
aF53.8820481300354
aF28.396256923675537
aF712.3494348526001
aF207.1357238292694
aF1281.3653619289398
aF3.7371580600738525
aF272.3967158794403
aF1252.5605280399323
aF23.98830795288086
aF150.67601704597473
aF69.57183003425598
aF600.3496999740601
aF44.46467995643616
aF38.46301007270813
aF7.964901924133301
aF47.915011167526245
aF26.990580081939697
aF119.20620489120483
aF34.251128911972046
aF5.545906066894531
aF706.7986810207367
aF3.3644862174987793
aF112.13902187347412
aF139.38163995742798
aF601.805694103241
aF173.6991319656372
aF255.52981901168823
aF3.234178066253662
aF5.9069859981536865
aF7.176573991775513
aF27.222025871276855
aF5.132907867431641
aF3.4666969776153564
aF563.8772330284119
aF600.2996230125427
aF32.9656720161438
aF6.842397928237915
aF6.92880916595459
aF68.21297097206116
aF650.1070640087128
aF7.282879829406738
aF3.1838760375976562
aF7.2241809368133545
aF9.010156869888306
aF14.87540578842163
aF297.4596469402313
aF615.7899420261383
aF407.58640789985657
aF4.241175174713135
aF7.8235838413238525
aF60.855732917785645
aF7.057494163513184
aF636.1379940509796
aF6.406744956970215
aF93.90136694908142
aF4.140469074249268
aF37.68769407272339
aF341.49806690216064
aF3.462172031402588
aF4.044615030288696
aF6.4481470584869385
aF123.01509499549866
aF14.774909973144531
aF645.5795018672943
aF340.22450590133667
aF3.7937119007110596
aF462.3735029697418
aF36.13032603263855
aF90.14131712913513
aF18.238271951675415
aF874.5407118797302
aF34.09047889709473
aF4.010424852371216
aF600.0844669342041
aF3.6305911540985107
aF2652.1672809123993
aF134.42164707183838
aF3.6172051429748535
aF448.6232521533966
aF9.82874608039856
aF736.9796171188354
aF36.05431818962097
aF612.8949868679047
aF407.67622089385986
aF13.743144035339355
aF4.254554033279419
aF601.603816986084
aF91.98597693443298
aF219.29572987556458
aF1120.7414038181305
aF3.522012948989868
aF14.783308029174805
aF50.22982907295227
aF3.419116973876953
aF5.282140016555786
aF586.5515029430389
aF35.164584159851074
aF6.398116827011108
aF3.5547189712524414
aF60.304161071777344
aF4.283100843429565
aF3.86929988861084
aF4.2801878452301025
aF15.691143989562988
aF308.11699295043945
aF740.8387260437012
aF9.538225889205933
aF612.3291928768158
aF3.835469961166382
aF106.4902229309082
aF253.73402190208435
aF4.025166988372803
aF13.738242149353027
aF606.3549029827118
aF3.7507309913635254
aF608.6188700199127
aF4.347271203994751
aF142.4519979953766
aF48.59295415878296
aF601.807785987854
aF93.43727397918701
aF2.9112417697906494
aF12.869179964065552
aF4.035785913467407
aF26.166347980499268
aF609.9189240932465
aF235.91008806228638
aF246.73050594329834
aF20.255407094955444
aF60.26949405670166
aF302.1272130012512
aF458.5204999446869
aF112.72093486785889
aF2.9623310565948486
aF5.3241918087005615
aF117.50384092330933
aF3.963839054107666
aF276.6322569847107
aF256.57284903526306
aF5.542022943496704
aF3.2653088569641113
aF3.328139066696167
aF712.309247970581
aF85.13593006134033
aF3.3897478580474854
aF132.12713599205017
aF404.12386989593506
aF60.95458698272705
aF279.221284866333
aF465.3657510280609
aF4.045703172683716
aF6.007138967514038
aF3.9851858615875244
aF12.21309494972229
aF168.9035358428955
aF119.12257385253906
aF5.124191045761108
aF3.670415163040161
aF3.601223945617676
aF3.8327391147613525
aF4.048981189727783
aF3.5824267864227295
aF6.722192049026489
aF53.696901082992554
aF333.38105607032776
aF17.92517900466919
aF400.15881395339966
aF3.594797134399414
aF42.41703414916992
aF3.3873231410980225
aF19.76326894760132
aF303.79757714271545
aF103.29448223114014
aF9.765064001083374
aF605.0049510002136
aF600.0905821323395
aF936.8687989711761
aF75.75194501876831
aF10.332602977752686
aF3.7552218437194824
aF3.448556900024414
aF15.5228750705719
aF52.98279690742493
aF601.4454689025879
aF643.3382921218872
aF883.7473609447479
aF603.29483294487
aF607.8622601032257
aF13.432607889175415
aF8.751935958862305
aF7.6867499351501465
aF354.6262140274048
aF4.525728940963745
aF3.0543899536132812
aF6.7237420082092285
aF17.74336814880371
aF3.5447652339935303
aF155.9415988922119
aF202.42175698280334
aF601.7494969367981
aF3.276099920272827
aF102.00532484054565
aF8.718033075332642
aF3.6908390522003174
aF12.209728956222534
aF46.295040130615234
aF297.4440360069275
aF640.8181111812592
aF3.7458770275115967
aF5.726924896240234
aF7.102959156036377
aF3.4530489444732666
aF88.12985301017761
aF3.5932350158691406
aF601.5035610198975
aF5.6666810512542725
aF78.85711193084717
aF236.18406414985657
aF3.8761188983917236
aF30.01309084892273
aF2712.165666103363
aF4.956990003585815
aF3.0020182132720947
aF8.761396884918213
aF77.32367086410522
aF26.66458010673523
aF11.313491106033325
aF233.34619402885437
aF3.5601999759674072
aF16.97768807411194
aF136.5871970653534
aF3.3084959983825684
aF41.7994179725647
aF9.273449182510376
aF18.315276861190796
aF164.29465293884277
aF8.077676057815552
aF3.4655959606170654
aF3.6839611530303955
aF4.032679080963135
aF4.172816038131714
aF603.9962100982666
aF78.83754086494446
aF4.03404688835144
aF76.3167450428009
aF608.2636759281158
aF3.640862226486206
aF33.53295111656189
aF3.5507431030273438
aF3.3747918605804443
aF107.44406700134277
aF49.95386791229248
aF4.339462995529175
aF602.0683331489563
aF3.8379268646240234
aF170.51145386695862
aF44.363078117370605
aF7.632691144943237
aF3.700244903564453
aF600.1112859249115
aF124.35661888122559
aF3.310521125793457
aF600.7444159984589
aF3.3811209201812744
aF9.961867094039917
aF816.1657340526581
aF54.47743797302246
aF652.2201111316681
aF29.78995704650879
aF490.89350390434265
aF48.94609212875366
aF3.393734931945801
aF4.528473138809204
aF123.21820998191833
aF608.7969930171967
aF70.72692108154297
aF147.14919900894165
aF604.8379211425781
aF6.239881992340088
aF5.557693958282471
aF3.7045681476593018
aF180.26057815551758
aF4.109380006790161
aF37.29896306991577
aF147.22820281982422
aF252.05257511138916
aF2095.5547139644623
aF311.19782876968384
aF3.664330005645752
aF9.107758045196533
aF24.247981071472168
aF227.62384676933289
aF4.253093004226685
aF6.830647945404053
aF4.7778730392456055
aF3.764305830001831
aF21.949673175811768
aF601.4091999530792
aF601.0084600448608
aF5.847759008407593
aF5.053998947143555
aF102.1270899772644
aF425.8406341075897
aF4.196090936660767
aF6.934581995010376
aF759.8381621837616
aF180.38334584236145
aF5.324144124984741
aF3.561758041381836
aF723.806510925293
aF7.489129066467285
aF605.1497611999512
aF3.842421054840088
aF3.0914549827575684
aF851.4860501289368
aF603.3437178134918
aF9.29494309425354
aF9.266694068908691
aF620.5221700668335
aF3.2914907932281494
aF531.0014548301697
aF159.58837985992432
aF583.9106330871582
aF42.721778869628906
aF1261.1091711521149
aF5.663120985031128
aF455.1061019897461
aF4.263085842132568
aF4.152882099151611
aF116.7547698020935
aF145.11748003959656
aF629.3303298950195
aF22.48578381538391
aF648.2167131900787
aF167.7333779335022
aF11.498085021972656
aF5.923915147781372
aF382.279746055603
aF3.7973990440368652
aF413.07670998573303
aF13.34061312675476
aF774.6146321296692
aF3.4002208709716797
aF3.217769145965576
aF269.31539821624756
aF5.374658823013306
aF3.8990020751953125
aF4.362887144088745
aF134.64364910125732
aF603.0714199542999
aF4.447072982788086
aF5.603095054626465
aF52.91603684425354
aF7.754274129867554
aF6.0669989585876465
aF663.4257209300995
aF124.13239812850952
aF3.500030994415283
aF601.0065100193024
aF3.592082977294922
aF3.409855842590332
aF5.790421962738037
aF610.9434230327606
aF4.558724880218506
aF21.83085012435913
aF3.4752349853515625
aF4.07055401802063
aF38.39106297492981
aF1258.031984090805
aF6.633249998092651
aF250.3790807723999
aF8.355411052703857
aF3.351325035095215
aF201.6510248184204
aF840.6451909542084
aF174.0773229598999
aF5.437000036239624
aF3.4006741046905518
aF56.36143183708191
aF6.200237989425659
aF131.3929340839386
aF3.8223769664764404
aF3.546422004699707
aF32.715102195739746
aF7.174971103668213
aF657.3515968322754
aF80.79648900032043
aF8.045490026473999
aF389.3859808444977
aF103.33925199508667
aF1533.4158651828766
aF605.1222970485687
aF868.4611418247223
aF5.062078952789307
aF600.8797760009766
aF3.2635178565979004
aF317.44213700294495
aF3.1777760982513428
aF605.8462419509888
aF3.197782039642334
aF3.668876886367798
aF10.803775072097778
aF6.078288793563843
aF3.4029171466827393
aF3.2479560375213623
aF5.648561954498291
aF3.8582351207733154
aF4.13500189781189
aF1287.2235448360443
aF646.9949440956116
aF90.7808198928833
aF266.1500771045685
aF1169.5745310783386
aF14.6472909450531
aF9.395193099975586
aF17.613220930099487
aF26.745787143707275
aF4.267259120941162
aF372.90243792533875
aF62.87098503112793
aF635.0172588825226
aF3.3780810832977295
aF6.824753999710083
aF600.8359282016754
aF3.4353251457214355
aF429.05215096473694
aF3.4769139289855957
aF465.46041989326477
aF3.7035248279571533
aF137.25574803352356
aF5.247014045715332
aF19.891000986099243
aF20.13531804084778
aF24.917353868484497
aF11.539270162582397
aF2.8915958404541016
aF9.296551942825317
aF254.3737552165985
aF15.124310970306396
aF143.78972101211548
aF3.758939027786255
aF177.37849593162537
aF727.1986889839172
aF3.764542818069458
aF709.7733218669891
aF758.7360730171204
aF667.7738621234894
aF13.681834936141968
aF7.517632007598877
aF3.4014599323272705
aF3.5476598739624023
aF6.522814035415649
aF545.4536929130554
aF15.712496042251587
aF5.6971049308776855
aF6.151654005050659
aF118.30283999443054
aF650.9802238941193
aF5.857225179672241
aF8.857728004455566
aF5.270087003707886
aF13.414237022399902
aF193.8451690673828
aF9.528388023376465
aF3.8679440021514893
aF159.05106282234192
aF265.50496196746826
aF5.743350982666016
aF602.7556397914886
aF12.259184837341309
aF4.2533910274505615
aF522.6032521724701
aF123.45659184455872
aF1488.2274141311646
aF600.6496489048004
aF3.3698699474334717
aF5.734292030334473
aF13.036180973052979
aF5.1220619678497314
aF3.4217441082000732
aF601.00332903862
aF5.805982828140259
aF5.081897974014282
aF12.685608863830566
aF3.674698829650879
aF7.048955917358398
aF7.277963876724243
aF4.2387731075286865
aF5.196477890014648
aF19.59084677696228
aF4.193387985229492
aF117.0172209739685
aF226.20572304725647
aF28.389799118041992
aF135.4663281440735
aF13.800994873046875
aF170.30673789978027
aF3.4876840114593506
aF162.99533677101135
aF8.117377996444702
aF6.364444971084595
aF6.422892093658447
aF20.32211208343506
aF609.4087040424347
aF4.162766933441162
aF5.278424978256226
aF78.37039494514465
aF4.179810047149658
aF600.0626780986786
aF4.288572788238525
aF108.99041986465454
aF64.6532211303711
aF600.3282208442688
aF3.4686269760131836
aF611.4382891654968
aF33.19240593910217
aF31.366432189941406
aF600.7849478721619
aF6.6617701053619385
aF644.3414120674133
aF3.7700939178466797
aF198.97047209739685
aF3.7807819843292236
aF160.12098693847656
aF159.17355585098267
aF7.494081974029541
aF10.938078880310059
aF5.739789009094238
aF4.045050859451294
aF4.182612180709839
aF5.689132213592529
aF8.213712930679321
aF638.0932419300079
aF3.1506080627441406
aF8.06731104850769
aF273.05836486816406
aF601.504298210144
aF8.003291130065918
aF608.2282328605652
aF3.3816168308258057
aF11.924872875213623
aF6.029814958572388
aF3.418052911758423
aF611.757777929306
aF8.483788967132568
aF600.466392993927
aF192.90051198005676
aF168.55907011032104
aF3.7826170921325684
aF65.96427512168884
aF604.8675599098206
aF18.828088998794556
aF610.4412369728088
aF241.22713685035706
aF3.464797019958496
aF211.57203698158264
aF196.4881739616394
aF4.405328035354614
aF602.3417129516602
aF365.12706899642944
aF7.949337959289551
aF73.87063694000244
aF22.745304107666016
aF200.48401999473572
aF119.99042892456055
aF90.57930588722229
aF74.87328791618347
aF5.457632780075073
aF4.245447158813477
aF20.560954093933105
aF7.971109867095947
aF6.9096550941467285
aF3.9580490589141846
aF3.7313990592956543
aF6.256947040557861
aF16.53189516067505
aF14.353075981140137
aF4.401803016662598
aF5.725671052932739
aF255.57050204277039
aF601.4349141120911
aF3.5744521617889404
aF190.14015793800354
aF3.3684380054473877
aF8.289514064788818
aF612.5203990936279
aF4.281835079193115
aF3.6681458950042725
aF356.55926299095154
aF151.84017205238342
aF169.52012491226196
aF876.1870288848877
aF5.316795110702515
aF15.063269853591919
aF601.1257619857788
aF4.110684871673584
aF6.126733064651489
aF604.3274259567261
aF17.74318504333496
aF3.687206983566284
aF32.49321103096008
aF3.4938340187072754
aF3.2721798419952393
aF759.1639349460602
aF5.845885992050171
aF485.7119719982147
aF9.217351913452148
aF30.877878189086914
aF168.51259088516235
aF92.0615451335907
aF15.490134000778198
aF567.883819103241
aF52.5489068031311
aF782.8385598659515
aF37.13074088096619
aF685.3836538791656
aF700.1112940311432
aF121.77465391159058
aF600.9025650024414
aF21.845664978027344
aF601.1415002346039
aF3.6596689224243164
aF14.413780927658081
aF135.24243021011353
aF5.970340013504028
aF632.6623079776764
aF440.0204908847809
aF4.2217841148376465
aF63.903433084487915
aF3.275959014892578
aF678.2180590629578
aF149.53265285491943
aF3.5194058418273926
aF33.0026319026947
aF413.18550300598145
aF8.90466594696045
aF4.316023111343384
aF159.95778703689575
aF93.25456190109253
aF160.31351399421692
aF11.687033891677856
aF46.676656007766724
aF611.0616099834442
aF592.3399391174316
aF602.3733139038086
aF64.22313094139099
aF70.05746912956238
aF210.76009893417358
aF342.73057985305786
aF6.658919095993042
aF607.082484960556
aF664.2051429748535
aF602.5967619419098
aF120.9502170085907
aF5.164022922515869
aF13.724361181259155
aF7.726637125015259
aF3.708238124847412
aF709.3157780170441
aF3.763127088546753
aF306.470134973526
aF3.5842549800872803
aF18.095729112625122
aF1189.5809140205383
aF68.60355305671692
aF5.850980043411255
aF147.45703196525574
aF3.3979949951171875
aF268.3997309207916
aF3.881136894226074
aF4.185473203659058
aF17.167323112487793
aF3.4311909675598145
aF5.123552083969116
aF287.5726549625397
aF602.4827649593353
aF206.2784869670868
aF3.5910868644714355
aF1046.2455439567566
aF13.759410858154297
aF32.6297881603241
aF112.89265394210815
aF7.413568019866943
aF3.4963219165802
aF432.9236879348755
aF644.2519462108612
aF3.2784271240234375
aF44.920939922332764
aF18.333608865737915
aF68.6067008972168
aF4.335261106491089
aF5.675218820571899
aF3.4739902019500732
aF607.7182850837708
aF8.30427885055542
aF3.616456985473633
aF4.490084171295166
aF611.1024260520935
aF3.0675370693206787
aF605.0994548797607
aF6.041244029998779
aF608.9999141693115
aF6.748941898345947
aF38.307902097702026
aF73.01099491119385
aF3.5222129821777344
aF3.6391279697418213
aF613.1086061000824
aF3.442878007888794
aF820.2174689769745
aF611.879457950592
aF51.95510697364807
aF4.282612085342407
aF4.405592918395996
aF57.21942400932312
aF23.828256130218506
aF7.7026331424713135
aF606.5336050987244
aF493.0436179637909
aF410.8372550010681
aF100.57050395011902
aF8.551592111587524
aF3.3326029777526855
aF525.199404001236
aF3.632452964782715
aF601.1610100269318
aF4.80649995803833
aF272.5125091075897
aF9.67681097984314
aF9.088932037353516
aF602.2883810997009
aF39.88366413116455
aF140.84283900260925
aF612.4404168128967
aF3.413944959640503
aF6.2666661739349365
aF155.08910989761353
aF600.5749809741974
aF9.937697887420654
aF592.164617061615
aF8.179841041564941
aF9.97996211051941
aF602.5295519828796
aF7.87594199180603
aF3.3891730308532715
aF491.9896910190582
aF78.44882988929749
aF4.206902027130127
aF10.973510026931763
aF600.5947308540344
aF648.9916501045227
aF6.331697940826416
aF4.688888072967529
aF614.1337871551514
aF3.538498878479004
aF9.631883144378662
aF11.138039112091064
aF15.806390047073364
aF3.941776990890503
aF95.72278809547424
aF3.871366024017334
aF11.627830982208252
aF120.80279517173767
aF23.060418844223022
aF517.8273539543152
aF11.336915969848633
aF19.936224937438965
aF6.1597089767456055
aF4.255489826202393
aF500.1794638633728
aF7.298068046569824
aF125.00851798057556
aF9.258409023284912
aF3.4695870876312256
aF362.21419405937195
aF663.0630040168762
aF4.081331968307495
aF607.7483870983124
aF136.39105486869812
aF301.76131319999695
aF3.249037027359009
aF20.3621928691864
aF3.8624069690704346
aF231.21256685256958
aF6.251008033752441
aF2780.4290630817413
aF3.5922470092773438
aF87.9220781326294
aF374.7086498737335
aF3.686432123184204
aF600.7224099636078
aF292.2912509441376
aF601.3710589408875
aF10.409688949584961
aF4.484547853469849
aF302.2730379104614
aF157.34496593475342
aF58.578184843063354
aF2285.157529115677
aF655.5999331474304
aF3.5701639652252197
aF221.3975532054901
aF22.22909116744995
aF9.596426010131836
aF25.24665904045105
aF3.2776808738708496
aF80.37506198883057
aF5.5654778480529785
aF39.80122089385986
aF628.1560928821564
aF3.448949098587036
aF530.6671829223633
aF107.99333786964417
aF3.9784340858459473
aF730.0406069755554
aF2.906730890274048
aF3.6528069972991943
aF144.77549290657043
aF164.97327399253845
aF4.552148103713989
aF234.30642795562744
aF69.40054678916931
aF40.57424807548523
aF5.43913197517395
aF405.3391628265381
aF433.8197638988495
aF569.4887518882751
aF70.87612295150757
aF7.849385023117065
aF289.5431411266327
aF3.541764974594116
aF295.78402185440063
aF16.336058139801025
aF125.75494384765625
aF3.3021399974823
aF102.8077118396759
aF9.950546026229858
aF4.573840856552124
aF5.615499973297119
aF3.6539440155029297
aF512.0928199291229
aF693.5681991577148
aF3.8481991291046143
aF32.437068939208984
aF8.014431953430176
aF24.789045095443726
aF55.40574789047241
aF227.70446705818176
aF3.496194839477539
aF26.364776849746704
aF4.691241025924683
aF131.46887016296387
aF13.621647119522095
aF11.062747955322266
aF607.7515420913696
aF8.855668067932129
aF601.9623920917511
aF100.2253429889679
aF9.312016010284424
aF6.444849967956543
aF3.6721410751342773
aF277.4446849822998
aF3.5359599590301514
aF601.3170461654663
aF647.5014340877533
aF13.500802040100098
aF12.29688811302185
aF3.892648935317993
aF3.7350521087646484
aF148.55400800704956
aF6.767329931259155
aF5.368430852890015
aF134.82661890983582
aF162.560072183609
aF11.329380989074707
aF602.8441050052643
aF38.989372968673706
aF120.89980983734131
aF31.571674823760986
aF293.91760993003845
aF601.0662658214569
aF3.6299989223480225
aF456.3050220012665
aF27.857437133789062
aF41.72734594345093
aF14.508270978927612
aF104.55296611785889
aF122.22093391418457
aF3.5332558155059814
aF10.015069961547852
aF5.882562160491943
aF3.6848208904266357
aF4.842025995254517
aF3.8099989891052246
aF4.528010129928589
aF43.8712420463562
aF108.84323906898499
aF386.7566831111908
aF7.413329124450684
aF30.913511037826538
aF33.06244516372681
aF4.235594987869263
aF7.3728928565979
aF5.608743190765381
aF51.74668312072754
aF28.338765859603882
aF60.55179977416992
aF349.58815002441406
aF3.457533121109009
aF6.615106821060181
aF4.929440975189209
aF5.460294008255005
aF9.683174133300781
aF3.6323599815368652
aF565.6060528755188
aF505.4231369495392
aF69.01004099845886
aF58.12516784667969
aF600.4817202091217
aF60.14502692222595
aF4.250249862670898
aF3.853929042816162
aF152.13763308525085
aF5.924522876739502
aF600.6771931648254
aF522.0286149978638
aF3.664457082748413
aF406.82510709762573
aF601.840402841568
aF684.872486114502
aF214.54139494895935
aF3.701082944869995
aF3.477541923522949
aF9.385797023773193
aF401.0692961215973
aF17.396533966064453
aF618.5670790672302
aF54.452064990997314
aF600.1935710906982
aF77.24002289772034
aF33.728591203689575
aF34.17918801307678
aF360.14838194847107
aF603.0169198513031
aF7.87795090675354
aF171.2689290046692
aF6.25034499168396
aF463.44705605506897
aF5.684031009674072
aF170.00851678848267
aF1156.3082699775696
aF602.2703959941864
aF4.115040063858032
aF3.379589080810547
aF37.28315591812134
aF4.486456871032715
aF5.5505430698394775
aF3.4752328395843506
aF130.0385570526123
aF4.174000024795532
aF4.938724994659424
aF6.911103963851929
aF6.398866891860962
aF4.8203699588775635
aF5.589024066925049
aF5.231016159057617
aF22.52264714241028
aF3.890162944793701
aF600.838996887207
aF11.819039106369019
aF468.04141116142273
aF112.09037184715271
aF3.687366008758545
aF4.190029144287109
aF4.166133880615234
aF5.1400840282440186
aF601.9805889129639
aF6.421192169189453
aF6.064518928527832
aF142.7643120288849
aF3.34653902053833
aF160.3327190876007
aF3.4297640323638916
aF6.449247121810913
aF601.1825511455536
aF348.3934760093689
aF668.7149109840393
aF192.6352310180664
aF4.46126914024353
aF11.60141897201538
aF30.701797008514404
aF750.8996229171753
aF3.9709079265594482
aF3.7141640186309814
aF54.802221059799194
aF236.14224100112915
aF5.955840110778809
aF6.285299062728882
aF340.20222091674805
aF5.129395961761475
aF607.849319934845
aF42.65759587287903
aF74.0764410495758
aF605.2522008419037
aF600.3872148990631
aF136.01048302650452
aF15.427105903625488
aF1104.102224111557
aF67.995187997818
aF120.22744917869568
as.