(dp0
S'successes'
p1
(lp2
I01
aI01
aI01
aI01
aI01
aI01
aI01
aI01
aI01
aI01
aI01
aI01
aI01
aI01
aI01
aI01
aI01
aI01
aI01
aI01
aI01
aI00
aI00
aI01
aI00
aI01
aI01
aI01
aI01
aI01
aI01
aI01
aI01
aI01
aI01
aI01
aI00
aI01
aI01
aI00
aI01
aI01
aI01
aI01
aI00
aI00
aI01
aI00
aI01
aI00
aI01
aI01
aI01
aI00
aI00
aI00
aI01
aI01
aI01
aI01
aI01
aI01
aI01
aI01
aI01
aI01
aI01
aI01
aI01
aI01
aI01
aI00
aI01
aI01
aI01
aI01
aI01
aI01
aI01
aI01
aI01
aI01
aI01
aI01
aI01
aI01
aI01
aI01
aI00
aI01
aI01
aI01
aI01
aI01
aI01
aI01
aI01
aI01
aI01
aI01
aI01
aI01
aI00
aI01
aI01
aI01
aI00
aI01
aI01
aI01
aI01
aI01
aI01
aI01
aI01
aI01
aI01
aI00
aI01
aI01
aI01
aI00
aI01
aI01
aI00
aI00
aI01
aI01
aI01
aI01
aI01
aI01
aI01
aI01
aI01
aI01
aI01
aI01
aI00
aI01
aI01
aI01
aI01
aI01
aI01
aI01
aI00
aI01
aI01
aI00
aI01
aI00
aI01
aI01
aI01
aI01
aI01
aI01
aI01
aI01
aI00
aI01
aI01
aI00
aI01
aI00
aI00
aI01
aI01
aI01
aI01
aI01
aI01
aI01
aI01
aI01
aI01
aI01
aI01
aI01
aI01
aI00
aI01
aI00
aI01
aI01
aI00
aI01
aI01
aI01
aI00
aI00
aI01
aI01
aI00
aI00
aI00
aI01
aI00
aI01
aI01
aI01
aI01
aI01
aI01
aI01
aI00
aI01
aI00
aI00
aI01
aI01
aI01
aI01
aI01
aI01
aI01
aI00
aI00
aI01
aI01
aI01
aI00
aI01
aI01
aI01
aI01
aI01
aI01
aI01
aI01
aI01
aI01
aI00
aI01
aI00
aI01
aI01
aI01
aI01
aI01
aI01
aI01
aI01
aI01
aI01
aI00
aI00
aI01
aI01
aI00
aI00
aI01
aI01
aI00
aI01
aI01
aI01
aI01
aI01
aI00
aI01
aI00
aI01
aI00
aI00
aI00
aI01
aI01
aI00
aI01
aI01
aI00
aI01
aI00
aI00
aI01
aI01
aI00
aI01
aI00
aI01
aI00
aI01
aI01
aI01
aI00
aI01
aI01
aI01
aI01
aI01
aI00
aI01
aI01
aI01
aI01
aI00
aI00
aI00
aI01
aI01
aI01
aI01
aI00
aI01
aI01
aI01
aI01
aI01
aI01
aI01
aI01
aI00
aI01
aI00
aI01
aI01
aI01
aI00
aI01
aI00
aI00
aI01
aI01
aI01
aI00
aI01
aI01
aI01
aI00
aI00
aI01
aI01
aI01
aI01
aI01
aI01
aI01
aI01
aI01
aI01
aI00
aI01
aI01
aI01
aI01
aI01
aI01
aI01
aI00
aI00
aI01
aI00
aI01
aI01
aI01
aI01
aI01
aI01
aI00
aI01
aI01
aI01
aI01
aI01
aI01
aI01
aI01
aI01
aI01
aI00
aI01
aI01
aI00
aI01
aI01
aI01
aI01
aI00
aI00
aI01
aI01
aI01
aI00
aI00
aI01
aI00
aI01
aI01
aI01
aI01
aI01
asS'pidxs'
p3
(lp4
I20070
aI20076
aI20039
aI20053
aI20025
aI20017
aI20026
aI20071
aI20006
aI20083
aI20031
aI20007
aI20090
aI20091
aI20052
aI20009
aI20019
aI20008
aI20047
aI20082
aI20068
aI20038
aI20095
aI20044
aI20004
aI20053
aI20003
aI20078
aI20083
aI20069
aI20045
aI20061
aI20068
aI20066
aI20089
aI20022
aI20070
aI20016
aI20089
aI20075
aI20091
aI20048
aI20086
aI20088
aI20025
aI20032
aI20034
aI20039
aI20034
aI20028
aI20005
aI20068
aI20029
aI20051
aI20069
aI20008
aI20044
aI20099
aI20080
aI20028
aI20004
aI20058
aI20040
aI20062
aI20087
aI20064
aI20073
aI20043
aI20020
aI20031
aI20086
aI20055
aI20096
aI20004
aI20014
aI20067
aI20046
aI20048
aI20030
aI20039
aI20087
aI20056
aI20096
aI20048
aI20063
aI20022
aI20018
aI20065
aI20032
aI20077
aI20020
aI20039
aI20068
aI20091
aI20046
aI20014
aI20004
aI20013
aI20013
aI20000
aI20063
aI20078
aI20044
aI20082
aI20076
aI20045
aI20067
aI20006
aI20055
aI20054
aI20092
aI20036
aI20079
aI20079
aI20012
aI20008
aI20093
aI20060
aI20057
aI20009
aI20096
aI20020
aI20041
aI20092
aI20067
aI20033
aI20028
aI20054
aI20056
aI20041
aI20037
aI20062
aI20041
aI20076
aI20095
aI20034
aI20096
aI20082
aI20010
aI20040
aI20003
aI20095
aI20027
aI20026
aI20093
aI20043
aI20010
aI20029
aI20070
aI20010
aI20037
aI20082
aI20000
aI20014
aI20036
aI20037
aI20079
aI20043
aI20000
aI20062
aI20014
aI20007
aI20041
aI20050
aI20073
aI20032
aI20001
aI20047
aI20074
aI20036
aI20050
aI20001
aI20010
aI20061
aI20056
aI20050
aI20092
aI20072
aI20026
aI20035
aI20099
aI20025
aI20064
aI20025
aI20047
aI20004
aI20003
aI20077
aI20088
aI20033
aI20050
aI20045
aI20068
aI20071
aI20064
aI20062
aI20052
aI20015
aI20071
aI20086
aI20085
aI20062
aI20070
aI20065
aI20045
aI20070
aI20006
aI20008
aI20020
aI20019
aI20012
aI20016
aI20058
aI20058
aI20098
aI20087
aI20058
aI20002
aI20001
aI20002
aI20086
aI20055
aI20090
aI20029
aI20021
aI20092
aI20077
aI20071
aI20035
aI20015
aI20074
aI20030
aI20030
aI20019
aI20071
aI20006
aI20056
aI20079
aI20012
aI20075
aI20040
aI20064
aI20002
aI20081
aI20018
aI20030
aI20076
aI20035
aI20078
aI20083
aI20090
aI20052
aI20016
aI20069
aI20001
aI20096
aI20086
aI20083
aI20091
aI20038
aI20044
aI20033
aI20032
aI20061
aI20001
aI20090
aI20077
aI20087
aI20039
aI20014
aI20035
aI20002
aI20060
aI20033
aI20009
aI20038
aI20027
aI20000
aI20075
aI20040
aI20010
aI20088
aI20033
aI20075
aI20038
aI20009
aI20006
aI20041
aI20017
aI20021
aI20089
aI20076
aI20067
aI20089
aI20085
aI20042
aI20047
aI20038
aI20095
aI20032
aI20089
aI20084
aI20018
aI20079
aI20031
aI20060
aI20081
aI20005
aI20072
aI20022
aI20073
aI20048
aI20056
aI20002
aI20000
aI20050
aI20054
aI20058
aI20026
aI20016
aI20031
aI20052
aI20054
aI20092
aI20019
aI20069
aI20003
aI20098
aI20053
aI20012
aI20090
aI20008
aI20045
aI20065
aI20009
aI20020
aI20072
aI20093
aI20069
aI20021
aI20043
aI20048
aI20016
aI20035
aI20074
aI20013
aI20083
aI20052
aI20036
aI20015
aI20031
aI20015
aI20051
aI20055
aI20036
aI20078
aI20034
aI20027
aI20082
aI20043
aI20053
aI20091
aI20034
aI20077
aI20003
aI20012
aI20087
aI20013
aI20067
aI20060
aI20005
aI20055
aI20095
aI20060
aI20053
aI20025
aI20044
aI20064
aI20029
aI20054
aI20037
aI20065
aI20047
aI20019
aI20018
aI20093
aI20005
aI20018
aI20028
aI20075
aI20022
aI20029
aI20040
asS'plan_length'
p5
(lp6
I38
aI6
aI15
aI17
aI3
aI1
aI3
aI3
aI38
aI5
aI36
aI1
aI22
aI6
aI22
aI55
aI2
aI21
aI16
aI21
aI1
aI53
aI6
aI25
aI1
aI26
aI1
aI3
aI1
aI1
aI1
aI20
aI4
aI6
aI33
aI41
aI3
aI17
aI6
aI11
aI5
aI2
aI1
aI24
aI21
aI16
aI2
aI6
aI3
aI11
aI23
aI8
aI7
aI24
aI2
aI8
aI12
aI14
aI15
aI2
aI2
aI13
aI1
aI2
aI1
aI2
aI5
aI6
aI24
aI3
aI3
aI2
aI3
aI18
aI2
aI16
aI24
aI3
aI2
aI39
aI1
aI7
aI3
aI5
aI4
aI51
aI1
aI2
aI31
aI3
aI3
aI46
aI2
aI12
aI19
aI18
aI10
aI1
aI2
aI18
aI3
aI1
aI25
aI3
aI19
aI47
aI9
aI7
aI15
aI1
aI7
aI50
aI3
aI41
aI16
aI5
aI1
aI22
aI38
aI13
aI51
aI2
aI4
aI1
aI7
aI15
aI4
aI3
aI23
aI7
aI6
aI2
aI4
aI5
aI49
aI7
aI1
aI20
aI1
aI8
aI3
aI22
aI17
aI65
aI6
aI1
aI2
aI2
aI9
aI4
aI8
aI27
aI2
aI3
aI9
aI2
aI17
aI6
aI7
aI6
aI6
aI4
aI8
aI2
aI5
aI6
aI1
aI8
aI6
aI5
aI6
aI28
aI19
aI4
aI2
aI7
aI3
aI6
aI42
aI1
aI38
aI4
aI28
aI2
aI14
aI20
aI9
aI3
aI3
aI29
aI4
aI11
aI3
aI3
aI35
aI11
aI7
aI2
aI1
aI2
aI1
aI1
aI3
aI4
aI24
aI1
aI5
aI13
aI8
aI22
aI3
aI1
aI5
aI3
aI17
aI4
aI2
aI1
aI12
aI6
aI2
aI4
aI34
aI16
aI17
aI1
aI2
aI31
aI8
aI38
aI6
aI1
aI3
aI19
aI1
aI21
aI4
aI14
aI2
aI10
aI7
aI6
aI9
aI1
aI4
aI40
aI4
aI5
aI2
aI26
aI14
aI3
aI4
aI1
aI7
aI14
aI2
aI2
aI12
aI4
aI20
aI1
aI4
aI1
aI4
aI2
aI36
aI2
aI2
aI2
aI2
aI44
aI4
aI3
aI4
aI3
aI48
aI1
aI26
aI18
aI53
aI15
aI11
aI3
aI2
aI1
aI1
aI7
aI4
aI2
aI3
aI11
aI16
aI42
aI6
aI30
aI6
aI27
aI4
aI1
aI1
aI2
aI4
aI15
aI8
asS'num_nodes'
p7
(lp8
I141
aI20
aI34
aI110
aI31
aI2
aI4
aI20
aI54
aI34
aI49
aI2
aI120
aI33
aI58
aI140
aI8
aI73
aI76
aI43
aI7
aI99
aI84
aI111
aI141
aI23
aI53
aI2
aI71
aI2
aI18
aI2
aI26
aI2
aI76
aI7
aI119
aI24
aI64
aI114
aI138
aI12
aI36
aI10
aI109
aI88
aI45
aI129
aI18
aI72
aI3
aI4
aI45
aI130
aI161
aI129
aI57
aI41
aI4
aI23
aI13
aI62
aI110
aI35
aI31
aI63
aI4
aI21
aI26
aI32
aI21
aI108
aI3
aI10
aI27
aI5
aI4
aI5
aI3
aI14
aI31
aI58
aI4
aI8
aI3
aI6
aI31
aI3
aI77
aI82
aI105
aI14
aI12
aI113
aI2
aI28
aI14
aI9
aI6
aI76
aI2
aI3
aI168
aI67
aI8
aI8
aI83
aI127
aI15
aI35
aI45
aI68
aI37
aI25
aI6
aI74
aI11
aI165
aI2
aI50
aI4
aI117
aI62
aI59
aI48
aI367
aI58
aI16
aI62
aI5
aI28
aI116
aI15
aI58
aI29
aI10
aI2
aI27
aI92
aI111
aI53
aI93
aI3
aI14
aI3
aI21
aI82
aI36
aI12
aI102
aI8
aI151
aI59
aI54
aI14
aI13
aI17
aI43
aI113
aI31
aI155
aI2
aI77
aI66
aI3
aI100
aI127
aI22
aI16
aI59
aI66
aI113
aI11
aI2
aI17
aI35
aI31
aI26
aI24
aI45
aI4
aI100
aI16
aI131
aI24
aI21
aI100
aI86
aI8
aI192
aI52
aI179
aI18
aI32
aI208
aI89
aI42
aI10
aI101
aI34
aI3
aI26
aI26
aI3
aI48
aI85
aI88
aI10
aI108
aI93
aI9
aI66
aI52
aI21
aI3
aI42
aI10
aI189
aI121
aI16
aI127
aI13
aI121
aI146
aI5
aI57
aI28
aI32
aI53
aI75
aI4
aI4
aI104
aI42
aI36
aI114
aI115
aI7
aI6
aI142
aI53
aI80
aI7
aI2
aI5
aI3
aI83
aI109
aI2
aI15
aI125
aI49
aI17
aI51
aI122
aI2
aI12
aI88
aI31
aI62
aI130
aI23
aI78
aI2
aI123
aI139
aI125
aI34
aI19
aI130
aI34
aI13
aI152
aI134
aI120
aI124
aI2
aI61
aI115
aI37
aI82
aI3
aI360
aI31
aI47
aI72
aI91
aI80
aI2
aI3
aI45
aI17
aI107
aI78
aI15
aI2
aI9
aI122
aI100
aI127
aI81
aI6
aI53
aI9
aI152
aI20
aI3
aI12
aI25
aI30
aI19
aI4
aI21
aI136
aI67
aI55
aI18
aI12
aI39
aI101
aI36
aI64
aI130
aI34
aI9
aI7
aI93
aI2
aI38
aI54
aI110
aI143
aI20
aI6
aI34
aI13
aI78
aI2
aI18
aI2
aI13
aI10
aI80
aI58
aI6
aI4
aI7
aI7
aI102
aI16
aI92
aI109
aI4
aI93
aI18
aI4
aI144
aI2
aI72
aI62
aI103
aI120
aI48
aI74
aI9
aI6
aI6
aI2
aI14
aI23
aI3
aI90
aI6
aI76
aI109
aI62
aI120
aI21
aI51
aI83
aI163
aI15
aI78
aI11
aI180
aI103
aI2
aI129
aI7
aI11
aI7
aI25
aI49
asS'times'
p9
(lp10
F287.85121393203735
aF50.50430202484131
aF79.51912999153137
aF216.4298758506775
aF85.00243616104126
aF17.84161901473999
aF27.997332096099854
aF48.86628293991089
aF188.19445991516113
aF69.35552096366882
aF155.83572506904602
aF17.858333110809326
aF270.3623311519623
aF65.9949300289154
aF238.51748704910278
aF289.81713008880615
aF28.361422061920166
aF176.84121203422546
aF161.8774631023407
aF128.77689003944397
aF24.415130138397217
aF300.2062339782715
aF300.8147940635681
aF266.9121401309967
aF301.7552001476288
aF78.83240604400635
aF136.4484419822693
aF18.656972885131836
aF179.29612183570862
aF16.835286140441895
aF38.86837291717529
aF20.298326015472412
aF37.5850670337677
aF17.09675097465515
aF159.0768620967865
aF32.10991191864014
aF301.559846162796
aF76.11416602134705
aF219.8641541004181
aF303.89711713790894
aF281.11265110969543
aF36.029091119766235
aF98.73315691947937
aF41.41935086250305
aF305.65988397598267
aF300.7883288860321
aF78.46972703933716
aF301.83535289764404
aF46.68490982055664
aF301.08358097076416
aF22.18105697631836
aF18.1161150932312
aF128.62603998184204
aF300.18943190574646
aF300.69673204421997
aF303.94997096061707
aF149.43728613853455
aF96.78898096084595
aF20.621906042099
aF93.11229014396667
aF43.41447997093201
aF148.41846203804016
aF208.19378805160522
aF75.87954092025757
aF57.8137149810791
aF141.99458289146423
aF22.149938106536865
aF54.84065794944763
aF85.09465003013611
aF91.00753092765808
aF81.11449193954468
aF300.31148505210876
aF22.602853059768677
aF28.020031929016113
aF69.08600902557373
aF47.430208921432495
aF23.592244863510132
aF21.301440954208374
aF20.24671721458435
aF40.68644595146179
aF55.581371784210205
aF184.8935899734497
aF29.560588836669922
aF29.79731297492981
aF21.757913827896118
aF28.33146381378174
aF91.76990509033203
aF21.429378986358643
aF302.98910093307495
aF224.09513092041016
aF262.13354897499084
aF44.982539892196655
aF26.099458932876587
aF216.86505699157715
aF20.12377095222473
aF56.68433690071106
aF32.51740002632141
aF39.43885803222656
aF30.824569940567017
aF254.8796148300171
aF21.4479660987854
aF25.998780012130737
aF300.21897196769714
aF190.73326706886292
aF29.204421997070312
aF26.78702688217163
aF302.8764431476593
aF265.75600504875183
aF37.89524698257446
aF87.26074004173279
aF122.73915195465088
aF150.89817309379578
aF71.34306406974792
aF37.70972800254822
aF25.65397000312805
aF171.81633305549622
aF32.79920291900635
aF302.7436730861664
aF42.65387201309204
aF132.1915740966797
aF22.889554977416992
aF301.150759935379
aF148.97291016578674
aF213.7493200302124
aF303.8674268722534
aF301.2442800998688
aF146.42676997184753
aF51.97562098503113
aF229.73793005943298
aF19.735737085342407
aF56.641266107559204
aF285.0772771835327
aF41.60696315765381
aF219.87428498268127
aF93.1342420578003
aF33.60491681098938
aF18.953444957733154
aF98.74138903617859
aF300.0732979774475
aF230.9838161468506
aF104.93301701545715
aF252.9180769920349
aF23.705492973327637
aF34.46910095214844
aF20.223891019821167
aF57.02759099006653
aF300.45167112350464
aF120.1543939113617
aF39.42393517494202
aF301.59773206710815
aF28.454437017440796
aF301.5453050136566
aF149.6869339942932
aF90.43303179740906
aF50.504992961883545
aF30.836449146270752
aF45.17167401313782
aF69.63820195198059
aF285.003937959671
aF69.35794997215271
aF300.5005578994751
aF18.390442848205566
aF181.95244693756104
aF305.1423280239105
aF15.567975997924805
aF302.01447916030884
aF300.3648159503937
aF64.31859707832336
aF44.135847091674805
aF154.42377090454102
aF182.96840000152588
aF297.4764721393585
aF52.1271710395813
aF21.2434401512146
aF53.99030590057373
aF119.85174489021301
aF71.22891402244568
aF61.324904918670654
aF60.67193007469177
aF134.75392198562622
aF22.723127126693726
aF301.18686294555664
aF33.62102198600769
aF301.28563594818115
aF92.28501510620117
aF45.736013889312744
aF301.64724683761597
aF207.67583799362183
aF41.46045398712158
aF180.34625792503357
aF306.5398440361023
aF303.70623898506165
aF58.93358111381531
aF75.07930612564087
aF300.019159078598
aF300.2899651527405
aF304.8699290752411
aF33.52306079864502
aF301.8839530944824
aF63.80683898925781
aF20.329126834869385
aF56.51136517524719
aF60.35877203941345
aF17.52357292175293
aF83.6227490901947
aF145.21005487442017
aF300.470694065094
aF45.050944089889526
aF300.66623997688293
aF300.8929798603058
aF38.62856698036194
aF198.86653780937195
aF110.50945687294006
aF43.15028095245361
aF21.59233808517456
aF78.51290202140808
aF30.22862195968628
aF302.86662697792053
aF303.41248989105225
aF52.65312099456787
aF275.49116492271423
aF33.233906984329224
aF300.0289809703827
aF279.6568491458893
aF27.750471115112305
aF149.5060851573944
aF73.10178899765015
aF84.21008515357971
aF131.3559229373932
aF216.43459010124207
aF25.71954894065857
aF30.129224061965942
aF268.0201458930969
aF304.1264410018921
aF63.058910846710205
aF300.6576728820801
aF248.3053638935089
aF32.41523504257202
aF24.929563999176025
aF255.67611622810364
aF97.87659192085266
aF129.61305594444275
aF27.53281807899475
aF20.31842303276062
aF23.653806924819946
aF18.021826028823853
aF300.25042605400085
aF300.63102293014526
aF24.67502999305725
aF35.75223922729492
aF301.03690814971924
aF305.318727016449
aF65.28970193862915
aF134.1000111103058
aF300.45565700531006
aF16.948478937149048
aF38.54561710357666
aF249.29695892333984
aF83.62980604171753
aF152.7411069869995
aF301.0941081047058
aF38.183818101882935
aF301.57882499694824
aF18.568413019180298
aF302.3991458415985
aF301.418909072876
aF300.4416470527649
aF62.16619896888733
aF40.31972908973694
aF300.20331501960754
aF126.5645318031311
aF41.99235200881958
aF303.75919914245605
aF131.8848159313202
aF300.26337480545044
aF303.6068959236145
aF16.40393900871277
aF101.06597995758057
aF302.21074390411377
aF72.26109385490417
aF301.5117690563202
aF21.567151069641113
aF300.33554100990295
aF54.05834913253784
aF156.06150698661804
aF138.3529851436615
aF300.8199601173401
aF155.89371585845947
aF19.454751014709473
aF23.900452852249146
aF156.57562494277954
aF54.742335081100464
aF302.0292818546295
aF230.28392601013184
aF48.05813717842102
aF17.45166015625
aF41.10299897193909
aF300.81981086730957
aF302.3882529735565
aF300.5872619152069
aF147.76080203056335
aF21.37848210334778
aF121.52835512161255
aF29.476246118545532
aF300.46668004989624
aF77.8079788684845
aF25.23286199569702
aF55.25984716415405
aF58.32909107208252
aF55.163114070892334
aF54.47231698036194
aF20.608022928237915
aF52.79880905151367
aF300.2515621185303
aF220.72183299064636
aF301.6148500442505
aF54.924428939819336
aF38.98210310935974
aF66.63787889480591
aF300.65375685691833
aF122.88165712356567
aF302.8364338874817
aF302.8229601383209
aF91.70626306533813
aF30.236166954040527
aF34.435829877853394
aF303.541522026062
aF19.362015962600708
aF113.11715602874756
aF113.8690550327301
aF302.33346009254456
aF300.7937710285187
aF34.186479806900024
aF21.36748719215393
aF98.61429905891418
aF54.743529081344604
aF174.3203248977661
aF19.951322078704834
aF43.820964097976685
aF18.488428115844727
aF39.79815411567688
aF29.54511594772339
aF304.35286593437195
aF174.9257800579071
aF27.431864023208618
aF24.559330940246582
aF24.737607955932617
aF41.33295392990112
aF262.1581048965454
aF66.58774209022522
aF303.57854294776917
aF300.44016790390015
aF30.594627141952515
aF301.6932499408722
aF44.421539068222046
aF27.24716281890869
aF291.20797181129456
aF19.593816995620728
aF164.5464129447937
aF129.4205219745636
aF300.88512206077576
aF275.05396914482117
aF113.35612106323242
aF132.76184678077698
aF31.120524883270264
aF19.73540496826172
aF25.59469199180603
aF19.525378942489624
aF93.14042496681213
aF50.90974307060242
aF27.44006109237671
aF305.33630084991455
aF29.982409954071045
aF139.11139488220215
aF301.47308897972107
aF175.25000095367432
aF289.92235684394836
aF63.89670491218567
aF149.98491501808167
aF301.15453600883484
aF302.54790592193604
aF49.86406707763672
aF197.112890958786
aF34.154446840286255
aF301.0158848762512
aF300.68903398513794
aF20.228764057159424
aF301.3659899234772
aF38.30277609825134
aF27.90549111366272
aF32.144729137420654
aF78.15938186645508
aF90.1835949420929
as.