(dp0
S'successes'
p1
(lp2
I01
aI00
aI00
aI01
aI00
aI00
aI01
aI00
aI00
aI01
aI00
aI00
aI00
aI01
aI00
aI01
aI01
aI01
aI01
aI00
aI00
aI01
aI00
aI01
aI01
aI01
aI01
aI01
aI01
aI01
aI00
aI01
aI00
aI00
aI01
aI01
aI01
aI00
aI01
aI01
aI01
aI00
aI01
aI01
aI00
aI00
aI01
aI01
aI01
aI01
aI01
aI00
aI01
aI01
aI00
aI00
aI01
aI01
aI01
aI01
aI01
aI01
aI01
aI00
aI01
aI01
aI00
aI01
aI00
aI01
aI01
aI00
aI00
aI01
aI01
aI01
aI01
aI01
aI01
aI00
aI01
aI01
aI01
aI01
aI01
aI01
aI01
aI00
aI01
aI01
aI00
aI00
aI00
aI00
aI00
aI01
aI01
aI01
aI00
aI01
aI01
aI00
aI01
aI00
aI00
aI01
aI00
aI01
aI01
aI01
aI01
aI01
aI01
aI01
aI00
aI00
aI01
aI01
aI01
aI01
aI01
aI00
aI01
aI01
aI00
aI01
aI01
aI00
aI01
aI01
aI01
aI01
aI01
aI01
aI00
aI01
aI01
aI00
aI00
aI01
aI00
aI00
aI01
aI01
aI01
aI01
aI01
aI01
aI00
aI01
aI00
aI00
aI01
aI01
aI00
aI01
aI00
aI01
aI01
aI00
aI01
aI01
aI01
aI00
aI00
aI00
aI01
aI00
aI00
aI01
aI00
aI00
aI01
aI01
aI01
aI00
aI00
aI00
aI01
aI01
aI00
aI01
aI01
aI01
aI00
aI01
aI01
aI01
aI00
aI01
aI01
aI01
aI00
aI01
aI01
aI01
aI01
aI01
aI01
aI01
aI01
aI00
aI00
aI01
aI01
aI01
aI00
aI01
aI01
aI01
aI01
aI01
aI01
aI01
aI01
aI01
aI00
aI00
aI00
aI01
aI01
aI01
aI01
aI01
aI01
aI00
aI00
aI00
aI01
aI01
aI01
aI01
aI01
aI01
aI00
aI01
aI00
aI01
aI00
aI00
aI00
aI00
aI00
aI01
aI01
aI01
aI01
aI01
aI00
aI01
aI01
aI00
aI00
aI01
aI00
aI01
aI01
aI01
aI01
aI00
aI01
aI01
aI01
aI01
aI00
aI01
aI00
aI01
aI01
aI00
aI01
aI00
aI00
aI01
aI00
aI01
aI01
aI01
aI00
aI00
aI01
aI01
aI00
aI00
aI01
aI00
aI01
aI00
aI01
aI01
aI01
aI00
aI01
aI00
aI00
aI01
aI00
aI01
aI01
aI01
aI01
aI00
aI01
aI01
aI01
aI01
aI01
aI01
aI01
aI00
aI00
aI00
aI00
aI01
aI00
aI01
aI01
aI00
aI01
aI00
aI00
aI01
aI01
aI01
aI01
aI01
aI01
aI00
aI00
aI01
aI01
aI01
aI01
aI00
aI00
aI01
aI01
aI01
aI00
aI00
aI01
aI01
aI00
aI00
aI01
aI00
aI00
aI01
aI00
aI01
aI01
aI00
aI01
aI01
aI01
aI01
aI01
aI01
aI01
aI01
aI00
aI01
aI01
aI00
aI01
aI00
aI01
aI01
aI01
aI01
aI01
aI01
aI00
aI00
aI01
aI01
aI00
aI00
aI01
aI01
aI00
aI01
aI01
aI01
aI00
aI01
aI01
aI00
aI00
aI01
aI01
aI01
aI00
aI00
aI01
aI00
aI01
aI00
aI00
aI01
aI01
aI01
aI00
aI01
aI01
aI00
aI01
aI01
aI00
aI01
aI01
aI00
aI00
aI00
aI00
aI00
aI01
aI01
aI01
aI00
aI01
aI00
aI01
aI01
aI00
aI00
aI00
aI01
aI01
aI01
aI01
aI00
aI01
aI00
aI01
aI00
aI00
aI01
aI01
aI00
aI00
aI00
aI00
aI01
aI01
aI01
aI01
aI01
aI01
aI01
aI00
aI00
aI01
aI00
aI00
aI00
aI01
aI01
aI01
aI00
aI01
aI00
aI00
aI01
aI01
aI00
aI00
aI01
aI00
aI01
aI01
aI01
aI00
aI01
aI01
aI01
aI01
aI00
aI01
aI00
aI01
aI01
aI00
aI01
aI01
aI00
aI01
aI01
aI00
aI00
asS'pidxs'
p3
(lp4
I20070
aI20076
aI20039
aI20099
aI20099
aI20053
aI20025
aI20017
aI20026
aI20013
aI20071
aI20006
aI20073
aI20080
aI20083
aI20031
aI20007
aI20090
aI20091
aI20052
aI20009
aI20046
aI20019
aI20008
aI20047
aI20082
aI20068
aI20038
aI20098
aI20095
aI20044
aI20004
aI20093
aI20053
aI20003
aI20078
aI20083
aI20069
aI20045
aI20061
aI20068
aI20066
aI20089
aI20088
aI20022
aI20070
aI20094
aI20027
aI20016
aI20089
aI20017
aI20075
aI20091
aI20048
aI20086
aI20088
aI20025
aI20032
aI20034
aI20039
aI20024
aI20027
aI20042
aI20034
aI20011
aI20057
aI20028
aI20011
aI20005
aI20068
aI20029
aI20051
aI20069
aI20094
aI20008
aI20044
aI20099
aI20080
aI20024
aI20028
aI20004
aI20058
aI20085
aI20023
aI20094
aI20040
aI20023
aI20062
aI20087
aI20064
aI20073
aI20043
aI20020
aI20031
aI20026
aI20086
aI20055
aI20096
aI20004
aI20014
aI20067
aI20046
aI20048
aI20030
aI20039
aI20087
aI20056
aI20096
aI20048
aI20063
aI20022
aI20049
aI20018
aI20065
aI20032
aI20077
aI20097
aI20049
aI20084
aI20042
aI20020
aI20039
aI20068
aI20091
aI20046
aI20014
aI20004
aI20013
aI20097
aI20013
aI20000
aI20063
aI20078
aI20081
aI20044
aI20082
aI20057
aI20076
aI20045
aI20067
aI20006
aI20046
aI20059
aI20055
aI20080
aI20054
aI20085
aI20017
aI20092
aI20059
aI20051
aI20036
aI20079
aI20079
aI20012
aI20008
aI20093
aI20074
aI20060
aI20057
aI20009
aI20011
aI20096
aI20020
aI20041
aI20092
aI20067
aI20033
aI20028
aI20054
aI20056
aI20041
aI20037
aI20098
aI20080
aI20062
aI20041
aI20076
aI20059
aI20095
aI20034
aI20096
aI20082
aI20010
aI20040
aI20003
aI20095
aI20027
aI20026
aI20093
aI20043
aI20010
aI20029
aI20070
aI20010
aI20021
aI20037
aI20082
aI20000
aI20014
aI20036
aI20037
aI20079
aI20043
aI20066
aI20000
aI20062
aI20014
aI20066
aI20007
aI20041
aI20050
aI20073
aI20032
aI20001
aI20047
aI20074
aI20036
aI20050
aI20088
aI20001
aI20010
aI20061
aI20056
aI20050
aI20092
aI20072
aI20026
aI20035
aI20099
aI20025
aI20064
aI20025
aI20047
aI20004
aI20057
aI20081
aI20042
aI20003
aI20077
aI20088
aI20033
aI20050
aI20045
aI20068
aI20071
aI20064
aI20062
aI20052
aI20015
aI20024
aI20071
aI20086
aI20085
aI20062
aI20070
aI20024
aI20057
aI20065
aI20045
aI20061
aI20042
aI20070
aI20097
aI20006
aI20008
aI20020
aI20019
aI20012
aI20016
aI20058
aI20058
aI20098
aI20087
aI20058
aI20002
aI20007
aI20001
aI20002
aI20086
aI20055
aI20094
aI20090
aI20029
aI20021
aI20092
aI20017
aI20077
aI20071
aI20035
aI20015
aI20074
aI20061
aI20030
aI20030
aI20019
aI20071
aI20006
aI20056
aI20079
aI20012
aI20075
aI20040
aI20064
aI20002
aI20081
aI20023
aI20018
aI20066
aI20030
aI20076
aI20035
aI20072
aI20078
aI20083
aI20097
aI20090
aI20052
aI20016
aI20069
aI20001
aI20096
aI20086
aI20083
aI20091
aI20038
aI20011
aI20044
aI20033
aI20032
aI20061
aI20021
aI20001
aI20090
aI20077
aI20087
aI20039
aI20014
aI20005
aI20035
aI20002
aI20060
aI20033
aI20009
aI20038
aI20027
aI20000
aI20049
aI20075
aI20040
aI20010
aI20088
aI20033
aI20094
aI20075
aI20080
aI20038
aI20009
aI20006
aI20065
aI20041
aI20099
aI20085
aI20017
aI20021
aI20089
aI20076
aI20067
aI20089
aI20022
aI20085
aI20098
aI20042
aI20078
aI20047
aI20038
aI20095
aI20032
aI20089
aI20018
aI20079
aI20031
aI20060
aI20097
aI20081
aI20005
aI20051
aI20072
aI20022
aI20011
aI20073
aI20048
aI20056
aI20002
aI20000
aI20050
aI20054
aI20058
aI20026
aI20059
aI20016
aI20031
aI20052
aI20007
aI20054
aI20092
aI20019
aI20066
aI20069
aI20003
aI20098
aI20053
aI20012
aI20015
aI20059
aI20090
aI20008
aI20045
aI20065
aI20009
aI20020
aI20072
aI20093
aI20069
aI20074
aI20021
aI20043
aI20048
aI20073
aI20049
aI20016
aI20035
aI20013
aI20083
aI20046
aI20052
aI20036
aI20030
aI20007
aI20015
aI20031
aI20015
aI20051
aI20055
aI20036
aI20078
aI20049
aI20034
aI20027
aI20082
aI20043
aI20053
aI20091
aI20034
aI20077
aI20003
aI20012
aI20023
aI20087
aI20013
aI20084
aI20067
aI20028
aI20060
aI20005
aI20055
aI20095
aI20060
aI20053
aI20025
aI20044
aI20064
aI20029
aI20037
aI20054
aI20051
aI20037
aI20065
aI20047
aI20019
aI20024
aI20018
aI20093
aI20005
aI20018
aI20028
aI20081
aI20075
aI20022
aI20029
asS'plan_length'
p5
(lp6
I44
aI5
aI1
aI47
aI9
aI8
aI25
aI26
aI23
aI5
aI23
aI22
aI8
aI10
aI11
aI8
aI19
aI5
aI45
aI12
aI17
aI37
aI26
aI31
aI2
aI9
aI3
aI42
aI18
aI30
aI17
aI15
aI15
aI12
aI6
aI22
aI4
aI13
aI2
aI4
aI25
aI3
aI18
aI2
aI34
aI23
aI8
aI27
aI34
aI6
aI8
aI31
aI17
aI10
aI19
aI23
aI41
aI4
aI9
aI3
aI38
aI7
aI10
aI24
aI6
aI21
aI28
aI4
aI7
aI3
aI45
aI3
aI14
aI19
aI8
aI1
aI27
aI7
aI39
aI12
aI38
aI7
aI10
aI13
aI26
aI32
aI4
aI21
aI16
aI3
aI2
aI5
aI3
aI26
aI11
aI12
aI2
aI5
aI9
aI12
aI3
aI7
aI24
aI11
aI40
aI18
aI4
aI58
aI13
aI27
aI56
aI13
aI24
aI11
aI1
aI7
aI17
aI26
aI39
aI13
aI22
aI35
aI7
aI3
aI10
aI8
aI23
aI19
aI22
aI20
aI19
aI53
aI8
aI15
aI28
aI16
aI19
aI42
aI7
aI15
aI14
aI39
aI14
aI36
aI7
aI15
aI45
aI17
aI52
aI49
aI23
aI15
aI12
aI7
aI11
aI1
aI1
aI5
aI54
aI6
aI6
aI7
aI34
aI15
aI13
aI46
aI2
aI12
aI16
aI3
aI26
aI11
aI4
aI6
aI31
aI27
aI5
aI3
aI20
aI5
aI5
aI46
aI9
aI5
aI28
aI20
aI51
aI13
aI12
aI26
aI18
aI43
aI33
aI2
aI32
aI21
aI14
aI17
aI2
aI23
aI5
aI12
aI3
aI40
aI28
aI11
aI47
aI12
aI19
aI9
aI15
aI30
aI6
aI9
aI32
aI7
aI14
aI8
aI35
aI12
aI29
aI33
aI52
aI7
aI32
aI7
aI25
aI40
aI21
aI16
aI20
aI23
aI16
aI3
aI39
aI29
aI12
aI28
aI22
aI24
aI32
aI10
aI2
aI15
aI6
aI23
aI36
aI2
aI24
aI4
aI12
aI4
aI3
aI16
aI13
aI2
aI34
aI23
aI3
aI23
aI34
aI2
aI41
aI19
aI15
aI23
aI56
aI31
aI10
aI23
aI9
aI8
aI8
aI15
aI48
aI46
aI11
aI2
aI15
aI38
aI20
aI2
aI25
aI22
aI3
aI26
aI25
aI14
aI5
aI52
aI31
aI2
aI39
aI9
aI39
aI22
aI4
aI14
aI13
aI32
aI19
aI4
aI36
aI9
aI24
aI2
aI15
asS'num_nodes'
p7
(lp8
I78
aI140
aI89
aI6
aI105
aI92
aI6
aI88
aI70
aI92
aI86
aI94
aI76
aI21
aI88
aI18
aI63
aI66
aI56
aI78
aI100
aI10
aI69
aI27
aI26
aI21
aI15
aI16
aI10
aI30
aI105
aI9
aI83
aI101
aI64
aI20
aI51
aI68
aI88
aI59
aI72
aI77
aI4
aI20
aI83
aI118
aI5
aI58
aI27
aI49
aI26
aI81
aI26
aI25
aI97
aI80
aI63
aI11
aI30
aI10
aI31
aI4
aI7
aI70
aI40
aI5
aI70
aI33
aI101
aI11
aI74
aI78
aI85
aI36
aI18
aI36
aI40
aI11
aI25
aI73
aI51
aI24
aI12
aI32
aI34
aI58
aI11
aI95
aI38
aI8
aI70
aI89
aI73
aI90
aI83
aI63
aI14
aI18
aI97
aI42
aI18
aI65
aI26
aI112
aI85
aI37
aI80
aI7
aI20
aI5
aI88
aI4
aI25
aI37
aI78
aI83
aI15
aI2
aI40
aI10
aI50
aI83
aI26
aI62
aI92
aI11
aI12
aI129
aI24
aI51
aI41
aI9
aI29
aI33
aI88
aI5
aI3
aI78
aI85
aI14
aI86
aI82
aI7
aI46
aI13
aI20
aI4
aI6
aI72
aI18
aI71
aI100
aI19
aI16
aI76
aI24
aI84
aI35
aI26
aI73
aI98
aI27
aI13
aI85
aI81
aI85
aI70
aI274
aI76
aI15
aI90
aI100
aI38
aI76
aI23
aI73
aI76
aI86
aI49
aI30
aI100
aI2
aI11
aI52
aI87
aI28
aI54
aI20
aI104
aI31
aI59
aI9
aI72
aI17
aI12
aI15
aI40
aI30
aI31
aI26
aI48
aI91
aI70
aI74
aI35
aI18
aI73
aI44
aI26
aI47
aI58
aI11
aI23
aI32
aI73
aI27
aI81
aI68
aI74
aI91
aI14
aI18
aI79
aI28
aI75
aI97
aI83
aI75
aI58
aI58
aI30
aI27
aI15
aI15
aI110
aI3
aI77
aI4
aI91
aI69
aI96
aI222
aI76
aI13
aI77
aI10
aI82
aI17
aI67
aI58
aI21
aI87
aI73
aI24
aI79
aI61
aI3
aI17
aI20
aI80
aI6
aI52
aI71
aI8
aI70
aI14
aI83
aI45
aI79
aI96
aI15
aI83
aI94
aI6
aI84
aI42
aI19
aI12
aI94
aI101
aI84
aI16
aI102
aI86
aI11
aI91
aI72
aI42
aI25
aI89
aI32
aI70
aI23
aI90
aI56
aI37
aI88
aI30
aI74
aI98
aI6
aI103
aI94
aI86
aI26
aI38
aI5
aI35
aI6
aI83
aI63
aI99
aI63
aI33
aI89
aI7
aI54
aI79
aI44
aI73
aI112
aI33
aI76
aI43
aI42
aI16
aI31
aI106
aI82
aI47
aI8
aI25
aI49
aI59
aI104
aI27
aI17
aI22
aI82
aI74
aI63
aI57
aI248
aI124
aI45
aI71
aI74
aI45
aI118
aI71
aI20
aI106
aI83
aI8
aI36
aI52
aI27
aI37
aI31
aI36
aI97
aI21
aI7
aI65
aI84
aI70
aI63
aI14
aI74
aI31
aI47
aI60
aI108
aI71
aI28
aI3
aI82
aI95
aI20
aI17
aI94
aI38
aI60
aI3
aI100
aI31
aI8
aI75
aI80
aI19
aI11
aI24
aI76
aI87
aI64
aI72
aI34
aI106
aI91
aI11
aI56
aI32
aI87
aI10
aI58
aI95
aI72
aI10
aI95
aI71
aI54
aI88
aI108
aI74
aI94
aI78
aI36
aI33
aI68
aI97
aI42
aI69
aI27
aI33
aI76
aI75
aI74
aI44
aI12
aI16
aI27
aI72
aI68
aI92
aI88
aI72
aI80
aI33
aI3
aI92
aI84
aI76
aI76
aI20
aI54
aI35
aI3
aI43
aI28
aI4
aI99
aI70
aI55
aI72
aI88
aI113
aI38
aI20
aI15
aI83
aI61
aI97
aI77
aI57
aI3
aI72
aI58
aI82
aI95
aI20
aI54
aI32
aI88
aI5
aI18
aI27
aI100
aI97
aI48
aI80
aI6
aI67
aI81
aI17
aI42
aI73
aI4
aI26
aI75
aI86
asS'times'
p9
(lp10
F271.7483551502228
aF302.13299798965454
aF300.96395993232727
aF33.390202045440674
aF302.848974943161
aF303.47261810302734
aF44.11532115936279
aF301.8286199569702
aF301.95304799079895
aF289.001718044281
aF304.3869071006775
aF300.6676769256592
aF300.8440818786621
aF73.40766191482544
aF302.0810959339142
aF55.96259593963623
aF174.84565210342407
aF204.85924291610718
aF150.32608795166016
aF301.9094099998474
aF302.2033669948578
aF44.073357820510864
aF301.2713739871979
aF118.73553419113159
aF120.704430103302
aF60.40753889083862
aF65.98631691932678
aF65.23304009437561
aF60.21072316169739
aF126.2930588722229
aF302.77364110946655
aF40.81102514266968
aF302.6713659763336
aF302.6827600002289
aF238.3111481666565
aF82.66780376434326
aF146.72850799560547
aF303.4629158973694
aF255.0561969280243
aF170.63940715789795
aF233.64355182647705
aF303.834037065506
aF24.95994210243225
aF71.00142478942871
aF301.08767795562744
aF301.8740029335022
aF27.433297872543335
aF201.97006702423096
aF103.20632696151733
aF184.23768401145935
aF119.26176619529724
aF302.1972870826721
aF95.33955502510071
aF81.7997350692749
aF303.2351031303406
aF300.8733048439026
aF115.67036080360413
aF60.83199405670166
aF118.06114912033081
aF37.08687114715576
aF86.34508109092712
aF24.737353086471558
aF35.47680592536926
aF301.87410020828247
aF149.6619029045105
aF27.89479684829712
aF303.2025029659271
aF108.1061999797821
aF302.12698197364807
aF29.905620098114014
aF237.34825992584229
aF307.2997841835022
aF302.8686580657959
aF131.98199009895325
aF60.941933155059814
aF168.16343307495117
aF176.25376105308533
aF45.110915184020996
aF71.48804593086243
aF308.615051984787
aF185.61611199378967
aF168.4495189189911
aF56.122374057769775
aF101.36664986610413
aF131.553062915802
aF239.58815693855286
aF41.85170292854309
aF301.17709612846375
aF87.10261106491089
aF30.221299171447754
aF300.4693651199341
aF301.3149080276489
aF300.3808090686798
aF301.3553218841553
aF303.39334893226624
aF207.4908230304718
aF54.821763038635254
aF61.84230899810791
aF301.29868602752686
aF131.8625910282135
aF51.75826597213745
aF305.04279494285583
aF109.169997215271
aF304.78753685951233
aF301.758339881897
aF154.16650891304016
aF303.68496108055115
aF35.21549892425537
aF68.937833070755
aF29.01465392112732
aF249.90277481079102
aF27.66273283958435
aF95.27587103843689
aF132.18531584739685
aF304.1601309776306
aF302.1627719402313
aF63.419230222702026
aF16.590317010879517
aF153.1313579082489
aF50.46703314781189
aF211.61409497261047
aF300.117369890213
aF81.49632501602173
aF235.8795828819275
aF304.14518690109253
aF42.28060793876648
aF56.866929054260254
aF300.55446600914
aF86.52395606040955
aF151.3414990901947
aF176.41104698181152
aF33.73780584335327
aF122.4876217842102
aF123.30102682113647
aF300.30764603614807
aF30.17800498008728
aF23.739773988723755
aF302.8617901802063
aF304.0346190929413
aF62.33269000053406
aF302.04497599601746
aF301.67730617523193
aF26.923006057739258
aF155.11719799041748
aF62.5789361000061
aF85.061931848526
aF25.820855140686035
aF38.66054606437683
aF303.22635984420776
aF65.53778791427612
aF301.58010601997375
aF302.4218189716339
aF73.2235701084137
aF42.21830701828003
aF300.4549050331116
aF63.80292797088623
aF301.59999203681946
aF141.39400506019592
aF86.91926908493042
aF301.08597683906555
aF270.32301783561707
aF141.4053189754486
aF35.73329281806946
aF303.09272599220276
aF303.8296089172363
aF304.36338901519775
aF294.66489720344543
aF300.48922300338745
aF301.43116092681885
aF78.15821099281311
aF303.41855692863464
aF301.4288430213928
aF158.24680495262146
aF297.53226590156555
aF90.92033314704895
aF304.30703997612
aF300.20915818214417
aF302.32777881622314
aF155.7242250442505
aF98.06999802589417
aF303.71678709983826
aF19.436690092086792
aF50.550256967544556
aF120.1908049583435
aF301.07205295562744
aF128.42100882530212
aF213.38286900520325
aF89.40769386291504
aF300.4761588573456
aF125.62742209434509
aF208.27729105949402
aF52.566076040267944
aF303.76711416244507
aF40.76728892326355
aF59.794553995132446
aF62.57437992095947
aF151.062726020813
aF118.69688701629639
aF132.7359972000122
aF113.85840702056885
aF148.31078910827637
aF301.08396792411804
aF300.83305191993713
aF286.3064911365509
aF70.90605688095093
aF85.41094398498535
aF301.23195600509644
aF153.52815103530884
aF96.03969120979309
aF125.7613251209259
aF204.67042803764343
aF47.03277111053467
aF93.53086400032043
aF90.30613303184509
aF230.7692608833313
aF112.71906208992004
aF305.26134991645813
aF301.13309693336487
aF304.0209608078003
aF245.57711100578308
aF60.39026999473572
aF80.03921604156494
aF270.08736419677734
aF110.17747497558594
aF280.845764875412
aF305.2179470062256
aF301.34845495224
aF303.70469903945923
aF261.31637597084045
aF153.78946113586426
aF88.58754587173462
aF92.95188307762146
aF48.21267104148865
aF65.73423314094543
aF300.1466429233551
aF38.20568895339966
aF300.76963782310486
aF22.39281988143921
aF302.83127999305725
aF302.68655490875244
aF301.34099793434143
aF304.1166079044342
aF301.9050271511078
aF53.123263120651245
aF289.8176281452179
aF50.765738010406494
aF126.47901797294617
aF68.33559894561768
aF304.8881709575653
aF219.1333930492401
aF138.80494594573975
aF301.20492696762085
aF303.4340240955353
aF92.30233502388
aF303.44242310523987
aF237.70979499816895
aF24.01404309272766
aF61.844414949417114
aF96.51281881332397
aF301.2596158981323
aF29.40477991104126
aF149.98228001594543
aF135.9522089958191
aF52.67002606391907
aF302.22306990623474
aF45.41503596305847
aF303.2949380874634
aF169.82340812683105
aF185.43088603019714
aF301.4712870121002
aF55.426501989364624
aF300.10638999938965
aF301.23740911483765
aF26.319003105163574
aF301.9054260253906
aF135.99870109558105
aF59.39605379104614
aF41.611040115356445
aF302.78305888175964
aF303.412957906723
aF298.54601883888245
aF99.39253091812134
aF303.86483502388
aF301.5872890949249
aF61.962317943573
aF302.75424909591675
aF185.75392293930054
aF303.85958099365234
aF120.71781301498413
aF287.6110849380493
aF99.5217559337616
aF303.5082919597626
aF80.57309412956238
aF300.2097079753876
aF305.8068130016327
aF163.3751208782196
aF300.1405038833618
aF115.99793791770935
aF267.200670003891
aF240.09615087509155
aF26.20851993560791
aF300.791218996048
aF229.47003388404846
aF177.2707018852234
aF101.2653341293335
aF117.0256199836731
aF23.296220064163208
aF131.7940490245819
aF35.24707388877869
aF300.2808620929718
aF302.62668800354004
aF300.66690492630005
aF300.47296714782715
aF111.80895709991455
aF302.7936670780182
aF40.41118407249451
aF224.22416615486145
aF301.94963693618774
aF155.86735701560974
aF303.85476207733154
aF300.4103100299835
aF99.63793897628784
aF266.9035499095917
aF92.28731608390808
aF130.06476402282715
aF59.33550691604614
aF126.81551599502563
aF303.81811594963074
aF300.22197103500366
aF164.42797207832336
aF41.89371705055237
aF103.48374509811401
aF179.20158219337463
aF301.4331970214844
aF300.91104316711426
aF64.33607196807861
aF76.2772331237793
aF61.80436110496521
aF302.8337700366974
aF300.97116589546204
aF197.08313083648682
aF130.25313305854797
aF303.27151322364807
aF300.53117203712463
aF178.18008995056152
aF300.58540081977844
aF303.48165011405945
aF173.36095190048218
aF300.54424500465393
aF286.5727298259735
aF70.43978500366211
aF300.89686012268066
aF211.7424280643463
aF45.02393817901611
aF140.12758994102478
aF229.10745406150818
aF110.89102482795715
aF127.66597294807434
aF132.71690392494202
aF142.42645287513733
aF301.02797389030457
aF89.43253087997437
aF26.275727033615112
aF300.2001540660858
aF263.83740401268005
aF303.1348168849945
aF197.28041291236877
aF66.59333896636963
aF231.80396485328674
aF117.66845607757568
aF151.57913494110107
aF195.2109019756317
aF302.6063449382782
aF302.73276686668396
aF85.33307313919067
aF25.98900008201599
aF302.58180499076843
aF300.04419803619385
aF81.39526414871216
aF53.565659046173096
aF302.4210901260376
aF134.4016261100769
aF206.03251719474792
aF24.21380305290222
aF300.1118071079254
aF124.92437100410461
aF37.911370038986206
aF300.05707693099976
aF301.9547960758209
aF82.83700299263
aF40.21624803543091
aF44.65759086608887
aF301.2207510471344
aF301.6636040210724
aF126.6945219039917
aF301.5246841907501
aF110.66265511512756
aF300.5598509311676
aF300.7528519630432
aF29.56383204460144
aF193.25388288497925
aF120.28985810279846
aF306.98550295829773
aF30.402752161026
aF181.3920328617096
aF300.4043688774109
aF246.661602973938
aF28.129109144210815
aF302.31551599502563
aF230.28405284881592
aF148.6898169517517
aF301.74630904197693
aF301.89103603363037
aF303.63876509666443
aF302.7778820991516
aF304.43343710899353
aF113.01916790008545
aF114.92546916007996
aF269.28886103630066
aF301.8502399921417
aF203.25621700286865
aF301.27211713790894
aF76.60418701171875
aF120.41342186927795
aF303.7846779823303
aF301.6213028430939
aF302.16803097724915
aF100.58009004592896
aF51.38703918457031
aF72.52887010574341
aF95.88946104049683
aF301.057580947876
aF251.28761506080627
aF302.8367919921875
aF282.2370390892029
aF303.25864601135254
aF302.73011088371277
aF100.30913400650024
aF24.13362717628479
aF300.05042600631714
aF302.76511812210083
aF302.7398958206177
aF304.68693804740906
aF91.04371404647827
aF211.6906077861786
aF120.1191291809082
aF22.279337167739868
aF167.41476488113403
aF122.89789414405823
aF32.30140805244446
aF302.95114612579346
aF300.9241750240326
aF193.34092903137207
aF301.16268491744995
aF303.96562600135803
aF301.8527729511261
aF150.2376470565796
aF81.43621397018433
aF39.890843868255615
aF300.62653279304504
aF282.5929491519928
aF300.7682068347931
aF301.0560669898987
aF171.52076506614685
aF23.027534008026123
aF300.12960600852966
aF306.17730712890625
aF216.75820803642273
aF304.042484998703
aF58.111785888671875
aF200.0729911327362
aF132.61000514030457
aF303.5472249984741
aF29.561672925949097
aF89.36799001693726
aF89.29691100120544
aF250.44541597366333
aF300.15094208717346
aF139.29766702651978
aF303.4888172149658
aF27.62267780303955
aF201.37692499160767
aF302.2419991493225
aF63.36145997047424
aF148.5242099761963
aF303.52699089050293
aF37.214335918426514
aF92.54473185539246
aF303.0770089626312
aF302.06094694137573
as.