(dp0
S'successes'
p1
(lp2
I01
aI00
aI01
aI01
aI01
aI01
aI00
aI01
aI01
aI01
aI01
aI01
aI01
aI00
aI01
aI01
aI01
aI01
aI01
aI01
aI00
aI00
aI01
aI01
aI00
aI00
aI01
aI01
aI01
aI00
aI00
aI00
aI01
aI01
aI01
aI00
aI00
aI01
aI01
aI01
aI00
aI00
aI01
aI01
aI01
aI00
aI01
aI00
aI01
aI01
aI00
aI01
aI01
aI01
aI01
aI01
aI01
aI00
aI01
aI00
aI01
aI01
aI01
aI00
aI01
aI01
aI00
aI01
aI01
aI01
aI01
aI01
aI01
aI00
aI00
aI01
aI01
aI01
aI00
aI01
aI01
aI00
aI01
aI01
aI01
aI01
aI01
aI01
aI01
aI01
aI00
aI01
aI00
aI01
aI01
aI01
aI01
aI00
aI01
aI01
aI01
aI00
aI00
aI01
aI00
aI01
aI01
aI01
aI01
aI00
aI00
aI01
aI01
aI01
aI01
aI00
aI01
aI01
aI01
aI01
aI00
aI01
aI01
aI01
aI00
aI00
aI00
aI00
aI00
aI00
aI00
aI01
aI01
aI00
aI01
aI00
aI01
aI00
aI01
aI01
aI00
aI00
aI00
aI00
aI01
aI01
aI01
aI01
aI01
aI01
aI01
aI01
aI01
aI01
aI01
aI00
aI01
aI00
aI01
aI01
aI00
aI01
aI00
aI01
aI01
aI00
aI00
aI00
aI00
aI01
aI01
aI01
aI01
aI01
aI00
aI01
aI01
aI00
aI00
aI01
aI00
aI00
aI01
aI00
aI00
aI01
aI00
aI00
aI01
aI00
aI01
aI01
aI00
aI01
aI00
aI01
aI01
aI00
aI00
aI00
aI00
aI00
aI01
aI01
aI00
aI00
aI01
aI00
aI01
aI01
aI00
aI01
aI01
aI00
aI01
aI00
aI01
aI00
aI00
aI00
aI00
aI01
aI01
aI01
aI01
aI00
aI01
aI01
aI01
aI00
aI01
aI01
aI01
aI00
aI01
aI00
aI00
aI01
aI01
aI00
aI00
aI01
aI01
aI00
aI01
aI00
aI01
aI01
aI01
aI01
aI01
aI01
aI00
aI01
aI00
aI00
aI01
aI00
aI00
aI01
aI01
aI00
aI00
aI01
aI00
aI01
aI01
aI00
aI01
aI00
aI00
aI00
aI00
aI00
aI01
aI00
aI00
aI01
aI00
aI01
aI01
aI01
aI01
aI01
aI00
aI00
aI01
aI01
aI01
aI01
aI01
aI01
aI01
aI00
aI01
aI01
aI01
aI01
aI01
aI01
aI01
aI00
aI01
aI00
aI01
aI00
aI01
aI01
aI00
aI00
aI00
aI00
aI00
aI01
aI01
aI01
aI01
aI01
aI01
aI00
aI00
aI01
aI00
aI01
aI01
aI01
aI01
aI01
aI01
aI01
aI00
aI01
aI01
aI01
aI01
aI01
aI00
aI00
aI01
aI00
aI01
aI01
aI01
aI01
aI00
aI00
aI00
aI01
aI00
aI01
aI00
aI01
aI01
aI01
aI00
aI00
aI01
aI00
aI01
aI01
aI00
aI01
aI00
aI01
aI00
aI01
aI00
aI01
aI00
aI01
aI01
aI01
aI00
aI00
aI00
aI01
aI01
aI01
aI01
aI01
aI01
aI01
aI00
aI01
aI01
aI01
aI01
aI01
aI01
aI00
aI01
aI01
aI01
aI01
aI00
aI00
aI00
aI01
aI00
aI01
aI01
aI00
aI00
aI01
aI01
aI01
aI00
aI00
aI00
aI01
aI01
aI00
aI01
aI01
aI00
aI01
aI01
aI01
aI01
aI01
aI00
aI01
aI01
aI01
aI00
aI00
aI00
aI00
aI01
aI00
aI01
aI01
aI01
aI01
aI01
aI01
aI00
aI01
aI00
aI00
aI01
aI00
aI01
aI01
aI01
aI01
aI01
aI01
aI01
aI01
aI01
aI01
aI01
aI00
aI00
aI01
aI01
aI01
aI01
aI01
aI00
aI01
aI00
aI00
aI01
aI00
aI00
aI01
aI00
aI00
aI01
aI01
aI01
aI00
aI01
aI00
aI01
aI00
aI01
aI00
aI01
aI01
aI01
aI01
aI01
aI01
aI00
aI00
aI00
aI01
aI01
aI00
aI01
aI01
aI00
aI00
aI01
aI01
aI01
aI01
aI01
aI00
aI01
aI01
aI00
aI00
aI01
aI00
aI01
aI00
aI01
aI01
aI00
aI01
aI01
aI01
aI01
aI00
aI01
aI01
aI01
aI00
aI01
aI01
aI00
aI01
aI00
aI01
aI01
aI00
aI01
aI00
aI00
aI01
aI01
aI01
aI00
aI00
aI01
aI01
aI01
aI01
aI00
aI00
aI00
aI00
aI01
aI01
aI01
aI01
aI01
aI00
aI01
aI01
aI01
aI00
aI00
aI01
aI01
aI00
aI00
aI00
aI01
aI00
aI00
aI00
aI00
aI00
aI01
aI00
aI01
aI01
aI00
aI00
aI00
aI00
aI01
aI01
aI00
aI00
aI01
aI00
aI01
aI00
aI00
aI01
aI01
aI00
aI01
aI01
aI01
aI01
aI01
aI01
aI01
aI01
aI01
aI01
aI01
aI01
aI01
aI01
aI01
aI01
aI00
aI00
aI01
aI01
aI00
aI01
aI00
aI00
aI01
aI00
aI00
aI01
aI01
aI00
aI01
aI01
aI00
aI00
aI01
aI00
aI01
aI01
aI00
aI01
aI01
aI01
aI00
aI01
aI01
aI01
aI01
aI01
aI01
aI01
aI01
aI00
aI01
aI01
aI00
aI01
aI01
aI01
aI01
aI01
aI01
aI01
aI00
aI00
aI01
aI00
aI01
aI00
aI00
aI01
aI00
aI01
aI01
aI00
aI01
aI00
aI01
aI01
aI00
aI01
aI01
aI01
aI00
aI01
aI01
aI00
aI01
aI01
aI00
aI01
aI01
aI00
aI00
aI01
aI01
aI00
aI00
aI01
aI00
aI00
aI01
aI01
aI00
aI01
aI00
aI00
aI00
aI01
aI01
aI00
aI00
aI00
aI01
aI01
aI01
aI00
aI01
aI01
aI01
aI00
aI00
aI01
asS'pidxs'
p3
(lp4
I20070
aI20015
aI20076
aI20039
aI20099
aI20099
aI20039
aI20053
aI20025
aI20017
aI20026
aI20013
aI20071
aI20006
aI20073
aI20080
aI20083
aI20031
aI20007
aI20090
aI20091
aI20032
aI20009
aI20046
aI20019
aI20020
aI20019
aI20008
aI20047
aI20046
aI20016
aI20037
aI20082
aI20068
aI20038
aI20008
aI20028
aI20098
aI20095
aI20044
aI20035
aI20004
aI20053
aI20003
aI20078
aI20033
aI20084
aI20038
aI20083
aI20069
aI20045
aI20061
aI20068
aI20066
aI20089
aI20088
aI20070
aI20050
aI20094
aI20024
aI20027
aI20016
aI20089
aI20017
aI20075
aI20091
aI20041
aI20048
aI20086
aI20088
aI20025
aI20032
aI20034
aI20039
aI20034
aI20024
aI20027
aI20042
aI20003
aI20034
aI20011
aI20017
aI20057
aI20028
aI20011
aI20005
aI20068
aI20029
aI20051
aI20069
aI20046
aI20094
aI20032
aI20008
aI20044
aI20099
aI20080
aI20024
aI20028
aI20004
aI20058
aI20033
aI20008
aI20085
aI20023
aI20094
aI20040
aI20023
aI20062
aI20087
aI20016
aI20064
aI20073
aI20043
aI20020
aI20011
aI20031
aI20026
aI20086
aI20055
aI20006
aI20096
aI20004
aI20014
aI20030
aI20007
aI20067
aI20022
aI20046
aI20048
aI20036
aI20030
aI20039
aI20087
aI20056
aI20021
aI20048
aI20063
aI20022
aI20049
aI20005
aI20044
aI20002
aI20036
aI20018
aI20065
aI20032
aI20077
aI20097
aI20049
aI20084
aI20042
aI20020
aI20039
aI20068
aI20043
aI20091
aI20025
aI20046
aI20014
aI20035
aI20004
aI20009
aI20013
aI20097
aI20007
aI20045
aI20012
aI20013
aI20000
aI20063
aI20078
aI20081
aI20044
aI20044
aI20082
aI20057
aI20047
aI20036
aI20076
aI20001
aI20026
aI20045
aI20021
aI20067
aI20006
aI20011
aI20018
aI20046
aI20006
aI20059
aI20055
aI20000
aI20080
aI20038
aI20054
aI20085
aI20035
aI20017
aI20023
aI20017
aI20022
aI20092
aI20059
aI20043
aI20051
aI20036
aI20029
aI20079
aI20079
aI20037
aI20012
aI20008
aI20009
aI20093
aI20074
aI20060
aI20005
aI20042
aI20020
aI20023
aI20057
aI20009
aI20011
aI20096
aI20001
aI20020
aI20041
aI20092
aI20011
aI20067
aI20033
aI20028
aI20003
aI20054
aI20013
aI20002
aI20056
aI20041
aI20027
aI20037
aI20098
aI20080
aI20009
aI20062
aI20027
aI20041
aI20076
aI20059
aI20095
aI20034
aI20096
aI20033
aI20082
aI20010
aI20032
aI20040
aI20026
aI20021
aI20003
aI20095
aI20020
aI20038
aI20027
aI20008
aI20026
aI20093
aI20004
aI20043
aI20010
aI20039
aI20031
aI20029
aI20018
aI20029
aI20029
aI20017
aI20010
aI20029
aI20021
aI20037
aI20082
aI20000
aI20014
aI20038
aI20036
aI20037
aI20079
aI20043
aI20066
aI20000
aI20062
aI20014
aI20010
aI20066
aI20007
aI20041
aI20050
aI20073
aI20032
aI20001
aI20031
aI20047
aI20014
aI20074
aI20014
aI20036
aI20050
aI20034
aI20012
aI20001
aI20004
aI20028
aI20088
aI20001
aI20010
aI20061
aI20056
aI20050
aI20092
aI20042
aI20072
aI20019
aI20026
aI20035
aI20099
aI20063
aI20025
aI20064
aI20025
aI20017
aI20047
aI20004
aI20057
aI20081
aI20042
aI20010
aI20003
aI20077
aI20088
aI20033
aI20050
aI20045
aI20068
aI20016
aI20006
aI20002
aI20071
aI20064
aI20062
aI20041
aI20052
aI20015
aI20024
aI20034
aI20015
aI20086
aI20025
aI20085
aI20062
aI20033
aI20070
aI20002
aI20024
aI20039
aI20057
aI20049
aI20065
aI20048
aI20045
aI20061
aI20042
aI20029
aI20034
aI20070
aI20097
aI20006
aI20008
aI20020
aI20019
aI20012
aI20016
aI20040
aI20058
aI20058
aI20098
aI20087
aI20058
aI20002
aI20004
aI20007
aI20001
aI20002
aI20086
aI20040
aI20030
aI20000
aI20055
aI20023
aI20094
aI20090
aI20042
aI20029
aI20084
aI20021
aI20092
aI20026
aI20017
aI20077
aI20071
aI20035
aI20015
aI20015
aI20074
aI20022
aI20061
aI20030
aI20019
aI20071
aI20006
aI20021
aI20056
aI20079
aI20012
aI20026
aI20023
aI20027
aI20008
aI20075
aI20043
aI20040
aI20064
aI20002
aI20081
aI20023
aI20018
aI20024
aI20066
aI20035
aI20030
aI20030
aI20012
aI20076
aI20035
aI20072
aI20078
aI20083
aI20097
aI20090
aI20052
aI20016
aI20069
aI20001
aI20096
aI20025
aI20086
aI20083
aI20091
aI20038
aI20011
aI20030
aI20044
aI20000
aI20000
aI20033
aI20011
aI20015
aI20032
aI20016
aI20019
aI20061
aI20021
aI20001
aI20003
aI20090
aI20031
aI20077
aI20024
aI20087
aI20013
aI20039
aI20014
aI20005
aI20035
aI20002
aI20060
aI20031
aI20010
aI20020
aI20033
aI20009
aI20023
aI20038
aI20027
aI20014
aI20007
aI20000
aI20049
aI20075
aI20040
aI20010
aI20017
aI20088
aI20033
aI20094
aI20075
aI20080
aI20021
aI20038
aI20003
aI20009
aI20006
aI20005
aI20065
aI20041
aI20099
aI20085
aI20001
aI20017
aI20021
aI20089
aI20012
aI20076
aI20067
aI20000
aI20089
aI20007
aI20022
aI20085
aI20019
aI20098
aI20006
aI20037
aI20042
aI20078
aI20047
aI20004
aI20038
aI20095
aI20032
aI20089
aI20084
aI20018
aI20004
aI20010
aI20036
aI20079
aI20031
aI20060
aI20097
aI20081
aI20005
aI20051
aI20023
aI20072
aI20051
aI20063
aI20022
aI20011
aI20048
aI20011
aI20073
aI20048
aI20056
aI20014
aI20027
aI20025
aI20049
aI20002
aI20000
aI20050
aI20054
aI20039
aI20030
aI20026
aI20015
aI20058
aI20026
aI20028
aI20005
aI20059
aI20032
aI20016
aI20018
aI20040
aI20031
aI20052
aI20032
aI20007
aI20054
aI20092
aI20019
aI20066
aI20069
aI20003
aI20098
aI20053
aI20012
aI20015
aI20059
aI20090
aI20008
aI20045
aI20065
aI20002
aI20009
aI20020
aI20072
aI20045
aI20093
aI20019
aI20018
aI20069
aI20074
aI20003
aI20021
aI20043
aI20012
aI20048
aI20073
aI20049
aI20037
aI20016
aI20022
aI20035
aI20074
aI20035
aI20013
aI20083
aI20046
aI20013
aI20052
aI20036
aI20030
aI20007
aI20015
aI20031
aI20015
aI20051
aI20013
aI20055
aI20036
aI20036
aI20078
aI20049
aI20034
aI20027
aI20082
aI20072
aI20043
aI20053
aI20044
aI20091
aI20009
aI20034
aI20040
aI20025
aI20077
aI20050
aI20003
aI20012
aI20033
aI20023
aI20022
aI20087
aI20013
aI20084
aI20067
aI20028
aI20060
aI20041
aI20005
aI20055
aI20018
aI20095
aI20060
aI20037
aI20053
aI20025
aI20010
aI20014
aI20044
aI20064
aI20009
aI20008
aI20029
aI20005
aI20006
aI20037
aI20051
aI20027
aI20037
aI20007
aI20024
aI20065
aI20047
aI20019
aI20024
aI20001
aI20018
aI20093
aI20005
aI20018
aI20028
aI20081
aI20075
aI20022
aI20029
aI20028
aI20040
asS'plan_length'
p5
(lp6
I55
aI14
aI21
aI18
aI58
aI11
aI116
aI69
aI8
aI31
aI63
aI23
aI38
aI63
aI39
aI229
aI9
aI40
aI28
aI13
aI18
aI31
aI22
aI12
aI10
aI18
aI219
aI44
aI350
aI300
aI17
aI17
aI36
aI21
aI143
aI191
aI176
aI14
aI28
aI12
aI29
aI10
aI40
aI30
aI10
aI69
aI22
aI119
aI40
aI59
aI17
aI18
aI10
aI115
aI28
aI63
aI17
aI20
aI294
aI9
aI65
aI41
aI284
aI30
aI47
aI333
aI87
aI17
aI11
aI15
aI121
aI22
aI12
aI26
aI12
aI22
aI252
aI10
aI26
aI144
aI272
aI149
aI25
aI12
aI43
aI29
aI223
aI115
aI16
aI28
aI215
aI101
aI208
aI24
aI22
aI14
aI87
aI13
aI41
aI13
aI21
aI85
aI210
aI53
aI16
aI44
aI21
aI24
aI26
aI43
aI81
aI10
aI31
aI172
aI74
aI219
aI25
aI51
aI448
aI11
aI25
aI13
aI9
aI16
aI106
aI30
aI52
aI44
aI114
aI110
aI18
aI17
aI52
aI105
aI15
aI35
aI54
aI63
aI57
aI29
aI12
aI31
aI204
aI12
aI31
aI36
aI274
aI20
aI30
aI36
aI10
aI14
aI17
aI40
aI67
aI12
aI18
aI17
aI102
aI119
aI51
aI16
aI135
aI18
aI14
aI336
aI16
aI97
aI43
aI64
aI92
aI25
aI33
aI33
aI29
aI48
aI38
aI17
aI14
aI68
aI22
aI18
aI12
aI17
aI185
aI9
aI21
aI98
aI293
aI47
aI16
aI31
aI139
aI186
aI142
aI20
aI12
aI15
aI21
aI13
aI386
aI14
aI22
aI25
aI203
aI16
aI14
aI63
aI23
aI62
aI42
aI32
aI36
aI44
aI165
aI22
aI17
aI43
aI19
aI92
aI18
aI119
aI26
aI353
aI17
aI21
aI260
aI205
aI17
aI21
aI10
aI11
aI33
aI25
aI14
aI30
aI14
aI219
aI54
aI10
aI31
aI11
aI32
aI11
aI18
aI12
aI88
aI32
aI185
aI118
aI28
aI14
aI48
aI23
aI16
aI20
aI246
aI193
aI37
aI18
aI12
aI67
aI12
aI222
aI21
aI63
aI14
aI8
aI59
aI51
aI16
aI34
aI58
aI253
aI22
aI35
aI25
aI9
aI38
aI56
aI401
aI14
aI15
aI10
aI26
aI19
aI18
aI33
aI21
aI157
aI11
aI178
aI149
aI35
aI12
aI15
aI13
aI8
aI407
aI14
aI19
aI125
aI21
aI24
aI20
aI54
aI31
aI26
aI12
aI18
aI18
aI45
aI177
aI98
aI50
aI59
aI9
aI58
aI23
aI60
aI16
aI13
aI67
aI19
aI84
aI19
aI50
aI32
aI132
aI62
aI18
aI16
aI24
aI19
aI41
aI193
aI34
aI11
aI11
aI14
aI72
aI69
aI17
aI13
aI18
aI61
aI254
aI28
aI94
aI38
aI22
aI74
aI13
aI46
aI173
aI51
aI33
aI9
aI15
aI31
aI54
aI54
aI10
aI95
aI20
aI26
aI88
aI41
aI107
aI18
aI32
aI20
aI28
aI8
aI42
aI34
aI62
aI22
aI64
aI24
aI82
aI53
aI63
aI148
aI230
aI11
aI13
aI10
aI28
aI13
aI10
aI15
aI15
aI14
aI24
aI44
aI21
aI129
aI13
aI38
aI11
aI14
aI93
aI34
aI24
aI22
aI8
aI28
aI227
aI20
aI123
aI140
aI155
aI168
aI33
aI9
aI46
aI11
aI23
aI37
aI44
aI139
aI89
aI272
aI114
aI19
aI47
aI40
aI26
aI16
aI325
aI361
aI19
aI23
aI97
aI41
aI23
aI18
aI179
aI9
asS'num_nodes'
p7
(lp8
I161
aI660
aI46
aI40
aI35
aI221
aI669
aI46
aI297
aI238
aI9
aI60
aI134
aI1299
aI103
aI145
aI224
aI131
aI655
aI23
aI1035
aI820
aI165
aI52
aI628
aI583
aI22
aI76
aI72
aI646
aI607
aI610
aI35
aI21
aI19
aI651
aI654
aI54
aI582
aI130
aI632
aI979
aI812
aI749
aI53
aI577
aI75
aI705
aI90
aI71
aI1579
aI296
aI551
aI377
aI28
aI223
aI28
aI633
aI75
aI678
aI26
aI139
aI61
aI868
aI11
aI138
aI694
aI132
aI328
aI90
aI254
aI61
aI39
aI805
aI667
aI23
aI307
aI78
aI634
aI183
aI92
aI667
aI107
aI706
aI12
aI224
aI173
aI499
aI127
aI151
aI598
aI926
aI564
aI222
aI60
aI19
aI73
aI1175
aI319
aI70
aI32
aI719
aI702
aI122
aI1254
aI14
aI77
aI1327
aI14
aI965
aI653
aI64
aI319
aI696
aI333
aI596
aI70
aI32
aI168
aI62
aI588
aI418
aI645
aI73
aI596
aI635
aI1069
aI1511
aI1008
aI1171
aI642
aI89
aI473
aI917
aI257
aI740
aI498
aI757
aI2135
aI109
aI677
aI614
aI595
aI634
aI33
aI248
aI42
aI95
aI76
aI60
aI197
aI489
aI226
aI32
aI206
aI643
aI77
aI625
aI77
aI93
aI626
aI274
aI652
aI234
aI51
aI624
aI771
aI614
aI1224
aI46
aI360
aI486
aI488
aI110
aI611
aI136
aI981
aI724
aI678
aI22
aI662
aI613
aI105
aI632
aI890
aI24
aI662
aI661
aI11
aI595
aI41
aI272
aI695
aI91
aI665
aI254
aI138
aI692
aI646
aI604
aI814
aI1021
aI298
aI323
aI617
aI1069
aI87
aI602
aI59
aI158
aI624
aI431
aI42
aI617
aI131
aI1154
aI147
aI689
aI665
aI637
aI618
aI183
aI231
aI65
aI20
aI628
aI71
aI638
aI22
aI569
aI101
aI173
aI780
aI682
aI75
aI603
aI608
aI156
aI78
aI656
aI993
aI28
aI40
aI623
aI66
aI625
aI213
aI198
aI31
aI36
aI77
aI247
aI623
aI391
aI2071
aI624
aI172
aI570
aI598
aI39
aI334
aI647
aI650
aI40
aI621
aI31
aI1017
aI756
aI59
aI1026
aI726
aI646
aI668
aI627
aI252
aI757
aI695
aI483
aI729
aI142
aI308
aI76
aI98
aI104
aI622
aI682
aI87
aI208
aI111
aI36
aI44
aI195
aI68
aI1682
aI100
aI25
aI27
aI431
aI24
aI106
aI250
aI609
aI632
aI717
aI140
aI701
aI57
aI56
aI611
aI657
aI646
aI727
aI612
aI328
aI473
aI699
aI48
aI34
aI35
aI983
aI631
aI53
aI654
aI38
aI854
aI22
aI88
aI64
aI456
aI58
aI671
aI34
aI262
aI53
aI148
aI119
aI921
aI1121
aI87
aI1009
aI136
aI106
aI709
aI76
aI630
aI608
aI653
aI70
aI1125
aI78
aI677
aI127
aI278
aI69
aI615
aI630
aI330
aI608
aI49
aI825
aI634
aI56
aI618
aI56
aI709
aI555
aI746
aI471
aI690
aI90
aI61
aI13
aI652
aI634
aI1182
aI27
aI106
aI65
aI36
aI136
aI32
aI630
aI640
aI157
aI13
aI77
aI17
aI68
aI25
aI651
aI41
aI39
aI378
aI139
aI681
aI653
aI689
aI455
aI669
aI357
aI233
aI659
aI868
aI30
aI158
aI55
aI650
aI957
aI880
aI47
aI61
aI730
aI802
aI490
aI776
aI162
aI64
aI24
aI163
aI18
aI599
aI557
aI40
aI155
aI637
aI619
aI694
aI588
aI22
aI656
aI10
aI131
aI172
aI41
aI110
aI199
aI608
aI756
aI642
aI674
aI37
aI594
aI126
aI59
aI10
aI149
aI172
aI864
aI96
aI73
aI21
aI166
aI201
aI1185
aI692
aI68
aI63
aI46
aI418
aI22
aI630
aI454
aI727
aI650
aI466
aI611
aI606
aI87
aI798
aI622
aI55
aI56
aI41
aI674
aI8
aI782
aI714
aI650
aI27
aI588
aI56
aI348
aI116
aI80
aI153
aI165
aI638
aI600
aI758
aI62
aI126
aI637
aI28
aI112
aI712
aI624
aI23
aI132
aI477
aI278
aI631
aI605
aI214
aI11
aI1154
aI737
aI219
aI616
aI147
aI740
aI211
aI45
aI700
aI56
aI162
aI62
aI172
aI632
aI48
aI158
aI175
aI619
aI355
aI273
aI607
aI40
aI666
aI123
aI53
aI562
aI107
aI615
aI646
aI165
aI536
aI103
aI581
aI1136
aI34
aI26
aI62
aI214
aI1151
aI630
aI817
aI638
aI157
aI44
aI32
aI81
aI232
aI741
aI883
aI106
aI357
aI722
aI664
aI901
aI92
aI650
aI620
aI1009
aI254
aI1189
aI627
aI625
aI645
aI621
aI24
aI1130
aI99
aI377
aI650
aI683
aI696
aI726
aI152
aI92
aI654
aI667
aI33
aI610
aI115
aI664
aI607
aI183
aI187
aI690
aI150
aI23
aI303
aI65
aI100
aI235
aI86
aI310
aI85
aI97
aI106
aI96
aI9
aI87
aI72
aI176
aI604
aI1081
aI51
aI136
aI725
aI77
aI680
aI597
aI278
aI1147
aI608
aI232
aI169
aI692
aI355
aI543
aI1009
aI664
aI15
aI1083
aI40
aI29
aI747
aI77
aI29
aI26
aI604
aI134
aI36
aI24
aI67
aI178
aI57
aI463
aI33
aI412
aI91
aI36
aI633
aI30
aI229
aI160
aI43
aI64
aI8
aI102
aI766
aI673
aI488
aI619
aI56
aI647
aI715
aI323
aI688
aI360
aI413
aI649
aI514
aI848
aI125
aI11
aI1688
aI122
aI32
aI57
aI635
aI117
aI193
aI702
aI335
aI314
aI612
aI835
aI253
aI682
aI632
aI123
aI161
aI663
aI691
aI179
aI732
aI617
aI105
aI61
aI633
aI845
aI608
aI663
aI1031
aI890
aI103
aI1048
aI604
aI1069
aI87
aI319
aI145
aI763
aI59
aI65
aI680
aI742
aI614
aI9
asS'times'
p9
(lp10
F346.1552469730377
aF2401.41600894928
aF102.27503800392151
aF158.54096102714539
aF98.7685079574585
aF436.81473088264465
aF2402.6866459846497
aF94.78840804100037
aF681.7392420768738
aF502.2311692237854
aF52.94719481468201
aF197.8765048980713
aF392.19580912590027
aF2400.7126319408417
aF176.9599359035492
aF323.10733795166016
aF488.8918011188507
aF243.5606927871704
aF1445.35866189003
aF76.96059894561768
aF2401.059492826462
aF2403.8257360458374
aF392.6182110309601
aF160.80423784255981
aF2401.7701342105865
aF2401.430158853531
aF73.10657787322998
aF182.1350929737091
aF176.09107995033264
aF2403.7396919727325
aF2400.678512096405
aF2401.4364500045776
aF120.21819496154785
aF98.27875804901123
aF72.90860104560852
aF2403.5021131038666
aF2403.1293568611145
aF122.76498699188232
aF1277.8241357803345
aF297.9390969276428
aF2403.975965976715
aF2400.47039604187
aF1985.1567468643188
aF1773.9682960510254
aF115.30967807769775
aF2401.322947025299
aF137.31786608695984
aF2403.7484259605408
aF243.52988195419312
aF135.8571960926056
aF2402.457153081894
aF809.2274560928345
aF1699.5452990531921
aF911.4535920619965
aF93.27235698699951
aF328.311546087265
aF80.53644704818726
aF2402.7017979621887
aF192.18349409103394
aF2402.893690109253
aF71.91248607635498
aF270.53161907196045
aF170.06714701652527
aF2403.221055984497
aF58.76294493675232
aF406.51341581344604
aF2403.74072599411
aF187.05593585968018
aF772.7431569099426
aF288.1426348686218
aF441.6730320453644
aF130.31059408187866
aF100.02663803100586
aF2402.6490309238434
aF2400.2489728927612
aF80.5941870212555
aF706.664176940918
aF176.44309496879578
aF2402.1585941314697
aF395.2236499786377
aF183.08562588691711
aF2403.7332401275635
aF190.38671898841858
aF1645.9360690116882
aF56.74229192733765
aF485.3584008216858
aF360.54338097572327
aF1468.2753250598907
aF256.8702619075775
aF275.9108190536499
aF2400.430001974106
aF1998.8055849075317
aF2401.5755429267883
aF508.32853507995605
aF121.51635909080505
aF68.68736100196838
aF136.2511010169983
aF2403.2176699638367
aF862.5121898651123
aF186.93936705589294
aF75.98815107345581
aF2401.0658509731293
aF2401.4965999126434
aF286.1186218261719
aF2400.773281097412
aF69.82410192489624
aF260.21575593948364
aF2157.3419620990753
aF54.750834941864014
aF2400.495329141617
aF2403.3544669151306
aF161.28830218315125
aF838.6790339946747
aF1590.617709159851
aF817.1730790138245
aF2401.3400478363037
aF158.92126989364624
aF98.03517079353333
aF297.5923001766205
aF175.58222198486328
aF2403.469316959381
aF1148.5778439044952
aF824.7304780483246
aF143.27291917800903
aF2402.1881759166718
aF2400.2128360271454
aF2403.2079708576202
aF2402.884001970291
aF2401.349037885666
aF2401.5417602062225
aF2401.9957678318024
aF205.67566800117493
aF1128.0052781105042
aF2404.1720979213715
aF626.4248061180115
aF2402.86407995224
aF1235.7600479125977
aF2402.4431059360504
aF1480.4981219768524
aF175.90882301330566
aF2403.4324889183044
aF2404.0936319828033
aF2402.2038259506226
aF2403.6481490135193
aF103.4717390537262
aF534.9131400585175
aF127.71871495246887
aF268.84083104133606
aF156.89304113388062
aF138.79563093185425
aF508.2129530906677
aF1146.8448889255524
aF412.61301708221436
aF104.46835589408875
aF367.04460096359253
aF2401.8407249450684
aF173.80843710899353
aF2402.812432050705
aF180.43021297454834
aF208.28012800216675
aF2400.669502019882
aF472.4520559310913
aF2402.273155927658
aF505.79622292518616
aF107.29914712905884
aF2402.1796650886536
aF2401.721508026123
aF2403.1463928222656
aF2400.406100988388
aF185.46135807037354
aF973.4853069782257
aF1128.9737679958344
aF1276.4531598091125
aF215.18746781349182
aF2402.497875928879
aF344.83771896362305
aF2350.18120098114
aF2405.6235978603363
aF2402.931783914566
aF76.21675610542297
aF2401.724540948868
aF2400.4696850776672
aF180.21952295303345
aF2400.5390911102295
aF2402.1266350746155
aF141.5575249195099
aF2400.510481119156
aF2400.2720601558685
aF55.36128497123718
aF2401.758105993271
aF100.12774801254272
aF597.1100749969482
aF2404.0191860198975
aF197.3538839817047
aF2401.979428052902
aF475.65679597854614
aF316.6328830718994
aF2402.5507531166077
aF2401.5939631462097
aF2400.7733640670776
aF2403.0172080993652
aF2401.6342198848724
aF724.5233089923859
aF664.1495079994202
aF2403.208384990692
aF2400.9415459632874
aF154.8107008934021
aF2400.761197090149
aF121.65306210517883
aF337.34478998184204
aF2401.8678891658783
aF1057.3840517997742
aF110.36849594116211
aF2404.9633569717407
aF272.2415850162506
aF2400.3354909420013
aF330.8770010471344
aF2403.3195481300354
aF2400.566559076309
aF2403.4096920490265
aF2401.2552371025085
aF623.477786064148
aF406.36807107925415
aF201.51122093200684
aF80.30469799041748
aF2401.919415950775
aF210.01889204978943
aF1345.4837381839752
aF80.27201509475708
aF2404.16521692276
aF208.11499094963074
aF275.7486288547516
aF1760.436115026474
aF2403.341814994812
aF164.76959609985352
aF2403.7940440177917
aF2402.7241661548615
aF246.04619479179382
aF220.612459897995
aF2404.0944640636444
aF2402.162078142166
aF87.55863308906555
aF116.72914600372314
aF2400.759346008301
aF128.53278589248657
aF2402.640918970108
aF329.6323490142822
aF500.8125739097595
aF78.39717292785645
aF116.5328619480133
aF160.7952561378479
aF722.3097331523895
aF2402.055365085602
aF840.6729710102081
aF2400.20712518692
aF2401.5555880069733
aF365.2580099105835
aF2400.831696987152
aF2403.3122160434723
aF162.0421597957611
aF921.6476941108704
aF2403.0125482082367
aF2401.119761943817
aF113.59774518013
aF2402.367748975754
aF130.55739092826843
aF2253.9339559078217
aF2401.4180278778076
aF135.9591519832611
aF2400.532525062561
aF2403.443259000778
aF2402.458489894867
aF2403.9780008792877
aF2400.166953086853
aF622.031172990799
aF2400.93071103096
aF2403.086667060852
aF577.5995738506317
aF2401.2344331741333
aF388.26402521133423
aF663.9018678665161
aF175.1063621044159
aF194.47265696525574
aF283.75688004493713
aF2403.445697069168
aF2406.288806915283
aF173.0336799621582
aF382.8482677936554
aF233.87332797050476
aF125.33453416824341
aF95.00208902359009
aF426.6060311794281
aF162.54967999458313
aF2401.6989710330963
aF196.4742181301117
aF76.71550703048706
aF100.11521506309509
aF1177.0449697971344
aF64.05110001564026
aF252.43622994422913
aF568.0749349594116
aF2403.3602001667023
aF1719.982990026474
aF2401.2261340618134
aF315.7288451194763
aF2401.2830419540405
aF122.34314298629761
aF165.62872099876404
aF2401.300013065338
aF2401.5682430267334
aF2401.808482170105
aF2402.617177963257
aF2403.1022429466248
aF896.8929159641266
aF1075.7670259475708
aF1045.5385780334473
aF132.385883808136
aF82.89428210258484
aF113.77660393714905
aF2403.0216500759125
aF2404.331869125366
aF141.37169694900513
aF2402.750615119934
aF84.63811182975769
aF2189.5553970336914
aF78.9815399646759
aF171.3252580165863
aF163.5247938632965
aF1203.5098090171814
aF142.81003999710083
aF2404.915549993515
aF90.67658686637878
aF467.252916097641
aF144.17309999465942
aF377.11979699134827
aF263.6860258579254
aF2401.4621200561523
aF2404.7147040367126
aF201.5400619506836
aF2402.03240609169
aF263.3291509151459
aF253.91924810409546
aF1308.7772841453552
aF173.21896696090698
aF2400.874513864517
aF2400.3677458763123
aF2403.7431740760803
aF133.50283980369568
aF2401.886063814163
aF242.46075987815857
aF2402.3189840316772
aF256.7530598640442
aF610.3076210021973
aF155.26534485816956
aF2402.6674058437347
aF2404.4318618774414
aF753.0728058815002
aF2402.756320953369
aF157.13986110687256
aF2154.8511729240417
aF2400.3166048526764
aF118.29607486724854
aF2400.4260919094086
aF140.3803288936615
aF2400.968001842499
aF1352.2550148963928
aF2404.1944539546967
aF1200.5014748573303
aF2404.312227010727
aF141.4548180103302
aF137.9933090209961
aF65.7383680343628
aF2403.0361359119415
aF2401.6651430130005
aF2403.065850019455
aF89.49927687644958
aF225.92198705673218
aF177.75540900230408
aF99.47596096992493
aF234.68584895133972
aF87.58500289916992
aF1327.9235498905182
aF2403.7984731197357
aF337.52374482154846
aF82.97494292259216
aF182.32416605949402
aF60.08751201629639
aF200.53604888916016
aF92.85096001625061
aF2401.9533219337463
aF135.10141110420227
aF106.75884413719177
aF648.1159310340881
aF229.7294089794159
aF2401.4991121292114
aF2401.07648897171
aF2403.327584028244
aF1131.1910429000854
aF2400.7851269245148
aF861.2886099815369
aF333.23502802848816
aF2402.1046431064606
aF2400.6830580234528
aF85.29821395874023
aF319.4895830154419
aF174.35047793388367
aF2404.3432879447937
aF2401.1175990104675
aF2400.8428180217743
aF119.3026020526886
aF132.69025897979736
aF2401.820451974869
aF1665.7588758468628
aF1100.4607248306274
aF2400.2622809410095
aF278.7186989784241
aF179.5320291519165
aF75.58787107467651
aF435.171334028244
aF124.88650298118591
aF2404.2523930072784
aF1427.8205749988556
aF127.10206913948059
aF386.4464409351349
aF2403.1362919807434
aF2403.6012060642242
aF2402.7009789943695
aF2400.4483830928802
aF94.55676794052124
aF2402.5469539165497
aF50.893073081970215
aF337.22291707992554
aF366.17969608306885
aF129.075697183609
aF284.1507828235626
aF414.31088519096375
aF2402.5848321914673
aF1722.8516309261322
aF2404.275470018387
aF2402.7943902015686
aF115.06067395210266
aF2401.6956889629364
aF284.9136641025543
aF251.84212398529053
aF69.45806694030762
aF270.57545804977417
aF342.1785490512848
aF2321.971976041794
aF155.32692408561707
aF171.80911588668823
aF59.30423402786255
aF232.4026210308075
aF317.12270283699036
aF2403.5152490139008
aF2402.5297400951385
aF148.87753200531006
aF200.58578991889954
aF131.7749218940735
aF1038.4201838970184
aF90.75858807563782
aF2400.6094210147858
aF1062.2717671394348
aF2400.7561769485474
aF2403.741847038269
aF904.8884520530701
aF2402.7845289707184
aF2401.8276250362396
aF215.01073908805847
aF2403.304883003235
aF2404.8477160930634
aF102.9360740184784
aF160.97027683258057
aF107.96253299713135
aF2401.601316213608
aF51.93130683898926
aF2400.4338870048523
aF2113.036411046982
aF2401.835798025131
aF73.70648407936096
aF2404.052433013916
aF154.83957695960999
aF803.9580609798431
aF192.05301904678345
aF172.11735606193542
aF220.8887219429016
aF343.93399810791016
aF2404.2696390151978
aF2403.0431110858917
aF2402.2573850154877
aF174.1354639530182
aF214.69652891159058
aF2402.997778892517
aF90.98451900482178
aF192.52578997612
aF2401.3752970695496
aF2403.7133481502533
aF106.1420521736145
aF307.39393401145935
aF1144.172894001007
aF578.1342549324036
aF708.0426859855652
aF2401.669532060623
aF400.80181193351746
aF51.387641191482544
aF2400.418581008911
aF2400.3486239910126
aF498.38680505752563
aF2401.699765920639
aF243.36581206321716
aF2403.250200033188
aF445.7661199569702
aF109.61958503723145
aF2402.095325946808
aF100.85728311538696
aF431.44506001472473
aF135.37084579467773
aF480.069766998291
aF2402.1611042022705
aF124.33377504348755
aF340.9474890232086
aF272.7272310256958
aF2400.674335002899
aF985.1909129619598
aF459.5272400379181
aF2403.2740790843964
aF106.64773082733154
aF2402.997976064682
aF203.61720395088196
aF177.76199793815613
aF2401.907564163208
aF170.13631105422974
aF2402.001624107361
aF2403.374769926071
aF305.26983189582825
aF1138.7618749141693
aF218.65077900886536
aF2403.015326976776
aF2400.198746919632
aF85.1647629737854
aF81.27208113670349
aF103.87450695037842
aF483.61368584632874
aF2400.980422973633
aF2402.146507024765
aF2403.9564731121063
aF2400.4412071704865
aF405.60660195350647
aF115.70605492591858
aF101.21170592308044
aF147.4610960483551
aF455.595379114151
aF2400.2409942150116
aF1934.3019120693207
aF211.91725611686707
aF701.166543006897
aF2400.576508998871
aF2400.3359508514404
aF745.3284480571747
aF193.8501420021057
aF2402.5854461193085
aF2401.091562986374
aF2405.7158620357513
aF481.5683331489563
aF2402.492537021637
aF2400.27294588089
aF2400.476541996002
aF2400.7721729278564
aF2401.585042953491
aF82.9854850769043
aF2403.1005260944366
aF265.8715589046478
aF1094.4599680900574
aF2404.0261509418488
aF2401.431846857071
aF2401.002082824707
aF2403.1979751586914
aF394.8689911365509
aF226.88331007957458
aF2400.4172098636627
aF2401.432389974594
aF82.02293300628662
aF2400.175859928131
aF172.19688606262207
aF2402.2390439510345
aF2404.476446866989
aF268.57797598838806
aF365.9267518520355
aF2401.5011081695557
aF410.4875490665436
aF73.75093603134155
aF649.0970070362091
aF161.3166799545288
aF229.1765100955963
aF577.0675649642944
aF236.38952088356018
aF771.5346188545227
aF146.63549780845642
aF215.71505999565125
aF203.14554691314697
aF185.28481101989746
aF51.9035701751709
aF251.97006607055664
aF191.94109511375427
aF402.4099910259247
aF2400.571743965149
aF2401.325735092163
aF145.41753005981445
aF346.3171410560608
aF2401.056762933731
aF190.29144287109375
aF2404.4231221675873
aF2402.02987909317
aF566.6057639122009
aF2402.4771299362183
aF2400.8596711158752
aF425.1576189994812
aF388.85719203948975
aF2401.1124799251556
aF835.4223711490631
aF1389.5497560501099
aF2416.656147956848
aF2403.601224899292
aF71.96210289001465
aF2401.605244874954
aF99.27569317817688
aF71.0431718826294
aF2402.9620039463043
aF182.28486704826355
aF92.8586699962616
aF65.5849838256836
aF2404.1954429149628
aF306.90644001960754
aF98.03488206863403
aF99.95166611671448
aF190.50436401367188
aF344.6447060108185
aF180.3679609298706
aF972.8369519710541
aF102.49497103691101
aF2401.4079608917236
aF227.5550079345703
aF74.76930284500122
aF2403.063110113144
aF93.80423092842102
aF558.4273929595947
aF252.10139393806458
aF149.60939502716064
aF183.95824098587036
aF48.32581901550293
aF224.624685049057
aF2401.25386595726
aF2403.1361730098724
aF1200.6928870677948
aF2400.660815000534
aF123.83394598960876
aF2401.32390499115
aF2401.7411239147186
aF757.5640661716461
aF2402.1833839416504
aF911.1768751144409
aF897.8736889362335
aF2400.3810799121857
aF1110.2006239891052
aF2400.6638309955597
aF242.1914439201355
aF50.430016040802
aF2401.6568281650543
aF303.3882620334625
aF80.66821599006653
aF127.50927591323853
aF2401.688154935837
aF280.83889603614807
aF345.971529006958
aF2401.1663789749146
aF842.874685049057
aF554.0776190757751
aF2401.447098970413
aF1618.0884070396423
aF636.0458500385284
aF2400.332144021988
aF2402.5328521728516
aF164.6277458667755
aF357.5603840351105
aF2401.641154050827
aF2406.5125889778137
aF306.8002848625183
aF2400.405184030533
aF2400.5659120082855
aF175.01564502716064
aF106.98407912254333
aF2402.9303958415985
aF1819.596265077591
aF2404.699980020523
aF2401.010561943054
aF2401.1039571762085
aF2038.586081981659
aF185.11601281166077
aF2406.0933589935303
aF2405.5107328891754
aF2402.369950056076
aF191.20921111106873
aF820.2456068992615
aF302.74085903167725
aF2401.5157990455627
aF138.29959297180176
aF137.99894618988037
aF1218.567780971527
aF2400.9400038719177
aF2401.308942079544
aF49.049641132354736
as.