(dp0
S'successes'
p1
(lp2
I01
aI01
aI01
aI01
aI00
aI00
aI00
aI00
aI01
aI01
aI00
aI01
aI00
aI00
aI01
aI01
aI00
aI01
aI00
aI01
aI01
aI00
aI01
aI01
aI01
aI01
aI00
aI00
aI01
aI00
aI01
aI01
aI01
aI00
aI01
aI01
aI00
aI00
aI01
aI01
aI01
aI01
aI00
aI00
aI01
aI01
aI01
aI01
aI01
aI00
aI01
aI00
aI00
aI00
aI01
aI00
aI00
aI01
aI01
aI01
aI01
aI01
aI01
aI01
aI00
aI01
aI01
aI00
aI01
aI01
aI01
aI00
aI01
aI01
aI01
aI01
aI01
aI01
aI01
aI01
aI00
aI01
aI01
aI01
aI01
aI00
aI00
aI01
aI01
aI01
aI01
aI01
aI01
aI00
aI00
aI01
aI01
aI01
aI01
aI01
aI01
aI01
aI01
aI01
aI01
aI01
aI01
aI01
aI00
aI01
aI01
aI01
aI01
aI01
aI01
aI00
aI01
aI01
aI01
aI01
aI01
aI01
aI01
aI01
aI01
aI01
aI01
aI01
aI01
aI00
aI01
aI00
aI01
aI00
aI00
aI00
aI01
aI01
aI01
aI01
aI00
aI00
aI01
aI01
aI01
aI01
aI01
aI01
aI00
aI00
aI00
aI00
aI01
aI01
aI01
aI00
aI01
aI01
aI01
aI01
aI01
aI01
aI00
aI00
aI01
aI01
aI01
aI01
aI01
aI01
aI01
aI01
aI01
aI01
aI01
aI00
aI01
aI01
aI01
aI01
aI01
aI01
aI01
aI01
aI01
aI01
aI01
aI00
aI01
aI01
aI01
aI01
aI01
aI01
aI01
aI00
aI01
aI01
aI01
aI01
aI01
aI01
aI01
aI00
aI01
aI01
aI01
aI01
aI01
aI01
aI01
aI01
aI01
aI01
aI00
aI01
aI01
aI00
aI00
aI01
aI01
aI01
aI01
aI01
aI01
aI01
aI01
aI01
aI01
aI01
aI00
aI01
aI01
aI01
aI00
aI01
aI00
aI01
aI01
aI01
aI01
aI01
aI01
aI01
aI01
aI01
aI01
aI01
aI01
aI00
aI01
aI00
aI01
aI01
aI00
aI01
aI01
aI01
aI01
aI00
aI01
aI01
aI01
aI01
aI01
aI00
aI00
aI00
aI01
aI01
aI01
aI01
aI01
aI01
aI00
aI01
aI01
aI01
aI00
aI01
aI01
aI01
aI01
aI01
aI00
aI01
aI01
aI00
aI01
aI01
aI01
aI01
aI00
aI01
aI00
aI00
aI01
aI01
aI01
aI01
aI01
aI01
aI01
aI00
aI01
aI00
aI00
aI01
aI01
aI01
aI01
aI01
aI00
aI00
aI01
aI01
aI01
aI01
aI01
aI00
aI00
aI00
aI01
aI01
aI00
aI01
aI00
aI01
aI01
aI01
aI01
aI01
aI01
aI01
aI01
aI01
aI01
aI01
aI01
aI00
aI00
aI01
aI01
aI01
aI01
aI01
aI01
aI00
aI01
aI00
aI01
aI01
aI01
aI01
aI01
aI01
aI00
aI01
aI01
aI01
aI01
aI01
aI01
aI00
aI01
aI01
aI01
aI00
aI01
aI01
aI01
aI01
aI00
aI01
aI00
aI01
aI00
aI00
aI01
aI01
aI01
aI01
aI00
aI00
aI01
aI00
aI01
aI00
aI00
aI01
aI01
aI00
aI01
aI01
aI01
aI01
aI01
aI01
aI00
aI01
aI01
aI01
aI01
aI01
aI01
aI01
aI01
aI01
aI01
aI00
aI00
aI00
aI01
aI01
aI01
aI01
aI00
aI00
aI01
aI01
aI01
aI00
aI00
aI01
aI01
aI01
aI01
aI01
aI01
aI01
aI00
aI00
aI01
aI00
aI01
aI00
aI00
aI01
aI01
aI00
aI01
aI01
aI01
aI00
aI01
aI01
aI01
aI01
aI01
aI01
aI01
aI01
aI01
aI01
aI01
aI01
aI00
aI01
aI01
aI01
aI01
aI01
aI01
aI01
aI01
aI01
aI00
aI01
aI01
aI00
aI01
aI00
aI01
aI01
aI01
aI00
aI01
aI00
aI00
aI01
aI01
aI01
aI01
aI01
aI01
aI01
aI00
aI00
aI01
aI01
aI00
aI01
aI01
aI00
aI01
aI00
aI01
aI01
aI01
aI01
aI01
aI01
aI01
aI00
aI01
aI01
aI01
aI01
aI00
aI00
aI01
aI01
aI01
aI01
aI01
aI01
aI01
aI01
aI01
aI01
aI00
aI00
aI01
aI01
aI01
aI01
aI01
aI01
aI01
aI01
aI01
aI00
aI01
aI01
aI01
aI01
aI01
aI01
aI01
aI01
aI00
aI01
aI01
aI01
aI01
aI01
aI01
aI01
aI01
aI01
aI01
aI01
aI01
aI00
aI00
aI01
aI00
aI01
aI01
aI01
aI01
aI01
aI01
aI00
aI01
aI01
aI00
aI01
aI01
aI00
aI01
aI00
aI01
aI01
aI01
aI00
aI01
aI01
aI00
aI01
aI01
aI01
aI01
aI01
aI01
aI00
aI01
aI01
aI01
aI01
aI00
aI01
aI01
aI01
aI00
aI01
aI01
aI01
aI01
aI01
aI01
aI01
aI01
aI01
aI01
aI01
aI01
aI00
aI01
aI01
aI00
aI01
aI01
aI00
aI01
aI01
aI01
aI01
aI01
aI01
aI00
aI01
aI01
aI00
aI01
aI00
aI01
aI00
aI00
aI01
aI01
aI00
aI00
aI01
aI01
aI01
aI01
aI00
aI00
aI01
aI00
aI00
aI01
aI01
aI01
aI01
aI01
aI01
aI00
aI01
aI01
aI00
aI01
aI01
aI01
aI01
aI00
aI00
aI01
aI01
aI00
aI01
aI00
aI01
aI01
aI01
aI01
aI00
aI00
aI00
aI01
aI00
aI00
aI01
aI01
aI01
aI01
aI00
aI01
aI01
aI01
aI01
aI00
aI00
aI01
aI01
aI00
aI01
aI01
aI01
aI01
aI00
aI00
aI00
aI01
aI01
aI00
aI01
aI01
aI01
aI00
aI00
aI01
aI01
aI01
aI01
aI01
aI01
aI01
aI01
aI00
aI01
aI01
aI00
aI01
aI00
aI01
aI01
aI00
aI01
aI00
aI01
aI01
aI01
aI01
aI01
aI01
aI01
aI01
aI01
aI00
aI01
aI01
aI01
aI00
aI01
aI01
aI01
aI01
aI01
aI01
aI01
aI00
aI01
aI00
aI01
aI00
aI01
aI01
aI01
aI01
aI01
aI00
aI00
aI01
aI01
aI01
aI01
aI00
aI00
aI01
aI01
aI01
aI01
aI01
aI01
aI01
aI01
aI00
aI01
aI01
aI01
aI01
aI01
aI01
aI01
aI00
aI00
aI00
aI01
aI00
aI01
aI01
aI01
aI01
aI01
aI01
aI01
aI01
aI00
aI01
aI01
aI00
aI01
aI00
aI01
aI01
aI01
aI01
aI01
aI01
aI00
aI01
aI01
aI01
aI01
aI01
aI01
aI01
aI01
aI01
aI01
aI01
aI01
aI01
aI00
aI01
aI00
aI00
aI00
aI01
aI01
aI01
aI01
aI01
aI01
aI01
aI00
aI01
aI01
aI00
aI01
aI01
aI00
aI01
aI01
aI01
aI01
aI01
aI01
aI00
aI01
aI01
aI01
aI01
aI01
aI01
aI01
aI01
aI01
aI00
aI00
aI01
aI01
aI00
aI00
aI01
aI01
aI01
aI01
aI01
aI00
aI01
aI00
aI01
aI00
aI00
aI00
aI01
aI01
aI01
aI01
aI01
aI01
aI00
aI01
aI00
aI01
aI00
aI01
aI01
aI01
aI01
aI01
aI01
aI01
aI00
aI01
aI01
aI01
aI01
aI01
aI01
aI01
aI01
aI00
aI01
aI01
aI00
aI01
aI01
aI01
aI01
aI01
aI01
aI00
aI01
aI01
aI01
aI01
aI00
aI01
aI01
aI01
aI01
aI01
aI01
aI01
aI01
aI01
aI01
aI01
aI01
aI01
aI01
aI00
aI00
aI01
aI01
aI00
aI01
aI01
aI01
aI01
aI01
aI01
aI00
aI01
aI00
aI00
aI01
aI01
aI01
aI01
aI01
aI01
aI00
aI00
aI00
aI01
aI01
aI01
aI01
aI01
aI01
aI01
aI01
aI01
aI01
aI01
aI00
aI01
aI01
aI00
aI01
aI01
aI00
aI01
aI01
aI01
aI00
aI01
aI01
aI00
aI01
aI01
aI01
aI00
aI00
aI01
aI00
aI01
aI00
aI00
aI01
aI01
aI00
aI01
aI01
aI00
aI01
aI00
aI01
aI01
aI01
aI01
aI00
aI01
aI01
aI01
aI00
aI01
aI01
aI01
aI01
aI00
aI01
aI01
aI00
aI01
aI00
aI01
aI01
aI01
aI01
aI00
aI01
aI01
aI00
aI01
aI01
aI00
aI00
aI00
aI01
aI01
aI01
aI00
aI01
aI01
aI00
aI00
aI01
aI01
aI01
aI01
aI01
aI00
aI01
aI01
aI01
aI01
aI01
aI01
aI00
aI01
aI01
aI01
aI01
aI01
aI00
aI01
aI01
aI00
aI01
aI01
aI01
aI01
aI01
aI01
aI01
aI01
aI01
aI01
aI00
aI01
aI00
aI01
aI01
aI01
aI00
aI01
aI01
aI01
aI01
aI01
aI00
aI01
aI01
aI01
aI00
aI01
aI00
aI01
aI01
aI00
aI01
aI00
aI01
aI00
aI00
aI00
aI01
aI01
aI00
aI01
aI00
aI01
aI00
aI01
aI01
aI01
aI01
aI01
aI01
aI01
aI00
aI01
aI01
aI01
aI01
aI01
aI01
aI01
aI01
aI01
aI01
aI01
aI00
aI00
aI01
aI00
aI01
aI01
aI00
aI01
aI01
aI01
aI00
aI01
aI01
aI01
aI00
aI01
aI01
aI00
aI00
aI01
aI01
aI01
aI01
aI01
aI00
aI01
aI01
aI00
aI01
aI01
aI01
aI00
aI01
aI01
aI01
aI01
aI00
aI00
aI01
aI00
aI00
aI01
aI01
aI01
aI00
aI01
aI00
aI01
aI01
aI00
aI01
aI01
aI00
aI00
aI01
aI01
aI01
aI01
aI01
aI00
aI01
aI01
aI01
aI01
aI01
aI01
aI00
aI00
aI01
aI01
aI01
aI01
aI01
aI01
aI01
aI01
aI01
aI01
aI01
aI01
aI01
aI01
aI00
aI00
aI01
aI00
aI01
aI01
aI01
aI00
aI00
aI00
aI01
aI01
aI01
aI00
aI01
aI00
aI01
aI00
aI01
aI00
aI01
aI00
aI01
aI00
aI01
aI00
aI01
aI01
aI01
aI01
aI01
aI01
aI01
aI01
aI00
aI01
aI01
aI01
aI01
aI01
aI01
aI01
aI01
aI01
aI01
aI01
aI01
aI00
aI01
aI01
aI00
aI00
aI01
aI01
aI01
aI00
aI01
aI01
aI01
aI01
aI01
aI00
aI01
aI00
aI01
aI01
aI01
aI01
aI01
aI00
aI01
aI00
aI01
aI00
aI01
aI00
aI01
aI01
aI01
aI01
aI01
aI00
aI01
aI00
aI00
aI00
aI01
aI01
aI01
aI00
aI01
aI01
aI01
aI01
aI01
aI00
aI01
aI00
aI01
aI01
aI01
aI01
aI00
aI00
aI01
aI00
aI00
aI01
aI01
aI00
aI00
aI01
aI01
aI01
aI01
aI01
aI00
aI00
aI01
aI01
aI01
aI00
aI01
aI01
aI01
aI01
aI01
aI00
aI01
aI01
aI01
aI01
aI00
aI01
aI01
aI00
aI00
aI01
aI00
aI00
aI01
aI00
aI01
aI01
aI01
aI01
aI01
aI01
aI01
aI01
aI00
aI01
aI01
aI01
aI01
aI01
aI01
aI00
aI01
aI01
aI01
aI01
aI01
aI01
aI00
aI01
aI01
aI01
aI01
aI01
aI01
aI00
aI01
aI01
aI00
aI01
aI01
aI00
aI01
aI00
aI01
aI01
aI01
aI01
aI01
aI00
aI00
aI01
aI01
aI01
aI01
aI01
aI01
aI01
aI01
aI00
aI01
aI01
aI01
aI01
aI00
aI00
aI01
aI01
aI01
aI00
aI01
aI01
aI01
aI01
aI01
aI01
aI01
aI01
aI01
aI00
aI01
aI00
aI00
aI01
aI01
aI01
aI00
aI00
aI00
aI01
aI01
aI01
aI01
aI01
aI00
aI01
aI01
aI00
aI01
aI00
aI01
aI00
aI01
aI01
aI01
aI01
aI01
aI00
aI01
aI00
aI01
aI01
aI00
aI01
aI01
aI01
aI01
aI00
aI01
aI01
aI01
aI01
aI01
aI01
aI01
aI01
aI01
aI01
aI01
aI01
aI00
aI01
aI01
aI01
aI00
aI00
aI01
aI01
aI00
aI01
aI01
aI01
aI01
aI01
aI01
aI01
aI01
aI00
aI01
aI01
aI00
aI00
aI01
aI01
aI01
aI01
aI00
aI01
aI01
aI01
aI00
aI00
aI00
aI01
aI00
aI01
aI01
aI01
aI01
aI01
aI01
aI00
aI01
aI00
aI00
aI01
aI01
aI01
aI01
aI01
aI01
aI01
aI00
aI01
aI01
aI00
aI01
aI01
aI00
aI01
aI00
aI01
aI01
aI01
aI01
aI01
aI01
aI00
aI00
aI01
aI01
aI01
aI01
aI01
aI01
aI01
aI00
aI01
aI01
aI00
aI00
aI01
aI01
aI00
aI01
aI01
aI01
aI01
aI01
aI01
aI01
aI00
aI01
aI01
aI01
aI00
aI01
aI01
aI01
aI01
aI01
aI01
aI00
aI01
aI01
aI01
aI01
aI01
aI01
aI00
aI01
aI01
aI01
aI00
aI00
aI01
aI01
aI01
aI01
aI01
aI00
aI01
aI01
aI01
aI01
aI01
aI01
aI01
aI01
aI01
aI01
aI00
aI01
aI01
aI01
aI01
aI01
aI01
aI01
aI01
aI01
aI00
aI01
aI00
aI01
aI00
aI01
aI01
aI01
aI01
aI01
aI01
aI01
aI01
aI01
aI01
aI01
aI00
aI01
aI00
aI01
aI01
aI01
aI00
aI01
aI01
aI00
aI01
aI01
aI01
aI01
aI01
aI01
aI01
aI01
aI00
aI01
aI01
aI01
aI01
aI00
aI01
aI00
aI01
aI00
aI00
aI00
aI01
aI01
aI01
aI00
aI00
aI00
aI00
aI00
aI01
aI01
aI01
aI00
aI00
aI01
aI01
aI01
aI01
aI01
aI01
aI01
aI01
aI01
aI01
aI01
aI01
aI00
aI01
aI00
aI01
aI01
aI01
aI01
aI01
aI01
aI01
aI00
aI00
aI01
aI01
aI01
aI01
aI01
aI01
aI00
aI01
aI01
aI01
aI01
aI01
aI00
aI01
aI01
aI00
aI01
aI01
aI01
aI00
aI01
aI00
aI01
aI01
aI01
aI01
aI00
aI01
aI00
aI01
aI00
aI00
aI00
aI01
aI00
aI00
aI00
aI00
aI01
aI01
aI01
aI01
aI01
aI01
aI01
aI01
aI01
aI01
aI00
aI01
aI01
aI00
aI01
aI01
aI01
aI01
aI01
aI00
aI01
aI01
aI01
aI01
aI01
aI00
aI01
aI01
aI00
aI00
aI01
aI01
aI01
aI01
aI00
aI01
aI01
aI01
aI01
aI01
aI01
aI01
aI01
aI01
aI01
aI01
aI01
aI01
aI00
aI01
aI01
aI00
aI01
aI01
aI01
aI01
aI00
aI01
aI01
aI01
aI01
aI01
aI01
aI01
aI01
aI00
aI01
aI00
aI00
aI01
aI01
aI01
aI01
aI01
aI01
aI01
aI01
aI01
aI01
aI00
aI01
aI01
aI01
aI01
aI01
aI01
aI01
aI01
aI00
aI01
aI01
aI00
aI00
aI00
aI01
aI01
aI00
aI01
aI00
aI01
aI01
aI01
aI01
aI01
aI01
aI01
aI01
aI00
aI01
aI01
aI01
aI01
aI00
aI01
aI01
aI01
aI01
aI01
aI00
aI00
aI01
aI00
aI01
aI01
aI01
aI01
aI01
aI01
aI01
aI01
aI00
aI01
aI01
aI01
aI00
aI00
aI01
aI00
aI01
aI01
aI00
aI01
aI01
aI01
aI01
aI01
aI01
aI01
aI01
aI01
aI01
aI01
aI01
aI01
aI01
aI01
aI00
aI00
aI00
aI01
aI01
aI01
aI01
aI01
aI01
aI00
aI01
aI00
aI01
aI00
aI01
aI01
aI00
aI01
aI00
aI01
aI01
aI01
aI01
aI00
aI00
aI01
aI00
aI00
aI01
aI00
aI01
aI01
aI00
aI01
aI00
aI01
aI01
aI01
aI01
aI01
aI01
aI00
aI01
aI00
aI00
aI01
aI01
aI01
aI01
aI01
aI01
aI01
aI00
aI01
aI01
aI01
aI01
aI01
aI01
aI01
aI01
aI00
aI01
aI01
aI01
aI01
aI01
aI00
aI01
aI00
aI01
aI01
aI01
aI01
aI01
aI01
aI00
aI01
aI01
aI01
aI01
aI01
aI00
aI01
aI01
aI01
aI01
aI00
aI01
aI00
aI00
aI01
aI00
aI01
aI00
aI01
aI01
aI01
aI00
aI01
aI01
aI01
aI01
asS'pidxs'
p3
(lp4
I20050
aI20045
aI20070
aI20015
aI20076
aI20009
aI20039
aI20053
aI20081
aI20099
aI20099
aI20012
aI20092
aI20055
aI20026
aI20065
aI20039
aI20080
aI20074
aI20024
aI20056
aI20052
aI20042
aI20012
aI20076
aI20025
aI20025
aI20053
aI20007
aI20092
aI20061
aI20097
aI20008
aI20004
aI20025
aI20088
aI20017
aI20026
aI20040
aI20094
aI20013
aI20048
aI20071
aI20003
aI20000
aI20046
aI20056
aI20098
aI20083
aI20006
aI20087
aI20073
aI20075
aI20075
aI20080
aI20039
aI20083
aI20043
aI20043
aI20012
aI20092
aI20084
aI20031
aI20031
aI20091
aI20010
aI20088
aI20090
aI20007
aI20026
aI20038
aI20028
aI20095
aI20071
aI20090
aI20004
aI20091
aI20032
aI20001
aI20064
aI20052
aI20005
aI20086
aI20069
aI20015
aI20020
aI20009
aI20054
aI20046
aI20019
aI20071
aI20066
aI20020
aI20019
aI20064
aI20047
aI20072
aI20033
aI20039
aI20081
aI20008
aI20047
aI20065
aI20023
aI20021
aI20024
aI20067
aI20046
aI20016
aI20031
aI20016
aI20037
aI20044
aI20067
aI20022
aI20099
aI20036
aI20065
aI20080
aI20094
aI20082
aI20091
aI20065
aI20042
aI20027
aI20099
aI20007
aI20068
aI20038
aI20029
aI20057
aI20039
aI20073
aI20086
aI20008
aI20028
aI20083
aI20064
aI20098
aI20095
aI20044
aI20035
aI20061
aI20083
aI20004
aI20083
aI20059
aI20098
aI20051
aI20004
aI20093
aI20053
aI20081
aI20003
aI20068
aI20038
aI20075
aI20034
aI20068
aI20025
aI20078
aI20043
aI20091
aI20033
aI20017
aI20088
aI20009
aI20082
aI20091
aI20059
aI20038
aI20005
aI20083
aI20053
aI20028
aI20069
aI20045
aI20079
aI20084
aI20061
aI20049
aI20094
aI20068
aI20073
aI20024
aI20077
aI20079
aI20066
aI20023
aI20047
aI20056
aI20085
aI20089
aI20007
aI20050
aI20090
aI20015
aI20040
aI20078
aI20005
aI20088
aI20081
aI20022
aI20077
aI20072
aI20045
aI20059
aI20084
aI20091
aI20010
aI20020
aI20096
aI20089
aI20033
aI20022
aI20008
aI20058
aI20055
aI20070
aI20027
aI20054
aI20050
aI20094
aI20024
aI20027
aI20016
aI20084
aI20096
aI20089
aI20017
aI20075
aI20091
aI20041
aI20048
aI20086
aI20076
aI20088
aI20025
aI20033
aI20054
aI20032
aI20034
aI20055
aI20053
aI20039
aI20026
aI20002
aI20033
aI20034
aI20091
aI20092
aI20050
aI20017
aI20024
aI20077
aI20098
aI20092
aI20093
aI20027
aI20046
aI20052
aI20037
aI20044
aI20074
aI20042
aI20072
aI20003
aI20034
aI20094
aI20062
aI20041
aI20011
aI20088
aI20067
aI20047
aI20074
aI20078
aI20049
aI20053
aI20009
aI20019
aI20017
aI20018
aI20066
aI20064
aI20057
aI20062
aI20028
aI20011
aI20054
aI20074
aI20047
aI20005
aI20070
aI20008
aI20002
aI20070
aI20068
aI20028
aI20079
aI20088
aI20085
aI20029
aI20051
aI20079
aI20020
aI20029
aI20080
aI20091
aI20079
aI20011
aI20080
aI20069
aI20089
aI20046
aI20021
aI20046
aI20094
aI20071
aI20032
aI20083
aI20052
aI20008
aI20088
aI20075
aI20096
aI20020
aI20017
aI20044
aI20099
aI20072
aI20080
aI20021
aI20068
aI20071
aI20024
aI20078
aI20099
aI20059
aI20004
aI20028
aI20033
aI20004
aI20008
aI20001
aI20058
aI20033
aI20010
aI20082
aI20016
aI20008
aI20002
aI20081
aI20085
aI20044
aI20023
aI20071
aI20094
aI20018
aI20050
aI20040
aI20082
aI20023
aI20062
aI20068
aI20087
aI20068
aI20016
aI20057
aI20015
aI20022
aI20064
aI20073
aI20051
aI20090
aI20014
aI20043
aI20020
aI20052
aI20005
aI20036
aI20011
aI20031
aI20045
aI20015
aI20026
aI20096
aI20031
aI20038
aI20086
aI20055
aI20006
aI20077
aI20096
aI20063
aI20090
aI20029
aI20017
aI20004
aI20016
aI20005
aI20058
aI20069
aI20039
aI20028
aI20062
aI20072
aI20014
aI20058
aI20077
aI20030
aI20055
aI20025
aI20007
aI20064
aI20067
aI20010
aI20016
aI20097
aI20072
aI20022
aI20046
aI20046
aI20048
aI20061
aI20022
aI20063
aI20036
aI20060
aI20026
aI20030
aI20039
aI20074
aI20041
aI20084
aI20070
aI20090
aI20079
aI20011
aI20076
aI20025
aI20087
aI20000
aI20056
aI20096
aI20030
aI20021
aI20001
aI20048
aI20063
aI20022
aI20021
aI20049
aI20005
aI20009
aI20002
aI20044
aI20002
aI20040
aI20083
aI20036
aI20013
aI20018
aI20078
aI20065
aI20051
aI20032
aI20086
aI20027
aI20032
aI20059
aI20077
aI20085
aI20097
aI20046
aI20077
aI20003
aI20014
aI20047
aI20050
aI20049
aI20072
aI20084
aI20039
aI20093
aI20054
aI20052
aI20072
aI20042
aI20020
aI20039
aI20068
aI20007
aI20052
aI20000
aI20036
aI20043
aI20091
aI20063
aI20025
aI20087
aI20098
aI20064
aI20046
aI20014
aI20035
aI20074
aI20004
aI20009
aI20013
aI20097
aI20016
aI20007
aI20045
aI20012
aI20034
aI20013
aI20000
aI20076
aI20063
aI20067
aI20001
aI20006
aI20024
aI20009
aI20063
aI20060
aI20063
aI20078
aI20087
aI20081
aI20044
aI20059
aI20044
aI20079
aI20072
aI20082
aI20057
aI20047
aI20036
aI20076
aI20081
aI20001
aI20048
aI20051
aI20057
aI20036
aI20061
aI20012
aI20099
aI20064
aI20057
aI20026
aI20089
aI20045
aI20096
aI20050
aI20084
aI20021
aI20060
aI20063
aI20068
aI20067
aI20006
aI20032
aI20091
aI20043
aI20064
aI20011
aI20052
aI20037
aI20060
aI20060
aI20064
aI20038
aI20056
aI20085
aI20018
aI20046
aI20051
aI20006
aI20019
aI20031
aI20034
aI20080
aI20060
aI20028
aI20056
aI20059
aI20049
aI20096
aI20055
aI20057
aI20078
aI20031
aI20000
aI20076
aI20056
aI20027
aI20094
aI20080
aI20038
aI20054
aI20054
aI20085
aI20035
aI20017
aI20017
aI20023
aI20055
aI20015
aI20037
aI20023
aI20053
aI20069
aI20073
aI20086
aI20093
aI20085
aI20017
aI20070
aI20094
aI20022
aI20092
aI20059
aI20043
aI20087
aI20083
aI20028
aI20023
aI20040
aI20051
aI20036
aI20029
aI20079
aI20079
aI20037
aI20012
aI20029
aI20090
aI20006
aI20076
aI20022
aI20024
aI20036
aI20085
aI20008
aI20009
aI20072
aI20093
aI20065
aI20093
aI20099
aI20074
aI20060
aI20042
aI20020
aI20052
aI20005
aI20042
aI20020
aI20023
aI20057
aI20009
aI20049
aI20011
aI20096
aI20001
aI20020
aI20066
aI20026
aI20041
aI20092
aI20011
aI20047
aI20067
aI20087
aI20033
aI20062
aI20097
aI20013
aI20081
aI20028
aI20037
aI20003
aI20080
aI20056
aI20032
aI20054
aI20013
aI20069
aI20072
aI20052
aI20035
aI20099
aI20002
aI20056
aI20098
aI20070
aI20045
aI20041
aI20083
aI20082
aI20027
aI20037
aI20060
aI20098
aI20030
aI20080
aI20013
aI20009
aI20070
aI20000
aI20062
aI20027
aI20076
aI20044
aI20092
aI20041
aI20084
aI20076
aI20036
aI20059
aI20021
aI20005
aI20048
aI20002
aI20044
aI20034
aI20095
aI20034
aI20079
aI20096
aI20095
aI20033
aI20082
aI20010
aI20082
aI20048
aI20013
aI20034
aI20015
aI20032
aI20013
aI20043
aI20053
aI20040
aI20026
aI20021
aI20003
aI20095
aI20055
aI20090
aI20020
aI20032
aI20016
aI20038
aI20027
aI20008
aI20026
aI20002
aI20093
aI20004
aI20047
aI20043
aI20041
aI20055
aI20010
aI20095
aI20048
aI20039
aI20069
aI20051
aI20064
aI20048
aI20097
aI20031
aI20029
aI20056
aI20018
aI20029
aI20006
aI20070
aI20042
aI20029
aI20017
aI20010
aI20004
aI20086
aI20029
aI20021
aI20045
aI20095
aI20093
aI20075
aI20079
aI20070
aI20065
aI20081
aI20062
aI20092
aI20006
aI20037
aI20082
aI20064
aI20086
aI20058
aI20000
aI20085
aI20097
aI20068
aI20061
aI20014
aI20012
aI20077
aI20038
aI20036
aI20037
aI20079
aI20058
aI20043
aI20059
aI20023
aI20064
aI20088
aI20066
aI20000
aI20062
aI20003
aI20014
aI20010
aI20042
aI20066
aI20069
aI20017
aI20007
aI20063
aI20094
aI20049
aI20078
aI20086
aI20018
aI20084
aI20041
aI20099
aI20050
aI20073
aI20032
aI20089
aI20001
aI20028
aI20031
aI20028
aI20044
aI20058
aI20092
aI20047
aI20070
aI20080
aI20086
aI20014
aI20074
aI20014
aI20036
aI20003
aI20025
aI20050
aI20034
aI20065
aI20040
aI20033
aI20023
aI20051
aI20086
aI20091
aI20053
aI20075
aI20088
aI20091
aI20046
aI20066
aI20020
aI20062
aI20044
aI20066
aI20012
aI20044
aI20001
aI20076
aI20004
aI20040
aI20037
aI20094
aI20094
aI20053
aI20044
aI20013
aI20063
aI20028
aI20031
aI20054
aI20008
aI20099
aI20095
aI20088
aI20031
aI20026
aI20061
aI20093
aI20044
aI20025
aI20057
aI20019
aI20001
aI20050
aI20057
aI20010
aI20066
aI20052
aI20030
aI20082
aI20002
aI20061
aI20056
aI20050
aI20092
aI20067
aI20042
aI20070
aI20072
aI20096
aI20098
aI20048
aI20085
aI20082
aI20021
aI20035
aI20095
aI20019
aI20026
aI20035
aI20085
aI20014
aI20027
aI20028
aI20090
aI20016
aI20050
aI20067
aI20041
aI20099
aI20027
aI20065
aI20025
aI20099
aI20064
aI20025
aI20017
aI20047
aI20084
aI20004
aI20098
aI20057
aI20081
aI20075
aI20042
aI20020
aI20061
aI20094
aI20073
aI20006
aI20013
aI20083
aI20010
aI20024
aI20015
aI20093
aI20003
aI20077
aI20075
aI20088
aI20036
aI20033
aI20050
aI20045
aI20068
aI20016
aI20061
aI20071
aI20006
aI20041
aI20036
aI20002
aI20097
aI20068
aI20071
aI20083
aI20064
aI20018
aI20062
aI20055
aI20058
aI20031
aI20041
aI20093
aI20052
aI20003
aI20063
aI20067
aI20038
aI20000
aI20015
aI20026
aI20024
aI20034
aI20015
aI20070
aI20085
aI20058
aI20096
aI20029
aI20047
aI20071
aI20074
aI20021
aI20058
aI20037
aI20047
aI20028
aI20006
aI20086
aI20025
aI20064
aI20085
aI20053
aI20074
aI20073
aI20062
aI20067
aI20033
aI20058
aI20070
aI20062
aI20002
aI20089
aI20051
aI20078
aI20049
aI20014
aI20024
aI20039
aI20057
aI20083
aI20032
aI20049
aI20065
aI20037
aI20048
aI20066
aI20042
aI20045
aI20091
aI20054
aI20057
aI20029
aI20043
aI20045
aI20063
aI20061
aI20042
aI20025
aI20003
aI20055
aI20078
aI20029
aI20059
aI20034
aI20070
aI20097
aI20078
aI20006
aI20008
aI20020
aI20019
aI20036
aI20041
aI20012
aI20016
aI20058
aI20032
aI20064
aI20040
aI20059
aI20058
aI20034
aI20041
aI20058
aI20042
aI20098
aI20004
aI20017
aI20080
aI20087
aI20000
aI20037
aI20000
aI20058
aI20069
aI20079
aI20007
aI20002
aI20098
aI20072
aI20004
aI20017
aI20007
aI20001
aI20088
aI20002
aI20086
aI20045
aI20040
aI20059
aI20030
aI20000
aI20055
aI20048
aI20023
aI20067
aI20094
aI20006
aI20073
aI20090
aI20035
aI20016
aI20042
aI20028
aI20042
aI20023
aI20037
aI20089
aI20097
aI20029
aI20057
aI20074
aI20055
aI20043
aI20032
aI20079
aI20035
aI20048
aI20099
aI20021
aI20080
aI20086
aI20092
aI20059
aI20056
aI20026
aI20087
aI20017
aI20027
aI20052
aI20010
aI20069
aI20046
aI20042
aI20077
aI20088
aI20077
aI20089
aI20029
aI20066
aI20050
aI20071
aI20035
aI20052
aI20089
aI20099
aI20011
aI20066
aI20097
aI20018
aI20070
aI20077
aI20009
aI20015
aI20083
aI20062
aI20015
aI20023
aI20009
aI20088
aI20061
aI20039
aI20097
aI20030
aI20060
aI20045
aI20012
aI20074
aI20067
aI20089
aI20041
aI20089
aI20022
aI20099
aI20090
aI20092
aI20062
aI20017
aI20087
aI20061
aI20030
aI20068
aI20055
aI20008
aI20093
aI20074
aI20030
aI20019
aI20071
aI20034
aI20009
aI20006
aI20021
aI20068
aI20097
aI20056
aI20008
aI20011
aI20089
aI20046
aI20079
aI20067
aI20083
aI20012
aI20031
aI20026
aI20023
aI20027
aI20040
aI20008
aI20010
aI20021
aI20022
aI20058
aI20075
aI20005
aI20057
aI20043
aI20038
aI20040
aI20064
aI20038
aI20038
aI20069
aI20038
aI20002
aI20081
aI20023
aI20056
aI20018
aI20095
aI20067
aI20087
aI20024
aI20066
aI20007
aI20035
aI20098
aI20062
aI20030
aI20030
aI20096
aI20086
aI20079
aI20065
aI20012
aI20014
aI20045
aI20076
aI20059
aI20090
aI20035
aI20072
aI20066
aI20078
aI20074
aI20083
aI20097
aI20097
aI20077
aI20062
aI20090
aI20052
aI20016
aI20058
aI20013
aI20040
aI20047
aI20085
aI20069
aI20001
aI20096
aI20025
aI20054
aI20086
aI20015
aI20048
aI20000
aI20046
aI20087
aI20004
aI20083
aI20091
aI20010
aI20001
aI20022
aI20051
aI20081
aI20016
aI20014
aI20039
aI20096
aI20038
aI20011
aI20065
aI20040
aI20087
aI20001
aI20003
aI20030
aI20096
aI20007
aI20075
aI20044
aI20000
aI20000
aI20086
aI20076
aI20033
aI20053
aI20061
aI20077
aI20063
aI20086
aI20019
aI20011
aI20032
aI20015
aI20020
aI20004
aI20010
aI20085
aI20094
aI20032
aI20026
aI20096
aI20096
aI20016
aI20019
aI20048
aI20085
aI20054
aI20094
aI20077
aI20019
aI20061
aI20021
aI20068
aI20035
aI20082
aI20001
aI20009
aI20065
aI20069
aI20003
aI20084
aI20090
aI20081
aI20066
aI20031
aI20093
aI20045
aI20077
aI20092
aI20024
aI20069
aI20087
aI20006
aI20029
aI20011
aI20005
aI20013
aI20053
aI20082
aI20039
aI20090
aI20014
aI20005
aI20035
aI20071
aI20087
aI20078
aI20071
aI20002
aI20060
aI20030
aI20004
aI20019
aI20051
aI20033
aI20098
aI20011
aI20031
aI20014
aI20074
aI20031
aI20020
aI20010
aI20020
aI20033
aI20050
aI20009
aI20078
aI20023
aI20007
aI20096
aI20038
aI20027
aI20014
aI20007
aI20000
aI20015
aI20014
aI20049
aI20075
aI20089
aI20040
aI20093
aI20077
aI20010
aI20017
aI20065
aI20088
aI20033
aI20073
aI20098
aI20084
aI20081
aI20094
aI20075
aI20039
aI20080
aI20021
aI20012
aI20007
aI20034
aI20021
aI20038
aI20003
aI20056
aI20098
aI20009
aI20006
aI20056
aI20005
aI20005
aI20065
aI20041
aI20077
aI20012
aI20051
aI20018
aI20069
aI20095
aI20091
aI20099
aI20049
aI20007
aI20079
aI20085
aI20044
aI20052
aI20040
aI20001
aI20017
aI20072
aI20025
aI20021
aI20035
aI20069
aI20094
aI20075
aI20094
aI20089
aI20018
aI20070
aI20097
aI20032
aI20012
aI20084
aI20053
aI20076
aI20055
aI20067
aI20075
aI20070
aI20000
aI20071
aI20089
aI20078
aI20007
aI20022
aI20085
aI20019
aI20098
aI20018
aI20003
aI20049
aI20006
aI20018
aI20037
aI20042
aI20084
aI20050
aI20099
aI20044
aI20051
aI20035
aI20011
aI20041
aI20078
aI20051
aI20047
aI20027
aI20088
aI20071
aI20003
aI20004
aI20038
aI20095
aI20045
aI20001
aI20032
aI20064
aI20089
aI20087
aI20095
aI20056
aI20060
aI20018
aI20049
aI20004
aI20010
aI20058
aI20036
aI20018
aI20059
aI20076
aI20079
aI20031
aI20060
aI20014
aI20046
aI20095
aI20002
aI20087
aI20091
aI20073
aI20082
aI20063
aI20097
aI20083
aI20092
aI20084
aI20096
aI20078
aI20075
aI20081
aI20040
aI20039
aI20005
aI20038
aI20093
aI20065
aI20059
aI20051
aI20057
aI20071
aI20099
aI20095
aI20045
aI20043
aI20058
aI20022
aI20072
aI20027
aI20004
aI20051
aI20080
aI20019
aI20098
aI20079
aI20003
aI20049
aI20036
aI20061
aI20072
aI20005
aI20022
aI20011
aI20048
aI20024
aI20011
aI20057
aI20073
aI20013
aI20002
aI20052
aI20073
aI20048
aI20056
aI20014
aI20053
aI20027
aI20035
aI20097
aI20020
aI20025
aI20049
aI20002
aI20097
aI20011
aI20080
aI20041
aI20066
aI20097
aI20000
aI20084
aI20055
aI20073
aI20070
aI20082
aI20057
aI20050
aI20013
aI20090
aI20054
aI20039
aI20030
aI20067
aI20026
aI20015
aI20034
aI20058
aI20026
aI20071
aI20028
aI20005
aI20078
aI20060
aI20074
aI20055
aI20014
aI20033
aI20081
aI20023
aI20059
aI20080
aI20032
aI20024
aI20016
aI20061
aI20068
aI20011
aI20011
aI20018
aI20085
aI20040
aI20061
aI20024
aI20031
aI20069
aI20094
aI20093
aI20063
aI20052
aI20032
aI20007
aI20088
aI20054
aI20059
aI20050
aI20047
aI20092
aI20019
aI20053
aI20098
aI20006
aI20062
aI20061
aI20066
aI20024
aI20069
aI20026
aI20062
aI20003
aI20054
aI20098
aI20016
aI20027
aI20049
aI20030
aI20047
aI20053
aI20075
aI20092
aI20056
aI20012
aI20060
aI20038
aI20043
aI20015
aI20059
aI20009
aI20090
aI20022
aI20008
aI20042
aI20070
aI20045
aI20060
aI20065
aI20002
aI20012
aI20026
aI20009
aI20020
aI20060
aI20072
aI20045
aI20032
aI20091
aI20093
aI20029
aI20019
aI20018
aI20022
aI20073
aI20069
aI20073
aI20074
aI20003
aI20071
aI20021
aI20043
aI20034
aI20012
aI20068
aI20081
aI20054
aI20010
aI20048
aI20080
aI20066
aI20030
aI20074
aI20073
aI20049
aI20037
aI20043
aI20019
aI20053
aI20016
aI20090
aI20022
aI20045
aI20035
aI20001
aI20008
aI20035
aI20013
aI20083
aI20016
aI20073
aI20041
aI20046
aI20066
aI20081
aI20013
aI20046
aI20052
aI20002
aI20090
aI20036
aI20074
aI20093
aI20069
aI20092
aI20024
aI20039
aI20060
aI20041
aI20057
aI20091
aI20076
aI20065
aI20030
aI20082
aI20030
aI20065
aI20007
aI20001
aI20062
aI20015
aI20066
aI20048
aI20031
aI20015
aI20050
aI20046
aI20060
aI20095
aI20077
aI20051
aI20013
aI20055
aI20092
aI20062
aI20054
aI20031
aI20090
aI20083
aI20086
aI20036
aI20036
aI20078
aI20049
aI20071
aI20019
aI20034
aI20027
aI20086
aI20082
aI20043
aI20010
aI20063
aI20053
aI20008
aI20044
aI20071
aI20061
aI20034
aI20091
aI20009
aI20076
aI20034
aI20040
aI20025
aI20043
aI20020
aI20077
aI20050
aI20033
aI20082
aI20019
aI20003
aI20057
aI20012
aI20030
aI20095
aI20088
aI20012
aI20078
aI20047
aI20033
aI20013
aI20023
aI20022
aI20000
aI20087
aI20076
aI20092
aI20013
aI20001
aI20088
aI20008
aI20084
aI20023
aI20076
aI20087
aI20067
aI20073
aI20028
aI20060
aI20041
aI20005
aI20095
aI20055
aI20018
aI20095
aI20067
aI20021
aI20072
aI20046
aI20056
aI20054
aI20060
aI20037
aI20053
aI20025
aI20076
aI20075
aI20081
aI20089
aI20010
aI20014
aI20044
aI20064
aI20052
aI20035
aI20009
aI20008
aI20000
aI20079
aI20067
aI20029
aI20005
aI20043
aI20006
aI20093
aI20030
aI20037
aI20087
aI20033
aI20082
aI20054
aI20049
aI20068
aI20048
aI20085
aI20099
aI20051
aI20037
aI20027
aI20037
aI20080
aI20007
aI20024
aI20065
aI20047
aI20019
aI20017
aI20024
aI20098
aI20001
aI20018
aI20068
aI20093
aI20029
aI20089
aI20005
aI20018
aI20039
aI20028
aI20081
aI20075
aI20051
aI20035
aI20025
aI20054
aI20006
aI20022
aI20015
aI20029
aI20042
aI20075
aI20063
aI20080
aI20095
aI20028
aI20042
aI20073
aI20049
aI20082
asS'plan_length'
p5
(lp6
I5
aI2
aI44
aI29
aI1
aI5
aI2
aI6
aI1
aI1
aI1
aI5
aI1
aI2
aI13
aI7
aI1
aI1
aI1
aI4
aI1
aI31
aI16
aI1
aI47
aI5
aI10
aI1
aI8
aI1
aI4
aI51
aI9
aI6
aI13
aI1
aI45
aI1
aI3
aI8
aI16
aI1
aI25
aI3
aI6
aI10
aI6
aI26
aI55
aI23
aI51
aI2
aI5
aI1
aI8
aI43
aI11
aI15
aI5
aI8
aI6
aI1
aI16
aI41
aI7
aI2
aI4
aI1
aI23
aI22
aI40
aI1
aI2
aI1
aI23
aI1
aI20
aI4
aI49
aI11
aI18
aI2
aI8
aI35
aI32
aI1
aI8
aI19
aI2
aI1
aI1
aI1
aI1
aI10
aI11
aI1
aI2
aI27
aI20
aI8
aI19
aI1
aI6
aI5
aI3
aI1
aI1
aI1
aI45
aI12
aI15
aI7
aI5
aI3
aI12
aI6
aI1
aI13
aI7
aI4
aI10
aI1
aI3
aI1
aI17
aI4
aI16
aI37
aI26
aI1
aI26
aI1
aI1
aI31
aI2
aI1
aI2
aI2
aI1
aI16
aI26
aI1
aI2
aI1
aI11
aI5
aI11
aI1
aI1
aI9
aI18
aI4
aI2
aI3
aI1
aI1
aI9
aI25
aI7
aI1
aI8
aI3
aI7
aI33
aI1
aI11
aI19
aI3
aI1
aI42
aI18
aI1
aI1
aI30
aI17
aI15
aI28
aI15
aI2
aI12
aI2
aI8
aI6
aI22
aI18
aI6
aI4
aI41
aI2
aI3
aI10
aI4
aI1
aI13
aI1
aI2
aI2
aI2
aI5
aI4
aI29
aI1
aI4
aI1
aI16
aI9
aI25
aI1
aI8
aI1
aI1
aI1
aI6
aI2
aI1
aI2
aI1
aI3
aI12
aI18
aI4
aI1
aI10
aI4
aI2
aI2
aI9
aI8
aI1
aI1
aI34
aI5
aI1
aI4
aI29
aI1
aI2
aI1
aI2
aI1
aI23
aI18
aI8
aI1
aI6
aI1
aI27
aI34
aI3
aI6
aI1
aI3
aI33
aI8
aI3
aI9
aI1
aI2
aI31
aI3
aI2
aI17
aI2
aI28
aI38
aI40
aI1
aI10
aI12
aI19
aI23
aI4
aI6
aI41
aI9
aI4
aI10
aI9
aI2
aI1
aI1
aI1
aI3
aI2
aI17
aI17
aI1
aI4
aI1
aI2
aI1
aI38
aI7
aI3
aI10
aI1
aI45
aI7
aI1
aI4
aI1
aI3
aI29
aI26
aI6
aI3
aI1
aI24
aI3
aI7
aI1
aI6
aI6
aI1
aI2
aI3
aI21
aI1
aI6
aI1
aI32
aI30
aI1
aI1
aI1
aI5
aI1
aI25
aI28
aI7
aI4
aI1
aI3
aI20
aI7
aI3
aI45
aI2
aI3
aI23
aI41
aI15
aI21
aI2
aI2
aI12
aI1
aI14
aI9
aI19
aI44
aI6
aI1
aI1
aI1
aI8
aI1
aI2
aI3
aI1
aI1
aI27
aI21
aI11
aI23
aI7
aI39
aI12
aI1
aI2
aI6
aI38
aI1
aI3
aI18
aI1
aI17
aI7
aI3
aI1
aI10
aI13
aI6
aI1
aI31
aI5
aI7
aI26
aI32
aI18
aI4
aI20
aI1
aI4
aI1
aI3
aI1
aI21
aI2
aI16
aI1
aI32
aI2
aI2
aI3
aI2
aI7
aI12
aI1
aI14
aI4
aI1
aI1
aI10
aI1
aI3
aI1
aI7
aI1
aI32
aI1
aI1
aI3
aI20
aI1
aI3
aI5
aI10
aI7
aI12
aI1
aI1
aI51
aI3
aI19
aI1
aI3
aI2
aI25
aI4
aI9
aI5
aI1
aI4
aI8
aI3
aI1
aI26
aI1
aI1
aI16
aI12
aI5
aI1
aI1
aI11
aI5
aI12
aI5
aI2
aI37
aI1
aI1
aI8
aI6
aI1
aI1
aI4
aI36
aI26
aI1
aI5
aI1
aI42
aI9
aI11
aI1
aI17
aI44
aI12
aI3
aI59
aI47
aI1
aI1
aI5
aI1
aI7
aI23
aI19
aI1
aI16
aI24
aI11
aI1
aI7
aI15
aI1
aI40
aI1
aI18
aI4
aI54
aI1
aI4
aI58
aI7
aI5
aI1
aI1
aI1
aI26
aI1
aI3
aI13
aI8
aI4
aI1
aI19
aI1
aI6
aI2
aI3
aI12
aI27
aI8
aI56
aI1
aI13
aI1
aI24
aI53
aI1
aI18
aI18
aI2
aI4
aI24
aI1
aI1
aI6
aI8
aI12
aI14
aI11
aI3
aI1
aI2
aI7
aI17
aI13
aI43
aI4
aI3
aI5
aI1
aI3
aI50
aI2
aI26
aI39
aI11
aI34
aI5
aI30
aI13
aI3
aI22
aI39
aI12
aI35
aI9
aI41
aI7
aI16
aI18
aI1
aI1
aI10
aI2
aI1
aI29
aI31
aI3
aI1
aI21
aI1
aI10
aI18
aI18
aI8
aI4
aI2
aI13
aI30
aI1
aI1
aI30
aI9
aI23
aI19
aI3
aI45
aI8
aI22
aI1
aI1
aI3
aI1
aI20
aI3
aI2
aI19
aI53
aI1
aI1
aI2
aI2
aI8
aI15
aI22
aI28
aI1
aI16
aI1
aI19
aI1
aI1
aI1
aI1
aI3
aI1
aI42
aI3
aI7
aI15
aI14
aI9
aI39
aI16
aI9
aI14
aI2
aI7
aI15
aI4
aI32
aI42
aI1
aI3
aI2
aI1
aI1
aI17
aI28
aI1
aI1
aI1
aI21
aI15
aI9
aI1
aI1
aI12
aI25
aI5
aI14
aI1
aI1
aI1
aI4
aI1
aI1
aI49
aI4
aI2
aI1
aI31
aI36
aI23
aI1
aI10
aI4
aI1
aI2
aI7
aI7
aI1
aI15
aI1
aI4
aI1
aI43
aI2
aI45
aI17
aI52
aI1
aI9
aI1
aI1
aI8
aI1
aI15
aI1
aI4
aI49
aI33
aI2
aI1
aI6
aI12
aI2
aI23
aI1
aI1
aI15
aI1
aI12
aI7
aI1
aI11
aI1
aI1
aI1
aI29
aI1
aI1
aI1
aI1
aI1
aI6
aI1
aI5
aI18
aI13
aI11
aI5
aI54
aI1
aI3
aI2
aI45
aI1
aI2
aI6
aI6
aI22
aI7
aI9
aI6
aI2
aI30
aI7
aI1
aI7
aI34
aI1
aI15
aI2
aI6
aI1
aI24
aI5
aI1
aI5
aI4
aI3
aI10
aI6
aI13
aI4
aI2
aI1
aI11
aI12
aI6
aI46
aI27
aI4
aI1
aI1
aI1
aI9
aI2
aI12
aI10
aI1
aI16
aI3
aI5
aI1
aI1
aI2
aI31
aI9
aI1
aI4
aI1
aI3
aI26
aI36
aI13
aI1
aI10
aI1
aI11
aI4
aI1
aI6
aI31
aI4
aI27
aI17
aI1
aI5
aI2
aI1
aI21
aI1
aI1
aI3
aI2
aI3
aI2
aI3
aI24
aI1
aI20
aI6
aI1
aI47
aI1
aI5
aI5
aI1
aI6
aI1
aI10
aI46
aI3
aI1
aI9
aI19
aI1
aI3
aI27
aI1
aI1
aI5
aI12
aI1
aI1
aI1
aI4
aI3
aI12
aI26
aI1
aI5
aI1
aI1
aI3
aI28
aI1
aI2
aI1
aI1
aI1
aI2
aI1
aI10
aI20
aI51
aI2
aI2
aI1
aI1
aI1
aI10
aI2
aI15
aI2
aI4
aI13
aI1
aI24
aI1
aI3
aI9
aI1
aI3
aI19
aI4
aI1
aI40
aI20
aI1
aI1
aI1
aI4
aI12
aI2
aI5
aI1
aI26
aI7
aI18
aI10
aI1
aI43
aI6
aI1
aI6
aI5
aI33
aI5
aI2
aI8
aI4
aI1
aI6
aI24
aI9
aI10
aI1
aI6
aI2
aI1
aI1
aI32
aI21
aI18
aI1
aI4
aI14
aI17
aI2
aI23
aI8
aI5
aI1
aI5
aI1
aI1
aI40
aI1
aI23
aI2
aI29
aI36
aI15
aI1
aI1
aI12
aI1
aI1
aI3
aI2
aI8
aI40
aI28
aI1
aI12
aI3
aI1
aI11
aI47
aI2
aI1
aI6
aI6
aI12
aI19
aI1
aI31
aI22
aI24
aI5
aI3
aI9
aI15
aI7
aI11
aI24
aI3
aI1
aI1
aI7
aI13
aI3
aI11
aI2
aI1
aI23
aI3
aI1
aI22
aI5
aI13
aI10
aI1
aI1
aI30
aI1
aI1
aI19
aI32
aI28
aI1
aI1
aI3
aI3
aI6
aI9
aI4
aI2
aI32
aI4
aI3
aI1
aI1
aI1
aI32
aI2
aI8
aI1
aI1
aI7
aI20
aI26
aI1
aI1
aI23
aI6
aI14
aI34
aI8
aI2
aI8
aI1
aI35
aI12
aI1
aI3
aI2
aI9
aI4
aI1
aI1
aI13
aI5
aI31
aI28
aI7
aI1
aI1
aI2
aI29
aI12
aI1
aI1
aI33
aI8
aI52
aI1
aI3
aI7
aI2
aI32
aI1
aI3
aI27
aI7
aI25
aI40
aI1
aI3
aI1
aI6
aI1
aI21
aI14
aI2
aI7
aI16
aI20
aI1
aI17
aI23
aI1
aI1
aI18
aI16
aI10
aI16
aI1
aI1
aI29
aI3
aI19
aI6
aI2
aI30
aI39
aI17
aI1
aI47
aI1
aI1
aI29
aI2
aI3
aI29
aI17
aI12
aI4
aI28
aI1
aI18
aI22
aI24
aI40
aI32
aI40
aI1
aI8
aI27
aI36
aI2
aI3
aI17
aI16
aI1
aI3
aI10
aI1
aI1
aI2
aI4
aI3
aI2
aI13
aI40
aI15
aI23
aI22
aI24
aI6
aI1
aI46
aI15
aI31
aI11
aI1
aI4
aI23
aI36
aI25
aI1
aI14
aI10
aI3
aI2
aI2
aI3
aI2
aI2
aI1
aI1
aI3
aI7
aI4
aI24
aI19
aI1
aI1
aI4
aI1
aI3
aI1
aI8
aI5
aI66
aI2
aI3
aI1
aI30
aI8
aI1
aI2
aI1
aI42
aI13
aI1
aI1
aI1
aI12
aI6
aI1
aI1
aI1
aI4
aI1
aI17
aI3
aI2
aI3
aI5
aI6
aI10
aI1
aI20
aI1
aI1
aI1
aI1
aI27
aI1
aI1
aI16
aI1
aI1
aI12
aI4
aI1
aI1
aI13
aI17
aI1
aI9
aI1
aI18
aI1
aI23
aI1
aI1
aI2
aI1
aI6
aI1
aI34
aI1
aI2
aI1
aI1
aI1
aI1
aI1
aI23
aI58
aI1
aI3
aI4
aI3
aI38
aI23
aI1
aI14
aI21
aI34
aI3
aI1
aI11
aI3
aI2
aI1
aI2
aI17
aI41
aI19
aI1
aI1
aI4
aI6
aI22
aI3
aI11
aI1
aI15
aI1
aI4
aI23
aI18
aI56
aI14
aI1
aI6
aI31
aI49
aI17
aI15
aI4
aI10
aI3
aI23
aI3
aI2
aI23
aI1
aI34
aI3
aI3
aI4
aI6
aI1
aI11
aI9
aI1
aI1
aI1
aI1
aI8
aI8
aI1
aI6
aI4
aI10
aI15
aI3
aI2
aI3
aI7
aI19
aI48
aI3
aI3
aI3
aI46
aI1
aI1
aI1
aI1
aI2
aI1
aI2
aI41
aI23
aI1
aI4
aI8
aI7
aI2
aI20
aI8
aI1
aI16
aI11
aI1
aI2
aI2
aI5
aI1
aI2
aI1
aI8
aI2
aI1
aI15
aI31
aI2
aI15
aI23
aI4
aI2
aI38
aI7
aI20
aI2
aI4
aI25
aI22
aI4
aI3
aI1
aI9
aI25
aI2
aI1
aI20
aI26
aI15
aI2
aI27
aI3
aI5
aI53
aI2
aI13
aI1
aI2
aI1
aI32
aI1
aI25
aI2
aI53
aI6
aI1
aI14
aI4
aI46
aI5
aI25
aI8
aI5
aI52
aI1
aI40
aI4
aI3
aI31
aI2
aI24
aI3
aI11
aI2
aI6
aI1
aI39
aI9
aI15
aI1
aI15
aI39
aI22
aI2
aI14
aI30
aI37
aI9
aI56
aI6
aI20
aI2
aI1
aI4
aI16
aI5
aI14
aI1
aI3
aI2
aI6
aI2
aI13
aI1
aI32
aI1
aI1
aI1
aI19
aI1
aI4
aI9
aI6
aI36
aI3
aI4
aI10
aI9
aI24
aI44
aI2
aI15
aI1
aI3
aI13
aI8
aI1
aI1
aI1
aI7
aI1
aI2
aI1
aI2
asS'num_nodes'
p7
(lp8
I23
aI3
aI78
aI55
aI140
aI127
aI89
aI103
aI1
aI6
aI105
aI7
aI89
aI99
aI24
aI1
aI107
aI1
aI82
aI1
aI14
aI79
aI1
aI3
aI18
aI40
aI139
aI92
aI1
aI125
aI1
aI1
aI6
aI177
aI6
aI53
aI88
aI70
aI43
aI1
aI92
aI25
aI86
aI143
aI29
aI1
aI45
aI1
aI19
aI94
aI59
aI76
aI111
aI112
aI21
aI127
aI88
aI62
aI37
aI1
aI66
aI1
aI8
aI18
aI201
aI97
aI1
aI90
aI63
aI8
aI23
aI78
aI27
aI25
aI66
aI98
aI56
aI96
aI3
aI32
aI78
aI1
aI20
aI70
aI65
aI149
aI100
aI23
aI10
aI11
aI31
aI1
aI19
aI69
aI149
aI80
aI11
aI202
aI19
aI1
aI27
aI26
aI68
aI1
aI7
aI1
aI31
aI1
aI93
aI120
aI19
aI93
aI34
aI79
aI3
aI90
aI44
aI50
aI70
aI1
aI21
aI89
aI3
aI1
aI1
aI1
aI1
aI15
aI16
aI103
aI1
aI185
aI3
aI72
aI105
aI71
aI48
aI65
aI10
aI30
aI105
aI63
aI1
aI15
aI9
aI15
aI1
aI1
aI70
aI135
aI83
aI101
aI1
aI64
aI17
aI126
aI63
aI13
aI35
aI9
aI20
aI19
aI134
aI314
aI1
aI27
aI54
aI11
aI27
aI1
aI4
aI1
aI51
aI86
aI119
aI68
aI88
aI52
aI1
aI59
aI1
aI1
aI72
aI5
aI1
aI5
aI3
aI77
aI1
aI38
aI62
aI1
aI4
aI1
aI86
aI118
aI14
aI78
aI1
aI1
aI20
aI27
aI7
aI86
aI6
aI8
aI1
aI1
aI33
aI125
aI24
aI1
aI20
aI124
aI83
aI26
aI157
aI111
aI118
aI1
aI24
aI51
aI5
aI1
aI58
aI27
aI1
aI1
aI49
aI26
aI81
aI26
aI59
aI25
aI97
aI3
aI80
aI63
aI28
aI41
aI11
aI30
aI56
aI37
aI10
aI89
aI3
aI237
aI20
aI106
aI11
aI47
aI1
aI31
aI91
aI1
aI3
aI2
aI4
aI80
aI21
aI23
aI84
aI1
aI7
aI115
aI96
aI70
aI1
aI33
aI37
aI40
aI1
aI35
aI86
aI1
aI1
aI1
aI81
aI15
aI3
aI1
aI4
aI1
aI83
aI5
aI121
aI70
aI33
aI21
aI1
aI53
aI101
aI21
aI101
aI133
aI7
aI11
aI33
aI16
aI1
aI1
aI74
aI78
aI9
aI118
aI113
aI1
aI9
aI56
aI1
aI4
aI85
aI203
aI1
aI3
aI1
aI36
aI112
aI73
aI107
aI68
aI18
aI1
aI138
aI7
aI110
aI1
aI36
aI40
aI9
aI11
aI1
aI5
aI49
aI25
aI6
aI19
aI1
aI123
aI73
aI208
aI51
aI5
aI3
aI24
aI18
aI131
aI64
aI72
aI66
aI101
aI1
aI12
aI104
aI32
aI101
aI34
aI10
aI31
aI58
aI36
aI11
aI95
aI74
aI38
aI8
aI86
aI1
aI1
aI1
aI8
aI70
aI5
aI76
aI78
aI89
aI73
aI33
aI1
aI10
aI1
aI90
aI130
aI4
aI83
aI1
aI135
aI115
aI63
aI14
aI93
aI15
aI18
aI1
aI83
aI43
aI1
aI97
aI35
aI1
aI6
aI41
aI52
aI23
aI24
aI1
aI42
aI11
aI68
aI68
aI121
aI15
aI1
aI81
aI18
aI132
aI99
aI1
aI6
aI5
aI65
aI91
aI26
aI1
aI11
aI1
aI54
aI47
aI1
aI112
aI85
aI1
aI142
aI1
aI143
aI148
aI37
aI1
aI114
aI50
aI37
aI31
aI80
aI7
aI1
aI3
aI36
aI20
aI5
aI88
aI4
aI4
aI43
aI128
aI49
aI92
aI37
aI16
aI5
aI18
aI1
aI25
aI20
aI37
aI83
aI78
aI29
aI1
aI147
aI1
aI83
aI1
aI15
aI1
aI90
aI4
aI194
aI129
aI11
aI2
aI1
aI40
aI74
aI22
aI47
aI85
aI103
aI10
aI50
aI83
aI26
aI1
aI57
aI6
aI75
aI13
aI62
aI1
aI6
aI26
aI1
aI105
aI92
aI11
aI5
aI1
aI12
aI94
aI129
aI24
aI34
aI1
aI57
aI8
aI42
aI51
aI41
aI38
aI9
aI55
aI136
aI101
aI1
aI19
aI1
aI11
aI1
aI29
aI4
aI33
aI88
aI1
aI95
aI3
aI12
aI5
aI3
aI9
aI25
aI78
aI1
aI24
aI7
aI1
aI1
aI62
aI1
aI5
aI1
aI30
aI1
aI79
aI135
aI85
aI1
aI140
aI1
aI8
aI143
aI1
aI5
aI14
aI86
aI36
aI13
aI99
aI78
aI1
aI70
aI1
aI183
aI145
aI12
aI158
aI92
aI1
aI5
aI82
aI5
aI70
aI6
aI57
aI12
aI1
aI108
aI14
aI53
aI7
aI1
aI74
aI46
aI1
aI1
aI137
aI18
aI27
aI8
aI1
aI1
aI13
aI7
aI20
aI25
aI4
aI87
aI1
aI79
aI1
aI23
aI118
aI16
aI1
aI75
aI1
aI7
aI60
aI112
aI1
aI6
aI98
aI1
aI71
aI72
aI18
aI101
aI70
aI109
aI63
aI1
aI86
aI71
aI100
aI82
aI19
aI16
aI74
aI76
aI101
aI136
aI109
aI74
aI1
aI1
aI12
aI1
aI24
aI52
aI90
aI124
aI1
aI84
aI31
aI35
aI26
aI1
aI130
aI61
aI8
aI29
aI97
aI1
aI73
aI98
aI1
aI27
aI13
aI84
aI85
aI112
aI129
aI81
aI85
aI1
aI13
aI70
aI38
aI274
aI7
aI1
aI1
aI1
aI76
aI134
aI44
aI1
aI120
aI7
aI15
aI17
aI29
aI120
aI49
aI210
aI1
aI30
aI90
aI1
aI15
aI7
aI100
aI174
aI5
aI21
aI38
aI33
aI76
aI1
aI23
aI1
aI83
aI124
aI125
aI73
aI1
aI113
aI98
aI122
aI76
aI8
aI86
aI13
aI49
aI1
aI1
aI13
aI45
aI82
aI104
aI30
aI100
aI7
aI2
aI4
aI371
aI11
aI52
aI19
aI87
aI22
aI8
aI10
aI86
aI1
aI92
aI97
aI87
aI99
aI3
aI28
aI54
aI47
aI90
aI73
aI97
aI24
aI73
aI20
aI87
aI104
aI6
aI31
aI70
aI63
aI59
aI55
aI105
aI9
aI128
aI88
aI41
aI1
aI1
aI29
aI4
aI1
aI90
aI90
aI73
aI53
aI72
aI140
aI17
aI1
aI35
aI1
aI12
aI40
aI55
aI90
aI15
aI7
aI116
aI8
aI109
aI35
aI87
aI1
aI1
aI77
aI54
aI129
aI40
aI30
aI6
aI140
aI18
aI31
aI1
aI1
aI4
aI1
aI26
aI6
aI26
aI70
aI48
aI91
aI70
aI137
aI74
aI1
aI1
aI7
aI4
aI35
aI18
aI73
aI70
aI44
aI106
aI1
aI26
aI92
aI1
aI47
aI1
aI1
aI1
aI1
aI159
aI5
aI1
aI58
aI5
aI11
aI23
aI32
aI17
aI73
aI82
aI102
aI23
aI41
aI53
aI152
aI27
aI2
aI13
aI60
aI6
aI81
aI50
aI68
aI79
aI144
aI74
aI93
aI1
aI39
aI271
aI1
aI1
aI34
aI116
aI93
aI149
aI1
aI213
aI1
aI1
aI117
aI112
aI39
aI1
aI5
aI108
aI28
aI45
aI8
aI64
aI1
aI1
aI1
aI30
aI116
aI1
aI1
aI69
aI127
aI22
aI4
aI1
aI42
aI91
aI145
aI70
aI1
aI38
aI5
aI97
aI1
aI3
aI14
aI45
aI1
aI18
aI1
aI18
aI1
aI94
aI4
aI79
aI28
aI75
aI97
aI159
aI1
aI50
aI83
aI1
aI1
aI15
aI1
aI33
aI1
aI128
aI9
aI75
aI75
aI58
aI73
aI4
aI1
aI11
aI54
aI110
aI96
aI57
aI2
aI58
aI1
aI1
aI30
aI1
aI27
aI15
aI1
aI15
aI1
aI110
aI1
aI3
aI77
aI78
aI4
aI151
aI1
aI1
aI1
aI126
aI1
aI14
aI98
aI1
aI17
aI38
aI91
aI69
aI61
aI96
aI21
aI222
aI76
aI13
aI77
aI91
aI1
aI11
aI77
aI4
aI76
aI88
aI1
aI5
aI10
aI80
aI82
aI123
aI17
aI79
aI14
aI9
aI2
aI83
aI67
aI23
aI1
aI95
aI23
aI64
aI58
aI1
aI21
aI4
aI98
aI7
aI1
aI71
aI53
aI22
aI95
aI87
aI74
aI1
aI13
aI29
aI81
aI13
aI92
aI73
aI102
aI24
aI24
aI25
aI4
aI1
aI79
aI74
aI254
aI14
aI61
aI175
aI4
aI163
aI1
aI1
aI1
aI51
aI3
aI125
aI17
aI28
aI114
aI1
aI20
aI6
aI12
aI1
aI1
aI3
aI57
aI12
aI1
aI128
aI12
aI80
aI2
aI6
aI52
aI128
aI108
aI49
aI1
aI12
aI1
aI79
aI71
aI8
aI1
aI70
aI14
aI83
aI45
aI9
aI129
aI79
aI96
aI34
aI113
aI173
aI135
aI1
aI15
aI149
aI5
aI83
aI1
aI94
aI104
aI1
aI1
aI6
aI5
aI6
aI5
aI84
aI8
aI32
aI1
aI42
aI9
aI1
aI67
aI1
aI19
aI12
aI1
aI94
aI101
aI27
aI105
aI1
aI11
aI98
aI84
aI9
aI1
aI123
aI16
aI99
aI1
aI102
aI19
aI98
aI83
aI71
aI1
aI1
aI9
aI90
aI1
aI86
aI1
aI1
aI97
aI29
aI10
aI35
aI128
aI74
aI1
aI11
aI1
aI146
aI91
aI1
aI81
aI74
aI11
aI72
aI1
aI46
aI5
aI101
aI1
aI1
aI42
aI1
aI18
aI130
aI188
aI1
aI63
aI25
aI89
aI6
aI127
aI3
aI1
aI1
aI1
aI25
aI28
aI88
aI189
aI19
aI3
aI32
aI32
aI1
aI54
aI1
aI3
aI39
aI1
aI7
aI129
aI16
aI1
aI70
aI126
aI76
aI86
aI26
aI1
aI1
aI80
aI142
aI93
aI1
aI14
aI23
aI90
aI10
aI103
aI25
aI69
aI1
aI56
aI37
aI88
aI22
aI150
aI30
aI77
aI27
aI1
aI74
aI11
aI1
aI30
aI9
aI98
aI107
aI27
aI6
aI32
aI7
aI1
aI16
aI59
aI12
aI24
aI1
aI11
aI5
aI103
aI1
aI1
aI104
aI128
aI94
aI86
aI53
aI138
aI1
aI18
aI26
aI38
aI5
aI83
aI35
aI112
aI27
aI7
aI1
aI6
aI1
aI96
aI1
aI76
aI52
aI83
aI1
aI75
aI56
aI2
aI72
aI76
aI44
aI63
aI1
aI122
aI99
aI63
aI1
aI33
aI1
aI89
aI1
aI7
aI3
aI13
aI54
aI79
aI44
aI136
aI1
aI42
aI6
aI1
aI73
aI112
aI33
aI94
aI113
aI76
aI23
aI157
aI66
aI1
aI12
aI18
aI43
aI42
aI124
aI126
aI1
aI37
aI39
aI79
aI169
aI22
aI4
aI16
aI31
aI87
aI84
aI21
aI55
aI5
aI70
aI1
aI1
aI122
aI106
aI13
aI89
aI164
aI37
aI82
aI9
aI19
aI7
aI1
aI49
aI12
aI1
aI104
aI92
aI20
aI60
aI41
aI1
aI1
aI47
aI97
aI1
aI1
aI49
aI44
aI35
aI1
aI161
aI1
aI32
aI10
aI8
aI25
aI17
aI130
aI7
aI49
aI158
aI17
aI8
aI91
aI1
aI59
aI1
aI1
aI78
aI13
aI76
aI104
aI95
aI1
aI1
aI27
aI49
aI120
aI1
aI1
aI45
aI133
aI26
aI17
aI100
aI22
aI82
aI74
aI9
aI26
aI1
aI80
aI63
aI57
aI1
aI34
aI3
aI16
aI106
aI1
aI1
aI158
aI32
aI86
aI74
aI15
aI58
aI46
aI248
aI84
aI124
aI13
aI1
aI1
aI2
aI45
aI71
aI18
aI1
aI74
aI1
aI118
aI45
aI118
aI10
aI71
aI1
aI30
aI20
aI70
aI2
aI106
aI83
aI1
aI72
aI9
aI35
aI8
aI36
aI115
aI52
aI4
aI41
aI1
aI32
aI1
aI27
aI54
aI3
aI8
aI37
aI31
aI89
aI1
aI19
aI36
aI97
aI92
aI1
aI1
aI122
aI59
aI107
aI62
aI21
aI1
aI1
aI75
aI7
aI147
aI29
aI18
aI115
aI65
aI8
aI155
aI84
aI29
aI155
aI1
aI68
aI1
aI70
aI141
aI110
aI1
aI134
aI44
aI19
aI12
aI63
aI77
aI14
aI171
aI10
aI78
aI157
aI74
aI1
aI34
aI31
aI47
aI57
aI60
aI120
aI74
aI1
aI79
aI26
aI51
aI108
aI49
aI50
aI4
aI11
aI51
aI40
aI1
aI9
aI71
aI66
aI28
aI1
aI1
aI3
aI7
aI3
aI3
aI82
aI72
aI102
aI95
aI103
aI20
aI63
aI94
aI31
aI76
aI17
aI1
aI79
aI27
aI59
aI78
aI61
aI1
aI16
aI94
aI38
aI60
aI179
aI1
aI45
aI42
aI113
aI7
aI3
aI3
aI3
aI3
aI11
aI65
aI1
aI1
aI8
aI183
aI100
aI87
aI10
aI31
aI32
aI1
aI73
aI1
aI8
aI1
aI12
aI1
aI10
aI20
aI129
aI4
aI6
aI75
aI1
aI77
aI9
aI1
aI5
aI1
aI63
aI36
aI1
aI137
aI1
aI138
aI1
aI80
aI19
aI13
aI1
aI1
aI1
aI11
aI1
aI47
aI5
aI3
aI24
aI76
aI13
aI117
aI7
aI42
aI1
aI103
aI36
aI1
aI87
aI1
aI1
aI1
aI60
aI1
aI1
aI64
aI1
aI104
aI1
aI69
aI7
aI1
aI72
aI1
aI83
aI34
aI68
aI55
aI73
aI26
aI1
aI49
aI106
aI91
aI168
aI75
aI70
aI1
aI65
aI1
aI80
aI80
aI192
aI1
aI1
aI11
aI1
aI10
aI1
aI56
aI1
aI4
aI1
aI1
aI81
aI1
aI91
aI1
aI1
aI32
aI121
aI1
aI14
aI4
aI87
aI85
aI10
aI72
aI58
aI1
aI43
aI45
aI95
aI72
aI120
aI1
aI62
aI7
aI67
aI10
aI1
aI95
aI7
aI47
aI71
aI79
aI54
aI96
aI1
aI1
aI19
aI18
aI88
aI38
aI127
aI9
aI108
aI179
aI106
aI17
aI74
aI94
aI121
aI78
aI1
aI36
aI1
aI45
aI33
aI147
aI68
aI47
aI1
aI18
aI97
aI42
aI100
aI69
aI37
aI57
aI10
aI27
aI8
aI69
aI44
aI7
aI3
aI33
aI1
aI76
aI60
aI8
aI75
aI74
aI9
aI10
aI14
aI1
aI86
aI60
aI44
aI1
aI1
aI1
aI1
aI12
aI16
aI1
aI15
aI6
aI57
aI27
aI90
aI6
aI9
aI72
aI15
aI38
aI36
aI68
aI92
aI20
aI6
aI7
aI88
aI1
aI1
aI2
aI1
aI72
aI3
aI93
aI80
aI1
aI3
aI52
aI111
aI1
aI11
aI25
aI15
aI2
aI37
aI87
aI13
aI1
aI26
aI33
aI1
aI3
aI3
aI18
aI92
aI1
aI4
aI84
aI76
aI67
aI1
aI49
aI126
aI4
aI76
aI7
aI20
aI51
aI12
aI41
aI97
aI10
aI4
aI131
aI54
aI11
aI35
aI3
aI102
aI19
aI43
aI28
aI19
aI4
aI99
aI131
aI1
aI70
aI13
aI54
aI21
aI1
aI42
aI55
aI35
aI3
aI72
aI42
aI4
aI16
aI101
aI88
aI80
aI183
aI6
aI73
aI113
aI1
aI7
aI1
aI63
aI1
aI38
aI5
aI116
aI140
aI1
aI20
aI7
aI116
aI15
aI48
aI127
aI83
aI130
aI18
aI13
aI61
aI1
aI54
aI15
aI97
aI5
aI77
aI57
aI112
aI3
aI40
aI72
aI5
aI58
aI17
aI3
aI21
aI1
aI141
aI140
aI82
aI90
aI95
aI20
aI123
aI24
aI1
aI146
aI20
aI80
aI54
aI32
aI4
aI74
aI47
aI62
aI126
aI33
aI54
aI88
aI67
aI41
aI45
aI4
aI1
aI5
aI46
aI373
aI32
aI18
aI1
aI9
aI5
aI9
aI5
aI27
aI173
aI1
aI100
aI1
aI12
aI1
aI97
aI48
aI80
aI1
aI6
aI11
aI12
aI67
aI14
aI81
aI10
aI55
aI17
aI42
aI101
aI73
aI4
aI26
aI1
aI7
aI204
aI28
aI130
aI75
aI61
aI86
aI1
aI135
aI1
aI1
aI15
aI75
aI1
aI26
aI1
aI11
asS'times'
p9
(lp10
F70.95014095306396
aF19.317831993103027
aF271.7483551502228
aF207.016667842865
aF302.13299798965454
aF303.7006878852844
aF300.96395993232727
aF303.3569231033325
aF15.731077909469604
aF33.390202045440674
aF302.848974943161
aF21.742470026016235
aF301.3499610424042
aF303.15191411972046
aF53.07519197463989
aF12.372447967529297
aF302.99975395202637
aF15.76918888092041
aF301.62199211120605
aF12.09511399269104
aF52.53666710853577
aF301.88135504722595
aF15.086169004440308
aF20.938436031341553
aF68.77078294754028
aF106.63138484954834
aF300.14027285575867
aF303.47261810302734
aF12.288789987564087
aF300.68102622032166
aF15.540047883987427
aF14.90408205986023
aF25.459306955337524
aF303.17015385627747
aF44.11532115936279
aF178.66316103935242
aF301.8286199569702
aF301.95304799079895
aF105.07951593399048
aF15.586704015731812
aF289.001718044281
aF53.911731004714966
aF304.3869071006775
aF300.56563210487366
aF76.85571098327637
aF15.926796913146973
aF134.29563689231873
aF18.7030930519104
aF39.3022141456604
aF300.6676769256592
aF265.8514862060547
aF300.8440818786621
aF300.2891480922699
aF301.2081289291382
aF73.40766191482544
aF303.1349399089813
aF302.0810959339142
aF119.4319999217987
aF86.98527097702026
aF12.900999784469604
aF248.52008986473083
aF12.398151159286499
aF27.44725203514099
aF55.96259593963623
aF301.9131269454956
aF229.33209896087646
aF12.676872968673706
aF300.9039750099182
aF174.84565210342407
aF21.844527006149292
aF59.336764097213745
aF313.1820080280304
aF78.81452798843384
aF54.091246128082275
aF204.85924291610718
aF286.6788628101349
aF150.32608795166016
aF274.28718519210815
aF22.473278045654297
aF64.66215085983276
aF301.9094099998474
aF18.135154962539673
aF47.793551206588745
aF221.6294069290161
aF123.38216090202332
aF302.7258961200714
aF302.2033669948578
aF105.1239972114563
aF44.073357820510864
aF54.069056034088135
aF68.1525571346283
aF12.760037899017334
aF83.27007007598877
aF301.2713739871979
aF303.9915850162506
aF257.5709080696106
aF49.48920679092407
aF169.97559714317322
aF55.724812030792236
aF15.886786937713623
aF118.73553419113159
aF120.704430103302
aF238.04592204093933
aF15.066383838653564
aF30.136239051818848
aF12.051090002059937
aF120.70491290092468
aF14.740360021591187
aF300.69638991355896
aF180.89169478416443
aF50.81691312789917
aF296.6961419582367
aF72.69389605522156
aF187.90863704681396
aF20.279138803482056
aF301.65857005119324
aF102.20604801177979
aF214.1892330646515
aF198.49989080429077
aF13.691234111785889
aF60.40753889083862
aF176.1803960800171
aF21.7565598487854
aF13.151477813720703
aF15.76938009262085
aF13.194350957870483
aF15.45158314704895
aF65.98631691932678
aF65.23304009437561
aF303.2348461151123
aF14.258932113647461
aF302.6054050922394
aF16.450881958007812
aF302.0622408390045
aF300.0838141441345
aF302.8247640132904
aF167.19345903396606
aF122.508474111557
aF60.21072316169739
aF126.2930588722229
aF302.77364110946655
aF301.3751380443573
aF15.50412917137146
aF42.451627016067505
aF40.81102514266968
aF33.24580001831055
aF14.712359189987183
aF17.000797986984253
aF302.0745129585266
aF302.6378400325775
aF302.6713659763336
aF302.6827600002289
aF13.395117044448853
aF238.3111481666565
aF68.93569111824036
aF303.6311070919037
aF168.02809500694275
aF39.857848167419434
aF51.00130295753479
aF30.19291400909424
aF82.66780376434326
aF50.690613985061646
aF300.8661949634552
aF302.41550302505493
aF15.585501909255981
aF85.09384989738464
aF85.07776689529419
aF35.51842379570007
aF69.6900680065155
aF13.318032026290894
aF25.418344020843506
aF14.381232023239136
aF146.72850799560547
aF189.17622303962708
aF177.81753301620483
aF303.4629158973694
aF255.0561969280243
aF161.504154920578
aF14.960076093673706
aF170.63940715789795
aF12.818336963653564
aF13.825697183609009
aF233.64355182647705
aF27.86808705329895
aF30.758383989334106
aF43.65242600440979
aF19.09407901763916
aF303.834037065506
aF11.25172209739685
aF124.30995202064514
aF171.62717199325562
aF15.539359092712402
aF24.95994210243225
aF17.43870711326599
aF295.1547658443451
aF301.90897607803345
aF43.14612698554993
aF132.64998817443848
aF13.528855085372925
aF15.17823314666748
aF71.00142478942871
aF113.72453379631042
aF28.479115962982178
aF302.9124219417572
aF23.807608127593994
aF32.1257050037384
aF14.778305053710938
aF13.046897888183594
aF79.22841715812683
aF272.68798303604126
aF89.86797595024109
aF17.168781995773315
aF57.879724979400635
aF122.15370488166809
aF301.08767795562744
aF75.1787941455841
aF278.57200598716736
aF304.2899181842804
aF301.8740029335022
aF11.656085968017578
aF77.7702100276947
aF149.7135410308838
aF27.433297872543335
aF13.186750888824463
aF201.97006702423096
aF103.20632696151733
aF11.947991132736206
aF12.17622685432434
aF184.23768401145935
aF119.26176619529724
aF302.1972870826721
aF95.33955502510071
aF155.9470717906952
aF81.7997350692749
aF303.2351031303406
aF20.659082889556885
aF300.8733048439026
aF115.67036080360413
aF42.33502411842346
aF89.13513898849487
aF60.83199405670166
aF118.06114912033081
aF129.3379111289978
aF135.79858708381653
aF37.08687114715576
aF228.19973707199097
aF20.729038953781128
aF213.81675601005554
aF61.74679207801819
aF301.6003770828247
aF34.421040058135986
aF304.7781460285187
aF14.930572986602783
aF86.34508109092712
aF303.88111901283264
aF23.818670988082886
aF19.936388969421387
aF19.238460063934326
aF24.737353086471558
aF302.37272214889526
aF83.8056709766388
aF51.69701099395752
aF198.9561550617218
aF15.723777055740356
aF35.47680592536926
aF301.2856888771057
aF300.9541389942169
aF301.87410020828247
aF15.222670078277588
aF78.60160398483276
aF75.59039497375488
aF149.6619029045105
aF14.775400161743164
aF141.87429213523865
aF312.47455310821533
aF13.408241033554077
aF30.714855909347534
aF11.981314897537231
aF303.3916177749634
aF51.75881791114807
aF20.83997106552124
aF17.8658390045166
aF24.15495491027832
aF12.659581899642944
aF300.18995213508606
aF27.89479684829712
aF195.01695609092712
aF303.2025029659271
aF108.1061999797821
aF44.72357511520386
aF15.438019037246704
aF81.3164689540863
aF302.12698197364807
aF49.08599090576172
aF302.05369091033936
aF302.29495906829834
aF20.165220975875854
aF29.905620098114014
aF107.6166000366211
aF45.053539991378784
aF12.671367168426514
aF14.80853796005249
aF237.34825992584229
aF307.2997841835022
aF36.69865584373474
aF301.5036840438843
aF301.03345704078674
aF15.859364986419678
aF27.054749011993408
aF174.6124291419983
aF14.723726034164429
aF23.071959972381592
aF302.8686580657959
aF300.31480503082275
aF13.852323055267334
aF19.989655017852783
aF16.262281894683838
aF131.98199009895325
aF249.74695086479187
aF300.6100881099701
aF303.9908859729767
aF301.272203207016
aF60.941933155059814
aF13.087461948394775
aF301.5939028263092
aF41.159029960632324
aF302.45119309425354
aF13.249456882476807
aF168.16343307495117
aF176.25376105308533
aF42.153639793395996
aF45.110915184020996
aF14.452045917510986
aF21.206548929214478
aF184.3808159828186
aF71.48804593086243
aF36.86526417732239
aF57.19486904144287
aF13.426305055618286
aF303.71410608291626
aF308.615051984787
aF173.06205892562866
aF185.61611199378967
aF27.130335807800293
aF24.922019958496094
aF168.4495189189911
aF36.299822092056274
aF303.50000405311584
aF146.1889681816101
aF300.12027406692505
aF213.5818018913269
aF221.4565029144287
aF13.63441801071167
aF56.122374057769775
aF211.25768995285034
aF101.36664986610413
aF300.17384219169617
aF131.553062915802
aF43.70795011520386
aF126.92974519729614
aF239.58815693855286
aF71.01014399528503
aF41.85170292854309
aF301.17709612846375
aF142.86303091049194
aF87.10261106491089
aF22.15537405014038
aF300.091185092926
aF16.468499183654785
aF12.328271865844727
aF17.59923815727234
aF30.221299171447754
aF300.4693651199341
aF26.357280015945435
aF301.4586160182953
aF177.7484860420227
aF301.3149080276489
aF300.3808090686798
aF201.55142307281494
aF15.154563903808594
aF30.24003005027771
aF12.071195125579834
aF301.3553218841553
aF302.83710503578186
aF29.33370590209961
aF303.39334893226624
aF16.25617504119873
aF301.5302278995514
aF302.57163405418396
aF207.4908230304718
aF54.821763038635254
aF303.7841320037842
aF55.89779090881348
aF61.84230899810791
aF13.763323068618774
aF258.4331388473511
aF84.0635678768158
aF15.538717031478882
aF301.29868602752686
aF83.88205409049988
aF12.44671106338501
aF24.497209072113037
aF172.43545603752136
aF150.5915949344635
aF54.015750885009766
aF52.02555990219116
aF12.186301946640015
aF131.8625910282135
aF30.125662088394165
aF303.77538895606995
aF303.4331078529358
aF302.0252389907837
aF48.51106405258179
aF16.57674503326416
aF125.63252305984497
aF51.75826597213745
aF303.0226800441742
aF302.8611068725586
aF16.512612104415894
aF30.675347805023193
aF25.446003913879395
aF305.04279494285583
aF303.3143079280853
aF109.169997215271
aF13.098829984664917
aF38.71472787857056
aF13.8472421169281
aF194.49170017242432
aF138.80918312072754
aF15.704641103744507
aF304.78753685951233
aF301.758339881897
aF15.30566692352295
aF303.29418683052063
aF12.565232992172241
aF302.96280884742737
aF302.0720760822296
aF57.39456295967102
aF12.163112878799438
aF305.21365690231323
aF135.16999316215515
aF154.16650891304016
aF77.50463891029358
aF303.68496108055115
aF35.21549892425537
aF13.962749004364014
aF24.536499977111816
aF106.85921788215637
aF68.937833070755
aF29.01465392112732
aF249.90277481079102
aF22.03348708152771
aF27.66273283958435
aF126.24310398101807
aF279.322998046875
aF119.22297096252441
aF302.6314480304718
aF142.4534730911255
aF30.184696912765503
aF18.95660400390625
aF78.42383003234863
aF14.581476926803589
aF95.27587103843689
aF64.45033693313599
aF132.18531584739685
aF246.48946499824524
aF304.1601309776306
aF59.86660695075989
aF11.778690814971924
aF302.7445058822632
aF13.357164859771729
aF302.1627719402313
aF13.143473863601685
aF63.419230222702026
aF14.815400838851929
aF302.48402190208435
aF22.42978000640869
aF302.578409910202
aF301.9911139011383
aF53.147489070892334
aF16.590317010879517
aF12.416810989379883
aF153.1313579082489
aF135.691565990448
aF88.18582201004028
aF160.0295741558075
aF302.43014907836914
aF304.2141489982605
aF50.46703314781189
aF211.61409497261047
aF300.117369890213
aF81.49632501602173
aF15.25158405303955
aF301.2390139102936
aF33.648046016693115
aF302.116583108902
aF47.02676200866699
aF235.8795828819275
aF14.583698987960815
aF27.83349108695984
aF104.63595509529114
aF14.553337097167969
aF158.40174293518066
aF304.14518690109253
aF42.28060793876648
aF22.660714149475098
aF14.22225308418274
aF56.866929054260254
aF302.29314613342285
aF300.55446600914
aF86.52395606040955
aF89.04214191436768
aF12.520632028579712
aF168.3986918926239
aF35.10916090011597
aF103.43173098564148
aF151.3414990901947
aF176.41104698181152
aF102.45614910125732
aF33.73780584335327
aF301.6855571269989
aF303.9721260070801
aF285.7492241859436
aF30.69147515296936
aF39.984248876571655
aF16.432738065719604
aF26.09219002723694
aF12.545308828353882
aF122.4876217842102
aF18.016881942749023
aF123.30102682113647
aF300.30764603614807
aF13.250654935836792
aF225.2668559551239
aF20.298091888427734
aF33.81740212440491
aF30.17800498008728
aF23.739773988723755
aF36.70411682128906
aF78.19548797607422
aF302.8617901802063
aF15.812201976776123
aF77.11043095588684
aF26.20462989807129
aF14.765334129333496
aF33.254220962524414
aF143.3817789554596
aF13.93948483467102
aF21.672214031219482
aF11.452340126037598
aF59.29635691642761
aF30.935671091079712
aF235.29965615272522
aF302.85166001319885
aF304.0346190929413
aF15.539083003997803
aF300.6157579421997
aF12.449603080749512
aF26.88440203666687
aF241.72047996520996
aF15.769996166229248
aF22.20334792137146
aF62.33269000053406
aF302.04497599601746
aF127.7261688709259
aF40.14765286445618
aF302.1741199493408
aF142.77023100852966
aF14.458483934402466
aF302.8020079135895
aF13.31794285774231
aF300.0813548564911
aF291.3231611251831
aF27.272804021835327
aF246.65110993385315
aF302.41453289985657
aF14.157166004180908
aF24.314692974090576
aF301.67730617523193
aF29.250914096832275
aF171.36736011505127
aF28.4874849319458
aF119.58201289176941
aF33.411070108413696
aF12.656923770904541
aF300.37457394599915
aF52.08542490005493
aF133.88387298583984
aF26.923006057739258
aF13.196501970291138
aF301.02065801620483
aF155.11719799041748
aF15.97190809249878
aF14.881203889846802
aF302.1740860939026
aF87.3226900100708
aF77.56400108337402
aF43.763251066207886
aF12.020015001296997
aF14.921836137771606
aF62.5789361000061
aF36.505419969558716
aF85.061931848526
aF66.87011003494263
aF25.820855140686035
aF242.91751313209534
aF15.616834878921509
aF301.02071714401245
aF14.599859952926636
aF96.50057792663574
aF301.4137439727783
aF44.45400905609131
aF14.715348958969116
aF303.1681389808655
aF14.137115001678467
aF26.51116704940796
aF194.4687900543213
aF205.01436114311218
aF11.955770015716553
aF38.66054606437683
aF300.50499200820923
aF14.306231021881104
aF238.59611797332764
aF303.22635984420776
aF65.53778791427612
aF302.3595428466797
aF135.69357991218567
aF300.41032695770264
aF300.8990988731384
aF14.715326070785522
aF166.6691460609436
aF301.58010601997375
aF302.4218189716339
aF256.8245840072632
aF73.2235701084137
aF42.21830701828003
aF282.1731421947479
aF300.4549050331116
aF300.0231029987335
aF290.46206307411194
aF300.13598108291626
aF302.1445767879486
aF17.55634307861328
aF14.600519895553589
aF47.917969942092896
aF15.025377035140991
aF63.80292797088623
aF185.61162304878235
aF300.73493099212646
aF191.95584893226624
aF12.919458150863647
aF301.59999203681946
aF94.3684241771698
aF141.39400506019592
aF86.91926908493042
aF15.537518978118896
aF301.5219419002533
aF301.29750394821167
aF42.26027202606201
aF100.04397392272949
aF303.03780794143677
aF14.081079006195068
aF301.08597683906555
aF270.32301783561707
aF13.251008033752441
aF141.4053189754486
aF35.73329281806946
aF303.34036898612976
aF303.09272599220276
aF300.07699608802795
aF274.73376202583313
aF303.8296089172363
aF304.36338901519775
aF33.058571100234985
aF41.63422203063965
aF294.66489720344543
aF62.565962076187134
aF300.48922300338745
aF35.38166093826294
aF16.849318981170654
aF14.550726175308228
aF14.424798965454102
aF301.43116092681885
aF300.3089830875397
aF133.92686891555786
aF13.796772003173828
aF301.02370715141296
aF34.64448690414429
aF78.15821099281311
aF57.249109983444214
aF58.931565046310425
aF303.724613904953
aF308.12844491004944
aF301.1623990535736
aF12.518612146377563
aF106.87213015556335
aF303.41855692863464
aF16.98214101791382
aF51.52337908744812
aF18.991452932357788
aF301.4288430213928
aF301.03888392448425
aF25.919958114624023
aF81.69230103492737
aF158.24680495262146
aF57.68703293800354
aF297.53226590156555
aF13.898255109786987
aF90.92033314704895
aF14.630303144454956
aF304.38437485694885
aF210.87825393676758
aF290.3256850242615
aF304.30703997612
aF11.73215913772583
aF303.52895498275757
aF164.30907797813416
aF241.050922870636
aF300.20915818214417
aF24.67896795272827
aF302.32777881622314
aF38.768462896347046
aF155.7242250442505
aF15.54895305633545
aF12.406471967697144
aF43.38127088546753
aF105.47462296485901
aF161.07349395751953
aF247.62809681892395
aF98.06999802589417
aF303.71678709983826
aF27.88575005531311
aF19.436690092086792
aF23.53518319129944
aF318.77380895614624
aF50.550256967544556
aF120.1908049583435
aF79.72622013092041
aF210.31675004959106
aF45.87459993362427
aF23.552141904830933
aF34.869492053985596
aF302.9277648925781
aF13.242079019546509
aF300.38055086135864
aF203.75734519958496
aF301.07205295562744
aF291.63566398620605
aF16.629244089126587
aF128.42100882530212
aF213.38286900520325
aF101.84608292579651
aF300.08480405807495
aF303.6419188976288
aF235.9648540019989
aF78.4679811000824
aF202.0333240032196
aF89.40769386291504
aF303.80225110054016
aF300.4761588573456
aF26.423583030700684
aF125.62742209434509
aF214.2896590232849
aF146.09454894065857
aF208.27729105949402
aF101.90424013137817
aF231.5247688293457
aF52.566076040267944
aF300.917848110199
aF162.46998500823975
aF122.82372307777405
aF13.912396907806396
aF13.88240385055542
aF59.56424283981323
aF18.725876808166504
aF16.2764630317688
aF303.73108196258545
aF300.2762179374695
aF300.59082412719727
aF168.61851382255554
aF303.76711416244507
aF267.337229013443
aF40.76728892326355
aF12.687658071517944
aF134.9331021308899
aF14.766341924667358
aF59.794553995132446
aF95.51447486877441
aF135.10805201530457
aF303.3275101184845
aF62.57437992095947
aF26.7972571849823
aF302.66898703575134
aF26.432130098342896
aF300.91217589378357
aF75.25823593139648
aF236.70770716667175
aF13.87474513053894
aF17.868367910385132
aF174.83744192123413
aF118.5196590423584
aF300.4363350868225
aF151.062726020813
aF118.69688701629639
aF23.75191903114319
aF299.3264009952545
aF50.84956192970276
aF132.7359972000122
aF13.509366989135742
aF16.39435315132141
aF31.326864004135132
aF16.051658153533936
aF113.85840702056885
aF19.49752402305603
aF63.76899600028992
aF301.49830198287964
aF148.31078910827637
aF301.08396792411804
aF300.83305191993713
aF300.3396520614624
aF286.3064911365509
aF13.257416009902954
aF13.943382024765015
aF29.76457381248474
aF18.609110116958618
aF70.90605688095093
aF85.41094398498535
aF301.23195600509644
aF169.36720895767212
aF153.52815103530884
aF300.24544286727905
aF15.623915910720825
aF96.03969120979309
aF300.2828550338745
aF19.435348987579346
aF125.7613251209259
aF12.637681007385254
aF15.225615978240967
aF13.372561931610107
aF19.773618936538696
aF300.4561641216278
aF23.631675004959106
aF12.14497995376587
aF204.67042803764343
aF25.8513081073761
aF47.03277111053467
aF93.53086400032043
aF90.30613303184509
aF68.52339506149292
aF230.7692608833313
aF301.31922602653503
aF300.818421125412
aF97.26381993293762
aF83.60375595092773
aF302.515114068985
aF300.55889892578125
aF112.71906208992004
aF20.975625038146973
aF39.64596915245056
aF135.31260299682617
aF29.950440883636475
aF305.26134991645813
aF173.9690260887146
aF301.13309693336487
aF216.0357370376587
aF300.65960693359375
aF304.0209608078003
aF300.57010793685913
aF15.196244955062866
aF59.33673810958862
aF224.69613218307495
aF15.197021007537842
aF15.059448957443237
aF115.53717803955078
aF303.05566000938416
aF198.44093990325928
aF302.54359316825867
aF13.501491069793701
aF300.7161409854889
aF13.318917036056519
aF12.03807020187378
aF280.50780391693115
aF192.98208808898926
aF75.30226707458496
aF14.814295053482056
aF20.923040866851807
aF304.3012230396271
aF94.31242799758911
aF147.09594082832336
aF36.086642026901245
aF133.35491013526917
aF13.517899990081787
aF12.002448081970215
aF14.0430269241333
aF83.04160404205322
aF300.05296182632446
aF14.291966199874878
aF12.838613033294678
aF301.369943857193
aF273.2360589504242
aF53.85707497596741
aF19.244688034057617
aF11.429105043411255
aF176.76776599884033
aF245.57711100578308
aF301.07826590538025
aF140.1172239780426
aF16.87128496170044
aF89.22288393974304
aF27.770377159118652
aF300.6960668563843
aF14.108712911605835
aF19.379791021347046
aF60.39026999473572
aF118.31779909133911
aF31.082249879837036
aF80.03921604156494
aF12.567808866500854
aF98.22381401062012
aF12.490386009216309
aF219.43414402008057
aF25.979606866836548
aF270.08736419677734
aF110.17747497558594
aF280.845764875412
aF305.2179470062256
aF301.78923296928406
aF14.491390943527222
aF83.48248600959778
aF301.34845495224
aF12.053676128387451
aF14.44495701789856
aF45.90625500679016
aF17.22743797302246
aF86.59526586532593
aF15.139755964279175
aF301.116996049881
aF29.51985502243042
aF303.3514199256897
aF303.70469903945923
aF261.31637597084045
aF214.25740814208984
aF17.631185054779053
aF16.04765295982361
aF66.57752990722656
aF101.41309189796448
aF300.07795000076294
aF306.12382197380066
aF300.6604700088501
aF18.45562982559204
aF153.78946113586426
aF16.248564958572388
aF14.3522629737854
aF88.58754587173462
aF12.14799189567566
aF92.95188307762146
aF48.21267104148865
aF15.165822982788086
aF65.73423314094543
aF12.347805976867676
aF300.1466429233551
aF13.412147998809814
aF38.20568895339966
aF300.76963782310486
aF164.9120810031891
aF22.39281988143921
aF300.13733315467834
aF15.464452028274536
aF13.863273859024048
aF13.579828023910522
aF301.771448135376
aF13.47100305557251
aF42.02559185028076
aF300.40684700012207
aF14.974165916442871
aF55.4313850402832
aF96.5777838230133
aF302.83127999305725
aF302.68655490875244
aF114.4475929737091
aF301.34099793434143
aF69.323077917099
aF304.1166079044342
aF301.9050271511078
aF53.123263120651245
aF289.8176281452179
aF301.55508399009705
aF16.005239963531494
aF35.80673289299011
aF301.6339371204376
aF19.627562046051025
aF304.1442949771881
aF291.59920382499695
aF16.83796787261963
aF19.414600133895874
aF50.765738010406494
aF301.5502841472626
aF126.47901797294617
aF215.77743697166443
aF68.33559894561768
aF302.069219827652
aF60.61453700065613
aF40.02773380279541
aF17.385390996932983
aF206.31011700630188
aF304.8881709575653
aF54.92281889915466
aF14.294744968414307
aF300.254252910614
aF51.955459117889404
aF301.820237159729
aF219.1333930492401
aF14.545139074325562
aF138.80494594573975
aF16.77323007583618
aF310.50253200531006
aF38.256680965423584
aF15.575187921524048
aF300.5807011127472
aF161.11835193634033
aF51.911075830459595
aF301.5814588069916
aF301.20492696762085
aF300.8181140422821
aF12.872143030166626
aF33.76303791999817
aF59.24385690689087
aF301.45526099205017
aF31.236382961273193
aF163.76093196868896
aF303.4340240955353
aF303.0535840988159
aF62.706324100494385
aF92.30233502388
aF71.85102200508118
aF20.585129022598267
aF13.640920162200928
aF303.44242310523987
aF211.63373708724976
aF250.84047198295593
aF65.19211506843567
aF237.70979499816895
aF261.47059297561646
aF38.702444076538086
aF300.0487251281738
aF14.54984188079834
aF19.84082007408142
aF13.196531057357788
aF76.93625903129578
aF24.01404309272766
aF300.4636859893799
aF61.844414949417114
aF72.54008102416992
aF303.48386001586914
aF12.002454996109009
aF96.51281881332397
aF23.5747389793396
aF36.72961783409119
aF14.652393102645874
aF13.562882900238037
aF18.98931884765625
aF192.89604496955872
aF58.9176390171051
aF14.036098957061768
aF301.6432840824127
aF34.21744894981384
aF301.2596158981323
aF14.914911031723022
aF29.40477991104126
aF149.98228001594543
aF302.60545015335083
aF234.4751899242401
aF108.65314388275146
aF15.270183086395264
aF54.44029116630554
aF13.05672311782837
aF301.8777029514313
aF135.9522089958191
aF52.67002606391907
aF16.619107961654663
aF302.22306990623474
aF45.41503596305847
aF303.2949380874634
aF169.82340812683105
aF32.328221797943115
aF301.22538709640503
aF185.43088603019714
aF301.4712870121002
aF107.41654586791992
aF301.4714250564575
aF300.6318869590759
aF300.45740389823914
aF13.910965919494629
aF55.426501989364624
aF303.81670784950256
aF17.653202056884766
aF300.10638999938965
aF12.198656797409058
aF301.23740911483765
aF179.39606285095215
aF15.200791120529175
aF17.067795991897583
aF26.319003105163574
aF21.786289930343628
aF22.46745491027832
aF26.51284694671631
aF301.9054260253906
aF28.007267951965332
aF136.91826009750366
aF14.308403015136719
aF135.99870109558105
aF42.40042686462402
aF12.168975114822388
aF235.1296968460083
aF13.241458177566528
aF59.39605379104614
aF41.611040115356445
aF13.621494054794312
aF302.78305888175964
aF303.412957906723
aF63.54515790939331
aF302.6146008968353
aF13.289098978042603
aF59.453338861465454
aF302.13626503944397
aF298.54601883888245
aF28.910614013671875
aF14.594584941864014
aF302.14886689186096
aF99.39253091812134
aF290.7982759475708
aF12.158483028411865
aF303.86483502388
aF68.0321729183197
aF287.98357582092285
aF300.39681911468506
aF303.8083190917969
aF14.718422174453735
aF15.541815996170044
aF30.480993032455444
aF191.86442613601685
aF17.892786979675293
aF301.5872890949249
aF16.561787128448486
aF17.107746839523315
aF302.69456791877747
aF56.17123508453369
aF28.38322901725769
aF94.16400098800659
aF300.35513710975647
aF165.9727029800415
aF13.49514389038086
aF61.962317943573
aF13.595682859420776
aF301.4635100364685
aF302.75424909591675
aF12.852265119552612
aF302.24317383766174
aF301.76877188682556
aF28.454734086990356
aF185.75392293930054
aF13.131279945373535
aF306.07360887527466
aF34.181782960891724
aF300.51592087745667
aF15.099950075149536
aF12.924162864685059
aF303.85958099365234
aF13.467173099517822
aF47.64628505706787
aF302.33398604393005
aF300.9574089050293
aF13.587146997451782
aF124.01463603973389
aF120.71781301498413
aF287.6110849380493
aF47.18541097640991
aF302.4299030303955
aF17.71561312675476
aF13.849068880081177
aF14.49113392829895
aF16.664119005203247
aF102.42367815971375
aF59.03837299346924
aF301.3911180496216
aF301.11682415008545
aF98.3463089466095
aF20.188488006591797
aF51.227736949920654
aF99.5217559337616
aF11.708423852920532
aF153.22456812858582
aF14.334392786026001
aF31.173562049865723
aF96.08188891410828
aF18.09916591644287
aF25.340028047561646
aF217.0454158782959
aF39.42559599876404
aF12.222645044326782
aF303.5082919597626
aF300.09229803085327
aF276.3738589286804
aF302.57014203071594
aF101.58116388320923
aF17.002130031585693
aF12.853244066238403
aF301.4728078842163
aF301.2059688568115
aF301.16581201553345
aF18.255754947662354
aF27.415264129638672
aF80.57309412956238
aF300.2097079753876
aF28.633863925933838
aF301.54428911209106
aF57.07275199890137
aF302.4848129749298
aF15.187566041946411
aF305.8068130016327
aF163.3751208782196
aF300.1405038833618
aF52.70334005355835
aF300.5369529724121
aF115.99793791770935
aF302.2058310508728
aF57.02244997024536
aF14.884432792663574
aF267.200670003891
aF38.31008291244507
aF13.572121143341064
aF60.586853981018066
aF46.14692211151123
aF240.09615087509155
aF300.1542179584503
aF70.98695302009583
aF26.20851993560791
aF57.87606501579285
aF42.09514307975769
aF13.702948093414307
aF52.63453793525696
aF157.85972714424133
aF58.52411699295044
aF71.22497296333313
aF14.518779993057251
aF37.46760296821594
aF21.98893404006958
aF300.791218996048
aF14.309877157211304
aF33.32991003990173
aF300.1482410430908
aF300.4676969051361
aF229.47003388404846
aF177.2707018852234
aF114.74531292915344
aF300.82350301742554
aF14.250656843185425
aF43.20968413352966
aF101.2653341293335
aF117.0256199836731
aF23.296220064163208
aF305.65431809425354
aF131.7940490245819
aF303.4344959259033
aF128.0797941684723
aF32.54304099082947
aF12.308300018310547
aF35.24707388877869
aF14.960113048553467
aF300.5841088294983
aF16.505486011505127
aF302.6535668373108
aF197.0435938835144
aF300.2808620929718
aF13.698508024215698
aF301.86577820777893
aF136.91978001594543
aF17.27118992805481
aF203.08141994476318
aF190.12452483177185
aF103.42612504959106
aF302.62668800354004
aF14.97467303276062
aF300.9211730957031
aF300.66690492630005
aF300.47296714782715
aF14.49061894416809
aF111.80895709991455
aF15.535856008529663
aF302.7936670780182
aF16.925554990768433
aF40.41118407249451
aF22.712100982666016
aF50.22936701774597
aF224.22416615486145
aF301.94963693618774
aF155.86735701560974
aF300.1638569831848
aF14.255085945129395
aF98.8557071685791
aF31.63105010986328
aF14.25349497795105
aF303.85476207733154
aF300.4103100299835
aF99.63793897628784
aF302.3099100589752
aF302.77882504463196
aF266.9035499095917
aF60.783698081970215
aF300.44018483161926
aF304.71911215782166
aF16.4684898853302
aF42.30746412277222
aF46.20396399497986
aF92.28731608390808
aF130.06476402282715
aF302.2023129463196
aF306.258318901062
aF16.897118091583252
aF170.40410113334656
aF139.38048315048218
aF301.0538251399994
aF232.8442120552063
aF42.86320996284485
aF24.188170909881592
aF59.33550691604614
aF126.81551599502563
aF302.63947796821594
aF132.88547587394714
aF59.89544892311096
aF142.72547912597656
aF29.295247077941895
aF301.3829228878021
aF13.42123007774353
aF14.385220050811768
aF303.0731689929962
aF303.81811594963074
aF52.99428105354309
aF300.27621603012085
aF300.9106500148773
aF123.19428491592407
aF300.22197103500366
aF31.39072608947754
aF73.76124811172485
aF21.558062076568604
aF14.555807113647461
aF142.51813316345215
aF30.38790202140808
aF13.29643201828003
aF231.74266505241394
aF302.81439900398254
aF86.12005496025085
aF111.46704316139221
aF118.73504590988159
aF12.124657154083252
aF12.044476985931396
aF164.42797207832336
aF304.11209511756897
aF15.816911935806274
aF15.644934177398682
aF132.1090052127838
aF186.3546051979065
aF134.18577098846436
aF13.469462156295776
aF300.22151279449463
aF14.214780807495117
aF65.78261804580688
aF31.101134061813354
aF41.89371705055237
aF103.48374509811401
aF34.017669916152954
aF301.05158495903015
aF21.58809518814087
aF179.20158219337463
aF300.2594361305237
aF38.559082984924316
aF28.730807065963745
aF304.58075404167175
aF13.565860033035278
aF301.4331970214844
aF14.41071605682373
aF11.324548959732056
aF224.1440179347992
aF30.17499589920044
aF103.15447902679443
aF300.91104316711426
aF301.14291405677795
aF15.056602001190186
aF12.547724962234497
aF64.33607196807861
aF118.80689597129822
aF263.4274950027466
aF33.99363708496094
aF17.827225923538208
aF144.44284296035767
aF303.83271193504333
aF51.7959840297699
aF76.2772331237793
aF234.14627695083618
aF61.80436110496521
aF302.8337700366974
aF300.97116589546204
aF27.44833493232727
aF53.025684118270874
aF15.026807069778442
aF304.62972116470337
aF197.08313083648682
aF130.25313305854797
aF27.899495840072632
aF55.59683322906494
aF21.4532949924469
aF57.70253109931946
aF108.59448099136353
aF16.628015995025635
aF13.790793895721436
aF301.2499668598175
aF75.63211178779602
aF304.48185205459595
aF302.50167202949524
aF66.29158782958984
aF218.11032104492188
aF149.8431420326233
aF303.27151322364807
aF303.7648911476135
aF300.53117203712463
aF53.96161508560181
aF11.322547912597656
aF14.476961135864258
aF16.839461088180542
aF178.18008995056152
aF300.58540081977844
aF67.85332489013672
aF15.49836015701294
aF303.48165011405945
aF12.620306015014648
aF303.8380389213562
aF173.36095190048218
aF300.54424500465393
aF42.682334899902344
aF286.5727298259735
aF15.761905908584595
aF56.09044694900513
aF70.43978500366211
aF303.3617238998413
aF15.972784996032715
aF300.89686012268066
aF211.7424280643463
aF13.679730892181396
aF304.6344850063324
aF34.07114601135254
aF156.67825198173523
aF45.02393817901611
aF140.12758994102478
aF303.21465396881104
aF229.10745406150818
aF27.47018313407898
aF85.76228713989258
aF16.726428985595703
aF81.81608605384827
aF12.173628091812134
aF110.89102482795715
aF125.43044805526733
aF18.82463502883911
aF47.22681498527527
aF127.66597294807434
aF132.71690392494202
aF301.7962899208069
aF15.525540113449097
aF80.70651197433472
aF142.42645287513733
aF301.02797389030457
aF301.7182230949402
aF13.597019910812378
aF14.852043151855469
aF301.95439314842224
aF128.86926698684692
aF162.42403316497803
aF99.65184092521667
aF89.43253087997437
aF12.066288948059082
aF11.787041902542114
aF207.85936903953552
aF26.275727033615112
aF300.5190851688385
aF102.92145800590515
aF41.51978015899658
aF301.5567319393158
aF300.2001540660858
aF24.589271068572998
aF246.99972701072693
aF263.83740401268005
aF83.67225098609924
aF302.3723828792572
aF15.033375978469849
aF257.0518898963928
aF14.02156400680542
aF303.1348168849945
aF301.4446668624878
aF303.7367820739746
aF18.274760007858276
aF301.2207989692688
aF160.39615201950073
aF35.71053695678711
aF50.947827100753784
aF197.28041291236877
aF217.14724278450012
aF66.59333896636963
aF300.3351089954376
aF31.201969861984253
aF301.0361979007721
aF300.3645670413971
aF231.80396485328674
aF27.498384952545166
aF120.80618906021118
aF117.66845607757568
aF151.57913494110107
aF223.54555416107178
aF195.2109019756317
aF303.7325689792633
aF202.232115983963
aF14.875623941421509
aF300.5893931388855
aF72.37099409103394
aF164.40676712989807
aF302.6063449382782
aF180.67773008346558
aF307.2954080104828
aF25.60066509246826
aF31.90405511856079
aF148.69592809677124
aF94.13500714302063
aF13.679208993911743
aF28.838184118270874
aF302.73276686668396
aF300.8889470100403
aF85.33307313919067
aF16.12540292739868
aF14.276324987411499
aF16.777069091796875
aF27.41798186302185
aF21.54838991165161
aF25.98900008201599
aF302.58180499076843
aF173.58815598487854
aF230.2797770500183
aF300.04419803619385
aF303.11567091941833
aF81.39526414871216
aF139.4202868938446
aF300.34320306777954
aF101.05771803855896
aF151.23100304603577
aF53.565659046173096
aF15.227753162384033
aF260.88754391670227
aF105.9129090309143
aF181.82727098464966
aF300.8080039024353
aF142.14577889442444
aF13.069329023361206
aF55.36794710159302
aF302.4210901260376
aF134.4016261100769
aF206.03251719474792
aF280.67999792099
aF15.437453985214233
aF118.82926607131958
aF100.94376587867737
aF300.44807386398315
aF25.193835020065308
aF15.448915004730225
aF23.49595308303833
aF24.793282985687256
aF24.21380305290222
aF22.661412000656128
aF300.1741440296173
aF12.076911926269531
aF16.683969974517822
aF43.09671092033386
aF300.15484285354614
aF300.1118071079254
aF137.51473188400269
aF33.42002296447754
aF124.92437100410461
aF128.68305492401123
aF16.107200145721436
aF300.06133913993835
aF13.452481985092163
aF37.911370038986206
aF15.508955001831055
aF37.49208402633667
aF13.207446813583374
aF54.45824480056763
aF41.247668981552124
aF298.1938900947571
aF20.105032920837402
aF26.9145929813385
aF300.05707693099976
aF13.530809879302979
aF173.5028519630432
aF43.72700309753418
aF17.797287940979004
aF20.595161199569702
aF24.547708988189697
aF233.65682911872864
aF85.20521306991577
aF14.319889068603516
aF300.2157130241394
aF16.527109146118164
aF302.35846495628357
aF16.780539989471436
aF301.9547960758209
aF82.83700299263
aF36.478748083114624
aF11.951884984970093
aF14.374118089675903
aF33.34438705444336
aF40.21624803543091
aF14.41985297203064
aF123.11318516731262
aF41.12126898765564
aF17.99617314338684
aF44.65759086608887
aF301.2207510471344
aF37.738194942474365
aF303.39338779449463
aF34.856647968292236
aF87.5336561203003
aF15.138109922409058
aF300.1073479652405
aF146.72754001617432
aF13.33270812034607
aF301.6636040210724
aF16.86440896987915
aF12.866537094116211
aF16.214263200759888
aF153.86064887046814
aF14.972902059555054
aF16.709051847457886
aF126.6945219039917
aF14.890238046646118
aF303.7885799407959
aF12.89011287689209
aF102.49389386177063
aF30.4445378780365
aF13.860681056976318
aF301.5246841907501
aF14.790583848953247
aF301.50671195983887
aF110.66265511512756
aF303.0596799850464
aF302.0269420146942
aF302.61333894729614
aF102.49040198326111
aF12.575546026229858
aF131.53760504722595
aF300.5598509311676
aF300.7528519630432
aF301.92503786087036
aF300.0849401950836
aF300.664510011673
aF16.540690898895264
aF119.35512804985046
aF12.6612548828125
aF301.3580720424652
aF300.46897292137146
aF251.9237620830536
aF16.323029041290283
aF13.900804996490479
aF29.56383204460144
aF17.043313026428223
aF59.57114505767822
aF14.427636861801147
aF193.25388288497925
aF13.879580020904541
aF18.943954944610596
aF34.68849802017212
aF12.726713180541992
aF301.5284011363983
aF14.293361902236938
aF302.32154989242554
aF13.103477954864502
aF12.70200490951538
aF120.28985810279846
aF299.0364978313446
aF12.930195093154907
aF35.12630891799927
aF27.173605918884277
aF306.98550295829773
aF304.39250779151917
aF30.402752161026
aF242.93028593063354
aF181.3920328617096
aF13.326495885848999
aF126.01262092590332
aF122.8995430469513
aF300.4043688774109
aF246.661602973938
aF248.94640588760376
aF13.550062894821167
aF135.38162088394165
aF32.70869016647339
aF300.67387318611145
aF28.129109144210815
aF30.232616901397705
aF302.31551599502563
aF20.627249002456665
aF112.47153401374817
aF230.28405284881592
aF304.23920798301697
aF148.6898169517517
aF302.904678106308
aF12.269588947296143
aF14.399031162261963
aF51.45590686798096
aF75.18344712257385
aF301.74630904197693
aF128.0422101020813
aF301.34331607818604
aF32.68267798423767
aF301.89103603363037
aF301.21648383140564
aF300.0769588947296
aF59.222498178482056
aF303.63876509666443
aF302.7778820991516
aF301.38737893104553
aF304.43343710899353
aF16.998739004135132
aF113.01916790008545
aF12.051812887191772
aF76.1342248916626
aF114.92546916007996
aF237.2193419933319
aF269.28886103630066
aF137.58201694488525
aF11.799118995666504
aF43.41161894798279
aF301.8502399921417
aF203.25621700286865
aF295.5877079963684
aF301.27211713790894
aF100.93067502975464
aF132.7789649963379
aF43.76678705215454
aF76.60418701171875
aF24.972536087036133
aF300.5532569885254
aF141.3071961402893
aF25.56427812576294
aF17.658720016479492
aF120.41342186927795
aF12.239665031433105
aF303.7846779823303
aF198.2448329925537
aF31.757093906402588
aF301.6213028430939
aF302.16803097724915
aF34.99222683906555
aF34.71889805793762
aF46.47481179237366
aF17.200475215911865
aF301.1200430393219
aF147.16815996170044
aF100.58009004592896
aF13.49853515625
aF12.5502769947052
aF12.686005115509033
aF17.217913150787354
aF51.38703918457031
aF72.52887010574341
aF13.471264123916626
aF39.0926558971405
aF29.119174003601074
aF130.60079908370972
aF95.88946104049683
aF300.9166171550751
aF25.348417043685913
aF23.90122699737549
aF301.057580947876
aF43.108469009399414
aF86.6225221157074
aF117.4591429233551
aF251.28761506080627
aF302.8367919921875
aF61.527612924575806
aF24.782267093658447
aF22.94522213935852
aF282.2370390892029
aF11.154000997543335
aF13.6822988986969
aF19.884679079055786
aF13.305076122283936
aF303.25864601135254
aF23.61064314842224
aF301.6985409259796
aF302.73011088371277
aF12.245651960372925
aF22.080440044403076
aF225.35863494873047
aF294.1123158931732
aF13.80777096748352
aF32.53017592430115
aF45.836891889572144
aF47.86834383010864
aF39.40676307678223
aF103.12446999549866
aF300.1260299682617
aF49.0879921913147
aF28.109645128250122
aF82.09324908256531
aF100.30913400650024
aF12.801541090011597
aF24.13362717628479
aF25.275145053863525
aF44.393455028533936
aF300.05042600631714
aF14.623773097991943
aF23.991533994674683
aF302.76511812210083
aF302.7398958206177
aF302.6002449989319
aF15.290030002593994
aF116.01581192016602
aF300.20823907852173
aF24.070575952529907
aF304.68693804740906
aF25.389582872390747
aF91.04371404647827
aF178.39664006233215
aF29.611737966537476
aF106.74576997756958
aF191.71296000480652
aF45.27211093902588
aF23.6859130859375
aF308.3220670223236
aF211.6906077861786
aF51.66293478012085
aF120.1191291809082
aF22.279337167739868
aF303.4579701423645
aF42.26786184310913
aF167.41476488113403
aF122.89789414405823
aF55.64647698402405
aF32.30140805244446
aF302.95114612579346
aF301.8067579269409
aF16.15989589691162
aF300.9241750240326
aF53.947059869766235
aF180.97621893882751
aF56.69554090499878
aF13.579030990600586
aF143.1060221195221
aF193.34092903137207
aF101.78606796264648
aF19.601293087005615
aF301.16268491744995
aF150.7287380695343
aF22.179692029953003
aF45.02491092681885
aF300.41601610183716
aF303.96562600135803
aF256.54185700416565
aF303.5459990501404
aF23.79301881790161
aF140.3450858592987
aF301.8527729511261
aF13.867578029632568
aF20.327099084854126
aF11.417518854141235
aF182.51373410224915
aF15.088989973068237
aF150.2376470565796
aF28.65431499481201
aF255.50646591186523
aF134.89112496376038
aF13.539890050888062
aF81.43621397018433
aF30.767086029052734
aF291.50342202186584
aF39.890843868255615
aF153.04644298553467
aF303.03305411338806
aF300.62653279304504
aF304.46054911613464
aF57.19598197937012
aF49.98103904724121
aF282.5929491519928
aF14.20269513130188
aF214.27143788337708
aF40.66327905654907
aF300.7682068347931
aF22.93484401702881
aF301.0560669898987
aF171.52076506614685
aF300.5698461532593
aF23.027534008026123
aF133.5268349647522
aF300.12960600852966
aF21.336896181106567
aF306.17730712890625
aF65.52330708503723
aF21.976691961288452
aF51.65216088294983
aF14.949383974075317
aF303.485515832901
aF300.4520800113678
aF216.75820803642273
aF301.6340398788452
aF304.042484998703
aF58.111785888671875
aF301.544331073761
aF100.05440211296082
aF14.38253402709961
aF304.0383861064911
aF88.26213383674622
aF301.02472591400146
aF200.0729911327362
aF132.61000514030457
aF31.82441520690918
aF142.34236097335815
aF165.43705201148987
aF236.75543904304504
aF300.2064950466156
aF74.82277297973633
aF300.9399700164795
aF303.5472249984741
aF252.98577785491943
aF85.56066107749939
aF122.59878611564636
aF26.2604718208313
aF11.725811004638672
aF29.561672925949097
aF100.22721791267395
aF300.1601240634918
aF66.28369402885437
aF89.36799001693726
aF12.557015895843506
aF24.472237825393677
aF21.97438097000122
aF40.66174006462097
aF24.013000965118408
aF89.29691100120544
aF301.3276300430298
aF13.060148000717163
aF250.44541597366333
aF12.854048013687134
aF29.889806985855103
aF11.67692494392395
aF300.15094208717346
aF139.29766702651978
aF303.4888172149658
aF15.159146070480347
aF27.62267780303955
aF48.50337600708008
aF45.487553119659424
aF201.37692499160767
aF30.146296977996826
aF302.2419991493225
aF34.32911205291748
aF101.76523113250732
aF63.36145997047424
aF148.5242099761963
aF296.4591910839081
aF303.52699089050293
aF37.214335918426514
aF92.54473185539246
aF14.642723083496094
aF28.20587992668152
aF302.60145688056946
aF85.34505200386047
aF300.50068402290344
aF303.0770089626312
aF125.48513007164001
aF302.06094694137573
aF15.061922788619995
aF301.8944580554962
aF13.899614095687866
aF12.870017051696777
aF38.34908485412598
aF301.37689208984375
aF13.921284914016724
aF65.13582801818848
aF12.87758183479309
aF38.28540301322937
as.