(dp0
S'successes'
p1
(lp2
I01
aI01
aI01
aI01
aI01
aI01
aI01
aI01
aI01
aI01
aI01
aI01
aI01
aI00
aI01
aI01
aI00
aI00
aI01
aI01
aI01
aI01
aI00
aI00
aI00
aI01
aI00
aI01
aI01
aI01
aI01
aI00
aI01
aI00
aI01
aI01
aI01
aI01
aI01
aI01
aI00
aI01
aI01
aI01
aI00
aI01
aI01
aI01
aI01
aI01
aI01
aI01
aI00
aI01
aI01
aI01
aI00
aI01
aI01
aI01
aI00
aI00
aI01
aI01
aI01
aI01
aI01
aI01
aI01
aI00
aI00
aI01
aI00
aI01
aI01
aI01
aI00
aI01
aI01
aI01
aI01
aI01
aI01
aI01
aI01
aI01
aI01
aI01
aI01
aI01
aI01
aI01
aI01
aI01
aI01
aI00
aI01
aI01
aI01
aI01
aI01
aI01
aI01
aI01
aI01
aI01
aI01
aI00
aI01
aI01
aI01
aI00
aI00
aI01
aI01
aI01
aI01
aI01
aI00
aI01
aI01
aI01
aI00
aI00
aI01
aI00
aI01
aI01
aI01
aI01
aI01
aI01
aI01
aI01
aI01
aI01
aI01
aI01
aI01
aI01
aI01
aI01
aI01
aI01
aI01
aI01
aI01
aI01
aI01
aI01
aI01
aI01
aI00
aI01
aI01
aI01
aI00
aI00
aI01
aI01
aI01
aI01
aI01
aI01
aI01
aI01
aI01
aI01
aI01
aI01
aI01
aI01
aI01
aI01
aI01
aI01
aI01
aI00
aI01
aI01
aI01
aI00
aI01
aI01
aI01
aI01
aI00
aI01
aI01
aI00
aI01
aI01
aI00
aI01
aI01
aI01
aI01
aI01
aI01
aI01
aI01
aI01
aI01
aI00
aI01
aI01
aI01
aI01
aI00
aI00
aI01
aI00
aI01
aI01
aI00
aI01
aI01
aI01
aI01
aI01
aI01
aI01
aI01
aI00
aI01
aI01
aI01
aI01
aI01
aI01
aI01
aI01
aI00
aI01
aI01
aI01
aI01
aI01
aI01
aI00
aI01
aI01
aI01
aI01
aI01
aI01
aI01
aI01
aI01
aI00
aI01
aI01
aI01
aI01
aI00
aI01
aI01
aI01
aI01
aI01
aI00
aI01
aI01
aI01
aI01
aI01
aI01
aI00
aI01
aI01
aI01
aI01
aI00
aI01
aI00
aI01
aI00
aI01
aI01
aI00
aI01
aI01
aI01
aI01
aI01
aI01
aI01
aI01
aI01
aI01
aI01
aI01
aI01
aI01
aI01
aI01
aI00
aI00
aI01
aI01
aI01
aI01
aI01
aI01
aI01
aI01
aI01
aI01
aI01
aI01
aI01
aI01
aI01
aI01
aI01
aI01
aI01
aI01
aI01
aI01
aI01
aI01
aI00
aI01
aI01
aI00
aI01
aI01
aI01
aI01
aI01
aI00
aI01
aI01
aI00
aI01
aI01
aI01
aI01
aI01
aI01
aI01
aI01
aI01
aI01
aI01
aI01
aI01
aI01
aI01
aI01
aI01
aI00
aI01
aI01
aI01
aI01
aI01
aI01
aI01
aI01
aI01
aI01
aI01
aI01
aI01
aI01
aI01
aI01
aI01
aI01
aI01
aI00
aI01
aI00
aI01
aI01
aI00
aI01
aI01
aI00
aI00
aI01
aI01
aI01
aI01
aI01
aI00
aI01
aI00
aI01
aI01
aI00
aI01
aI01
aI01
aI01
aI01
aI01
aI01
aI01
aI01
aI00
aI00
aI01
aI01
aI01
aI00
aI01
aI01
aI01
aI01
aI01
aI01
aI01
aI01
aI01
aI01
aI01
aI01
aI01
aI01
aI00
aI01
aI01
aI01
aI01
aI01
aI01
aI00
aI01
aI01
aI01
aI01
aI01
aI01
aI01
aI00
aI00
aI01
aI01
aI01
aI01
aI01
aI01
aI01
aI01
aI01
aI01
aI00
aI01
aI01
aI01
aI01
aI01
aI01
aI01
aI01
aI00
aI01
aI01
aI01
aI01
aI01
aI01
aI01
asS'plan_length'
p3
(lp4
I13
aI26
aI9
aI8
aI20
aI13
aI8
aI10
aI12
aI14
aI8
aI18
aI8
aI8
aI8
aI15
aI15
aI15
aI8
aI25
aI8
aI11
aI11
aI11
aI11
aI9
aI9
aI12
aI14
aI8
aI19
aI19
aI8
aI8
aI10
aI10
aI9
aI11
aI8
aI8
aI8
aI9
aI8
aI8
aI8
aI8
aI8
aI27
aI9
aI9
aI8
aI65
aI65
aI14
aI9
aI13
aI13
aI9
aI20
aI9
aI9
aI9
aI8
aI18
aI8
aI9
aI10
aI14
aI9
aI9
aI9
aI9
aI9
aI10
aI17
aI8
aI8
aI9
aI11
aI10
aI12
aI15
aI9
aI9
aI12
aI9
aI20
aI11
aI11
aI18
aI8
aI9
aI8
aI8
aI10
aI10
aI9
aI8
aI12
aI10
aI8
aI8
aI8
aI8
aI17
aI17
aI9
aI9
aI13
aI8
aI8
aI8
aI8
aI19
aI10
aI14
aI10
aI21
aI21
aI9
aI14
aI8
aI8
aI8
aI10
aI10
aI18
aI9
aI8
aI8
aI8
aI8
aI8
aI10
aI9
aI24
aI17
aI11
aI10
aI10
aI8
aI8
aI8
aI11
aI9
aI8
aI11
aI8
aI11
aI8
aI10
aI8
aI8
aI8
aI8
aI9
aI9
aI9
aI8
aI9
aI17
aI14
aI11
aI8
aI15
aI8
aI18
aI10
aI8
aI9
aI11
aI15
aI8
aI8
aI9
aI10
aI8
aI8
aI11
aI13
aI47
aI47
aI9
aI8
aI8
aI8
aI8
aI17
aI8
aI8
aI20
aI12
aI12
aI9
aI9
aI9
aI8
aI8
aI11
aI19
aI8
aI9
aI10
aI10
aI20
aI10
aI9
aI8
aI8
aI8
aI25
aI25
aI8
aI9
aI9
aI22
aI8
aI8
aI9
aI12
aI8
aI15
aI8
aI8
aI8
aI9
aI8
aI9
aI12
aI10
aI13
aI11
aI11
aI8
aI11
aI16
aI8
aI12
aI8
aI8
aI17
aI10
aI8
aI8
aI9
aI10
aI8
aI8
aI12
aI12
aI9
aI8
aI13
aI8
aI8
aI8
aI8
aI12
aI12
aI15
aI15
aI8
aI12
aI8
aI8
aI8
aI8
aI8
aI12
aI11
aI8
aI13
aI13
aI18
aI18
aI10
aI10
aI8
aI16
aI16
aI13
aI8
aI16
aI21
aI8
aI8
aI8
aI11
aI12
aI8
aI10
aI8
aI15
aI8
aI9
aI8
aI8
aI8
aI8
aI9
aI8
aI8
aI8
aI10
aI11
aI8
aI13
aI12
aI10
aI8
aI12
aI8
aI8
aI9
aI18
aI9
aI11
aI8
aI9
aI12
aI10
aI10
aI10
aI18
aI9
aI9
aI8
aI9
aI8
aI13
aI19
aI19
aI11
aI9
aI9
aI12
aI8
aI8
aI8
aI14
aI13
aI8
aI13
aI8
aI8
aI9
aI10
aI15
aI14
aI13
aI8
aI29
aI29
aI15
aI11
aI11
aI10
aI13
aI10
aI8
aI8
aI8
aI15
aI14
aI10
aI8
aI8
aI8
aI24
aI11
aI13
aI10
aI10
aI8
aI8
aI9
aI8
aI8
aI15
aI8
aI8
aI8
aI16
aI12
aI8
aI9
aI8
aI8
aI9
aI9
aI8
aI11
aI11
aI12
aI12
aI15
aI9
aI8
aI8
aI11
aI8
aI8
aI8
aI8
aI9
aI8
aI14
aI14
aI8
aI15
aI8
aI8
aI8
aI10
aI10
aI8
aI14
aI10
aI17
aI8
aI9
aI10
aI10
aI9
aI8
aI8
aI13
aI25
aI43
aI43
aI10
aI8
aI9
aI8
aI8
aI10
aI8
aI8
aI8
aI12
aI13
aI8
aI8
aI20
aI9
aI8
aI13
aI9
aI9
aI9
aI9
aI27
aI9
aI8
aI22
aI8
aI8
aI13
aI13
aI8
aI8
aI12
aI17
aI14
aI10
aI8
asS'num_nodes'
p5
(lp6
I42
aI245
aI38
aI23
aI107
aI124
aI19
aI51
aI39
aI95
aI18
aI188
aI24
aI17
aI27
aI110
aI17
aI17
aI24
aI135
aI19
aI52
aI17
aI17
aI17
aI88
aI17
aI55
aI73
aI18
aI38
aI17
aI48
aI17
aI47
aI52
aI36
aI51
aI43
aI15
aI17
aI28
aI15
aI24
aI17
aI13
aI39
aI159
aI48
aI71
aI16
aI277
aI17
aI179
aI19
aI41
aI17
aI33
aI134
aI46
aI17
aI17
aI12
aI68
aI19
aI47
aI35
aI100
aI34
aI17
aI17
aI54
aI17
aI51
aI95
aI16
aI17
aI38
aI94
aI32
aI53
aI99
aI14
aI20
aI100
aI41
aI65
aI89
aI77
aI95
aI36
aI21
aI19
aI52
aI49
aI17
aI22
aI26
aI83
aI36
aI37
aI40
aI32
aI30
aI61
aI75
aI68
aI17
aI82
aI11
aI20
aI17
aI17
aI165
aI64
aI65
aI48
aI80
aI17
aI29
aI147
aI14
aI17
aI17
aI25
aI17
aI186
aI57
aI28
aI24
aI35
aI9
aI18
aI68
aI45
aI189
aI99
aI32
aI67
aI51
aI47
aI12
aI34
aI94
aI43
aI26
aI46
aI31
aI60
aI14
aI75
aI8
aI17
aI22
aI16
aI92
aI17
aI17
aI30
aI55
aI80
aI110
aI119
aI16
aI134
aI21
aI204
aI75
aI36
aI28
aI56
aI87
aI30
aI31
aI68
aI58
aI43
aI17
aI30
aI53
aI282
aI17
aI75
aI25
aI9
aI17
aI17
aI55
aI43
aI17
aI170
aI81
aI17
aI36
aI26
aI33
aI28
aI47
aI60
aI106
aI26
aI40
aI71
aI17
aI239
aI30
aI54
aI23
aI17
aI17
aI171
aI17
aI36
aI50
aI17
aI123
aI29
aI22
aI43
aI120
aI22
aI93
aI22
aI17
aI43
aI103
aI8
aI28
aI49
aI63
aI56
aI70
aI17
aI12
aI43
aI139
aI15
aI82
aI22
aI17
aI151
aI48
aI14
aI19
aI69
aI64
aI22
aI15
aI46
aI17
aI43
aI32
aI100
aI13
aI17
aI11
aI28
aI53
aI58
aI115
aI17
aI10
aI112
aI20
aI18
aI20
aI22
aI17
aI46
aI60
aI42
aI117
aI17
aI69
aI17
aI70
aI17
aI33
aI97
aI17
aI42
aI13
aI89
aI170
aI32
aI9
aI13
aI49
aI119
aI42
aI72
aI11
aI138
aI28
aI40
aI12
aI17
aI17
aI13
aI40
aI27
aI15
aI28
aI19
aI78
aI49
aI44
aI120
aI66
aI14
aI32
aI15
aI16
aI39
aI144
aI33
aI49
aI9
aI27
aI27
aI54
aI53
aI17
aI69
aI48
aI17
aI29
aI52
aI22
aI58
aI119
aI17
aI109
aI38
aI17
aI97
aI17
aI30
aI16
aI62
aI73
aI19
aI87
aI31
aI21
aI46
aI42
aI124
aI60
aI138
aI30
aI157
aI17
aI71
aI88
aI133
aI73
aI99
aI41
aI24
aI11
aI10
aI162
aI70
aI45
aI14
aI17
aI23
aI257
aI48
aI86
aI60
aI17
aI30
aI17
aI58
aI22
aI17
aI97
aI46
aI17
aI17
aI93
aI78
aI12
aI44
aI20
aI17
aI41
aI17
aI24
aI71
aI17
aI39
aI49
aI70
aI26
aI8
aI18
aI68
aI23
aI13
aI17
aI17
aI30
aI34
aI59
aI17
aI64
aI80
aI35
aI46
aI15
aI55
aI24
aI18
aI61
aI37
aI99
aI24
aI32
aI61
aI17
aI46
aI49
aI26
aI68
aI96
aI224
aI17
aI31
aI35
aI47
aI33
aI27
aI34
aI40
aI17
aI17
aI138
aI96
aI9
aI30
aI124
aI34
aI12
aI53
aI42
aI111
aI17
aI56
aI127
aI20
aI14
aI99
aI16
aI17
aI82
aI17
aI23
aI18
aI88
aI101
aI125
aI33
aI20
asS'times'
p7
(lp8
F211.26793003082275
aF1094.7969710826874
aF185.20853686332703
aF102.41346716880798
aF349.1819498538971
aF416.6287100315094
aF88.12299489974976
aF171.89000391960144
aF189.67801690101624
aF393.05053877830505
aF94.7350721359253
aF601.9653680324554
aF149.9035940170288
aF36.80434799194336
aF88.24144196510315
aF368.17547488212585
aF38.06517791748047
aF31.423007011413574
aF123.47247385978699
aF556.9044930934906
aF97.96610689163208
aF199.5823769569397
aF36.98582601547241
aF43.5466730594635
aF34.66009998321533
aF354.4172170162201
aF39.09911918640137
aF201.63134121894836
aF281.6395089626312
aF83.26462411880493
aF190.00546789169312
aF34.23509621620178
aF214.93539786338806
aF36.359718799591064
aF177.30169701576233
aF188.0402331352234
aF152.55078601837158
aF231.3743929862976
aF202.23870301246643
aF81.9757080078125
aF35.126821994781494
aF113.88622617721558
aF79.49866700172424
aF104.1272509098053
aF37.783193826675415
aF72.44542694091797
aF173.90978717803955
aF645.642874956131
aF174.02339887619019
aF298.44063997268677
aF71.20915818214417
aF975.5882270336151
aF40.567346811294556
aF481.17684292793274
aF97.22201085090637
aF184.81052017211914
aF36.94534611701965
aF157.3992099761963
aF480.95333886146545
aF212.39922618865967
aF40.87739896774292
aF34.22034192085266
aF81.13064312934875
aF313.3669390678406
aF104.42990183830261
aF145.35466194152832
aF185.56336903572083
aF331.327024936676
aF156.01519799232483
aF33.449848890304565
aF42.639174938201904
aF215.68011498451233
aF32.82616305351257
aF208.51150512695312
aF431.29617190361023
aF113.44450402259827
aF34.30002188682556
aF130.1939709186554
aF364.1174099445343
aF123.9144139289856
aF224.2093620300293
aF406.20966386795044
aF87.43142604827881
aF95.93945598602295
aF327.610249042511
aF168.8298990726471
aF253.87790608406067
aF290.0868399143219
aF285.6703929901123
aF411.61208486557007
aF137.7908639907837
aF96.92009806632996
aF128.4353051185608
aF188.49078583717346
aF201.80123496055603
aF32.521909952163696
aF83.12989902496338
aF107.60070180892944
aF431.0822329521179
aF178.42756295204163
aF146.29397892951965
aF127.67553806304932
aF142.27507996559143
aF156.63679790496826
aF283.4865310192108
aF270.1245138645172
aF222.6589319705963
aF44.35327911376953
aF406.3467960357666
aF68.08256506919861
aF84.81289005279541
aF33.10680317878723
aF35.29928398132324
aF566.2478859424591
aF201.40799403190613
aF271.91918992996216
aF228.69455194473267
aF357.49238896369934
aF42.195923805236816
aF129.23010110855103
aF429.0932800769806
aF79.68339800834656
aF41.97768688201904
aF37.30185508728027
aF143.86725497245789
aF38.711222887039185
aF535.7141990661621
aF187.97738003730774
aF128.6626718044281
aF102.34565496444702
aF132.20327496528625
aF58.081998109817505
aF104.49006915092468
aF322.9735310077667
aF156.00663495063782
aF725.1293079853058
aF348.1249289512634
aF162.25799584388733
aF233.42870998382568
aF209.60351610183716
aF168.85782504081726
aF80.89496397972107
aF122.13515305519104
aF332.4166588783264
aF156.00875902175903
aF122.12451910972595
aF237.97467517852783
aF121.49284791946411
aF248.7032949924469
aF71.15405797958374
aF253.19838404655457
aF54.644039154052734
aF36.07361912727356
aF83.82810711860657
aF79.5204770565033
aF276.1212258338928
aF36.84295201301575
aF39.411789894104004
aF131.62874817848206
aF235.47289991378784
aF290.9891200065613
aF457.82808208465576
aF434.01946091651917
aF73.75522089004517
aF362.165983915329
aF86.65268802642822
aF753.2656280994415
aF202.10716891288757
aF180.6622347831726
aF142.4586820602417
aF234.49147200584412
aF308.41354393959045
aF122.97520899772644
aF145.69545888900757
aF238.583820104599
aF234.86755084991455
aF192.66854906082153
aF36.62370419502258
aF142.40343189239502
aF272.0228810310364
aF1027.3844270706177
aF38.9146990776062
aF293.0465009212494
aF89.83150815963745
aF57.68973898887634
aF98.19855690002441
aF34.775667905807495
aF220.11989307403564
aF160.74683284759521
aF39.861032009124756
aF583.6647820472717
aF321.50175499916077
aF35.11976194381714
aF135.08135795593262
aF130.51719999313354
aF134.32110500335693
aF136.9325029850006
aF171.7960159778595
aF228.65754294395447
aF392.377552986145
aF109.67036294937134
aF196.29154992103577
aF300.9722020626068
aF39.101391077041626
aF782.4181470870972
aF162.2025661468506
aF272.8791809082031
aF117.00409317016602
aF48.0685510635376
aF36.61557579040527
aF698.2440168857574
aF32.1661479473114
aF143.40067386627197
aF210.48370385169983
aF35.2027850151062
aF498.1476089954376
aF124.21016907691956
aF84.84572887420654
aF197.09633493423462
aF382.7253260612488
aF81.61891579627991
aF409.6873049736023
aF103.61049890518188
aF38.28840398788452
aF207.94391298294067
aF319.6340298652649
aF49.367002964019775
aF133.8776319026947
aF214.8713870048523
aF212.76527905464172
aF215.46089696884155
aF260.5872588157654
aF42.96883797645569
aF63.35121703147888
aF203.60009002685547
aF395.3659701347351
aF86.59370803833008
aF313.17491698265076
aF97.69116592407227
aF34.50029706954956
aF449.57183599472046
aF172.84332180023193
aF69.16237616539001
aF105.84340596199036
aF229.21518301963806
aF217.68189811706543
aF103.59646487236023
aF70.36705303192139
aF165.81897807121277
aF35.5718469619751
aF162.96160888671875
aF141.01458096504211
aF374.9237790107727
aF69.78520512580872
aF31.75460410118103
aF64.670236825943
aF112.84284400939941
aF208.63491201400757
aF249.5184359550476
aF385.15862107276917
aF35.232584953308105
aF60.802149057388306
aF333.39514994621277
aF84.56497406959534
aF122.78731894493103
aF91.22309899330139
aF81.91802287101746
aF34.929574966430664
aF194.99053478240967
aF222.98324584960938
aF170.64136719703674
aF335.9614200592041
aF35.69497013092041
aF297.64988899230957
aF43.28089904785156
aF234.8371500968933
aF36.09637713432312
aF133.54619216918945
aF333.5075261592865
aF40.028244972229004
aF261.72846603393555
aF67.2236840724945
aF339.1634931564331
aF508.55535316467285
aF130.95662307739258
aF58.79517483711243
aF81.39786195755005
aF220.84954690933228
aF419.29512906074524
aF154.98055386543274
aF274.7805049419403
aF63.24686908721924
aF473.8554139137268
aF111.98968195915222
aF134.63603377342224
aF63.87224197387695
aF38.814860105514526
aF37.37156796455383
aF65.57568907737732
aF195.78273606300354
aF92.89239811897278
aF86.01485514640808
aF169.86870503425598
aF97.8910059928894
aF327.17585802078247
aF188.35992193222046
aF219.15995502471924
aF402.9755668640137
aF209.06125903129578
aF73.96309494972229
aF141.87264013290405
aF80.44199991226196
aF112.35323405265808
aF169.918771982193
aF470.91423082351685
aF162.4056670665741
aF219.4713499546051
aF65.8925199508667
aF169.9347140789032
aF125.28746294975281
aF206.11132502555847
aF213.78079104423523
aF35.28938698768616
aF300.18466901779175
aF253.97133898735046
aF30.685062885284424
aF117.35083198547363
aF199.96325016021729
aF110.96697807312012
aF231.38137888908386
aF415.1760799884796
aF39.764140129089355
aF372.27054476737976
aF199.59405398368835
aF37.486953020095825
aF318.4273679256439
aF70.18867588043213
aF153.47929310798645
aF85.6399929523468
aF271.4754490852356
aF310.4335331916809
aF91.83303093910217
aF252.10600113868713
aF147.36681294441223
aF80.8891339302063
aF168.07712984085083
aF147.65008902549744
aF437.94244384765625
aF252.79480385780334
aF465.34734416007996
aF121.19202899932861
aF598.3915238380432
aF38.493427991867065
aF255.22990107536316
aF251.9614610671997
aF440.86073088645935
aF257.34519696235657
aF362.2527940273285
aF164.49058389663696
aF132.54295802116394
aF69.85022902488708
aF58.553751945495605
aF596.1480572223663
aF279.3222608566284
aF194.4743721485138
aF88.11633110046387
aF82.62741494178772
aF88.9209680557251
aF1066.8589639663696
aF167.52734518051147
aF315.99307084083557
aF272.5713770389557
aF38.2025260925293
aF106.48457980155945
aF39.68809485435486
aF164.07720804214478
aF107.23452591896057
aF42.90319204330444
aF369.94548892974854
aF171.21240401268005
aF35.62246799468994
aF39.00880217552185
aF447.44307804107666
aF253.7589249610901
aF80.70825290679932
aF187.0512080192566
aF93.04505896568298
aF32.211650133132935
aF186.08995389938354
aF34.09031295776367
aF119.10538601875305
aF275.0070798397064
aF35.52594995498657
aF233.42786598205566
aF232.63212299346924
aF251.56251692771912
aF138.24598288536072
aF65.85860204696655
aF88.91981601715088
aF231.9839198589325
aF115.85000085830688
aF82.50476694107056
aF40.529741048812866
aF36.57125997543335
aF122.09055185317993
aF141.49167585372925
aF310.3777401447296
aF42.849315881729126
aF246.1834180355072
aF288.1438329219818
aF134.0614287853241
aF165.65077805519104
aF71.1620569229126
aF193.81354689598083
aF130.92850518226624
aF81.7293348312378
aF241.20707511901855
aF224.23654890060425
aF388.03250885009766
aF120.87207508087158
aF185.07207202911377
aF213.51014709472656
aF38.1832640171051
aF203.83421993255615
aF180.35835099220276
aF99.55805587768555
aF364.0787498950958
aF462.9071829319
aF831.428554058075
aF38.68806791305542
aF203.09212398529053
aF149.33266592025757
aF152.841078042984
aF138.4957299232483
aF131.9358639717102
aF178.91386103630066
aF131.85406804084778
aF39.32517600059509
aF33.005659103393555
aF493.1178719997406
aF338.3721430301666
aF74.73487210273743
aF163.20324397087097
aF472.3291690349579
aF128.97163701057434
aF79.4105851650238
aF220.74186420440674
aF180.535089969635
aF410.3959000110626
aF34.960615158081055
aF232.99130296707153
aF508.26980090141296
aF109.60223007202148
aF67.4620189666748
aF405.4197919368744
aF83.40446090698242
aF77.62762498855591
aF345.2813000679016
aF34.510693073272705
aF94.88636493682861
aF85.62762808799744
aF347.6988379955292
aF391.6689569950104
aF480.36604714393616
aF151.25979208946228
aF119.21034479141235
as.