(dp0
S'successes'
p1
(lp2
I01
aI00
aI01
aI00
aI00
aI01
aI00
aI01
aI00
aI01
aI01
aI01
aI01
aI01
aI01
aI01
aI01
aI01
aI01
aI01
aI01
aI01
aI01
aI01
aI01
aI01
aI01
aI01
aI01
aI01
aI00
aI01
aI00
aI01
aI01
aI01
aI00
aI01
aI01
aI01
aI01
aI00
aI01
aI01
aI01
aI00
aI00
aI01
aI01
aI01
aI01
aI01
aI01
aI01
aI01
aI00
aI01
aI00
aI01
aI01
aI01
aI01
aI01
aI00
aI01
aI01
aI01
aI01
aI01
aI01
aI01
aI00
aI00
aI01
aI01
aI01
aI01
aI00
aI01
aI00
aI01
aI01
aI01
aI01
aI01
aI01
aI01
aI01
aI01
aI01
aI01
aI01
aI01
aI01
aI01
aI01
aI00
aI01
aI01
aI01
aI01
aI01
aI01
aI01
aI01
aI01
aI00
aI01
aI01
aI00
aI01
aI00
aI01
aI01
aI00
aI01
aI01
aI01
aI00
aI01
aI01
aI01
aI01
aI01
aI01
aI01
aI01
aI01
aI01
aI01
aI01
aI01
aI01
aI01
aI01
aI00
aI00
aI01
aI01
aI01
aI01
aI00
aI01
aI00
aI01
aI01
aI01
aI01
aI01
aI01
aI00
aI01
aI01
aI01
aI01
aI01
aI01
aI01
aI00
aI00
aI01
aI01
aI01
aI01
aI01
aI01
aI01
aI01
aI01
aI01
aI01
aI01
aI00
aI01
aI00
aI01
aI01
aI00
aI00
aI01
aI01
aI01
aI01
aI00
aI01
aI01
aI01
aI01
aI01
aI01
aI00
aI00
aI00
aI00
aI00
aI01
aI01
aI01
aI00
aI01
aI01
aI01
aI01
aI01
aI01
aI01
aI01
aI01
aI01
aI01
aI01
aI00
aI01
aI01
aI01
aI01
aI01
aI01
aI00
aI01
aI01
aI00
aI01
aI01
aI00
aI01
aI00
aI01
aI00
aI00
aI01
aI01
aI01
aI01
aI01
aI01
aI00
aI01
aI01
aI01
aI01
aI01
aI01
aI00
aI00
aI01
aI01
aI01
aI01
aI01
aI01
aI01
aI01
aI01
aI00
aI01
aI01
aI01
aI01
aI01
aI00
aI01
aI01
aI01
aI01
aI01
aI01
aI01
aI01
aI01
aI01
aI01
aI00
aI00
aI01
aI00
aI00
aI01
aI01
aI01
aI01
aI00
aI01
aI01
aI01
aI00
aI00
aI00
aI00
aI00
aI01
aI01
aI01
aI00
aI01
aI01
aI01
aI01
aI00
aI01
aI01
aI00
aI01
aI01
aI01
aI01
aI01
aI01
aI01
aI01
aI01
aI01
aI01
aI00
aI01
aI01
aI01
aI01
aI00
aI00
aI01
aI00
aI01
aI01
aI01
aI00
aI01
aI01
aI01
aI01
aI00
aI01
aI01
aI01
aI01
aI01
aI01
aI00
aI01
aI01
aI01
aI01
aI01
aI01
aI01
aI01
aI00
aI01
aI01
aI01
aI00
aI01
aI01
aI00
aI01
aI01
aI01
aI01
aI00
aI01
aI01
aI01
aI00
aI01
aI00
aI01
aI01
aI01
aI01
aI01
aI01
aI01
aI01
aI01
aI01
aI01
aI01
aI01
aI01
aI01
aI01
aI01
aI01
aI01
aI01
aI01
aI01
aI01
aI01
aI01
aI01
aI01
aI01
aI01
aI00
aI01
aI01
aI01
aI01
aI01
aI00
aI00
aI01
aI00
aI00
aI00
aI01
aI00
aI01
aI01
aI01
aI00
aI01
aI01
aI00
aI01
aI01
aI01
aI01
aI01
aI01
aI01
aI01
aI00
aI00
aI01
aI01
aI01
aI01
aI01
aI00
aI01
aI01
aI00
aI01
aI00
aI00
aI01
aI01
aI01
aI01
aI00
aI00
aI01
aI01
aI01
aI01
aI01
aI01
aI01
aI01
aI01
aI00
aI01
aI00
aI01
aI01
aI01
aI01
aI01
aI01
aI01
aI01
aI01
aI00
aI01
aI00
aI01
aI01
aI01
aI01
aI00
aI01
aI01
aI00
aI01
aI01
aI01
aI00
aI01
aI01
aI01
aI01
aI01
aI00
aI00
aI00
aI01
aI00
aI01
aI01
aI00
aI01
aI01
aI01
aI01
aI00
aI01
aI00
asS'pidxs'
p3
(lp4
I20070
aI20076
aI20039
aI20099
aI20099
aI20053
aI20025
aI20017
aI20026
aI20013
aI20071
aI20006
aI20073
aI20080
aI20083
aI20031
aI20007
aI20090
aI20091
aI20052
aI20009
aI20046
aI20019
aI20008
aI20047
aI20082
aI20068
aI20038
aI20098
aI20095
aI20044
aI20004
aI20093
aI20053
aI20003
aI20078
aI20084
aI20083
aI20069
aI20045
aI20061
aI20068
aI20066
aI20089
aI20088
aI20022
aI20070
aI20094
aI20027
aI20016
aI20089
aI20017
aI20075
aI20091
aI20048
aI20086
aI20088
aI20025
aI20032
aI20034
aI20039
aI20024
aI20027
aI20042
aI20034
aI20011
aI20057
aI20028
aI20011
aI20005
aI20068
aI20029
aI20051
aI20069
aI20094
aI20008
aI20044
aI20099
aI20080
aI20024
aI20028
aI20004
aI20058
aI20085
aI20023
aI20094
aI20040
aI20023
aI20062
aI20087
aI20064
aI20073
aI20043
aI20020
aI20031
aI20026
aI20086
aI20055
aI20096
aI20004
aI20014
aI20067
aI20046
aI20048
aI20030
aI20039
aI20087
aI20056
aI20096
aI20048
aI20063
aI20022
aI20049
aI20018
aI20065
aI20032
aI20077
aI20097
aI20049
aI20084
aI20042
aI20020
aI20039
aI20068
aI20091
aI20046
aI20014
aI20004
aI20013
aI20097
aI20013
aI20000
aI20063
aI20078
aI20081
aI20044
aI20082
aI20057
aI20076
aI20045
aI20067
aI20006
aI20046
aI20059
aI20055
aI20080
aI20054
aI20085
aI20017
aI20092
aI20059
aI20051
aI20036
aI20079
aI20079
aI20012
aI20008
aI20093
aI20074
aI20060
aI20009
aI20011
aI20096
aI20020
aI20041
aI20092
aI20067
aI20033
aI20028
aI20054
aI20056
aI20041
aI20037
aI20098
aI20080
aI20062
aI20041
aI20076
aI20059
aI20095
aI20034
aI20096
aI20082
aI20010
aI20040
aI20003
aI20095
aI20027
aI20026
aI20093
aI20043
aI20010
aI20029
aI20070
aI20010
aI20021
aI20037
aI20082
aI20000
aI20014
aI20036
aI20037
aI20079
aI20043
aI20066
aI20000
aI20062
aI20014
aI20066
aI20007
aI20041
aI20050
aI20073
aI20032
aI20001
aI20047
aI20074
aI20036
aI20050
aI20088
aI20001
aI20010
aI20061
aI20056
aI20050
aI20092
aI20072
aI20026
aI20035
aI20099
aI20063
aI20025
aI20064
aI20025
aI20047
aI20004
aI20057
aI20081
aI20042
aI20003
aI20077
aI20088
aI20033
aI20050
aI20045
aI20068
aI20063
aI20071
aI20064
aI20062
aI20052
aI20015
aI20024
aI20071
aI20086
aI20085
aI20062
aI20070
aI20024
aI20057
aI20065
aI20045
aI20061
aI20042
aI20070
aI20097
aI20006
aI20008
aI20020
aI20019
aI20012
aI20016
aI20058
aI20058
aI20098
aI20087
aI20058
aI20002
aI20007
aI20001
aI20002
aI20086
aI20055
aI20094
aI20090
aI20029
aI20084
aI20021
aI20092
aI20017
aI20077
aI20071
aI20035
aI20015
aI20074
aI20061
aI20030
aI20030
aI20019
aI20071
aI20006
aI20056
aI20079
aI20012
aI20075
aI20040
aI20064
aI20002
aI20081
aI20023
aI20018
aI20066
aI20030
aI20076
aI20035
aI20072
aI20078
aI20083
aI20097
aI20090
aI20052
aI20016
aI20069
aI20001
aI20096
aI20086
aI20083
aI20091
aI20038
aI20011
aI20044
aI20033
aI20032
aI20061
aI20021
aI20001
aI20090
aI20077
aI20087
aI20039
aI20014
aI20005
aI20035
aI20002
aI20060
aI20033
aI20009
aI20038
aI20027
aI20000
aI20049
aI20075
aI20040
aI20010
aI20088
aI20033
aI20094
aI20075
aI20080
aI20038
aI20009
aI20006
aI20065
aI20041
aI20099
aI20085
aI20017
aI20021
aI20089
aI20076
aI20067
aI20089
aI20022
aI20085
aI20098
aI20042
aI20078
aI20047
aI20038
aI20095
aI20032
aI20089
aI20084
aI20018
aI20079
aI20031
aI20060
aI20097
aI20081
aI20005
aI20051
aI20023
aI20072
aI20063
aI20022
aI20011
aI20073
aI20048
aI20056
aI20002
aI20000
aI20050
aI20054
aI20058
aI20026
aI20059
aI20016
aI20031
aI20052
aI20007
aI20054
aI20092
aI20019
aI20066
aI20069
aI20003
aI20098
aI20053
aI20012
aI20015
aI20059
aI20090
aI20008
aI20045
aI20065
aI20009
aI20020
aI20072
aI20093
aI20069
aI20074
aI20021
aI20043
aI20048
aI20073
aI20049
aI20016
aI20035
aI20074
aI20013
aI20083
aI20046
aI20052
aI20036
aI20030
aI20007
aI20015
aI20031
aI20015
aI20051
aI20055
aI20036
aI20078
aI20049
aI20034
aI20027
aI20082
aI20072
aI20043
aI20053
aI20091
aI20034
aI20077
aI20003
aI20012
aI20023
aI20087
aI20013
aI20084
aI20067
aI20028
aI20060
aI20005
aI20055
aI20095
aI20060
aI20053
aI20025
aI20044
aI20064
aI20029
aI20037
aI20054
aI20051
aI20037
aI20065
aI20047
aI20019
aI20024
aI20018
aI20093
aI20005
aI20018
aI20028
aI20081
aI20075
aI20022
aI20029
aI20040
asS'plan_length'
p5
(lp6
I2
aI17
aI16
aI31
aI30
aI1
aI18
aI7
aI31
aI7
aI2
aI6
aI3
aI12
aI5
aI16
aI5
aI5
aI22
aI4
aI8
aI6
aI12
aI43
aI5
aI23
aI5
aI31
aI21
aI7
aI6
aI38
aI9
aI1
aI4
aI5
aI18
aI18
aI22
aI2
aI13
aI5
aI25
aI14
aI8
aI4
aI27
aI5
aI38
aI3
aI8
aI5
aI10
aI1
aI13
aI27
aI22
aI3
aI5
aI29
aI10
aI4
aI1
aI4
aI7
aI1
aI11
aI17
aI25
aI31
aI4
aI11
aI6
aI2
aI11
aI27
aI4
aI13
aI14
aI14
aI9
aI28
aI1
aI1
aI11
aI1
aI8
aI8
aI4
aI11
aI1
aI7
aI2
aI41
aI16
aI10
aI1
aI47
aI5
aI10
aI12
aI3
aI3
aI3
aI2
aI29
aI15
aI11
aI14
aI4
aI18
aI10
aI22
aI18
aI11
aI10
aI9
aI14
aI11
aI1
aI4
aI27
aI17
aI23
aI13
aI10
aI18
aI9
aI1
aI16
aI7
aI38
aI12
aI1
aI20
aI1
aI1
aI11
aI12
aI1
aI1
aI49
aI9
aI2
aI10
aI1
aI14
aI20
aI13
aI16
aI49
aI7
aI18
aI12
aI22
aI16
aI15
aI2
aI15
aI16
aI11
aI21
aI1
aI19
aI6
aI2
aI5
aI35
aI11
aI5
aI12
aI5
aI39
aI26
aI23
aI6
aI12
aI2
aI6
aI11
aI7
aI16
aI22
aI29
aI36
aI2
aI3
aI1
aI4
aI32
aI20
aI12
aI1
aI5
aI3
aI17
aI24
aI23
aI6
aI18
aI26
aI3
aI2
aI12
aI5
aI6
aI6
aI11
aI48
aI11
aI1
aI1
aI50
aI30
aI10
aI5
aI20
aI11
aI33
aI36
aI1
aI19
aI18
aI1
aI42
aI19
aI6
aI1
aI4
aI17
aI6
aI9
aI1
aI2
aI5
aI10
aI23
aI5
aI10
aI36
aI21
aI12
aI12
aI1
aI9
aI5
aI2
aI8
aI7
aI2
aI4
aI23
aI16
aI8
aI3
aI8
aI11
aI3
aI18
aI1
aI6
aI8
aI6
aI15
aI6
aI5
aI13
aI20
aI1
aI18
aI10
aI6
aI19
aI7
aI7
aI12
aI2
aI25
aI5
aI18
aI40
aI7
aI30
aI10
aI1
aI6
aI22
aI5
aI21
aI13
aI2
aI13
aI3
aI6
aI11
aI14
aI5
aI23
aI29
aI29
aI15
aI20
aI13
aI14
aI8
aI8
aI11
aI29
aI11
aI21
aI3
aI10
aI10
aI17
aI2
aI12
aI13
aI9
aI21
aI7
aI36
aI12
aI3
aI1
aI13
aI1
aI21
aI11
aI2
aI3
aI14
aI13
aI7
aI18
aI26
aI14
aI30
aI9
aI3
aI32
aI2
aI1
aI1
aI5
aI6
aI8
aI27
aI3
aI8
aI13
aI3
aI2
aI5
aI16
aI3
aI3
aI35
aI20
aI3
aI19
aI3
aI11
aI21
aI39
aI54
aI19
aI2
aI20
aI33
aI1
aI24
aI5
aI25
aI17
aI34
aI17
aI9
aI10
aI1
aI4
aI2
aI5
aI5
aI5
aI1
aI2
aI8
aI30
asS'num_nodes'
p7
(lp8
I6
aI108
aI65
aI159
aI166
aI32
aI146
aI74
aI145
aI126
aI1
aI18
aI26
aI47
aI47
aI5
aI15
aI4
aI14
aI31
aI30
aI5
aI13
aI56
aI4
aI11
aI6
aI23
aI68
aI24
aI141
aI27
aI90
aI16
aI33
aI68
aI144
aI55
aI41
aI101
aI18
aI123
aI1
aI7
aI14
aI385
aI176
aI21
aI19
aI42
aI2
aI73
aI5
aI42
aI48
aI163
aI14
aI173
aI7
aI52
aI16
aI129
aI5
aI169
aI8
aI20
aI46
aI1
aI26
aI60
aI84
aI175
aI136
aI19
aI5
aI56
aI34
aI168
aI38
aI173
aI1
aI4
aI33
aI1
aI15
aI24
aI97
aI42
aI4
aI76
aI9
aI13
aI16
aI142
aI12
aI21
aI191
aI20
aI15
aI12
aI30
aI1
aI1
aI54
aI1
aI25
aI186
aI12
aI13
aI150
aI11
aI388
aI1
aI8
aI150
aI2
aI52
aI35
aI150
aI36
aI1
aI167
aI25
aI16
aI17
aI3
aI3
aI3
aI2
aI42
aI53
aI42
aI14
aI10
aI147
aI172
aI153
aI62
aI37
aI115
aI22
aI126
aI14
aI190
aI25
aI76
aI45
aI1
aI4
aI99
aI159
aI35
aI69
aI96
aI28
aI77
aI31
aI1
aI141
aI91
aI32
aI8
aI74
aI29
aI1
aI86
aI1
aI1
aI11
aI13
aI1
aI1
aI169
aI60
aI76
aI23
aI2
aI131
aI151
aI49
aI1
aI18
aI24
aI301
aI33
aI27
aI89
aI7
aI21
aI42
aI152
aI387
aI174
aI142
aI362
aI35
aI40
aI17
aI95
aI2
aI33
aI76
aI35
aI71
aI9
aI42
aI26
aI15
aI8
aI37
aI12
aI81
aI12
aI33
aI13
aI115
aI131
aI88
aI89
aI16
aI40
aI381
aI3
aI14
aI90
aI46
aI167
aI7
aI153
aI145
aI16
aI35
aI153
aI56
aI10
aI3
aI176
aI1
aI15
aI35
aI21
aI44
aI1
aI84
aI137
aI7
aI3
aI71
aI69
aI44
aI89
aI90
aI47
aI6
aI167
aI2
aI13
aI14
aI7
aI19
aI161
aI46
aI152
aI57
aI1
aI1
aI77
aI32
aI32
aI11
aI61
aI14
aI78
aI63
aI47
aI187
aI60
aI63
aI1
aI106
aI55
aI162
aI1
aI75
aI33
aI121
aI124
aI126
aI150
aI123
aI6
aI1
aI4
aI84
aI71
aI9
aI10
aI1
aI162
aI4
aI6
aI178
aI52
aI41
aI20
aI16
aI152
aI33
aI25
aI12
aI1
aI18
aI15
aI97
aI4
aI20
aI12
aI4
aI176
aI116
aI29
aI142
aI116
aI79
aI27
aI152
aI6
aI23
aI16
aI5
aI118
aI46
aI1
aI14
aI13
aI18
aI28
aI89
aI26
aI45
aI59
aI38
aI1
aI21
aI73
aI10
aI139
aI19
aI7
aI14
aI178
aI15
aI2
aI318
aI65
aI16
aI22
aI42
aI96
aI7
aI72
aI11
aI150
aI1
aI196
aI8
aI25
aI5
aI40
aI23
aI4
aI18
aI87
aI13
aI22
aI46
aI17
aI35
aI33
aI91
aI72
aI88
aI46
aI25
aI61
aI34
aI48
aI39
aI21
aI47
aI24
aI12
aI56
aI21
aI433
aI2
aI28
aI68
aI13
aI62
aI140
aI82
aI7
aI82
aI117
aI203
aI135
aI96
aI31
aI3
aI1
aI144
aI96
aI1
aI199
aI24
aI19
aI2
aI6
aI18
aI54
aI7
aI50
aI157
aI153
aI57
aI27
aI118
aI69
aI101
aI129
aI88
aI5
aI111
aI1
aI193
aI110
aI9
aI6
aI9
aI11
aI163
aI145
aI90
aI4
aI8
aI60
aI30
aI3
aI5
aI29
aI4
aI163
aI5
aI150
aI149
aI38
aI16
aI72
aI3
aI70
aI107
aI39
aI94
aI217
aI43
aI187
aI3
aI127
aI45
aI1
aI133
aI30
aI14
aI65
aI75
aI27
aI92
aI170
aI116
aI26
aI24
aI1
aI4
aI126
aI190
aI122
aI2
aI156
aI12
aI5
aI98
aI16
aI1
aI2
aI8
aI248
aI65
aI133
asS'times'
p9
(lp10
F19.48731303215027
aF304.35276889801025
aF147.0289351940155
aF302.503543138504
aF300.80306792259216
aF87.1064829826355
aF302.0907039642334
aF200.6116180419922
aF306.67354798316956
aF238.5549578666687
aF18.015262126922607
aF78.59070014953613
aF80.42354083061218
aF153.67873096466064
aF127.32028603553772
aF19.614482879638672
aF54.60785722732544
aF33.75418710708618
aF66.89570784568787
aF66.8144519329071
aF85.37842988967896
aF28.395561933517456
aF36.45969200134277
aF159.1692600250244
aF26.162194967269897
aF39.516363859176636
aF33.592000007629395
aF64.0771689414978
aF218.3006100654602
aF51.05836510658264
aF302.27935218811035
aF104.55580401420593
aF304.1152181625366
aF52.422873973846436
aF122.49572205543518
aF174.807275056839
aF300.78591203689575
aF133.31859397888184
aF50.29680013656616
aF235.00139999389648
aF67.17202520370483
aF301.19123697280884
aF12.346385955810547
aF27.800323963165283
aF40.08286190032959
aF301.07391810417175
aF300.7909679412842
aF80.93297696113586
aF82.43205213546753
aF117.21053695678711
aF19.19467282295227
aF188.59393095970154
aF26.453877925872803
aF118.28731298446655
aF107.14054203033447
aF300.90822982788086
aF53.94412708282471
aF301.6952610015869
aF34.33167791366577
aF137.22485780715942
aF49.95151090621948
aF241.0872769355774
aF20.903846979141235
aF300.4818639755249
aF39.461812019348145
aF43.58826422691345
aF87.3759138584137
aF16.082478046417236
aF67.39949917793274
aF171.1159701347351
aF184.0925829410553
aF305.5422008037567
aF301.40999388694763
aF29.661415815353394
aF28.375638008117676
aF146.21864700317383
aF73.30550599098206
aF300.5042200088501
aF92.26656317710876
aF300.84848403930664
aF18.25345492362976
aF25.06452989578247
aF149.66192293167114
aF12.946800947189331
aF54.52232480049133
aF79.37038588523865
aF249.90476512908936
aF148.62491488456726
aF23.39841389656067
aF118.79234600067139
aF35.45063900947571
aF33.85530209541321
aF69.75959706306458
aF275.1987838745117
aF33.4684419631958
aF79.9939239025116
aF300.6497280597687
aF66.88517379760742
aF57.78293585777283
aF46.47815203666687
aF116.02809286117554
aF13.272708892822266
aF14.48677921295166
aF100.93098902702332
aF11.221182823181152
aF103.02997708320618
aF302.88496589660645
aF43.865097999572754
aF35.34233283996582
aF305.05902194976807
aF54.274811029434204
aF300.96628308296204
aF12.041104793548584
aF38.11032700538635
aF300.3679029941559
aF33.90692210197449
aF185.93019890785217
aF95.74179792404175
aF301.04170203208923
aF87.17890405654907
aF11.793503999710083
aF298.82225608825684
aF59.28955793380737
aF55.30403995513916
aF57.645638942718506
aF22.21000099182129
aF18.078183889389038
aF21.115833044052124
aF17.178478002548218
aF137.176038980484
aF125.89767909049988
aF78.71985483169556
aF63.99107003211975
aF37.66970896720886
aF258.9806990623474
aF300.2341060638428
aF304.8478729724884
aF105.18754410743713
aF112.00788617134094
aF195.4280068874359
aF77.11553907394409
aF300.4126341342926
aF52.54801082611084
aF303.4008548259735
aF53.84976410865784
aF202.16896986961365
aF106.4097650051117
aF13.184311866760254
aF23.438170909881592
aF216.6518099308014
aF300.0189290046692
aF100.81384611129761
aF140.91708612442017
aF194.8093240261078
aF73.8809540271759
aF159.23523783683777
aF87.52579808235168
aF11.197082996368408
aF303.35068917274475
aF301.8952441215515
aF84.99641919136047
aF37.639731884002686
aF190.99593210220337
aF62.941187143325806
aF12.114043951034546
aF231.4785189628601
aF11.770755052566528
aF11.396570205688477
aF51.87127995491028
aF60.39432501792908
aF13.375405073165894
aF12.045048952102661
aF302.80783700942993
aF206.2470850944519
aF301.5267610549927
aF66.86834287643433
aF14.494333982467651
aF300.3083038330078
aF304.0161590576172
aF131.69151210784912
aF12.429341077804565
aF57.599189043045044
aF93.70377016067505
aF300.2548990249634
aF89.26330399513245
aF120.34854483604431
aF272.5993540287018
aF39.193487882614136
aF82.95630979537964
aF93.24553203582764
aF301.67109179496765
aF300.20026087760925
aF301.13142800331116
aF303.1214528083801
aF300.6367928981781
aF121.40070390701294
aF90.8620810508728
aF63.4990131855011
aF303.9896869659424
aF18.57434606552124
aF81.89031791687012
aF165.80991005897522
aF92.60674905776978
aF170.5534520149231
aF31.854440927505493
aF124.90798616409302
aF47.932908058166504
aF31.415612936019897
aF34.206854820251465
aF137.9696831703186
aF55.52116417884827
aF300.8416750431061
aF35.84317708015442
aF144.36167216300964
aF50.87833499908447
aF271.1220450401306
aF253.08817410469055
aF222.71716713905334
aF306.44522976875305
aF49.24537682533264
aF101.50232887268066
aF300.3109188079834
aF18.946701049804688
aF40.845881938934326
aF301.16371393203735
aF98.44766616821289
aF302.10400795936584
aF33.907402992248535
aF304.54250288009644
aF303.7857298851013
aF71.20361089706421
aF104.33586692810059
aF297.16203904151917
aF172.0927028656006
aF27.695719003677368
aF22.956702947616577
aF303.24861907958984
aF14.351040124893188
aF36.92272210121155
aF128.9932038784027
aF92.15304493904114
aF142.6792778968811
aF12.537093877792358
aF303.12261295318604
aF300.79175901412964
aF28.095707893371582
aF20.192845106124878
aF158.51464080810547
aF159.58648204803467
aF121.85750412940979
aF158.37989902496338
aF242.0766680240631
aF195.73506712913513
aF28.89148712158203
aF300.5250418186188
aF16.817260026931763
aF61.99066400527954
aF36.85230588912964
aF35.12679982185364
aF43.87152290344238
aF300.7108209133148
aF78.15547680854797
aF296.24118995666504
aF116.69939494132996
aF13.476556062698364
aF14.009779930114746
aF229.88936305046082
aF133.54276084899902
aF78.5864429473877
aF36.265437841415405
aF119.81517100334167
aF58.569538831710815
aF304.1756889820099
aF301.7923140525818
aF149.08415699005127
aF303.6247100830078
aF301.0855641365051
aF227.69876909255981
aF15.4377920627594
aF247.38625407218933
aF134.04167413711548
aF301.394159078598
aF14.490141868591309
aF206.06294202804565
aF104.98717999458313
aF300.0322461128235
aF301.39669394493103
aF302.6742730140686
aF301.5106420516968
aF301.69713020324707
aF33.74935793876648
aF18.692825078964233
aF25.470794916152954
aF302.61044812202454
aF137.87185883522034
aF34.46400308609009
aF45.61176681518555
aF25.92628502845764
aF300.6016619205475
aF28.772050857543945
aF57.2765908241272
aF303.5852098464966
aF79.79480695724487
aF126.38444089889526
aF45.801494121551514
aF55.517600774765015
aF274.4666910171509
aF112.04492712020874
aF77.37651085853577
aF51.187065839767456
aF13.235010862350464
aF55.9818651676178
aF45.39537501335144
aF303.86538887023926
aF37.97657513618469
aF51.408151149749756
aF50.81757211685181
aF22.53202199935913
aF300.56683588027954
aF301.198312997818
aF60.07897996902466
aF300.6766948699951
aF149.29950094223022
aF143.92054510116577
aF58.36822509765625
aF302.757022857666
aF28.18508005142212
aF61.06202793121338
aF59.727940797805786
aF20.134294986724854
aF300.2074120044708
aF121.82582497596741
aF14.539361953735352
aF37.848222970962524
aF59.267544984817505
aF63.235167026519775
aF78.22323608398438
aF303.3743209838867
aF55.28582692146301
aF67.70279693603516
aF126.8467710018158
aF113.24923086166382
aF11.975986957550049
aF84.21902894973755
aF120.74550199508667
aF44.445125102996826
aF300.35560297966003
aF87.91145992279053
aF36.7389280796051
aF48.495609998703
aF302.83203411102295
aF52.643913984298706
aF17.289310932159424
aF301.8954608440399
aF147.64141297340393
aF38.692129135131836
aF82.47171998023987
aF168.9507350921631
aF308.7718949317932
aF53.37159085273743
aF191.0893177986145
aF43.838634967803955
aF303.45940494537354
aF14.789972066879272
aF301.1530430316925
aF36.21797013282776
aF91.84816908836365
aF28.97247004508972
aF109.2500638961792
aF92.20111894607544
aF23.349982976913452
aF60.51555299758911
aF86.42855310440063
aF44.415091037750244
aF60.52389097213745
aF108.18008708953857
aF61.80736804008484
aF112.82398700714111
aF142.35691595077515
aF210.04957008361816
aF126.00056982040405
aF180.76362586021423
aF146.52498698234558
aF72.90160393714905
aF99.17575001716614
aF76.33187508583069
aF80.6845588684082
aF133.0844841003418
aF67.04011702537537
aF118.3402168750763
aF47.97336411476135
aF56.329965114593506
aF113.16927599906921
aF80.05410385131836
aF301.1705038547516
aF19.855795860290527
aF74.88865900039673
aF135.39183902740479
aF50.50463008880615
aF185.96988892555237
aF301.8052439689636
aF300.8193521499634
aF40.181437969207764
aF301.2360680103302
aF301.3323748111725
aF300.61330485343933
aF298.6165680885315
aF301.3933210372925
aF93.41768288612366
aF20.116788864135742
aF18.54159903526306
aF301.05783796310425
aF141.6024580001831
aF13.743389129638672
aF302.9757399559021
aF89.11526489257812
aF61.53930997848511
aF18.08126401901245
aF41.253540992736816
aF68.34438490867615
aF116.29547882080078
aF36.768775939941406
aF122.78590202331543
aF301.5771961212158
aF303.0093729496002
aF143.15875101089478
aF78.86073899269104
aF276.25262999534607
aF161.57430481910706
aF73.54096007347107
aF301.4452681541443
aF226.98276090621948
aF30.020813941955566
aF308.3974859714508
aF13.092926979064941
aF300.041011095047
aF300.76844000816345
aF15.784724950790405
aF26.55667805671692
aF37.44739389419556
aF42.27288484573364
aF300.24293780326843
aF300.69973611831665
aF170.6617648601532
aF20.969969034194946
aF39.1064190864563
aF251.98254299163818
aF54.43503379821777
aF19.14786410331726
aF26.705466985702515
aF84.51452803611755
aF23.990669012069702
aF300.2266161441803
aF23.27565908432007
aF301.9324200153351
aF250.96000790596008
aF118.5532579421997
aF45.8711678981781
aF131.51789498329163
aF20.54257082939148
aF132.86024594306946
aF221.05368781089783
aF147.08636116981506
aF234.4555699825287
aF304.66929388046265
aF124.24633693695068
aF301.5456931591034
aF16.868825912475586
aF265.5967540740967
aF150.8856930732727
aF17.049161911010742
aF300.8647229671478
aF111.52233409881592
aF33.66099309921265
aF303.2286469936371
aF174.54557299613953
aF91.94858002662659
aF240.84276700019836
aF301.26509189605713
aF184.50570106506348
aF77.3778760433197
aF58.942221879959106
aF22.97774910926819
aF25.602159023284912
aF302.32555317878723
aF303.4435489177704
aF302.4638628959656
aF16.145465850830078
aF300.2275969982147
aF40.1513249874115
aF28.193937063217163
aF303.2868821620941
aF60.34354782104492
aF13.874068975448608
aF16.337679147720337
aF37.87937879562378
aF300.1462788581848
aF146.12123894691467
aF301.67632818222046
as.