(dp0
S'successes'
p1
(lp2
I01
aI01
aI01
aI01
aI01
aI01
aI01
aI01
aI01
aI01
aI01
aI01
aI01
aI01
aI01
aI01
aI01
aI01
aI01
aI01
aI01
aI01
aI01
aI00
aI01
aI01
aI01
aI01
aI01
aI00
aI00
aI01
aI00
aI01
aI00
aI01
aI01
aI01
aI01
aI01
aI00
aI00
aI00
aI00
aI01
aI01
aI00
aI00
aI01
aI01
aI01
aI01
aI00
aI01
aI00
aI00
aI01
aI01
aI01
aI01
aI01
aI01
aI01
aI01
aI01
aI00
aI01
aI01
aI01
aI01
aI01
aI01
aI00
aI01
aI01
aI01
aI01
aI01
aI01
aI01
aI01
aI01
aI01
aI01
aI00
aI01
aI01
aI01
aI01
aI00
aI01
aI01
aI01
aI01
aI01
aI01
aI01
aI01
aI00
aI01
aI01
aI01
aI00
aI01
aI01
aI00
aI01
aI01
aI00
aI01
aI01
aI01
aI01
aI01
aI01
aI01
aI01
aI01
aI01
aI00
aI01
aI01
aI01
aI01
aI01
aI00
aI01
aI01
aI01
aI01
aI00
aI01
aI01
aI01
aI01
aI01
aI01
aI01
aI01
aI01
aI01
aI01
aI01
aI01
aI01
aI01
aI01
aI00
aI01
aI01
aI01
aI01
aI01
aI01
aI01
aI01
aI00
aI00
aI01
aI00
aI01
aI00
aI01
aI00
aI01
aI01
aI01
aI01
aI01
aI01
aI00
aI01
aI01
aI01
aI00
aI01
aI00
aI01
aI01
aI01
aI01
aI01
aI00
aI01
aI01
aI01
aI01
aI01
aI01
aI01
aI01
aI01
aI01
aI01
aI01
aI01
aI00
aI00
aI01
aI01
aI01
aI01
aI00
aI00
aI01
aI00
aI00
aI01
aI01
aI01
aI01
aI01
aI01
aI01
aI01
aI01
aI01
aI00
aI01
aI01
aI01
aI01
aI01
aI01
aI01
aI01
aI01
aI01
aI01
aI01
aI01
aI01
aI01
aI01
aI01
aI01
aI01
aI01
aI01
aI01
aI01
aI01
aI01
aI01
aI01
aI01
aI01
aI01
aI01
aI01
aI01
aI01
aI01
aI01
aI01
aI01
aI01
aI01
aI00
aI01
aI01
aI01
aI01
aI01
aI01
aI01
aI01
aI01
aI01
aI00
aI01
aI01
aI01
aI00
aI01
aI01
aI01
aI01
aI01
aI01
aI01
aI01
aI01
aI00
aI01
aI00
aI01
aI00
aI01
aI01
aI01
aI00
aI01
aI01
aI01
aI00
aI01
aI01
aI01
aI00
aI01
aI01
aI01
aI01
aI01
aI01
aI00
aI01
aI00
aI01
aI00
aI01
aI01
aI01
aI01
aI00
aI01
aI01
aI01
aI01
aI01
aI01
aI01
aI01
aI01
aI01
aI00
aI01
aI01
aI01
aI01
aI00
aI01
aI01
aI01
aI01
asS'plan_length'
p3
(lp4
I19
aI2
aI8
aI29
aI3
aI5
aI6
aI9
aI51
aI8
aI2
aI1
aI11
aI8
aI10
aI6
aI18
aI10
aI8
aI29
aI25
aI3
aI3
aI3
aI3
aI7
aI2
aI2
aI16
aI16
aI16
aI8
aI8
aI4
aI4
aI1
aI5
aI9
aI15
aI3
aI3
aI3
aI3
aI3
aI6
aI3
aI3
aI3
aI7
aI5
aI26
aI13
aI13
aI11
aI11
aI11
aI6
aI2
aI32
aI4
aI2
aI1
aI1
aI18
aI27
aI27
aI2
aI5
aI3
aI8
aI4
aI3
aI3
aI48
aI10
aI1
aI1
aI1
aI45
aI2
aI9
aI14
aI1
aI2
aI2
aI2
aI3
aI5
aI3
aI3
aI1
aI10
aI21
aI1
aI1
aI4
aI10
aI32
aI32
aI12
aI1
aI30
aI30
aI5
aI8
aI8
aI2
aI15
aI15
aI1
aI32
aI1
aI19
aI33
aI5
aI5
aI19
aI2
aI7
aI7
aI1
aI3
aI17
aI3
aI26
aI26
aI6
aI1
aI10
aI15
aI15
aI15
aI18
aI6
aI5
aI5
aI3
aI6
aI2
aI1
aI2
aI1
aI8
aI10
aI32
aI1
aI4
aI4
aI1
aI3
aI7
aI2
aI31
aI7
aI1
aI1
aI1
aI1
aI2
aI2
aI3
aI3
aI1
aI1
aI15
aI2
aI14
aI7
aI7
aI2
aI2
aI1
aI23
aI6
aI6
aI4
aI4
aI58
aI2
aI16
aI8
aI10
aI10
aI2
aI8
aI2
aI7
aI4
aI13
aI2
aI29
aI3
aI28
aI13
aI4
aI3
aI3
aI3
aI25
aI13
aI6
aI11
aI11
aI11
aI3
aI3
aI3
aI2
aI2
aI3
aI8
aI1
aI16
aI8
aI1
aI4
aI8
aI8
aI2
aI2
aI6
aI7
aI13
aI7
aI6
aI11
aI5
aI4
aI5
aI11
aI1
aI2
aI1
aI1
aI11
aI2
aI12
aI8
aI1
aI8
aI1
aI4
aI3
aI6
aI3
aI1
aI1
aI2
aI27
aI8
aI31
aI7
aI47
aI1
aI1
aI1
aI2
aI22
aI22
aI29
aI2
aI1
aI15
aI27
aI13
aI8
aI2
aI6
aI5
aI5
aI2
aI6
aI1
aI1
aI1
aI2
aI3
aI9
aI2
aI5
aI4
aI28
aI4
aI4
aI1
aI1
aI28
aI28
aI3
aI14
aI11
aI11
aI7
aI24
aI31
aI31
aI2
aI7
aI37
aI37
aI2
aI8
aI6
aI5
aI7
aI34
aI34
aI39
aI39
aI14
aI14
aI7
aI9
aI9
aI14
aI14
aI8
aI2
aI5
aI2
aI8
aI21
aI15
aI2
aI2
aI2
aI2
aI34
aI12
aI14
aI22
aI22
aI7
aI1
aI13
aI17
asS'num_nodes'
p5
(lp6
I89
aI16
aI21
aI147
aI10
aI21
aI61
aI36
aI143
aI31
aI6
aI4
aI31
aI19
aI30
aI29
aI55
aI30
aI45
aI72
aI66
aI20
aI43
aI131
aI19
aI40
aI9
aI13
aI41
aI164
aI150
aI28
aI159
aI14
aI133
aI13
aI39
aI38
aI32
aI10
aI390
aI133
aI176
aI156
aI16
aI7
aI114
aI134
aI61
aI15
aI87
aI51
aI146
aI46
aI172
aI135
aI20
aI15
aI79
aI15
aI330
aI4
aI17
aI50
aI66
aI87
aI5
aI33
aI7
aI27
aI14
aI16
aI143
aI119
aI34
aI4
aI3
aI3
aI121
aI6
aI38
aI47
aI3
aI9
aI61
aI5
aI10
aI32
aI8
aI142
aI4
aI51
aI53
aI4
aI3
aI29
aI29
aI106
aI162
aI30
aI6
aI88
aI158
aI26
aI35
aI148
aI8
aI50
aI122
aI4
aI98
aI3
aI56
aI146
aI14
aI15
aI113
aI6
aI27
aI160
aI30
aI24
aI50
aI30
aI97
aI118
aI31
aI28
aI50
aI48
aI58
aI73
aI59
aI21
aI12
aI14
aI9
aI20
aI8
aI5
aI19
aI3
aI32
aI36
aI173
aI3
aI11
aI157
aI3
aI17
aI28
aI10
aI108
aI32
aI4
aI3
aI124
aI150
aI5
aI129
aI9
aI149
aI7
aI143
aI56
aI5
aI46
aI30
aI22
aI5
aI105
aI229
aI79
aI18
aI143
aI11
aI131
aI141
aI5
aI124
aI28
aI54
aI105
aI8
aI45
aI15
aI22
aI10
aI92
aI6
aI100
aI32
aI74
aI48
aI9
aI10
aI127
aI127
aI104
aI51
aI31
aI40
aI132
aI180
aI15
aI154
aI129
aI6
aI6
aI10
aI36
aI3
aI48
aI22
aI9
aI32
aI22
aI146
aI6
aI5
aI40
aI35
aI55
aI31
aI31
aI49
aI23
aI85
aI28
aI29
aI3
aI6
aI4
aI13
aI37
aI25
aI34
aI29
aI3
aI34
aI3
aI21
aI86
aI28
aI8
aI3
aI3
aI5
aI129
aI114
aI117
aI30
aI109
aI3
aI8
aI4
aI7
aI105
aI149
aI89
aI15
aI3
aI78
aI144
aI47
aI32
aI6
aI24
aI40
aI82
aI10
aI17
aI5
aI170
aI52
aI5
aI8
aI26
aI6
aI16
aI19
aI125
aI10
aI151
aI3
aI133
aI98
aI366
aI9
aI51
aI54
aI147
aI30
aI70
aI76
aI137
aI5
aI48
aI108
aI134
aI6
aI39
aI21
aI19
aI18
aI106
aI166
aI140
aI162
aI44
aI130
aI33
aI24
aI36
aI53
aI127
aI31
aI5
aI17
aI8
aI48
aI74
aI37
aI5
aI5
aI6
aI183
aI98
aI39
aI86
aI79
aI131
aI25
aI7
aI72
aI59
asS'times'
p7
(lp8
F173.47102618217468
aF29.250298023223877
aF53.98823308944702
aF246.18404293060303
aF30.657406091690063
aF56.64420199394226
aF118.72698402404785
aF98.29864978790283
aF290.64556312561035
aF66.84601593017578
aF25.203644037246704
aF22.880649089813232
aF84.38669991493225
aF64.98178505897522
aF95.92171692848206
aF66.6407470703125
aF118.42897486686707
aF67.82741189002991
aF79.04515099525452
aF165.24053192138672
aF160.78221988677979
aF49.20233201980591
aF64.71046996116638
aF312.88528418540955
aF40.84032487869263
aF64.85575103759766
aF28.495436906814575
aF40.3421950340271
aF114.21869492530823
aF301.42316198349
aF300.14687418937683
aF64.01453518867493
aF303.0521981716156
aF39.90611505508423
aF302.11236095428467
aF39.8567590713501
aF63.64297890663147
aF74.92583584785461
aF89.35644698143005
aF34.01447606086731
aF300.00230717658997
aF300.2749261856079
aF300.8170499801636
aF301.93633699417114
aF49.21801400184631
aF26.938016891479492
aF300.11796593666077
aF305.1026439666748
aF147.6787338256836
aF60.01885795593262
aF170.67366194725037
aF137.0335841178894
aF301.0579159259796
aF95.80899000167847
aF301.3375840187073
aF302.4313020706177
aF55.02487897872925
aF40.12523293495178
aF180.48172998428345
aF72.65270113945007
aF287.33538818359375
aF18.424010038375854
aF34.98621392250061
aF105.62001705169678
aF158.58579206466675
aF302.9633800983429
aF23.638159036636353
aF65.26612186431885
aF28.745121002197266
aF76.02354884147644
aF44.660332918167114
aF36.87285590171814
aF302.4789409637451
aF253.11850500106812
aF90.91253209114075
aF21.746800184249878
aF20.12498903274536
aF19.043691158294678
aF227.55584120750427
aF24.3660249710083
aF93.47857284545898
aF108.72029495239258
aF16.153980016708374
aF25.09685206413269
aF305.12000608444214
aF26.340535163879395
aF26.81258201599121
aF66.41169285774231
aF63.10085701942444
aF301.5193889141083
aF22.129404067993164
aF93.56023383140564
aF116.92407011985779
aF18.639889001846313
aF21.076967000961304
aF75.6406672000885
aF61.53595805168152
aF197.2777979373932
aF303.6612958908081
aF94.58857703208923
aF19.01047706604004
aF166.08403301239014
aF300.0222210884094
aF52.452593088150024
aF71.48119187355042
aF300.2389259338379
aF25.82097601890564
aF91.08839297294617
aF300.58514404296875
aF21.75539994239807
aF193.5131378173828
aF17.198685884475708
aF121.08601307868958
aF249.01961207389832
aF39.76578998565674
aF41.593433141708374
aF192.8129620552063
aF34.31112813949585
aF99.31692409515381
aF303.9878480434418
aF43.430423974990845
aF67.95921993255615
aF105.94503808021545
aF47.244450092315674
aF181.5617961883545
aF300.3621289730072
aF167.4722638130188
aF51.644367933273315
aF81.57456183433533
aF108.08644795417786
aF305.775554895401
aF174.2947838306427
aF121.52863907814026
aF54.467772006988525
aF56.62352800369263
aF57.57785606384277
aF31.405680894851685
aF45.546205043792725
aF22.99374794960022
aF19.512258052825928
aF43.070061922073364
aF18.341973781585693
aF67.96459484100342
aF67.53735184669495
aF284.4175069332123
aF19.311443090438843
aF53.867063999176025
aF307.41076588630676
aF19.214916944503784
aF39.49983310699463
aF68.54434704780579
aF27.011146783828735
aF209.12100887298584
aF59.44482898712158
aF21.90234613418579
aF16.86742901802063
aF301.96443819999695
aF302.55673599243164
aF23.42196297645569
aF300.6315689086914
aF58.4094820022583
aF301.539608001709
aF30.582844018936157
aF300.48589992523193
aF113.0927221775055
aF24.096312999725342
aF112.84499502182007
aF128.63464903831482
aF78.07778096199036
aF24.021606922149658
aF300.60680294036865
aF200.20326805114746
aF155.94741296768188
aF52.4796621799469
aF301.51645493507385
aF31.281573057174683
aF300.90768218040466
aF299.5948920249939
aF26.943445920944214
aF292.6902551651001
aF70.98473906517029
aF119.28548979759216
aF302.1804168224335
aF24.18472719192505
aF85.07373094558716
aF33.47663402557373
aF58.050421953201294
aF37.078901052474976
aF141.95406985282898
aF20.851961851119995
aF202.01902794837952
aF87.48960900306702
aF170.79155015945435
aF107.54639792442322
aF39.88063097000122
aF49.3514609336853
aF300.1544370651245
aF302.68388986587524
aF169.95088505744934
aF86.61380696296692
aF137.25410890579224
aF83.48173689842224
aF302.91171407699585
aF300.1306059360504
aF35.51840901374817
aF304.8727397918701
aF301.61027097702026
aF25.972425937652588
aF29.818193912506104
aF36.786351919174194
aF121.27809691429138
aF16.631335020065308
aF121.51533484458923
aF54.92566204071045
aF28.949932098388672
aF49.193564891815186
aF68.15395283699036
aF302.37079191207886
aF24.343780040740967
aF28.010688066482544
aF75.65173983573914
aF71.46154808998108
aF199.50497484207153
aF65.14600396156311
aF73.96566390991211
aF106.36818480491638
aF66.72189903259277
aF181.26506304740906
aF41.10761284828186
aF107.38895297050476
aF18.177855968475342
aF32.31660509109497
aF22.6930730342865
aF31.533534049987793
aF83.65111994743347
aF51.39148187637329
aF84.70539498329163
aF64.23825812339783
aF20.700838088989258
aF74.91261696815491
aF19.83226704597473
aF72.71147394180298
aF108.10828304290771
aF48.818593978881836
aF30.113226890563965
aF19.260760068893433
aF17.020507097244263
aF23.382972955703735
aF245.68210792541504
aF282.45800614356995
aF248.94992184638977
aF67.69255900382996
aF256.4377269744873
aF22.35984182357788
aF21.10753893852234
aF21.87702703475952
aF24.431744813919067
aF213.05684280395508
aF301.429682970047
aF190.0086019039154
aF66.70013999938965
aF19.28998613357544
aF150.32076787948608
aF244.45521187782288
aF101.60724782943726
aF85.54150390625
aF26.11246395111084
aF54.97900700569153
aF87.85297107696533
aF302.08832907676697
aF28.33483099937439
aF49.180689096450806
aF30.1682391166687
aF300.3910930156708
aF79.55547094345093
aF24.859678983688354
aF25.366883993148804
aF58.586730003356934
aF25.577724933624268
aF38.850494146347046
aF39.609429121017456
aF217.3689000606537
aF30.27694296836853
aF304.76978182792664
aF17.08698797225952
aF300.321897983551
aF225.75571990013123
aF300.0584650039673
aF27.98736596107483
aF105.98081493377686
aF124.7856969833374
aF300.1230299472809
aF70.45321798324585
aF165.88983297348022
aF188.2134928703308
aF303.880331993103
aF23.72005605697632
aF80.78944301605225
aF265.1861689090729
aF302.83588218688965
aF30.329728841781616
aF121.83600616455078
aF130.7930109500885
aF102.44914388656616
aF61.657814025878906
aF241.54003381729126
aF300.94280791282654
aF250.9655478000641
aF300.04221200942993
aF123.53098797798157
aF301.12510085105896
aF75.00683903694153
aF63.90543603897095
aF96.93793296813965
aF98.38224506378174
aF300.0844120979309
aF66.52385902404785
aF25.511625051498413
aF58.733365058898926
aF32.204489946365356
aF94.89578914642334
aF152.25330901145935
aF93.7828459739685
aF24.678982973098755
aF25.334371089935303
aF28.90831208229065
aF301.45124101638794
aF214.08647894859314
aF96.46678805351257
aF159.98865795135498
aF174.6946578025818
aF302.0032889842987
aF84.5886778831482
aF23.59319496154785
aF145.1138300895691
aF120.53074598312378
as.