(dp0
S'successes'
p1
(lp2
I01
aI01
aI01
aI01
aI01
aI00
aI01
aI01
aI01
aI01
aI01
aI01
aI01
aI01
aI01
aI01
aI01
aI01
aI00
aI01
aI01
aI01
aI01
aI01
aI01
aI01
aI00
aI01
aI01
aI01
aI01
aI01
aI01
aI01
aI01
aI01
aI00
aI01
aI01
aI01
aI01
aI01
aI01
aI01
aI01
aI01
aI01
aI01
aI01
aI01
aI01
aI01
aI01
aI01
aI01
aI01
aI01
aI01
aI01
aI01
aI01
aI01
aI01
aI01
aI00
aI01
aI01
aI01
aI01
aI01
aI01
aI01
aI01
aI01
aI01
aI01
aI01
aI01
aI01
aI00
aI01
aI01
aI01
aI01
aI01
aI01
aI01
aI01
aI01
aI01
aI01
aI01
aI01
aI01
aI01
aI01
aI01
aI01
aI01
aI01
aI01
aI01
aI01
aI01
aI01
aI01
aI01
aI01
aI01
aI01
aI01
aI01
aI01
aI01
aI01
aI01
aI01
aI01
aI01
aI01
aI01
aI01
aI01
aI01
aI01
aI01
aI01
aI01
aI01
aI01
aI01
aI01
aI01
aI01
aI01
aI01
aI01
aI00
aI01
aI01
aI01
aI01
aI01
aI01
aI01
aI01
aI01
aI01
aI01
aI01
aI01
aI01
aI01
aI01
aI01
aI01
aI01
aI01
aI01
aI01
aI00
aI01
aI01
aI01
aI01
aI01
aI01
aI01
aI01
aI01
aI01
aI01
aI01
aI01
aI01
aI01
aI01
aI01
aI01
aI01
aI01
aI01
aI01
aI01
aI01
aI01
aI01
aI01
aI01
aI01
aI01
aI01
aI01
aI01
aI01
aI01
aI01
aI01
aI01
aI01
aI01
aI01
aI01
aI01
aI01
aI01
aI01
aI01
aI01
aI01
aI01
aI01
aI01
aI01
aI01
aI01
aI01
aI01
aI00
aI01
aI01
aI01
aI01
aI01
aI01
aI01
aI01
aI01
aI01
aI01
aI01
aI01
aI01
aI01
aI01
aI01
aI01
aI01
aI01
aI01
aI01
aI01
aI01
aI01
aI01
aI01
aI01
aI00
aI01
aI01
aI01
aI01
aI01
aI01
aI01
aI01
aI01
aI01
aI01
aI01
aI01
aI01
aI01
aI01
aI01
aI01
aI01
aI01
aI01
aI01
aI01
aI01
aI01
aI01
aI01
aI01
aI01
aI01
aI01
aI01
aI01
aI01
aI01
aI01
aI01
aI01
aI01
aI01
aI01
aI01
aI01
aI01
aI01
aI01
aI01
aI01
aI01
aI01
aI01
aI01
aI01
aI01
aI01
aI01
aI01
aI01
aI01
aI01
aI01
aI00
aI01
aI00
aI01
aI01
aI01
aI01
aI01
aI01
aI01
aI01
aI00
aI01
aI01
aI01
aI01
aI01
aI01
aI01
aI01
aI01
aI01
aI01
aI01
aI01
aI01
aI01
aI01
aI01
aI01
aI01
aI01
aI01
aI01
aI01
aI01
aI01
aI01
aI01
aI01
aI01
aI01
aI01
aI01
aI01
aI01
aI01
aI01
aI01
aI01
aI01
aI01
aI01
aI01
aI01
aI01
aI01
aI01
aI01
aI01
aI01
aI01
aI01
aI01
aI01
aI01
aI01
aI01
aI01
aI01
aI01
aI01
aI01
aI01
aI01
aI01
aI01
aI01
aI01
aI01
aI01
aI01
aI01
aI01
aI01
aI01
aI01
aI01
aI00
aI01
aI01
aI01
aI01
aI01
aI01
aI01
aI01
aI01
aI01
aI01
aI01
aI01
aI00
aI01
aI01
aI01
aI01
aI01
aI01
aI01
aI01
aI01
aI01
aI01
aI01
aI01
aI01
aI01
aI01
aI01
aI01
aI01
aI01
aI01
aI01
aI01
aI01
aI01
aI01
aI01
aI01
aI01
aI01
aI01
aI01
aI01
aI01
aI01
aI00
aI01
aI01
aI01
aI01
aI01
aI01
aI01
aI01
aI01
aI01
aI01
aI01
aI01
aI01
aI01
aI01
aI01
aI01
aI01
aI01
aI01
aI01
aI01
aI00
aI01
aI01
aI01
aI01
aI01
aI01
aI01
aI01
aI01
aI01
aI01
aI01
aI01
aI01
aI01
aI01
aI01
aI01
aI01
aI01
aI01
aI01
aI01
aI01
aI01
aI01
aI01
aI01
aI01
aI01
aI01
aI01
aI01
aI01
aI01
aI01
aI01
aI01
aI01
aI01
aI01
aI01
aI01
aI01
aI01
aI01
aI01
aI01
aI01
aI01
aI01
aI01
aI01
aI01
aI01
aI01
aI01
aI01
aI01
aI01
aI01
aI01
aI01
aI01
aI01
aI01
aI01
aI01
aI01
aI01
aI01
aI01
aI01
aI01
aI01
aI01
aI00
aI01
aI01
aI01
aI01
aI01
aI01
aI01
aI01
aI01
aI01
aI01
aI01
aI01
aI01
aI01
aI01
aI01
aI01
aI01
aI01
aI01
aI01
aI01
aI01
aI01
aI01
aI01
aI01
aI00
aI01
aI01
aI01
aI01
aI01
aI01
aI01
aI01
aI01
aI01
aI01
aI01
aI01
aI01
aI01
aI00
aI01
aI01
aI01
aI01
aI01
aI01
aI01
aI01
aI01
aI01
aI01
aI01
aI01
aI01
aI00
aI01
aI01
aI01
aI01
aI01
aI01
aI01
aI01
aI01
aI01
aI01
aI01
aI01
aI01
aI01
aI01
aI01
aI01
aI01
aI00
aI01
aI01
aI01
aI01
aI01
aI01
aI01
aI01
aI01
aI01
aI01
aI01
aI01
aI01
aI01
aI01
aI01
aI00
aI01
aI01
aI01
aI01
aI01
aI00
aI01
aI01
aI01
aI01
aI01
aI01
aI01
aI01
aI01
aI01
aI01
aI01
aI01
aI01
aI01
aI01
aI01
aI01
aI01
aI01
aI01
aI01
aI01
aI01
aI01
aI01
aI01
aI01
aI01
aI01
aI00
aI01
aI01
aI01
aI01
aI01
aI00
aI01
aI01
aI01
aI01
aI01
aI01
aI01
aI01
aI01
aI01
aI01
aI01
aI01
aI01
aI01
aI01
aI01
aI01
aI01
aI01
aI01
aI01
aI01
aI01
aI01
aI01
aI01
aI01
aI01
aI01
aI01
aI01
aI01
aI01
aI01
aI01
aI01
aI01
aI01
aI01
aI01
aI01
aI01
aI01
aI01
aI01
aI01
aI01
aI01
aI01
aI01
aI01
aI01
aI01
aI01
aI01
aI01
aI01
aI01
aI01
aI01
aI01
aI01
aI01
aI01
aI01
aI01
aI01
aI01
aI01
aI01
aI01
aI01
aI01
aI01
aI01
aI01
aI01
aI01
aI01
aI01
aI01
aI01
aI01
aI01
aI01
aI01
aI01
aI01
aI01
aI01
aI01
aI01
aI01
aI01
aI01
aI01
aI01
aI01
aI01
aI01
aI01
aI01
aI01
aI01
aI01
aI01
aI01
aI01
aI01
aI01
aI01
aI00
aI01
aI01
aI01
aI01
aI01
aI01
aI01
aI01
aI01
aI01
aI01
aI01
aI01
aI01
aI01
aI01
aI01
aI01
aI01
aI01
aI01
aI01
aI01
aI01
aI01
aI01
aI01
aI01
aI01
aI01
aI01
aI01
aI01
aI01
aI01
aI01
aI01
aI01
aI01
aI01
aI01
aI01
aI01
aI01
aI01
aI01
aI01
aI01
aI01
aI01
aI01
aI01
aI01
aI01
aI01
aI01
aI01
aI01
aI01
aI01
aI00
aI01
aI01
aI01
aI01
aI01
aI01
aI01
aI01
aI01
aI01
aI01
aI01
aI01
aI01
aI01
aI01
aI01
aI01
aI01
aI01
aI01
aI01
aI01
aI01
aI01
aI01
aI01
aI01
aI01
aI01
aI01
aI01
aI01
aI01
aI01
aI01
aI01
aI01
aI01
aI01
aI01
aI01
aI01
aI01
aI01
aI01
aI01
aI01
aI01
aI01
aI01
aI01
aI01
aI01
aI01
aI01
aI01
aI01
aI01
aI01
aI01
aI01
aI01
aI01
aI01
aI01
aI01
aI01
aI01
aI01
aI01
aI01
aI01
aI01
aI01
aI01
aI01
aI01
aI01
aI01
aI01
aI01
aI01
aI01
aI01
aI01
aI01
aI01
aI01
aI01
aI01
aI01
aI01
aI01
aI01
aI00
aI01
aI01
aI01
aI01
aI01
aI01
aI01
aI01
aI00
aI01
aI01
aI01
aI00
aI01
aI01
aI01
aI01
aI01
aI01
aI01
aI01
aI01
aI01
aI01
aI01
aI01
aI01
aI01
aI01
aI01
aI01
aI01
aI01
aI01
aI01
aI01
aI00
aI01
aI01
aI01
aI01
aI01
aI01
aI01
aI01
aI01
aI01
aI01
aI01
aI01
aI01
aI01
aI00
aI01
aI01
aI01
aI01
aI01
aI01
aI01
aI01
aI01
aI01
aI01
aI01
aI01
aI01
aI01
aI01
aI01
aI01
aI01
aI01
aI01
aI01
aI01
aI01
aI01
aI01
aI01
aI01
aI01
aI01
aI01
aI01
aI01
aI01
aI01
aI01
aI01
aI01
aI01
aI01
aI01
aI01
aI01
aI01
aI01
aI01
aI01
aI01
aI01
aI01
aI01
aI00
aI01
aI01
aI01
aI01
aI01
aI01
aI01
aI01
aI01
aI01
aI01
aI00
aI01
aI01
aI01
aI01
aI01
aI00
aI01
aI01
aI01
aI01
aI01
aI01
aI01
aI01
aI01
aI01
aI01
aI01
aI01
aI01
aI01
aI01
aI01
aI01
aI01
aI01
aI01
aI01
aI01
aI01
aI01
aI00
aI01
aI01
aI01
aI01
aI01
aI01
aI01
aI01
aI01
aI01
aI01
aI01
aI01
aI01
aI01
aI01
aI01
aI01
aI01
aI01
aI01
aI01
aI01
aI01
aI01
aI01
aI01
aI01
aI01
aI01
aI01
aI01
aI01
aI01
aI01
aI01
aI01
aI01
aI01
aI00
aI01
aI01
aI01
aI01
aI01
aI01
aI01
aI01
aI01
aI01
aI01
aI01
aI01
aI01
aI01
aI01
aI01
aI01
aI00
aI01
aI01
aI01
aI01
aI01
aI01
aI01
aI01
aI01
aI01
aI01
aI01
aI01
aI01
aI01
aI01
aI01
aI01
aI01
aI01
aI01
aI01
aI01
aI01
aI01
aI01
aI01
aI01
aI01
aI01
aI01
aI01
aI01
aI01
aI01
aI00
aI01
aI01
aI01
aI01
aI01
aI01
aI01
aI01
aI01
aI01
aI01
aI01
aI01
aI00
aI01
aI01
aI01
aI01
aI01
aI01
aI01
aI01
aI01
aI01
aI01
aI01
aI01
aI01
aI01
aI01
aI01
aI01
aI00
aI01
aI01
aI01
aI01
aI01
aI01
aI01
aI00
aI01
aI01
aI01
aI01
aI01
aI01
aI01
aI01
aI01
aI01
aI01
aI01
aI01
aI01
aI01
aI01
aI01
aI01
aI01
aI01
aI01
aI01
aI01
aI01
aI01
aI01
aI01
aI01
aI01
aI01
aI01
aI01
aI01
aI01
aI01
aI01
aI01
aI01
aI01
aI01
aI01
aI00
aI01
aI01
aI01
aI01
aI01
aI01
aI01
aI01
aI01
aI01
aI01
aI01
aI01
aI01
aI01
aI01
aI01
aI01
aI01
aI01
aI01
aI01
aI01
aI01
aI01
aI01
aI01
aI00
aI01
aI01
aI01
aI01
aI01
aI01
aI01
aI01
aI01
aI01
aI01
aI01
aI01
aI01
aI01
aI00
aI01
aI01
aI01
aI01
aI01
aI00
aI00
aI01
aI01
aI01
aI01
aI01
aI01
aI00
aI01
aI01
aI01
aI01
aI01
aI01
aI01
aI01
aI01
aI01
aI01
aI00
aI01
aI01
aI00
aI01
aI01
aI01
aI01
aI01
aI01
aI01
aI01
aI01
aI01
aI01
aI01
aI01
aI01
aI01
aI01
aI01
aI01
aI01
aI01
aI01
aI01
aI01
aI01
aI01
aI01
aI01
aI01
aI01
aI01
aI01
aI01
aI01
aI01
aI00
aI01
aI01
aI01
aI01
aI01
aI01
aI01
aI01
aI01
aI01
aI01
aI01
aI01
aI01
aI01
aI01
aI01
aI01
aI01
asS'pidxs'
p3
(lp4
I20050
aI20045
aI20070
aI20015
aI20076
aI20039
aI20053
aI20081
aI20099
aI20092
aI20055
aI20039
aI20074
aI20052
aI20042
aI20012
aI20076
aI20025
aI20053
aI20007
aI20092
aI20008
aI20025
aI20088
aI20017
aI20026
aI20040
aI20013
aI20048
aI20071
aI20003
aI20046
aI20006
aI20087
aI20075
aI20075
aI20039
aI20083
aI20043
aI20092
aI20084
aI20031
aI20090
aI20007
aI20028
aI20071
aI20090
aI20004
aI20091
aI20032
aI20052
aI20005
aI20069
aI20015
aI20020
aI20009
aI20054
aI20019
aI20071
aI20020
aI20019
aI20064
aI20047
aI20072
aI20033
aI20008
aI20047
aI20065
aI20024
aI20067
aI20046
aI20016
aI20037
aI20044
aI20067
aI20099
aI20065
aI20080
aI20082
aI20065
aI20042
aI20099
aI20007
aI20068
aI20038
aI20029
aI20057
aI20073
aI20086
aI20008
aI20028
aI20083
aI20064
aI20098
aI20095
aI20044
aI20035
aI20061
aI20083
aI20004
aI20083
aI20059
aI20098
aI20051
aI20004
aI20093
aI20053
aI20003
aI20068
aI20038
aI20034
aI20078
aI20091
aI20033
aI20088
aI20082
aI20091
aI20038
aI20005
aI20083
aI20053
aI20069
aI20045
aI20079
aI20084
aI20061
aI20094
aI20068
aI20024
aI20066
aI20047
aI20056
aI20089
aI20015
aI20005
aI20081
aI20022
aI20077
aI20059
aI20091
aI20089
aI20033
aI20022
aI20055
aI20070
aI20054
aI20050
aI20024
aI20016
aI20084
aI20089
aI20075
aI20091
aI20041
aI20048
aI20086
aI20088
aI20025
aI20032
aI20034
aI20053
aI20039
aI20026
aI20033
aI20034
aI20091
aI20050
aI20077
aI20093
aI20046
aI20044
aI20072
aI20003
aI20034
aI20094
aI20062
aI20088
aI20047
aI20074
aI20049
aI20053
aI20019
aI20017
aI20066
aI20064
aI20028
aI20074
aI20005
aI20008
aI20002
aI20070
aI20068
aI20079
aI20088
aI20085
aI20029
aI20051
aI20079
aI20020
aI20029
aI20080
aI20079
aI20069
aI20046
aI20021
aI20032
aI20083
aI20052
aI20008
aI20088
aI20075
aI20096
aI20020
aI20044
aI20099
aI20072
aI20080
aI20068
aI20071
aI20078
aI20099
aI20028
aI20004
aI20008
aI20058
aI20033
aI20010
aI20082
aI20016
aI20008
aI20002
aI20081
aI20071
aI20040
aI20062
aI20087
aI20068
aI20016
aI20015
aI20022
aI20064
aI20073
aI20090
aI20043
aI20020
aI20052
aI20011
aI20031
aI20045
aI20026
aI20031
aI20038
aI20086
aI20055
aI20006
aI20096
aI20063
aI20090
aI20004
aI20069
aI20039
aI20014
aI20077
aI20030
aI20055
aI20007
aI20064
aI20067
aI20010
aI20016
aI20097
aI20022
aI20046
aI20046
aI20048
aI20061
aI20022
aI20036
aI20060
aI20030
aI20039
aI20041
aI20084
aI20070
aI20076
aI20025
aI20087
aI20056
aI20096
aI20021
aI20001
aI20048
aI20063
aI20022
aI20005
aI20009
aI20002
aI20044
aI20002
aI20083
aI20036
aI20018
aI20078
aI20065
aI20051
aI20032
aI20027
aI20032
aI20059
aI20077
aI20085
aI20077
aI20047
aI20072
aI20084
aI20039
aI20093
aI20054
aI20052
aI20072
aI20042
aI20020
aI20039
aI20068
aI20052
aI20036
aI20043
aI20091
aI20063
aI20025
aI20087
aI20064
aI20046
aI20014
aI20035
aI20004
aI20009
aI20013
aI20007
aI20045
aI20012
aI20013
aI20000
aI20076
aI20063
aI20067
aI20001
aI20063
aI20060
aI20063
aI20078
aI20044
aI20044
aI20082
aI20047
aI20036
aI20076
aI20001
aI20048
aI20057
aI20012
aI20099
aI20064
aI20057
aI20026
aI20089
aI20045
aI20096
aI20050
aI20021
aI20068
aI20067
aI20006
aI20091
aI20043
aI20011
aI20052
aI20037
aI20060
aI20064
aI20056
aI20085
aI20018
aI20006
aI20019
aI20034
aI20060
aI20049
aI20096
aI20055
aI20057
aI20078
aI20031
aI20000
aI20056
aI20094
aI20038
aI20054
aI20035
aI20017
aI20017
aI20023
aI20015
aI20037
aI20023
aI20053
aI20069
aI20073
aI20086
aI20070
aI20022
aI20092
aI20043
aI20083
aI20028
aI20040
aI20051
aI20036
aI20029
aI20079
aI20079
aI20037
aI20012
aI20029
aI20090
aI20006
aI20076
aI20022
aI20024
aI20085
aI20008
aI20009
aI20072
aI20093
aI20099
aI20074
aI20060
aI20020
aI20052
aI20005
aI20042
aI20020
aI20023
aI20057
aI20009
aI20096
aI20001
aI20020
aI20066
aI20026
aI20041
aI20092
aI20011
aI20067
aI20033
aI20062
aI20013
aI20081
aI20028
aI20037
aI20003
aI20080
aI20056
aI20054
aI20013
aI20072
aI20052
aI20002
aI20056
aI20098
aI20070
aI20041
aI20082
aI20027
aI20037
aI20060
aI20030
aI20009
aI20000
aI20062
aI20027
aI20076
aI20041
aI20084
aI20076
aI20036
aI20005
aI20048
aI20095
aI20034
aI20079
aI20096
aI20033
aI20082
aI20010
aI20082
aI20048
aI20013
aI20034
aI20015
aI20032
aI20013
aI20043
aI20053
aI20040
aI20026
aI20021
aI20003
aI20095
aI20090
aI20020
aI20032
aI20038
aI20027
aI20008
aI20026
aI20093
aI20004
aI20043
aI20055
aI20010
aI20095
aI20039
aI20064
aI20031
aI20029
aI20056
aI20018
aI20029
aI20070
aI20029
aI20017
aI20010
aI20004
aI20086
aI20029
aI20021
aI20045
aI20095
aI20075
aI20079
aI20070
aI20081
aI20062
aI20006
aI20037
aI20082
aI20064
aI20086
aI20058
aI20000
aI20068
aI20014
aI20012
aI20077
aI20038
aI20036
aI20037
aI20079
aI20043
aI20059
aI20000
aI20062
aI20003
aI20014
aI20010
aI20042
aI20069
aI20007
aI20094
aI20049
aI20018
aI20084
aI20041
aI20099
aI20050
aI20073
aI20032
aI20089
aI20001
aI20028
aI20031
aI20028
aI20044
aI20058
aI20092
aI20047
aI20070
aI20080
aI20086
aI20014
aI20074
aI20014
aI20036
aI20003
aI20025
aI20050
aI20034
aI20023
aI20051
aI20086
aI20091
aI20053
aI20088
aI20066
aI20066
aI20012
aI20044
aI20001
aI20076
aI20004
aI20040
aI20094
aI20044
aI20063
aI20028
aI20031
aI20099
aI20095
aI20031
aI20026
aI20061
aI20093
aI20044
aI20025
aI20057
aI20019
aI20001
aI20010
aI20066
aI20082
aI20002
aI20061
aI20056
aI20050
aI20092
aI20042
aI20072
aI20096
aI20098
aI20048
aI20085
aI20082
aI20021
aI20035
aI20019
aI20026
aI20035
aI20085
aI20014
aI20027
aI20028
aI20016
aI20050
aI20067
aI20041
aI20099
aI20065
aI20025
aI20064
aI20025
aI20017
aI20047
aI20084
aI20004
aI20098
aI20081
aI20075
aI20094
aI20073
aI20006
aI20010
aI20093
aI20003
aI20077
aI20088
aI20036
aI20033
aI20050
aI20045
aI20068
aI20016
aI20061
aI20071
aI20006
aI20036
aI20002
aI20097
aI20068
aI20071
aI20083
aI20064
aI20062
aI20055
aI20058
aI20031
aI20041
aI20093
aI20052
aI20067
aI20000
aI20015
aI20026
aI20034
aI20015
aI20070
aI20058
aI20096
aI20029
aI20047
aI20071
aI20074
aI20058
aI20047
aI20086
aI20025
aI20085
aI20074
aI20073
aI20062
aI20033
aI20058
aI20070
aI20002
aI20078
aI20039
aI20083
aI20032
aI20049
aI20065
aI20037
aI20055
aI20048
aI20042
aI20045
aI20091
aI20054
aI20057
aI20029
aI20045
aI20063
aI20025
aI20003
aI20078
aI20029
aI20059
aI20034
aI20070
aI20078
aI20006
aI20008
aI20020
aI20019
aI20041
aI20012
aI20016
aI20058
aI20032
aI20040
aI20058
aI20034
aI20041
aI20058
aI20098
aI20017
aI20080
aI20087
aI20058
aI20079
aI20002
aI20098
aI20072
aI20004
aI20017
aI20001
aI20002
aI20086
aI20045
aI20040
aI20030
aI20000
aI20055
aI20023
aI20067
aI20073
aI20090
aI20016
aI20042
aI20028
aI20023
aI20037
aI20097
aI20029
aI20057
aI20055
aI20079
aI20035
aI20048
aI20099
aI20021
aI20080
aI20086
aI20092
aI20059
aI20056
aI20026
aI20052
aI20069
aI20046
aI20042
aI20077
aI20089
aI20066
aI20071
aI20035
aI20089
aI20099
aI20066
aI20097
aI20018
aI20077
aI20015
aI20083
aI20015
aI20023
aI20009
aI20061
aI20097
aI20045
aI20012
aI20074
aI20089
aI20041
aI20089
aI20022
aI20099
aI20090
aI20092
aI20062
aI20017
aI20030
aI20055
aI20093
aI20074
aI20030
aI20019
aI20071
aI20034
aI20009
aI20006
aI20021
aI20068
aI20097
aI20056
aI20008
aI20011
aI20046
aI20079
aI20067
aI20012
aI20026
aI20023
aI20027
aI20040
aI20008
aI20010
aI20021
aI20022
aI20075
aI20043
aI20040
aI20064
aI20038
aI20038
aI20002
aI20081
aI20018
aI20095
aI20087
aI20024
aI20035
aI20062
aI20030
aI20030
aI20086
aI20065
aI20012
aI20014
aI20045
aI20076
aI20059
aI20035
aI20072
aI20066
aI20078
aI20074
aI20083
aI20097
aI20077
aI20062
aI20090
aI20052
aI20016
aI20058
aI20013
aI20040
aI20047
aI20085
aI20069
aI20001
aI20096
aI20025
aI20054
aI20086
aI20048
aI20000
aI20046
aI20087
aI20083
aI20091
aI20010
aI20001
aI20051
aI20081
aI20016
aI20096
aI20038
aI20065
aI20087
aI20001
aI20030
aI20096
aI20007
aI20075
aI20044
aI20000
aI20000
aI20033
aI20053
aI20061
aI20077
aI20063
aI20086
aI20011
aI20015
aI20004
aI20085
aI20094
aI20032
aI20026
aI20096
aI20016
aI20019
aI20048
aI20085
aI20094
aI20077
aI20061
aI20021
aI20035
aI20001
aI20009
aI20069
aI20003
aI20090
aI20081
aI20031
aI20093
aI20077
aI20092
aI20024
aI20087
aI20006
aI20011
aI20013
aI20082
aI20039
aI20090
aI20014
aI20005
aI20035
aI20071
aI20087
aI20071
aI20002
aI20060
aI20030
aI20019
aI20051
aI20098
aI20031
aI20014
aI20074
aI20031
aI20010
aI20020
aI20033
aI20050
aI20009
aI20078
aI20023
aI20007
aI20096
aI20038
aI20027
aI20014
aI20007
aI20000
aI20014
aI20075
aI20089
aI20040
aI20093
aI20010
aI20017
aI20065
aI20088
aI20033
aI20098
aI20084
aI20081
aI20075
aI20039
aI20021
aI20007
aI20021
aI20038
aI20003
aI20056
aI20098
aI20009
aI20006
aI20056
aI20005
aI20005
aI20065
aI20041
aI20077
aI20012
aI20051
aI20018
aI20069
aI20049
aI20079
aI20044
aI20052
aI20040
aI20001
aI20017
aI20021
aI20035
aI20069
aI20094
aI20075
aI20089
aI20018
aI20070
aI20097
aI20032
aI20012
aI20076
aI20067
aI20070
aI20000
aI20089
aI20078
aI20007
aI20085
aI20089
aI20019
aI20098
aI20018
aI20003
aI20049
aI20006
aI20037
aI20042
aI20084
aI20050
aI20051
aI20035
aI20011
aI20078
aI20051
aI20047
aI20027
aI20088
aI20071
aI20004
aI20038
aI20095
aI20001
aI20032
aI20064
aI20089
aI20087
aI20095
aI20084
aI20056
aI20060
aI20018
aI20049
aI20004
aI20010
aI20058
aI20036
aI20059
aI20079
aI20031
aI20060
aI20087
aI20091
aI20073
aI20082
aI20063
aI20083
aI20092
aI20096
aI20078
aI20081
aI20039
aI20005
aI20038
aI20065
aI20059
aI20095
aI20043
aI20058
aI20072
aI20027
aI20004
aI20051
aI20080
aI20098
aI20079
aI20049
aI20036
aI20061
aI20072
aI20022
aI20048
aI20011
aI20057
aI20073
aI20002
aI20048
aI20056
aI20014
aI20053
aI20027
aI20097
aI20020
aI20025
aI20049
aI20002
aI20097
aI20011
aI20080
aI20041
aI20066
aI20000
aI20084
aI20055
aI20073
aI20082
aI20050
aI20013
aI20090
aI20054
aI20039
aI20030
aI20067
aI20026
aI20015
aI20058
aI20026
aI20028
aI20005
aI20060
aI20055
aI20014
aI20033
aI20023
aI20032
aI20024
aI20016
aI20061
aI20011
aI20018
aI20040
aI20061
aI20024
aI20031
aI20069
aI20094
aI20063
aI20052
aI20032
aI20088
aI20054
aI20059
aI20050
aI20047
aI20092
aI20019
aI20053
aI20062
aI20061
aI20024
aI20069
aI20062
aI20003
aI20054
aI20098
aI20016
aI20027
aI20030
aI20053
aI20075
aI20092
aI20012
aI20038
aI20043
aI20009
aI20090
aI20008
aI20070
aI20045
aI20065
aI20002
aI20009
aI20020
aI20060
aI20072
aI20045
aI20091
aI20093
aI20019
aI20018
aI20073
aI20069
aI20003
aI20071
aI20021
aI20043
aI20012
aI20068
aI20081
aI20054
aI20048
aI20030
aI20074
aI20037
aI20043
aI20019
aI20016
aI20090
aI20022
aI20045
aI20035
aI20074
aI20035
aI20013
aI20083
aI20073
aI20066
aI20081
aI20013
aI20046
aI20052
aI20090
aI20036
aI20074
aI20093
aI20069
aI20060
aI20041
aI20057
aI20091
aI20076
aI20065
aI20082
aI20030
aI20065
aI20062
aI20015
aI20031
aI20015
aI20050
aI20046
aI20060
aI20095
aI20051
aI20013
aI20055
aI20092
aI20062
aI20054
aI20086
aI20036
aI20036
aI20078
aI20071
aI20034
aI20027
aI20082
aI20043
aI20010
aI20053
aI20008
aI20044
aI20034
aI20091
aI20009
aI20034
aI20040
aI20025
aI20043
aI20020
aI20077
aI20050
aI20033
aI20003
aI20057
aI20030
aI20095
aI20088
aI20012
aI20078
aI20047
aI20033
aI20013
aI20022
aI20000
aI20087
aI20076
aI20092
aI20013
aI20088
aI20084
aI20076
aI20087
aI20067
aI20073
aI20028
aI20060
aI20041
aI20005
aI20095
aI20055
aI20018
aI20095
aI20067
aI20021
aI20072
aI20056
aI20054
aI20060
aI20037
aI20053
aI20025
aI20076
aI20075
aI20089
aI20010
aI20014
aI20044
aI20064
aI20009
aI20008
aI20000
aI20067
aI20029
aI20005
aI20006
aI20093
aI20087
aI20054
aI20068
aI20085
aI20051
aI20027
aI20037
aI20080
aI20007
aI20024
aI20065
aI20047
aI20019
aI20017
aI20098
aI20001
aI20018
aI20068
aI20093
aI20005
aI20018
aI20039
aI20028
aI20075
aI20051
aI20054
aI20006
aI20022
aI20029
aI20042
aI20075
aI20063
aI20080
aI20095
aI20028
aI20042
aI20040
aI20049
asS'plan_length'
p5
(lp6
I15
aI21
aI6
aI23
aI26
aI4
aI1
aI7
aI9
aI6
aI11
aI9
aI16
aI1
aI6
aI7
aI7
aI1
aI16
aI9
aI6
aI8
aI4
aI6
aI2
aI2
aI1
aI2
aI1
aI29
aI2
aI9
aI5
aI25
aI14
aI12
aI1
aI17
aI8
aI2
aI7
aI2
aI3
aI5
aI1
aI29
aI23
aI4
aI19
aI19
aI17
aI11
aI5
aI3
aI4
aI7
aI1
aI6
aI5
aI2
aI8
aI5
aI6
aI1
aI8
aI1
aI4
aI7
aI15
aI4
aI7
aI31
aI2
aI6
aI1
aI1
aI1
aI4
aI3
aI8
aI1
aI6
aI20
aI10
aI25
aI5
aI6
aI4
aI1
aI8
aI4
aI4
aI8
aI4
aI12
aI1
aI1
aI12
aI3
aI22
aI14
aI1
aI3
aI2
aI5
aI3
aI2
aI7
aI10
aI15
aI2
aI5
aI15
aI10
aI17
aI22
aI19
aI9
aI10
aI2
aI1
aI3
aI1
aI1
aI14
aI3
aI2
aI6
aI5
aI2
aI2
aI1
aI17
aI3
aI2
aI27
aI10
aI8
aI3
aI12
aI1
aI9
aI1
aI1
aI3
aI1
aI2
aI1
aI3
aI16
aI2
aI51
aI7
aI26
aI9
aI2
aI8
aI2
aI10
aI16
aI40
aI2
aI8
aI4
aI2
aI20
aI1
aI3
aI9
aI6
aI4
aI1
aI4
aI2
aI1
aI2
aI8
aI19
aI1
aI10
aI9
aI45
aI6
aI1
aI2
aI1
aI1
aI22
aI13
aI5
aI9
aI24
aI1
aI5
aI12
aI1
aI4
aI8
aI8
aI7
aI5
aI1
aI33
aI2
aI15
aI5
aI26
aI15
aI2
aI2
aI14
aI3
aI18
aI7
aI8
aI9
aI4
aI4
aI4
aI8
aI4
aI9
aI1
aI2
aI9
aI12
aI6
aI8
aI4
aI1
aI1
aI3
aI2
aI8
aI7
aI7
aI6
aI1
aI11
aI6
aI5
aI6
aI43
aI3
aI16
aI2
aI1
aI8
aI6
aI6
aI11
aI3
aI5
aI3
aI3
aI1
aI5
aI3
aI5
aI16
aI1
aI3
aI1
aI2
aI6
aI1
aI3
aI2
aI11
aI13
aI13
aI11
aI1
aI13
aI3
aI16
aI5
aI31
aI4
aI2
aI6
aI1
aI32
aI2
aI6
aI6
aI13
aI9
aI7
aI3
aI15
aI1
aI6
aI4
aI10
aI26
aI1
aI9
aI1
aI1
aI14
aI1
aI4
aI21
aI6
aI3
aI9
aI5
aI9
aI14
aI1
aI8
aI9
aI9
aI4
aI7
aI3
aI5
aI17
aI13
aI2
aI2
aI2
aI7
aI2
aI1
aI12
aI3
aI21
aI11
aI16
aI7
aI14
aI4
aI12
aI31
aI1
aI38
aI9
aI9
aI30
aI3
aI4
aI22
aI8
aI1
aI1
aI6
aI1
aI8
aI1
aI3
aI3
aI2
aI2
aI4
aI2
aI8
aI54
aI4
aI3
aI5
aI1
aI7
aI1
aI11
aI3
aI24
aI1
aI4
aI14
aI4
aI17
aI26
aI1
aI3
aI1
aI1
aI9
aI11
aI13
aI16
aI1
aI5
aI5
aI11
aI5
aI1
aI2
aI2
aI1
aI6
aI31
aI3
aI8
aI26
aI9
aI6
aI2
aI33
aI25
aI36
aI2
aI28
aI3
aI1
aI4
aI3
aI41
aI24
aI5
aI3
aI17
aI1
aI1
aI3
aI14
aI8
aI2
aI4
aI1
aI28
aI9
aI37
aI2
aI6
aI4
aI1
aI1
aI3
aI1
aI9
aI2
aI22
aI16
aI15
aI1
aI4
aI7
aI18
aI2
aI2
aI39
aI13
aI2
aI1
aI17
aI3
aI10
aI2
aI10
aI14
aI36
aI1
aI15
aI4
aI3
aI6
aI16
aI8
aI10
aI13
aI61
aI1
aI14
aI28
aI2
aI6
aI3
aI10
aI3
aI1
aI7
aI4
aI1
aI2
aI3
aI9
aI4
aI2
aI1
aI11
aI5
aI45
aI15
aI7
aI8
aI7
aI3
aI4
aI1
aI2
aI11
aI16
aI7
aI2
aI4
aI4
aI4
aI26
aI14
aI51
aI2
aI1
aI2
aI14
aI3
aI5
aI17
aI4
aI14
aI10
aI18
aI9
aI1
aI2
aI4
aI23
aI39
aI3
aI9
aI2
aI8
aI4
aI8
aI1
aI4
aI16
aI5
aI3
aI4
aI4
aI43
aI15
aI1
aI2
aI23
aI2
aI5
aI3
aI4
aI13
aI1
aI31
aI3
aI2
aI8
aI6
aI1
aI8
aI3
aI1
aI1
aI4
aI1
aI38
aI3
aI4
aI1
aI3
aI1
aI13
aI3
aI49
aI5
aI3
aI26
aI20
aI31
aI2
aI10
aI3
aI3
aI3
aI2
aI7
aI9
aI7
aI1
aI1
aI8
aI16
aI25
aI1
aI1
aI1
aI29
aI4
aI9
aI4
aI6
aI1
aI11
aI1
aI8
aI4
aI1
aI3
aI15
aI10
aI1
aI10
aI4
aI4
aI1
aI9
aI7
aI1
aI4
aI3
aI4
aI8
aI17
aI15
aI1
aI1
aI2
aI5
aI2
aI9
aI2
aI11
aI3
aI16
aI53
aI3
aI4
aI9
aI8
aI5
aI4
aI4
aI2
aI3
aI8
aI4
aI6
aI1
aI35
aI4
aI2
aI2
aI2
aI12
aI1
aI1
aI26
aI6
aI8
aI1
aI24
aI33
aI3
aI6
aI11
aI2
aI9
aI7
aI1
aI17
aI3
aI6
aI1
aI6
aI11
aI2
aI17
aI2
aI4
aI15
aI6
aI8
aI5
aI5
aI16
aI7
aI3
aI8
aI2
aI7
aI3
aI5
aI25
aI9
aI2
aI6
aI6
aI14
aI24
aI7
aI3
aI4
aI1
aI3
aI3
aI7
aI3
aI3
aI4
aI4
aI6
aI22
aI1
aI5
aI3
aI2
aI2
aI25
aI40
aI3
aI14
aI1
aI17
aI12
aI1
aI7
aI2
aI13
aI10
aI1
aI16
aI5
aI21
aI51
aI4
aI5
aI14
aI20
aI4
aI6
aI4
aI24
aI5
aI6
aI12
aI21
aI12
aI2
aI1
aI1
aI1
aI7
aI4
aI2
aI5
aI1
aI16
aI4
aI3
aI3
aI13
aI9
aI2
aI9
aI11
aI1
aI1
aI11
aI1
aI9
aI13
aI26
aI15
aI1
aI5
aI1
aI10
aI1
aI12
aI2
aI2
aI6
aI10
aI10
aI1
aI23
aI1
aI3
aI18
aI14
aI14
aI1
aI1
aI23
aI13
aI1
aI2
aI1
aI8
aI10
aI1
aI1
aI2
aI9
aI10
aI2
aI13
aI1
aI10
aI2
aI1
aI17
aI3
aI3
aI7
aI8
aI4
aI1
aI1
aI16
aI15
aI11
aI1
aI15
aI6
aI36
aI1
aI22
aI1
aI6
aI30
aI3
aI2
aI3
aI12
aI1
aI9
aI5
aI1
aI5
aI2
aI9
aI3
aI4
aI1
aI5
aI9
aI6
aI7
aI5
aI15
aI14
aI7
aI25
aI2
aI4
aI13
aI3
aI2
aI2
aI3
aI1
aI2
aI61
aI9
aI8
aI3
aI13
aI5
aI2
aI9
aI8
aI1
aI2
aI7
aI1
aI3
aI6
aI1
aI1
aI40
aI8
aI22
aI36
aI14
aI6
aI38
aI12
aI5
aI1
aI33
aI31
aI9
aI3
aI8
aI2
aI2
aI34
aI7
aI2
aI10
aI4
aI41
aI3
aI27
aI1
aI9
aI3
aI1
aI7
aI5
aI11
aI4
aI2
aI3
aI6
aI11
aI12
aI6
aI1
aI4
aI3
aI29
aI1
aI6
aI1
aI6
aI4
aI1
aI1
aI7
aI3
aI3
aI8
aI3
aI4
aI4
aI1
aI10
aI6
aI4
aI2
aI9
aI11
aI2
aI32
aI2
aI7
aI4
aI10
aI1
aI5
aI1
aI1
aI22
aI26
aI18
aI13
aI5
aI3
aI7
aI2
aI12
aI11
aI9
aI10
aI2
aI23
aI19
aI28
aI10
aI4
aI7
aI2
aI9
aI3
aI9
aI11
aI1
aI1
aI2
aI6
aI3
aI4
aI1
aI23
aI5
aI15
aI9
aI18
aI3
aI8
aI12
aI8
aI2
aI5
aI3
aI2
aI26
aI11
aI2
aI1
aI4
aI1
aI2
aI5
aI1
aI2
aI4
aI5
aI3
aI3
aI2
aI34
aI6
aI5
aI1
aI14
aI9
aI1
aI7
aI4
aI5
aI4
aI7
aI18
aI9
aI9
aI41
aI1
aI9
aI1
aI5
aI4
aI1
aI10
aI3
aI2
aI6
aI10
aI13
aI9
aI3
aI18
aI3
aI16
aI6
aI28
aI2
aI1
aI21
aI3
aI4
aI14
aI18
aI2
aI1
aI6
aI5
aI3
aI1
aI2
aI3
aI1
aI7
aI4
aI26
aI4
aI2
aI9
aI2
aI1
aI3
aI3
aI29
aI1
aI3
aI4
aI19
aI6
aI1
aI1
aI4
aI4
aI24
aI5
aI45
aI4
aI12
aI20
aI5
aI4
aI1
aI8
aI8
aI3
aI10
aI1
aI2
aI4
aI5
aI3
aI1
aI3
aI7
aI1
aI5
aI4
aI1
aI5
aI5
aI3
aI1
aI3
aI1
aI2
aI23
aI3
aI1
aI11
aI8
aI2
aI1
aI8
aI2
aI1
aI20
aI1
aI1
aI1
aI28
aI1
aI10
aI9
aI2
aI1
aI2
aI33
aI1
aI50
aI8
aI9
aI12
aI3
aI1
aI4
aI8
aI38
aI6
aI19
aI3
aI7
aI2
aI1
aI22
aI1
aI28
aI1
aI1
aI14
aI6
aI1
aI1
aI3
aI8
aI1
aI2
aI54
aI6
aI5
aI5
aI1
aI3
aI5
aI6
aI29
aI12
aI2
aI1
aI9
aI13
aI1
aI31
aI21
aI17
aI5
aI14
aI4
aI8
aI2
aI2
aI12
aI4
aI8
aI12
aI4
aI1
aI32
aI3
aI4
aI15
aI23
aI1
aI8
aI6
aI2
aI19
aI4
aI36
aI2
aI4
aI2
aI3
aI5
aI1
aI8
aI1
aI9
aI2
aI1
aI22
aI10
aI29
aI4
aI3
aI31
aI1
aI63
aI3
aI1
aI2
aI18
aI1
aI1
aI1
aI1
aI41
aI21
aI2
aI27
aI13
aI6
aI4
aI4
aI2
aI3
aI4
aI5
aI2
aI28
aI6
aI5
aI1
aI20
aI9
aI1
aI10
aI3
aI12
aI5
aI18
aI7
aI9
aI8
aI17
aI4
aI3
aI10
aI2
aI7
aI14
aI1
aI31
aI2
aI15
aI10
aI17
aI3
aI2
aI21
aI2
aI7
aI6
aI9
aI6
aI4
aI3
aI1
aI1
aI11
aI3
aI8
aI1
aI36
aI6
aI1
aI4
aI42
aI2
aI4
aI3
aI4
aI4
aI4
aI17
aI3
aI15
aI25
aI3
aI10
aI2
aI16
aI4
aI4
aI2
aI2
aI39
aI2
aI14
aI7
aI8
aI9
aI2
aI3
aI2
aI7
aI4
aI19
aI8
aI25
aI7
aI15
aI3
aI25
aI6
aI3
aI7
aI3
aI3
aI13
aI1
aI9
aI1
aI5
aI1
aI32
aI3
aI17
aI1
aI2
aI5
aI3
aI3
aI2
aI23
aI11
aI19
aI5
aI34
aI9
aI27
aI3
aI9
aI1
aI10
aI1
aI1
aI3
aI21
aI30
aI13
aI1
asS'num_nodes'
p7
(lp8
I22
aI40
aI9
aI65
aI34
aI99
aI27
aI1
aI16
aI10
aI8
aI28
aI24
aI19
aI1
aI14
aI10
aI9
aI144
aI1
aI17
aI27
aI11
aI10
aI5
aI37
aI143
aI12
aI3
aI5
aI2
aI1
aI63
aI2
aI26
aI15
aI87
aI41
aI55
aI15
aI1
aI35
aI9
aI3
aI18
aI12
aI7
aI9
aI3
aI65
aI28
aI4
aI45
aI34
aI27
aI26
aI7
aI5
aI43
aI10
aI2
aI14
aI6
aI2
aI285
aI35
aI7
aI15
aI1
aI16
aI1
aI5
aI14
aI72
aI5
aI13
aI88
aI3
aI32
aI74
aI1
aI1
aI1
aI11
aI6
aI10
aI1
aI11
aI91
aI25
aI34
aI23
aI20
aI7
aI2
aI52
aI15
aI4
aI17
aI8
aI18
aI1
aI1
aI36
aI4
aI50
aI38
aI2
aI4
aI2
aI10
aI5
aI3
aI151
aI10
aI17
aI5
aI8
aI18
aI11
aI23
aI30
aI43
aI10
aI43
aI3
aI1
aI9
aI1
aI2
aI40
aI3
aI3
aI12
aI5
aI2
aI3
aI103
aI1
aI48
aI3
aI175
aI42
aI18
aI14
aI3
aI39
aI1
aI21
aI1
aI2
aI9
aI3
aI3
aI3
aI8
aI17
aI4
aI95
aI8
aI100
aI45
aI27
aI139
aI20
aI3
aI16
aI63
aI45
aI2
aI17
aI7
aI2
aI29
aI1
aI3
aI9
aI8
aI4
aI1
aI22
aI2
aI1
aI2
aI12
aI26
aI1
aI12
aI49
aI62
aI55
aI4
aI2
aI1
aI1
aI27
aI15
aI6
aI27
aI43
aI1
aI8
aI16
aI1
aI5
aI19
aI11
aI7
aI10
aI1
aI59
aI2
aI17
aI10
aI57
aI39
aI7
aI5
aI72
aI25
aI5
aI32
aI9
aI25
aI32
aI81
aI6
aI9
aI19
aI8
aI15
aI1
aI3
aI63
aI19
aI10
aI13
aI5
aI1
aI1
aI11
aI4
aI13
aI10
aI8
aI7
aI1
aI105
aI32
aI18
aI13
aI7
aI106
aI6
aI17
aI8
aI1
aI9
aI24
aI14
aI16
aI5
aI33
aI4
aI4
aI1
aI9
aI6
aI6
aI38
aI1
aI6
aI2
aI2
aI7
aI1
aI4
aI2
aI29
aI17
aI25
aI21
aI1
aI26
aI4
aI25
aI7
aI34
aI7
aI5
aI12
aI4
aI58
aI4
aI6
aI20
aI25
aI14
aI7
aI5
aI27
aI3
aI6
aI7
aI23
aI53
aI1
aI24
aI1
aI87
aI1
aI101
aI20
aI1
aI28
aI38
aI7
aI3
aI10
aI6
aI86
aI18
aI25
aI5
aI8
aI12
aI13
aI10
aI10
aI5
aI6
aI28
aI33
aI5
aI2
aI3
aI27
aI11
aI1
aI21
aI3
aI63
aI15
aI55
aI8
aI20
aI6
aI22
aI62
aI1
aI44
aI22
aI15
aI33
aI5
aI9
aI33
aI12
aI2
aI1
aI13
aI1
aI24
aI1
aI5
aI3
aI15
aI2
aI5
aI14
aI27
aI71
aI18
aI7
aI7
aI1
aI7
aI1
aI53
aI18
aI30
aI1
aI14
aI38
aI4
aI20
aI71
aI1
aI3
aI2
aI1
aI12
aI27
aI33
aI32
aI1
aI6
aI105
aI16
aI14
aI21
aI1
aI4
aI4
aI1
aI61
aI37
aI20
aI12
aI83
aI20
aI71
aI6
aI4
aI46
aI59
aI82
aI3
aI36
aI5
aI2
aI7
aI5
aI53
aI66
aI8
aI11
aI25
aI1
aI1
aI7
aI21
aI10
aI10
aI5
aI2
aI61
aI9
aI44
aI2
aI14
aI12
aI1
aI2
aI13
aI2
aI15
aI76
aI2
aI25
aI29
aI17
aI1
aI9
aI180
aI44
aI9
aI2
aI56
aI22
aI2
aI1
aI63
aI5
aI14
aI2
aI11
aI36
aI40
aI1
aI27
aI98
aI10
aI3
aI9
aI68
aI12
aI25
aI16
aI82
aI1
aI19
aI75
aI3
aI19
aI5
aI10
aI5
aI2
aI24
aI5
aI2
aI111
aI7
aI13
aI7
aI3
aI8
aI23
aI8
aI91
aI16
aI9
aI61
aI26
aI3
aI12
aI2
aI4
aI44
aI26
aI40
aI2
aI5
aI5
aI6
aI47
aI24
aI66
aI2
aI2
aI4
aI41
aI6
aI7
aI31
aI7
aI25
aI17
aI22
aI11
aI1
aI5
aI4
aI37
aI57
aI5
aI22
aI2
aI14
aI6
aI14
aI11
aI6
aI30
aI8
aI7
aI10
aI81
aI5
aI60
aI43
aI2
aI14
aI48
aI2
aI12
aI7
aI6
aI17
aI1
aI42
aI5
aI2
aI12
aI7
aI1
aI9
aI12
aI1
aI1
aI17
aI1
aI56
aI5
aI16
aI3
aI141
aI3
aI3
aI13
aI7
aI64
aI7
aI3
aI61
aI46
aI109
aI3
aI16
aI3
aI4
aI3
aI80
aI2
aI10
aI15
aI14
aI1
aI1
aI12
aI54
aI36
aI1
aI1
aI1
aI60
aI20
aI129
aI9
aI6
aI13
aI1
aI42
aI1
aI8
aI5
aI1
aI4
aI17
aI13
aI1
aI19
aI11
aI8
aI1
aI11
aI18
aI103
aI1
aI7
aI3
aI5
aI14
aI22
aI21
aI1
aI2
aI2
aI7
aI3
aI19
aI2
aI11
aI4
aI24
aI90
aI76
aI22
aI5
aI12
aI8
aI86
aI7
aI5
aI13
aI5
aI5
aI15
aI20
aI9
aI1
aI60
aI13
aI4
aI13
aI3
aI34
aI1
aI1
aI95
aI9
aI42
aI2
aI34
aI67
aI6
aI251
aI14
aI4
aI69
aI14
aI1
aI67
aI31
aI3
aI8
aI1
aI13
aI92
aI41
aI6
aI43
aI2
aI5
aI31
aI6
aI26
aI6
aI8
aI21
aI13
aI3
aI10
aI2
aI9
aI14
aI6
aI54
aI22
aI14
aI6
aI6
aI18
aI25
aI29
aI5
aI4
aI1
aI6
aI114
aI10
aI5
aI3
aI8
aI6
aI9
aI72
aI1
aI7
aI4
aI2
aI3
aI38
aI95
aI8
aI32
aI1
aI36
aI34
aI1
aI18
aI2
aI30
aI23
aI1
aI29
aI7
aI49
aI77
aI6
aI6
aI31
aI23
aI5
aI13
aI5
aI55
aI36
aI8
aI17
aI28
aI18
aI3
aI1
aI1
aI4
aI10
aI5
aI3
aI8
aI1
aI26
aI4
aI9
aI4
aI26
aI26
aI22
aI11
aI20
aI2
aI1
aI34
aI1
aI30
aI30
aI58
aI16
aI1
aI15
aI1
aI30
aI1
aI15
aI2
aI2
aI6
aI12
aI28
aI1
aI32
aI84
aI1
aI5
aI26
aI15
aI34
aI1
aI1
aI44
aI16
aI1
aI4
aI2
aI8
aI28
aI1
aI1
aI3
aI16
aI16
aI4
aI32
aI1
aI13
aI2
aI1
aI49
aI3
aI4
aI8
aI33
aI4
aI1
aI1
aI27
aI19
aI26
aI1
aI26
aI8
aI69
aI1
aI36
aI2
aI13
aI39
aI5
aI4
aI4
aI39
aI1
aI27
aI6
aI1
aI8
aI5
aI12
aI6
aI7
aI1
aI6
aI98
aI28
aI28
aI9
aI9
aI32
aI16
aI11
aI45
aI2
aI6
aI19
aI4
aI8
aI2
aI6
aI1
aI2
aI83
aI11
aI18
aI4
aI24
aI5
aI2
aI12
aI9
aI1
aI4
aI15
aI1
aI5
aI17
aI4
aI1
aI79
aI14
aI41
aI50
aI32
aI35
aI59
aI69
aI6
aI1
aI119
aI52
aI15
aI4
aI18
aI16
aI12
aI40
aI8
aI3
aI31
aI11
aI120
aI5
aI32
aI11
aI18
aI5
aI2
aI7
aI7
aI14
aI4
aI3
aI3
aI9
aI18
aI13
aI7
aI21
aI4
aI3
aI47
aI1
aI32
aI1
aI8
aI7
aI1
aI1
aI57
aI7
aI6
aI24
aI3
aI4
aI5
aI1
aI12
aI10
aI8
aI72
aI5
aI24
aI17
aI2
aI53
aI2
aI20
aI20
aI88
aI18
aI1
aI25
aI122
aI1
aI8
aI38
aI52
aI23
aI29
aI6
aI17
aI10
aI3
aI28
aI17
aI43
aI19
aI2
aI66
aI48
aI63
aI22
aI5
aI11
aI2
aI23
aI392
aI5
aI17
aI17
aI1
aI15
aI2
aI8
aI4
aI5
aI1
aI29
aI13
aI25
aI11
aI56
aI90
aI15
aI8
aI21
aI12
aI258
aI7
aI10
aI2
aI69
aI22
aI3
aI1
aI12
aI2
aI2
aI6
aI2
aI5
aI9
aI10
aI4
aI3
aI12
aI50
aI8
aI5
aI1
aI16
aI24
aI1
aI18
aI18
aI5
aI43
aI12
aI29
aI11
aI22
aI63
aI1
aI14
aI2
aI29
aI6
aI1
aI22
aI16
aI4
aI11
aI10
aI31
aI85
aI9
aI3
aI43
aI4
aI26
aI8
aI58
aI2
aI1
aI36
aI6
aI91
aI5
aI15
aI25
aI2
aI1
aI78
aI8
aI19
aI3
aI1
aI3
aI3
aI2
aI20
aI7
aI63
aI48
aI4
aI12
aI2
aI3
aI3
aI6
aI46
aI1
aI4
aI6
aI49
aI12
aI1
aI2
aI79
aI35
aI7
aI73
aI9
aI61
aI5
aI42
aI30
aI7
aI4
aI2
aI10
aI9
aI3
aI55
aI1
aI2
aI4
aI6
aI5
aI1
aI4
aI8
aI1
aI7
aI5
aI1
aI6
aI5
aI4
aI4
aI7
aI1
aI2
aI59
aI3
aI3
aI20
aI18
aI104
aI2
aI1
aI9
aI9
aI1
aI60
aI1
aI1
aI1
aI57
aI1
aI17
aI31
aI2
aI1
aI2
aI77
aI8
aI78
aI55
aI11
aI14
aI25
aI4
aI1
aI7
aI20
aI62
aI17
aI53
aI4
aI9
aI175
aI1
aI48
aI1
aI66
aI1
aI1
aI18
aI9
aI1
aI1
aI8
aI10
aI1
aI3
aI72
aI8
aI8
aI21
aI1
aI5
aI8
aI91
aI12
aI44
aI15
aI2
aI1
aI11
aI32
aI2
aI66
aI74
aI52
aI5
aI19
aI70
aI8
aI12
aI3
aI2
aI14
aI13
aI12
aI39
aI11
aI3
aI84
aI3
aI24
aI43
aI74
aI2
aI15
aI8
aI72
aI10
aI35
aI6
aI48
aI2
aI7
aI8
aI71
aI5
aI8
aI1
aI13
aI3
aI11
aI2
aI1
aI31
aI27
aI67
aI6
aI4
aI55
aI2
aI80
aI4
aI45
aI14
aI53
aI1
aI1
aI8
aI1
aI70
aI42
aI5
aI29
aI33
aI10
aI6
aI4
aI2
aI6
aI5
aI25
aI2
aI49
aI7
aI9
aI4
aI95
aI42
aI13
aI1
aI33
aI4
aI16
aI9
aI28
aI8
aI14
aI11
aI29
aI6
aI3
aI13
aI4
aI13
aI25
aI2
aI63
aI2
aI49
aI63
aI79
aI5
aI5
aI48
aI92
aI58
aI13
aI6
aI13
aI13
aI5
aI274
aI2
aI1
aI14
aI4
aI19
aI3
aI71
aI7
aI368
aI8
aI5
aI56
aI6
aI7
aI65
aI112
aI3
aI7
aI7
aI7
aI37
aI4
aI89
aI40
aI29
aI4
aI26
aI4
aI53
aI8
aI7
aI3
aI2
aI103
aI103
aI39
aI24
aI135
aI21
aI8
aI12
aI2
aI11
aI2
aI13
aI7
aI98
aI18
aI35
aI12
aI23
aI4
aI68
aI15
aI6
aI10
aI45
aI4
aI31
aI1
aI25
aI1
aI15
aI1
aI62
aI24
aI30
aI1
aI2
aI19
aI5
aI4
aI74
aI4
aI32
aI16
aI34
aI13
aI71
aI21
aI92
aI7
aI17
aI1
aI23
aI1
aI1
aI4
aI52
aI57
aI64
aI1
asS'times'
p9
(lp10
F77.01266098022461
aF122.5500180721283
aF39.18478012084961
aF180.61674904823303
aF131.68162512779236
aF301.28773188591003
aF74.993243932724
aF15.751620054244995
aF63.20470190048218
aF54.07178997993469
aF32.76748299598694
aF73.55546712875366
aF66.56907987594604
aF90.38787484169006
aF15.003137111663818
aF46.69559097290039
aF45.95907497406006
aF42.96385598182678
aF300.6800470352173
aF12.836924076080322
aF96.25093817710876
aF70.15934014320374
aF74.24003791809082
aF44.43073892593384
aF30.374615907669067
aF67.31426906585693
aF301.3498990535736
aF38.40499782562256
aF19.395535945892334
aF20.84903120994568
aF17.52662491798401
aF15.310832023620605
aF184.68778610229492
aF16.859959840774536
aF72.35604214668274
aF48.1886088848114
aF302.56288385391235
aF128.51912307739258
aF132.01388597488403
aF64.7652370929718
aF13.113103151321411
aF91.73457598686218
aF47.2506468296051
aF22.453763961791992
aF52.00464987754822
aF34.83491897583008
aF29.722575902938843
aF40.65442395210266
aF16.348220109939575
aF175.79158687591553
aF118.87190198898315
aF27.336559057235718
aF126.07032012939453
aF112.665198802948
aF106.38708209991455
aF77.83336997032166
aF45.02915692329407
aF20.860108137130737
aF83.27445101737976
aF43.14454197883606
aF17.212451934814453
aF38.802440881729126
aF32.93474292755127
aF19.779976844787598
aF301.1361379623413
aF75.19834804534912
aF36.066421031951904
aF53.799928188323975
aF12.259122133255005
aF48.91831302642822
aF15.326597213745117
aF27.439131021499634
aF45.68874406814575
aF142.62672305107117
aF29.770920038223267
aF42.93674397468567
aF235.8725290298462
aF18.82310390472412
aF63.611392974853516
aF302.49344396591187
aF12.550719976425171
aF12.520046949386597
aF15.543658971786499
aF35.265470027923584
aF29.083972930908203
aF44.76130509376526
aF14.856756925582886
aF50.107656955718994
aF154.52364587783813
aF70.84704899787903
aF134.27868008613586
aF47.365395069122314
aF54.256855964660645
aF42.11803913116455
aF17.887298107147217
aF87.82165384292603
aF69.45027208328247
aF27.884530067443848
aF48.27169895172119
aF36.253671169281006
aF69.13529992103577
aF14.343946933746338
aF16.67715096473694
aF106.24147295951843
aF26.053718090057373
aF128.13016200065613
aF99.06481385231018
aF17.178969144821167
aF20.989284992218018
aF24.81666922569275
aF40.899946212768555
aF33.66732096672058
aF16.295776844024658
aF167.48345494270325
aF51.62767505645752
aF82.31933188438416
aF22.4146249294281
aF35.61785697937012
aF76.13171410560608
aF63.11957097053528
aF89.5411159992218
aF110.82927703857422
aF119.28356599807739
aF47.34123206138611
aF97.8771870136261
aF23.871888160705566
aF14.267011880874634
aF25.999738931655884
aF31.794528007507324
aF16.45284605026245
aF105.91482210159302
aF23.523433923721313
aF23.10414481163025
aF61.55307197570801
aF31.49295401573181
aF18.454208850860596
aF21.25096106529236
aF300.49273800849915
aF15.213400840759277
aF109.8347680568695
aF24.148504972457886
aF157.67181706428528
aF144.08903002738953
aF61.863455057144165
aF51.853533029556274
aF31.037709951400757
aF80.89535403251648
aF13.775754928588867
aF55.10819101333618
aF12.133920907974243
aF20.499079942703247
aF35.06119418144226
aF15.617753028869629
aF18.195402145385742
aF19.519680976867676
aF27.863999128341675
aF80.721599817276
aF23.80943512916565
aF299.8344421386719
aF41.310222148895264
aF303.07389092445374
aF147.43358612060547
aF68.38146305084229
aF125.60479497909546
aF59.43506693840027
aF17.14215612411499
aF64.92107701301575
aF139.054545879364
aF204.69544410705566
aF19.81114101409912
aF51.597712993621826
aF28.319318056106567
aF18.81276297569275
aF124.38787317276001
aF14.836910963058472
aF33.9230420589447
aF53.063835859298706
aF40.13671588897705
aF27.769702911376953
aF12.835670948028564
aF66.92815089225769
aF18.088587045669556
aF18.176079034805298
aF18.474950075149536
aF72.1348569393158
aF107.5921139717102
aF15.793329000473022
aF57.920257806777954
aF100.37341809272766
aF254.0149199962616
aF89.61071014404297
aF16.664008140563965
aF15.989121198654175
aF13.987667083740234
aF14.701867818832397
aF120.83790111541748
aF69.28071999549866
aF31.49926781654358
aF63.0209481716156
aF134.39721179008484
aF16.55542016029358
aF31.638349056243896
aF63.94542098045349
aF13.973727941513062
aF28.624916076660156
aF55.488112926483154
aF46.837053060531616
aF57.902063846588135
aF37.72837591171265
aF13.42004108428955
aF201.26995515823364
aF19.847368955612183
aF92.2876398563385
aF37.87581205368042
aF153.64706301689148
aF108.39385509490967
aF23.131195068359375
aF19.274714946746826
aF303.41028690338135
aF96.90805101394653
aF21.655296087265015
aF107.0798270702362
aF44.521141052246094
aF62.44970417022705
aF127.37530303001404
aF92.93355798721313
aF32.46462798118591
aF29.331416845321655
aF54.83677005767822
aF33.7882399559021
aF53.63099503517151
aF14.464426040649414
aF17.040314197540283
aF111.88267421722412
aF64.30990505218506
aF36.86710286140442
aF44.9474139213562
aF27.595945119857788
aF13.172560930252075
aF19.908472061157227
aF28.82979989051819
aF22.89724588394165
aF56.34751510620117
aF46.38306713104248
aF52.79521703720093
aF36.09806418418884
aF13.90386700630188
aF302.39991307258606
aF70.72972297668457
aF48.801724910736084
aF44.18301296234131
aF40.83842992782593
aF245.58372688293457
aF27.000128030776978
aF88.26904821395874
aF31.840094089508057
aF14.679407835006714
aF48.41280007362366
aF56.55327105522156
aF48.478116035461426
aF63.71565008163452
aF28.71754288673401
aF95.41463208198547
aF24.730417013168335
aF23.356024980545044
aF15.331938028335571
aF38.03409504890442
aF29.001687049865723
aF31.095454931259155
aF95.80646300315857
aF17.613659143447876
aF25.845601081848145
aF19.878804922103882
aF20.646203994750977
aF38.806061029434204
aF14.504907131195068
aF25.658658981323242
aF21.674438953399658
aF90.88409304618835
aF74.95946598052979
aF80.39146089553833
aF64.74125599861145
aF13.175801992416382
aF86.4042649269104
aF23.14502787590027
aF87.22383499145508
aF35.23205900192261
aF139.787446975708
aF33.37083101272583
aF22.591916799545288
aF50.26488709449768
aF18.421660900115967
aF178.5998899936676
aF24.994119882583618
aF34.594918966293335
aF53.13599705696106
aF69.07729005813599
aF49.58738899230957
aF41.25875401496887
aF22.660577058792114
aF84.78370308876038
aF18.171849966049194
aF37.72961211204529
aF36.46373391151428
aF81.49629592895508
aF149.5910849571228
aF12.32380485534668
aF63.96029806137085
aF13.615578889846802
aF300.15585708618164
aF12.5640869140625
aF303.41161012649536
aF75.68124079704285
aF13.274564027786255
aF69.0768690109253
aF126.18779802322388
aF41.01110291481018
aF30.83317494392395
aF48.13119602203369
aF34.06805396080017
aF302.04287910461426
aF74.65251898765564
aF80.25608205795288
aF17.466197967529297
aF42.311851024627686
aF60.31438684463501
aF49.691426038742065
aF50.47010898590088
aF43.2900869846344
aF25.58785605430603
aF31.069606065750122
aF89.88045620918274
aF95.31828093528748
aF20.97991704940796
aF17.142730951309204
aF20.64259099960327
aF64.3792040348053
aF30.94501519203186
aF12.801180839538574
aF67.39544010162354
aF20.418503999710083
aF154.4152009487152
aF74.61662101745605
aF128.82098698616028
aF41.337034940719604
aF81.1186249256134
aF29.35045289993286
aF61.9540069103241
aF180.32163906097412
aF12.654856204986572
aF176.2882649898529
aF55.358596086502075
aF50.96349906921387
aF149.9683620929718
aF26.705822944641113
aF37.04326295852661
aF111.96525692939758
aF47.67151403427124
aF16.15331196784973
aF31.61831498146057
aF40.896766901016235
aF11.180969953536987
aF57.66612100601196
aF31.61951994895935
aF21.817275047302246
aF24.48506999015808
aF33.794013023376465
aF20.43355393409729
aF31.070287942886353
aF36.297013998031616
aF64.42950201034546
aF261.40189003944397
aF50.86520981788635
aF24.24800705909729
aF34.317359924316406
aF13.952721118927002
aF37.887365102767944
aF13.284686088562012
aF102.01713609695435
aF42.84599494934082
aF118.55245208740234
aF14.424640893936157
aF37.521400928497314
aF104.45082998275757
aF26.243232011795044
aF85.73245286941528
aF171.6362280845642
aF12.784196853637695
aF24.444371938705444
aF21.710875988006592
aF16.353281021118164
aF46.93491005897522
aF64.58446097373962
aF106.4179539680481
aF89.91014385223389
aF14.773706197738647
aF33.502492904663086
aF303.87977600097656
aF48.356557846069336
aF56.29592418670654
aF50.25438690185547
aF14.622843027114868
aF20.52114701271057
aF23.465006113052368
aF14.695852994918823
aF152.86648607254028
aF148.19494605064392
aF57.14412593841553
aF50.678091049194336
aF191.77852606773376
aF60.36745309829712
aF304.1581130027771
aF33.28419589996338
aF22.031980991363525
aF173.4525978565216
aF165.34515595436096
aF246.55757188796997
aF21.346518993377686
aF142.24816703796387
aF33.206552028656006
aF18.01643204689026
aF29.49986505508423
aF26.043878078460693
aF207.4472460746765
aF162.38832688331604
aF35.211673974990845
aF32.86797904968262
aF90.80269312858582
aF14.5749990940094
aF16.16569685935974
aF33.428000926971436
aF82.81430101394653
aF54.40051293373108
aF32.232073068618774
aF27.851166009902954
aF23.92788004875183
aF168.5827989578247
aF53.961764097213745
aF176.70789885520935
aF18.59065294265747
aF43.76056790351868
aF41.14856290817261
aF15.4858717918396
aF41.99063181877136
aF40.44195103645325
aF16.240146160125732
aF54.94610118865967
aF302.447557926178
aF17.794395923614502
aF108.6591579914093
aF89.78369092941284
aF72.69197392463684
aF33.179556131362915
aF31.060317993164062
aF192.9220130443573
aF116.8003900051117
aF25.495110034942627
aF21.126949071884155
aF193.41391515731812
aF73.36396384239197
aF18.387423038482666
aF13.804517984390259
aF142.33109593391418
aF31.044553995132446
aF56.20241689682007
aF19.37637686729431
aF78.12572288513184
aF86.65066385269165
aF161.53847122192383
aF17.361951112747192
aF101.30859208106995
aF301.84653306007385
aF31.71357798576355
aF23.71813702583313
aF41.72292113304138
aF143.32481002807617
aF53.71536087989807
aF68.64631915092468
aF69.57663083076477
aF299.10215997695923
aF12.447141885757446
aF78.05883884429932
aF183.31939697265625
aF18.542457818984985
aF58.7207977771759
aF26.473026037216187
aF53.91684412956238
aF24.553454875946045
aF22.449342966079712
aF61.25748300552368
aF33.19330191612244
aF19.656391143798828
aF100.59076714515686
aF30.705991983413696
aF54.346861124038696
aF30.149359941482544
aF22.693145990371704
aF25.821632862091064
aF64.1997480392456
aF35.90404510498047
aF256.40322494506836
aF73.61939120292664
aF42.15787696838379
aF139.2415370941162
aF60.68522882461548
aF21.45363712310791
aF42.89702606201172
aF17.526402950286865
aF28.264626026153564
aF97.61722612380981
aF94.10611891746521
aF74.70834589004517
aF23.44957399368286
aF29.3875150680542
aF27.284976959228516
aF32.94940209388733
aF163.8864049911499
aF77.26486802101135
aF248.72752404212952
aF18.17359495162964
aF18.431566953659058
aF22.342215061187744
aF135.56575202941895
aF26.89662003517151
aF30.437566995620728
aF104.070237159729
aF32.8716881275177
aF74.9686188697815
aF60.42527794837952
aF89.59660196304321
aF49.27508187294006
aF15.148952960968018
aF30.335397005081177
aF27.844377994537354
aF137.40847992897034
aF187.08766722679138
aF26.948814868927002
aF58.59658885002136
aF19.079802989959717
aF52.06274104118347
aF32.392783880233765
aF51.41548800468445
aF24.806389808654785
aF27.577290058135986
aF105.91693592071533
aF37.53168988227844
aF28.573033094406128
aF31.091378927230835
aF303.5380051136017
aF31.13223886489868
aF201.97440910339355
aF100.00877594947815
aF17.0001060962677
aF29.5909640789032
aF164.8596911430359
aF24.3871111869812
aF39.2467679977417
aF26.67976689338684
aF30.138123035430908
aF67.57886099815369
aF13.649874210357666
aF151.30523991584778
aF25.27668786048889
aF16.754543781280518
aF54.95878314971924
aF38.228907108306885
aF14.150469064712524
aF48.061147928237915
aF38.1395800113678
aF14.787479877471924
aF13.037391901016235
aF45.61034393310547
aF12.922384023666382
aF177.29589986801147
aF26.469643115997314
aF50.53075289726257
aF17.83161187171936
aF301.2928669452667
aF20.970155000686646
aF21.60103487968445
aF67.88698387145996
aF26.567189931869507
aF248.75104403495789
aF32.97882103919983
aF46.76408910751343
aF165.47073698043823
aF137.86712312698364
aF239.5975399017334
aF18.368815898895264
aF61.92307686805725
aF21.393903017044067
aF27.125259160995483
aF23.01168704032898
aF302.7594518661499
aF17.82356309890747
aF40.58212399482727
aF56.69368505477905
aF53.120837926864624
aF14.715527057647705
aF15.074281215667725
aF41.378695011138916
aF112.59145998954773
aF127.15633201599121
aF13.27659296989441
aF11.124938011169434
aF15.313770055770874
aF164.2138431072235
aF48.214449882507324
aF304.0824429988861
aF51.33139395713806
aF32.56724500656128
aF47.55754113197327
aF14.231154918670654
aF90.34771299362183
aF12.520570039749146
aF44.08453106880188
aF33.74843502044678
aF11.519012212753296
aF24.69317603111267
aF80.56837010383606
aF54.58548903465271
aF15.419319152832031
aF72.28467202186584
aF36.35858607292175
aF54.698331117630005
aF14.553231000900269
aF51.67661190032959
aF58.712188959121704
aF304.1500861644745
aF13.749900102615356
aF33.14845299720764
aF26.06570601463318
aF32.18354105949402
aF45.24668598175049
aF82.7725019454956
aF79.20419788360596
aF14.263700008392334
aF20.291545152664185
aF17.498249053955078
aF35.03352999687195
aF21.775738954544067
aF67.11802792549133
aF21.400036811828613
aF58.95867109298706
aF23.51089906692505
aF88.32400488853455
aF303.0719470977783
aF259.692645072937
aF45.939342975616455
aF30.971853017807007
aF53.020228147506714
aF44.684075117111206
aF301.4899649620056
aF42.18110990524292
aF30.8859441280365
aF41.11638808250427
aF25.20809006690979
aF31.550410985946655
aF45.88969016075134
aF43.82280683517456
aF42.41726994514465
aF15.085071802139282
aF184.3080689907074
aF42.89827108383179
aF24.39856791496277
aF32.419273853302
aF24.03896999359131
aF84.06012392044067
aF14.426707983016968
aF13.827054977416992
aF187.07518601417542
aF40.04610800743103
aF89.45335698127747
aF16.07887315750122
aF202.12557792663574
aF187.7497899532318
aF26.532196044921875
aF218.33351707458496
aF60.852638959884644
aF22.666756868362427
aF114.50420999526978
aF43.365397214889526
aF15.595870971679688
aF302.5227789878845
aF97.06924414634705
aF23.530858039855957
aF38.990092039108276
aF16.443734884262085
aF40.208101987838745
aF304.31754302978516
aF82.80186891555786
aF25.967557191848755
aF115.63915491104126
aF17.80282688140869
aF30.857529878616333
aF94.41184997558594
aF37.84800887107849
aF65.36970496177673
aF34.01894211769104
aF31.477296829223633
aF99.62630486488342
aF47.47653603553772
aF21.73018789291382
aF40.00578808784485
aF22.56584596633911
aF42.85625982284546
aF39.117928981781006
aF33.23122787475586
aF134.87893295288086
aF61.25033783912659
aF39.669925928115845
aF35.68187379837036
aF36.36713910102844
aF68.74066281318665
aF104.62913393974304
aF62.98204207420349
aF29.928464889526367
aF28.58720302581787
aF13.722148895263672
aF24.990926027297974
aF105.54809999465942
aF87.60413980484009
aF28.38871717453003
aF33.04440402984619
aF40.70191407203674
aF27.86645483970642
aF38.15988492965698
aF195.4106900691986
aF12.77951192855835
aF39.972458839416504
aF25.580963134765625
aF22.312719106674194
aF20.418515920639038
aF134.53655004501343
aF244.75846099853516
aF23.204307079315186
aF108.78141212463379
aF16.278422117233276
aF110.37421703338623
aF78.42898607254028
aF14.427599906921387
aF51.06429195404053
aF15.916751861572266
aF101.0524160861969
aF63.90191698074341
aF13.148059844970703
aF99.79811000823975
aF37.78985905647278
aF137.6481192111969
aF242.63864588737488
aF33.15136909484863
aF37.27228093147278
aF91.51017999649048
aF95.88112211227417
aF30.052048921585083
aF43.37900900840759
aF31.27701997756958
aF152.19378018379211
aF64.69706583023071
aF43.84366703033447
aF60.724929094314575
aF111.34245204925537
aF77.5961799621582
aF22.271769046783447
aF14.991331100463867
aF17.206737995147705
aF17.953382968902588
aF45.394469022750854
aF33.5708110332489
aF32.03282904624939
aF36.78642296791077
aF13.25563907623291
aF91.44549298286438
aF26.650191068649292
aF31.59969401359558
aF31.662895917892456
aF90.80896210670471
aF64.16635489463806
aF38.35897397994995
aF51.31194496154785
aF73.34741020202637
aF17.09382700920105
aF14.665955066680908
aF91.55928707122803
aF12.798171043395996
aF77.56861305236816
aF94.35622000694275
aF159.23295903205872
aF69.24931287765503
aF14.193631172180176
aF39.133667945861816
aF16.393913984298706
aF76.76606106758118
aF16.220894813537598
aF66.73737597465515
aF18.258277893066406
aF17.736562967300415
aF34.70330786705017
aF59.403326988220215
aF92.55733609199524
aF13.719134092330933
aF116.80304098129272
aF300.8645100593567
aF14.943712949752808
aF21.674753189086914
aF106.08592104911804
aF72.45844388008118
aF92.32441306114197
aF14.854835987091064
aF11.977528810501099
aF154.69373202323914
aF77.32943391799927
aF13.607957124710083
aF21.9186909198761
aF16.7502920627594
aF45.07054400444031
aF88.80041599273682
aF14.78307294845581
aF16.856993913650513
aF19.318033933639526
aF57.85099697113037
aF64.62184715270996
aF19.746522903442383
aF94.60987496376038
aF12.172158002853394
aF52.13871383666992
aF21.2983500957489
aF16.691436052322388
aF116.17367792129517
aF20.24376606941223
aF28.557061195373535
aF41.84371209144592
aF71.30525779724121
aF28.702548027038574
aF18.202491998672485
aF12.632344007492065
aF91.36539101600647
aF77.82041597366333
aF69.96894097328186
aF18.393961191177368
aF88.54417395591736
aF33.56651782989502
aF199.33821082115173
aF15.32068419456482
aF138.69274497032166
aF19.22051215171814
aF45.18354606628418
aF151.85962295532227
aF22.962570905685425
aF23.349443912506104
aF27.737730979919434
aF94.97267508506775
aF16.001816034317017
aF73.12628602981567
aF36.212488889694214
aF13.63474988937378
aF33.01895189285278
aF24.253381967544556
aF48.52815794944763
aF30.95290994644165
aF28.99149990081787
aF13.856981039047241
aF32.712069034576416
aF306.33129811286926
aF78.5610101222992
aF87.1038110256195
aF40.77771496772766
aF33.95993494987488
aF87.88409805297852
aF77.60202503204346
aF41.82131791114807
aF138.2033088207245
aF23.14552402496338
aF30.08722996711731
aF66.4977080821991
aF28.45924997329712
aF33.850484132766724
aF24.043247938156128
aF23.35486888885498
aF12.322173118591309
aF16.29625105857849
aF298.18402791023254
aF57.34031081199646
aF62.474807024002075
aF24.690540075302124
aF85.0345311164856
aF32.078946113586426
aF17.934674978256226
aF54.589797019958496
aF52.63806986808777
aF14.672243118286133
aF22.205363988876343
aF57.90114712715149
aF14.980962991714478
aF40.45319890975952
aF55.81728720664978
aF19.952744960784912
aF17.61370301246643
aF243.68241596221924
aF63.49029302597046
aF133.92300510406494
aF187.46175909042358
aF79.84311103820801
aF72.55587482452393
aF212.04747796058655
aF126.91237902641296
aF34.32971405982971
aF14.222115993499756
aF247.78429102897644
aF169.3818199634552
aF48.732604026794434
aF23.959584951400757
aF54.421952962875366
aF35.03264498710632
aF30.16338014602661
aF161.17892503738403
aF39.84293794631958
aF17.23935317993164
aF71.5983829498291
aF35.64980697631836
aF288.9914758205414
aF28.765647888183594
aF128.63030290603638
aF24.412118911743164
aF59.78105306625366
aF25.632158041000366
aF25.062329053878784
aF38.02575707435608
aF30.09230899810791
aF68.90892887115479
aF25.357807874679565
aF20.00366711616516
aF21.361127853393555
aF36.07901096343994
aF62.62704396247864
aF65.33469796180725
aF41.58637499809265
aF27.983942985534668
aF26.123981952667236
aF23.11165714263916
aF172.49490809440613
aF14.491816997528076
aF61.27447509765625
aF13.37462592124939
aF38.13840103149414
aF28.224885940551758
aF12.311644077301025
aF12.054460048675537
aF105.23757290840149
aF23.95360803604126
aF25.963510036468506
aF54.70063781738281
aF22.20945382118225
aF27.28201699256897
aF28.296365976333618
aF13.820931911468506
aF51.30441188812256
aF35.13253211975098
aF43.49498796463013
aF302.93676710128784
aF25.95526695251465
aF71.56797695159912
aF67.24468183517456
aF17.170428037643433
aF154.17807412147522
aF17.97254705429077
aF49.51698398590088
aF41.38422608375549
aF304.9285089969635
aF73.16755199432373
aF14.696190118789673
aF48.84841299057007
aF300.94719791412354
aF32.96593499183655
aF23.67381000518799
aF117.9809980392456
aF151.74840998649597
aF107.12753295898438
aF79.68298101425171
aF38.18616795539856
aF68.15556502342224
aF41.77361583709717
aF17.363924980163574
aF75.39312314987183
aF64.34230303764343
aF80.42660593986511
aF99.75837278366089
aF19.532848119735718
aF181.14085578918457
aF138.51747584342957
aF173.05644702911377
aF67.54843783378601
aF27.621068000793457
aF43.8757209777832
aF19.308518171310425
aF69.14114022254944
aF300.61246705055237
aF26.231191873550415
aF53.92314291000366
aF55.99592709541321
aF12.290524005889893
aF29.91753602027893
aF17.941822052001953
aF43.46430492401123
aF24.071879148483276
aF31.572432041168213
aF16.375067949295044
aF118.47712111473083
aF39.43488597869873
aF92.27334308624268
aF52.58199501037598
aF127.78507494926453
aF305.5490520000458
aF52.5547730922699
aF45.165629148483276
aF80.95799398422241
aF49.09047293663025
aF217.12286520004272
aF45.44913411140442
aF25.96179509162903
aF21.385728120803833
aF158.64702916145325
aF73.02267003059387
aF21.381949186325073
aF15.559885025024414
aF46.241626024246216
aF22.23279905319214
aF17.22136902809143
aF34.07580804824829
aF16.366254091262817
aF21.81023097038269
aF40.210001945495605
aF38.39879012107849
aF26.022392988204956
aF27.635530948638916
aF35.26821303367615
aF169.44017004966736
aF77.14226222038269
aF31.201632976531982
aF15.13585114479065
aF72.68437099456787
aF72.51228713989258
aF12.173765897750854
aF48.8508460521698
aF39.71728706359863
aF31.51681399345398
aF72.7603440284729
aF46.18270492553711
aF104.97938895225525
aF50.71787691116333
aF67.69242405891418
aF219.42622303962708
aF14.19701886177063
aF49.24260497093201
aF17.11504602432251
aF63.02630805969238
aF30.18450903892517
aF16.58339500427246
aF67.27187609672546
aF38.702656984329224
aF22.490725994110107
aF38.894891023635864
aF53.690104961395264
aF94.96237301826477
aF301.7201919555664
aF59.128143072128296
aF21.555984020233154
aF117.2042441368103
aF21.025513172149658
aF97.23413705825806
aF42.67882800102234
aF183.61576199531555
aF19.927000045776367
aF14.529004096984863
aF138.15008401870728
aF26.855799198150635
aF301.71421098709106
aF30.160440921783447
aF67.80274105072021
aF107.508474111557
aF16.92587685585022
aF13.905067920684814
aF300.14304995536804
aF39.766873836517334
aF58.27304196357727
aF23.372599124908447
aF13.1978120803833
aF16.78730082511902
aF22.357835054397583
aF20.69344210624695
aF51.54813885688782
aF31.08424186706543
aF176.66164803504944
aF83.27184700965881
aF19.065986156463623
aF50.41034913063049
aF18.442771911621094
aF19.933146953582764
aF23.50449299812317
aF24.87835383415222
aF159.05058217048645
aF14.663312911987305
aF26.18602204322815
aF32.18434190750122
aF128.00152802467346
aF42.446868896484375
aF13.155402898788452
aF15.083209037780762
aF301.36249899864197
aF63.552743911743164
aF25.894040822982788
aF152.96541094779968
aF38.121105909347534
aF221.7189679145813
aF28.77225685119629
aF87.45403122901917
aF106.0228431224823
aF34.707361936569214
aF38.80613899230957
aF20.40697479248047
aF47.089367151260376
aF42.02390694618225
aF27.18910789489746
aF106.99642896652222
aF13.715759038925171
aF24.015724897384644
aF25.43168807029724
aF34.1325798034668
aF27.06150984764099
aF13.385018110275269
aF19.728654861450195
aF43.26660180091858
aF17.210789918899536
aF44.41360020637512
aF28.555536031723022
aF14.01294493675232
aF31.655128955841064
aF33.28552484512329
aF22.99133586883545
aF20.767059803009033
aF26.628262042999268
aF13.849210023880005
aF41.30512881278992
aF170.34356212615967
aF33.38157105445862
aF23.19715714454651
aF71.77661991119385
aF50.92687797546387
aF300.529659986496
aF17.108336925506592
aF14.882782936096191
aF59.81139779090881
aF41.37080216407776
aF13.573593139648438
aF143.19912099838257
aF16.61029815673828
aF13.659723043441772
aF17.468641996383667
aF159.07736086845398
aF14.748146057128906
aF58.285012006759644
aF67.38573408126831
aF21.446206092834473
aF13.15732717514038
aF22.41478705406189
aF215.54346203804016
aF22.884013891220093
aF303.047101020813
aF244.1017200946808
aF47.45872688293457
aF88.13618612289429
aF69.74539399147034
aF24.340167999267578
aF13.024878978729248
aF33.17231607437134
aF57.35898685455322
aF206.31040287017822
aF54.659579038619995
aF134.48202419281006
aF22.978052139282227
aF41.120660066604614
aF146.92470622062683
aF13.963027954101562
aF219.62894201278687
aF13.37959599494934
aF169.1425120830536
aF15.340068101882935
aF13.319451808929443
aF74.08754682540894
aF38.18253803253174
aF14.05599594116211
aF12.095155000686646
aF27.651373863220215
aF41.442946910858154
aF12.290172100067139
aF20.32591414451599
aF263.85140800476074
aF35.954445123672485
aF35.19163680076599
aF64.3015501499176
aF13.561017036437988
aF27.145364999771118
aF36.54012703895569
aF301.6386671066284
aF40.178690910339355
aF156.22866702079773
aF67.42698001861572
aF20.221143007278442
aF31.729007959365845
aF50.99438786506653
aF91.15483784675598
aF16.55546808242798
aF193.83301210403442
aF159.55402302742004
aF108.15904903411865
aF29.237025022506714
aF83.5357711315155
aF300.28448009490967
aF35.16453194618225
aF45.85684108734131
aF19.123288869857788
aF21.953927040100098
aF62.24807000160217
aF40.7454788684845
aF53.936254024505615
aF100.80314993858337
aF36.893006801605225
aF17.801866054534912
aF209.32793402671814
aF26.713073015213013
aF53.924885988235474
aF117.70447087287903
aF160.95475387573242
aF18.672758102416992
aF49.73224711418152
aF35.71054792404175
aF303.82560992240906
aF33.0439350605011
aF105.2506971359253
aF27.283654928207397
aF180.63592505455017
aF17.949318885803223
aF29.240644931793213
aF25.91295313835144
aF303.8460741043091
aF21.916687965393066
aF33.917672872543335
aF15.880532026290894
aF47.51794505119324
aF18.79591703414917
aF58.50687503814697
aF23.379315853118896
aF13.23647403717041
aF110.33806300163269
aF62.83656597137451
aF163.77023005485535
aF31.62824010848999
aF25.21302103996277
aF157.20835995674133
aF16.49403691291809
aF280.7979271411896
aF23.635963916778564
aF74.85030102729797
aF31.094374895095825
aF178.3245768547058
aF11.45460295677185
aF13.44230604171753
aF24.62342405319214
aF14.178816080093384
aF219.13336086273193
aF137.2888171672821
aF25.959635019302368
aF127.46260714530945
aF84.77073287963867
aF38.97000002861023
aF27.606523990631104
aF26.81392192840576
aF41.41266703605652
aF21.853657960891724
aF31.407349109649658
aF56.093672037124634
aF21.969890117645264
aF168.7741379737854
aF37.191927909851074
aF33.733553886413574
aF20.64257001876831
aF301.03885793685913
aF124.06117701530457
aF50.92881107330322
aF14.56473183631897
aF83.602215051651
aF29.10956883430481
aF67.32249402999878
aF37.34876298904419
aF91.47531986236572
aF35.36917591094971
aF51.16119313240051
aF63.847134828567505
aF97.10604906082153
aF30.47039794921875
aF24.31220293045044
aF51.45824408531189
aF20.046449899673462
aF48.13314604759216
aF82.88137292861938
aF20.196153163909912
aF169.01960015296936
aF20.9640691280365
aF157.93200707435608
aF136.74943709373474
aF159.048357963562
aF25.013923168182373
aF21.57042121887207
aF126.49510407447815
aF300.0991699695587
aF79.24537587165833
aF46.25786900520325
aF36.00045204162598
aF59.09736490249634
aF53.7771680355072
aF28.799211025238037
aF261.45568585395813
aF15.971190929412842
aF14.032948017120361
aF56.42006301879883
aF29.758569955825806
aF55.14439606666565
aF14.59338116645813
aF276.5203101634979
aF36.77993822097778
aF300.2520408630371
aF27.522401809692383
aF28.014480113983154
aF212.68766617774963
aF20.04719591140747
aF29.803247928619385
aF300.1006500720978
aF302.560791015625
aF24.517005920410156
aF43.650989055633545
aF33.93247890472412
aF25.477978944778442
aF109.81596803665161
aF22.270573139190674
aF300.64353704452515
aF102.73030304908752
aF120.10871195793152
aF25.40841007232666
aF70.90084099769592
aF22.00447988510132
aF122.91106796264648
aF63.24703907966614
aF30.456085205078125
aF20.65992784500122
aF20.31275510787964
aF259.08723282814026
aF300.1005120277405
aF55.40810203552246
aF80.5389449596405
aF308.10275506973267
aF58.70283102989197
aF47.51856303215027
aF54.348459005355835
aF20.48308515548706
aF46.4974091053009
aF17.63870406150818
aF46.632795095443726
aF31.754971027374268
aF224.50371193885803
aF56.32450199127197
aF139.61379098892212
aF42.215842962265015
aF82.23264384269714
aF25.131962060928345
aF201.05919408798218
aF48.05796790122986
aF22.793899059295654
aF61.568947076797485
aF68.38752794265747
aF26.741754055023193
aF89.4880199432373
aF13.33059811592102
aF87.41181182861328
aF13.376036882400513
aF44.8825581073761
aF11.653898000717163
aF194.5393087863922
aF64.29731011390686
aF94.90133595466614
aF14.930385828018188
aF23.599239826202393
aF48.69129395484924
aF31.33273696899414
aF19.892730951309204
aF300.5079538822174
aF25.85309886932373
aF120.3142020702362
aF68.53271889686584
aF96.46964693069458
aF38.50857210159302
aF201.42167592048645
aF77.9237949848175
aF198.19209790229797
aF29.443986892700195
aF58.49384689331055
aF14.959155082702637
aF75.52601790428162
aF14.858617067337036
aF13.718225955963135
aF23.60020685195923
aF155.79829907417297
aF161.6524429321289
aF120.38635897636414
aF12.869046926498413
as.