(dp0
S'successes'
p1
(lp2
I01
aI01
aI01
aI01
aI01
aI01
aI01
aI01
aI01
aI01
aI01
aI01
aI01
aI01
aI01
aI01
aI01
aI01
aI01
aI01
aI01
aI01
aI01
aI01
aI01
aI01
aI01
aI01
aI00
aI01
aI01
aI01
aI01
aI00
aI01
aI01
aI01
aI01
aI01
aI01
aI01
aI01
aI01
aI01
aI01
aI01
aI01
aI01
aI01
aI01
aI01
aI01
aI01
aI01
aI01
aI01
aI01
aI01
aI01
aI00
aI01
aI01
aI01
aI01
aI01
aI01
aI01
aI01
aI01
aI01
aI01
aI01
aI01
aI01
aI01
aI01
aI01
aI01
aI01
aI01
aI01
aI01
aI01
aI01
aI01
aI01
aI01
aI01
aI01
aI01
aI01
aI01
aI01
aI01
aI01
aI01
aI01
aI00
aI01
aI01
aI01
aI01
aI01
aI01
aI01
aI01
aI01
aI01
aI01
aI01
aI01
aI01
aI01
aI01
aI01
aI01
aI01
aI01
aI01
aI01
aI01
aI01
aI01
aI01
aI01
aI01
aI01
aI01
aI01
aI01
aI01
aI01
aI01
aI01
aI01
aI01
aI01
aI01
aI01
aI01
aI01
aI01
aI01
aI01
aI01
aI01
aI01
aI01
aI01
aI01
aI01
aI01
aI01
aI01
aI01
aI01
aI01
aI01
aI01
aI01
aI01
aI01
aI01
aI01
aI01
aI01
aI01
aI01
aI01
aI01
aI01
aI01
aI01
aI01
aI01
aI01
aI01
aI01
aI01
aI01
aI01
aI01
aI01
aI01
aI01
aI01
aI01
aI00
aI01
aI01
aI01
aI01
aI01
aI01
aI01
aI01
aI01
aI01
aI01
aI01
aI01
aI01
aI00
aI01
aI01
aI01
aI01
aI01
aI01
aI01
aI01
aI01
aI01
aI01
aI01
aI01
aI01
aI01
aI01
aI01
aI01
aI01
aI01
aI01
aI01
aI01
aI01
aI01
aI01
aI01
aI01
aI01
aI01
aI01
aI01
aI01
aI01
aI01
aI01
aI01
aI01
aI01
aI01
aI01
aI01
aI01
aI01
aI01
aI01
aI01
aI01
aI01
aI01
aI01
aI01
aI01
aI01
aI01
aI01
aI01
aI01
aI01
aI01
aI01
aI01
aI01
aI01
aI01
aI01
aI01
aI01
aI01
aI01
aI01
aI01
aI01
aI01
aI00
aI01
aI01
aI01
aI01
aI01
aI01
aI01
aI00
aI01
aI01
aI01
aI01
aI01
aI00
aI01
aI01
aI01
aI01
aI01
aI01
aI01
aI01
aI01
aI01
aI01
aI01
aI01
aI01
aI01
aI01
aI01
aI01
aI00
aI01
aI01
aI01
aI01
aI01
aI01
aI01
aI01
aI00
aI01
aI01
aI01
aI01
aI01
aI01
aI01
aI01
aI01
aI01
aI01
aI01
aI01
aI01
aI01
aI01
aI01
aI01
aI01
aI01
aI01
aI01
aI01
aI01
aI01
aI01
aI01
aI01
aI01
aI01
aI01
aI01
aI00
aI01
aI01
aI01
aI01
aI01
aI01
aI01
aI01
aI01
aI01
aI01
aI01
aI01
aI01
aI01
aI01
aI01
aI01
aI01
aI01
aI01
aI01
aI01
aI01
aI01
aI01
aI01
aI01
aI01
aI01
aI01
aI01
aI01
aI01
aI01
aI01
aI01
aI01
aI01
aI01
aI01
aI01
aI01
aI01
aI01
aI01
aI01
aI01
aI01
aI01
aI01
aI01
aI01
aI01
aI01
aI01
aI01
asS'pidxs'
p3
(lp4
I20070
aI20076
aI20039
aI20099
aI20053
aI20025
aI20017
aI20026
aI20071
aI20006
aI20083
aI20031
aI20007
aI20090
aI20091
aI20052
aI20009
aI20019
aI20008
aI20047
aI20082
aI20068
aI20038
aI20098
aI20095
aI20044
aI20004
aI20093
aI20053
aI20003
aI20078
aI20083
aI20069
aI20045
aI20061
aI20068
aI20066
aI20089
aI20022
aI20070
aI20016
aI20089
aI20075
aI20091
aI20048
aI20086
aI20088
aI20025
aI20032
aI20034
aI20039
aI20034
aI20028
aI20005
aI20068
aI20029
aI20051
aI20069
aI20008
aI20044
aI20099
aI20080
aI20028
aI20004
aI20058
aI20040
aI20062
aI20087
aI20064
aI20073
aI20043
aI20020
aI20031
aI20026
aI20086
aI20055
aI20096
aI20004
aI20014
aI20067
aI20046
aI20048
aI20030
aI20039
aI20087
aI20056
aI20096
aI20048
aI20063
aI20022
aI20018
aI20065
aI20032
aI20077
aI20084
aI20042
aI20020
aI20039
aI20068
aI20091
aI20046
aI20014
aI20004
aI20013
aI20000
aI20063
aI20078
aI20044
aI20082
aI20076
aI20045
aI20067
aI20006
aI20055
aI20054
aI20092
aI20051
aI20036
aI20079
aI20079
aI20012
aI20008
aI20093
aI20074
aI20060
aI20057
aI20009
aI20096
aI20020
aI20041
aI20092
aI20067
aI20033
aI20028
aI20054
aI20056
aI20041
aI20037
aI20062
aI20041
aI20076
aI20095
aI20034
aI20096
aI20082
aI20010
aI20040
aI20003
aI20095
aI20027
aI20026
aI20093
aI20043
aI20010
aI20029
aI20070
aI20010
aI20021
aI20037
aI20082
aI20000
aI20014
aI20036
aI20037
aI20079
aI20043
aI20000
aI20062
aI20014
aI20007
aI20041
aI20050
aI20073
aI20032
aI20001
aI20047
aI20074
aI20036
aI20050
aI20001
aI20010
aI20061
aI20056
aI20050
aI20092
aI20072
aI20026
aI20035
aI20099
aI20025
aI20064
aI20025
aI20047
aI20004
aI20081
aI20003
aI20077
aI20088
aI20033
aI20050
aI20045
aI20068
aI20071
aI20064
aI20062
aI20052
aI20015
aI20071
aI20086
aI20085
aI20062
aI20070
aI20065
aI20045
aI20070
aI20006
aI20008
aI20020
aI20019
aI20012
aI20016
aI20058
aI20058
aI20098
aI20087
aI20058
aI20002
aI20001
aI20002
aI20086
aI20055
aI20090
aI20029
aI20021
aI20092
aI20077
aI20071
aI20035
aI20015
aI20074
aI20030
aI20030
aI20019
aI20071
aI20006
aI20056
aI20079
aI20012
aI20075
aI20040
aI20064
aI20002
aI20081
aI20018
aI20030
aI20076
aI20035
aI20072
aI20078
aI20083
aI20090
aI20052
aI20016
aI20069
aI20001
aI20096
aI20086
aI20083
aI20091
aI20038
aI20044
aI20033
aI20032
aI20061
aI20021
aI20001
aI20090
aI20077
aI20087
aI20039
aI20014
aI20005
aI20035
aI20002
aI20060
aI20033
aI20009
aI20038
aI20027
aI20000
aI20075
aI20040
aI20010
aI20088
aI20033
aI20075
aI20038
aI20009
aI20006
aI20065
aI20041
aI20017
aI20021
aI20089
aI20076
aI20067
aI20089
aI20085
aI20098
aI20042
aI20078
aI20047
aI20038
aI20095
aI20032
aI20089
aI20084
aI20018
aI20079
aI20031
aI20060
aI20081
aI20005
aI20072
aI20022
aI20073
aI20048
aI20056
aI20002
aI20000
aI20050
aI20054
aI20058
aI20026
aI20016
aI20031
aI20052
aI20054
aI20092
aI20019
aI20069
aI20003
aI20098
aI20053
aI20012
aI20090
aI20008
aI20045
aI20065
aI20009
aI20020
aI20072
aI20093
aI20069
aI20043
aI20048
aI20016
aI20035
aI20074
aI20013
aI20083
aI20052
aI20036
aI20030
aI20015
aI20031
aI20015
aI20051
aI20055
aI20036
aI20078
aI20034
aI20027
aI20082
aI20043
aI20053
aI20091
aI20034
aI20077
aI20003
aI20012
aI20087
aI20084
aI20067
aI20028
aI20060
aI20005
aI20055
aI20095
aI20060
aI20053
aI20025
aI20044
aI20064
aI20029
aI20054
aI20051
aI20037
aI20065
aI20047
aI20019
aI20018
aI20093
aI20005
aI20018
aI20028
aI20075
aI20022
aI20029
aI20040
asS'plan_length'
p5
(lp6
I5
aI4
aI30
aI3
aI20
aI1
aI3
aI2
aI6
aI10
aI4
aI17
aI2
aI3
aI2
aI7
aI6
aI1
aI6
aI5
aI10
aI15
aI3
aI4
aI1
aI7
aI4
aI19
aI1
aI5
aI2
aI7
aI1
aI9
aI1
aI2
aI43
aI7
aI7
aI1
aI5
aI1
aI1
aI43
aI7
aI4
aI22
aI11
aI12
aI17
aI36
aI3
aI1
aI9
aI6
aI8
aI5
aI47
aI1
aI22
aI48
aI5
aI6
aI14
aI21
aI3
aI2
aI11
aI6
aI18
aI9
aI9
aI5
aI2
aI3
aI3
aI12
aI1
aI6
aI3
aI13
aI2
aI45
aI4
aI1
aI3
aI3
aI1
aI4
aI20
aI38
aI22
aI19
aI16
aI4
aI25
aI14
aI2
aI2
aI15
aI21
aI7
aI3
aI6
aI7
aI8
aI5
aI26
aI15
aI1
aI2
aI22
aI52
aI2
aI3
aI1
aI5
aI5
aI11
aI1
aI1
aI1
aI5
aI1
aI15
aI2
aI17
aI7
aI1
aI4
aI4
aI21
aI23
aI6
aI49
aI3
aI51
aI1
aI4
aI1
aI3
aI13
aI10
aI7
aI2
aI4
aI4
aI15
aI14
aI1
aI7
aI28
aI21
aI3
aI3
aI3
aI33
aI1
aI7
aI1
aI36
aI3
aI5
aI3
aI2
aI2
aI6
aI7
aI42
aI9
aI3
aI8
aI3
aI6
aI31
aI18
aI7
aI7
aI6
aI4
aI30
aI1
aI13
aI3
aI9
aI7
aI6
aI9
aI2
aI1
aI1
aI10
aI19
aI8
aI20
aI1
aI3
aI2
aI4
aI4
aI19
aI1
aI28
aI3
aI3
aI3
aI5
aI16
aI6
aI36
aI4
aI8
aI8
aI4
aI25
aI12
aI5
aI4
aI1
aI32
aI2
aI5
aI2
aI14
aI1
aI8
aI32
aI3
aI45
aI20
aI3
aI1
aI3
aI1
aI2
aI10
aI1
aI7
aI2
aI32
aI2
aI3
aI13
aI4
aI9
aI29
aI2
aI8
aI8
aI9
aI2
aI3
aI3
aI1
aI7
aI10
aI7
aI31
aI2
aI1
aI26
aI6
aI1
aI1
aI14
aI3
aI12
aI15
aI2
aI13
aI13
aI3
aI10
aI7
aI4
aI10
aI3
aI21
aI6
aI8
aI5
aI22
aI5
aI2
aI2
aI1
aI24
aI1
aI5
aI42
aI12
aI4
aI9
aI10
aI1
aI2
aI7
aI26
aI10
aI8
aI10
aI6
aI1
aI2
aI38
aI2
aI2
aI10
aI1
aI11
aI1
aI5
aI3
aI3
aI10
aI1
aI48
aI10
aI13
aI8
aI11
aI3
aI2
aI30
aI1
aI12
aI9
aI57
aI14
aI6
aI1
aI7
aI35
aI2
aI7
aI7
aI26
aI36
aI7
aI15
aI1
aI36
aI36
aI1
aI5
aI1
aI25
aI1
aI1
aI38
aI6
aI20
aI2
aI8
aI8
aI16
aI5
aI4
aI8
aI22
aI11
aI1
aI43
aI30
aI2
aI8
aI27
aI1
aI1
aI2
aI4
aI32
aI11
aI12
aI3
aI2
aI4
aI7
aI12
aI6
aI7
aI5
aI18
aI12
aI2
aI5
aI35
aI7
aI36
aI30
aI5
aI2
aI13
aI16
aI18
aI1
aI46
aI43
asS'num_nodes'
p7
(lp8
I8
aI10
aI63
aI4
aI70
aI10
aI4
aI3
aI27
aI17
aI17
aI30
aI3
aI6
aI6
aI8
aI18
aI2
aI10
aI8
aI34
aI35
aI6
aI7
aI2
aI21
aI8
aI37
aI131
aI2
aI8
aI5
aI8
aI99
aI2
aI25
aI2
aI3
aI59
aI33
aI14
aI2
aI20
aI3
aI3
aI65
aI8
aI7
aI92
aI28
aI21
aI18
aI54
aI7
aI8
aI17
aI7
aI12
aI10
aI76
aI85
aI3
aI30
aI87
aI24
aI88
aI28
aI39
aI11
aI4
aI16
aI7
aI26
aI12
aI11
aI8
aI8
aI7
aI5
aI21
aI2
aI7
aI5
aI18
aI3
aI92
aI7
aI4
aI8
aI7
aI3
aI7
aI65
aI78
aI78
aI47
aI29
aI125
aI14
aI56
aI16
aI5
aI4
aI34
aI27
aI8
aI7
aI23
aI12
aI10
aI12
aI40
aI18
aI2
aI3
aI80
aI81
aI3
aI5
aI2
aI10
aI12
aI23
aI2
aI14
aI2
aI26
aI2
aI34
aI6
aI27
aI14
aI148
aI7
aI12
aI34
aI28
aI23
aI74
aI6
aI94
aI2
aI10
aI2
aI7
aI22
aI41
aI11
aI4
aI5
aI8
aI20
aI19
aI2
aI21
aI39
aI38
aI5
aI6
aI7
aI57
aI2
aI22
aI4
aI60
aI7
aI23
aI5
aI3
aI12
aI16
aI11
aI69
aI50
aI7
aI14
aI4
aI14
aI47
aI43
aI9
aI14
aI10
aI22
aI62
aI2
aI16
aI99
aI6
aI14
aI40
aI9
aI11
aI4
aI2
aI2
aI30
aI31
aI244
aI49
aI13
aI8
aI69
aI6
aI15
aI5
aI35
aI21
aI62
aI5
aI6
aI5
aI7
aI52
aI10
aI52
aI6
aI14
aI20
aI5
aI49
aI21
aI11
aI18
aI4
aI39
aI3
aI22
aI3
aI28
aI2
aI29
aI62
aI13
aI52
aI40
aI6
aI2
aI9
aI3
aI9
aI19
aI2
aI15
aI4
aI66
aI5
aI6
aI32
aI20
aI24
aI82
aI14
aI24
aI11
aI11
aI4
aI8
aI4
aI4
aI9
aI12
aI17
aI80
aI5
aI3
aI60
aI11
aI5
aI2
aI59
aI124
aI32
aI29
aI4
aI39
aI35
aI79
aI7
aI16
aI9
aI5
aI13
aI7
aI59
aI258
aI19
aI11
aI6
aI29
aI16
aI98
aI13
aI3
aI175
aI78
aI2
aI36
aI81
aI26
aI7
aI13
aI23
aI2
aI4
aI19
aI40
aI14
aI21
aI15
aI87
aI31
aI2
aI4
aI108
aI4
aI11
aI37
aI2
aI90
aI65
aI2
aI6
aI5
aI8
aI24
aI3
aI74
aI11
aI18
aI13
aI22
aI4
aI6
aI58
aI5
aI14
aI27
aI80
aI37
aI9
aI2
aI13
aI65
aI3
aI9
aI13
aI90
aI75
aI14
aI19
aI2
aI87
aI78
aI61
aI3
aI12
aI2
aI35
aI9
aI14
aI74
aI13
aI28
aI7
aI19
aI15
aI26
aI7
aI16
aI18
aI38
aI17
aI2
aI58
aI81
aI5
aI20
aI70
aI2
aI3
aI6
aI7
aI55
aI14
aI29
aI4
aI4
aI9
aI40
aI54
aI17
aI13
aI22
aI29
aI24
aI3
aI9
aI120
aI22
aI71
aI35
aI6
aI4
aI16
aI25
aI41
aI3
aI87
aI107
asS'times'
p9
(lp10
F40.97626304626465
aF37.14260482788086
aF184.4544050693512
aF28.256319046020508
aF196.8514440059662
aF44.49972105026245
aF26.948976039886475
aF21.777262210845947
aF60.699122190475464
aF72.74206495285034
aF40.985177993774414
aF89.68420696258545
aF21.765971899032593
aF32.017735958099365
aF21.64431595802307
aF42.63764810562134
aF52.0449640750885
aF17.67464780807495
aF50.5219669342041
aF39.55657696723938
aF73.38606095314026
aF101.23281598091125
aF29.7603440284729
aF45.32332396507263
aF18.130916118621826
aF49.107539892196655
aF39.02556085586548
aF115.43267512321472
aF302.3605389595032
aF17.48596215248108
aF49.34340500831604
aF27.792268991470337
aF43.32788395881653
aF301.57363510131836
aF19.54224705696106
aF65.04452610015869
aF18.508902072906494
aF23.723786115646362
aF225.72421288490295
aF64.82122302055359
aF46.08739495277405
aF21.0847589969635
aF54.076377153396606
aF16.56333303451538
aF21.1367609500885
aF201.82762098312378
aF44.408732891082764
aF33.1058988571167
aF252.10298109054565
aF76.2689561843872
aF75.91316294670105
aF91.98724699020386
aF206.05057907104492
aF31.6596999168396
aF20.233152151107788
aF70.28068995475769
aF44.846152782440186
aF56.67501878738403
aF39.05386805534363
aF303.0053789615631
aF280.18987798690796
aF17.857094049453735
aF121.21922016143799
aF260.9483950138092
aF105.14945793151855
aF120.01485419273376
aF92.85647916793823
aF129.84472393989563
aF30.976629972457886
aF22.73329520225525
aF73.22087597846985
aF44.154765129089355
aF99.15954279899597
aF49.850252866744995
aF50.09330916404724
aF33.54088592529297
aF32.06577396392822
aF27.351763010025024
aF31.02284812927246
aF74.49261403083801
aF20.305166959762573
aF38.52932000160217
aF25.366523027420044
aF76.94011998176575
aF20.86261296272278
aF251.16548418998718
aF36.799757957458496
aF19.503594160079956
aF33.65684700012207
aF31.885299921035767
aF18.0959951877594
aF38.66434693336487
aF162.43454909324646
aF227.24844598770142
aF182.9763741493225
aF137.4217939376831
aF110.82292914390564
aF302.17688608169556
aF33.54429507255554
aF165.43962693214417
aF77.80485510826111
aF21.23423719406128
aF21.542899131774902
aF94.21250820159912
aF103.97393798828125
aF42.315786838531494
aF38.86307096481323
aF48.61853003501892
aF55.3125159740448
aF51.800649881362915
aF42.611247062683105
aF128.1512269973755
aF89.35627603530884
aF21.32572102546692
aF30.193831205368042
aF191.30405497550964
aF293.6290371417999
aF23.124292850494385
aF34.03230905532837
aF19.32590889930725
aF39.33587598800659
aF47.86258602142334
aF69.315908908844
aF23.627926111221313
aF33.354209184646606
aF40.87325692176819
aF63.33625793457031
aF18.566685914993286
aF116.39551901817322
aF22.67978596687317
aF98.7510290145874
aF52.883349895477295
aF132.23008608818054
aF34.230741024017334
aF38.25884699821472
aF117.68832397460938
aF126.10714912414551
aF56.295876026153564
aF244.0887689590454
aF26.624613046646118
aF281.39847898483276
aF25.74680519104004
aF39.585582971572876
aF19.861148834228516
aF32.55177307128906
aF85.24266719818115
aF87.63368606567383
aF49.20917081832886
aF27.856668949127197
aF30.625856161117554
aF34.15988206863403
aF88.0824499130249
aF83.48157215118408
aF19.915502071380615
aF55.77765989303589
aF150.92984986305237
aF150.26827383041382
aF28.046841144561768
aF26.90850591659546
aF30.75693702697754
aF189.9270579814911
aF18.103090047836304
aF52.458061933517456
aF23.114842891693115
aF214.62687706947327
aF29.373191118240356
aF59.943979024887085
aF24.723878860473633
aF22.955476999282837
aF32.0988290309906
aF46.91486310958862
aF53.57288599014282
aF222.5108790397644
aF95.16947197914124
aF31.33827805519104
aF51.821308851242065
aF29.73196506500244
aF44.32421016693115
aF170.5964789390564
aF125.81999611854553
aF41.515239000320435
aF50.00736594200134
aF41.122127056121826
aF52.766048192977905
aF205.82110404968262
aF19.607347011566162
aF76.30337381362915
aF303.9792640209198
aF30.893795013427734
aF55.564351081848145
aF81.00867581367493
aF42.58130097389221
aF55.44877886772156
aF26.157012939453125
aF17.908795833587646
aF16.104804039001465
aF124.04600310325623
aF111.19462203979492
aF241.41825914382935
aF129.14091992378235
aF25.545207977294922
aF28.992069005966187
aF301.5227859020233
aF25.96841287612915
aF46.3147509098053
aF33.17172384262085
aF134.03688406944275
aF41.9542121887207
aF181.24733591079712
aF29.740761041641235
aF28.27600598335266
aF28.876549005508423
aF37.24887800216675
aF122.67821311950684
aF50.657681941986084
aF183.64524507522583
aF34.32198214530945
aF60.606427907943726
aF59.20744800567627
aF30.81755495071411
aF144.68497109413147
aF73.95541191101074
aF42.046130895614624
aF46.080663204193115
aF17.84896993637085
aF171.08128094673157
aF32.94188594818115
aF55.644240856170654
aF26.56615710258484
aF95.58696985244751
aF18.13455104827881
aF72.03622102737427
aF215.48165702819824
aF49.33916902542114
aF219.04557704925537
aF161.37640500068665
aF33.678640842437744
aF17.294506072998047
aF51.572988986968994
aF21.294260025024414
aF35.47481989860535
aF89.01521277427673
aF19.960518836975098
aF47.487558126449585
aF24.035048961639404
aF198.94730496406555
aF26.70584797859192
aF29.900461196899414
aF101.93641901016235
aF48.986685037612915
aF71.37956094741821
aF198.7067699432373
aF37.984281063079834
aF75.85447096824646
aF56.99101805686951
aF55.25564694404602
aF23.639910221099854
aF43.656028032302856
aF31.044930934906006
aF19.869420051574707
aF48.74750208854675
aF83.88051891326904
aF51.72463011741638
aF210.95363807678223
aF29.12350296974182
aF19.908041954040527
aF164.91701412200928
aF41.592135190963745
aF21.069250106811523
aF24.867442846298218
aF118.64706993103027
aF116.32332491874695
aF84.66111207008362
aF97.90197992324829
aF25.573559045791626
aF114.29531908035278
aF97.96667504310608
aF302.5890829563141
aF25.42938804626465
aF63.74058294296265
aF41.962255001068115
aF31.199980974197388
aF89.51550102233887
aF31.223748922348022
aF131.68789505958557
aF300.9635019302368
aF50.07397389411926
aF52.489306926727295
aF32.114299058914185
aF126.86035108566284
aF50.26127004623413
aF301.34810185432434
aF46.783684968948364
aF21.81431484222412
aF157.4251401424408
aF179.23732590675354
aF23.109944105148315
aF73.17286896705627
aF271.8610291481018
aF85.02992796897888
aF37.09830904006958
aF58.25479507446289
aF69.82896614074707
aF18.522037029266357
aF23.23320484161377
aF62.316920042037964
aF142.6890561580658
aF69.73764610290527
aF68.68884992599487
aF58.9750771522522
aF304.12131905555725
aF73.12968683242798
aF21.93465495109558
aF23.124134063720703
aF297.550008058548
aF20.127089977264404
aF29.20570182800293
aF102.62931704521179
aF15.750463008880615
aF300.26136898994446
aF130.2723228931427
aF22.168186902999878
aF34.516273975372314
aF27.435420036315918
aF30.280176877975464
aF91.16739296913147
aF22.961822986602783
aF247.52045106887817
aF58.66449689865112
aF75.88672995567322
aF64.52153396606445
aF77.45252299308777
aF26.205540895462036
aF40.22224307060242
aF175.4012200832367
aF21.122816801071167
aF70.87557411193848
aF83.80332517623901
aF301.2135000228882
aF82.92475295066833
aF40.85439109802246
aF18.225638151168823
aF52.608116149902344
aF223.23260807991028
aF20.024098873138428
aF56.77764296531677
aF45.246838092803955
aF190.92760610580444
aF244.7627739906311
aF49.54014611244202
aF97.45029783248901
aF20.174509048461914
aF300.3810148239136
aF230.97908210754395
aF218.03888607025146
aF18.480128049850464
aF44.85998487472534
aF17.288372039794922
aF134.28119111061096
aF23.22834086418152
aF27.30729603767395
aF211.34930515289307
aF45.10020112991333
aF108.59213018417358
aF37.41500902175903
aF55.05393099784851
aF56.323089838027954
aF99.27446413040161
aF37.202402114868164
aF43.51035499572754
aF55.83968496322632
aF135.3433780670166
aF65.49317908287048
aF21.392313957214355
aF237.11585783958435
aF255.69314002990723
aF21.66378903388977
aF49.554418087005615
aF199.27438116073608
aF16.51443600654602
aF14.500452995300293
aF21.452075004577637
aF44.17807912826538
aF163.27493810653687
aF59.5207679271698
aF103.58622002601624
aF30.649061918258667
aF23.448473930358887
aF35.50493907928467
aF80.35298705101013
aF140.75197219848633
aF53.20082497596741
aF49.37477898597717
aF51.55413603782654
aF97.11993908882141
aF93.99715805053711
aF22.902724027633667
aF41.43894004821777
aF257.378298997879
aF60.24656105041504
aF207.08788108825684
aF156.56884288787842
aF32.74916219711304
aF25.98543620109558
aF71.73142910003662
aF98.67422699928284
aF118.0210280418396
aF20.678001880645752
aF238.79126405715942
aF273.6758539676666
as.