(dp0
S'successes'
p1
(lp2
I01
aI01
aI01
aI01
aI01
aI01
aI00
aI01
aI01
aI01
aI01
aI01
aI01
aI01
aI01
aI01
aI01
aI00
aI01
aI01
aI00
aI01
aI01
aI01
aI00
aI00
aI00
aI01
aI01
aI01
aI00
aI01
aI01
aI01
aI01
aI00
aI00
aI01
aI01
aI01
aI01
aI00
aI01
aI01
aI01
aI01
aI01
aI01
aI01
aI00
aI00
aI01
aI01
aI01
aI01
aI01
aI01
aI01
aI00
aI00
aI01
aI01
aI01
aI01
aI00
aI00
aI01
aI01
aI01
aI01
aI00
aI00
aI01
aI00
aI01
aI01
aI00
aI01
aI01
aI01
aI01
aI01
aI01
aI00
aI01
aI01
aI01
aI01
aI01
aI01
aI01
aI01
aI01
aI01
aI01
aI01
aI01
aI01
aI00
aI01
aI01
aI01
aI01
aI01
aI01
aI01
aI00
aI01
aI01
aI00
aI01
aI01
aI01
aI01
aI01
aI01
aI01
aI01
aI00
aI01
aI01
aI01
aI01
aI00
aI01
aI01
aI01
aI01
aI00
aI00
aI01
aI00
aI01
aI01
aI00
aI01
aI01
aI01
aI00
aI01
aI00
aI00
aI00
aI01
aI01
aI01
aI01
aI01
aI01
aI01
aI01
aI01
aI01
aI01
aI01
aI01
aI01
aI01
aI01
aI01
aI01
aI01
aI01
aI01
aI01
aI00
aI01
aI01
aI00
aI01
aI01
aI01
aI01
aI00
aI01
aI01
aI00
aI01
aI00
aI01
aI01
aI01
aI00
aI01
aI01
aI00
aI01
aI01
aI01
aI01
aI01
aI01
aI01
aI00
aI01
aI01
aI01
aI01
aI01
aI01
aI01
aI01
aI01
aI01
aI01
aI01
aI01
aI01
aI01
aI01
aI01
aI00
aI01
aI01
aI01
aI01
aI01
aI00
aI01
aI01
aI01
aI01
aI01
aI01
aI01
aI01
aI00
aI01
aI01
aI00
aI01
aI01
aI01
aI01
aI01
aI01
aI00
aI01
aI01
aI01
aI01
aI01
aI01
aI01
aI01
aI01
aI01
aI01
aI00
aI01
aI01
aI01
aI01
aI01
aI01
aI01
aI01
aI00
aI00
aI01
aI01
aI01
aI01
aI00
aI01
aI01
aI01
aI01
aI01
aI01
aI01
aI01
aI00
aI01
aI01
aI00
aI01
aI01
aI01
aI01
aI01
aI01
aI00
aI01
aI01
aI01
aI01
aI01
aI01
aI01
aI00
aI00
aI01
aI01
aI01
aI01
aI01
aI01
aI01
aI01
aI01
aI01
aI01
aI01
aI01
aI00
aI01
aI00
aI01
aI01
aI01
aI01
aI01
aI01
aI01
aI01
aI01
aI01
aI01
aI01
aI01
aI00
aI01
aI01
aI00
aI01
aI01
aI01
aI01
aI01
aI00
aI01
aI01
aI01
aI01
aI01
aI01
aI01
aI00
aI01
aI01
aI01
aI01
aI01
aI01
aI01
aI01
aI01
aI01
aI01
aI00
aI01
aI00
aI01
aI01
aI01
aI01
aI01
aI01
aI01
aI01
aI01
aI01
aI01
aI01
aI01
aI00
aI01
aI01
aI01
aI01
aI01
aI01
aI01
aI01
aI01
aI01
aI01
aI01
aI01
aI00
aI01
aI00
aI01
aI01
aI01
aI01
aI01
aI01
aI01
aI01
aI01
aI01
aI01
aI01
aI01
aI01
aI01
aI01
aI01
aI01
aI01
aI01
aI01
aI01
aI01
aI01
aI01
aI01
aI01
aI00
aI01
aI01
aI00
aI01
aI01
aI01
aI01
aI00
aI01
aI01
aI01
aI01
aI01
aI00
aI00
aI01
aI00
aI01
aI01
aI01
aI00
aI01
aI01
aI01
aI01
aI01
aI01
aI00
aI01
aI01
aI01
aI01
aI01
aI01
aI01
aI01
aI01
aI01
aI01
aI01
aI01
aI00
aI01
aI01
aI01
aI01
aI01
aI01
aI01
aI01
aI01
aI01
aI01
aI01
aI00
aI01
aI01
aI01
aI01
aI01
aI01
aI01
aI01
aI01
aI01
aI01
aI01
aI00
aI01
aI00
aI01
aI01
aI01
aI00
aI00
aI01
aI01
aI00
aI01
aI00
aI00
aI01
aI01
aI01
aI01
aI01
aI00
aI01
aI01
aI01
aI01
aI01
aI01
aI01
aI01
aI00
aI01
aI01
aI00
aI01
aI01
aI01
aI01
aI01
aI01
aI01
aI01
aI00
aI01
aI00
aI01
aI01
aI01
aI01
aI01
aI01
aI01
aI00
aI01
aI01
aI01
aI01
aI01
aI01
aI01
aI01
aI01
aI01
aI01
aI01
aI01
aI01
aI01
aI01
aI01
aI01
aI01
aI01
aI01
aI00
aI01
aI01
aI01
aI00
aI01
aI01
aI01
aI01
aI00
aI01
aI01
aI00
aI01
aI01
aI00
aI00
aI00
aI01
aI01
aI01
aI01
aI01
aI01
aI01
aI01
aI01
aI00
aI00
aI01
aI01
aI01
aI01
aI00
aI01
aI01
aI01
aI01
aI01
aI01
aI01
aI01
aI01
aI01
aI01
aI01
aI01
aI01
aI01
aI01
aI01
asS'num_nodes'
p3
(lp4
I12
aI15
aI80
aI95
aI100
aI62
aI17
aI32
aI182
aI54
aI79
aI26
aI15
aI59
aI22
aI104
aI45
aI17
aI56
aI28
aI17
aI22
aI75
aI33
aI17
aI17
aI17
aI17
aI45
aI29
aI17
aI26
aI16
aI27
aI12
aI17
aI17
aI78
aI31
aI87
aI53
aI17
aI23
aI28
aI30
aI24
aI108
aI197
aI143
aI17
aI17
aI21
aI207
aI20
aI57
aI23
aI8
aI36
aI17
aI17
aI75
aI55
aI30
aI83
aI17
aI17
aI55
aI39
aI94
aI158
aI17
aI17
aI32
aI17
aI79
aI66
aI17
aI20
aI8
aI42
aI18
aI30
aI40
aI17
aI33
aI33
aI47
aI16
aI73
aI21
aI45
aI87
aI48
aI101
aI18
aI25
aI12
aI60
aI17
aI27
aI74
aI52
aI64
aI53
aI47
aI63
aI17
aI31
aI36
aI17
aI20
aI36
aI30
aI24
aI154
aI22
aI35
aI37
aI17
aI24
aI69
aI8
aI59
aI17
aI42
aI15
aI125
aI8
aI17
aI17
aI23
aI17
aI133
aI108
aI17
aI21
aI38
aI35
aI17
aI93
aI17
aI17
aI17
aI20
aI52
aI58
aI31
aI14
aI12
aI37
aI65
aI54
aI25
aI19
aI88
aI93
aI31
aI61
aI25
aI22
aI43
aI130
aI68
aI16
aI52
aI17
aI8
aI53
aI17
aI22
aI51
aI8
aI41
aI17
aI49
aI41
aI17
aI59
aI17
aI77
aI34
aI57
aI17
aI41
aI66
aI17
aI18
aI61
aI129
aI24
aI37
aI92
aI61
aI17
aI57
aI13
aI31
aI72
aI37
aI96
aI44
aI76
aI52
aI69
aI53
aI35
aI11
aI78
aI38
aI142
aI79
aI17
aI45
aI19
aI275
aI17
aI77
aI17
aI61
aI49
aI45
aI23
aI123
aI62
aI8
aI76
aI17
aI15
aI54
aI17
aI89
aI13
aI32
aI47
aI59
aI63
aI17
aI58
aI32
aI49
aI49
aI78
aI23
aI62
aI42
aI149
aI36
aI91
aI17
aI37
aI53
aI8
aI13
aI18
aI150
aI48
aI55
aI17
aI17
aI22
aI15
aI32
aI59
aI17
aI51
aI140
aI156
aI19
aI14
aI49
aI75
aI33
aI17
aI26
aI91
aI17
aI172
aI34
aI29
aI27
aI39
aI60
aI17
aI73
aI92
aI36
aI93
aI52
aI70
aI17
aI17
aI17
aI150
aI8
aI73
aI27
aI33
aI40
aI134
aI259
aI80
aI21
aI56
aI24
aI51
aI17
aI166
aI17
aI52
aI123
aI324
aI149
aI31
aI8
aI72
aI25
aI30
aI9
aI29
aI28
aI19
aI17
aI110
aI35
aI17
aI45
aI12
aI135
aI93
aI45
aI17
aI8
aI28
aI19
aI17
aI30
aI16
aI43
aI17
aI54
aI21
aI14
aI75
aI67
aI83
aI25
aI97
aI114
aI28
aI82
aI17
aI27
aI17
aI37
aI57
aI37
aI55
aI143
aI50
aI23
aI75
aI59
aI15
aI73
aI13
aI83
aI17
aI58
aI65
aI83
aI26
aI106
aI19
aI16
aI32
aI17
aI51
aI17
aI68
aI18
aI17
aI32
aI17
aI22
aI195
aI18
aI39
aI83
aI111
aI141
aI21
aI84
aI43
aI31
aI15
aI17
aI33
aI31
aI45
aI13
aI68
aI11
aI65
aI59
aI33
aI65
aI44
aI16
aI15
aI39
aI17
aI66
aI69
aI17
aI31
aI90
aI44
aI9
aI17
aI56
aI44
aI124
aI106
aI57
aI17
aI17
aI15
aI17
aI80
aI32
aI65
aI17
aI10
aI13
aI483
aI56
aI130
aI57
aI17
aI27
aI67
aI27
aI35
aI62
aI31
aI51
aI65
aI134
aI40
aI88
aI62
aI35
aI17
aI34
aI96
aI62
aI47
aI118
aI38
aI37
aI21
aI27
aI103
aI68
aI10
aI17
aI8
aI25
aI54
aI41
aI89
aI25
aI39
aI51
aI47
aI125
aI15
aI65
aI17
aI41
aI17
aI9
aI134
aI126
aI17
aI17
aI77
aI89
aI17
aI32
aI17
aI17
aI10
aI97
aI72
aI10
aI89
aI17
aI32
aI25
aI31
aI20
aI62
aI27
aI250
aI33
aI17
aI10
aI73
aI17
aI38
aI37
aI26
aI46
aI11
aI54
aI44
aI62
aI17
aI84
aI17
aI12
aI395
aI101
aI29
aI84
aI65
aI41
aI17
aI13
aI68
aI37
aI33
aI50
aI36
aI30
aI63
aI51
aI29
aI61
aI29
aI62
aI154
aI61
aI20
aI28
aI97
aI109
aI147
aI19
aI17
aI80
aI24
aI94
aI17
aI78
aI36
aI42
aI32
aI17
aI48
aI69
aI17
aI94
aI17
aI17
aI17
aI17
aI54
aI12
aI45
aI12
aI25
aI44
aI39
aI54
aI103
aI17
aI17
aI117
aI29
aI30
aI76
aI17
aI51
aI47
aI56
aI31
aI9
aI15
aI33
aI32
aI33
aI43
aI38
aI19
aI155
aI8
aI66
aI29
aI68
asS'times'
p5
(lp6
F73.8275899887085
aF87.69538998603821
aF313.028235912323
aF405.27649092674255
aF325.9652419090271
aF310.4927661418915
aF38.52601599693298
aF107.00886797904968
aF498.27457904815674
aF233.57241892814636
aF294.1910750865936
aF99.35709595680237
aF74.33377981185913
aF255.74660801887512
aF119.65646505355835
aF378.00473403930664
aF186.7720489501953
aF34.09207487106323
aF152.08385014533997
aF123.20988702774048
aF38.57156991958618
aF89.99397206306458
aF306.980525970459
aF123.87285804748535
aF37.334141969680786
aF45.00141191482544
aF34.261921882629395
aF77.53091812133789
aF154.64015698432922
aF152.53674387931824
aF37.14297604560852
aF129.65389895439148
aF73.62731909751892
aF133.02291798591614
aF78.92168807983398
aF38.22769618034363
aF37.87253713607788
aF303.57491993904114
aF176.02974486351013
aF315.94716000556946
aF217.49175000190735
aF36.18093013763428
aF110.25206017494202
aF98.62947702407837
aF110.36656999588013
aF102.26792907714844
aF345.77078318595886
aF607.7210559844971
aF444.50678300857544
aF41.81437087059021
aF36.11587715148926
aF97.04033708572388
aF788.9863538742065
aF120.51946711540222
aF265.0245838165283
aF115.79326295852661
aF62.32258987426758
aF139.15600109100342
aF36.54582595825195
aF36.39839196205139
aF268.45956802368164
aF204.15828895568848
aF110.03396797180176
aF444.8159909248352
aF39.67647385597229
aF34.75973200798035
aF195.05384397506714
aF159.98113298416138
aF314.46889090538025
aF613.0831060409546
aF32.94831991195679
aF35.99942421913147
aF120.49406909942627
aF38.92430305480957
aF329.7239499092102
aF244.88314700126648
aF31.708821773529053
aF95.31609797477722
aF69.1819360256195
aF204.00846695899963
aF113.69370698928833
aF124.28972291946411
aF152.88426399230957
aF33.41077995300293
aF120.6234929561615
aF127.00257921218872
aF179.37930989265442
aF108.068687915802
aF289.39306116104126
aF98.82785892486572
aF180.47098398208618
aF348.38968300819397
aF179.07990312576294
aF306.80286288261414
aF95.00069189071655
aF174.75104999542236
aF76.02806496620178
aF265.70180583000183
aF38.60339379310608
aF153.46141409873962
aF267.44206500053406
aF207.33352184295654
aF240.50526213645935
aF243.45162296295166
aF154.0796639919281
aF209.54501819610596
aF34.943716049194336
aF126.04393196105957
aF142.34235501289368
aF33.51691699028015
aF95.20581293106079
aF155.44591689109802
aF126.11387896537781
aF102.41456484794617
aF556.4808061122894
aF121.81252384185791
aF157.47758412361145
aF151.36870503425598
aF40.85834312438965
aF134.45159602165222
aF239.86960911750793
aF55.20880103111267
aF254.01001000404358
aF44.82583999633789
aF176.09719610214233
aF75.64882493019104
aF391.0809271335602
aF63.54729413986206
aF40.06540107727051
aF35.0318341255188
aF95.63464593887329
aF36.25328993797302
aF489.17960691452026
aF435.92998790740967
aF39.71831297874451
aF86.51011395454407
aF169.72360396385193
aF142.66513895988464
aF38.22175884246826
aF333.6569619178772
aF37.165712118148804
aF34.377243995666504
aF38.68964409828186
aF82.52968001365662
aF182.9717240333557
aF264.1190059185028
aF163.19395899772644
aF68.09464693069458
aF73.26853704452515
aF135.2137370109558
aF239.45618987083435
aF225.84984493255615
aF105.24923205375671
aF91.45871901512146
aF270.0350000858307
aF340.80698800086975
aF114.22233510017395
aF229.43494200706482
aF98.64003705978394
aF84.23255205154419
aF174.73308420181274
aF396.76758098602295
aF315.40889596939087
aF88.18611407279968
aF209.28688192367554
aF32.21424198150635
aF60.57022404670715
aF207.7147879600525
aF39.07228398323059
aF104.52392220497131
aF190.29565405845642
aF59.99734687805176
aF155.23591804504395
aF35.36709117889404
aF207.40510988235474
aF149.35427594184875
aF34.88182497024536
aF200.12996697425842
aF37.72218894958496
aF307.3201651573181
aF131.2915918827057
aF258.56958198547363
aF35.113933086395264
aF174.25142312049866
aF191.9224820137024
aF38.99180197715759
aF83.51331996917725
aF200.72955203056335
aF385.7414288520813
aF97.42910718917847
aF130.42920899391174
aF314.71673703193665
aF269.50724506378174
aF36.28677678108215
aF235.24317502975464
aF79.9263961315155
aF141.12692999839783
aF282.9912121295929
aF177.09205198287964
aF322.0975561141968
aF197.25901699066162
aF337.8097188472748
aF217.78861808776855
aF252.89528107643127
aF242.97133493423462
aF187.7831609249115
aF67.00770878791809
aF198.6358609199524
aF160.71883392333984
aF443.92891097068787
aF322.4072630405426
aF37.19281196594238
aF205.64992594718933
aF91.77048683166504
aF1037.924280166626
aF76.73524904251099
aF247.92175388336182
aF36.33690094947815
aF211.58242797851562
aF178.5957179069519
aF150.23402214050293
aF102.40760087966919
aF428.31792521476746
aF251.50259494781494
aF58.78358483314514
aF332.5225319862366
aF35.9611599445343
aF86.20134210586548
aF225.72595500946045
aF39.38841199874878
aF322.8424651622772
aF78.11002206802368
aF128.8560540676117
aF187.9692599773407
aF186.87699604034424
aF273.5897250175476
aF35.41907596588135
aF221.12210893630981
aF150.98335599899292
aF234.77687096595764
aF158.23215198516846
aF265.19643998146057
aF116.4561288356781
aF191.77184510231018
aF183.87346816062927
aF585.1615438461304
aF179.73971605300903
aF339.66218614578247
aF37.395814180374146
aF122.87420797348022
aF170.84279489517212
aF58.06774401664734
aF67.94600915908813
aF94.8450129032135
aF512.0511331558228
aF239.53974890708923
aF221.52231216430664
aF49.082139015197754
aF37.682907819747925
aF119.51031398773193
aF68.36445093154907
aF164.03420495986938
aF207.23676204681396
aF34.140098094940186
aF226.6196858882904
aF432.18576288223267
aF471.3988058567047
aF109.38851809501648
aF70.30618286132812
aF167.27228593826294
aF220.16423106193542
aF174.36915397644043
aF41.00153303146362
aF136.32743787765503
aF306.42493987083435
aF40.31192898750305
aF453.46216797828674
aF141.48851895332336
aF111.59685611724854
aF139.27127385139465
aF166.782958984375
aF224.67486190795898
aF40.80935311317444
aF365.05232310295105
aF306.6445631980896
aF117.68255615234375
aF341.35246205329895
aF262.7348449230194
aF233.96836400032043
aF70.41366004943848
aF33.463417053222656
aF40.94103693962097
aF594.3092079162598
aF61.130236864089966
aF268.8308730125427
aF122.86957788467407
aF123.0474500656128
aF143.97190308570862
aF437.2476968765259
aF1010.2638788223267
aF295.3082950115204
aF118.74295496940613
aF181.39079189300537
aF124.21765208244324
aF211.95611596107483
aF34.54494500160217
aF531.1404910087585
aF38.64682197570801
aF188.15526413917542
aF482.56362891197205
aF1149.707262992859
aF645.0758221149445
aF96.43101096153259
aF50.43415904045105
aF239.90204095840454
aF106.22208094596863
aF120.40501594543457
aF72.70746302604675
aF117.58174681663513
aF119.7224988937378
aF113.89234018325806
aF34.89845895767212
aF427.94271302223206
aF135.31156086921692
aF34.96871089935303
aF222.63450002670288
aF61.07218384742737
aF499.57225918769836
aF320.1482388973236
aF197.89978408813477
aF36.697076082229614
aF62.94007086753845
aF115.81363797187805
aF112.13074922561646
aF91.05241990089417
aF125.67812299728394
aF75.83178186416626
aF184.48822283744812
aF43.984984159469604
aF175.06971192359924
aF113.5068130493164
aF98.7355329990387
aF286.2662720680237
aF240.04930710792542
aF289.3156418800354
aF111.84086894989014
aF277.43988394737244
aF423.31210803985596
aF115.36556315422058
aF249.1543481349945
aF40.24771189689636
aF167.1454770565033
aF37.52087998390198
aF187.2985179424286
aF258.5854070186615
aF231.46070885658264
aF198.11497497558594
aF445.73653507232666
aF249.03250002861023
aF128.62744998931885
aF323.7530839443207
aF243.05861806869507
aF86.67259311676025
aF317.26437878608704
aF64.25045919418335
aF311.5812690258026
aF35.22204899787903
aF247.68514013290405
aF249.60597896575928
aF249.3869071006775
aF119.97460103034973
aF411.55138421058655
aF108.68081092834473
aF83.43248915672302
aF131.80288195610046
aF79.85884213447571
aF186.7021689414978
aF76.67211198806763
aF308.2934718132019
aF87.10664010047913
aF34.962193965911865
aF109.7175498008728
aF35.18343186378479
aF147.56409406661987
aF554.1071109771729
aF97.57510590553284
aF142.26261687278748
aF299.4824810028076
aF510.4944050312042
aF523.2194969654083
aF93.66084122657776
aF350.15951895713806
aF207.61439418792725
aF148.14387106895447
aF82.70855784416199
aF107.88185715675354
aF154.76968598365784
aF123.87243795394897
aF185.2097430229187
aF68.42927718162537
aF252.87313508987427
aF70.02706480026245
aF209.80570912361145
aF237.576584815979
aF145.44166898727417
aF223.812570810318
aF164.15258502960205
aF68.09534907341003
aF92.48937010765076
aF183.83662605285645
aF35.823716163635254
aF233.56468892097473
aF243.00235080718994
aF44.22491693496704
aF131.13822197914124
aF295.9290568828583
aF167.2936029434204
aF62.11573004722595
aF35.8429229259491
aF214.62181782722473
aF200.9984049797058
aF533.720132112503
aF413.0256040096283
aF196.03482699394226
aF38.54915499687195
aF36.042802810668945
aF82.44469594955444
aF43.381067991256714
aF206.6621391773224
aF154.1203498840332
aF235.6716890335083
aF42.78767204284668
aF66.55106902122498
aF71.40781807899475
aF2085.00518989563
aF192.4615170955658
aF500.8695499897003
aF190.82812595367432
aF33.517123222351074
aF112.14608502388
aF240.87671494483948
aF100.05603098869324
aF147.8388330936432
aF205.27318596839905
aF112.34711694717407
aF188.31500482559204
aF219.74895000457764
aF352.80146288871765
aF162.83928513526917
aF307.4712989330292
aF201.50837397575378
aF179.81593918800354
aF37.73500204086304
aF125.11555314064026
aF283.2780508995056
aF192.42538499832153
aF186.39662504196167
aF473.2129979133606
aF216.61723017692566
aF207.1570520401001
aF118.8127760887146
aF105.17283415794373
aF353.8609449863434
aF198.81057786941528
aF63.29775404930115
aF36.88967299461365
aF60.17474412918091
aF103.89021801948547
aF191.1201810836792
aF235.04187202453613
aF322.56472182273865
aF107.03651785850525
aF172.83722305297852
aF164.44392800331116
aF231.8424620628357
aF396.0178678035736
aF79.37258100509644
aF328.2285361289978
aF39.72891306877136
aF159.26070713996887
aF39.66140007972717
aF56.61750292778015
aF466.8606059551239
aF345.1652419567108
aF32.84220290184021
aF40.655999183654785
aF239.38845992088318
aF292.1598207950592
aF34.82252287864685
aF126.5732569694519
aF36.939862966537476
aF32.61973810195923
aF99.10130500793457
aF323.0062048435211
aF253.8184938430786
aF72.00887203216553
aF284.38324093818665
aF39.559449911117554
aF119.84234809875488
aF140.6851999759674
aF132.66384196281433
aF97.81350803375244
aF272.1682560443878
aF129.3992748260498
aF925.757649898529
aF169.68750190734863
aF33.23162484169006
aF73.2737090587616
aF270.76668214797974
aF38.182466983795166
aF142.07085394859314
aF123.0784740447998
aF135.271094083786
aF149.74227094650269
aF68.40839695930481
aF232.82622599601746
aF176.30110788345337
aF235.21626210212708
aF40.81780195236206
aF374.8757541179657
aF36.19286513328552
aF76.9445309638977
aF1748.345722913742
aF372.3052649497986
aF114.87486004829407
aF320.9835789203644
aF254.68883419036865
aF139.43324613571167
aF41.56893610954285
aF83.13104200363159
aF339.9063401222229
aF123.84545183181763
aF135.94100499153137
aF177.91378498077393
aF146.38835310935974
aF145.66218185424805
aF254.14681720733643
aF227.5371310710907
aF124.09101510047913
aF216.5476951599121
aF150.59095191955566
aF259.9183099269867
aF496.25551295280457
aF307.15677404403687
aF119.9653811454773
aF128.82188892364502
aF325.50966596603394
aF485.5789680480957
aF447.9528901576996
aF84.52543210983276
aF43.29706692695618
aF279.1799170970917
aF106.14100909233093
aF327.725900888443
aF38.57059288024902
aF226.05604910850525
aF178.67073893547058
aF190.4928891658783
aF150.72326803207397
aF39.636682987213135
aF196.5799708366394
aF247.7118980884552
aF41.21805810928345
aF243.68467593193054
aF79.19850611686707
aF37.20839810371399
aF36.577073097229004
aF34.83087706565857
aF233.88142609596252
aF68.29274988174438
aF230.8840630054474
aF68.02751183509827
aF114.54622101783752
aF160.80993914604187
aF167.45560812950134
aF186.9519441127777
aF404.83791184425354
aF35.62155199050903
aF31.710653066635132
aF391.9594509601593
aF140.52315711975098
aF130.7430760860443
aF257.18208503723145
aF37.798580169677734
aF194.96113896369934
aF171.33363699913025
aF157.7799050807953
aF138.85908198356628
aF60.59458088874817
aF80.13822913169861
aF140.66288995742798
aF125.8591878414154
aF132.36430096626282
aF162.6723918914795
aF153.98106002807617
aF95.32184505462646
aF543.780944108963
aF66.13595986366272
aF205.7972068786621
aF109.36188912391663
aF260.576052904129
as.