(dp0
S'successes'
p1
(lp2
I01
aI01
aI01
aI00
aI01
aI01
aI01
aI01
aI01
aI01
aI01
aI00
aI00
aI01
aI01
aI01
aI00
aI01
aI01
aI01
aI01
aI01
aI01
aI01
aI01
aI01
aI01
aI01
aI01
aI00
aI01
aI01
aI01
aI01
aI01
aI01
aI01
aI01
aI01
aI00
aI01
aI01
aI01
aI01
aI01
aI01
aI01
aI01
aI00
aI01
aI00
aI01
aI01
aI01
aI01
aI01
aI01
aI01
aI01
aI01
aI00
aI01
aI01
aI00
aI01
aI01
aI01
aI01
aI01
aI01
aI00
aI01
aI00
aI00
aI01
aI00
aI00
aI01
aI01
aI01
aI01
aI01
aI01
aI01
aI01
aI00
aI01
aI00
aI01
aI01
aI01
aI01
aI00
aI01
aI01
aI01
aI01
aI01
aI01
aI00
aI01
aI00
aI01
aI01
aI01
aI01
aI01
aI01
aI01
aI01
aI00
aI01
aI00
aI01
aI01
aI01
aI01
aI01
aI00
aI00
aI01
aI01
aI00
aI01
aI01
aI01
aI01
aI01
aI01
aI01
aI00
aI00
aI00
aI00
aI00
aI01
aI01
aI01
aI01
aI01
aI00
aI01
aI01
aI00
aI00
aI00
aI00
aI01
aI01
aI01
aI01
aI01
aI01
aI00
aI01
aI01
aI00
aI01
aI01
aI01
aI00
aI00
aI01
aI01
aI00
aI01
aI00
aI01
aI01
aI01
aI01
aI01
aI00
aI01
aI01
aI01
aI01
aI01
aI01
aI01
aI00
aI01
aI01
aI01
aI01
aI01
aI01
aI01
aI00
aI01
aI01
aI01
aI01
aI01
aI01
aI01
aI01
aI01
aI00
aI01
aI01
aI01
aI01
aI01
aI00
aI00
aI00
aI01
aI01
aI00
aI01
aI01
aI00
aI01
aI01
aI01
aI01
aI01
aI01
aI01
aI00
aI01
aI01
aI01
aI01
aI01
aI01
aI01
aI00
aI01
aI01
aI01
aI01
aI01
aI01
aI01
aI01
aI01
aI01
aI01
aI01
aI01
aI01
aI01
aI01
aI01
aI01
aI00
aI00
aI00
aI01
aI01
aI01
aI01
aI01
aI01
aI00
aI01
aI01
aI00
aI01
aI01
aI01
aI01
aI01
aI01
aI01
aI01
aI00
aI00
aI01
aI01
aI01
aI01
aI00
aI01
aI01
aI01
aI00
aI01
aI00
aI01
aI01
aI01
aI01
aI01
aI01
aI01
aI01
aI01
aI00
aI01
aI01
aI01
aI01
aI01
aI01
aI01
aI01
aI01
aI01
aI00
aI00
aI01
aI01
aI00
aI01
aI01
aI01
aI01
aI01
aI01
aI01
aI01
aI00
aI01
aI01
aI01
asS'plan_length'
p3
(lp4
I86
aI10
aI8
aI8
aI9
aI20
aI19
aI22
aI8
aI13
aI10
aI10
aI10
aI13
aI153
aI12
aI12
aI9
aI8
aI21
aI23
aI13
aI13
aI13
aI33
aI18
aI12
aI8
aI22
aI22
aI14
aI13
aI11
aI16
aI16
aI14
aI24
aI9
aI16
aI16
aI12
aI21
aI127
aI26
aI13
aI19
aI10
aI14
aI14
aI8
aI8
aI18
aI10
aI12
aI12
aI133
aI12
aI8
aI13
aI18
aI18
aI15
aI18
aI18
aI17
aI8
aI14
aI11
aI17
aI10
aI10
aI9
aI9
aI9
aI16
aI16
aI16
aI19
aI21
aI14
aI11
aI11
aI26
aI19
aI11
aI11
aI12
aI12
aI16
aI11
aI10
aI14
aI14
aI14
aI10
aI10
aI31
aI8
aI78
aI78
aI12
aI12
aI12
aI11
aI9
aI9
aI23
aI12
aI36
aI10
aI10
aI31
aI31
aI11
aI8
aI8
aI32
aI14
aI14
aI14
aI20
aI14
aI14
aI11
aI15
aI10
aI9
aI12
aI11
aI15
aI15
aI15
aI15
aI15
aI15
aI37
aI14
aI15
aI14
aI17
aI17
aI11
aI19
aI19
aI19
aI19
aI19
aI12
aI8
aI8
aI8
aI13
aI181
aI181
aI22
aI151
aI151
aI13
aI13
aI9
aI9
aI9
aI13
aI14
aI14
aI11
aI11
aI14
aI28
aI8
aI15
aI27
aI27
aI12
aI97
aI10
aI10
aI36
aI18
aI14
aI14
aI22
aI19
aI22
aI8
aI10
aI14
aI13
aI13
aI115
aI15
aI13
aI17
aI15
aI13
aI104
aI44
aI15
aI15
aI14
aI75
aI9
aI9
aI13
aI13
aI13
aI13
aI9
aI17
aI17
aI9
aI11
aI11
aI33
aI19
aI10
aI17
aI11
aI11
aI10
aI10
aI18
aI11
aI8
aI13
aI14
aI19
aI9
aI9
aI9
aI16
aI10
aI11
aI18
aI27
aI8
aI9
aI15
aI10
aI33
aI24
aI16
aI14
aI8
aI17
aI107
aI14
aI14
aI14
aI14
aI22
aI10
aI8
aI13
aI97
aI16
aI16
aI16
aI8
aI8
aI8
aI11
aI8
aI19
aI10
aI25
aI26
aI15
aI15
aI15
aI21
aI11
aI18
aI12
aI12
aI8
aI17
aI16
aI16
aI13
aI13
aI24
aI13
aI26
aI15
aI16
aI13
aI12
aI17
aI18
aI18
aI9
aI24
aI55
aI35
aI8
aI9
aI15
aI12
aI14
aI13
aI13
aI13
aI189
aI14
aI14
aI11
aI10
aI21
aI9
aI19
aI14
aI9
aI17
aI17
aI11
aI54
aI10
asS'num_nodes'
p5
(lp6
I400
aI85
aI28
aI17
aI59
aI75
aI44
aI84
aI8
aI66
aI32
aI17
aI17
aI59
aI714
aI64
aI670
aI26
aI9
aI80
aI139
aI170
aI54
aI48
aI201
aI153
aI35
aI25
aI74
aI17
aI106
aI56
aI43
aI84
aI112
aI29
aI126
aI28
aI76
aI784
aI112
aI99
aI539
aI111
aI57
aI96
aI27
aI45
aI17
aI8
aI17
aI168
aI12
aI96
aI103
aI671
aI81
aI32
aI43
aI107
aI17
aI88
aI93
aI17
aI148
aI38
aI116
aI41
aI100
aI38
aI17
aI40
aI17
aI17
aI57
aI17
aI17
aI93
aI104
aI54
aI45
aI79
aI116
aI87
aI77
aI789
aI70
aI17
aI81
aI52
aI64
aI122
aI17
aI53
aI12
aI26
aI134
aI26
aI376
aI17
aI34
aI17
aI28
aI37
aI43
aI25
aI89
aI27
aI199
aI32
aI17
aI234
aI17
aI76
aI26
aI54
aI133
aI74
aI17
aI723
aI148
aI42
aI17
aI17
aI110
aI15
aI63
aI19
aI40
aI106
aI17
aI17
aI17
aI17
aI17
aI267
aI76
aI87
aI77
aI162
aI17
aI142
aI147
aI17
aI17
aI17
aI17
aI54
aI18
aI33
aI8
aI52
aI795
aI719
aI150
aI420
aI17
aI69
aI64
aI26
aI733
aI17
aI85
aI65
aI17
aI50
aI737
aI52
aI119
aI23
aI42
aI156
aI17
aI57
aI565
aI27
aI53
aI216
aI85
aI76
aI17
aI128
aI103
aI143
aI31
aI52
aI65
aI76
aI17
aI560
aI54
aI47
aI91
aI70
aI77
aI502
aI164
aI74
aI17
aI42
aI342
aI42
aI22
aI56
aI17
aI17
aI17
aI10
aI86
aI784
aI55
aI57
aI17
aI246
aI125
aI88
aI117
aI30
aI61
aI62
aI17
aI64
aI120
aI23
aI153
aI192
aI48
aI32
aI795
aI59
aI94
aI57
aI49
aI70
aI161
aI23
aI58
aI170
aI57
aI201
aI168
aI61
aI66
aI55
aI79
aI455
aI86
aI17
aI17
aI784
aI232
aI62
aI53
aI18
aI531
aI55
aI713
aI111
aI9
aI17
aI18
aI40
aI36
aI39
aI19
aI111
aI259
aI54
aI798
aI17
aI103
aI19
aI96
aI130
aI17
aI38
aI81
aI46
aI17
aI56
aI717
aI246
aI98
aI168
aI56
aI72
aI79
aI50
aI86
aI45
aI17
aI40
aI158
aI220
aI163
aI38
aI38
aI178
aI65
aI49
aI99
aI754
aI786
aI759
aI76
aI703
aI43
aI27
aI90
aI42
aI117
aI71
aI10
aI78
aI17
aI64
aI289
aI84
asS'times'
p7
(lp8
F1228.1475768089294
aF275.8598051071167
aF123.76036405563354
aF34.73119807243347
aF230.8485770225525
aF239.34348487854004
aF152.51902508735657
aF371.47372698783875
aF68.27564001083374
aF187.05063605308533
aF136.24279499053955
aF38.82117414474487
aF32.39433789253235
aF167.0980248451233
aF2278.753445148468
aF267.3727970123291
aF2402.2483370304108
aF89.65635514259338
aF58.19212007522583
aF233.59418892860413
aF446.33500504493713
aF459.93040585517883
aF193.46888494491577
aF208.41979813575745
aF574.9580309391022
aF586.4455699920654
aF142.04132294654846
aF96.80036115646362
aF221.24193596839905
aF40.62031292915344
aF287.5394940376282
aF187.34870791435242
aF144.00982904434204
aF323.8457567691803
aF372.6303849220276
aF113.58869409561157
aF350.9979090690613
aF119.42341995239258
aF320.94254207611084
aF2401.2237520217896
aF285.17807698249817
aF394.3039619922638
aF1656.582850933075
aF331.10550808906555
aF183.8034589290619
aF277.39214301109314
aF123.3329529762268
aF178.78521084785461
aF39.95656108856201
aF55.35032391548157
aF37.867822885513306
aF535.9139320850372
aF82.83948493003845
aF265.97080516815186
aF263.1000909805298
aF2007.3026881217957
aF248.70989799499512
aF92.86239719390869
aF235.54383897781372
aF345.33637499809265
aF39.59131217002869
aF269.8598291873932
aF302.45123410224915
aF37.09973382949829
aF445.5159718990326
aF126.06648993492126
aF337.3614010810852
aF147.73424696922302
aF288.31555914878845
aF138.8045608997345
aF39.51261901855469
aF132.3595209121704
aF36.870025873184204
aF33.146064043045044
aF211.0347340106964
aF44.84440088272095
aF40.435466051101685
aF382.88152599334717
aF283.0254669189453
aF192.23172402381897
aF151.87467503547668
aF233.82019710540771
aF378.41178488731384
aF337.1593849658966
aF257.6708528995514
aF2400.476634979248
aF234.32679796218872
aF38.770029067993164
aF222.37850689888
aF176.88299894332886
aF169.4708170890808
aF328.8454911708832
aF37.79994297027588
aF203.94371104240417
aF72.81008100509644
aF109.91495490074158
aF512.6401720046997
aF97.30443096160889
aF1284.885803937912
aF42.830690145492554
aF137.41441798210144
aF33.824187994003296
aF134.8910620212555
aF128.70434999465942
aF141.83682417869568
aF90.86570501327515
aF387.7994079589844
aF117.39758706092834
aF554.3474669456482
aF133.10152912139893
aF35.00488805770874
aF870.9679021835327
aF38.36498188972473
aF229.47610688209534
aF98.80048489570618
aF149.30727195739746
aF490.89043712615967
aF226.17435503005981
aF35.97959303855896
aF2405.939460992813
aF413.3357050418854
aF177.9283049106598
aF39.256051778793335
aF91.50965309143066
aF319.7521879673004
aF101.02965116500854
aF190.84010815620422
aF102.12962293624878
aF122.33366298675537
aF380.3343060016632
aF36.87903594970703
aF39.65661597251892
aF40.434046030044556
aF36.045356035232544
aF38.010538816452026
aF743.853973865509
aF294.3928442001343
aF285.65792989730835
aF234.25846600532532
aF433.0638859272003
aF36.72978901863098
aF335.87241888046265
aF456.12892389297485
aF45.97019004821777
aF36.259811878204346
aF40.567219972610474
aF40.205296993255615
aF186.09882307052612
aF73.59431099891663
aF97.54540395736694
aF63.4305739402771
aF235.76694107055664
aF2316.7182290554047
aF2401.1577389240265
aF561.2130110263824
aF1659.676283121109
aF32.033973932266235
aF209.51293802261353
aF242.81295013427734
aF107.91038203239441
aF2404.35040807724
aF33.263521909713745
aF266.62092304229736
aF235.85609102249146
aF33.7775239944458
aF182.96473693847656
aF2400.8276751041412
aF192.23523592948914
aF382.88085293769836
aF81.3317301273346
aF176.9685161113739
aF639.7466521263123
aF40.76679086685181
aF171.5926730632782
aF1758.7598509788513
aF91.52961611747742
aF158.61287689208984
aF626.7163779735565
aF232.52102994918823
aF245.34976887702942
aF36.41442608833313
aF368.5350441932678
aF283.2738039493561
aF457.1179540157318
aF94.16352009773254
aF155.79445385932922
aF198.60479497909546
aF247.633239030838
aF32.34076690673828
aF1734.652440071106
aF192.33237099647522
aF233.46740293502808
aF420.7792341709137
aF285.81713700294495
aF274.3384499549866
aF1683.2044339179993
aF448.20526003837585
aF292.6372060775757
aF36.28155708312988
aF174.0557050704956
aF1032.2774200439453
aF148.53762817382812
aF86.31885099411011
aF201.6377398967743
aF34.147096157073975
aF35.7009072303772
aF34.67262601852417
aF61.12139296531677
aF272.0289719104767
aF2401.666559934616
aF162.74591994285583
aF166.8557848930359
aF32.96617293357849
aF600.8568158149719
aF440.63092589378357
aF222.0988368988037
aF394.6757860183716
aF111.92594599723816
aF166.88864994049072
aF184.43469500541687
aF37.75545382499695
aF222.20005798339844
aF320.8216869831085
aF81.92529296875
aF408.8143389225006
aF520.3535270690918
aF206.53297209739685
aF116.01618003845215
aF2400.793086051941
aF166.64942288398743
aF309.97744703292847
aF182.25251388549805
aF137.87087202072144
aF270.5004050731659
aF467.7991940975189
aF78.87644410133362
aF162.2114429473877
aF459.5550389289856
aF183.86337685585022
aF780.5537991523743
aF593.8856608867645
aF322.05088210105896
aF242.8525640964508
aF159.0859830379486
aF307.82955503463745
aF1315.0413670539856
aF318.940584897995
aF36.37867999076843
aF38.847901821136475
aF2400.5022599697113
aF603.761391878128
aF166.8982810974121
aF139.74616885185242
aF102.27085494995117
aF1930.1145050525665
aF246.83839106559753
aF2405.3212230205536
aF412.7268681526184
aF53.61167907714844
aF34.266621828079224
aF68.22684407234192
aF156.40352392196655
aF105.90697503089905
aF180.4624309539795
aF100.74474692344666
aF383.6003019809723
aF826.2110209465027
aF206.83665800094604
aF2400.518264055252
aF34.98301720619202
aF293.44164299964905
aF117.9780490398407
aF354.4549980163574
aF359.9615750312805
aF34.81187200546265
aF103.87760019302368
aF301.05433106422424
aF196.30859303474426
aF31.758030891418457
aF161.92303800582886
aF2401.003809928894
aF727.0278298854828
aF280.1510009765625
aF580.4255321025848
aF206.02096796035767
aF294.2790560722351
aF285.96834087371826
aF175.24887490272522
aF297.68848395347595
aF172.55272698402405
aF36.27074193954468
aF122.16919207572937
aF543.1737449169159
aF788.2914440631866
aF439.6207730770111
aF114.18647813796997
aF124.90504598617554
aF584.9067878723145
aF199.42184710502625
aF150.21569800376892
aF317.4079620838165
aF2402.9943940639496
aF2400.925984144211
aF2364.927453994751
aF252.8429720401764
aF2405.7449519634247
aF133.79797792434692
aF110.34379887580872
aF289.55620980262756
aF132.7314260005951
aF335.1951539516449
aF319.649866104126
aF62.5666389465332
aF246.20550513267517
aF43.14336180686951
aF189.5613191127777
aF964.4034690856934
aF269.1628611087799
as.