(dp0
S'successes'
p1
(lp2
I01
aI01
aI00
aI01
aI00
aI01
aI01
aI01
aI01
aI01
aI01
aI01
aI01
aI01
aI01
aI01
aI01
aI01
aI01
aI01
aI01
aI01
aI01
aI01
aI01
aI01
aI01
aI01
aI01
aI01
aI01
aI01
aI01
aI01
aI01
aI01
aI01
aI01
aI01
aI01
aI01
aI01
aI01
aI01
aI01
aI01
aI01
aI01
aI01
aI01
aI01
aI01
aI01
aI01
aI01
aI01
aI01
aI01
aI01
aI01
aI01
aI01
aI01
aI01
aI01
aI01
aI01
aI01
aI01
aI01
aI01
aI01
aI01
aI00
aI01
aI01
aI01
aI01
aI01
aI01
aI01
aI01
aI01
aI01
aI01
aI01
aI01
aI01
aI01
aI01
aI01
aI01
aI01
aI01
aI00
aI01
aI00
aI01
aI01
aI01
aI01
aI01
aI01
aI01
aI01
aI01
aI01
aI01
aI01
aI01
aI01
aI01
aI01
aI01
aI01
aI01
aI00
aI00
aI01
aI01
aI01
aI01
aI01
aI01
aI01
aI01
aI01
aI01
aI01
aI01
aI00
aI01
aI01
aI01
aI01
aI01
aI01
aI01
aI00
aI01
aI01
aI01
aI01
aI01
aI01
aI01
aI01
aI01
aI01
aI01
aI01
aI01
aI01
aI01
aI01
aI01
aI01
aI01
aI01
aI01
aI01
aI01
aI01
aI01
aI01
aI01
aI01
aI01
aI01
aI01
aI01
aI01
aI01
aI01
aI01
aI00
aI01
aI01
aI01
aI00
aI01
aI01
aI00
aI01
aI01
aI01
aI01
aI01
aI00
aI01
aI01
aI01
aI01
aI01
aI01
aI01
aI01
aI01
aI01
aI01
aI01
aI01
aI01
aI01
aI00
aI01
aI01
aI01
aI01
aI01
aI01
aI01
aI01
aI01
aI01
aI01
aI01
aI01
aI01
aI01
aI01
aI01
aI01
aI01
aI01
aI01
aI01
aI01
aI01
aI01
aI01
aI01
aI01
aI01
aI01
aI01
aI00
aI01
aI01
aI01
aI01
aI01
aI01
aI01
aI01
aI01
aI01
aI01
aI01
aI01
aI01
aI01
aI01
aI01
aI01
aI01
aI01
aI01
aI01
aI01
aI01
aI01
aI01
aI01
aI01
aI01
aI01
aI01
aI01
aI01
aI01
aI01
aI01
aI01
aI01
aI01
aI01
aI01
aI01
aI00
aI01
aI01
aI01
aI01
aI01
aI01
aI01
aI00
aI01
aI01
aI01
aI01
aI01
aI01
aI01
aI01
aI01
aI01
aI01
aI01
aI01
aI01
aI01
aI01
aI01
aI01
aI01
aI01
aI00
aI01
aI01
aI00
aI00
aI01
aI01
aI01
aI01
aI01
aI01
aI01
aI01
aI00
aI01
aI01
aI01
aI01
aI01
aI01
aI01
aI01
aI01
aI01
aI01
aI01
aI01
aI01
aI01
aI01
aI01
aI01
aI00
aI01
aI01
aI01
aI01
aI00
aI01
aI01
aI01
aI01
aI01
aI01
aI01
aI01
aI00
aI01
aI01
aI00
aI01
aI01
aI01
aI01
aI01
aI01
aI01
aI01
aI01
aI01
aI00
aI01
aI01
aI01
aI01
aI01
aI01
aI01
aI01
aI01
aI01
aI01
aI00
aI01
aI01
aI01
aI01
aI00
aI01
aI01
aI00
aI01
aI01
aI01
aI01
aI01
aI00
aI01
aI01
aI01
aI01
aI01
aI01
aI01
aI01
aI01
aI01
aI01
aI00
aI01
aI01
aI01
aI01
aI01
aI01
aI01
asS'pidxs'
p3
(lp4
I20070
aI20076
aI20039
aI20099
aI20053
aI20025
aI20017
aI20026
aI20013
aI20071
aI20006
aI20083
aI20031
aI20007
aI20090
aI20091
aI20052
aI20009
aI20019
aI20008
aI20047
aI20082
aI20068
aI20038
aI20098
aI20095
aI20044
aI20004
aI20093
aI20053
aI20003
aI20078
aI20083
aI20069
aI20045
aI20061
aI20068
aI20066
aI20089
aI20022
aI20070
aI20016
aI20089
aI20075
aI20091
aI20048
aI20086
aI20088
aI20025
aI20032
aI20034
aI20039
aI20034
aI20028
aI20005
aI20068
aI20029
aI20051
aI20069
aI20008
aI20044
aI20099
aI20080
aI20028
aI20004
aI20058
aI20040
aI20062
aI20087
aI20064
aI20073
aI20043
aI20020
aI20031
aI20026
aI20086
aI20055
aI20096
aI20004
aI20014
aI20067
aI20046
aI20048
aI20030
aI20039
aI20087
aI20056
aI20096
aI20048
aI20063
aI20022
aI20018
aI20065
aI20032
aI20077
aI20084
aI20042
aI20020
aI20039
aI20068
aI20091
aI20046
aI20014
aI20004
aI20013
aI20013
aI20000
aI20063
aI20078
aI20044
aI20082
aI20076
aI20045
aI20067
aI20006
aI20055
aI20054
aI20092
aI20051
aI20036
aI20079
aI20079
aI20012
aI20008
aI20093
aI20074
aI20060
aI20057
aI20009
aI20096
aI20020
aI20041
aI20092
aI20067
aI20033
aI20028
aI20054
aI20056
aI20041
aI20037
aI20062
aI20041
aI20076
aI20095
aI20034
aI20096
aI20082
aI20010
aI20040
aI20003
aI20095
aI20027
aI20026
aI20093
aI20043
aI20010
aI20029
aI20070
aI20010
aI20021
aI20037
aI20082
aI20000
aI20014
aI20036
aI20037
aI20079
aI20043
aI20000
aI20062
aI20014
aI20007
aI20041
aI20050
aI20073
aI20032
aI20001
aI20047
aI20074
aI20036
aI20050
aI20001
aI20010
aI20061
aI20056
aI20050
aI20092
aI20072
aI20026
aI20035
aI20099
aI20025
aI20064
aI20025
aI20047
aI20004
aI20081
aI20003
aI20077
aI20088
aI20033
aI20050
aI20045
aI20068
aI20071
aI20064
aI20062
aI20052
aI20015
aI20071
aI20086
aI20085
aI20062
aI20070
aI20065
aI20045
aI20070
aI20006
aI20008
aI20020
aI20019
aI20012
aI20016
aI20058
aI20058
aI20098
aI20087
aI20058
aI20002
aI20001
aI20002
aI20086
aI20055
aI20090
aI20029
aI20021
aI20092
aI20077
aI20071
aI20035
aI20015
aI20074
aI20030
aI20030
aI20019
aI20071
aI20006
aI20056
aI20079
aI20012
aI20075
aI20040
aI20064
aI20002
aI20081
aI20018
aI20030
aI20076
aI20035
aI20072
aI20078
aI20083
aI20090
aI20052
aI20016
aI20069
aI20001
aI20096
aI20086
aI20083
aI20091
aI20038
aI20044
aI20033
aI20032
aI20061
aI20021
aI20001
aI20090
aI20077
aI20087
aI20039
aI20014
aI20005
aI20035
aI20002
aI20060
aI20033
aI20009
aI20038
aI20027
aI20000
aI20075
aI20040
aI20010
aI20088
aI20033
aI20075
aI20038
aI20009
aI20006
aI20065
aI20041
aI20017
aI20021
aI20089
aI20076
aI20067
aI20089
aI20085
aI20098
aI20042
aI20078
aI20047
aI20038
aI20095
aI20032
aI20089
aI20084
aI20018
aI20079
aI20031
aI20060
aI20081
aI20005
aI20072
aI20022
aI20073
aI20048
aI20056
aI20002
aI20000
aI20050
aI20054
aI20058
aI20026
aI20016
aI20031
aI20052
aI20054
aI20092
aI20019
aI20069
aI20003
aI20098
aI20053
aI20012
aI20090
aI20008
aI20045
aI20065
aI20009
aI20020
aI20072
aI20093
aI20069
aI20021
aI20043
aI20048
aI20016
aI20035
aI20074
aI20013
aI20083
aI20052
aI20036
aI20030
aI20015
aI20031
aI20015
aI20051
aI20055
aI20036
aI20078
aI20034
aI20027
aI20082
aI20043
aI20053
aI20091
aI20034
aI20077
aI20003
aI20012
aI20087
aI20013
aI20084
aI20067
aI20028
aI20060
aI20005
aI20055
aI20095
aI20060
aI20053
aI20025
aI20044
aI20064
aI20029
aI20054
aI20051
aI20037
aI20065
aI20047
aI20019
aI20018
aI20093
aI20005
aI20018
aI20028
aI20075
aI20022
aI20029
aI20040
asS'plan_length'
p5
(lp6
I6
aI26
aI7
aI6
aI4
aI6
aI2
aI1
aI29
aI25
aI17
aI2
aI3
aI1
aI23
aI11
aI1
aI8
aI5
aI6
aI4
aI3
aI4
aI1
aI8
aI4
aI22
aI14
aI1
aI3
aI10
aI22
aI19
aI2
aI3
aI1
aI2
aI27
aI8
aI9
aI1
aI3
aI1
aI1
aI3
aI16
aI2
aI51
aI7
aI26
aI20
aI19
aI10
aI1
aI22
aI13
aI12
aI5
aI5
aI26
aI2
aI18
aI7
aI9
aI9
aI12
aI6
aI3
aI2
aI7
aI7
aI6
aI43
aI3
aI2
aI6
aI3
aI3
aI1
aI6
aI13
aI13
aI5
aI31
aI4
aI1
aI32
aI2
aI1
aI4
aI26
aI4
aI9
aI14
aI1
aI4
aI13
aI2
aI2
aI2
aI21
aI11
aI7
aI38
aI9
aI30
aI22
aI2
aI54
aI4
aI1
aI36
aI2
aI3
aI1
aI3
aI3
aI2
aI1
aI28
aI1
aI3
aI1
aI16
aI15
aI4
aI7
aI39
aI3
aI36
aI6
aI61
aI28
aI6
aI1
aI7
aI1
aI3
aI9
aI7
aI1
aI2
aI4
aI4
aI26
aI51
aI1
aI10
aI18
aI2
aI3
aI5
aI3
aI43
aI1
aI5
aI3
aI4
aI13
aI31
aI3
aI8
aI3
aI38
aI4
aI1
aI1
aI20
aI3
aI9
aI7
aI4
aI8
aI17
aI15
aI1
aI53
aI2
aI8
aI4
aI6
aI35
aI2
aI2
aI1
aI24
aI33
aI6
aI11
aI2
aI9
aI2
aI17
aI5
aI7
aI2
aI24
aI3
aI3
aI3
aI5
aI12
aI5
aI51
aI4
aI5
aI14
aI4
aI6
aI6
aI12
aI2
aI1
aI7
aI2
aI3
aI3
aI13
aI1
aI9
aI10
aI10
aI23
aI2
aI1
aI13
aI3
aI15
aI22
aI1
aI6
aI2
aI9
aI2
aI3
aI15
aI7
aI25
aI13
aI3
aI2
aI8
aI8
aI2
aI7
aI3
aI1
aI22
aI36
aI14
aI33
aI31
aI9
aI2
aI10
aI4
aI1
aI11
aI1
aI7
aI6
aI4
aI2
aI32
aI5
aI26
aI13
aI5
aI3
aI11
aI9
aI9
aI6
aI3
aI23
aI15
aI18
aI3
aI8
aI2
aI26
aI1
aI2
aI4
aI2
aI34
aI18
aI9
aI1
aI2
aI6
aI18
aI6
aI5
aI1
aI7
aI26
aI2
aI1
aI29
aI1
aI4
aI1
aI8
aI3
aI1
aI23
aI1
aI11
aI20
aI10
aI33
aI50
aI4
aI8
aI28
aI3
aI54
aI5
aI6
aI9
aI1
aI21
aI2
aI8
aI12
aI1
aI32
aI4
aI15
aI1
aI36
aI2
aI1
aI29
aI1
aI63
aI1
aI2
aI41
aI2
aI28
aI1
aI20
aI12
aI18
aI4
aI10
aI7
aI14
aI1
aI31
aI15
aI2
aI6
aI1
aI1
aI2
aI4
aI17
aI15
aI3
aI2
aI4
aI2
aI7
aI7
aI4
aI15
aI7
aI13
aI9
aI32
aI3
aI17
aI3
aI2
aI23
aI19
aI5
aI3
aI9
aI13
asS'num_nodes'
p7
(lp8
I9
aI34
aI99
aI16
aI144
aI11
aI5
aI37
aI12
aI5
aI63
aI41
aI35
aI3
aI7
aI3
aI28
aI26
aI2
aI35
aI7
aI32
aI11
aI6
aI7
aI2
aI52
aI8
aI50
aI38
aI2
aI5
aI11
aI30
aI43
aI3
aI9
aI2
aI3
aI42
aI14
aI21
aI2
aI9
aI3
aI3
aI8
aI17
aI4
aI95
aI8
aI45
aI29
aI26
aI12
aI4
aI27
aI15
aI16
aI10
aI10
aI57
aI7
aI32
aI9
aI32
aI63
aI19
aI10
aI11
aI4
aI10
aI8
aI105
aI18
aI106
aI6
aI8
aI24
aI5
aI6
aI2
aI7
aI17
aI25
aI7
aI34
aI7
aI4
aI58
aI4
aI3
aI7
aI53
aI87
aI28
aI86
aI18
aI25
aI5
aI10
aI33
aI5
aI3
aI11
aI63
aI15
aI8
aI44
aI22
aI33
aI33
aI15
aI71
aI18
aI2
aI105
aI71
aI82
aI3
aI5
aI2
aI5
aI7
aI10
aI2
aI61
aI2
aI13
aI2
aI76
aI29
aI17
aI9
aI180
aI56
aI5
aI40
aI98
aI9
aI82
aI75
aI19
aI2
aI24
aI2
aI7
aI13
aI26
aI2
aI4
aI5
aI6
aI47
aI66
aI2
aI17
aI22
aI5
aI5
aI8
aI7
aI60
aI2
aI12
aI7
aI6
aI17
aI42
aI5
aI12
aI12
aI56
aI16
aI3
aI141
aI3
aI46
aI4
aI80
aI15
aI18
aI103
aI5
aI14
aI22
aI21
aI2
aI90
aI76
aI5
aI15
aI20
aI9
aI60
aI4
aI3
aI2
aI34
aI67
aI251
aI14
aI4
aI69
aI92
aI6
aI43
aI6
aI13
aI14
aI25
aI5
aI6
aI5
aI7
aI34
aI7
aI77
aI6
aI6
aI31
aI5
aI13
aI8
aI18
aI3
aI4
aI10
aI3
aI9
aI4
aI26
aI2
aI30
aI30
aI28
aI84
aI44
aI4
aI2
aI32
aI4
aI26
aI36
aI2
aI13
aI4
aI27
aI5
aI6
aI32
aI11
aI45
aI19
aI4
aI8
aI18
aI9
aI4
aI15
aI5
aI4
aI41
aI50
aI32
aI119
aI52
aI15
aI16
aI31
aI11
aI2
aI18
aI21
aI57
aI10
aI8
aI5
aI53
aI88
aI25
aI52
aI29
aI6
aI17
aI17
aI43
aI392
aI17
aI8
aI4
aI29
aI25
aI56
aI15
aI12
aI258
aI69
aI2
aI5
aI9
aI12
aI50
aI29
aI11
aI2
aI4
aI11
aI85
aI43
aI8
aI91
aI78
aI19
aI2
aI20
aI63
aI4
aI3
aI46
aI2
aI79
aI35
aI2
aI9
aI5
aI4
aI59
aI3
aI20
aI60
aI17
aI77
aI55
aI7
aI20
aI66
aI8
aI72
aI21
aI91
aI12
aI11
aI2
aI74
aI70
aI3
aI12
aI39
aI3
aI84
aI24
aI43
aI2
aI72
aI48
aI8
aI71
aI3
aI67
aI2
aI80
aI45
aI14
aI70
aI5
aI49
aI4
aI95
aI42
aI16
aI28
aI6
aI13
aI13
aI25
aI2
aI63
aI49
aI5
aI92
aI13
aI2
aI3
aI6
aI112
aI7
aI37
aI89
aI40
aI4
aI4
aI8
aI39
aI135
aI21
aI13
aI7
aI23
aI10
aI31
aI25
aI62
aI24
aI30
aI5
aI74
aI4
aI32
aI34
aI13
aI7
aI17
aI64
asS'times'
p9
(lp10
F39.18478012084961
aF131.68162512779236
aF301.28773188591003
aF63.20470190048218
aF300.6800470352173
aF74.24003791809082
aF30.374615907669067
aF67.31426906585693
aF38.40499782562256
aF20.84903120994568
aF184.68778610229492
aF128.51912307739258
aF91.73457598686218
aF22.453763961791992
aF29.722575902938843
aF16.348220109939575
aF118.87190198898315
aF77.83336997032166
aF17.212451934814453
aF75.19834804534912
aF36.066421031951904
aF63.611392974853516
aF35.265470027923584
aF29.083972930908203
aF42.11803913116455
aF17.887298107147217
aF87.82165384292603
aF36.253671169281006
aF128.13016200065613
aF99.06481385231018
aF17.178969144821167
aF33.66732096672058
aF63.11957097053528
aF110.82927703857422
aF119.28356599807739
aF23.871888160705566
aF25.999738931655884
aF16.45284605026245
aF23.10414481163025
aF144.08903002738953
aF51.853533029556274
aF55.10819101333618
aF20.499079942703247
aF35.06119418144226
aF15.617753028869629
aF19.519680976867676
aF27.863999128341675
aF80.721599817276
aF23.80943512916565
aF299.8344421386719
aF41.310222148895264
aF147.43358612060547
aF124.38787317276001
aF107.5921139717102
aF57.920257806777954
aF16.664008140563965
aF120.83790111541748
aF69.28071999549866
aF63.94542098045349
aF37.72837591171265
aF37.87581205368042
aF153.64706301689148
aF23.131195068359375
aF107.0798270702362
aF44.521141052246094
aF127.37530303001404
aF111.88267421722412
aF64.30990505218506
aF36.86710286140442
aF28.82979989051819
aF22.89724588394165
aF46.38306713104248
aF52.79521703720093
aF302.39991307258606
aF48.801724910736084
aF245.58372688293457
aF27.000128030776978
aF31.840094089508057
aF56.55327105522156
aF28.71754288673401
aF29.001687049865723
aF19.878804922103882
aF38.806061029434204
aF74.95946598052979
aF80.39146089553833
aF35.23205900192261
aF139.787446975708
aF33.37083101272583
aF18.421660900115967
aF178.5998899936676
aF24.994119882583618
aF18.171849966049194
aF36.46373391151428
aF149.5910849571228
aF300.15585708618164
aF69.0768690109253
aF302.04287910461426
aF74.65251898765564
aF80.25608205795288
aF17.466197967529297
aF50.47010898590088
aF95.31828093528748
aF20.97991704940796
aF20.64259099960327
aF30.94501519203186
aF154.4152009487152
aF74.61662101745605
aF41.337034940719604
aF176.2882649898529
aF55.358596086502075
aF149.9683620929718
aF111.96525692939758
aF33.794013023376465
aF261.40189003944397
aF50.86520981788635
aF21.710875988006592
aF303.87977600097656
aF304.1581130027771
aF246.55757188796997
aF21.346518993377686
aF33.206552028656006
aF18.01643204689026
aF26.043878078460693
aF33.428000926971436
aF32.232073068618774
aF23.92788004875183
aF168.5827989578247
aF41.99063181877136
aF40.44195103645325
aF16.240146160125732
aF302.447557926178
aF89.78369092941284
aF72.69197392463684
aF31.060317993164062
aF192.9220130443573
aF193.41391515731812
aF31.044553995132446
aF161.53847122192383
aF301.84653306007385
aF41.72292113304138
aF299.10215997695923
aF183.31939697265625
aF58.7207977771759
aF22.449342966079712
aF61.25748300552368
aF19.656391143798828
aF30.705991983413696
aF54.346861124038696
aF60.68522882461548
aF17.526402950286865
aF28.264626026153564
aF29.3875150680542
aF32.94940209388733
aF163.8864049911499
aF248.72752404212952
aF18.431566953659058
aF60.42527794837952
aF89.59660196304321
aF30.335397005081177
aF26.948814868927002
aF37.53168988227844
aF28.573033094406128
aF201.97440910339355
aF17.0001060962677
aF39.2467679977417
aF26.67976689338684
aF30.138123035430908
aF67.57886099815369
aF151.30523991584778
aF25.27668786048889
aF54.95878314971924
aF38.1395800113678
aF177.29589986801147
aF50.53075289726257
aF17.83161187171936
aF301.2928669452667
aF21.60103487968445
aF137.86712312698364
aF27.125259160995483
aF302.7594518661499
aF56.69368505477905
aF58.712188959121704
aF304.1500861644745
aF32.18354105949402
aF45.24668598175049
aF82.7725019454956
aF79.20419788360596
aF20.291545152664185
aF303.0719470977783
aF259.692645072937
aF25.20809006690979
aF45.88969016075134
aF43.82280683517456
aF42.41726994514465
aF184.3080689907074
aF24.39856791496277
aF24.03896999359131
aF16.07887315750122
aF202.12557792663574
aF187.7497899532318
aF218.33351707458496
aF60.852638959884644
aF22.666756868362427
aF114.50420999526978
aF304.31754302978516
aF25.967557191848755
aF115.63915491104126
aF34.01894211769104
aF47.47653603553772
aF39.669925928115845
aF104.62913393974304
aF29.928464889526367
aF24.990926027297974
aF28.38871717453003
aF39.972458839416504
aF78.42898607254028
aF37.78985905647278
aF242.63864588737488
aF33.15136909484863
aF37.27228093147278
aF91.51017999649048
aF30.052048921585083
aF43.37900900840759
aF43.84366703033447
aF77.5961799621582
aF22.271769046783447
aF17.953382968902588
aF45.394469022750854
aF32.03282904624939
aF31.59969401359558
aF31.662895917892456
aF90.80896210670471
aF17.09382700920105
aF77.56861305236816
aF76.76606106758118
aF92.55733609199524
aF300.8645100593567
aF154.69373202323914
aF21.9186909198761
aF16.7502920627594
aF94.60987496376038
aF28.557061195373535
aF88.54417395591736
aF138.69274497032166
aF19.22051215171814
aF45.18354606628418
aF23.349443912506104
aF73.12628602981567
aF24.253381967544556
aF30.95290994644165
aF87.88409805297852
aF41.82131791114807
aF138.2033088207245
aF66.4977080821991
aF28.45924997329712
aF33.850484132766724
aF62.474807024002075
aF52.63806986808777
aF22.205363988876343
aF57.90114712715149
aF40.45319890975952
aF19.952744960784912
aF133.92300510406494
aF187.46175909042358
aF79.84311103820801
aF247.78429102897644
aF169.3818199634552
aF48.732604026794434
aF35.03264498710632
aF71.5983829498291
aF35.64980697631836
aF25.062329053878784
aF62.62704396247864
aF27.983942985534668
aF105.23757290840149
aF35.13253211975098
aF43.49498796463013
aF25.95526695251465
aF154.17807412147522
aF304.9285089969635
aF48.84841299057007
aF151.74840998649597
aF79.68298101425171
aF38.18616795539856
aF68.15556502342224
aF64.34230303764343
aF80.42660593986511
aF300.61246705055237
aF53.92314291000366
aF43.46430492401123
aF24.071879148483276
aF118.47712111473083
aF92.27334308624268
aF127.78507494926453
aF52.5547730922699
aF49.09047293663025
aF217.12286520004272
aF158.64702916145325
aF22.23279905319214
aF21.81023097038269
aF40.210001945495605
aF35.26821303367615
aF169.44017004966736
aF104.97938895225525
aF50.71787691116333
aF17.11504602432251
aF22.490725994110107
aF38.894891023635864
aF301.7201919555664
aF117.2042441368103
aF42.67882800102234
aF301.71421098709106
aF300.14304995536804
aF58.27304196357727
aF20.69344210624695
aF51.54813885688782
aF176.66164803504944
aF19.065986156463623
aF19.933146953582764
aF159.05058217048645
aF15.083209037780762
aF301.36249899864197
aF63.552743911743164
aF20.40697479248047
aF42.02390694618225
aF27.06150984764099
aF20.767059803009033
aF170.34356212615967
aF23.19715714454651
aF71.77661991119385
aF143.19912099838257
aF58.285012006759644
aF215.54346203804016
aF244.1017200946808
aF33.17231607437134
aF57.35898685455322
aF169.1425120830536
aF27.651373863220215
aF263.85140800476074
aF64.3015501499176
aF301.6386671066284
aF40.178690910339355
aF50.99438786506653
aF16.55546808242798
aF159.55402302742004
aF300.28448009490967
aF19.123288869857788
aF53.936254024505615
aF100.80314993858337
aF17.801866054534912
aF209.32793402671814
aF53.924885988235474
aF117.70447087287903
aF18.672758102416992
aF303.82560992240906
aF180.63592505455017
aF25.91295313835144
aF303.8460741043091
aF18.79591703414917
aF163.77023005485535
aF16.49403691291809
aF280.7979271411896
aF74.85030102729797
aF31.094374895095825
aF219.13336086273193
aF25.959635019302368
aF168.7741379737854
aF20.64257001876831
aF301.03885793685913
aF124.06117701530457
aF67.32249402999878
aF91.47531986236572
aF30.47039794921875
aF51.45824408531189
aF48.13314604759216
aF82.88137292861938
aF20.196153163909912
aF169.01960015296936
aF157.93200707435608
aF21.57042121887207
aF300.0991699695587
aF53.7771680355072
aF15.971190929412842
aF14.59338116645813
aF20.04719591140747
aF302.560791015625
aF43.650989055633545
aF109.81596803665161
aF300.64353704452515
aF102.73030304908752
aF25.40841007232666
aF22.00447988510132
aF63.24703907966614
aF55.40810203552246
aF308.10275506973267
aF58.70283102989197
aF46.632795095443726
aF31.754971027374268
aF82.23264384269714
aF61.568947076797485
aF89.4880199432373
aF87.41181182861328
aF194.5393087863922
aF64.29731011390686
aF94.90133595466614
aF31.33273696899414
aF300.5079538822174
aF25.85309886932373
aF120.3142020702362
aF96.46964693069458
aF38.50857210159302
aF29.443986892700195
aF58.49384689331055
aF120.38635897636414
as.