(dp0
S'successes'
p1
(lp2
I01
aI01
aI01
aI01
aI01
aI01
aI01
aI01
aI01
aI01
aI01
aI01
aI01
aI00
aI01
aI01
aI00
aI01
aI00
aI00
aI00
aI01
aI01
aI01
aI01
aI01
aI01
aI01
aI01
aI01
aI01
aI01
aI01
aI01
aI00
aI01
aI01
aI01
aI01
aI01
aI00
aI01
aI01
aI00
aI01
aI01
aI01
aI01
aI01
aI01
aI01
aI01
aI00
aI01
aI01
aI01
aI01
aI01
aI01
aI00
aI01
aI00
aI01
aI01
aI01
aI01
aI01
aI01
aI01
aI01
aI01
aI01
aI00
aI00
aI01
aI01
aI01
aI01
aI01
aI01
aI00
aI01
aI01
aI01
aI01
aI01
aI01
aI00
aI01
aI01
aI01
aI01
aI00
aI01
aI01
aI01
aI01
aI01
aI00
aI01
aI01
aI01
aI01
aI01
aI01
aI01
aI01
aI00
aI01
aI01
aI01
aI01
aI01
aI01
aI01
aI01
aI01
aI01
aI01
aI01
aI01
aI01
aI01
aI00
aI01
aI01
aI01
aI00
aI01
aI01
aI01
aI01
aI00
aI01
aI01
aI00
aI01
aI01
aI01
aI01
aI01
aI01
aI00
aI01
aI01
aI01
aI01
aI01
aI01
aI01
aI01
aI01
aI01
aI01
aI01
aI01
aI01
aI00
aI01
aI00
aI01
aI01
aI01
aI00
aI01
aI00
aI01
aI01
aI00
aI01
aI01
aI00
aI01
aI00
aI01
aI01
aI01
aI00
aI01
aI01
aI01
aI00
aI01
aI01
aI01
aI00
aI01
aI01
aI01
aI00
aI01
aI01
aI01
aI01
aI01
aI01
aI01
aI01
aI01
aI01
aI01
aI01
aI01
aI01
aI01
aI01
aI00
aI01
aI01
aI00
aI00
aI01
aI01
aI01
aI01
aI01
aI01
aI01
aI01
aI01
aI01
aI01
aI00
aI01
aI01
aI00
aI01
aI01
aI01
aI01
aI01
aI01
aI00
aI01
aI01
aI01
aI01
aI01
aI01
aI01
aI01
aI01
aI01
aI01
aI00
aI01
aI01
aI01
aI01
aI00
aI01
aI01
aI01
aI01
aI00
aI00
aI01
aI01
aI01
aI01
aI01
aI01
aI01
aI01
aI01
aI01
aI01
aI01
aI01
aI01
aI00
aI00
aI00
aI01
aI00
aI01
aI01
aI01
aI01
aI01
aI01
aI01
aI00
aI01
aI01
aI01
aI01
aI01
aI01
aI01
aI01
aI01
aI01
aI00
aI01
aI01
aI01
aI01
aI00
aI01
aI01
aI01
aI00
aI01
aI01
aI01
aI00
aI01
aI01
aI01
aI01
aI01
aI01
aI01
aI01
aI01
aI00
aI01
aI00
aI00
aI01
aI01
aI01
aI01
aI01
aI00
aI00
aI01
aI01
aI01
aI01
aI01
aI01
aI00
aI01
aI01
aI01
aI01
aI01
aI00
aI00
aI01
aI01
aI01
aI01
aI01
aI01
aI00
aI01
aI01
aI01
aI01
aI01
aI01
aI01
aI01
aI01
aI00
aI01
aI01
aI01
aI01
aI00
aI00
aI00
aI01
aI01
aI01
aI00
aI01
aI01
aI01
aI01
aI01
aI01
aI01
aI01
aI01
aI01
aI01
aI01
aI01
aI01
aI01
aI01
aI01
aI01
aI01
aI01
aI01
aI01
aI01
aI01
aI00
aI01
aI00
aI01
aI00
aI01
aI01
aI01
aI01
aI01
aI01
aI01
aI00
aI01
aI01
aI00
aI01
aI01
aI00
aI01
aI01
aI01
aI01
aI00
aI01
aI01
aI01
aI01
aI01
aI01
aI01
aI01
aI01
aI00
aI01
aI01
aI01
aI01
aI01
aI01
aI01
aI00
aI01
aI01
aI01
aI01
aI01
aI01
aI01
aI01
aI01
aI01
aI01
aI01
aI01
aI01
aI00
aI01
aI01
aI01
aI01
aI01
aI01
aI01
aI01
aI01
aI00
aI01
aI01
aI01
aI01
aI01
aI01
aI00
aI01
aI01
aI00
aI00
aI00
aI01
aI01
aI01
aI01
aI01
aI01
aI01
aI01
aI01
aI01
aI01
aI01
aI01
aI00
aI01
aI01
aI01
aI00
aI00
aI01
aI01
aI01
aI01
aI01
aI01
aI01
aI01
aI01
aI00
aI01
aI01
aI01
aI01
aI01
aI01
aI01
aI00
aI01
aI01
aI01
aI01
aI01
aI01
aI00
aI01
aI01
aI01
aI00
aI01
aI01
aI01
aI01
aI01
aI01
aI01
aI00
aI01
aI01
aI01
aI01
aI00
aI01
aI01
aI01
aI01
aI01
aI00
aI01
aI01
aI01
aI01
aI00
aI00
aI01
aI00
aI00
aI00
aI01
aI01
aI01
aI01
aI01
aI01
aI01
aI01
aI01
aI01
aI01
aI01
aI01
aI01
aI01
aI01
aI01
aI01
aI01
aI00
aI01
aI01
aI01
aI01
aI01
aI01
aI01
aI01
aI01
aI00
aI01
aI01
aI01
aI01
aI00
aI01
asS'plan_length'
p3
(lp4
I6
aI12
aI4
aI4
aI9
aI5
aI10
aI24
aI2
aI2
aI12
aI1
aI8
aI8
aI7
aI7
aI7
aI10
aI10
aI10
aI10
aI12
aI12
aI4
aI12
aI2
aI10
aI4
aI2
aI4
aI10
aI2
aI15
aI8
aI8
aI6
aI3
aI3
aI3
aI7
aI7
aI1
aI4
aI4
aI8
aI7
aI9
aI1
aI1
aI1
aI14
aI1
aI1
aI3
aI7
aI1
aI2
aI5
aI2
aI2
aI4
aI4
aI3
aI6
aI11
aI11
aI1
aI5
aI3
aI2
aI2
aI11
aI11
aI11
aI20
aI8
aI2
aI4
aI2
aI1
aI1
aI11
aI16
aI2
aI10
aI1
aI1
aI1
aI5
aI10
aI12
aI15
aI15
aI13
aI6
aI9
aI2
aI7
aI7
aI1
aI11
aI22
aI6
aI2
aI5
aI10
aI18
aI18
aI16
aI3
aI4
aI15
aI6
aI15
aI5
aI7
aI3
aI9
aI7
aI1
aI6
aI2
aI4
aI4
aI1
aI5
aI17
aI17
aI11
aI3
aI1
aI3
aI3
aI2
aI9
aI9
aI4
aI2
aI3
aI1
aI4
aI10
aI10
aI3
aI2
aI1
aI8
aI7
aI2
aI5
aI2
aI17
aI14
aI21
aI7
aI11
aI1
aI1
aI2
aI2
aI2
aI3
aI3
aI3
aI2
aI2
aI5
aI2
aI2
aI2
aI5
aI5
aI4
aI4
aI1
aI12
aI4
aI4
aI4
aI2
aI3
aI3
aI5
aI8
aI7
aI7
aI3
aI1
aI1
aI1
aI5
aI1
aI14
aI1
aI4
aI1
aI10
aI6
aI4
aI1
aI4
aI2
aI3
aI4
aI10
aI7
aI7
aI1
aI1
aI1
aI1
aI5
aI11
aI3
aI5
aI1
aI5
aI5
aI1
aI10
aI16
aI4
aI4
aI3
aI3
aI3
aI2
aI11
aI2
aI2
aI2
aI6
aI6
aI2
aI17
aI8
aI13
aI5
aI2
aI6
aI2
aI16
aI1
aI15
aI15
aI9
aI2
aI3
aI5
aI5
aI4
aI5
aI1
aI6
aI6
aI6
aI12
aI19
aI4
aI7
aI17
aI7
aI1
aI13
aI13
aI1
aI10
aI9
aI6
aI1
aI1
aI1
aI1
aI7
aI7
aI2
aI16
aI7
aI8
aI1
aI11
aI1
aI1
aI4
aI8
aI2
aI3
aI1
aI2
aI5
aI2
aI1
aI10
aI10
aI2
aI9
aI5
aI9
aI9
aI5
aI7
aI5
aI5
aI4
aI6
aI7
aI7
aI1
aI2
aI1
aI1
aI1
aI1
aI14
aI4
aI5
aI5
aI6
aI6
aI6
aI8
aI9
aI5
aI3
aI4
aI4
aI4
aI11
aI7
aI2
aI1
aI5
aI10
aI10
aI8
aI2
aI3
aI2
aI3
aI3
aI3
aI2
aI13
aI3
aI2
aI1
aI1
aI1
aI3
aI8
aI8
aI4
aI10
aI2
aI8
aI1
aI3
aI3
aI7
aI2
aI1
aI3
aI3
aI3
aI3
aI5
aI2
aI4
aI4
aI3
aI6
aI3
aI6
aI6
aI6
aI4
aI7
aI1
aI3
aI1
aI8
aI5
aI1
aI1
aI6
aI12
aI3
aI3
aI9
aI19
aI6
aI1
aI12
aI12
aI7
aI7
aI1
aI1
aI1
aI8
aI5
aI3
aI3
aI8
aI9
aI9
aI2
aI8
aI8
aI1
aI4
aI4
aI1
aI2
aI7
aI9
aI9
aI1
aI6
aI3
aI8
aI1
aI13
aI7
aI4
aI10
aI10
aI3
aI8
aI4
aI6
aI3
aI1
aI6
aI6
aI5
aI2
aI6
aI1
aI2
aI7
aI7
aI7
aI1
aI2
aI1
aI3
aI4
aI1
aI1
aI7
aI15
aI4
aI13
aI2
aI2
aI4
aI5
aI9
aI9
aI11
aI1
aI6
aI15
aI3
aI12
aI12
aI5
aI6
aI6
aI6
aI6
aI5
aI1
aI3
aI18
aI2
aI9
aI1
aI6
aI1
aI2
aI12
aI2
aI6
aI6
aI2
aI5
aI7
aI7
aI7
aI1
aI7
aI11
aI16
aI4
aI3
aI11
aI12
aI5
aI5
aI6
aI19
aI1
aI4
aI4
aI1
aI18
aI18
aI4
aI2
aI3
aI2
aI1
aI1
aI1
aI1
aI5
aI2
aI2
aI1
aI1
aI1
aI8
aI14
aI4
aI2
aI2
aI4
aI8
aI3
aI3
aI3
aI1
aI5
aI3
aI12
aI6
aI6
aI1
aI3
aI2
aI6
aI6
aI6
aI2
aI2
aI2
aI2
aI3
aI7
aI8
aI9
aI2
aI16
aI5
aI4
aI2
aI5
aI4
aI14
aI3
aI8
aI1
aI1
aI7
aI10
aI2
aI2
aI7
aI2
aI16
aI1
aI4
aI1
aI1
aI6
aI5
aI5
aI3
aI1
aI2
aI26
aI26
aI9
asS'num_nodes'
p5
(lp6
I13
aI76
aI26
aI4
aI27
aI15
aI64
aI43
aI2
aI2
aI26
aI1
aI25
aI17
aI21
aI18
aI17
aI34
aI17
aI17
aI17
aI37
aI29
aI7
aI28
aI12
aI48
aI17
aI2
aI24
aI69
aI2
aI37
aI27
aI17
aI9
aI3
aI3
aI3
aI17
aI17
aI27
aI5
aI17
aI12
aI69
aI29
aI1
aI1
aI1
aI18
aI1
aI17
aI3
aI11
aI1
aI2
aI13
aI2
aI17
aI5
aI17
aI3
aI44
aI27
aI41
aI1
aI8
aI3
aI3
aI10
aI64
aI17
aI17
aI48
aI26
aI2
aI4
aI2
aI1
aI17
aI35
aI62
aI2
aI12
aI1
aI1
aI17
aI7
aI25
aI50
aI70
aI17
aI38
aI7
aI18
aI2
aI15
aI107
aI1
aI46
aI81
aI9
aI3
aI5
aI10
aI51
aI17
aI41
aI28
aI13
aI44
aI33
aI31
aI5
aI29
aI6
aI44
aI8
aI1
aI7
aI2
aI7
aI17
aI1
aI5
aI70
aI17
aI27
aI3
aI1
aI3
aI17
aI2
aI12
aI17
aI7
aI2
aI3
aI1
aI4
aI34
aI17
aI3
aI2
aI1
aI11
aI7
aI2
aI6
aI2
aI59
aI46
aI57
aI7
aI39
aI1
aI17
aI2
aI17
aI2
aI5
aI3
aI17
aI2
aI17
aI18
aI2
aI17
aI2
aI16
aI17
aI17
aI17
aI1
aI25
aI14
aI17
aI6
aI2
aI14
aI17
aI5
aI10
aI13
aI17
aI3
aI1
aI1
aI89
aI13
aI1
aI68
aI1
aI4
aI1
aI32
aI9
aI4
aI1
aI5
aI3
aI4
aI5
aI46
aI14
aI17
aI1
aI1
aI17
aI17
aI5
aI62
aI3
aI6
aI1
aI6
aI33
aI1
aI61
aI29
aI4
aI17
aI3
aI3
aI17
aI2
aI43
aI2
aI2
aI2
aI6
aI17
aI2
aI58
aI28
aI20
aI37
aI3
aI46
aI3
aI34
aI1
aI41
aI17
aI39
aI2
aI3
aI12
aI17
aI5
aI5
aI1
aI12
aI17
aI17
aI117
aI87
aI5
aI55
aI50
aI31
aI1
aI28
aI21
aI1
aI50
aI16
aI7
aI1
aI17
aI17
aI17
aI25
aI17
aI2
aI34
aI21
aI9
aI1
aI19
aI1
aI17
aI13
aI19
aI2
aI5
aI1
aI2
aI6
aI2
aI1
aI10
aI17
aI12
aI16
aI5
aI32
aI17
aI17
aI25
aI6
aI17
aI4
aI27
aI25
aI17
aI1
aI2
aI1
aI1
aI1
aI1
aI19
aI13
aI5
aI17
aI35
aI17
aI17
aI27
aI27
aI26
aI21
aI4
aI17
aI17
aI83
aI16
aI2
aI1
aI15
aI16
aI17
aI11
aI2
aI3
aI13
aI3
aI108
aI17
aI2
aI40
aI3
aI2
aI1
aI1
aI109
aI12
aI28
aI9
aI5
aI19
aI3
aI26
aI1
aI3
aI17
aI7
aI2
aI1
aI3
aI17
aI17
aI17
aI14
aI2
aI4
aI17
aI21
aI21
aI6
aI7
aI8
aI18
aI9
aI27
aI1
aI23
aI1
aI22
aI5
aI1
aI1
aI48
aI17
aI3
aI3
aI31
aI59
aI34
aI1
aI50
aI17
aI7
aI17
aI1
aI17
aI1
aI17
aI7
aI5
aI5
aI24
aI23
aI17
aI2
aI17
aI17
aI1
aI6
aI17
aI1
aI2
aI18
aI55
aI83
aI1
aI17
aI3
aI48
aI1
aI38
aI37
aI14
aI24
aI17
aI8
aI9
aI5
aI20
aI3
aI1
aI6
aI123
aI14
aI13
aI6
aI1
aI2
aI25
aI61
aI26
aI1
aI2
aI1
aI15
aI14
aI1
aI17
aI29
aI67
aI12
aI67
aI13
aI9
aI20
aI18
aI21
aI17
aI85
aI1
aI20
aI32
aI3
aI48
aI17
aI21
aI13
aI17
aI17
aI17
aI15
aI1
aI3
aI48
aI19
aI34
aI1
aI38
aI1
aI2
aI36
aI2
aI8
aI17
aI3
aI5
aI7
aI17
aI17
aI1
aI15
aI16
aI59
aI13
aI16
aI39
aI12
aI9
aI17
aI9
aI61
aI1
aI5
aI7
aI1
aI28
aI17
aI19
aI2
aI4
aI2
aI1
aI1
aI17
aI1
aI6
aI3
aI17
aI1
aI1
aI1
aI8
aI32
aI4
aI2
aI17
aI4
aI12
aI13
aI3
aI17
aI1
aI27
aI3
aI35
aI37
aI17
aI1
aI5
aI3
aI17
aI17
aI17
aI2
aI17
aI17
aI17
aI12
aI25
aI18
aI48
aI2
aI46
aI16
aI5
aI2
aI5
aI5
aI50
aI3
aI35
aI1
aI1
aI17
aI30
aI2
aI17
aI18
aI2
aI86
aI1
aI4
aI1
aI1
aI7
aI21
aI17
aI11
aI1
aI2
aI75
aI17
aI37
asS'times'
p7
(lp8
F56.13552498817444
aF184.18962121009827
aF61.05651092529297
aF40.21537399291992
aF87.80950403213501
aF51.56691288948059
aF203.27032494544983
aF150.25473999977112
aF19.242044925689697
aF19.672527074813843
aF100.37170886993408
aF14.415682077407837
aF68.1050820350647
aF37.00608491897583
aF71.89364385604858
aF64.52736592292786
aF33.021157026290894
aF105.32037496566772
aF33.00650906562805
aF35.491698026657104
aF32.07241106033325
aF110.32611012458801
aF84.6997230052948
aF32.43023204803467
aF100.86984300613403
aF40.13404679298401
aF141.53239011764526
aF80.1508297920227
aF19.669893980026245
aF65.26362705230713
aF159.41833806037903
aF25.739078044891357
aF147.50432205200195
aF111.83557915687561
aF41.23876595497131
aF54.99074411392212
aF24.17237687110901
aF24.603678941726685
aF24.938013076782227
aF64.88114309310913
aF35.64509987831116
aF68.07052302360535
aF32.82254409790039
aF34.656595945358276
aF66.1151978969574
aF153.31143498420715
aF101.96375799179077
aF17.496150016784668
aF15.216909885406494
aF19.088521003723145
aF101.68470883369446
aF21.279555082321167
aF36.781867027282715
aF25.165941953659058
aF51.90624690055847
aF14.088021039962769
aF20.912264108657837
aF48.52111196517944
aF16.624785900115967
aF39.46126413345337
aF33.730534076690674
aF34.61633777618408
aF20.981460094451904
aF122.41233801841736
aF85.43457388877869
aF181.7655210494995
aF15.942199945449829
aF35.50859308242798
aF24.190300941467285
aF22.321456909179688
aF30.18426203727722
aF182.57509112358093
aF32.81930112838745
aF31.328302145004272
aF167.5276439189911
aF88.8143880367279
aF16.382512092590332
aF34.514873027801514
aF19.067812204360962
aF14.255378007888794
aF32.35863208770752
aF104.24654793739319
aF196.59520387649536
aF19.70942187309265
aF57.18698501586914
aF35.069664001464844
aF15.399821996688843
aF38.370341062545776
aF36.57440710067749
aF72.97894883155823
aF138.67123198509216
aF192.75668716430664
aF35.34062218666077
aF126.156240940094
aF56.69936490058899
aF68.9864821434021
aF16.03073287010193
aF57.687155961990356
aF305.5908329486847
aF15.825640201568604
aF128.18032312393188
aF241.239648103714
aF47.57646298408508
aF24.505430936813354
aF30.467692852020264
aF47.8897590637207
aF150.73359489440918
aF36.18863105773926
aF128.26603984832764
aF80.19552612304688
aF42.863040924072266
aF123.92230296134949
aF101.33468198776245
aF103.69033885002136
aF31.269395112991333
aF84.25560092926025
aF32.413524866104126
aF151.16417908668518
aF54.366050004959106
aF12.51284909248352
aF37.108344078063965
aF17.90264892578125
aF37.91538691520691
aF35.851948976516724
aF17.101016998291016
aF38.437833070755005
aF200.20381999015808
aF39.31165409088135
aF98.55924797058105
aF23.252985954284668
aF15.609138011932373
aF21.1271231174469
aF39.95474600791931
aF22.175799131393433
aF79.47342610359192
aF36.16762685775757
aF35.26113700866699
aF22.76730513572693
aF22.53369402885437
aF14.354076147079468
aF33.085678815841675
aF91.71745204925537
aF45.085963010787964
aF22.983232021331787
aF21.457899808883667
aF13.252869844436646
aF59.9621160030365
aF40.95926904678345
aF20.260452032089233
aF34.14577913284302
aF16.312054872512817
aF182.44373393058777
aF189.9127938747406
aF181.0688488483429
aF40.64098811149597
aF109.23055100440979
aF14.980504035949707
aF38.40734601020813
aF16.743315935134888
aF36.67251992225647
aF20.47751498222351
aF29.6192569732666
aF19.753299951553345
aF37.19772005081177
aF16.92500901222229
aF37.79560303688049
aF62.09993505477905
aF20.564689874649048
aF35.22930407524109
aF24.874495029449463
aF56.08635497093201
aF37.727662086486816
aF52.77206897735596
aF34.85428810119629
aF16.70144295692444
aF100.9692759513855
aF71.18256211280823
aF38.90078282356262
aF33.72584295272827
aF17.901905059814453
aF45.79433298110962
aF38.47165894508362
aF38.26022696495056
aF52.7715790271759
aF73.62563300132751
aF33.00875496864319
aF22.8574538230896
aF18.548085927963257
aF16.375699996948242
aF301.3087329864502
aF50.63260316848755
aF13.69734501838684
aF194.29766297340393
aF15.578350067138672
aF31.19264507293701
aF15.294811964035034
aF94.70496988296509
aF58.137250900268555
aF29.178546905517578
aF35.86294507980347
aF33.17645812034607
aF24.970228910446167
aF24.91024899482727
aF35.18468689918518
aF110.76345992088318
aF52.23749899864197
aF41.9037549495697
aF12.565860033035278
aF37.63088297843933
aF33.78220009803772
aF38.307029008865356
aF42.60792398452759
aF197.28572511672974
aF29.48111581802368
aF32.29935002326965
aF34.74322009086609
aF34.71076202392578
aF118.67767190933228
aF17.424582958221436
aF175.40317106246948
aF104.64688491821289
aF26.526824951171875
aF33.1177921295166
aF27.04573702812195
aF24.080325841903687
aF38.163689851760864
aF18.686415910720825
aF110.34798693656921
aF24.140850067138672
aF23.166297912597656
aF21.239299058914185
aF41.47860288619995
aF37.93229603767395
aF19.081490993499756
aF152.18599796295166
aF104.32851195335388
aF79.0455379486084
aF93.6999158859253
aF21.76463484764099
aF109.4828929901123
aF20.895612001419067
aF110.15473890304565
aF16.74216890335083
aF122.97491192817688
aF39.235536098480225
aF114.18050193786621
aF20.894360065460205
aF22.27074098587036
aF46.917720794677734
aF46.125120878219604
aF29.8805730342865
aF35.34373092651367
aF13.36483097076416
aF52.84460806846619
aF34.17237901687622
aF36.41228413581848
aF248.70291709899902
aF266.10828399658203
aF33.866673946380615
aF125.91243290901184
aF142.73020005226135
aF143.16594791412354
aF12.161386013031006
aF86.77391481399536
aF84.30030608177185
aF15.62558889389038
aF123.71280479431152
aF73.13863587379456
aF40.21781897544861
aF15.429424047470093
aF47.93591094017029
aF35.05875587463379
aF35.09189987182617
aF81.84632992744446
aF40.56538200378418
aF19.218722105026245
aF102.50672888755798
aF98.81021904945374
aF53.46355700492859
aF15.210372924804688
aF66.37893795967102
aF16.139677047729492
aF34.04818296432495
aF42.56249809265137
aF64.3969259262085
aF19.630265951156616
aF25.314124822616577
aF17.060484886169434
aF14.90705394744873
aF60.81854510307312
aF15.137972116470337
aF19.078678131103516
aF50.97498297691345
aF40.24761605262756
aF36.742748975753784
aF60.93865704536438
aF36.54708790779114
aF120.59125590324402
aF34.25105905532837
aF53.491376876831055
aF72.82334303855896
aF38.5805230140686
aF37.62529397010803
aF23.21939492225647
aF99.28607392311096
aF74.87485480308533
aF30.104625940322876
aF17.58433985710144
aF21.103399991989136
aF19.571534872055054
aF16.681015014648438
aF15.992393016815186
aF15.265077114105225
aF80.6708128452301
aF44.33040189743042
aF29.83501696586609
aF37.037094831466675
aF93.70871305465698
aF34.29759407043457
aF35.19585609436035
aF104.18500590324402
aF81.01057982444763
aF85.03986096382141
aF57.94886898994446
aF24.49175190925598
aF33.950441122055054
aF40.149965047836304
aF244.61741399765015
aF56.51294302940369
aF18.41337013244629
aF16.74082612991333
aF58.17582416534424
aF71.3828239440918
aF38.032716035842896
aF65.66845297813416
aF25.939160108566284
aF21.135788917541504
aF36.251635789871216
aF25.722492933273315
aF303.57420802116394
aF38.778122901916504
aF16.886638879776
aF143.81789803504944
aF23.802494049072266
aF21.230727195739746
aF15.179942846298218
aF14.210022926330566
aF302.2714989185333
aF64.3830349445343
aF82.90679502487183
aF42.71994590759277
aF30.21080207824707
aF65.91538596153259
aF20.506607055664062
aF74.3359010219574
aF16.161083936691284
aF21.40048098564148
aF32.19497799873352
aF37.758309841156006
aF20.629316091537476
aF17.32126212120056
aF26.189422845840454
aF34.701045989990234
aF36.240626096725464
aF37.69125294685364
aF47.6072781085968
aF25.389408826828003
aF40.00247597694397
aF35.545730113983154
aF57.94855713844299
aF67.60592293739319
aF34.5522940158844
aF49.907958984375
aF37.26537585258484
aF60.86332416534424
aF39.464571952819824
aF80.59688091278076
aF15.804301023483276
aF57.567742109298706
aF17.86124300956726
aF88.48182201385498
aF33.133792877197266
aF37.99896693229675
aF17.04286503791809
aF175.5301549434662
aF73.09043097496033
aF25.324033975601196
aF25.053486824035645
aF102.95099687576294
aF182.8748869895935
aF144.72717094421387
aF13.665552854537964
aF133.4757239818573
aF35.60932207107544
aF40.27450919151306
aF42.761756896972656
aF18.573139905929565
aF34.81015920639038
aF18.22247290611267
aF68.49960207939148
aF34.50180912017822
aF26.5902419090271
aF33.76192593574524
aF80.4813141822815
aF66.2607889175415
aF40.22610306739807
aF21.953917026519775
aF68.67357110977173
aF38.18563485145569
aF14.535408020019531
aF32.258235931396484
aF38.93869686126709
aF16.027523040771484
aF17.34219717979431
aF61.676111936569214
aF135.33578300476074
aF305.52446699142456
aF15.66179895401001
aF65.69268012046814
aF19.470603942871094
aF114.39306497573853
aF16.270010948181152
aF122.44938492774963
aF99.72333812713623
aF44.52732491493225
aF73.09518885612488
aF37.43688702583313
aF43.49161887168884
aF54.44072914123535
aF29.12867307662964
aF56.06928014755249
aF25.37178111076355
aF16.306883096694946
aF43.58598494529724
aF303.52084517478943
aF49.05392599105835
aF39.86375308036804
aF38.040488958358765
aF17.71165704727173
aF24.624255895614624
aF77.54650902748108
aF191.53960800170898
aF94.9189121723175
aF15.958018064498901
aF16.31168293952942
aF15.639583110809326
aF49.7339141368866
aF45.86791706085205
aF15.443734884262085
aF37.14982485771179
aF76.65579509735107
aF213.5025119781494
aF47.69277787208557
aF171.1138401031494
aF39.56649208068848
aF32.01975607872009
aF87.80499601364136
aF64.77794313430786
aF71.57381081581116
aF37.38645005226135
aF172.798495054245
aF14.652232885360718
aF75.90673804283142
aF204.54883885383606
aF20.235218048095703
aF144.3508050441742
aF39.26893091201782
aF62.54691290855408
aF45.19848704338074
aF35.67326498031616
aF37.8102068901062
aF37.177685022354126
aF52.4300639629364
aF15.546458005905151
aF19.594539165496826
aF134.02725100517273
aF51.31472086906433
aF100.11171293258667
aF15.559583187103271
aF88.36354494094849
aF15.53880500793457
aF24.233376026153564
aF126.63198685646057
aF21.15331482887268
aF47.348797082901
aF34.0341432094574
aF21.746719121932983
aF37.59071207046509
aF39.825145959854126
aF35.51755499839783
aF31.678913831710815
aF15.694020986557007
aF52.91594219207764
aF81.0373010635376
aF197.12761306762695
aF40.70557498931885
aF45.58632683753967
aF132.83818697929382
aF60.92123889923096
aF42.23712491989136
aF35.321752071380615
aF55.503962993621826
aF196.84179401397705
aF17.33282208442688
aF30.509943962097168
aF38.66804790496826
aF16.486504077911377
aF97.6083071231842
aF31.557292938232422
aF52.87498688697815
aF20.792658805847168
aF32.500651121139526
aF18.231147050857544
aF16.660720109939575
aF19.012938976287842
aF30.85822105407715
aF16.90073013305664
aF35.547919034957886
aF24.926130771636963
aF31.874852895736694
aF18.240074157714844
aF13.816616773605347
aF13.430180072784424
aF47.035025119781494
aF106.08553290367126
aF25.687231063842773
aF21.490643978118896
aF39.31569314002991
aF34.3514678478241
aF59.347352027893066
aF46.083881855010986
aF23.709983110427856
aF38.857908964157104
aF16.500659942626953
aF74.48819994926453
aF21.20568609237671
aF109.63544797897339
aF95.71183109283447
aF36.10628604888916
aF16.51511788368225
aF25.72663402557373
aF18.083417892456055
aF72.06418108940125
aF35.29437804222107
aF30.838522911071777
aF24.116743803024292
aF34.971482038497925
aF31.394449949264526
aF36.82815599441528
aF40.30509400367737
aF90.21364712715149
aF76.97101616859436
aF140.51854014396667
aF21.05490016937256
aF128.68107795715332
aF47.90473413467407
aF26.782981157302856
aF19.00286602973938
aF35.920289039611816
aF33.75092315673828
aF147.58213686943054
aF30.93371605873108
aF91.79411005973816
aF13.94072413444519
aF16.76606798171997
aF51.87248516082764
aF106.57299089431763
aF23.08508801460266
aF39.693670988082886
aF69.2480239868164
aF21.82910990715027
aF215.74203181266785
aF16.639238834381104
aF26.759790897369385
aF37.901686906814575
aF15.455785989761353
aF36.33749794960022
aF63.99955701828003
aF40.45583200454712
aF36.61034607887268
aF17.576848030090332
aF17.382508993148804
aF198.96421599388123
aF38.402342081069946
aF124.02365899085999
as.