(dp0
S'successes'
p1
(lp2
I01
aI01
aI01
aI01
aI01
aI01
aI01
aI01
aI01
aI01
aI01
aI01
aI00
aI01
aI01
aI01
aI01
aI01
aI01
aI01
aI01
aI00
aI01
aI01
aI01
aI01
aI01
aI01
aI01
aI01
aI01
aI00
aI01
aI01
aI01
aI01
aI01
aI01
aI01
aI01
aI01
aI01
aI01
aI01
aI00
aI01
aI01
aI00
aI01
aI00
aI01
aI01
aI01
aI01
aI01
aI00
aI01
aI01
aI01
aI01
aI01
aI01
aI01
aI01
aI01
aI01
aI01
aI01
aI01
aI01
aI01
aI01
aI01
aI00
aI01
aI01
aI01
aI01
aI01
aI01
aI00
aI01
aI01
aI01
aI00
aI00
aI01
aI00
aI01
aI00
aI00
aI01
aI01
aI01
aI01
aI01
aI01
aI01
aI00
aI01
aI00
aI00
aI01
aI01
aI01
aI01
aI01
aI01
aI01
aI01
aI01
aI01
aI01
aI01
aI01
aI01
aI01
aI01
aI01
aI01
aI01
aI01
aI01
aI01
aI00
aI01
aI00
aI01
aI01
aI01
aI01
aI01
aI01
aI01
aI01
aI01
aI01
aI01
aI00
aI01
aI00
aI01
aI01
aI01
aI01
aI01
aI01
aI00
aI01
aI01
aI01
aI01
aI01
aI01
aI01
aI01
aI01
aI01
aI01
aI01
aI01
aI01
aI01
aI01
aI00
aI00
aI00
aI01
aI01
aI01
aI01
aI01
aI01
aI01
aI00
aI01
aI01
aI01
aI01
aI01
aI01
aI01
aI00
aI00
aI01
aI01
aI01
aI01
aI01
aI01
aI00
aI01
aI01
aI00
aI00
aI01
aI01
aI01
aI01
aI01
aI01
aI01
aI01
aI01
aI01
aI00
aI01
aI01
aI01
aI01
aI01
aI00
aI01
aI01
aI01
aI01
aI01
aI01
aI00
aI01
aI00
aI01
aI01
aI01
aI00
aI01
aI01
aI01
aI01
aI01
aI01
aI00
aI01
aI01
aI00
aI01
aI01
aI01
aI01
aI01
aI00
aI00
aI01
aI01
aI01
aI01
aI01
aI00
aI00
aI01
aI01
aI01
aI01
aI01
aI01
aI00
aI01
aI01
aI01
aI01
aI01
aI01
aI01
aI01
aI01
aI01
aI01
aI01
aI01
aI00
aI01
aI01
aI01
aI01
aI00
aI01
aI01
aI00
aI01
aI00
aI01
aI01
aI01
aI00
aI00
aI01
aI01
aI01
aI01
aI01
aI01
aI01
aI01
aI01
aI01
aI01
aI01
aI01
aI01
aI01
aI01
aI00
aI00
aI00
aI01
aI01
aI01
aI01
aI01
aI01
aI01
aI01
aI01
aI01
aI01
aI01
aI00
aI01
aI01
aI01
aI01
aI01
aI01
aI01
aI01
aI01
aI00
aI01
aI01
aI00
aI01
aI01
aI01
aI01
aI01
aI01
aI01
aI00
aI01
aI00
aI01
aI01
aI01
aI01
aI01
aI01
aI00
aI00
aI00
aI00
aI00
aI01
aI01
aI01
aI01
aI01
aI01
aI01
aI01
aI01
aI01
aI00
aI01
aI01
aI00
aI01
aI01
aI01
aI01
aI01
aI01
aI01
aI01
aI01
aI01
aI01
aI01
aI01
aI01
aI01
aI01
aI01
aI00
aI01
aI01
aI01
aI01
aI01
aI01
aI00
aI01
aI01
aI00
aI01
aI01
aI01
aI01
aI01
aI01
aI00
aI01
aI01
aI01
aI00
aI01
aI01
aI01
aI01
aI01
aI01
aI01
aI01
aI01
aI01
aI01
aI01
aI01
aI01
aI01
aI00
aI00
aI01
aI01
aI00
aI01
aI01
aI00
aI01
aI00
aI01
aI01
aI01
aI00
aI01
aI01
aI01
aI01
aI01
aI01
aI01
aI01
aI01
aI01
aI01
aI01
aI01
aI01
aI01
aI01
aI01
aI00
aI01
aI01
aI01
aI01
aI01
aI01
aI01
aI01
aI01
aI00
aI01
aI01
aI01
aI01
aI01
aI01
aI01
aI01
aI01
aI00
aI01
aI01
aI01
aI01
aI01
aI01
aI01
aI01
aI01
aI01
aI01
aI01
aI01
aI01
aI01
aI01
aI01
aI01
aI00
asS'pidxs'
p3
(lp4
I20070
aI20076
aI20039
aI20099
aI20099
aI20053
aI20025
aI20017
aI20026
aI20013
aI20071
aI20006
aI20073
aI20080
aI20083
aI20031
aI20007
aI20090
aI20091
aI20052
aI20009
aI20046
aI20019
aI20008
aI20047
aI20082
aI20068
aI20038
aI20098
aI20095
aI20044
aI20004
aI20093
aI20053
aI20003
aI20078
aI20084
aI20083
aI20069
aI20045
aI20061
aI20068
aI20066
aI20089
aI20088
aI20022
aI20070
aI20094
aI20027
aI20016
aI20089
aI20075
aI20091
aI20048
aI20086
aI20088
aI20025
aI20032
aI20034
aI20039
aI20024
aI20027
aI20042
aI20034
aI20011
aI20057
aI20028
aI20011
aI20005
aI20068
aI20029
aI20051
aI20069
aI20094
aI20008
aI20044
aI20099
aI20080
aI20024
aI20028
aI20004
aI20058
aI20085
aI20023
aI20094
aI20040
aI20023
aI20062
aI20087
aI20064
aI20073
aI20043
aI20020
aI20031
aI20026
aI20086
aI20055
aI20096
aI20004
aI20014
aI20067
aI20046
aI20048
aI20030
aI20039
aI20087
aI20056
aI20096
aI20048
aI20063
aI20022
aI20049
aI20018
aI20065
aI20032
aI20077
aI20097
aI20049
aI20084
aI20042
aI20020
aI20039
aI20068
aI20091
aI20046
aI20014
aI20004
aI20013
aI20097
aI20013
aI20000
aI20063
aI20081
aI20044
aI20082
aI20057
aI20076
aI20045
aI20067
aI20006
aI20046
aI20059
aI20055
aI20080
aI20054
aI20085
aI20017
aI20092
aI20059
aI20051
aI20036
aI20079
aI20079
aI20012
aI20008
aI20093
aI20074
aI20060
aI20057
aI20009
aI20011
aI20096
aI20020
aI20041
aI20092
aI20067
aI20033
aI20028
aI20054
aI20056
aI20041
aI20037
aI20098
aI20080
aI20062
aI20041
aI20076
aI20059
aI20095
aI20034
aI20096
aI20082
aI20010
aI20040
aI20003
aI20095
aI20027
aI20026
aI20093
aI20043
aI20010
aI20029
aI20070
aI20010
aI20021
aI20037
aI20082
aI20000
aI20014
aI20036
aI20037
aI20079
aI20043
aI20066
aI20000
aI20062
aI20014
aI20066
aI20007
aI20041
aI20050
aI20073
aI20032
aI20001
aI20047
aI20074
aI20036
aI20050
aI20088
aI20001
aI20010
aI20061
aI20056
aI20050
aI20092
aI20072
aI20026
aI20035
aI20099
aI20063
aI20025
aI20064
aI20025
aI20047
aI20004
aI20057
aI20081
aI20042
aI20003
aI20077
aI20088
aI20033
aI20050
aI20045
aI20068
aI20063
aI20071
aI20064
aI20062
aI20052
aI20015
aI20024
aI20071
aI20086
aI20085
aI20062
aI20070
aI20024
aI20057
aI20065
aI20045
aI20061
aI20070
aI20097
aI20006
aI20008
aI20020
aI20019
aI20012
aI20016
aI20058
aI20058
aI20098
aI20087
aI20002
aI20007
aI20001
aI20002
aI20055
aI20094
aI20090
aI20029
aI20084
aI20021
aI20092
aI20017
aI20077
aI20071
aI20035
aI20015
aI20074
aI20061
aI20030
aI20030
aI20019
aI20071
aI20006
aI20056
aI20079
aI20012
aI20075
aI20040
aI20064
aI20002
aI20023
aI20018
aI20066
aI20030
aI20076
aI20035
aI20072
aI20078
aI20083
aI20097
aI20090
aI20052
aI20016
aI20069
aI20001
aI20096
aI20086
aI20083
aI20091
aI20038
aI20011
aI20044
aI20033
aI20032
aI20061
aI20021
aI20001
aI20090
aI20077
aI20039
aI20014
aI20005
aI20035
aI20002
aI20060
aI20033
aI20009
aI20038
aI20027
aI20000
aI20049
aI20075
aI20040
aI20010
aI20088
aI20033
aI20094
aI20075
aI20080
aI20038
aI20009
aI20006
aI20065
aI20041
aI20099
aI20085
aI20017
aI20021
aI20089
aI20076
aI20067
aI20089
aI20022
aI20085
aI20098
aI20042
aI20078
aI20047
aI20038
aI20095
aI20032
aI20089
aI20084
aI20018
aI20079
aI20031
aI20060
aI20097
aI20081
aI20005
aI20051
aI20023
aI20072
aI20022
aI20011
aI20073
aI20048
aI20056
aI20002
aI20000
aI20050
aI20054
aI20058
aI20026
aI20059
aI20016
aI20031
aI20007
aI20054
aI20092
aI20019
aI20066
aI20069
aI20003
aI20098
aI20053
aI20012
aI20015
aI20059
aI20090
aI20008
aI20045
aI20065
aI20009
aI20020
aI20072
aI20093
aI20069
aI20074
aI20021
aI20043
aI20048
aI20073
aI20049
aI20016
aI20035
aI20013
aI20083
aI20046
aI20052
aI20036
aI20030
aI20007
aI20015
aI20031
aI20015
aI20051
aI20055
aI20036
aI20078
aI20049
aI20034
aI20027
aI20082
aI20072
aI20043
aI20053
aI20091
aI20034
aI20077
aI20003
aI20012
aI20023
aI20087
aI20013
aI20084
aI20067
aI20028
aI20060
aI20005
aI20055
aI20095
aI20060
aI20053
aI20025
aI20044
aI20064
aI20029
aI20037
aI20054
aI20051
aI20037
aI20065
aI20047
aI20019
aI20024
aI20018
aI20093
aI20005
aI20018
aI20028
aI20081
aI20075
aI20022
aI20029
aI20040
asS'plan_length'
p5
(lp6
I8
aI8
aI9
aI38
aI9
aI12
aI54
aI10
aI8
aI13
aI12
aI9
aI8
aI14
aI8
aI17
aI9
aI8
aI12
aI12
aI15
aI12
aI12
aI32
aI18
aI15
aI11
aI18
aI9
aI23
aI14
aI14
aI19
aI12
aI11
aI22
aI18
aI55
aI37
aI12
aI18
aI15
aI9
aI8
aI10
aI12
aI21
aI15
aI14
aI11
aI12
aI29
aI11
aI9
aI8
aI13
aI16
aI17
aI8
aI10
aI24
aI73
aI17
aI12
aI28
aI18
aI14
aI17
aI13
aI9
aI9
aI14
aI9
aI9
aI29
aI16
aI12
aI13
aI41
aI8
aI43
aI10
aI10
aI13
aI33
aI13
aI11
aI9
aI11
aI8
aI9
aI18
aI34
aI20
aI36
aI8
aI19
aI33
aI15
aI10
aI15
aI14
aI8
aI9
aI9
aI17
aI13
aI9
aI8
aI15
aI16
aI14
aI13
aI19
aI32
aI27
aI8
aI19
aI15
aI12
aI19
aI13
aI16
aI11
aI12
aI19
aI8
aI56
aI9
aI10
aI12
aI27
aI14
aI10
aI9
aI12
aI25
aI8
aI10
aI8
aI15
aI8
aI15
aI18
aI8
aI8
aI8
aI65
aI16
aI13
aI19
aI9
aI10
aI8
aI18
aI8
aI15
aI14
aI33
aI13
aI15
aI13
aI11
aI8
aI12
aI13
aI13
aI15
aI12
aI11
aI10
aI15
aI31
aI14
aI17
aI14
aI8
aI10
aI33
aI10
aI8
aI31
aI8
aI24
aI10
aI31
aI13
aI25
aI39
aI12
aI19
aI11
aI12
aI11
aI11
aI13
aI16
aI14
aI8
aI9
aI10
aI28
aI15
aI11
aI127
aI8
aI34
aI8
aI11
aI11
aI10
aI11
aI26
aI15
aI9
aI15
aI9
aI60
aI8
aI18
aI8
aI9
aI14
aI15
aI29
aI12
aI15
aI11
aI12
aI13
aI9
aI17
aI21
aI16
aI17
aI29
aI8
aI8
aI13
aI20
aI27
aI15
aI14
aI8
aI13
aI15
aI23
aI9
aI25
aI14
aI16
aI27
aI8
aI13
aI14
aI9
aI12
aI17
aI9
aI20
aI12
aI29
aI13
aI8
aI9
aI11
aI16
aI9
aI9
aI9
aI14
aI19
aI11
aI8
aI12
aI16
aI62
aI9
aI9
aI18
aI23
aI12
aI26
aI29
aI37
aI8
aI13
aI12
aI18
aI15
aI9
aI8
aI10
aI73
aI8
aI19
aI8
aI14
aI19
aI16
aI32
aI13
aI9
aI17
aI8
aI16
aI10
aI15
aI19
aI10
aI12
aI12
aI11
aI26
aI12
aI9
aI37
aI8
aI16
aI9
aI8
aI8
aI12
aI60
aI16
aI20
aI13
aI9
aI70
aI52
aI13
aI9
aI10
aI21
aI12
aI10
aI13
aI26
aI17
aI29
aI8
aI18
aI9
aI9
aI14
aI30
aI17
aI15
aI26
aI21
aI13
aI10
aI20
aI11
aI20
aI17
aI15
aI8
aI17
aI12
aI11
aI10
aI12
aI15
aI23
aI11
aI14
aI29
aI8
aI15
aI76
aI11
aI10
aI34
aI9
aI15
aI8
aI8
aI9
aI12
aI12
aI9
aI11
aI9
aI11
aI18
aI12
aI46
aI12
aI17
aI12
aI8
aI16
aI8
aI12
aI29
aI12
aI11
aI13
aI15
aI15
aI25
aI10
aI18
aI8
aI9
aI8
aI11
aI8
aI19
aI11
asS'num_nodes'
p7
(lp8
I24
aI51
aI43
aI208
aI52
aI59
aI342
aI54
aI48
aI66
aI87
aI40
aI17
aI8
aI94
aI22
aI96
aI47
aI12
aI74
aI104
aI17
aI98
aI75
aI64
aI210
aI130
aI104
aI109
aI78
aI93
aI17
aI209
aI74
aI82
aI190
aI41
aI98
aI121
aI131
aI331
aI228
aI84
aI103
aI17
aI56
aI42
aI17
aI33
aI17
aI114
aI50
aI90
aI98
aI70
aI17
aI69
aI65
aI167
aI68
aI39
aI33
aI59
aI99
aI150
aI21
aI44
aI82
aI410
aI124
aI67
aI276
aI146
aI17
aI119
aI112
aI102
aI27
aI67
aI83
aI17
aI40
aI13
aI173
aI17
aI17
aI115
aI17
aI115
aI17
aI17
aI88
aI362
aI20
aI493
aI14
aI59
aI72
aI17
aI313
aI17
aI17
aI48
aI19
aI41
aI122
aI25
aI41
aI81
aI202
aI155
aI235
aI24
aI152
aI254
aI78
aI66
aI131
aI79
aI33
aI50
aI67
aI94
aI87
aI17
aI46
aI17
aI46
aI148
aI44
aI43
aI59
aI112
aI327
aI206
aI34
aI92
aI90
aI17
aI78
aI17
aI106
aI107
aI52
aI132
aI29
aI88
aI17
aI19
aI335
aI18
aI30
aI62
aI127
aI73
aI31
aI35
aI60
aI159
aI11
aI14
aI73
aI161
aI9
aI17
aI17
aI17
aI81
aI134
aI36
aI51
aI23
aI445
aI77
aI17
aI133
aI101
aI10
aI35
aI13
aI112
aI39
aI17
aI17
aI91
aI95
aI269
aI80
aI135
aI92
aI17
aI84
aI24
aI17
aI17
aI47
aI37
aI87
aI129
aI58
aI23
aI18
aI85
aI201
aI53
aI17
aI97
aI46
aI54
aI53
aI299
aI17
aI40
aI11
aI193
aI9
aI133
aI49
aI17
aI178
aI17
aI67
aI110
aI313
aI17
aI64
aI108
aI69
aI90
aI77
aI149
aI17
aI120
aI123
aI17
aI44
aI33
aI14
aI21
aI94
aI17
aI17
aI134
aI87
aI768
aI22
aI246
aI17
aI17
aI16
aI43
aI50
aI83
aI35
aI189
aI17
aI91
aI30
aI70
aI91
aI409
aI34
aI67
aI9
aI51
aI107
aI133
aI141
aI81
aI17
aI94
aI96
aI105
aI47
aI17
aI83
aI57
aI17
aI173
aI17
aI85
aI111
aI260
aI17
aI17
aI36
aI12
aI84
aI109
aI175
aI134
aI51
aI9
aI53
aI58
aI130
aI51
aI114
aI105
aI94
aI171
aI17
aI17
aI17
aI27
aI101
aI90
aI24
aI125
aI81
aI29
aI47
aI26
aI146
aI58
aI26
aI17
aI27
aI38
aI43
aI14
aI21
aI28
aI63
aI136
aI48
aI17
aI16
aI75
aI17
aI78
aI400
aI26
aI35
aI106
aI166
aI83
aI17
aI223
aI17
aI153
aI270
aI8
aI115
aI109
aI145
aI17
aI17
aI17
aI17
aI17
aI58
aI65
aI20
aI58
aI516
aI21
aI101
aI47
aI61
aI96
aI17
aI79
aI236
aI17
aI46
aI25
aI147
aI26
aI90
aI40
aI177
aI178
aI43
aI62
aI64
aI83
aI119
aI36
aI38
aI247
aI8
aI645
aI63
aI55
aI9
aI20
aI80
aI440
aI17
aI131
aI153
aI17
aI91
aI63
aI325
aI287
aI85
aI64
aI17
aI90
aI147
aI72
aI17
aI72
aI96
aI176
aI142
aI236
aI40
aI99
aI11
aI13
aI99
aI192
aI120
aI130
aI160
aI191
aI774
aI553
aI74
aI49
aI17
aI137
aI50
aI17
aI113
aI17
aI112
aI112
aI10
aI17
aI145
aI50
aI53
aI48
aI32
aI106
aI213
aI58
aI84
aI210
aI21
aI124
aI514
aI71
aI58
aI173
aI125
aI677
aI84
aI13
aI27
aI19
aI46
aI52
aI47
aI27
aI64
aI17
aI26
aI169
aI93
aI272
aI75
aI206
aI31
aI14
aI140
aI17
aI44
aI163
aI160
aI65
aI18
aI108
aI45
aI43
aI115
aI56
aI200
aI22
aI61
aI36
aI106
aI13
aI106
aI59
aI17
asS'times'
p9
(lp10
F95.16060996055603
aF134.89298701286316
aF132.5859978199005
aF899.1585640907288
aF155.03362894058228
aF200.52156591415405
aF1440.3709189891815
aF180.95024800300598
aF149.40445590019226
aF264.5970718860626
aF250.1380970478058
aF135.73961210250854
aF33.490302085876465
aF47.92757987976074
aF300.83259201049805
aF92.66283011436462
aF306.28394985198975
aF157.30352902412415
aF59.3885760307312
aF244.93640208244324
aF276.9298188686371
aF36.00461411476135
aF368.3033139705658
aF235.53943705558777
aF215.332533121109
aF769.6816651821136
aF367.75525403022766
aF310.6042068004608
aF329.5464770793915
aF308.0817770957947
aF217.18609189987183
aF37.860694885253906
aF715.2303009033203
aF267.13893699645996
aF251.68432903289795
aF584.8536489009857
aF155.29600310325623
aF321.2259449958801
aF394.55958795547485
aF439.94641304016113
aF1399.161581993103
aF342.7266049385071
aF256.1768288612366
aF393.105535030365
aF37.343369007110596
aF201.38427996635437
aF130.33880186080933
aF34.574793100357056
aF95.49996089935303
aF37.18828296661377
aF296.72630405426025
aF228.1813509464264
aF358.64236998558044
aF325.3827497959137
aF281.7408130168915
aF39.08069396018982
aF251.4371919631958
aF265.0182249546051
aF679.4669589996338
aF209.21785497665405
aF120.75069999694824
aF95.79115390777588
aF179.0508439540863
aF405.6732590198517
aF432.0601170063019
aF83.54013991355896
aF156.73460507392883
aF333.5310130119324
aF676.7786371707916
aF397.2988090515137
aF202.59097385406494
aF990.9770908355713
aF559.0684289932251
aF32.56056189537048
aF353.14658784866333
aF388.7737648487091
aF260.6632330417633
aF98.50108289718628
aF171.85317587852478
aF261.6850390434265
aF37.24912691116333
aF204.50938487052917
aF80.41315507888794
aF605.0997748374939
aF34.45667886734009
aF37.37254786491394
aF366.54372811317444
aF36.92620897293091
aF355.50066900253296
aF33.93445897102356
aF33.61912202835083
aF296.38739013671875
aF1174.0827968120575
aF82.08173298835754
aF1524.7856559753418
aF91.9977400302887
aF205.50045895576477
aF245.20803594589233
aF30.7835431098938
aF1017.5351419448853
aF44.515159130096436
aF37.49983620643616
aF170.47579908370972
aF112.4099371433258
aF190.06907105445862
aF336.6865568161011
aF91.48936891555786
aF126.20344996452332
aF347.04956889152527
aF717.6560220718384
aF502.64106488227844
aF419.0493919849396
aF85.13256907463074
aF430.9274001121521
aF841.6644539833069
aF319.5970239639282
aF198.05674290657043
aF398.14852499961853
aF274.9038100242615
aF102.48521399497986
aF161.71382784843445
aF166.22223687171936
aF367.5011820793152
aF281.5884108543396
aF37.31387805938721
aF143.07794404029846
aF35.4658408164978
aF139.80248188972473
aF389.1325399875641
aF182.7842299938202
aF208.36494302749634
aF120.01869511604309
aF421.06640887260437
aF966.2458698749542
aF671.2847440242767
aF111.66700005531311
aF361.3251609802246
aF274.70896315574646
aF39.01532793045044
aF250.84108090400696
aF36.69323492050171
aF398.6384189128876
aF344.7191598415375
aF274.43709778785706
aF336.9916830062866
aF125.46474695205688
aF167.0210039615631
aF35.43724012374878
aF77.05650687217712
aF1029.7904090881348
aF83.43848395347595
aF138.7058720588684
aF178.1788671016693
aF500.4502899646759
aF232.83912706375122
aF142.07007503509521
aF139.5075421333313
aF194.9824481010437
aF589.9458420276642
aF64.40004992485046
aF97.23334693908691
aF253.17018795013428
aF483.6442790031433
aF59.65317893028259
aF37.33439016342163
aF42.500235080718994
aF34.04852294921875
aF261.7496600151062
aF432.56063985824585
aF120.02088713645935
aF135.29859685897827
aF83.90461301803589
aF1718.3890671730042
aF320.3158769607544
aF36.69376301765442
aF360.76610684394836
aF418.5764739513397
aF67.63535785675049
aF141.60295486450195
aF70.28400993347168
aF419.85725712776184
aF111.66487503051758
aF34.80714702606201
aF39.0848069190979
aF306.97499108314514
aF282.11523485183716
aF1054.9263269901276
aF247.23166704177856
aF413.07458901405334
aF321.878338098526
aF36.63275909423828
aF238.01131105422974
aF86.76231002807617
aF34.1117901802063
aF43.623656034469604
aF202.91618704795837
aF215.6366159915924
aF304.7112441062927
aF375.4072690010071
aF208.7316529750824
aF115.30261993408203
aF102.13223004341125
aF262.01559495925903
aF826.4629020690918
aF104.62937188148499
aF36.33501386642456
aF321.5006380081177
aF223.5687439441681
aF147.57713985443115
aF179.75065994262695
aF1100.1521480083466
aF34.7960000038147
aF147.68186593055725
aF68.16479921340942
aF584.6179389953613
aF55.395283937454224
aF525.7023270130157
aF156.1727900505066
aF35.718186140060425
aF662.3268451690674
aF35.5258309841156
aF217.12190794944763
aF430.7105541229248
aF1139.369303226471
aF33.700084924697876
aF130.04712986946106
aF436.720379114151
aF231.5737190246582
aF253.47035479545593
aF229.94472002983093
aF406.7617509365082
aF36.73774194717407
aF365.52033400535583
aF382.7932999134064
aF38.88982009887695
aF213.69965386390686
aF104.8608660697937
aF76.28648900985718
aF106.40415596961975
aF354.41523909568787
aF37.75117897987366
aF32.55857801437378
aF437.8688609600067
aF250.58721709251404
aF2332.311718940735
aF99.52627801895142
aF499.5449287891388
aF37.477416038513184
aF41.06632995605469
aF78.85279488563538
aF143.14381003379822
aF218.2219409942627
aF266.24196314811707
aF147.46264815330505
aF615.6207659244537
aF39.50449204444885
aF317.78913497924805
aF100.71698188781738
aF297.87834095954895
aF234.64440488815308
aF1721.9836239814758
aF131.09072709083557
aF332.40919399261475
aF67.44900894165039
aF137.47627902030945
aF297.8302321434021
aF410.5100648403168
aF574.0459878444672
aF296.0881230831146
aF35.48219609260559
aF281.0004119873047
aF291.51343393325806
aF269.113245010376
aF202.948881149292
aF46.556015968322754
aF204.75845289230347
aF260.4875898361206
aF35.37157583236694
aF482.65431213378906
aF31.837039947509766
aF161.06912779808044
aF354.5071008205414
aF956.4051249027252
aF33.587048053741455
aF33.333235025405884
aF112.44315791130066
aF77.52626085281372
aF250.20831608772278
aF475.0691180229187
aF645.067419052124
aF380.6798129081726
aF225.4197690486908
aF65.10654306411743
aF271.40105295181274
aF262.3221209049225
aF531.4650530815125
aF149.10357189178467
aF407.9908540248871
aF347.9961669445038
aF339.5124650001526
aF646.2477140426636
aF38.880268812179565
aF39.52648091316223
aF34.93178200721741
aF93.45958709716797
aF286.6465609073639
aF319.5912518501282
aF92.79288697242737
aF356.48474502563477
aF294.35671496391296
aF113.0698070526123
aF212.48225498199463
aF132.50548315048218
aF451.94233798980713
aF233.9081289768219
aF85.12986779212952
aF35.52445316314697
aF105.84210300445557
aF127.46643686294556
aF163.69339299201965
aF75.44998097419739
aF113.57182002067566
aF106.94028806686401
aF247.99603605270386
aF447.4343349933624
aF158.542582988739
aF33.98488998413086
aF84.40783596038818
aF216.48013710975647
aF41.84294295310974
aF286.1591899394989
aF1607.6091620922089
aF95.51527714729309
aF123.96264910697937
aF436.4725728034973
aF518.7686679363251
aF310.51770401000977
aF37.75135684013367
aF716.7181880474091
aF32.43036699295044
aF573.9414510726929
aF819.8935239315033
aF53.73357105255127
aF390.1731450557709
aF298.29896092414856
aF442.5369989871979
aF37.57179594039917
aF33.35940098762512
aF37.06984806060791
aF34.87961506843567
aF35.50584697723389
aF266.2222089767456
aF198.67670798301697
aF61.87760615348816
aF164.43364691734314
aF1848.5825521945953
aF88.60762190818787
aF322.77391600608826
aF153.35857391357422
aF123.71121001243591
aF367.25926899909973
aF40.86306285858154
aF317.1334800720215
aF846.8481221199036
aF41.138155937194824
aF216.5627338886261
aF104.10264801979065
aF461.56836104393005
aF94.63544392585754
aF297.49880194664
aF149.40484714508057
aF430.51884603500366
aF466.8497009277344
aF92.33455085754395
aF178.2093849182129
aF140.33033990859985
aF227.63010811805725
aF439.74160408973694
aF177.19949102401733
aF148.84596514701843
aF1018.0901999473572
aF61.936091899871826
aF2400.1140117645264
aF298.80792117118835
aF154.2291259765625
aF55.826780796051025
aF82.10668683052063
aF209.18170309066772
aF1344.6758399009705
aF34.55028796195984
aF428.75627183914185
aF443.45278811454773
aF37.59419584274292
aF296.574285030365
aF178.9257881641388
aF616.0654408931732
aF1113.8349568843842
aF282.49286699295044
aF163.4635169506073
aF39.58473610877991
aF246.40584707260132
aF445.03923201560974
aF219.70928502082825
aF33.35526704788208
aF211.6446671485901
aF298.8642349243164
aF552.2366931438446
aF402.51310300827026
aF712.6603429317474
aF121.4884581565857
aF319.56729793548584
aF68.86658215522766
aF88.13420605659485
aF320.15851402282715
aF747.4467968940735
aF367.58544993400574
aF398.5340359210968
aF523.770280122757
aF566.2234840393066
aF2400.5292551517487
aF2404.2190380096436
aF236.37206292152405
aF182.44690704345703
aF40.72930908203125
aF457.76744198799133
aF162.47920203208923
aF32.483575105667114
aF367.2543828487396
aF38.368102073669434
aF400.4722430706024
aF333.5265860557556
aF61.30918002128601
aF35.24470615386963
aF402.2414228916168
aF184.88628888130188
aF141.5396490097046
aF146.50782108306885
aF164.09205794334412
aF311.43116211891174
aF710.2654898166656
aF181.83368802070618
aF294.6836700439453
aF649.9832360744476
aF81.2302188873291
aF407.02218198776245
aF1567.3871200084686
aF199.13029503822327
aF184.06149697303772
aF692.4624769687653
aF302.2482318878174
aF2401.7238399982452
aF285.067067861557
aF66.69086003303528
aF93.11252903938293
aF96.87384080886841
aF99.20291805267334
aF177.78438305854797
aF159.77502703666687
aF151.96571016311646
aF183.40869998931885
aF39.20618200302124
aF149.9591429233551
aF615.3944499492645
aF315.685213804245
aF1019.0351848602295
aF274.733186006546
aF587.0395319461823
aF118.31823396682739
aF68.49754405021667
aF398.51134300231934
aF33.29472088813782
aF146.3934121131897
aF369.52719807624817
aF615.8954801559448
aF232.3432171344757
aF106.41572499275208
aF284.0176610946655
aF226.78191494941711
aF217.16049599647522
aF372.00117111206055
aF169.82676196098328
aF621.7467200756073
aF77.93998003005981
aF178.4872419834137
aF118.3934531211853
aF290.1938338279724
aF83.71857500076294
aF180.51421999931335
aF203.11682987213135
aF40.85861015319824
as.