(dp0
S'successes'
p1
(lp2
I01
aI01
aI01
aI01
aI01
aI01
aI01
aI01
aI01
aI01
aI01
aI01
aI01
aI00
aI01
aI01
aI01
aI00
aI00
aI01
aI01
aI01
aI01
aI00
aI00
aI00
aI01
aI00
aI00
aI01
aI01
aI01
aI00
aI01
aI00
aI01
aI01
aI01
aI01
aI01
aI01
aI00
aI01
aI01
aI01
aI00
aI01
aI01
aI00
aI01
aI01
aI01
aI01
aI00
aI01
aI01
aI01
aI00
aI01
aI01
aI01
aI00
aI00
aI01
aI01
aI01
aI01
aI01
aI01
aI01
aI00
aI00
aI01
aI00
aI01
aI01
aI01
aI00
aI01
aI01
aI01
aI01
aI01
aI01
aI01
aI01
aI01
aI01
aI01
aI01
aI01
aI01
aI01
aI01
aI01
aI01
aI01
aI00
aI01
aI01
aI01
aI01
aI01
aI01
aI01
aI01
aI01
aI01
aI01
aI00
aI01
aI01
aI01
aI00
aI00
aI01
aI01
aI01
aI01
aI01
aI01
aI00
aI01
aI01
aI01
aI01
aI00
aI01
aI00
aI01
aI00
aI01
aI01
aI01
aI01
aI01
aI01
aI01
aI01
aI01
aI01
aI01
aI01
aI01
aI01
aI01
aI01
aI01
aI01
aI01
aI01
aI01
aI01
aI01
aI01
aI01
aI01
aI01
aI00
aI01
aI01
aI01
aI01
aI00
aI00
aI01
aI01
aI01
aI01
aI01
aI01
aI01
aI01
aI01
aI01
aI01
aI01
aI01
aI01
aI01
aI01
aI01
aI01
aI01
aI01
aI00
aI01
aI01
aI01
aI00
aI01
aI01
aI01
aI01
aI01
aI01
aI01
aI00
aI01
aI01
aI00
aI01
aI01
aI00
aI01
aI01
aI01
aI01
aI01
aI01
aI01
aI01
aI01
aI01
aI00
aI01
aI01
aI01
aI01
aI01
aI00
aI00
aI01
aI00
aI01
aI01
aI01
aI00
aI01
aI01
aI01
aI01
aI01
aI01
aI01
aI01
aI00
aI01
aI01
aI01
aI01
aI01
aI01
aI01
aI01
aI00
aI01
aI01
aI01
aI01
aI01
aI01
aI01
aI00
aI01
aI01
aI01
aI01
aI01
aI01
aI01
aI01
aI01
aI01
aI01
aI00
aI01
aI01
aI01
aI01
aI01
aI00
aI01
aI01
aI01
aI01
aI01
aI00
aI01
aI01
aI01
aI01
aI01
aI01
aI01
aI00
aI01
aI01
aI01
aI01
aI01
aI00
aI01
aI00
aI01
aI00
aI01
aI01
aI00
aI01
aI01
aI01
aI01
aI01
aI01
aI01
aI01
aI01
aI01
aI01
aI01
aI01
aI01
aI01
aI01
aI01
aI00
aI00
aI01
aI01
aI01
aI01
aI01
aI01
aI01
aI01
aI01
aI01
aI01
aI01
aI01
aI01
aI01
aI01
aI01
aI01
aI01
aI01
aI01
aI01
aI01
aI01
aI01
aI00
aI01
aI01
aI01
aI00
aI01
aI01
aI01
aI01
aI01
aI00
aI01
aI01
aI00
aI01
aI01
aI01
aI01
aI01
aI01
aI01
aI01
aI01
aI01
aI01
aI01
aI01
aI01
aI01
aI01
aI01
aI01
aI00
aI01
aI01
aI01
aI01
aI01
aI01
aI01
aI01
aI01
aI01
aI01
aI01
aI01
aI01
aI01
aI01
aI01
aI01
aI01
aI01
aI01
aI01
aI00
aI01
aI00
aI01
aI01
aI00
aI01
aI01
aI00
aI00
aI01
aI01
aI01
aI01
aI01
aI00
aI01
aI00
aI01
aI01
aI00
aI01
aI01
aI01
aI01
aI01
aI01
aI01
aI01
aI01
aI01
aI00
aI00
aI01
aI01
aI01
aI01
aI01
aI00
aI01
aI01
aI01
aI01
aI01
aI01
aI01
aI01
aI01
aI01
aI01
aI01
aI01
aI01
aI00
aI01
aI00
aI01
aI01
aI01
aI01
aI01
aI01
aI00
aI01
aI01
aI01
aI01
aI01
aI01
aI01
aI01
aI00
aI00
aI01
aI01
aI01
aI01
aI01
aI01
aI01
aI00
aI01
aI01
aI00
aI01
aI01
aI01
aI01
aI01
aI01
aI01
aI01
aI00
aI01
aI01
aI01
aI01
aI01
aI01
aI01
aI01
asS'plan_length'
p3
(lp4
I2
aI1
aI1
aI2
aI1
aI2
aI2
aI8
aI3
aI2
aI2
aI2
aI1
aI1
aI2
aI6
aI1
aI1
aI1
aI2
aI6
aI3
aI1
aI1
aI1
aI1
aI1
aI1
aI1
aI4
aI1
aI2
aI2
aI1
aI1
aI4
aI5
aI6
aI3
aI1
aI1
aI1
aI2
aI1
aI1
aI1
aI6
aI1
aI1
aI1
aI6
aI1
aI5
aI5
aI3
aI2
aI1
aI1
aI2
aI2
aI2
aI2
aI2
aI1
aI2
aI2
aI3
aI3
aI1
aI2
aI2
aI2
aI2
aI2
aI1
aI1
aI2
aI2
aI3
aI2
aI3
aI1
aI3
aI2
aI3
aI1
aI2
aI1
aI2
aI3
aI3
aI2
aI2
aI1
aI2
aI2
aI2
aI2
aI1
aI1
aI2
aI1
aI5
aI4
aI1
aI2
aI1
aI1
aI2
aI2
aI3
aI1
aI1
aI1
aI1
aI1
aI2
aI1
aI1
aI1
aI2
aI2
aI2
aI1
aI4
aI2
aI2
aI3
aI3
aI1
aI1
aI1
aI3
aI4
aI3
aI2
aI1
aI1
aI1
aI2
aI3
aI6
aI1
aI2
aI1
aI2
aI3
aI2
aI1
aI1
aI3
aI1
aI1
aI4
aI2
aI2
aI5
aI1
aI1
aI2
aI2
aI1
aI9
aI9
aI9
aI1
aI1
aI2
aI4
aI3
aI4
aI2
aI1
aI2
aI1
aI2
aI2
aI2
aI3
aI1
aI1
aI1
aI2
aI2
aI4
aI4
aI2
aI1
aI1
aI1
aI5
aI1
aI2
aI4
aI1
aI1
aI2
aI2
aI2
aI2
aI2
aI1
aI2
aI2
aI4
aI4
aI5
aI2
aI2
aI2
aI3
aI4
aI1
aI3
aI3
aI2
aI2
aI2
aI1
aI1
aI1
aI1
aI2
aI2
aI2
aI5
aI2
aI2
aI2
aI2
aI4
aI1
aI2
aI1
aI1
aI1
aI1
aI2
aI2
aI1
aI1
aI2
aI1
aI2
aI2
aI2
aI2
aI1
aI1
aI1
aI2
aI3
aI1
aI1
aI2
aI3
aI3
aI2
aI1
aI1
aI1
aI3
aI2
aI1
aI2
aI2
aI2
aI1
aI1
aI3
aI3
aI3
aI1
aI1
aI1
aI1
aI2
aI2
aI1
aI1
aI1
aI1
aI1
aI1
aI1
aI1
aI1
aI1
aI2
aI2
aI1
aI1
aI3
aI3
aI1
aI1
aI2
aI1
aI1
aI1
aI6
aI2
aI1
aI2
aI1
aI4
aI2
aI3
aI2
aI1
aI4
aI2
aI2
aI1
aI5
aI1
aI1
aI1
aI1
aI1
aI1
aI3
aI3
aI1
aI1
aI1
aI1
aI3
aI3
aI1
aI2
aI1
aI1
aI1
aI4
aI2
aI6
aI2
aI2
aI3
aI3
aI1
aI2
aI2
aI4
aI1
aI3
aI3
aI1
aI4
aI2
aI3
aI2
aI2
aI2
aI2
aI2
aI1
aI2
aI1
aI2
aI2
aI1
aI1
aI4
aI3
aI2
aI1
aI4
aI1
aI1
aI3
aI4
aI3
aI3
aI3
aI6
aI5
aI1
aI2
aI6
aI3
aI2
aI2
aI2
aI5
aI2
aI1
aI3
aI1
aI1
aI2
aI2
aI2
aI3
aI1
aI2
aI2
aI2
aI1
aI1
aI3
aI3
aI3
aI4
aI1
aI1
aI1
aI2
aI6
aI1
aI3
aI1
aI1
aI3
aI3
aI2
aI2
aI2
aI3
aI1
aI1
aI8
aI1
aI1
aI1
aI3
aI2
aI3
aI3
aI3
aI5
aI2
aI1
aI2
aI1
aI1
aI1
aI2
aI1
aI3
aI2
aI1
aI2
aI1
aI2
aI1
aI2
aI1
aI1
aI1
aI1
aI1
aI1
aI1
aI2
aI1
aI1
aI1
aI2
aI2
aI1
aI2
aI4
aI2
aI2
aI2
aI2
aI3
aI3
aI3
aI2
aI1
aI1
aI1
aI2
aI3
aI2
aI2
aI1
aI1
aI1
aI1
aI2
aI2
aI1
aI1
aI1
aI1
aI3
aI3
aI2
aI2
aI2
aI1
aI3
aI2
aI2
aI1
asS'num_nodes'
p5
(lp6
I7
aI1
aI1
aI7
aI1
aI9
aI4
aI124
aI8
aI3
aI6
aI20
aI1
aI17
aI3
aI55
aI1
aI17
aI17
aI4
aI74
aI5
aI1
aI17
aI17
aI17
aI1
aI17
aI31
aI37
aI1
aI4
aI17
aI1
aI17
aI17
aI47
aI70
aI8
aI1
aI1
aI17
aI9
aI1
aI1
aI17
aI11
aI1
aI120
aI1
aI44
aI1
aI19
aI17
aI28
aI3
aI1
aI17
aI10
aI4
aI9
aI17
aI17
aI1
aI9
aI5
aI59
aI5
aI1
aI4
aI17
aI17
aI3
aI17
aI1
aI1
aI4
aI17
aI16
aI6
aI18
aI1
aI8
aI4
aI6
aI1
aI4
aI1
aI6
aI5
aI5
aI9
aI4
aI1
aI7
aI18
aI6
aI17
aI1
aI1
aI4
aI1
aI17
aI23
aI1
aI7
aI1
aI1
aI3
aI17
aI8
aI1
aI1
aI17
aI17
aI1
aI5
aI1
aI1
aI1
aI9
aI17
aI22
aI1
aI25
aI4
aI17
aI24
aI17
aI1
aI17
aI1
aI27
aI7
aI32
aI3
aI1
aI1
aI1
aI21
aI14
aI54
aI1
aI9
aI1
aI5
aI10
aI6
aI1
aI1
aI28
aI1
aI1
aI25
aI4
aI3
aI24
aI1
aI17
aI4
aI3
aI1
aI57
aI17
aI17
aI1
aI1
aI4
aI24
aI30
aI9
aI52
aI1
aI10
aI1
aI17
aI7
aI3
aI26
aI1
aI1
aI1
aI4
aI8
aI10
aI17
aI3
aI1
aI1
aI17
aI61
aI1
aI6
aI16
aI1
aI1
aI5
aI17
aI3
aI8
aI17
aI1
aI4
aI17
aI33
aI17
aI22
aI7
aI6
aI9
aI12
aI55
aI1
aI13
aI17
aI6
aI4
aI4
aI1
aI1
aI17
aI17
aI4
aI17
aI7
aI48
aI9
aI17
aI9
aI9
aI23
aI1
aI18
aI1
aI1
aI1
aI17
aI7
aI8
aI1
aI1
aI8
aI1
aI4
aI3
aI17
aI6
aI1
aI1
aI1
aI4
aI12
aI1
aI17
aI18
aI18
aI7
aI8
aI1
aI1
aI1
aI9
aI7
aI1
aI3
aI17
aI3
aI1
aI1
aI16
aI6
aI17
aI1
aI1
aI1
aI1
aI3
aI17
aI1
aI1
aI1
aI1
aI1
aI1
aI1
aI17
aI1
aI1
aI3
aI4
aI1
aI17
aI5
aI17
aI1
aI17
aI8
aI1
aI17
aI1
aI11
aI4
aI1
aI21
aI1
aI15
aI4
aI36
aI7
aI1
aI17
aI3
aI3
aI1
aI57
aI1
aI17
aI17
aI1
aI1
aI1
aI5
aI6
aI1
aI1
aI1
aI1
aI27
aI29
aI1
aI3
aI1
aI1
aI1
aI25
aI3
aI17
aI3
aI3
aI6
aI18
aI1
aI4
aI17
aI10
aI1
aI8
aI17
aI1
aI24
aI3
aI5
aI17
aI17
aI7
aI4
aI17
aI1
aI17
aI1
aI9
aI8
aI1
aI1
aI22
aI22
aI7
aI1
aI21
aI1
aI1
aI5
aI21
aI22
aI8
aI17
aI41
aI19
aI1
aI19
aI37
aI30
aI9
aI4
aI4
aI18
aI8
aI1
aI5
aI1
aI1
aI7
aI17
aI5
aI24
aI1
aI4
aI7
aI17
aI1
aI17
aI30
aI5
aI17
aI25
aI1
aI17
aI17
aI4
aI46
aI1
aI16
aI1
aI17
aI10
aI17
aI4
aI7
aI17
aI8
aI1
aI1
aI64
aI1
aI1
aI1
aI16
aI3
aI8
aI17
aI17
aI48
aI17
aI1
aI4
aI1
aI17
aI1
aI24
aI1
aI27
aI20
aI1
aI4
aI1
aI4
aI1
aI4
aI1
aI1
aI1
aI94
aI1
aI17
aI1
aI8
aI1
aI1
aI1
aI3
aI17
aI1
aI3
aI19
aI7
aI7
aI3
aI4
aI29
aI17
aI17
aI3
aI1
aI1
aI1
aI7
aI11
aI4
aI105
aI1
aI1
aI17
aI1
aI3
aI3
aI1
aI1
aI1
aI1
aI9
aI17
aI4
aI4
aI3
aI1
aI19
aI3
aI3
aI1
asS'times'
p7
(lp8
F33.785534143447876
aF17.691534996032715
aF23.7563259601593
aF37.04995393753052
aF18.539077043533325
aF41.57394099235535
aF30.18018412590027
aF290.36883997917175
aF44.839154958724976
aF24.320570945739746
aF47.16621398925781
aF56.14082908630371
aF12.906667947769165
aF35.68841505050659
aF23.768887996673584
aF135.17159295082092
aF19.728950023651123
aF36.541505098342896
aF33.46047115325928
aF26.920675039291382
aF188.16812896728516
aF32.42406105995178
aF15.902499914169312
aF39.100626945495605
aF42.747682094573975
aF36.90098714828491
aF16.9099760055542
aF39.70496606826782
aF73.96825098991394
aF108.92116618156433
aF16.625170946121216
aF29.414557933807373
aF37.01484799385071
aF17.601160049438477
aF36.14096188545227
aF68.03003311157227
aF145.7238199710846
aF214.42703700065613
aF36.34763288497925
aF19.65004014968872
aF16.436789989471436
aF36.78386116027832
aF39.80277705192566
aF17.836884021759033
aF20.225712060928345
aF39.3812530040741
aF54.98514008522034
aF16.63947892189026
aF302.49303698539734
aF33.55496597290039
aF205.25418996810913
aF15.487438201904297
aF81.99627995491028
aF44.07521390914917
aF87.45189785957336
aF26.195034980773926
aF19.35912799835205
aF37.473716020584106
aF41.97679805755615
aF29.87642002105713
aF62.01338791847229
aF40.65109395980835
aF35.942240953445435
aF16.51854395866394
aF49.37301206588745
aF29.71344494819641
aF143.58758306503296
aF38.76688003540039
aF18.303874969482422
aF28.57232904434204
aF37.63710618019104
aF45.17006516456604
aF26.00788903236389
aF35.0621600151062
aF20.4285728931427
aF16.832984924316406
aF36.580772161483765
aF35.51449513435364
aF62.361634969711304
aF30.915471076965332
aF75.22484612464905
aF29.190598011016846
aF36.02798581123352
aF25.902268171310425
aF39.483011960983276
aF16.235630989074707
aF27.77218508720398
aF16.89989995956421
aF31.45366406440735
aF28.533122062683105
aF54.050426959991455
aF36.73334002494812
aF36.30898690223694
aF16.33613395690918
aF46.19565200805664
aF59.90088891983032
aF27.414469003677368
aF32.179754972457886
aF16.79026198387146
aF17.737676858901978
aF30.019525051116943
aF15.365494966506958
aF60.78642177581787
aF73.29929995536804
aF31.933060884475708
aF38.303481101989746
aF16.49106788635254
aF17.47427797317505
aF23.05078387260437
aF42.772342920303345
aF51.38762903213501
aF15.380626916885376
aF19.206126928329468
aF34.95811700820923
aF31.596668004989624
aF22.03586506843567
aF36.16860795021057
aF17.562216997146606
aF13.298571109771729
aF19.220113039016724
aF37.438225984573364
aF40.77928709983826
aF60.78574895858765
aF17.71648597717285
aF100.98319602012634
aF35.078985929489136
aF40.12569618225098
aF78.36877512931824
aF38.95224404335022
aF14.936130046844482
aF39.55874800682068
aF15.384826898574829
aF87.66701102256775
aF39.30150318145752
aF110.9720070362091
aF24.729853868484497
aF18.47604012489319
aF17.02322483062744
aF17.26724100112915
aF113.66550803184509
aF58.22514486312866
aF151.1983950138092
aF17.631006956100464
aF42.597755908966064
aF16.613112926483154
aF29.624265909194946
aF60.99463486671448
aF47.81279993057251
aF15.32919692993164
aF21.486140966415405
aF88.61078095436096
aF16.52321696281433
aF17.022619009017944
aF94.67500615119934
aF34.4452691078186
aF23.079373836517334
aF81.45170903205872
aF15.281572818756104
aF36.04277801513672
aF28.66310214996338
aF25.050375938415527
aF18.883540868759155
aF164.94982814788818
aF39.524046897888184
aF40.401379108428955
aF15.424285888671875
aF19.508692979812622
aF29.90546202659607
aF127.22771310806274
aF96.19082689285278
aF45.980180978775024
aF114.30612087249756
aF19.569042921066284
aF42.74789500236511
aF15.630674123764038
aF54.77110290527344
aF35.442583084106445
aF27.66362500190735
aF87.22659182548523
aF18.072794914245605
aF16.118359088897705
aF17.35271906852722
aF26.053417921066284
aF34.22117280960083
aF45.46256899833679
aF37.159960985183716
aF21.781952142715454
aF36.474698066711426
aF19.932585954666138
aF40.65702295303345
aF213.5057430267334
aF15.940353870391846
aF37.85325908660889
aF60.38551688194275
aF18.120870113372803
aF16.426221132278442
aF28.380576848983765
aF32.77308988571167
aF26.568366050720215
aF33.96445107460022
aF42.231940031051636
aF18.129823923110962
aF26.774730920791626
aF36.329471826553345
aF110.78916192054749
aF74.61818504333496
aF85.30861282348633
aF45.67663908004761
aF45.46183705329895
aF41.897846937179565
aF49.646241188049316
aF176.24115109443665
aF34.5215208530426
aF73.70724606513977
aF41.027729988098145
aF33.74025583267212
aF27.54740285873413
aF29.795369148254395
aF19.25688600540161
aF18.502224922180176
aF49.09597587585449
aF36.76792788505554
aF32.40313100814819
aF35.84921717643738
aF35.42279887199402
aF129.5844750404358
aF44.882269859313965
aF36.74804615974426
aF43.08270883560181
aF50.37837195396423
aF75.20319104194641
aF18.65533995628357
aF63.232012033462524
aF14.205826044082642
aF17.67632508277893
aF15.86150598526001
aF39.10716700553894
aF36.15741491317749
aF48.4168438911438
aF18.467138051986694
aF17.114588022232056
aF36.77908396720886
aF15.942308902740479
aF28.939236879348755
aF24.243870973587036
aF40.037147998809814
aF29.783590078353882
aF15.366543054580688
aF19.074697971343994
aF14.898987054824829
aF32.99570417404175
aF50.573400020599365
aF16.060672998428345
aF36.237186908721924
aF99.97202515602112
aF63.03856611251831
aF46.15460205078125
aF40.40401005744934
aF17.312487840652466
aF21.29436206817627
aF18.07781195640564
aF45.4595730304718
aF41.98148798942566
aF18.697084188461304
aF28.273957014083862
aF40.67666792869568
aF30.271800994873047
aF18.48705291748047
aF17.545389890670776
aF78.17002606391907
aF40.93362903594971
aF34.22169089317322
aF15.982210874557495
aF15.878721952438354
aF17.17849111557007
aF17.458522081375122
aF25.902958154678345
aF33.318519830703735
aF17.207211017608643
aF17.184602975845337
aF17.068033933639526
aF14.78420615196228
aF17.03253698348999
aF16.0593318939209
aF17.41795802116394
aF36.120869874954224
aF19.730559825897217
aF16.854258060455322
aF27.71755599975586
aF27.8748881816864
aF16.8588650226593
aF36.567301988601685
aF31.843127012252808
aF44.27256202697754
aF18.249218940734863
aF38.76125693321228
aF40.28014802932739
aF16.337201833724976
aF43.834619998931885
aF16.037925004959106
aF52.794278144836426
aF38.90938186645508
aF17.197609901428223
aF61.20763301849365
aF17.58961296081543
aF63.55506706237793
aF29.575253009796143
aF122.70160007476807
aF38.50143384933472
aF16.670876026153564
aF69.0508279800415
aF27.276193141937256
aF22.205924034118652
aF17.21538496017456
aF153.83187890052795
aF22.36010980606079
aF40.655763149261475
aF37.7744197845459
aF15.564328908920288
aF15.442916870117188
aF16.27144479751587
aF36.534366846084595
aF79.76298809051514
aF16.415555953979492
aF36.78864312171936
aF26.430552005767822
aF15.832679033279419
aF103.68502187728882
aF80.01395583152771
aF19.101436853408813
aF26.842541933059692
aF21.784181118011475
aF38.61557698249817
aF17.59635019302368
aF77.47563004493713
aF25.31653881072998
aF83.08721399307251
aF26.069141149520874
aF37.71409606933594
aF40.43890595436096
aF61.26870799064636
aF16.230029106140137
aF25.8891179561615
aF39.80472016334534
aF52.78773903846741
aF19.331300020217896
aF59.184738874435425
aF35.00646185874939
aF16.970539093017578
aF95.66162896156311
aF25.615274906158447
aF32.447474002838135
aF65.91787815093994
aF38.57699918746948
aF38.635507106781006
aF31.32821798324585
aF37.09088397026062
aF15.982834100723267
aF49.5372040271759
aF16.588586807250977
aF39.695680141448975
aF43.67882680892944
aF16.821223974227905
aF15.144219875335693
aF64.72913908958435
aF70.73631501197815
aF36.53842210769653
aF16.712285041809082
aF77.59502792358398
aF18.60319209098816
aF20.45231008529663
aF30.513484001159668
aF92.76274394989014
aF83.2167420387268
aF46.28513503074646
aF37.57735204696655
aF130.8668360710144
aF70.1216688156128
aF16.622148036956787
aF55.45733904838562
aF131.78961777687073
aF81.49420285224915
aF48.26542115211487
aF33.23306608200073
aF27.662548065185547
aF63.9191792011261
aF59.55246901512146
aF17.396077156066895
aF40.76514196395874
aF17.01458501815796
aF18.239904165267944
aF36.35659098625183
aF55.04292297363281
aF31.147809982299805
aF84.14819192886353
aF15.848053932189941
aF30.291756868362427
aF43.81723093986511
aF38.74754285812378
aF15.806615114212036
aF41.0166540145874
aF79.4758689403534
aF35.13863205909729
aF44.646711111068726
aF84.78126788139343
aF16.091938018798828
aF37.50738310813904
aF37.456542015075684
aF28.336078882217407
aF144.46879291534424
aF18.731815099716187
aF79.8312931060791
aF18.5416419506073
aF33.77204895019531
aF49.068193197250366
aF38.825949907302856
aF23.492187023162842
aF38.02372598648071
aF35.73561906814575
aF51.33852696418762
aF18.896528005599976
aF17.294985055923462
aF181.28378295898438
aF17.749913930892944
aF16.978511095046997
aF18.3692889213562
aF51.59745407104492
aF27.528569221496582
aF54.72650408744812
aF40.870224952697754
aF38.23487615585327
aF127.40212607383728
aF59.06843090057373
aF17.901890993118286
aF31.951922178268433
aF19.246455192565918
aF44.586971044540405
aF14.989276885986328
aF90.3559238910675
aF18.046788930892944
aF83.12990713119507
aF61.92225909233093
aF16.565242052078247
aF26.98977518081665
aF18.46974802017212
aF32.00285196304321
aF16.744946002960205
aF26.078280925750732
aF14.950290203094482
aF16.05487608909607
aF15.584658861160278
aF301.86878395080566
aF25.22021794319153
aF34.503122091293335
aF14.870146036148071
aF39.966179847717285
aF17.454508066177368
aF17.28393316268921
aF43.320454120635986
aF24.77792000770569
aF38.45301699638367
aF16.884509801864624
aF23.586539030075073
aF74.47789907455444
aF34.73961400985718
aF37.81824994087219
aF25.90964102745056
aF32.588167905807495
aF91.39276814460754
aF41.08488893508911
aF36.733072996139526
aF22.049893856048584
aF24.997671842575073
aF19.19534993171692
aF18.02427101135254
aF36.54343605041504
aF44.540945053100586
aF30.216459035873413
aF301.94122409820557
aF16.17336082458496
aF19.138845205307007
aF36.08653998374939
aF15.180787086486816
aF28.222590923309326
aF25.729914903640747
aF15.421159029006958
aF19.508311986923218
aF18.26289987564087
aF15.236925840377808
aF40.50828504562378
aF38.454827070236206
aF24.47440505027771
aF30.686619997024536
aF26.322048902511597
aF16.176281929016113
aF70.53132486343384
aF24.00933599472046
aF22.498943090438843
aF23.467327117919922
as.