(dp0
S'successes'
p1
(lp2
I01
aI01
aI01
aI01
aI01
aI01
aI01
aI01
aI01
aI01
aI01
aI00
aI01
aI01
aI01
aI01
aI01
aI01
aI01
aI01
aI01
aI01
aI01
aI01
aI01
aI01
aI01
aI01
aI01
aI01
aI01
aI01
aI01
aI01
aI01
aI01
aI01
aI01
aI01
aI01
aI01
aI01
aI01
aI01
aI01
aI01
aI01
aI01
aI01
aI01
aI01
aI01
aI01
aI01
aI01
aI01
aI01
aI01
aI01
aI01
aI01
aI01
aI01
aI01
aI01
aI01
aI01
aI01
aI01
aI01
aI01
aI01
aI01
aI01
aI01
aI01
aI01
aI01
aI01
aI01
aI01
aI01
aI01
aI01
aI01
aI01
aI01
aI00
aI01
aI01
aI01
aI01
aI01
aI01
aI01
aI01
aI01
aI01
aI01
aI01
aI01
aI01
aI01
aI01
aI01
aI01
aI01
aI01
aI01
aI01
aI01
aI01
aI01
aI01
aI01
aI01
aI01
aI01
aI01
aI01
aI01
aI01
aI01
aI01
aI01
aI01
aI01
aI01
aI01
aI01
aI01
aI01
aI01
aI01
aI01
aI01
aI01
aI01
aI01
aI01
aI01
aI01
aI01
aI01
aI01
aI01
aI01
aI01
aI01
aI01
aI01
aI01
aI01
aI01
aI01
aI01
aI01
aI01
aI01
aI01
aI01
aI01
aI01
aI01
aI01
aI01
aI01
aI01
aI01
aI01
aI01
aI01
aI01
aI01
aI01
aI01
aI01
aI01
aI01
aI01
aI01
aI01
aI01
aI01
aI01
aI01
aI00
aI01
aI01
aI01
aI01
aI01
aI01
aI01
aI01
aI01
aI01
aI01
aI01
aI01
aI01
aI01
aI01
aI01
aI01
aI01
aI01
aI01
aI01
aI01
aI01
aI01
aI01
aI01
aI01
aI01
aI01
aI01
aI01
aI01
aI01
aI01
aI01
aI01
aI01
aI01
aI01
aI01
aI01
aI01
aI01
aI01
aI01
aI00
aI01
aI01
aI01
aI01
aI01
aI01
aI01
aI01
aI01
aI01
aI01
aI01
aI01
aI01
aI01
aI01
aI01
aI01
aI01
aI01
aI01
aI01
aI01
aI01
aI01
aI01
aI01
aI01
aI01
aI01
aI01
aI01
aI01
aI01
aI01
aI01
aI01
aI01
aI01
aI01
aI01
aI01
aI01
aI01
aI01
aI01
aI01
aI01
aI01
aI01
aI01
aI01
aI01
aI01
aI01
aI01
aI01
aI01
aI01
aI01
aI01
aI01
aI00
aI01
aI01
aI01
aI01
aI01
aI01
aI01
aI01
aI00
aI01
aI01
aI01
aI01
aI01
aI01
aI01
aI01
aI01
aI01
aI01
aI01
aI01
aI01
aI01
aI01
aI01
aI01
aI01
aI01
aI01
aI01
aI01
aI01
aI01
aI01
aI01
aI01
aI01
aI01
aI01
aI01
aI01
aI01
aI01
aI01
aI01
aI01
aI01
aI01
aI01
aI01
aI01
aI01
aI01
aI01
aI01
aI01
aI01
aI01
aI01
aI01
aI01
aI01
aI01
aI01
aI01
aI01
aI01
aI01
aI01
aI01
aI01
aI01
aI01
aI01
aI01
aI01
aI01
aI01
aI01
aI01
aI01
aI01
aI01
aI01
aI01
aI01
aI01
aI01
aI01
aI01
aI01
aI01
aI01
aI01
aI01
aI01
aI01
aI01
aI01
aI01
aI01
aI01
aI01
aI01
aI01
aI01
aI01
aI01
aI01
aI01
aI01
aI01
aI01
aI01
aI01
aI01
aI01
aI01
aI01
aI01
aI01
aI01
aI01
aI01
aI01
aI01
aI01
aI01
aI01
aI01
aI01
aI01
aI01
aI01
aI01
aI01
aI01
aI01
aI01
aI01
aI01
aI01
aI01
aI01
aI01
aI01
aI00
aI01
aI01
aI01
aI01
aI01
aI01
aI01
aI01
aI01
aI01
aI01
aI01
aI01
aI01
aI01
aI01
aI01
aI01
aI01
aI01
aI01
aI01
aI01
aI01
aI01
aI01
aI01
aI01
aI01
aI01
aI01
aI01
aI01
aI01
aI01
aI01
aI01
aI01
aI01
aI01
aI01
aI01
aI01
aI01
aI01
aI01
aI01
aI01
aI01
aI01
aI01
aI01
aI01
aI01
aI01
aI00
aI00
aI01
aI01
aI00
aI01
aI01
aI01
aI01
aI01
aI01
aI01
aI01
aI01
aI01
aI01
aI01
aI01
aI01
aI01
aI01
aI01
aI01
aI01
aI01
aI01
aI01
aI01
aI01
aI01
aI01
aI01
aI01
aI01
aI01
aI01
aI01
aI01
aI01
aI01
aI01
aI01
aI01
aI01
aI01
aI01
aI01
aI01
aI01
aI01
aI00
aI01
aI01
aI01
aI01
aI01
aI01
aI01
aI01
aI01
aI01
aI01
aI01
aI01
aI00
aI00
aI01
aI01
aI01
aI01
aI01
aI01
aI01
aI01
aI01
aI01
aI01
aI01
aI01
aI01
aI01
aI01
aI01
aI01
aI01
aI01
aI01
aI01
aI01
aI01
aI01
aI01
aI01
aI01
aI01
aI01
aI01
aI01
aI01
aI01
aI01
aI00
aI01
aI01
aI01
aI01
aI01
aI01
aI01
aI01
aI01
aI01
aI01
aI01
aI01
aI01
aI01
aI01
aI01
aI01
aI01
aI01
aI01
aI01
aI01
aI01
aI01
aI01
aI01
aI01
aI01
aI01
aI01
aI01
aI01
aI01
aI01
aI01
aI01
aI01
aI01
aI01
aI01
aI01
aI01
aI01
aI01
aI01
aI01
aI01
aI01
aI01
aI01
aI01
aI01
aI01
aI01
aI01
aI01
aI01
aI01
aI01
aI01
aI01
aI00
aI01
aI01
aI01
aI01
aI01
aI01
aI01
aI01
aI01
aI01
aI01
aI01
aI01
aI01
aI01
aI01
aI01
aI01
aI01
aI01
aI01
aI01
aI01
aI01
aI01
aI01
aI01
aI01
aI01
aI01
aI01
aI01
aI01
aI01
aI01
aI01
aI01
aI00
aI01
aI01
aI01
aI01
aI01
aI01
aI01
aI01
aI01
aI01
aI01
aI01
aI01
aI01
aI01
aI01
aI01
aI01
aI01
aI01
aI01
aI01
aI01
aI01
aI01
aI01
aI01
aI00
aI01
aI01
aI01
aI01
aI01
aI01
aI01
aI01
aI01
aI01
aI01
aI01
aI01
aI01
aI01
aI01
aI01
aI01
aI01
aI01
aI01
aI01
aI01
aI01
aI01
aI01
aI01
aI01
aI01
aI00
aI01
aI01
aI01
aI01
aI01
aI01
aI01
aI01
aI01
aI01
aI01
aI01
aI01
aI01
aI01
aI01
aI01
aI01
aI00
aI01
aI01
aI01
aI00
aI01
aI01
aI01
aI01
aI01
aI01
aI01
aI01
aI01
aI01
aI01
aI01
aI01
aI00
aI00
aI01
aI01
aI01
aI01
aI01
aI01
aI01
aI01
aI01
aI01
aI01
aI01
aI01
aI01
aI01
aI01
aI01
aI01
aI01
aI01
aI01
aI01
aI01
aI01
aI01
aI01
aI01
aI01
aI01
aI01
aI01
aI01
aI01
aI01
aI01
aI01
aI01
aI01
aI01
aI01
aI01
aI01
aI01
aI01
aI01
aI01
aI01
aI01
aI01
aI01
aI01
aI01
aI01
aI01
aI01
aI01
aI01
aI01
aI01
aI01
aI01
aI01
aI01
aI01
aI01
aI01
aI01
aI01
aI01
aI01
aI01
aI01
aI01
aI01
aI01
aI01
aI01
aI01
aI01
aI01
aI01
aI01
aI01
aI01
aI01
aI01
aI01
aI01
aI01
aI01
aI01
aI01
aI01
aI01
aI01
aI00
aI01
aI01
aI01
aI01
aI01
aI01
aI00
aI01
aI01
aI01
aI01
aI01
aI01
aI01
aI01
aI01
aI01
aI01
aI01
aI01
aI01
aI01
aI01
aI01
aI01
aI01
aI01
aI01
aI01
aI01
aI01
aI01
aI01
aI01
aI01
aI01
aI01
aI01
aI01
aI01
aI01
aI00
aI01
aI01
aI01
aI01
aI01
aI01
aI01
aI01
aI01
aI01
aI01
aI01
aI01
aI01
aI01
aI01
aI01
aI01
aI01
aI01
aI01
aI01
aI01
aI01
aI01
aI01
aI01
aI01
aI01
aI01
aI01
aI01
aI01
aI01
aI01
aI01
aI01
aI01
aI01
aI01
aI01
aI01
aI01
aI01
aI01
aI00
aI01
aI01
aI01
aI01
aI01
aI01
aI01
aI01
aI01
aI01
aI01
aI01
aI01
aI01
aI01
aI01
aI01
aI01
aI01
aI01
aI01
aI01
aI01
aI01
aI01
aI01
aI01
aI01
aI01
aI01
aI01
aI01
aI01
aI01
aI01
aI01
aI01
aI01
aI01
aI01
aI01
aI01
aI01
aI01
aI01
aI01
aI01
aI01
aI01
aI01
aI01
aI01
aI01
aI01
aI01
aI01
aI01
aI01
aI01
aI01
aI01
aI01
aI01
aI01
aI01
aI00
aI01
aI01
aI01
aI01
aI01
aI01
aI01
aI01
aI01
aI01
aI01
aI01
aI01
aI01
aI01
aI01
aI01
aI01
aI01
aI01
aI01
aI01
aI01
aI01
aI01
aI01
aI01
aI01
aI01
aI01
aI01
aI01
aI01
aI01
aI01
aI01
aI01
aI01
aI01
aI01
aI01
aI01
aI01
aI01
aI01
aI01
aI01
aI01
aI01
aI01
aI01
aI01
aI01
aI01
aI00
aI01
aI01
aI01
aI01
aI01
aI01
aI01
aI01
aI01
aI01
aI01
aI01
aI01
aI01
aI01
aI01
aI01
aI01
aI01
aI01
aI01
aI01
aI01
aI01
aI01
aI01
aI01
aI01
aI01
aI01
aI01
aI01
aI01
aI01
aI01
aI01
aI01
aI01
aI01
aI01
aI01
aI01
aI01
aI01
aI01
aI01
aI01
aI01
aI01
aI01
aI01
aI01
aI01
aI01
aI01
aI01
aI01
aI01
aI00
aI01
aI01
aI01
aI01
aI01
aI01
aI01
aI01
aI01
aI01
aI01
aI01
aI01
aI01
aI01
aI01
aI01
aI01
aI01
aI01
aI01
aI01
aI01
aI01
aI01
aI01
aI01
aI01
aI01
aI01
aI01
aI01
aI01
aI01
aI01
aI01
aI01
aI01
aI01
aI01
aI01
aI01
aI01
aI01
aI01
aI01
aI01
aI01
aI01
aI01
aI01
aI01
aI01
aI01
aI01
aI01
aI01
aI01
aI01
aI01
aI01
aI01
aI01
aI01
aI01
aI01
aI01
aI01
aI01
aI01
aI01
aI01
aI01
aI01
aI01
aI01
aI01
aI01
aI01
aI01
aI01
aI01
aI01
aI00
aI01
aI01
aI01
aI01
aI01
aI01
aI01
aI01
aI01
aI01
aI01
aI01
aI01
aI01
aI01
aI01
aI01
aI01
aI01
aI01
aI01
aI01
aI01
aI01
aI01
aI01
aI01
aI01
aI01
aI01
aI01
aI01
aI01
aI01
aI01
aI01
aI01
aI01
aI01
aI01
aI01
aI01
aI01
aI01
aI01
aI01
aI01
aI01
aI01
aI01
aI01
aI01
aI01
aI01
aI01
aI01
aI01
aI01
aI01
aI01
aI01
aI01
aI01
aI01
aI01
aI01
aI01
aI01
aI01
aI01
aI00
aI01
aI01
aI01
aI01
aI01
aI01
aI01
aI01
aI01
aI01
aI01
aI01
aI01
aI01
aI01
aI01
aI01
aI01
aI01
aI01
aI01
aI01
aI01
aI01
aI01
aI01
aI00
aI01
aI01
aI01
aI01
aI01
aI01
aI00
aI01
aI01
aI01
aI01
aI01
aI01
aI01
aI01
aI01
aI01
aI01
aI01
aI01
aI01
aI01
aI01
aI01
aI01
aI01
aI01
aI01
aI01
aI01
aI01
aI01
aI01
aI01
aI01
aI01
aI01
aI01
aI01
aI01
aI01
aI01
aI01
aI01
aI01
aI01
aI01
aI01
aI01
aI01
aI01
aI01
aI01
aI01
aI01
aI01
aI01
aI01
aI01
aI01
aI01
aI01
aI01
aI01
aI01
aI01
aI01
aI01
aI01
aI01
aI01
aI01
aI01
aI01
aI01
aI01
aI01
aI01
aI00
aI01
aI01
aI01
aI01
aI00
aI01
aI01
aI01
aI01
aI01
aI01
aI01
aI01
aI01
aI01
aI01
aI01
aI01
aI01
aI01
aI01
aI01
aI01
aI01
aI01
aI01
aI01
aI01
aI01
aI01
aI01
aI01
aI01
aI01
aI01
aI01
aI01
aI01
aI01
aI01
aI01
aI01
aI01
aI01
aI01
aI01
aI01
aI01
aI01
aI01
aI01
aI01
aI01
aI01
aI01
aI01
aI01
aI01
aI01
aI01
aI01
aI01
aI01
aI01
aI01
aI01
aI01
aI01
asS'pidxs'
p3
(lp4
I20050
aI20045
aI20070
aI20015
aI20076
aI20009
aI20053
aI20081
aI20099
aI20099
aI20012
aI20092
aI20055
aI20026
aI20039
aI20074
aI20052
aI20042
aI20012
aI20076
aI20025
aI20053
aI20007
aI20092
aI20008
aI20004
aI20025
aI20088
aI20017
aI20026
aI20040
aI20013
aI20048
aI20071
aI20003
aI20046
aI20006
aI20087
aI20073
aI20075
aI20075
aI20080
aI20039
aI20083
aI20043
aI20012
aI20092
aI20084
aI20031
aI20090
aI20007
aI20028
aI20071
aI20090
aI20004
aI20091
aI20032
aI20001
aI20052
aI20005
aI20069
aI20015
aI20020
aI20009
aI20054
aI20019
aI20071
aI20020
aI20019
aI20064
aI20047
aI20072
aI20033
aI20008
aI20065
aI20023
aI20021
aI20024
aI20067
aI20046
aI20016
aI20016
aI20037
aI20044
aI20067
aI20099
aI20065
aI20080
aI20082
aI20065
aI20042
aI20099
aI20007
aI20068
aI20038
aI20029
aI20057
aI20073
aI20086
aI20008
aI20028
aI20083
aI20064
aI20098
aI20095
aI20044
aI20035
aI20061
aI20004
aI20083
aI20059
aI20098
aI20051
aI20004
aI20093
aI20053
aI20003
aI20068
aI20038
aI20034
aI20091
aI20033
aI20088
aI20009
aI20091
aI20084
aI20038
aI20005
aI20053
aI20069
aI20045
aI20079
aI20084
aI20061
aI20094
aI20068
aI20024
aI20066
aI20023
aI20047
aI20056
aI20089
aI20007
aI20015
aI20005
aI20088
aI20081
aI20022
aI20077
aI20059
aI20091
aI20010
aI20020
aI20089
aI20033
aI20022
aI20008
aI20055
aI20070
aI20027
aI20054
aI20050
aI20094
aI20024
aI20027
aI20016
aI20084
aI20089
aI20017
aI20075
aI20091
aI20041
aI20048
aI20088
aI20025
aI20032
aI20034
aI20053
aI20039
aI20026
aI20033
aI20034
aI20091
aI20050
aI20017
aI20024
aI20077
aI20093
aI20027
aI20046
aI20044
aI20042
aI20072
aI20003
aI20034
aI20094
aI20062
aI20011
aI20088
aI20047
aI20074
aI20049
aI20053
aI20019
aI20017
aI20018
aI20066
aI20064
aI20057
aI20028
aI20011
aI20005
aI20008
aI20002
aI20070
aI20068
aI20079
aI20088
aI20085
aI20029
aI20051
aI20079
aI20020
aI20029
aI20080
aI20079
aI20011
aI20069
aI20046
aI20021
aI20094
aI20032
aI20083
aI20052
aI20008
aI20096
aI20020
aI20017
aI20044
aI20099
aI20072
aI20080
aI20068
aI20071
aI20024
aI20078
aI20099
aI20004
aI20028
aI20004
aI20008
aI20058
aI20033
aI20010
aI20082
aI20016
aI20008
aI20002
aI20081
aI20085
aI20023
aI20071
aI20094
aI20023
aI20062
aI20087
aI20068
aI20016
aI20015
aI20022
aI20064
aI20073
aI20090
aI20043
aI20020
aI20052
aI20011
aI20031
aI20045
aI20015
aI20026
aI20031
aI20038
aI20086
aI20055
aI20006
aI20096
aI20063
aI20090
aI20029
aI20004
aI20005
aI20069
aI20039
aI20014
aI20077
aI20030
aI20055
aI20025
aI20007
aI20064
aI20067
aI20010
aI20016
aI20097
aI20022
aI20046
aI20046
aI20048
aI20061
aI20022
aI20036
aI20030
aI20039
aI20041
aI20084
aI20070
aI20011
aI20076
aI20025
aI20087
aI20000
aI20056
aI20096
aI20021
aI20001
aI20048
aI20063
aI20022
aI20049
aI20005
aI20009
aI20002
aI20044
aI20002
aI20083
aI20036
aI20013
aI20078
aI20065
aI20051
aI20032
aI20027
aI20059
aI20085
aI20097
aI20077
aI20047
aI20049
aI20072
aI20084
aI20039
aI20093
aI20054
aI20052
aI20042
aI20020
aI20039
aI20007
aI20052
aI20000
aI20036
aI20043
aI20091
aI20063
aI20025
aI20087
aI20064
aI20046
aI20014
aI20035
aI20004
aI20009
aI20013
aI20097
aI20016
aI20007
aI20045
aI20012
aI20013
aI20000
aI20076
aI20063
aI20067
aI20001
aI20006
aI20063
aI20060
aI20063
aI20044
aI20044
aI20082
aI20057
aI20047
aI20036
aI20076
aI20001
aI20048
aI20057
aI20012
aI20099
aI20064
aI20057
aI20026
aI20089
aI20045
aI20050
aI20021
aI20067
aI20006
aI20043
aI20011
aI20052
aI20037
aI20060
aI20064
aI20056
aI20085
aI20018
aI20046
aI20006
aI20019
aI20034
aI20060
aI20028
aI20059
aI20096
aI20057
aI20078
aI20031
aI20000
aI20056
aI20094
aI20080
aI20038
aI20054
aI20085
aI20035
aI20017
aI20017
aI20023
aI20015
aI20037
aI20023
aI20053
aI20069
aI20073
aI20086
aI20017
aI20070
aI20022
aI20092
aI20059
aI20043
aI20083
aI20028
aI20040
aI20051
aI20036
aI20029
aI20079
aI20079
aI20037
aI20012
aI20029
aI20090
aI20006
aI20076
aI20022
aI20085
aI20008
aI20009
aI20072
aI20099
aI20074
aI20060
aI20020
aI20052
aI20005
aI20042
aI20020
aI20023
aI20057
aI20009
aI20011
aI20096
aI20001
aI20020
aI20066
aI20026
aI20041
aI20092
aI20011
aI20067
aI20033
aI20062
aI20013
aI20081
aI20028
aI20037
aI20003
aI20080
aI20056
aI20054
aI20013
aI20072
aI20052
aI20056
aI20098
aI20070
aI20041
aI20082
aI20027
aI20060
aI20098
aI20030
aI20080
aI20009
aI20000
aI20062
aI20027
aI20076
aI20041
aI20076
aI20036
aI20059
aI20021
aI20005
aI20048
aI20002
aI20095
aI20096
aI20033
aI20082
aI20010
aI20082
aI20048
aI20013
aI20034
aI20015
aI20032
aI20013
aI20043
aI20053
aI20040
aI20026
aI20021
aI20003
aI20095
aI20090
aI20020
aI20032
aI20016
aI20038
aI20027
aI20008
aI20026
aI20002
aI20093
aI20004
aI20043
aI20055
aI20010
aI20095
aI20039
aI20031
aI20029
aI20056
aI20018
aI20029
aI20006
aI20070
aI20029
aI20017
aI20010
aI20004
aI20086
aI20029
aI20045
aI20095
aI20075
aI20079
aI20070
aI20081
aI20062
aI20006
aI20037
aI20082
aI20064
aI20086
aI20058
aI20000
aI20068
aI20014
aI20012
aI20077
aI20038
aI20036
aI20037
aI20079
aI20043
aI20059
aI20066
aI20000
aI20062
aI20003
aI20014
aI20010
aI20042
aI20066
aI20069
aI20017
aI20007
aI20094
aI20049
aI20018
aI20084
aI20041
aI20099
aI20050
aI20073
aI20089
aI20001
aI20028
aI20031
aI20028
aI20044
aI20058
aI20092
aI20047
aI20070
aI20086
aI20014
aI20074
aI20014
aI20036
aI20003
aI20025
aI20050
aI20034
aI20023
aI20051
aI20086
aI20091
aI20088
aI20066
aI20066
aI20012
aI20044
aI20001
aI20076
aI20004
aI20040
aI20094
aI20044
aI20063
aI20028
aI20031
aI20099
aI20095
aI20088
aI20031
aI20026
aI20061
aI20093
aI20044
aI20025
aI20057
aI20019
aI20001
aI20010
aI20082
aI20002
aI20061
aI20056
aI20050
aI20092
aI20042
aI20072
aI20096
aI20098
aI20048
aI20085
aI20082
aI20021
aI20035
aI20019
aI20026
aI20035
aI20085
aI20014
aI20027
aI20028
aI20016
aI20050
aI20067
aI20041
aI20027
aI20063
aI20025
aI20064
aI20025
aI20017
aI20047
aI20084
aI20004
aI20098
aI20057
aI20081
aI20075
aI20042
aI20020
aI20094
aI20073
aI20006
aI20013
aI20010
aI20024
aI20093
aI20003
aI20077
aI20088
aI20036
aI20033
aI20050
aI20045
aI20068
aI20016
aI20061
aI20071
aI20006
aI20036
aI20063
aI20002
aI20097
aI20068
aI20071
aI20083
aI20064
aI20062
aI20055
aI20058
aI20031
aI20041
aI20093
aI20052
aI20003
aI20067
aI20000
aI20015
aI20026
aI20024
aI20034
aI20015
aI20070
aI20058
aI20096
aI20029
aI20047
aI20071
aI20074
aI20058
aI20047
aI20006
aI20086
aI20025
aI20085
aI20074
aI20073
aI20062
aI20033
aI20058
aI20002
aI20014
aI20024
aI20039
aI20057
aI20083
aI20032
aI20049
aI20065
aI20037
aI20055
aI20048
aI20042
aI20091
aI20054
aI20057
aI20029
aI20045
aI20063
aI20061
aI20042
aI20025
aI20003
aI20078
aI20029
aI20059
aI20034
aI20070
aI20097
aI20078
aI20006
aI20008
aI20020
aI20019
aI20041
aI20012
aI20016
aI20058
aI20032
aI20040
aI20058
aI20034
aI20041
aI20058
aI20098
aI20004
aI20017
aI20080
aI20087
aI20000
aI20000
aI20058
aI20079
aI20002
aI20098
aI20072
aI20004
aI20017
aI20007
aI20001
aI20086
aI20045
aI20040
aI20030
aI20000
aI20055
aI20023
aI20067
aI20094
aI20073
aI20090
aI20016
aI20042
aI20028
aI20023
aI20037
aI20097
aI20029
aI20057
aI20079
aI20084
aI20035
aI20048
aI20099
aI20021
aI20080
aI20092
aI20059
aI20056
aI20026
aI20017
aI20052
aI20010
aI20069
aI20046
aI20042
aI20066
aI20071
aI20035
aI20089
aI20066
aI20097
aI20018
aI20077
aI20009
aI20015
aI20083
aI20015
aI20023
aI20009
aI20061
aI20097
aI20045
aI20012
aI20074
aI20089
aI20041
aI20089
aI20022
aI20099
aI20090
aI20092
aI20062
aI20017
aI20061
aI20055
aI20008
aI20093
aI20074
aI20030
aI20019
aI20071
aI20034
aI20009
aI20006
aI20021
aI20068
aI20056
aI20008
aI20011
aI20046
aI20079
aI20012
aI20026
aI20023
aI20027
aI20040
aI20008
aI20010
aI20021
aI20022
aI20075
aI20005
aI20043
aI20040
aI20064
aI20038
aI20038
aI20002
aI20081
aI20023
aI20018
aI20095
aI20087
aI20024
aI20066
aI20035
aI20062
aI20030
aI20030
aI20086
aI20065
aI20012
aI20014
aI20045
aI20076
aI20059
aI20035
aI20072
aI20066
aI20078
aI20074
aI20083
aI20097
aI20097
aI20077
aI20062
aI20090
aI20052
aI20016
aI20058
aI20013
aI20040
aI20047
aI20085
aI20069
aI20001
aI20096
aI20025
aI20054
aI20086
aI20048
aI20000
aI20046
aI20083
aI20091
aI20010
aI20001
aI20022
aI20051
aI20081
aI20016
aI20014
aI20096
aI20038
aI20011
aI20065
aI20087
aI20001
aI20030
aI20096
aI20007
aI20075
aI20044
aI20000
aI20000
aI20033
aI20053
aI20061
aI20077
aI20063
aI20086
aI20011
aI20015
aI20004
aI20085
aI20032
aI20096
aI20016
aI20019
aI20048
aI20094
aI20019
aI20021
aI20035
aI20001
aI20009
aI20003
aI20090
aI20031
aI20093
aI20077
aI20024
aI20087
aI20006
aI20011
aI20005
aI20013
aI20082
aI20039
aI20005
aI20035
aI20071
aI20087
aI20071
aI20002
aI20060
aI20030
aI20019
aI20051
aI20011
aI20031
aI20014
aI20074
aI20031
aI20010
aI20020
aI20033
aI20050
aI20078
aI20023
aI20007
aI20096
aI20038
aI20027
aI20014
aI20007
aI20000
aI20015
aI20014
aI20049
aI20075
aI20089
aI20040
aI20093
aI20010
aI20017
aI20065
aI20088
aI20033
aI20098
aI20084
aI20081
aI20094
aI20075
aI20039
aI20080
aI20021
aI20007
aI20021
aI20003
aI20056
aI20098
aI20009
aI20006
aI20056
aI20005
aI20005
aI20065
aI20041
aI20077
aI20012
aI20051
aI20018
aI20069
aI20099
aI20049
aI20007
aI20079
aI20085
aI20044
aI20052
aI20040
aI20001
aI20017
aI20025
aI20021
aI20035
aI20069
aI20094
aI20075
aI20089
aI20018
aI20070
aI20097
aI20032
aI20012
aI20076
aI20070
aI20000
aI20089
aI20078
aI20007
aI20022
aI20085
aI20089
aI20019
aI20098
aI20018
aI20003
aI20049
aI20006
aI20018
aI20037
aI20042
aI20084
aI20050
aI20051
aI20035
aI20011
aI20078
aI20051
aI20047
aI20027
aI20088
aI20003
aI20004
aI20038
aI20095
aI20001
aI20032
aI20064
aI20087
aI20095
aI20084
aI20056
aI20060
aI20018
aI20049
aI20004
aI20010
aI20058
aI20036
aI20018
aI20059
aI20079
aI20031
aI20060
aI20014
aI20002
aI20087
aI20091
aI20073
aI20082
aI20063
aI20097
aI20083
aI20092
aI20096
aI20078
aI20081
aI20039
aI20005
aI20038
aI20065
aI20059
aI20051
aI20095
aI20043
aI20058
aI20022
aI20072
aI20027
aI20004
aI20051
aI20080
aI20019
aI20098
aI20079
aI20003
aI20049
aI20036
aI20061
aI20072
aI20063
aI20022
aI20011
aI20048
aI20011
aI20057
aI20073
aI20013
aI20002
aI20056
aI20014
aI20053
aI20027
aI20097
aI20020
aI20025
aI20049
aI20002
aI20097
aI20011
aI20080
aI20041
aI20066
aI20000
aI20084
aI20055
aI20073
aI20082
aI20050
aI20013
aI20090
aI20054
aI20039
aI20030
aI20067
aI20026
aI20015
aI20058
aI20026
aI20028
aI20005
aI20060
aI20055
aI20014
aI20033
aI20023
aI20059
aI20032
aI20024
aI20016
aI20061
aI20011
aI20018
aI20040
aI20061
aI20024
aI20031
aI20069
aI20063
aI20032
aI20007
aI20088
aI20054
aI20059
aI20050
aI20047
aI20019
aI20053
aI20062
aI20061
aI20066
aI20024
aI20069
aI20062
aI20003
aI20054
aI20098
aI20016
aI20027
aI20030
aI20053
aI20075
aI20012
aI20038
aI20043
aI20015
aI20059
aI20009
aI20090
aI20008
aI20045
aI20065
aI20002
aI20012
aI20026
aI20009
aI20020
aI20060
aI20072
aI20045
aI20091
aI20093
aI20019
aI20018
aI20073
aI20069
aI20074
aI20003
aI20071
aI20021
aI20043
aI20012
aI20068
aI20081
aI20054
aI20010
aI20048
aI20030
aI20074
aI20073
aI20049
aI20037
aI20043
aI20019
aI20016
aI20090
aI20022
aI20045
aI20035
aI20074
aI20001
aI20035
aI20013
aI20083
aI20073
aI20046
aI20066
aI20081
aI20013
aI20046
aI20052
aI20090
aI20036
aI20074
aI20069
aI20060
aI20041
aI20057
aI20091
aI20076
aI20065
aI20082
aI20030
aI20007
aI20001
aI20062
aI20015
aI20031
aI20050
aI20046
aI20060
aI20051
aI20013
aI20055
aI20092
aI20062
aI20054
aI20086
aI20036
aI20036
aI20078
aI20049
aI20071
aI20034
aI20027
aI20082
aI20072
aI20010
aI20053
aI20008
aI20044
aI20034
aI20091
aI20009
aI20034
aI20040
aI20025
aI20043
aI20020
aI20077
aI20050
aI20033
aI20019
aI20003
aI20030
aI20095
aI20088
aI20012
aI20078
aI20047
aI20033
aI20013
aI20023
aI20022
aI20000
aI20087
aI20076
aI20092
aI20013
aI20088
aI20008
aI20084
aI20076
aI20087
aI20067
aI20028
aI20060
aI20041
aI20005
aI20095
aI20055
aI20018
aI20095
aI20067
aI20021
aI20072
aI20056
aI20054
aI20060
aI20037
aI20053
aI20025
aI20075
aI20089
aI20010
aI20014
aI20044
aI20064
aI20009
aI20008
aI20000
aI20067
aI20029
aI20005
aI20006
aI20093
aI20037
aI20087
aI20054
aI20068
aI20085
aI20051
aI20027
aI20037
aI20080
aI20007
aI20024
aI20065
aI20047
aI20019
aI20017
aI20024
aI20098
aI20001
aI20018
aI20068
aI20093
aI20005
aI20018
aI20039
aI20028
aI20081
aI20075
aI20051
aI20054
aI20006
aI20022
aI20029
aI20042
aI20063
aI20080
aI20095
aI20028
aI20042
aI20040
aI20049
asS'plan_length'
p5
(lp6
I40
aI29
aI66
aI24
aI44
aI18
aI159
aI60
aI88
aI77
aI19
aI13
aI108
aI15
aI11
aI266
aI11
aI42
aI8
aI10
aI49
aI22
aI24
aI25
aI15
aI57
aI17
aI83
aI18
aI14
aI116
aI8
aI33
aI23
aI20
aI16
aI45
aI47
aI20
aI19
aI38
aI13
aI71
aI10
aI47
aI82
aI10
aI38
aI10
aI31
aI33
aI11
aI135
aI25
aI76
aI242
aI16
aI47
aI38
aI62
aI27
aI25
aI28
aI35
aI251
aI148
aI106
aI147
aI34
aI12
aI62
aI14
aI19
aI15
aI8
aI51
aI36
aI18
aI25
aI13
aI9
aI403
aI25
aI25
aI14
aI43
aI45
aI13
aI12
aI53
aI11
aI32
aI250
aI14
aI25
aI13
aI17
aI56
aI48
aI12
aI38
aI70
aI19
aI201
aI16
aI62
aI43
aI28
aI19
aI302
aI9
aI20
aI28
aI72
aI54
aI20
aI37
aI86
aI9
aI23
aI121
aI99
aI10
aI27
aI12
aI13
aI16
aI23
aI27
aI13
aI9
aI38
aI20
aI26
aI34
aI310
aI209
aI11
aI78
aI87
aI12
aI22
aI20
aI64
aI23
aI16
aI14
aI17
aI12
aI28
aI18
aI33
aI12
aI20
aI12
aI34
aI60
aI12
aI13
aI11
aI27
aI153
aI26
aI33
aI10
aI31
aI37
aI58
aI18
aI33
aI75
aI84
aI52
aI44
aI38
aI11
aI83
aI12
aI13
aI13
aI13
aI27
aI25
aI25
aI16
aI41
aI10
aI81
aI22
aI24
aI13
aI126
aI22
aI13
aI65
aI9
aI17
aI52
aI12
aI20
aI17
aI17
aI195
aI34
aI16
aI165
aI58
aI90
aI34
aI28
aI49
aI12
aI34
aI59
aI12
aI29
aI155
aI24
aI24
aI13
aI12
aI15
aI12
aI41
aI49
aI24
aI10
aI56
aI12
aI16
aI21
aI10
aI23
aI10
aI30
aI31
aI28
aI214
aI41
aI13
aI123
aI342
aI9
aI55
aI22
aI121
aI15
aI34
aI69
aI19
aI15
aI16
aI53
aI16
aI25
aI74
aI119
aI404
aI81
aI10
aI37
aI137
aI21
aI34
aI11
aI13
aI19
aI22
aI13
aI29
aI167
aI40
aI11
aI33
aI44
aI24
aI98
aI15
aI10
aI94
aI18
aI34
aI295
aI28
aI38
aI144
aI54
aI20
aI54
aI19
aI24
aI17
aI14
aI16
aI33
aI19
aI49
aI22
aI14
aI14
aI264
aI144
aI78
aI18
aI15
aI23
aI71
aI44
aI19
aI15
aI15
aI116
aI11
aI13
aI66
aI133
aI139
aI27
aI204
aI9
aI113
aI118
aI37
aI230
aI37
aI24
aI26
aI138
aI19
aI20
aI21
aI85
aI45
aI32
aI30
aI166
aI27
aI15
aI13
aI34
aI16
aI23
aI12
aI28
aI14
aI14
aI16
aI17
aI20
aI193
aI325
aI102
aI13
aI39
aI175
aI21
aI16
aI15
aI11
aI12
aI72
aI61
aI64
aI63
aI70
aI328
aI45
aI77
aI59
aI107
aI40
aI23
aI39
aI58
aI61
aI14
aI49
aI110
aI16
aI22
aI18
aI15
aI16
aI21
aI59
aI47
aI65
aI111
aI15
aI25
aI86
aI13
aI288
aI19
aI15
aI20
aI24
aI17
aI35
aI81
aI70
aI28
aI47
aI86
aI231
aI52
aI16
aI23
aI26
aI20
aI25
aI23
aI10
aI14
aI15
aI18
aI21
aI46
aI45
aI59
aI11
aI12
aI13
aI109
aI84
aI23
aI79
aI59
aI9
aI49
aI57
aI15
aI14
aI201
aI8
aI19
aI64
aI17
aI174
aI99
aI30
aI49
aI232
aI65
aI116
aI73
aI13
aI10
aI20
aI13
aI89
aI45
aI91
aI73
aI48
aI61
aI53
aI14
aI13
aI39
aI10
aI12
aI30
aI78
aI15
aI86
aI21
aI16
aI94
aI23
aI17
aI21
aI70
aI34
aI17
aI60
aI73
aI159
aI19
aI37
aI25
aI108
aI13
aI59
aI21
aI183
aI32
aI97
aI14
aI26
aI36
aI73
aI106
aI18
aI93
aI196
aI10
aI29
aI23
aI28
aI24
aI34
aI34
aI85
aI48
aI12
aI72
aI13
aI12
aI49
aI21
aI9
aI53
aI44
aI14
aI66
aI53
aI19
aI23
aI239
aI89
aI43
aI9
aI87
aI31
aI42
aI17
aI16
aI18
aI28
aI9
aI29
aI148
aI15
aI21
aI14
aI36
aI30
aI32
aI69
aI20
aI22
aI51
aI85
aI16
aI34
aI162
aI187
aI21
aI162
aI37
aI36
aI18
aI79
aI49
aI21
aI68
aI16
aI87
aI14
aI46
aI49
aI10
aI22
aI37
aI12
aI13
aI19
aI10
aI16
aI19
aI24
aI22
aI153
aI46
aI18
aI12
aI8
aI35
aI19
aI67
aI46
aI12
aI79
aI39
aI28
aI14
aI55
aI89
aI15
aI57
aI30
aI20
aI12
aI14
aI174
aI16
aI12
aI57
aI14
aI12
aI26
aI22
aI50
aI41
aI40
aI17
aI53
aI46
aI77
aI49
aI13
aI13
aI16
aI14
aI19
aI69
aI123
aI77
aI174
aI93
aI13
aI22
aI96
aI97
aI32
aI23
aI21
aI20
aI13
aI19
aI14
aI10
aI22
aI20
aI18
aI37
aI12
aI16
aI11
aI22
aI26
aI15
aI22
aI15
aI10
aI418
aI26
aI12
aI34
aI227
aI29
aI14
aI117
aI198
aI59
aI17
aI14
aI202
aI114
aI24
aI83
aI22
aI66
aI14
aI19
aI46
aI10
aI32
aI29
aI36
aI13
aI44
aI22
aI96
aI8
aI14
aI26
aI11
aI66
aI24
aI48
aI20
aI39
aI33
aI22
aI18
aI24
aI62
aI21
aI11
aI21
aI76
aI15
aI28
aI14
aI27
aI180
aI41
aI144
aI28
aI16
aI144
aI264
aI285
aI119
aI12
aI109
aI213
aI30
aI14
aI13
aI21
aI26
aI48
aI17
aI25
aI35
aI16
aI94
aI20
aI103
aI32
aI27
aI55
aI77
aI315
aI20
aI62
aI21
aI14
aI10
aI21
aI86
aI228
aI26
aI17
aI21
aI13
aI12
aI20
aI17
aI24
aI40
aI395
aI116
aI54
aI19
aI31
aI34
aI77
aI24
aI12
aI10
aI13
aI157
aI37
aI15
aI34
aI26
aI29
aI20
aI29
aI10
aI9
aI12
aI13
aI22
aI14
aI11
aI29
aI65
aI197
aI12
aI19
aI11
aI12
aI59
aI62
aI84
aI27
aI97
aI75
aI24
aI14
aI19
aI82
aI62
aI11
aI34
aI81
aI38
aI10
aI17
aI13
aI20
aI21
aI28
aI17
aI15
aI24
aI17
aI103
aI50
aI24
aI22
aI206
aI21
aI31
aI124
aI20
aI28
aI9
aI16
aI21
aI170
aI8
aI11
aI131
aI30
aI18
aI51
aI61
aI10
aI11
aI11
aI10
aI49
aI12
aI8
aI23
aI14
aI25
aI29
aI41
aI10
aI40
aI39
aI100
aI156
aI37
aI43
aI73
aI21
aI8
aI16
aI50
aI68
aI19
aI21
aI19
aI10
aI21
aI259
aI82
aI50
aI20
aI50
aI15
aI9
aI41
aI16
aI29
aI14
aI72
aI23
aI73
aI10
aI20
aI37
aI11
aI75
aI29
aI21
aI157
aI103
aI28
aI14
aI28
aI66
aI49
aI30
aI54
aI54
aI16
aI34
aI41
aI12
aI11
aI22
aI42
aI13
aI415
aI23
aI24
aI355
aI20
aI15
aI89
aI72
aI33
aI16
aI39
aI73
aI12
aI10
aI37
aI49
aI78
aI26
aI19
aI30
aI22
aI36
aI40
aI21
aI36
aI106
aI59
aI15
aI13
aI35
aI54
aI18
aI77
aI33
aI252
aI14
aI69
aI31
aI97
aI53
aI28
aI11
aI45
aI162
aI34
aI10
aI8
aI11
aI9
aI11
aI102
aI74
aI28
aI31
aI20
aI32
aI14
aI8
aI11
aI68
aI31
aI13
aI25
aI37
aI81
aI17
aI105
aI14
aI24
aI60
aI15
aI8
aI23
aI13
aI40
aI21
aI28
aI76
aI31
aI40
aI48
aI27
aI27
aI23
aI19
aI18
aI35
aI33
aI21
aI64
aI61
aI23
aI15
aI32
aI34
aI22
aI23
aI188
aI25
aI43
aI14
aI18
aI60
aI37
aI16
aI256
aI146
aI143
aI16
aI10
aI31
aI19
aI33
aI54
aI35
aI63
aI29
aI87
aI16
aI208
aI66
aI14
aI13
aI16
aI149
aI36
aI13
aI23
aI24
aI10
aI31
aI16
aI128
aI11
aI8
aI16
aI10
aI139
aI11
aI41
aI32
aI13
aI10
aI293
aI15
aI15
aI34
aI22
aI123
aI25
aI22
aI35
aI42
aI14
aI28
aI79
aI14
aI36
aI35
aI167
aI42
aI11
aI12
aI16
aI22
aI21
aI92
aI72
aI16
aI17
aI11
aI17
aI60
aI9
aI19
aI185
aI10
aI54
aI101
aI45
aI57
aI229
aI147
aI14
aI8
aI123
aI60
aI12
aI82
aI14
aI38
aI37
aI409
aI13
aI18
aI26
aI31
aI18
aI11
aI38
aI15
aI15
aI194
aI22
aI155
aI38
aI110
aI33
aI30
aI33
aI16
aI13
aI28
aI11
aI33
aI111
aI20
aI106
aI27
aI8
aI13
aI26
aI22
aI222
aI17
aI14
aI24
aI20
aI14
aI94
aI36
aI14
aI28
aI62
aI12
aI11
aI61
aI85
aI68
aI68
aI17
aI16
aI12
aI49
aI26
aI45
aI28
aI132
aI46
aI100
aI44
aI11
aI55
aI181
aI14
aI20
aI46
aI49
aI28
aI24
aI15
aI142
aI36
aI60
aI276
aI40
aI270
aI84
aI25
aI9
aI37
aI14
aI126
aI12
aI24
aI18
aI16
aI45
aI28
aI24
aI74
aI10
aI22
aI16
aI12
aI40
aI110
aI24
aI125
aI365
aI24
aI38
aI14
aI67
aI53
aI26
aI18
aI31
aI26
aI29
aI19
aI26
aI137
aI22
aI13
aI13
aI19
aI172
aI53
aI18
aI8
aI17
aI182
aI63
aI19
aI12
aI40
aI183
aI119
aI17
aI15
aI35
aI137
aI150
aI63
aI14
aI10
aI17
aI9
aI10
aI21
aI12
aI59
aI105
aI49
aI21
aI11
aI11
aI13
aI8
aI31
aI24
aI24
aI16
aI167
aI10
aI63
aI12
aI27
aI23
aI86
aI45
aI60
aI47
aI28
aI71
aI42
aI10
aI47
aI23
aI21
aI26
aI39
aI34
aI21
aI38
aI107
aI20
aI25
aI176
aI59
aI12
aI20
aI72
aI19
aI73
aI29
aI107
aI12
aI23
aI43
aI17
aI25
aI14
aI21
aI235
aI15
aI16
aI14
aI44
aI205
aI22
aI21
aI53
aI19
aI15
aI48
aI18
aI18
aI53
aI20
aI13
aI118
aI31
aI16
aI17
aI12
aI11
aI14
aI27
aI17
aI86
aI92
aI47
aI23
aI21
aI30
aI16
aI84
aI33
aI23
aI21
aI50
aI11
aI46
aI12
aI18
aI15
aI15
aI20
aI20
aI21
aI12
aI95
aI78
aI18
aI15
aI65
aI37
aI19
aI29
aI35
aI61
aI72
aI47
aI81
aI16
aI23
aI20
aI191
aI43
aI77
aI105
aI34
aI72
aI36
aI33
aI110
aI112
aI41
aI10
aI13
aI45
aI233
aI35
aI127
aI17
aI16
aI152
aI19
aI85
aI39
aI18
aI26
aI30
aI16
aI45
aI111
aI31
aI21
aI16
aI16
aI32
aI29
aI17
aI17
aI16
aI14
aI10
aI29
aI13
aI94
aI49
aI22
aI40
aI44
aI29
aI42
aI37
aI76
aI43
aI23
aI11
aI11
aI11
aI14
aI13
aI38
aI16
aI12
aI107
aI26
aI19
aI113
aI279
aI44
aI45
aI20
aI11
aI23
aI33
aI36
aI56
aI61
aI13
aI102
aI24
aI114
aI22
aI300
aI69
aI29
aI30
aI17
aI278
aI19
aI42
aI127
aI145
aI18
aI271
aI38
aI22
aI100
aI47
aI273
aI75
aI38
aI16
aI84
aI99
aI77
aI23
aI15
aI21
aI116
aI63
aI20
aI63
aI44
aI19
aI9
aI31
aI38
aI29
asS'num_nodes'
p7
(lp8
I180
aI107
aI128
aI68
aI129
aI56
aI396
aI216
aI354
aI435
aI80
aI884
aI25
aI340
aI31
aI17
aI652
aI29
aI226
aI8
aI21
aI155
aI106
aI128
aI152
aI84
aI288
aI130
aI484
aI135
aI37
aI479
aI8
aI95
aI138
aI45
aI51
aI88
aI153
aI34
aI44
aI213
aI34
aI322
aI20
aI324
aI202
aI14
aI128
aI15
aI209
aI158
aI44
aI615
aI153
aI243
aI770
aI63
aI243
aI166
aI257
aI162
aI102
aI91
aI93
aI802
aI334
aI242
aI461
aI142
aI33
aI207
aI30
aI65
aI25
aI9
aI258
aI204
aI25
aI52
aI42
aI12
aI841
aI177
aI55
aI35
aI98
aI1113
aI140
aI42
aI23
aI110
aI45
aI354
aI466
aI38
aI161
aI22
aI22
aI167
aI127
aI14
aI207
aI273
aI79
aI348
aI34
aI364
aI142
aI117
aI67
aI816
aI10
aI87
aI97
aI232
aI242
aI40
aI126
aI417
aI15
aI40
aI367
aI256
aI15
aI78
aI28
aI40
aI55
aI88
aI121
aI25
aI11
aI97
aI41
aI173
aI70
aI613
aI542
aI32
aI169
aI148
aI34
aI164
aI89
aI266
aI37
aI735
aI29
aI25
aI19
aI203
aI64
aI62
aI45
aI488
aI35
aI72
aI299
aI45
aI28
aI16
aI153
aI319
aI135
aI153
aI22
aI125
aI164
aI289
aI73
aI71
aI310
aI263
aI304
aI135
aI121
aI24
aI144
aI37
aI39
aI18
aI18
aI177
aI97
aI106
aI994
aI57
aI121
aI19
aI355
aI60
aI83
aI17
aI411
aI108
aI38
aI193
aI13
aI38
aI181
aI26
aI40
aI37
aI51
aI725
aI131
aI40
aI379
aI294
aI303
aI193
aI150
aI245
aI57
aI116
aI262
aI27
aI194
aI607
aI99
aI127
aI37
aI22
aI98
aI30
aI159
aI157
aI50
aI18
aI125
aI27
aI23
aI944
aI53
aI13
aI92
aI33
aI69
aI187
aI121
aI930
aI93
aI16
aI717
aI946
aI12
aI294
aI146
aI661
aI45
aI93
aI205
aI202
aI67
aI98
aI120
aI68
aI99
aI230
aI387
aI863
aI334
aI13
aI130
aI273
aI71
aI59
aI31
aI511
aI60
aI50
aI33
aI185
aI397
aI309
aI15
aI171
aI252
aI82
aI287
aI44
aI15
aI412
aI41
aI89
aI731
aI83
aI112
aI537
aI173
aI77
aI108
aI74
aI38
aI58
aI737
aI36
aI79
aI95
aI85
aI204
aI375
aI30
aI49
aI2307
aI492
aI354
aI172
aI125
aI62
aI65
aI310
aI158
aI108
aI38
aI78
aI180
aI23
aI40
aI257
aI344
aI533
aI194
aI535
aI47
aI639
aI255
aI292
aI473
aI135
aI114
aI91
aI467
aI26
aI106
aI45
aI297
aI95
aI138
aI89
aI861
aI165
aI51
aI42
aI221
aI22
aI152
aI36
aI92
aI53
aI34
aI23
aI21
aI34
aI650
aI897
aI236
aI84
aI203
aI514
aI66
aI39
aI80
aI80
aI16
aI222
aI249
aI188
aI135
aI136
aI547
aI115
aI340
aI195
aI391
aI87
aI38
aI77
aI333
aI171
aI35
aI128
aI475
aI49
aI74
aI131
aI65
aI37
aI121
aI138
aI219
aI275
aI404
aI39
aI79
aI246
aI79
aI666
aI86
aI24
aI41
aI140
aI25
aI213
aI346
aI158
aI83
aI138
aI514
aI492
aI129
aI71
aI115
aI109
aI36
aI131
aI94
aI11
aI30
aI25
aI67
aI76
aI140
aI131
aI114
aI12
aI30
aI39
aI417
aI251
aI81
aI378
aI313
aI10
aI231
aI273
aI44
aI106
aI549
aI8
aI114
aI399
aI42
aI1194
aI744
aI336
aI127
aI356
aI782
aI329
aI232
aI259
aI17
aI18
aI66
aI24
aI343
aI85
aI247
aI154
aI235
aI130
aI234
aI63
aI83
aI204
aI12
aI511
aI82
aI634
aI27
aI195
aI49
aI26
aI370
aI118
aI81
aI74
aI188
aI132
aI28
aI190
aI224
aI474
aI85
aI99
aI153
aI234
aI32
aI101
aI82
aI370
aI193
aI295
aI34
aI99
aI188
aI232
aI414
aI1173
aI1157
aI81
aI266
aI1127
aI503
aI51
aI144
aI97
aI55
aI86
aI110
aI73
aI368
aI201
aI25
aI193
aI21
aI43
aI188
aI56
aI25
aI144
aI325
aI50
aI282
aI151
aI76
aI47
aI762
aI477
aI202
aI41
aI401
aI232
aI102
aI75
aI133
aI109
aI103
aI11
aI144
aI416
aI58
aI39
aI23
aI62
aI92
aI166
aI348
aI892
aI63
aI161
aI152
aI476
aI80
aI246
aI436
aI332
aI39
aI606
aI172
aI125
aI93
aI1195
aI890
aI225
aI103
aI71
aI226
aI49
aI263
aI36
aI106
aI487
aI24
aI95
aI98
aI24
aI68
aI81
aI51
aI26
aI104
aI114
aI100
aI325
aI197
aI44
aI42
aI12
aI140
aI64
aI213
aI135
aI35
aI175
aI154
aI258
aI68
aI193
aI1130
aI186
aI58
aI116
aI107
aI102
aI97
aI75
aI533
aI209
aI34
aI237
aI49
aI29
aI109
aI73
aI128
aI208
aI213
aI38
aI106
aI161
aI186
aI150
aI51
aI49
aI28
aI43
aI40
aI205
aI264
aI197
aI343
aI295
aI28
aI93
aI393
aI267
aI87
aI79
aI66
aI35
aI30
aI55
aI46
aI39
aI42
aI53
aI29
aI138
aI20
aI25
aI12
aI123
aI104
aI26
aI94
aI81
aI17
aI657
aI129
aI42
aI104
aI1004
aI505
aI154
aI26
aI547
aI454
aI290
aI44
aI69
aI1134
aI481
aI80
aI253
aI71
aI320
aI41
aI178
aI265
aI20
aI206
aI89
aI210
aI30
aI220
aI63
aI280
aI19
aI49
aI157
aI39
aI382
aI143
aI151
aI74
aI138
aI111
aI81
aI146
aI1220
aI122
aI248
aI98
aI29
aI61
aI285
aI82
aI60
aI66
aI118
aI388
aI170
aI453
aI298
aI78
aI320
aI524
aI571
aI379
aI65
aI373
aI566
aI153
aI100
aI34
aI86
aI115
aI1076
aI290
aI71
aI79
aI180
aI88
aI141
aI29
aI391
aI168
aI48
aI118
aI165
aI659
aI47
aI217
aI96
aI38
aI14
aI58
aI657
aI469
aI63
aI25
aI101
aI21
aI17
aI72
aI74
aI63
aI1134
aI313
aI889
aI448
aI205
aI48
aI114
aI82
aI491
aI99
aI15
aI13
aI29
aI344
aI115
aI35
aI173
aI127
aI106
aI1010
aI121
aI145
aI22
aI1046
aI9
aI18
aI17
aI72
aI43
aI48
aI158
aI222
aI493
aI53
aI41
aI33
aI19
aI1220
aI1130
aI220
aI189
aI404
aI46
aI418
aI203
aI125
aI32
aI70
aI372
aI145
aI24
aI114
aI173
aI173
aI22
aI44
aI45
aI141
aI97
aI84
aI135
aI63
aI162
aI25
aI202
aI175
aI50
aI55
aI402
aI126
aI170
aI435
aI84
aI54
aI10
aI32
aI55
aI393
aI9
aI33
aI275
aI65
aI45
aI182
aI163
aI16
aI30
aI32
aI25
aI259
aI27
aI26
aI38
aI87
aI145
aI163
aI100
aI14
aI117
aI95
aI361
aI290
aI205
aI224
aI627
aI44
aI9
aI21
aI159
aI221
aI67
aI103
aI87
aI59
aI68
aI570
aI195
aI216
aI58
aI247
aI55
aI21
aI84
aI43
aI170
aI58
aI235
aI47
aI220
aI10
aI106
aI215
aI14
aI412
aI1028
aI153
aI71
aI367
aI208
aI34
aI41
aI1017
aI74
aI213
aI271
aI150
aI266
aI112
aI54
aI195
aI198
aI64
aI32
aI84
aI135
aI45
aI935
aI37
aI138
aI696
aI110
aI42
aI637
aI226
aI308
aI22
aI161
aI186
aI38
aI13
aI117
aI108
aI158
aI82
aI103
aI221
aI1057
aI78
aI109
aI194
aI61
aI191
aI223
aI268
aI32
aI31
aI189
aI233
aI110
aI261
aI77
aI619
aI64
aI375
aI117
aI488
aI88
aI171
aI14
aI335
aI614
aI81
aI20
aI10
aI54
aI11
aI40
aI522
aI347
aI123
aI68
aI73
aI67
aI47
aI8
aI17
aI364
aI102
aI299
aI110
aI345
aI368
aI1004
aI63
aI275
aI46
aI86
aI348
aI19
aI10
aI92
aI15
aI171
aI74
aI100
aI308
aI75
aI106
aI115
aI64
aI71
aI82
aI49
aI66
aI65
aI90
aI41
aI144
aI160
aI64
aI17
aI94
aI105
aI61
aI106
aI932
aI133
aI139
aI59
aI29
aI181
aI127
aI76
aI495
aI394
aI552
aI62
aI15
aI151
aI62
aI192
aI119
aI119
aI387
aI78
aI190
aI28
aI408
aI417
aI52
aI39
aI64
aI686
aI238
aI27
aI86
aI50
aI17
aI1079
aI130
aI59
aI351
aI13
aI8
aI27
aI33
aI514
aI13
aI75
aI76
aI86
aI16
aI560
aI38
aI26
aI148
aI105
aI580
aI50
aI88
aI95
aI153
aI32
aI52
aI211
aI82
aI72
aI179
aI386
aI136
aI51
aI23
aI27
aI45
aI32
aI411
aI294
aI91
aI52
aI56
aI57
aI126
aI12
aI67
aI513
aI14
aI311
aI442
aI227
aI218
aI605
aI485
aI53
aI1187
aI9
aI298
aI287
aI65
aI193
aI26
aI363
aI140
aI1019
aI17
aI42
aI41
aI115
aI61
aI16
aI124
aI111
aI20
aI331
aI54
aI275
aI554
aI496
aI188
aI79
aI116
aI57
aI38
aI62
aI30
aI233
aI220
aI77
aI250
aI153
aI10
aI43
aI116
aI63
aI613
aI110
aI51
aI48
aI93
aI64
aI360
aI159
aI68
aI103
aI170
aI34
aI37
aI200
aI252
aI507
aI325
aI88
aI53
aI1200
aI15
aI118
aI142
aI225
aI124
aI615
aI301
aI471
aI434
aI36
aI202
aI382
aI34
aI34
aI163
aI108
aI73
aI185
aI38
aI624
aI217
aI364
aI848
aI79
aI426
aI513
aI81
aI12
aI273
aI124
aI301
aI31
aI162
aI85
aI67
aI147
aI143
aI54
aI261
aI16
aI149
aI68
aI38
aI274
aI562
aI101
aI325
aI961
aI97
aI89
aI37
aI386
aI420
aI53
aI79
aI80
aI70
aI71
aI34
aI56
aI540
aI96
aI27
aI53
aI60
aI402
aI224
aI23
aI26
aI35
aI368
aI104
aI104
aI21
aI99
aI395
aI332
aI29
aI35
aI81
aI263
aI318
aI129
aI936
aI74
aI12
aI44
aI11
aI27
aI181
aI20
aI349
aI358
aI163
aI56
aI12
aI24
aI36
aI9
aI142
aI248
aI35
aI61
aI447
aI12
aI228
aI48
aI48
aI142
aI372
aI201
aI138
aI126
aI44
aI575
aI281
aI17
aI132
aI43
aI69
aI67
aI171
aI254
aI86
aI127
aI254
aI106
aI91
aI504
aI335
aI59
aI105
aI241
aI70
aI198
aI73
aI283
aI37
aI98
aI120
aI24
aI132
aI27
aI85
aI395
aI55
aI26
aI22
aI257
aI284
aI67
aI104
aI96
aI51
aI1193
aI47
aI108
aI27
aI130
aI267
aI98
aI34
aI203
aI269
aI31
aI87
aI31
aI21
aI100
aI241
aI61
aI290
aI520
aI126
aI51
aI90
aI151
aI31
aI312
aI108
aI40
aI1053
aI59
aI134
aI14
aI143
aI19
aI183
aI1013
aI98
aI30
aI53
aI56
aI48
aI16
aI205
aI292
aI119
aI35
aI160
aI144
aI105
aI176
aI78
aI133
aI168
aI136
aI234
aI56
aI79
aI88
aI700
aI99
aI303
aI302
aI105
aI222
aI179
aI96
aI441
aI698
aI185
aI15
aI50
aI130
aI829
aI103
aI492
aI46
aI37
aI832
aI88
aI138
aI68
aI84
aI158
aI198
aI71
aI111
aI456
aI91
aI111
aI66
aI34
aI126
aI142
aI770
aI59
aI56
aI28
aI18
aI207
aI19
aI382
aI189
aI59
aI102
aI150
aI101
aI162
aI923
aI195
aI136
aI275
aI33
aI872
aI15
aI17
aI27
aI88
aI51
aI122
aI105
aI21
aI459
aI73
aI60
aI267
aI769
aI220
aI75
aI67
aI14
aI118
aI232
aI126
aI139
aI143
aI22
aI366
aI44
aI256
aI152
aI858
aI678
aI65
aI115
aI28
aI755
aI51
aI136
aI348
aI296
aI149
aI1050
aI119
aI81
aI183
aI148
aI563
aI187
aI204
aI22
aI357
aI363
aI373
aI120
aI102
aI63
aI1139
aI181
aI64
aI362
aI309
aI78
aI11
aI177
aI134
aI66
asS'times'
p9
(lp10
F351.8755991458893
aF249.4766731262207
aF394.6280539035797
aF154.0866298675537
aF381.29377698898315
aF131.08953595161438
aF975.8622071743011
aF423.9262640476227
aF715.7017719745636
aF721.2448649406433
aF168.49945402145386
aF2404.6140971183777
aF75.74118494987488
aF779.668378829956
aF99.36149096488953
aF61.266010999679565
aF1602.289579153061
aF86.33378005027771
aF367.32205605506897
aF47.46647095680237
aF72.28422093391418
aF349.1791660785675
aF269.9703571796417
aF254.85603499412537
aF298.2966032028198
aF148.34517407417297
aF541.1547200679779
aF188.37373685836792
aF842.620274066925
aF223.44709396362305
aF161.0122299194336
aF964.5975060462952
aF49.77865290641785
aF265.7640130519867
aF220.45460104942322
aF134.46798396110535
aF110.30725812911987
aF260.622887134552
aF346.89925503730774
aF120.52386498451233
aF131.3719630241394
aF412.34514904022217
aF90.69293093681335
aF620.10640001297
aF75.54601693153381
aF483.8976559638977
aF479.8099799156189
aF57.67792296409607
aF319.9548921585083
aF71.02098298072815
aF376.5269260406494
aF297.04211592674255
aF91.74873399734497
aF1225.9314169883728
aF284.07665395736694
aF587.2740399837494
aF1603.7340278625488
aF153.01689910888672
aF517.9967439174652
aF331.0910987854004
aF393.4530930519104
aF289.24229097366333
aF166.81611394882202
aF200.98752808570862
aF248.59959816932678
aF1758.5799098014832
aF958.3158140182495
aF645.6460058689117
aF1179.6942629814148
aF294.4581859111786
aF84.88113284111023
aF434.83233094215393
aF91.8146619796753
aF155.21727895736694
aF96.83460521697998
aF58.451693058013916
aF527.351842880249
aF294.3347339630127
aF113.9880678653717
aF144.07958388328552
aF95.66187310218811
aF49.69545912742615
aF2249.530580997467
aF305.9095618724823
aF192.01604390144348
aF97.26245713233948
aF277.31951999664307
aF2402.794610977173
aF348.7752478122711
aF101.1541359424591
aF82.96010494232178
aF297.6559340953827
aF105.08793497085571
aF492.1457531452179
aF1617.264358997345
aF92.67668604850769
aF345.12748193740845
aF78.20567107200623
aF92.49727487564087
aF333.83122515678406
aF342.8893449306488
aF66.85007381439209
aF325.93242502212524
aF655.0949358940125
aF154.11692094802856
aF1180.233678817749
aF94.58533906936646
aF632.6345279216766
aF321.0071589946747
aF261.0859589576721
aF136.83085107803345
aF1952.3804728984833
aF55.32558298110962
aF176.35387802124023
aF204.70873498916626
aF501.82855916023254
aF642.7620339393616
aF139.75862216949463
aF246.30305695533752
aF702.3882119655609
aF50.220613956451416
aF134.58886694908142
aF868.5278580188751
aF730.490152835846
aF68.84478998184204
aF195.12743520736694
aF102.55971193313599
aF104.42215585708618
aF106.67116808891296
aF199.5722370147705
aF279.10024404525757
aF83.22682404518127
aF57.20091915130615
aF256.3388910293579
aF108.60135889053345
aF327.63632702827454
aF209.88184094429016
aF1950.9905588626862
aF1441.6711280345917
aF87.29274296760559
aF445.8367338180542
aF495.100270986557
aF117.20745992660522
aF251.85043001174927
aF183.00943613052368
aF482.44188499450684
aF150.6261281967163
aF577.5981631278992
aF97.18038201332092
aF95.91461992263794
aF80.81013488769531
aF356.40491795539856
aF163.36590600013733
aF168.23947405815125
aF104.03587889671326
aF453.7306318283081
aF83.12047600746155
aF177.34504890441895
aF678.1418330669403
aF97.6589560508728
aF86.69739508628845
aF61.529834032058716
aF290.49011301994324
aF884.7699339389801
aF231.0679030418396
aF266.559828042984
aF75.53814721107483
aF286.7630081176758
aF321.4240801334381
aF574.2840440273285
aF146.55672693252563
aF172.87294387817383
aF625.871465921402
aF655.7178399562836
aF499.5505270957947
aF347.6694781780243
aF283.53432393074036
aF78.64427995681763
aF518.3368740081787
aF93.97687196731567
aF95.63590788841248
aF78.57439804077148
aF74.9192099571228
aF280.47192096710205
aF258.59403586387634
aF232.88367199897766
aF2400.5357718467712
aF151.4353129863739
aF285.55913281440735
aF69.38163900375366
aF573.1460180282593
aF213.9919581413269
aF260.0254170894623
aF72.0822639465332
aF937.0187840461731
aF184.58627605438232
aF82.2688341140747
aF524.8718330860138
aF87.91705513000488
aF111.39686489105225
aF454.78169798851013
aF81.32605504989624
aF120.77056097984314
aF111.54207611083984
aF152.64191198349
aF1366.4696199893951
aF280.9244689941406
aF99.07254600524902
aF1003.1245918273926
aF615.3155360221863
aF611.598503112793
aF377.3279399871826
aF269.5686740875244
aF423.01691007614136
aF116.03495597839355
aF256.3150038719177
aF470.2017560005188
aF76.32009291648865
aF378.9557189941406
aF1362.4078059196472
aF239.2256999015808
aF218.6383650302887
aF88.02656102180481
aF83.81207203865051
aF190.31937885284424
aF79.6729781627655
aF446.92800402641296
aF350.16287088394165
aF140.94090700149536
aF68.83451700210571
aF364.7073860168457
aF128.9022171497345
aF96.42616391181946
aF2400.6622262001038
aF148.07572293281555
aF61.225301027297974
aF219.3111732006073
aF88.60571098327637
aF186.6065661907196
aF279.7837779521942
aF252.82825589179993
aF1903.3139808177948
aF239.63285398483276
aF70.90133905410767
aF1336.0623648166656
aF2222.5047590732574
aF51.5168890953064
aF510.1498761177063
aF268.49751591682434
aF1080.9582509994507
aF92.88312911987305
aF275.1148900985718
aF460.1031930446625
aF251.21490001678467
aF126.61426997184753
aF154.34440088272095
aF330.96989583969116
aF121.68621492385864
aF210.28973197937012
aF685.5105650424957
aF958.0763411521912
aF2097.7910001277924
aF637.0094351768494
aF76.11079502105713
aF281.94906401634216
aF759.2070369720459
aF175.590922832489
aF197.05550384521484
aF80.51370787620544
aF370.026957988739
aF170.35308980941772
aF157.23152899742126
aF93.94192600250244
aF314.691143989563
aF1062.6833181381226
aF486.8347861766815
aF89.8926169872284
aF292.64325404167175
aF386.4662277698517
aF189.55134415626526
aF738.9892070293427
aF105.71549701690674
aF74.04532098770142
aF809.1312239170074
aF115.68636894226074
aF280.36713004112244
aF2047.2792129516602
aF189.21005296707153
aF268.8747968673706
aF1136.608785867691
aF418.75198101997375
aF155.94257712364197
aF307.5881989002228
aF163.6678819656372
aF144.06700992584229
aF134.1404731273651
aF2403.519021987915
aF100.59509491920471
aF163.33451890945435
aF241.30095291137695
aF182.49091815948486
aF485.641578912735
aF400.2579538822174
aF91.13514518737793
aF96.86372113227844
aF2401.1416029930115
aF1633.5100688934326
aF816.2303681373596
aF560.7595970630646
aF163.25468492507935
aF114.07922506332397
aF160.42879986763
aF772.1692039966583
aF324.6017758846283
aF195.0445098876953
aF109.52917885780334
aF134.0543830394745
aF585.8619830608368
aF75.51111197471619
aF104.3865258693695
aF516.3906149864197
aF908.3872859477997
aF1218.2806520462036
aF359.0217938423157
aF1374.8675470352173
aF90.48695397377014
aF1005.7497169971466
aF725.6884579658508
aF438.72695684432983
aF1395.7234680652618
aF285.77554512023926
aF217.75511384010315
aF189.7840120792389
aF954.4191660881042
aF102.9920449256897
aF159.7491910457611
aF137.39279007911682
aF699.3700079917908
aF275.0912039279938
aF249.0648810863495
aF201.1825041770935
aF1863.6757481098175
aF235.59957003593445
aF104.4379198551178
aF131.9503309726715
aF342.08324694633484
aF84.69667601585388
aF237.81629586219788
aF96.86703586578369
aF186.79013109207153
aF122.96153807640076
aF86.9554431438446
aF91.25310015678406
aF97.31475806236267
aF124.93653011322021
aF1426.6870698928833
aF2376.219117164612
aF686.3252160549164
aF157.69910717010498
aF337.44767689704895
aF1225.3110308647156
aF147.93933081626892
aF111.98330497741699
aF124.23977780342102
aF132.70682001113892
aF75.1230161190033
aF456.869588136673
aF474.95963406562805
aF487.0014898777008
aF373.0278859138489
aF364.3895049095154
aF1979.955675125122
aF272.4593460559845
aF720.4192628860474
aF554.7594699859619
aF875.270467042923
aF307.6266601085663
aF148.31535291671753
aF215.708753824234
aF564.7237348556519
aF449.91379499435425
aF95.69379806518555
aF377.1224060058594
aF937.9273869991302
aF131.7380120754242
aF166.51182413101196
aF278.5956530570984
aF115.39839601516724
aF105.97400712966919
aF238.92193913459778
aF344.06540608406067
aF417.45287704467773
aF543.5619010925293
aF769.5383479595184
aF103.2382378578186
aF183.12699484825134
aF529.1468091011047
aF123.20749306678772
aF1863.8609111309052
aF147.5862021446228
aF105.10121488571167
aF128.7861270904541
aF268.15000200271606
aF105.36660695075989
aF343.74048614501953
aF689.2832980155945
aF497.6695110797882
aF200.3346929550171
aF324.82007694244385
aF1112.3846669197083
aF1323.1367077827454
aF325.8437399864197
aF176.46455693244934
aF209.73162388801575
aF201.56609988212585
aF120.59035396575928
aF232.01074695587158
aF188.16484904289246
aF59.938740968704224
aF101.09105610847473
aF161.40118598937988
aF147.55859994888306
aF167.3207950592041
aF310.8094801902771
aF343.8941740989685
aF373.7677409648895
aF59.395979166030884
aF78.10129714012146
aF95.7377200126648
aF912.2010419368744
aF628.0441689491272
aF173.40848898887634
aF628.6645081043243
aF654.1441490650177
aF64.09891486167908
aF521.9299900531769
aF572.030818939209
aF100.33598494529724
aF165.31503295898438
aF1188.994630098343
aF54.16348695755005
aF203.59166407585144
aF647.4975788593292
aF130.57498908042908
aF2401.5463161468506
aF1303.3898379802704
aF878.1562521457672
aF245.5590500831604
aF751.4317378997803
aF1490.7400691509247
aF531.6666860580444
aF693.415314912796
aF536.1380920410156
aF74.62064290046692
aF65.3171329498291
aF143.7152738571167
aF94.63207578659058
aF652.5958051681519
aF257.87575697898865
aF549.2020928859711
aF497.26328587532043
aF490.43621301651
aF351.59295988082886
aF513.5725319385529
aF121.17069888114929
aF133.33815598487854
aF319.0091300010681
aF58.26280498504639
aF397.6206500530243
aF233.7413558959961
aF947.3688349723816
aF86.99410605430603
aF544.4021339416504
aF135.4472301006317
aF86.43871998786926
aF759.4913249015808
aF209.2206699848175
aF213.0715639591217
aF183.9489779472351
aF416.6591351032257
aF230.5813729763031
aF100.5835509300232
aF651.0539410114288
aF522.1724328994751
aF1213.3997540473938
aF155.16310095787048
aF238.20198011398315
aF275.96067905426025
aF741.5475490093231
aF84.56130290031433
aF314.6264350414276
aF184.43711304664612
aF969.3544919490814
aF322.1937098503113
aF695.0291318893433
aF96.38042712211609
aF196.7151780128479
aF304.7217879295349
aF558.7263920307159
aF797.6558339595795
aF2402.0733258724213
aF2401.8047189712524
aF155.87276983261108
aF622.7433490753174
aF2400.4216480255127
aF1227.059557914734
aF107.439768075943
aF278.0882201194763
aF218.47153496742249
aF169.0258469581604
aF203.31292295455933
aF225.75559401512146
aF227.1965789794922
aF659.1797461509705
aF424.13141202926636
aF100.73952889442444
aF475.7029139995575
aF81.59548592567444
aF89.34378600120544
aF369.6603510379791
aF148.59558296203613
aF70.04791688919067
aF365.5247468948364
aF491.4823200702667
aF100.58805394172668
aF531.9918360710144
aF416.303071975708
aF127.75480079650879
aF138.2128131389618
aF1675.8655290603638
aF934.5540909767151
aF375.26533699035645
aF137.47475409507751
aF759.6601238250732
aF381.76802706718445
aF274.69937205314636
aF143.75344514846802
aF240.04962611198425
aF171.4814121723175
aF213.08132481575012
aF51.7408561706543
aF303.3753750324249
aF983.9793758392334
aF129.471431016922
aF142.20209288597107
aF78.04073309898376
aF186.97294902801514
aF326.2931778430939
aF332.01971888542175
aF616.7668311595917
aF2404.5244719982147
aF274.9011330604553
aF250.24808502197266
aF323.45128202438354
aF837.5850710868835
aF138.10559511184692
aF484.1477448940277
aF1059.720754146576
aF1136.447702884674
aF117.86894011497498
aF1744.1985080242157
aF323.8042058944702
aF328.74703788757324
aF185.75116205215454
aF2401.742875099182
aF2402.2061319351196
aF465.90761518478394
aF280.91959595680237
aF158.2656750679016
aF482.2278518676758
aF122.41993880271912
aF620.920184135437
aF93.73801803588867
aF274.24183893203735
aF613.7786469459534
aF96.20594215393066
aF153.83044290542603
aF218.98881793022156
aF74.38114094734192
aF163.8306691646576
aF147.20135021209717
aF96.13600897789001
aF92.88179206848145
aF201.71027302742004
aF212.20242595672607
aF293.71999287605286
aF906.0850229263306
aF405.50571298599243
aF120.57404208183289
aF93.41337299346924
aF73.16868209838867
aF341.17442893981934
aF168.92884612083435
aF554.8161749839783
aF315.016578912735
aF89.43963193893433
aF486.44028306007385
aF319.1596100330353
aF447.0625960826874
aF143.99520611763
aF414.01232409477234
aF2401.0068209171295
aF556.1614689826965
aF149.6371328830719
aF357.5149748325348
aF227.12010192871094
aF163.30777502059937
aF124.95521211624146
aF131.02409505844116
aF1282.7772951126099
aF192.1482059955597
aF90.68376398086548
aF439.08260107040405
aF106.84506702423096
aF82.70826315879822
aF213.1120891571045
aF162.36525583267212
aF325.82121205329895
aF382.79297614097595
aF405.3912229537964
aF120.16607713699341
aF289.030485868454
aF354.0180399417877
aF478.49042201042175
aF283.0947849750519
aF135.71723699569702
aF96.32186794281006
aF108.14276814460754
aF101.98596382141113
aF115.95159387588501
aF479.61603307724
aF631.9970669746399
aF470.8993878364563
aF969.164785861969
aF606.2587687969208
aF95.96748304367065
aF183.52433109283447
aF723.5467720031738
aF697.9136788845062
aF179.58890295028687
aF198.49273204803467
aF156.37873601913452
aF116.51916599273682
aF83.84763097763062
aF123.09238386154175
aF123.8504900932312
aF115.72876501083374
aF135.42695903778076
aF141.76680898666382
aF102.31402516365051
aF263.3774530887604
aF100.2217161655426
aF112.85750484466553
aF91.9441990852356
aF210.67929911613464
aF214.91912293434143
aF96.09298992156982
aF172.96894693374634
aF139.94788599014282
aF58.772355794906616
aF2241.9170711040497
aF210.40238881111145
aF95.347971200943
aF219.5413248538971
aF2402.276272058487
aF1272.0481281280518
aF304.9957628250122
aF83.98825716972351
aF990.868570804596
aF1348.35897397995
aF481.03006887435913
aF131.9070200920105
aF120.7346818447113
aF2155.973813056946
aF1003.8984751701355
aF199.37025117874146
aF520.5251879692078
aF182.72163891792297
aF630.8850648403168
aF102.65971302986145
aF281.29343914985657
aF490.88994097709656
aF75.42810702323914
aF331.03166794776917
aF191.60251593589783
aF430.1515591144562
aF82.83212685585022
aF412.8685209751129
aF165.45626592636108
aF709.6078300476074
aF60.60876989364624
aF111.23361206054688
aF303.72013783454895
aF86.95497989654541
aF750.2890911102295
aF218.53938388824463
aF349.42772698402405
aF175.87273597717285
aF339.95005893707275
aF233.92837405204773
aF173.5006718635559
aF250.009094953537
aF2401.5977170467377
aF220.56194806098938
aF496.15751004219055
aF196.0934660434723
aF85.53275394439697
aF163.50102496147156
aF617.8785891532898
aF150.731693983078
aF171.8833088874817
aF115.01254200935364
aF192.3866810798645
aF1036.0342619419098
aF456.6009249687195
aF973.158035993576
aF350.33297896385193
aF168.11307907104492
aF765.7429320812225
aF1579.7129769325256
aF1775.023682832718
aF1117.3980889320374
aF112.442626953125
aF852.7980539798737
aF1289.8819110393524
aF285.04483795166016
aF187.74375891685486
aF84.9439480304718
aF173.885192155838
aF217.23343110084534
aF2403.1725401878357
aF422.55192494392395
aF133.76898384094238
aF184.21086883544922
aF302.0872600078583
aF153.53508710861206
aF469.0880038738251
aF116.30105996131897
aF844.7928369045258
aF316.69596910476685
aF157.22992610931396
aF341.08147501945496
aF477.2395260334015
aF1609.5454788208008
aF135.04764199256897
aF496.93324398994446
aF196.4808177947998
aF101.46418380737305
aF81.80867099761963
aF151.95132088661194
aF992.3123459815979
aF1888.0960500240326
aF184.40274500846863
aF102.23458790779114
aF172.62010097503662
aF80.05423593521118
aF67.99104380607605
aF158.545480966568
aF126.4788179397583
aF175.35610103607178
aF2400.8215358257294
aF588.4145829677582
aF2225.335317850113
aF1327.1841230392456
aF496.85029578208923
aF122.36060309410095
aF265.33934807777405
aF221.85156679153442
aF773.6688590049744
aF234.87334299087524
aF69.28990292549133
aF64.42108798027039
aF109.64916586875916
aF970.9814610481262
aF261.24843096733093
aF115.66765117645264
aF412.62445402145386
aF222.0910999774933
aF216.34435391426086
aF2400.927654027939
aF235.6150050163269
aF275.61696195602417
aF63.01875305175781
aF2402.3672380447388
aF45.0235710144043
aF63.24269986152649
aF80.0848331451416
aF194.13052892684937
aF101.41723680496216
aF95.26042413711548
aF324.8547248840332
aF491.6708719730377
aF1388.3792581558228
aF116.44217491149902
aF126.97630500793457
aF80.2747209072113
aF75.41515803337097
aF2401.636123895645
aF2400.8620109558105
aF489.98851108551025
aF469.22003507614136
aF725.7880189418793
aF153.01035499572754
aF1048.1313481330872
aF511.1783239841461
aF227.34925198554993
aF95.02091383934021
aF166.93258380889893
aF703.9461250305176
aF394.2987220287323
aF74.26179003715515
aF306.2046399116516
aF589.5858092308044
aF323.6986708641052
aF62.63358688354492
aF115.75048899650574
aF105.01367902755737
aF221.60482501983643
aF170.01979994773865
aF204.75715398788452
aF250.5964870452881
aF126.77193284034729
aF254.64553785324097
aF106.53600311279297
aF543.2032380104065
aF415.7409391403198
aF158.34638500213623
aF159.19693398475647
aF1076.774631023407
aF238.05362582206726
aF412.3318519592285
aF1101.0368740558624
aF163.34383702278137
aF211.0760509967804
aF50.909976959228516
aF101.8194751739502
aF142.87994384765625
aF1168.664608001709
aF56.72512698173523
aF81.52187204360962
aF801.8199031352997
aF179.258159160614
aF151.85474801063538
aF385.7500641345978
aF336.88873410224915
aF71.48271894454956
aF89.99673700332642
aF83.33756613731384
aF82.9238600730896
aF476.23955607414246
aF77.94240307807922
aF66.88222479820251
aF129.30562210083008
aF145.68799710273743
aF235.89787006378174
aF297.4682950973511
aF260.62835216522217
aF62.86198711395264
aF255.2721300125122
aF225.85621690750122
aF680.9427480697632
aF901.5474209785461
aF396.2996509075165
aF392.86487197875977
aF875.0904839038849
aF128.29144287109375
aF48.08250188827515
aF89.01121306419373
aF332.62347197532654
aF522.2490200996399
aF157.66368985176086
aF168.54516696929932
aF255.4386100769043
aF137.51610207557678
aF141.4330849647522
aF1556.1187341213226
aF507.0578238964081
aF490.3655369281769
aF121.68796992301941
aF495.06495690345764
aF129.51100707054138
aF64.0600380897522
aF216.13173294067383
aF124.20833086967468
aF275.37336587905884
aF124.2273199558258
aF566.1150739192963
aF143.62957620620728
aF450.4634630680084
aF61.959636926651
aF155.60887694358826
aF389.6936068534851
aF63.29388618469238
aF717.4412758350372
aF2406.3868792057037
aF298.82552886009216
aF155.4564402103424
aF884.2487199306488
aF673.2741289138794
aF137.26483011245728
aF95.30514693260193
aF2403.1285140514374
aF204.39551401138306
aF491.28352785110474
aF456.44830799102783
aF232.61794805526733
aF584.1289460659027
aF300.61436796188354
aF109.89617204666138
aF320.6334249973297
aF366.94418501853943
aF135.82292199134827
aF84.97647786140442
aF174.15041089057922
aF296.9101459980011
aF151.7487759590149
aF2270.5551879405975
aF128.41598081588745
aF236.86094188690186
aF2106.6488559246063
aF194.34124994277954
aF123.01002621650696
aF840.0795431137085
aF574.1395328044891
aF407.22426891326904
aF95.28705191612244
aF369.88849115371704
aF489.4168360233307
aF106.25419402122498
aF67.56564092636108
aF310.8194091320038
aF317.353924036026
aF514.8470289707184
aF201.37308812141418
aF189.72211909294128
aF306.8818199634552
aF2401.8176250457764
aF180.71401190757751
aF243.46562790870667
aF369.03565406799316
aF151.02518486976624
aF366.69463205337524
aF587.8471319675446
aF502.59702587127686
aF91.78997588157654
aF99.46306896209717
aF364.8635559082031
aF445.5157709121704
aF212.94981384277344
aF830.417417049408
aF210.15611004829407
aF1395.3134701251984
aF139.19588708877563
aF667.2941370010376
aF244.46391677856445
aF854.6929430961609
aF333.03049993515015
aF302.01688599586487
aF61.54309415817261
aF552.866240978241
aF1472.924220085144
aF244.60116910934448
aF72.31562209129333
aF45.48117804527283
aF107.52550888061523
aF54.11099100112915
aF96.78408312797546
aF904.3137009143829
aF728.0752818584442
aF244.6312711238861
aF174.2448709011078
aF184.57948899269104
aF205.47425293922424
aF119.8045449256897
aF51.28749108314514
aF70.19935512542725
aF710.7959430217743
aF236.3044741153717
aF277.04270482063293
aF212.24270677566528
aF441.4915590286255
aF708.0361919403076
aF2402.675978899002
aF137.07552909851074
aF612.3423638343811
aF108.26741886138916
aF231.78933215141296
aF565.0182030200958
aF83.15227699279785
aF50.68548798561096
aF176.4783899784088
aF74.43296885490417
aF322.7477788925171
aF190.5469319820404
aF192.5503008365631
aF652.4905169010162
aF190.80040788650513
aF235.74843502044678
aF336.8684170246124
aF161.48300194740295
aF191.16938400268555
aF172.54560899734497
aF130.69442701339722
aF168.82442212104797
aF202.87650203704834
aF238.36477088928223
aF127.88945603370667
aF637.0492491722107
aF462.9887909889221
aF171.91784596443176
aF84.29793500900269
aF222.57475900650024
aF234.8558270931244
aF155.10633301734924
aF187.6912739276886
aF1871.4134171009064
aF234.91727495193481
aF314.1463749408722
aF110.88550901412964
aF103.07136392593384
aF468.7625381946564
aF298.37932896614075
aF196.10297799110413
aF1525.9664969444275
aF923.7494480609894
aF1240.0760262012482
aF141.8313660621643
aF66.82509899139404
aF278.040087223053
aF157.49304103851318
aF322.03200602531433
aF317.0194399356842
aF291.6965010166168
aF621.6821179389954
aF193.98796486854553
aF500.2252540588379
aF94.61889791488647
aF1231.5606091022491
aF700.8077549934387
aF176.59739589691162
aF97.55550384521484
aF130.16803097724915
aF1428.5877711772919
aF386.79414916038513
aF91.14283490180969
aF224.9479730129242
aF142.5765700340271
aF57.96913003921509
aF2400.837413072586
aF280.2811288833618
aF145.78988599777222
aF756.0926690101624
aF71.16248607635498
aF44.2974488735199
aF88.95238709449768
aF88.61212992668152
aF1278.346871137619
aF66.28451681137085
aF213.6292450428009
aF231.20727705955505
aF148.59374809265137
aF72.48008394241333
aF1884.486937046051
aF100.77807378768921
aF97.07576608657837
aF300.7290699481964
aF191.62613701820374
aF1052.3572268486023
aF138.23339700698853
aF181.25707292556763
aF272.8940761089325
aF421.125461101532
aF114.00798010826111
aF168.11717295646667
aF454.6473479270935
aF139.6924970149994
aF210.39360690116882
aF310.4298138618469
aF1083.6092839241028
aF301.73483395576477
aF118.00062489509583
aF72.33126378059387
aF96.23938202857971
aF126.7502429485321
aF109.00722098350525
aF895.9116129875183
aF582.6457040309906
aF181.47972083091736
aF119.77368402481079
aF112.69511008262634
aF158.30603504180908
aF389.93511295318604
aF62.136005878448486
aF145.63755106925964
aF1132.6393220424652
aF70.21244215965271
aF484.5045790672302
aF986.3151500225067
aF385.18493700027466
aF854.4672420024872
aF1423.1476969718933
aF1406.8149180412292
aF120.86915302276611
aF2401.415260076523
aF46.664632081985474
aF749.5664999485016
aF495.15267395973206
aF109.03184103965759
aF614.4540050029755
aF92.490061044693
aF436.31029510498047
aF276.7991991043091
aF2250.0578789711
aF75.80595684051514
aF115.54755306243896
aF142.97894501686096
aF264.9367949962616
aF127.16877603530884
aF72.65327501296997
aF301.269318819046
aF175.31689405441284
aF84.38299608230591
aF1126.729866027832
aF158.7302598953247
aF876.1988070011139
aF592.4300520420074
aF981.8704748153687
aF358.23934984207153
aF203.72580099105835
aF258.399610042572
aF117.31218385696411
aF131.08035707473755
aF185.54841494560242
aF83.66280484199524
aF400.3609437942505
aF626.7630939483643
aF169.46609210968018
aF615.4871039390564
aF276.65503692626953
aF51.28078603744507
aF93.51537895202637
aF262.15176916122437
aF173.81004810333252
aF1349.3480610847473
aF197.8103768825531
aF111.0986738204956
aF134.38688015937805
aF198.29607605934143
aF120.22876191139221
aF876.0385918617249
aF303.1066720485687
aF134.36102199554443
aF202.95788192749023
aF392.79226303100586
aF93.86524319648743
aF94.9286139011383
aF452.34573221206665
aF519.5750949382782
aF737.0129840373993
aF618.8359639644623
aF131.96713018417358
aF130.61641097068787
aF2401.038818836212
aF73.8785560131073
aF299.2416160106659
aF329.18630814552307
aF393.00218987464905
aF277.40449810028076
aF1109.7570769786835
aF513.3017270565033
aF1041.997181892395
aF587.270112991333
aF86.89245891571045
aF479.84148693084717
aF1003.7861220836639
aF91.77199292182922
aF118.65640306472778
aF358.448126077652
aF259.5442020893097
aF187.82622003555298
aF270.27947998046875
aF101.4656629562378
aF1263.0904550552368
aF424.8070981502533
aF562.8873841762543
aF1751.4269170761108
aF241.72086596488953
aF1430.3736591339111
aF812.8936069011688
aF197.49454498291016
aF63.40108895301819
aF417.2840631008148
aF168.53776693344116
aF976.0840749740601
aF93.34636998176575
aF261.44176483154297
aF148.28243803977966
aF126.88596892356873
aF307.87009620666504
aF258.4448068141937
aF165.72246098518372
aF771.9815900325775
aF59.82709288597107
aF281.9664990901947
aF125.5187919139862
aF121.20529294013977
aF450.24458503723145
aF1071.32586312294
aF198.8969759941101
aF801.2782530784607
aF2025.9740030765533
aF266.9400191307068
aF265.9816401004791
aF101.54354596138
aF613.0457270145416
aF681.0709300041199
aF161.4531090259552
aF164.37817883491516
aF198.63444113731384
aF183.14429903030396
aF183.74790716171265
aF112.39269089698792
aF163.28228902816772
aF1080.0945739746094
aF209.08632493019104
aF88.34356117248535
aF121.42080903053284
aF125.63148593902588
aF986.803957939148
aF568.1042068004608
aF98.85911798477173
aF60.55668592453003
aF98.1004729270935
aF979.3196411132812
aF396.6857810020447
aF191.7593150138855
aF105.28174495697021
aF292.10633087158203
aF971.3097448348999
aF843.731055021286
aF100.75399398803711
aF100.25299596786499
aF203.85721898078918
aF843.0540587902069
aF901.4678199291229
aF402.89037108421326
aF2401.931802034378
aF138.0409290790558
aF65.23644089698792
aF118.92384099960327
aF55.27265787124634
aF73.67374300956726
aF275.4422550201416
aF73.42251706123352
aF536.9893510341644
aF820.3622460365295
aF360.88030099868774
aF151.9665150642395
aF72.49348306655884
aF104.08810520172119
aF90.86461210250854
aF43.4422550201416
aF292.62454986572266
aF308.393315076828
aF143.45364785194397
aF225.20455312728882
aF2097.9642729759216
aF89.29289102554321
aF551.3474409580231
aF104.2344880104065
aF177.80244994163513
aF225.35996413230896
aF735.7327089309692
aF367.05057191848755
aF355.71526312828064
aF280.7681498527527
aF191.08071994781494
aF922.526449918747
aF421.6799681186676
aF60.290807008743286
aF358.6554889678955
aF145.36468696594238
aF147.09940004348755
aF177.814444065094
aF320.0922088623047
aF401.98955607414246
aF176.8028440475464
aF260.2103548049927
aF682.8973739147186
aF201.19840812683105
aF207.14673590660095
aF1164.0402719974518
aF617.9673790931702
aF124.78532314300537
aF237.67463493347168
aF540.7265939712524
aF209.38366889953613
aF535.8008749485016
aF192.86569786071777
aF801.1417570114136
aF97.27480792999268
aF229.34752893447876
aF311.1559569835663
aF92.88910913467407
aF269.9489920139313
aF92.76188707351685
aF171.10467290878296
aF1424.8277180194855
aF105.7485020160675
aF94.56171798706055
aF86.49376606941223
aF457.1003620624542
aF1094.585030078888
aF151.50665497779846
aF212.52617001533508
aF342.53492498397827
aF177.44923996925354
aF2400.440371990204
aF110.33862495422363
aF268.69587779045105
aF102.58448195457458
aF223.18986296653748
aF516.1137969493866
aF199.256422996521
aF92.26939702033997
aF730.5855219364166
aF397.3787851333618
aF88.2447919845581
aF150.63251900672913
aF80.75942301750183
aF78.97590589523315
aF174.86969208717346
aF289.90051102638245
aF131.28347301483154
aF690.3890650272369
aF1097.8645169734955
aF354.13364696502686
aF210.81236600875854
aF189.9959738254547
aF308.48118805885315
aF110.98524498939514
aF630.2103519439697
aF256.60546803474426
aF132.35080003738403
aF2400.946746110916
aF127.44358921051025
aF423.1897749900818
aF83.00429391860962
aF368.0848138332367
aF69.82854104042053
aF203.2425720691681
aF2402.367469072342
aF190.1939709186554
aF152.7411630153656
aF139.47141313552856
aF143.36925601959229
aF127.4766640663147
aF63.36194205284119
aF643.6389009952545
aF699.1639921665192
aF182.45910382270813
aF97.46655893325806
aF431.28984904289246
aF308.8780257701874
aF177.24653601646423
aF279.1134731769562
aF204.60100889205933
aF370.040078163147
aF414.06307911872864
aF324.9665939807892
aF539.784754037857
aF113.87643098831177
aF212.74700593948364
aF168.9604549407959
aF1475.6374340057373
aF230.04521918296814
aF660.7516748905182
aF747.8027529716492
aF279.929505109787
aF542.9426870346069
aF333.10671305656433
aF213.0505440235138
aF905.2215340137482
aF1204.6741597652435
aF324.21496987342834
aF62.028783082962036
aF111.21648216247559
aF311.3521411418915
aF1926.6899127960205
aF210.67339611053467
aF1088.0125048160553
aF190.3165979385376
aF92.92569303512573
aF1463.686774969101
aF164.68614292144775
aF516.8567099571228
aF194.5028510093689
aF156.52000617980957
aF253.29883003234863
aF350.197900056839
aF139.9766709804535
aF296.50568103790283
aF814.5217549800873
aF228.76939821243286
aF208.85400390625
aF141.97576808929443
aF91.61815786361694
aF234.07102704048157
aF282.610454082489
aF590.9848210811615
aF125.7184829711914
aF122.3221800327301
aF89.7297511100769
aF58.6719651222229
aF350.0506999492645
aF83.08384013175964
aF863.301696062088
aF384.16757798194885
aF145.8470151424408
aF248.66318917274475
aF307.69916915893555
aF239.84139585494995
aF314.44724011421204
aF2400.99000787735
aF370.60831022262573
aF434.8645489215851
aF494.6733250617981
aF116.44524383544922
aF2404.895373106003
aF61.17115592956543
aF74.07810497283936
aF88.67408990859985
aF142.92802810668945
aF130.92153787612915
aF303.2067940235138
aF159.84698510169983
aF75.04121088981628
aF994.1497559547424
aF169.6018579006195
aF136.71851205825806
aF682.8632800579071
aF1931.1281158924103
aF452.098748922348
aF288.6558470726013
aF166.4288899898529
aF69.32174801826477
aF205.39644479751587
aF343.9920518398285
aF307.7948679924011
aF335.53930497169495
aF381.6399040222168
aF90.65562796592712
aF784.7465200424194
aF127.6438660621643
aF764.0751478672028
aF293.97939801216125
aF1774.6689751148224
aF1490.0137569904327
aF195.04584193229675
aF281.49672293663025
aF94.87636590003967
aF1813.7191519737244
aF116.29815196990967
aF315.8243451118469
aF897.8309059143066
aF949.647912979126
aF211.08503413200378
aF2219.977073907852
aF243.3433539867401
aF170.1746518611908
aF618.9984240531921
aF370.2963569164276
aF1687.9783399105072
aF484.35456895828247
aF391.974977016449
aF88.01779794692993
aF810.3404271602631
aF780.3993189334869
aF644.7580189704895
aF225.5889449119568
aF168.6635148525238
aF133.73065900802612
aF1387.9911060333252
aF439.45770812034607
aF156.46555995941162
aF595.4560930728912
aF413.9145109653473
aF163.54317688941956
aF55.55519509315491
aF265.3187880516052
aF345.9027318954468
aF184.27565813064575
as.