(dp0
S'successes'
p1
(lp2
I01
aI01
aI01
aI01
aI01
aI01
aI01
aI01
aI01
aI01
aI01
aI01
aI01
aI01
aI01
aI01
aI01
aI01
aI01
aI01
aI01
aI01
aI01
aI01
aI01
aI01
aI01
aI00
aI01
aI01
aI01
aI01
aI01
aI01
aI00
aI01
aI00
aI00
aI01
aI01
aI01
aI01
aI01
aI01
aI01
aI00
aI01
aI01
aI01
aI01
aI01
aI01
aI01
aI01
aI01
aI01
aI01
aI01
aI01
aI01
aI01
aI00
aI00
aI01
aI01
aI01
aI01
aI00
aI01
aI01
aI01
aI01
aI01
aI01
aI01
aI00
aI01
aI00
aI01
aI01
aI01
aI01
aI01
aI01
aI01
aI01
aI01
aI00
aI01
aI01
aI01
aI01
aI01
aI01
aI01
aI01
aI01
aI00
aI01
aI01
aI01
aI01
aI01
aI00
aI01
aI01
aI01
aI01
aI00
aI01
asS'pidxs'
p3
(lp4
I20017
aI20013
aI20006
aI20007
aI20009
aI20019
aI20008
aI20004
aI20003
aI20016
aI20017
aI20011
aI20011
aI20005
aI20008
aI20004
aI20023
aI20020
aI20004
aI20014
aI20018
aI20020
aI20014
aI20004
aI20013
aI20013
aI20000
aI20006
aI20017
aI20012
aI20008
aI20009
aI20011
aI20020
aI20010
aI20003
aI20010
aI20010
aI20021
aI20014
aI20000
aI20014
aI20007
aI20001
aI20001
aI20010
aI20004
aI20003
aI20015
aI20024
aI20006
aI20008
aI20020
aI20019
aI20012
aI20016
aI20002
aI20007
aI20001
aI20002
aI20017
aI20015
aI20019
aI20006
aI20012
aI20002
aI20018
aI20016
aI20001
aI20011
aI20021
aI20001
aI20014
aI20005
aI20002
aI20009
aI20000
aI20010
aI20009
aI20006
aI20017
aI20021
aI20022
aI20018
aI20005
aI20011
aI20002
aI20000
aI20016
aI20007
aI20019
aI20003
aI20012
aI20015
aI20008
aI20009
aI20020
aI20016
aI20013
aI20007
aI20015
aI20015
aI20003
aI20012
aI20013
aI20005
aI20019
aI20018
aI20005
aI20018
asS'plan_length'
p5
(lp6
I31
aI30
aI18
aI6
aI16
aI5
aI22
aI23
aI31
aI22
aI13
aI5
aI13
aI27
aI29
aI4
aI11
aI27
aI9
aI28
aI7
aI47
aI3
aI3
aI2
aI15
aI11
aI4
aI18
aI9
aI16
aI7
aI12
aI16
aI22
aI2
aI19
aI2
aI35
aI5
aI12
aI3
aI32
aI18
aI26
aI50
aI30
aI10
aI5
aI20
aI11
aI36
aI1
aI19
aI18
aI31
aI5
aI23
aI21
aI1
aI16
aI3
aI8
aI6
aI13
aI20
aI18
aI7
aI30
aI10
aI22
aI5
aI3
aI14
aI21
aI2
aI21
aI36
aI3
aI13
aI21
aI3
aI14
aI18
aI26
aI14
aI6
aI8
aI13
aI2
aI54
aI2
aI24
aI2
aI5
aI5
asS'num_nodes'
p7
(lp8
I74
aI126
aI18
aI15
aI30
aI13
aI56
aI27
aI33
aI42
aI73
aI20
aI26
aI60
aI56
aI4
aI15
aI142
aI12
aI30
aI8
aI167
aI3
aI3
aI2
aI53
aI42
aI132
aI4
aI77
aI31
aI32
aI8
aI29
aI296
aI27
aI393
aI361
aI35
aI2
aI42
aI15
aI37
aI13
aI40
aI366
aI3
aI35
aI90
aI47
aI77
aI32
aI32
aI11
aI61
aI14
aI63
aI1
aI106
aI55
aI124
aI84
aI161
aI6
aI41
aI33
aI1
aI145
aI79
aI5
aI13
aI18
aI59
aI38
aI21
aI142
aI14
aI318
aI72
aI11
aI25
aI5
aI87
aI25
aI47
aI2
aI62
aI138
aI135
aI3
aI96
aI24
aI6
aI18
aI50
aI57
aI27
aI110
aI9
aI8
aI60
aI3
aI94
aI216
aI3
aI30
aI2
aI12
aI88
aI16
asS'times'
p9
(lp10
F232.16302394866943
aF263.32288122177124
aF83.63978099822998
aF57.753974199295044
aF83.17968893051147
aF32.692102909088135
aF167.93146085739136
aF104.88036799430847
aF124.78900814056396
aF130.397705078125
aF190.0151128768921
aF43.769307136535645
aF72.35189294815063
aF169.7109820842743
aF155.10812091827393
aF25.82803201675415
aF55.986140966415405
aF270.6925280094147
aF48.33905291557312
aF125.21965384483337
aF39.4817099571228
aF296.13857197761536
aF18.389928102493286
aF20.8348331451416
aF17.287419080734253
aF129.12753796577454
aF79.23189306259155
aF302.9322180747986
aF24.180341005325317
aF163.73694801330566
aF90.00146889686584
aF84.32288694381714
aF35.286592960357666
aF67.03187084197998
aF301.52049803733826
aF128.3479220867157
aF300.78806495666504
aF300.6777138710022
aF122.10515689849854
aF18.343059062957764
aF125.26670789718628
aF32.77451300621033
aF139.83134603500366
aF50.72578692436218
aF98.14242100715637
aF302.8976471424103
aF22.456774950027466
aF121.8362648487091
aF242.6645851135254
aF226.08346891403198
aF227.44735503196716
aF137.82524418830872
aF78.27368211746216
aF33.48878788948059
aF126.67839097976685
aF59.59027981758118
aF232.16870403289795
aF14.54833698272705
aF247.58657383918762
aF134.43691182136536
aF294.43845105171204
aF301.0063941478729
aF300.45808005332947
aF57.358750104904175
aF130.72564506530762
aF125.49479293823242
aF13.961080074310303
aF303.90568709373474
aF154.6675100326538
aF20.413620948791504
aF55.616493940353394
aF65.02870106697083
aF125.96451807022095
aF122.45861387252808
aF82.0640161037445
aF300.1310911178589
aF49.733465909957886
aF302.67848801612854
aF207.26307106018066
aF43.44400095939636
aF91.2531111240387
aF31.190507888793945
aF92.7069571018219
aF77.02469801902771
aF125.98079776763916
aF18.95532512664795
aF187.04086780548096
aF300.2036111354828
aF290.0111970901489
aF21.81649422645569
aF144.68840622901917
aF89.75103807449341
aF39.6995689868927
aF75.74729919433594
aF123.12579584121704
aF145.7497079372406
aF72.52505302429199
aF300.5408308506012
aF37.218470096588135
aF44.69495606422424
aF247.73740196228027
aF20.13973593711853
aF240.96735906600952
aF300.78748202323914
aF16.287425994873047
aF113.89195013046265
aF17.302145957946777
aF42.584619998931885
aF302.51100993156433
aF58.0930860042572
as.