(dp0
S'successes'
p1
(lp2
I00
aI00
aI00
aI00
aI00
aI00
aI00
aI00
aI00
aI00
aI00
aI00
aI00
aI00
aI00
aI00
aI00
aI00
aI00
aI00
aI00
aI00
aI00
aI00
aI00
aI00
aI00
aI00
aI00
aI00
aI00
aI00
aI00
aI00
aI00
aI00
aI00
aI00
aI00
aI00
aI00
aI00
aI00
aI00
aI00
aI00
aI00
aI00
aI00
aI00
aI00
aI00
aI00
aI00
aI00
aI00
aI00
aI00
aI00
aI00
aI00
aI00
aI00
aI00
aI00
aI00
aI00
aI00
aI00
aI00
aI00
aI00
aI00
aI00
aI00
aI00
aI00
aI00
aI00
aI00
aI00
aI00
aI00
aI00
aI00
aI00
aI00
aI00
aI00
aI00
aI00
aI00
aI00
aI00
aI00
aI00
aI00
aI00
aI00
asS'pidxs'
p3
(lp4
I20017
aI20013
aI20006
aI20007
aI20009
aI20019
aI20008
aI20003
aI20016
aI20017
aI20011
aI20011
aI20005
aI20008
aI20004
aI20020
aI20004
aI20014
aI20018
aI20020
aI20004
aI20013
aI20013
aI20000
aI20006
aI20012
aI20008
aI20009
aI20011
aI20020
aI20010
aI20003
aI20010
aI20010
aI20000
aI20014
aI20000
aI20014
aI20007
aI20001
aI20001
aI20010
aI20004
aI20003
aI20015
aI20006
aI20008
aI20019
aI20012
aI20016
aI20002
aI20007
aI20001
aI20002
aI20017
aI20015
aI20006
aI20012
aI20002
aI20018
aI20016
aI20001
aI20011
aI20001
aI20014
aI20005
aI20002
aI20009
aI20000
aI20010
aI20009
aI20006
aI20017
aI20018
aI20005
aI20002
aI20000
aI20016
aI20007
aI20019
aI20003
aI20012
aI20015
aI20008
aI20009
aI20020
aI20016
aI20013
aI20007
aI20015
aI20015
aI20003
aI20012
aI20013
aI20005
aI20019
aI20018
aI20005
aI20018
asS'plan_length'
p5
(lp6
sS'num_nodes'
p7
(lp8
I765
aI895
aI934
aI943
aI876
aI910
aI851
aI971
aI1167
aI808
aI820
aI945
aI922
aI882
aI871
aI879
aI591
aI799
aI817
aI770
aI760
aI736
aI790
aI999
aI601
aI859
aI899
aI845
aI990
aI900
aI1348
aI894
aI969
aI1046
aI1071
aI653
aI872
aI885
aI663
aI757
aI790
aI972
aI1300
aI898
aI734
aI905
aI843
aI915
aI1002
aI974
aI935
aI759
aI840
aI1000
aI998
aI1018
aI895
aI911
aI831
aI875
aI891
aI781
aI910
aI869
aI886
aI854
aI992
aI830
aI908
aI893
aI870
aI953
aI1032
aI984
aI870
aI1101
aI809
aI884
aI814
aI978
aI824
aI930
aI1028
aI870
aI891
aI1037
aI882
aI876
aI689
aI1051
aI818
aI728
aI1092
aI835
aI824
aI935
aI957
aI995
aI944
asS'times'
p9
(lp10
F2401.8532519340515
aF2401.7877280712128
aF2402.524990797043
aF2401.510838985443
aF2407.166230916977
aF2401.2625510692596
aF2404.46927690506
aF2404.819694042206
aF2403.4736020565033
aF2401.108074903488
aF2400.4582591056824
aF2402.3163311481476
aF2403.5753960609436
aF2400.4366540908813
aF2402.5763092041016
aF2403.326276063919
aF2401.074397087097
aF2404.756821870804
aF2401.4466280937195
aF2400.765762090683
aF2400.8438341617584
aF2401.608279943466
aF2400.571528196335
aF2402.272441148758
aF2401.517132997513
aF2400.6647610664368
aF2403.2693350315094
aF2403.961212158203
aF2405.4915828704834
aF2400.399438858032
aF2402.811357021332
aF2400.9789521694183
aF2403.6068608760834
aF2404.9316861629486
aF2403.057546854019
aF2402.35405087471
aF2400.277207136154
aF2403.1423189640045
aF2401.1547911167145
aF2400.516520023346
aF2400.429489135742
aF2403.363291978836
aF2400.4481840133667
aF2403.9662849903107
aF2402.474776983261
aF2401.6935801506042
aF2401.8509469032288
aF2403.881880044937
aF2400.3050429821014
aF2402.943967103958
aF2402.370064973831
aF2401.5770301818848
aF2400.5491058826447
aF2400.6004168987274
aF2400.670298099518
aF2401.4348759651184
aF2404.018946170807
aF2402.327078104019
aF2404.2900919914246
aF2402.736706972122
aF2403.3503108024597
aF2403.111629962921
aF2402.3151178359985
aF2401.120280981064
aF2400.507714033127
aF2403.090903043747
aF2401.021872997284
aF2402.943190097809
aF2400.6742870807648
aF2403.343258857727
aF2403.3217170238495
aF2400.6161139011383
aF2400.8223309516907
aF2400.504052877426
aF2401.2772290706635
aF2402.9875280857086
aF2400.231426000595
aF2400.951683998108
aF2401.9489538669586
aF2403.885297060013
aF2402.0414350032806
aF2401.3161220550537
aF2403.123964071274
aF2403.4909160137177
aF2400.326224088669
aF2400.699252843857
aF2403.060886144638
aF2404.5452361106873
aF2402.8097150325775
aF2405.197531938553
aF2402.348263978958
aF2401.9077668190002
aF2402.028312921524
aF2403.7286529541016
aF2404.0200090408325
aF2402.981481075287
aF2400.643901824951
aF2403.91127204895
aF2401.6475880146027
as.