(dp0
S'successes'
p1
(lp2
I00
aI01
aI01
aI00
aI01
aI01
aI01
aI00
aI00
aI01
aI01
aI01
aI01
aI01
aI01
aI01
aI01
aI01
aI01
aI01
aI00
aI01
aI01
aI01
aI01
aI01
aI01
aI01
aI01
aI01
aI00
aI00
aI01
aI01
aI01
aI01
aI01
aI01
aI01
aI01
aI01
aI01
aI01
aI01
aI01
aI01
aI01
aI01
aI01
aI01
aI01
aI01
aI01
aI01
aI01
aI01
aI00
aI01
aI01
aI01
aI00
aI00
aI01
aI01
aI01
aI01
aI01
aI00
aI01
aI01
aI01
aI01
aI00
aI01
aI01
aI01
aI01
aI01
aI01
aI01
aI01
aI01
aI01
aI01
aI01
aI01
aI01
aI00
aI01
aI01
aI01
aI01
aI01
aI01
aI01
aI01
aI00
aI01
aI01
aI01
aI01
aI00
aI01
aI01
aI01
aI01
aI01
aI01
aI01
aI00
aI01
aI01
aI01
aI01
aI01
aI01
aI01
aI01
aI01
aI01
aI01
aI01
aI01
aI01
aI01
aI01
aI01
aI00
aI01
aI00
aI01
aI01
aI00
aI00
aI01
aI00
aI01
aI01
aI00
aI01
aI01
aI01
aI01
aI01
aI01
aI01
aI01
aI01
aI01
aI01
aI00
aI01
aI01
aI01
aI00
aI00
aI01
aI00
aI00
aI01
aI00
aI00
aI01
aI00
aI01
aI01
aI00
aI01
aI01
aI01
aI01
aI01
aI01
aI01
aI01
aI01
aI00
aI00
aI01
aI01
aI01
aI01
aI01
aI01
aI01
aI01
aI01
aI01
aI01
aI01
aI01
aI01
aI01
aI00
aI01
aI01
aI01
aI01
aI01
aI01
aI01
aI01
aI00
aI01
aI01
aI01
aI00
aI01
aI01
aI01
aI00
aI01
aI01
aI01
aI01
aI01
aI01
aI01
aI01
aI01
aI01
aI01
aI01
aI01
aI01
aI01
aI01
aI01
aI01
aI01
aI01
aI01
aI01
aI01
aI01
aI01
aI01
aI01
aI01
aI01
aI01
aI01
aI01
aI01
aI01
aI01
aI01
aI01
aI01
aI01
aI01
aI01
aI01
aI01
aI01
aI01
aI01
aI01
aI01
aI01
aI00
aI01
aI01
aI01
aI00
aI01
aI01
aI01
aI01
aI01
aI01
aI01
aI01
aI01
aI01
aI01
aI01
aI01
aI00
aI00
aI01
aI01
aI01
aI01
aI01
aI00
aI01
aI01
aI01
aI01
aI01
aI00
aI01
aI01
aI00
aI00
aI00
aI01
aI01
aI01
aI01
aI01
aI01
aI01
aI01
aI01
aI01
aI01
aI01
aI01
aI00
aI01
aI01
aI00
aI01
aI01
aI01
aI01
aI00
aI01
aI01
aI01
aI01
aI01
aI01
aI01
aI01
aI01
aI00
aI01
aI00
aI01
aI01
aI01
aI01
aI01
aI00
aI01
aI01
aI01
aI01
aI01
aI01
aI01
aI01
aI01
aI01
aI00
aI01
aI01
aI01
aI01
aI01
aI01
aI01
aI01
aI01
aI01
aI01
aI00
aI01
aI01
aI00
aI00
aI01
aI01
aI01
aI01
aI01
aI01
aI00
aI00
aI01
aI01
aI01
aI01
aI00
aI01
aI01
aI01
aI01
aI00
aI00
aI01
aI01
aI01
aI01
aI01
aI01
aI01
aI01
aI01
aI01
aI01
aI01
aI00
aI01
aI01
aI01
aI01
aI01
aI01
aI01
aI01
aI01
aI01
aI01
aI00
aI00
aI01
aI01
aI00
aI00
aI01
aI01
aI01
aI00
aI01
aI01
aI01
aI01
aI00
aI01
aI01
aI01
aI00
aI01
aI01
aI01
aI01
aI01
aI01
aI01
aI01
aI01
aI01
aI01
aI01
aI01
aI01
aI01
aI01
aI01
aI01
aI01
aI01
aI01
aI01
aI01
aI01
aI01
aI01
aI01
aI01
aI01
aI01
aI01
aI01
aI01
aI01
aI01
aI01
aI01
aI01
aI01
aI00
aI01
aI01
aI01
aI01
aI01
aI01
aI01
aI01
aI01
aI01
aI01
aI01
aI01
aI01
aI01
aI01
aI01
aI01
aI01
aI01
aI01
aI01
aI01
aI01
aI01
aI01
asS'pidxs'
p3
(lp4
I20086
aI20021
aI20072
aI20045
aI20027
aI20059
aI20097
aI20064
aI20016
aI20081
aI20040
aI20052
aI20001
aI20088
aI20016
aI20090
aI20091
aI20044
aI20046
aI20086
aI20019
aI20044
aI20081
aI20048
aI20039
aI20040
aI20019
aI20042
aI20049
aI20001
aI20064
aI20039
aI20060
aI20080
aI20058
aI20068
aI20083
aI20009
aI20060
aI20095
aI20021
aI20001
aI20030
aI20011
aI20057
aI20006
aI20040
aI20057
aI20025
aI20004
aI20052
aI20031
aI20078
aI20038
aI20032
aI20001
aI20095
aI20067
aI20022
aI20089
aI20012
aI20018
aI20003
aI20015
aI20010
aI20005
aI20067
aI20033
aI20047
aI20019
aI20025
aI20051
aI20045
aI20091
aI20035
aI20076
aI20094
aI20074
aI20059
aI20064
aI20077
aI20032
aI20015
aI20020
aI20069
aI20042
aI20071
aI20064
aI20094
aI20059
aI20066
aI20020
aI20053
aI20065
aI20040
aI20034
aI20016
aI20062
aI20038
aI20000
aI20095
aI20053
aI20080
aI20050
aI20041
aI20008
aI20036
aI20024
aI20014
aI20076
aI20003
aI20016
aI20072
aI20021
aI20065
aI20080
aI20099
aI20093
aI20099
aI20042
aI20019
aI20055
aI20056
aI20047
aI20099
aI20068
aI20023
aI20091
aI20004
aI20019
aI20026
aI20007
aI20033
aI20090
aI20070
aI20037
aI20094
aI20023
aI20075
aI20025
aI20030
aI20061
aI20085
aI20087
aI20052
aI20080
aI20015
aI20063
aI20046
aI20067
aI20044
aI20051
aI20078
aI20098
aI20039
aI20099
aI20075
aI20039
aI20088
aI20031
aI20033
aI20054
aI20083
aI20033
aI20053
aI20052
aI20069
aI20058
aI20069
aI20075
aI20035
aI20081
aI20011
aI20018
aI20029
aI20098
aI20020
aI20008
aI20025
aI20090
aI20071
aI20066
aI20017
aI20028
aI20008
aI20014
aI20023
aI20021
aI20058
aI20037
aI20003
aI20088
aI20023
aI20060
aI20010
aI20071
aI20029
aI20030
aI20076
aI20095
aI20004
aI20010
aI20096
aI20003
aI20047
aI20037
aI20041
aI20088
aI20054
aI20092
aI20000
aI20084
aI20032
aI20043
aI20043
aI20020
aI20013
aI20030
aI20063
aI20092
aI20028
aI20049
aI20056
aI20007
aI20062
aI20081
aI20065
aI20044
aI20006
aI20016
aI20093
aI20077
aI20005
aI20048
aI20087
aI20008
aI20080
aI20059
aI20035
aI20066
aI20092
aI20017
aI20012
aI20017
aI20065
aI20051
aI20043
aI20082
aI20089
aI20054
aI20007
aI20032
aI20024
aI20077
aI20050
aI20011
aI20035
aI20094
aI20052
aI20008
aI20060
aI20079
aI20063
aI20062
aI20083
aI20074
aI20068
aI20094
aI20096
aI20050
aI20036
aI20048
aI20060
aI20018
aI20048
aI20072
aI20093
aI20097
aI20038
aI20082
aI20015
aI20004
aI20098
aI20061
aI20006
aI20013
aI20083
aI20000
aI20078
aI20098
aI20038
aI20047
aI20084
aI20079
aI20026
aI20006
aI20041
aI20070
aI20090
aI20082
aI20020
aI20002
aI20034
aI20069
aI20048
aI20057
aI20026
aI20013
aI20055
aI20093
aI20097
aI20026
aI20022
aI20056
aI20043
aI20002
aI20083
aI20027
aI20064
aI20027
aI20044
aI20091
aI20012
aI20089
aI20097
aI20024
aI20091
aI20014
aI20087
aI20031
aI20000
aI20061
aI20022
aI20097
aI20010
aI20096
aI20093
aI20084
aI20087
aI20036
aI20045
aI20054
aI20039
aI20077
aI20002
aI20028
aI20046
aI20055
aI20040
aI20082
aI20096
aI20073
aI20085
aI20084
aI20036
aI20015
aI20058
aI20057
aI20029
aI20014
aI20050
aI20009
aI20029
aI20070
aI20087
aI20018
aI20051
aI20051
aI20005
aI20027
aI20021
aI20056
aI20038
aI20001
aI20063
aI20075
aI20054
aI20029
aI20073
aI20061
aI20058
aI20071
aI20053
aI20063
aI20071
aI20066
aI20002
aI20076
aI20009
aI20062
aI20006
aI20025
aI20068
aI20034
aI20002
aI20034
aI20042
aI20026
aI20031
aI20000
aI20055
aI20073
aI20092
aI20012
aI20082
aI20049
aI20074
aI20073
aI20014
aI20046
aI20018
aI20027
aI20053
aI20005
aI20095
aI20069
aI20009
aI20089
aI20061
aI20022
aI20004
aI20033
aI20012
aI20042
aI20089
aI20013
aI20049
aI20074
aI20017
aI20086
aI20043
aI20023
aI20010
aI20047
aI20065
aI20017
aI20067
aI20031
aI20037
aI20030
aI20067
aI20003
aI20013
aI20045
aI20070
aI20045
aI20085
aI20057
aI20007
aI20024
aI20050
aI20096
aI20011
aI20037
aI20041
aI20088
aI20041
aI20022
aI20055
aI20079
aI20049
aI20028
aI20085
aI20059
aI20098
aI20046
aI20092
aI20099
aI20079
aI20086
aI20035
aI20062
aI20005
aI20081
aI20090
aI20034
aI20011
aI20068
aI20009
aI20024
aI20070
aI20032
aI20028
aI20007
aI20084
aI20085
aI20066
aI20072
aI20036
aI20078
aI20056
aI20086
asS'plan_length'
p5
(lp6
I22
aI18
aI28
aI28
aI32
aI42
aI36
aI26
aI42
aI34
aI38
aI34
aI28
aI34
aI26
aI40
aI24
aI38
aI36
aI32
aI34
aI40
aI22
aI20
aI32
aI38
aI32
aI32
aI46
aI50
aI36
aI42
aI30
aI48
aI30
aI30
aI22
aI36
aI38
aI42
aI32
aI28
aI40
aI34
aI40
aI32
aI30
aI40
aI42
aI26
aI28
aI44
aI30
aI44
aI46
aI32
aI28
aI44
aI34
aI42
aI32
aI38
aI30
aI36
aI38
aI36
aI24
aI44
aI32
aI38
aI34
aI34
aI24
aI38
aI28
aI38
aI42
aI28
aI40
aI30
aI28
aI32
aI30
aI24
aI28
aI32
aI26
aI36
aI34
aI40
aI44
aI22
aI24
aI26
aI22
aI34
aI40
aI28
aI26
aI28
aI34
aI36
aI44
aI30
aI32
aI30
aI50
aI22
aI32
aI38
aI18
aI32
aI30
aI24
aI44
aI32
aI46
aI28
aI32
aI24
aI28
aI50
aI26
aI40
aI24
aI32
aI40
aI26
aI24
aI38
aI28
aI38
aI36
aI34
aI44
aI32
aI38
aI34
aI34
aI38
aI28
aI28
aI20
aI44
aI30
aI46
aI34
aI36
aI34
aI26
aI38
aI38
aI22
aI28
aI30
aI28
aI36
aI36
aI30
aI30
aI36
aI30
aI34
aI24
aI36
aI26
aI38
aI30
aI30
aI26
aI22
aI26
aI34
aI34
aI36
aI32
aI28
aI34
aI30
aI36
aI34
aI34
aI36
aI34
aI36
aI32
aI28
aI36
aI34
aI34
aI44
aI42
aI48
aI30
aI30
aI28
aI38
aI40
aI42
aI34
aI32
aI42
aI38
aI34
aI32
aI40
aI20
aI24
aI40
aI30
aI38
aI40
aI32
aI26
aI38
aI24
aI28
aI32
aI26
aI26
aI28
aI32
aI32
aI30
aI34
aI30
aI28
aI30
aI36
aI24
aI26
aI36
aI44
aI38
aI44
aI34
aI34
aI38
aI40
aI34
aI44
aI26
aI32
aI44
aI38
aI32
aI20
aI28
aI24
aI28
aI26
aI34
aI48
aI50
aI38
aI38
aI30
aI32
aI34
aI22
aI28
aI28
aI40
aI38
aI38
aI26
aI40
aI32
aI36
aI22
aI28
aI28
aI34
aI30
aI34
aI34
aI18
aI38
aI28
aI30
aI32
aI28
aI26
aI22
aI24
aI20
aI40
aI34
aI40
aI34
aI28
aI32
aI40
aI36
aI16
aI34
aI44
aI32
aI30
aI24
aI38
aI38
aI30
aI28
aI30
aI24
aI32
aI44
aI38
aI30
aI32
aI40
aI36
aI26
aI38
aI32
aI36
aI46
aI42
aI32
aI32
aI44
aI38
aI34
aI42
aI38
aI30
aI40
aI36
aI38
aI42
aI36
aI46
aI30
aI24
aI34
aI40
aI42
aI42
aI32
aI28
aI36
aI34
aI38
aI24
aI28
aI26
aI30
aI36
aI36
aI34
aI24
aI32
aI46
aI40
aI30
aI36
aI26
aI22
aI24
aI40
aI36
aI24
aI44
aI38
aI24
aI24
aI46
aI36
aI42
aI40
aI32
aI24
aI30
aI38
aI34
aI40
aI34
aI26
aI42
aI20
aI40
aI24
aI36
aI20
aI28
aI36
aI22
aI28
aI26
aI42
aI22
aI40
aI36
aI32
aI30
aI32
aI24
aI34
aI28
aI36
aI38
aI32
aI22
aI42
aI38
aI20
aI50
aI28
aI22
aI32
aI42
aI32
aI34
aI40
aI38
aI28
aI44
aI28
aI38
aI42
aI36
asS'num_nodes'
p7
(lp8
I10
aI17
aI9
aI124
aI14
aI22
aI27
aI13
aI53
aI36
aI29
aI16
aI36
aI24
aI25
aI19
aI14
aI30
aI13
aI27
aI43
aI18
aI28
aI26
aI38
aI19
aI22
aI14
aI10
aI22
aI39
aI12
aI45
aI16
aI25
aI48
aI172
aI22
aI33
aI31
aI24
aI15
aI29
aI11
aI23
aI24
aI92
aI20
aI155
aI21
aI24
aI23
aI107
aI17
aI32
aI21
aI247
aI13
aI17
aI89
aI184
aI199
aI15
aI67
aI30
aI25
aI14
aI98
aI22
aI17
aI69
aI30
aI12
aI22
aI15
aI31
aI36
aI32
aI12
aI102
aI146
aI140
aI17
aI21
aI12
aI20
aI75
aI24
aI19
aI56
aI25
aI28
aI26
aI270
aI50
aI15
aI93
aI12
aI14
aI16
aI74
aI26
aI18
aI25
aI21
aI73
aI11
aI14
aI13
aI17
aI11
aI17
aI31
aI27
aI15
aI21
aI41
aI26
aI44
aI33
aI20
aI102
aI25
aI11
aI23
aI19
aI9
aI202
aI20
aI50
aI31
aI12
aI95
aI132
aI28
aI14
aI30
aI27
aI141
aI19
aI16
aI16
aI21
aI46
aI32
aI25
aI25
aI18
aI39
aI13
aI74
aI12
aI30
aI18
aI104
aI189
aI19
aI12
aI18
aI46
aI287
aI58
aI49
aI119
aI22
aI16
aI14
aI22
aI17
aI30
aI27
aI16
aI16
aI64
aI27
aI15
aI164
aI27
aI26
aI51
aI24
aI42
aI13
aI34
aI33
aI11
aI14
aI18
aI14
aI40
aI50
aI23
aI15
aI20
aI35
aI15
aI34
aI12
aI23
aI21
aI19
aI34
aI364
aI15
aI13
aI11
aI173
aI13
aI24
aI17
aI26
aI33
aI16
aI14
aI17
aI18
aI18
aI41
aI20
aI22
aI111
aI26
aI19
aI20
aI30
aI24
aI23
aI45
aI41
aI27
aI20
aI31
aI17
aI19
aI20
aI42
aI26
aI20
aI37
aI46
aI17
aI31
aI38
aI10
aI24
aI32
aI25
aI21
aI31
aI57
aI15
aI19
aI22
aI14
aI18
aI15
aI13
aI18
aI17
aI16
aI15
aI17
aI35
aI32
aI129
aI107
aI18
aI23
aI12
aI21
aI18
aI43
aI23
aI98
aI19
aI35
aI40
aI29
aI217
aI42
aI36
aI33
aI16
aI16
aI39
aI213
aI52
aI19
aI10
aI158
aI12
aI167
aI17
aI14
aI231
aI14
aI140
aI19
aI38
aI30
aI39
aI33
aI15
aI16
aI17
aI12
aI14
aI23
aI22
aI19
aI82
aI19
aI13
aI15
aI23
aI16
aI62
aI11
aI56
aI16
aI23
aI17
aI15
aI25
aI61
aI9
aI27
aI22
aI88
aI20
aI25
aI35
aI57
aI13
aI11
aI42
aI22
aI10
aI25
aI17
aI25
aI22
aI14
aI29
aI20
aI35
aI15
aI32
aI65
aI29
aI38
aI88
aI12
aI36
aI24
aI15
aI18
aI17
aI12
aI34
aI24
aI28
aI26
aI18
aI28
aI15
aI61
aI22
aI20
aI17
aI146
aI9
aI27
aI18
aI46
aI27
aI134
aI27
aI17
aI18
aI32
aI27
aI59
aI37
aI23
aI30
aI19
aI15
aI20
aI24
aI41
aI23
aI18
aI39
aI15
aI133
aI12
aI56
aI27
aI21
aI36
aI21
aI14
aI225
aI17
aI22
aI12
aI15
aI84
aI82
aI15
aI215
aI21
aI17
aI26
aI18
aI25
aI17
aI24
aI40
aI30
aI188
aI56
aI15
aI25
aI167
aI15
aI11
aI12
aI95
aI25
aI12
aI22
aI48
aI15
aI23
aI112
aI25
aI32
aI25
aI32
aI14
aI17
aI33
aI36
aI42
aI20
aI30
aI46
aI10
aI23
aI12
aI24
aI10
aI14
aI21
aI11
aI45
aI13
aI94
aI11
aI45
aI25
aI173
aI15
aI15
aI29
aI12
aI17
aI14
aI18
aI27
aI16
aI12
aI31
aI19
aI10
aI27
aI26
aI11
aI16
aI101
aI16
aI20
aI27
aI19
aI17
aI43
aI83
aI51
aI28
aI43
asS'times'
p9
(lp10
F2746.2206540107727
aF152.6351969242096
aF63.27731204032898
aF2481.557559967041
aF99.8460681438446
aF138.84804701805115
aF193.01260995864868
aF3254.5716619491577
aF4136.299270153046
aF315.8552088737488
aF840.6938331127167
aF123.16577386856079
aF1250.7808818817139
aF986.5853068828583
aF178.9967360496521
aF188.70346808433533
aF100.22017192840576
aF648.9022200107574
aF88.55529999732971
aF408.7421498298645
aF4002.549633026123
aF289.5764410495758
aF245.74724102020264
aF322.4048101902008
aF356.1812689304352
aF1316.8187701702118
aF150.31832718849182
aF96.03469204902649
aF67.02619886398315
aF227.5775339603424
aF5227.538783073425
aF2965.835104942322
aF1513.9821968078613
aF102.55814504623413
aF162.23877596855164
aF424.4594440460205
aF2327.394882917404
aF192.30911087989807
aF438.9767460823059
aF326.47793197631836
aF207.1248381137848
aF108.51456594467163
aF261.55007100105286
aF81.03344488143921
aF179.68683886528015
aF283.7596571445465
aF787.5564169883728
aF188.75999402999878
aF1051.1139328479767
aF355.4566910266876
aF165.89088988304138
aF394.4405839443207
aF2063.75146985054
aF146.45525693893433
aF519.9478178024292
aF174.33724188804626
aF3541.178393125534
aF88.25627493858337
aF107.95374703407288
aF1971.6627860069275
aF2414.9054968357086
aF5423.4830639362335
aF110.42114996910095
aF908.5312449932098
aF375.46070408821106
aF349.04346990585327
aF160.43065309524536
aF2893.4990470409393
aF188.2389199733734
aF126.54132008552551
aF584.116553068161
aF362.00540685653687
aF3234.756637096405
aF198.56738305091858
aF125.67349791526794
aF249.00066494941711
aF577.4207360744476
aF454.6111979484558
aF82.8518579006195
aF2267.8109679222107
aF1337.417900800705
aF1770.093199968338
aF824.1612899303436
aF145.8263750076294
aF87.27335000038147
aF178.10724806785583
aF726.2956390380859
aF2889.256185054779
aF181.05057406425476
aF919.8442089557648
aF294.43022298812866
aF469.7350251674652
aF802.4386019706726
aF2196.1029069423676
aF1800.113842010498
aF149.1917221546173
aF2987.9674050807953
aF81.04727602005005
aF126.96265196800232
aF180.42978286743164
aF568.4316501617432
aF5079.498627901077
aF115.0189950466156
aF161.22382283210754
aF314.4014799594879
aF1136.524029970169
aF82.80604219436646
aF92.1368019580841
aF61.16151285171509
aF5867.651319980621
aF97.74885892868042
aF107.97873401641846
aF259.48782896995544
aF173.9820899963379
aF100.27102613449097
aF153.0696840286255
aF546.9221539497375
aF256.4386639595032
aF343.62788486480713
aF327.79852509498596
aF142.71899700164795
aF1414.9413151741028
aF340.1148021221161
aF78.82654190063477
aF183.45356106758118
aF154.16810584068298
aF73.01201295852661
aF3704.783910036087
aF106.47808718681335
aF2402.0563249588013
aF373.93919587135315
aF91.41737389564514
aF3768.0010800361633
aF2996.2506091594696
aF387.7228181362152
aF3575.652671098709
aF388.65722393989563
aF820.5573937892914
aF2596.4388360977173
aF123.95998692512512
aF131.3760769367218
aF102.49101114273071
aF313.66828894615173
aF953.372673034668
aF221.64015793800354
aF214.6541829109192
aF182.30386090278625
aF147.40917897224426
aF548.5588080883026
aF83.91899609565735
aF3681.876368045807
aF84.10091805458069
aF245.79440999031067
aF118.13595294952393
aF2570.102555990219
aF4502.368687152863
aF330.52196407318115
aF2726.4007370471954
aF2693.5252270698547
aF938.8356478214264
aF2804.784515142441
aF2656.006040096283
aF628.7427959442139
aF2555.0066769123077
aF386.43110489845276
aF104.97369694709778
aF4548.876708030701
aF243.33886408805847
aF187.3165099620819
aF271.53630900382996
aF467.5503559112549
aF110.84287405014038
aF134.46403121948242
aF425.162180185318
aF507.1158540248871
aF151.86483192443848
aF4524.873317956924
aF6818.412472009659
aF1138.5355339050293
aF382.2196400165558
aF259.5894479751587
aF476.2496678829193
aF147.25563621520996
aF540.7149510383606
aF259.3050169944763
aF67.5368869304657
aF105.47213697433472
aF121.89081811904907
aF158.43225812911987
aF346.9729061126709
aF975.9042680263519
aF208.3889241218567
aF157.98682308197021
aF2420.24178981781
aF325.29499101638794
aF104.56638503074646
aF1189.829794883728
aF109.96903705596924
aF166.70786905288696
aF154.44697189331055
aF140.7455518245697
aF253.7694251537323
aF2405.327115058899
aF106.69550108909607
aF88.48366904258728
aF80.32098889350891
aF3922.101953983307
aF81.17790913581848
aF317.280072927475
aF135.22188711166382
aF5593.633579969406
aF1000.7353692054749
aF127.03241109848022
aF123.60782098770142
aF117.98200106620789
aF268.55642008781433
aF130.4027419090271
aF351.2137041091919
aF136.91096687316895
aF621.8526341915131
aF1380.7038578987122
aF217.20394706726074
aF140.2568337917328
aF149.5818428993225
aF405.71400904655457
aF168.69885087013245
aF165.54570317268372
aF593.5140500068665
aF714.7436821460724
aF239.4588658809662
aF180.06916499137878
aF181.98105788230896
aF115.28883504867554
aF161.0144350528717
aF238.00680685043335
aF1048.8764638900757
aF185.32636499404907
aF165.08739185333252
aF357.61646604537964
aF342.8565309047699
aF261.48112511634827
aF212.60971188545227
aF397.6834509372711
aF69.0224301815033
aF195.24546003341675
aF329.69881105422974
aF241.18156504631042
aF241.04229497909546
aF376.578449010849
aF1156.1796441078186
aF115.81202101707458
aF137.29860615730286
aF157.05514001846313
aF91.55334401130676
aF130.7828071117401
aF92.11592602729797
aF120.29048705101013
aF127.74956202507019
aF159.17354202270508
aF125.98010587692261
aF2436.3510160446167
aF175.9722831249237
aF313.923367023468
aF282.3745348453522
aF3835.929682970047
aF2072.009845018387
aF230.16888689994812
aF190.90240621566772
aF83.87305903434753
aF168.81758499145508
aF211.27229690551758
aF665.490700006485
aF402.27925395965576
aF621.9086649417877
aF129.0853590965271
aF251.96626591682434
aF911.8506331443787
aF208.3349950313568
aF2916.629817008972
aF2804.7881259918213
aF1240.9535489082336
aF891.727392911911
aF119.86091589927673
aF138.10992693901062
aF1197.2864918708801
aF2416.915377140045
aF1836.065761089325
aF133.75655388832092
aF64.45111584663391
aF1381.754762172699
aF90.8775749206543
aF3492.6061170101166
aF116.2937879562378
aF149.01275205612183
aF2529.8355071544647
aF5352.133100986481
aF3203.3920288085938
aF144.13348412513733
aF521.1556830406189
aF228.54171085357666
aF489.9950339794159
aF1955.3895330429077
aF126.60882496833801
aF128.24685788154602
aF132.64723300933838
aF78.32228398323059
aF105.17241096496582
aF155.2011001110077
aF193.18239402770996
aF127.73455905914307
aF2413.2054920196533
aF128.4292860031128
aF88.89780306816101
aF2508.72416305542
aF410.2156949043274
aF360.9595489501953
aF697.6049721240997
aF86.08101201057434
aF2410.173688173294
aF150.89530086517334
aF239.83405089378357
aF134.61067080497742
aF112.68024897575378
aF218.54925799369812
aF424.2431080341339
aF54.61152982711792
aF182.2815010547638
aF216.77157497406006
aF3300.91646194458
aF302.5012331008911
aF2505.4955999851227
aF845.5522549152374
aF527.1929550170898
aF120.46833896636963
aF94.99468207359314
aF436.5905330181122
aF2924.163020133972
aF60.511603116989136
aF180.65565395355225
aF117.84069395065308
aF910.4912531375885
aF172.66511011123657
aF112.14239501953125
aF187.89495515823364
aF212.84078001976013
aF598.054661989212
aF101.25751614570618
aF6297.891024827957
aF2145.8739490509033
aF439.1010320186615
aF750.8127088546753
aF1713.490970134735
aF80.78994703292847
aF341.4801480770111
aF225.81259894371033
aF114.99763894081116
aF150.8580300807953
aF129.64832210540771
aF84.49257779121399
aF3809.0510590076447
aF211.31566500663757
aF791.2465550899506
aF3887.1924250125885
aF2638.50594997406
aF188.05673098564148
aF102.12098789215088
aF587.1868298053741
aF738.8347699642181
aF215.12852597236633
aF105.76653409004211
aF2650.2169649600983
aF3458.8179059028625
aF271.55121088027954
aF170.36466193199158
aF409.00291299819946
aF266.38958406448364
aF3080.0385160446167
aF632.3795790672302
aF202.7392339706421
aF182.4585371017456
aF948.3239841461182
aF1229.3749520778656
aF2898.3183948993683
aF436.1859028339386
aF197.39883303642273
aF1057.9791269302368
aF150.5462191104889
aF123.8256151676178
aF151.2292890548706
aF451.04466009140015
aF1097.75159907341
aF210.17775201797485
aF152.39372205734253
aF390.58498215675354
aF116.79530692100525
aF5306.505154132843
aF77.54471802711487
aF701.7125129699707
aF1049.773472070694
aF239.80786895751953
aF964.6761040687561
aF149.8039948940277
aF101.66116309165955
aF2266.4747738838196
aF208.53344082832336
aF184.98511791229248
aF89.97163009643555
aF3805.9761757850647
aF2864.7000160217285
aF784.3906269073486
aF116.5686571598053
aF2533.8795959949493
aF2498.221781015396
aF118.04847407341003
aF788.9439671039581
aF208.53589510917664
aF6647.648869037628
aF114.42445492744446
aF161.48502588272095
aF385.3456950187683
aF985.7200798988342
aF4306.963452100754
aF823.2016060352325
aF106.93327689170837
aF175.03066515922546
aF2512.3014919757843
aF92.92895984649658
aF84.10485696792603
aF87.36967015266418
aF906.4153699874878
aF1812.2637100219727
aF141.89081287384033
aF171.8713219165802
aF626.8901829719543
aF102.504154920578
aF152.38337087631226
aF1681.3254868984222
aF277.9139449596405
aF579.8959331512451
aF260.444797039032
aF239.68628096580505
aF95.00563502311707
aF130.66929411888123
aF774.4073088169098
aF553.3824400901794
aF599.2946100234985
aF187.61908197402954
aF162.15716695785522
aF2088.9664208889008
aF68.14564394950867
aF277.1742880344391
aF83.29926896095276
aF302.16802883148193
aF83.91109490394592
aF102.01230502128601
aF169.80314087867737
aF79.27055096626282
aF476.35013604164124
aF94.86612200737
aF1097.474886894226
aF69.5939109325409
aF932.9042489528656
aF805.3328099250793
aF1344.8174560070038
aF122.48153710365295
aF3862.1195697784424
aF183.38287711143494
aF82.57782697677612
aF141.01092195510864
aF388.93937492370605
aF163.1272168159485
aF513.3536200523376
aF220.191752910614
aF78.06562805175781
aF1474.0720028877258
aF193.38559889793396
aF82.80119109153748
aF391.3498339653015
aF244.8846309185028
aF121.04240798950195
aF143.66190099716187
aF2734.2930760383606
aF833.8070240020752
aF294.1582200527191
aF329.51498007774353
aF136.93112206459045
aF120.13829207420349
aF546.4418151378632
aF1165.8638100624084
aF508.67525601387024
aF528.5102198123932
aF298.2528998851776
as.