(dp0
S'successes'
p1
(lp2
I01
aI01
aI01
aI01
aI01
aI01
aI01
aI00
aI01
aI01
aI00
aI01
aI01
aI01
aI01
aI01
aI01
aI00
aI01
aI00
aI01
aI00
aI01
aI01
aI01
aI00
aI00
aI01
aI01
aI00
aI01
aI01
aI00
aI01
aI01
aI01
aI00
aI01
aI00
aI01
aI01
aI01
aI01
aI01
aI01
aI01
aI01
aI01
aI01
aI01
aI00
aI01
aI01
aI01
aI01
aI01
aI01
aI01
aI01
aI01
aI01
aI01
aI00
aI01
aI01
aI01
aI01
aI01
aI01
aI00
aI01
aI01
aI01
aI01
aI00
aI01
aI01
aI01
aI01
aI01
aI01
aI00
aI01
aI01
aI00
aI01
aI01
aI01
aI01
aI01
aI00
aI01
aI01
aI01
aI01
aI00
aI01
aI01
aI01
aI01
aI01
aI01
aI01
aI01
aI00
aI01
aI01
aI01
aI00
aI01
aI01
aI01
aI01
aI01
aI00
aI01
aI01
aI01
aI01
aI01
aI01
aI01
aI01
aI01
aI01
aI00
aI01
aI01
aI01
aI01
aI01
aI00
aI01
aI01
aI01
aI01
aI00
aI01
aI00
aI01
aI01
aI01
aI01
aI01
aI01
aI01
aI01
aI00
aI01
aI01
aI01
aI01
aI01
aI01
aI01
aI01
aI01
aI01
aI00
aI01
aI01
aI00
aI01
aI01
aI00
aI01
aI01
aI00
aI01
aI01
aI01
aI01
aI01
aI01
aI01
aI01
aI01
aI01
aI01
aI01
aI01
aI00
aI01
aI01
aI01
aI01
aI01
aI01
aI01
aI01
aI01
aI01
aI01
aI01
aI01
aI01
aI01
aI01
aI01
aI01
aI01
aI01
aI01
aI01
aI01
aI01
aI01
aI01
aI01
aI01
aI01
aI01
aI01
aI01
aI01
aI01
aI01
aI00
aI00
aI01
aI01
aI01
aI01
aI00
aI00
aI01
aI00
aI01
aI00
aI01
aI01
aI00
aI01
aI01
aI01
aI01
aI01
aI01
aI01
aI01
aI00
aI01
aI01
aI01
aI01
aI01
aI01
aI01
aI01
aI00
aI01
aI01
aI01
aI00
aI01
aI01
aI01
aI01
aI01
aI01
aI01
aI01
aI01
aI01
aI01
aI01
aI01
aI01
aI01
aI01
aI00
aI01
aI01
aI01
aI01
aI01
aI01
aI01
aI01
aI01
aI01
aI01
aI01
aI01
aI01
aI01
aI01
aI00
aI01
aI01
aI01
aI01
aI00
aI01
aI01
aI01
aI01
aI01
aI01
aI01
aI01
aI01
aI01
aI01
aI00
aI01
aI01
aI01
aI01
aI01
aI01
aI01
aI01
aI01
aI01
aI01
aI01
aI01
aI01
aI01
aI01
aI01
aI00
aI00
aI01
aI00
aI01
aI00
aI01
aI01
aI01
aI01
aI01
aI01
aI01
aI01
aI01
aI01
aI01
aI01
aI01
aI01
aI01
aI01
aI01
aI01
aI01
aI00
aI01
aI00
aI01
aI01
aI00
aI01
aI01
aI00
aI01
aI01
aI01
aI01
aI01
aI01
aI01
aI01
aI01
aI01
aI01
aI01
aI01
aI01
aI00
aI01
aI01
aI01
aI01
aI01
aI01
aI01
aI01
aI00
aI01
aI01
aI01
aI01
aI01
aI00
aI00
aI01
aI01
aI01
aI00
aI01
aI01
aI01
aI01
aI01
aI01
aI01
aI00
aI01
aI01
aI01
aI01
aI01
aI01
aI01
aI00
aI00
aI01
aI01
aI01
aI01
aI01
aI01
aI01
aI01
aI01
aI01
aI01
aI01
aI00
aI01
aI01
aI01
aI01
aI01
aI01
aI01
aI01
aI00
aI01
aI01
aI01
aI01
aI01
aI01
aI01
aI00
aI01
aI01
aI01
aI01
aI01
aI01
aI01
aI01
aI01
aI01
aI01
aI01
aI01
aI01
aI01
aI00
aI01
aI01
aI01
aI01
aI01
aI01
aI01
aI01
aI01
aI01
aI01
aI01
aI00
aI01
aI01
aI01
aI01
aI01
aI01
aI01
aI01
aI01
aI01
aI01
aI01
aI01
aI01
aI01
aI01
aI01
aI01
aI00
aI01
aI01
aI00
aI01
aI01
aI01
aI01
aI01
aI01
aI01
aI01
aI01
aI01
aI01
asS'pidxs'
p3
(lp4
I20086
aI20021
aI20072
aI20045
aI20027
aI20059
aI20097
aI20064
aI20016
aI20081
aI20040
aI20052
aI20001
aI20088
aI20016
aI20090
aI20091
aI20044
aI20046
aI20086
aI20019
aI20044
aI20081
aI20048
aI20039
aI20040
aI20019
aI20042
aI20049
aI20001
aI20074
aI20064
aI20039
aI20060
aI20080
aI20058
aI20068
aI20083
aI20009
aI20060
aI20095
aI20021
aI20001
aI20030
aI20011
aI20057
aI20006
aI20040
aI20057
aI20025
aI20004
aI20052
aI20031
aI20078
aI20038
aI20032
aI20001
aI20095
aI20067
aI20022
aI20089
aI20012
aI20018
aI20003
aI20015
aI20010
aI20005
aI20067
aI20076
aI20033
aI20047
aI20019
aI20025
aI20051
aI20045
aI20091
aI20035
aI20076
aI20094
aI20074
aI20059
aI20064
aI20077
aI20032
aI20015
aI20020
aI20069
aI20042
aI20075
aI20071
aI20064
aI20094
aI20059
aI20066
aI20020
aI20053
aI20065
aI20040
aI20034
aI20016
aI20062
aI20038
aI20000
aI20095
aI20053
aI20080
aI20050
aI20041
aI20008
aI20036
aI20024
aI20014
aI20076
aI20003
aI20016
aI20072
aI20021
aI20065
aI20080
aI20099
aI20093
aI20099
aI20042
aI20019
aI20072
aI20055
aI20056
aI20047
aI20099
aI20068
aI20023
aI20091
aI20004
aI20019
aI20026
aI20007
aI20033
aI20090
aI20070
aI20037
aI20094
aI20023
aI20075
aI20025
aI20030
aI20061
aI20085
aI20087
aI20052
aI20080
aI20015
aI20063
aI20046
aI20067
aI20044
aI20051
aI20078
aI20098
aI20039
aI20099
aI20075
aI20039
aI20088
aI20031
aI20033
aI20054
aI20083
aI20033
aI20053
aI20052
aI20069
aI20058
aI20069
aI20075
aI20035
aI20081
aI20011
aI20018
aI20029
aI20098
aI20020
aI20008
aI20025
aI20090
aI20071
aI20066
aI20017
aI20028
aI20008
aI20014
aI20023
aI20021
aI20058
aI20037
aI20003
aI20088
aI20023
aI20060
aI20010
aI20071
aI20029
aI20030
aI20076
aI20095
aI20004
aI20010
aI20096
aI20003
aI20047
aI20037
aI20041
aI20088
aI20054
aI20092
aI20000
aI20084
aI20032
aI20043
aI20043
aI20020
aI20013
aI20030
aI20063
aI20092
aI20028
aI20049
aI20056
aI20007
aI20062
aI20081
aI20065
aI20044
aI20006
aI20016
aI20093
aI20077
aI20005
aI20048
aI20087
aI20079
aI20008
aI20080
aI20059
aI20035
aI20066
aI20092
aI20017
aI20012
aI20017
aI20065
aI20051
aI20043
aI20082
aI20089
aI20054
aI20007
aI20032
aI20024
aI20077
aI20050
aI20073
aI20011
aI20035
aI20094
aI20052
aI20008
aI20060
aI20079
aI20063
aI20062
aI20083
aI20074
aI20068
aI20094
aI20096
aI20050
aI20036
aI20078
aI20048
aI20060
aI20018
aI20048
aI20072
aI20093
aI20097
aI20038
aI20082
aI20015
aI20004
aI20098
aI20061
aI20006
aI20013
aI20083
aI20000
aI20078
aI20098
aI20038
aI20047
aI20084
aI20079
aI20026
aI20006
aI20041
aI20070
aI20090
aI20082
aI20020
aI20002
aI20034
aI20069
aI20048
aI20057
aI20026
aI20013
aI20055
aI20093
aI20097
aI20026
aI20022
aI20056
aI20043
aI20002
aI20083
aI20027
aI20064
aI20027
aI20044
aI20091
aI20012
aI20089
aI20097
aI20024
aI20091
aI20014
aI20087
aI20031
aI20000
aI20061
aI20022
aI20097
aI20010
aI20096
aI20093
aI20084
aI20087
aI20036
aI20045
aI20054
aI20039
aI20077
aI20002
aI20028
aI20046
aI20055
aI20040
aI20082
aI20077
aI20096
aI20073
aI20085
aI20084
aI20036
aI20015
aI20058
aI20057
aI20029
aI20014
aI20050
aI20009
aI20029
aI20070
aI20087
aI20018
aI20051
aI20051
aI20005
aI20027
aI20021
aI20056
aI20038
aI20001
aI20063
aI20075
aI20054
aI20029
aI20073
aI20061
aI20058
aI20071
aI20053
aI20063
aI20071
aI20066
aI20002
aI20076
aI20009
aI20062
aI20006
aI20025
aI20068
aI20034
aI20002
aI20034
aI20042
aI20026
aI20031
aI20000
aI20055
aI20073
aI20092
aI20012
aI20082
aI20049
aI20074
aI20073
aI20014
aI20046
aI20018
aI20027
aI20053
aI20005
aI20095
aI20069
aI20009
aI20089
aI20061
aI20022
aI20004
aI20033
aI20012
aI20042
aI20089
aI20013
aI20049
aI20074
aI20017
aI20086
aI20043
aI20023
aI20010
aI20047
aI20065
aI20017
aI20067
aI20031
aI20037
aI20030
aI20067
aI20003
aI20013
aI20045
aI20070
aI20045
aI20085
aI20057
aI20007
aI20024
aI20050
aI20096
aI20011
aI20037
aI20041
aI20088
aI20041
aI20022
aI20055
aI20079
aI20049
aI20028
aI20085
aI20059
aI20098
aI20046
aI20092
aI20099
aI20079
aI20086
aI20035
aI20062
aI20005
aI20081
aI20090
aI20034
aI20011
aI20068
aI20009
aI20024
aI20070
aI20032
aI20028
aI20007
aI20084
aI20085
aI20066
aI20072
aI20036
aI20078
aI20056
aI20086
asS'plan_length'
p5
(lp6
I16
aI2
aI4
aI16
aI2
aI2
aI2
aI14
aI2
aI6
aI6
aI2
aI14
aI6
aI4
aI2
aI4
aI2
aI10
aI4
aI2
aI2
aI2
aI16
aI6
aI2
aI8
aI16
aI6
aI4
aI2
aI4
aI2
aI2
aI2
aI8
aI12
aI2
aI6
aI4
aI6
aI16
aI4
aI4
aI8
aI8
aI10
aI2
aI12
aI6
aI4
aI8
aI4
aI6
aI12
aI6
aI14
aI6
aI14
aI2
aI2
aI6
aI8
aI2
aI2
aI2
aI4
aI4
aI10
aI10
aI2
aI8
aI8
aI2
aI2
aI2
aI6
aI2
aI14
aI4
aI14
aI10
aI4
aI4
aI4
aI2
aI14
aI16
aI14
aI2
aI6
aI12
aI6
aI2
aI2
aI2
aI6
aI2
aI6
aI2
aI2
aI6
aI4
aI6
aI4
aI2
aI6
aI2
aI6
aI8
aI2
aI2
aI14
aI16
aI2
aI2
aI14
aI8
aI2
aI2
aI2
aI4
aI6
aI6
aI2
aI2
aI12
aI12
aI2
aI2
aI2
aI2
aI8
aI2
aI8
aI4
aI6
aI14
aI6
aI2
aI10
aI12
aI6
aI6
aI2
aI2
aI6
aI16
aI2
aI14
aI16
aI16
aI4
aI2
aI2
aI10
aI8
aI4
aI2
aI2
aI10
aI4
aI4
aI2
aI2
aI12
aI4
aI6
aI8
aI2
aI4
aI4
aI10
aI4
aI2
aI4
aI8
aI4
aI8
aI2
aI6
aI8
aI10
aI2
aI12
aI12
aI2
aI2
aI2
aI2
aI2
aI2
aI8
aI12
aI14
aI4
aI16
aI6
aI8
aI16
aI6
aI2
aI2
aI4
aI2
aI8
aI2
aI2
aI2
aI2
aI4
aI6
aI6
aI2
aI6
aI4
aI14
aI14
aI4
aI2
aI4
aI2
aI14
aI18
aI12
aI6
aI2
aI12
aI2
aI6
aI2
aI2
aI14
aI4
aI14
aI6
aI16
aI6
aI6
aI14
aI4
aI2
aI4
aI10
aI12
aI2
aI2
aI14
aI10
aI10
aI2
aI8
aI4
aI6
aI2
aI8
aI6
aI12
aI14
aI10
aI4
aI10
aI4
aI4
aI6
aI6
aI2
aI2
aI2
aI4
aI2
aI2
aI2
aI2
aI4
aI10
aI6
aI2
aI8
aI6
aI4
aI2
aI4
aI2
aI4
aI14
aI10
aI14
aI2
aI2
aI2
aI10
aI2
aI2
aI2
aI14
aI8
aI10
aI4
aI6
aI2
aI4
aI8
aI4
aI2
aI2
aI2
aI2
aI10
aI6
aI8
aI2
aI8
aI10
aI10
aI14
aI16
aI4
aI6
aI2
aI4
aI2
aI2
aI2
aI10
aI6
aI2
aI14
aI8
aI2
aI4
aI6
aI2
aI10
aI2
aI8
aI6
aI6
aI14
aI10
aI10
aI4
aI16
aI4
aI2
aI10
aI4
aI2
aI12
aI2
aI6
aI2
aI2
aI2
aI10
aI2
aI10
aI2
aI10
aI4
aI12
aI8
aI14
aI2
aI2
aI14
aI2
aI2
aI12
aI4
aI2
aI2
aI2
aI8
aI2
aI6
aI8
aI10
aI2
aI12
aI6
aI4
aI6
aI8
aI14
aI2
aI14
aI4
aI2
aI2
aI2
aI2
aI8
aI2
aI2
aI2
aI10
aI8
aI4
aI2
aI10
aI2
aI4
aI2
aI2
aI6
aI2
aI8
aI2
aI12
aI6
aI8
aI6
aI4
aI2
aI6
aI8
aI2
aI16
aI2
aI6
aI4
aI2
aI2
aI4
aI2
aI6
aI6
aI2
aI4
aI4
asS'num_nodes'
p7
(lp8
I8
aI1
aI2
aI10
aI1
aI1
aI1
aI12
aI10
aI1
aI11
aI3
aI3
aI1
aI10
aI3
aI2
aI11
aI1
aI8
aI7
aI32
aI1
aI5
aI2
aI13
aI14
aI1
aI1
aI7
aI3
aI8
aI6
aI3
aI1
aI4
aI8
aI25
aI8
aI3
aI2
aI1
aI2
aI1
aI1
aI1
aI4
aI8
aI1
aI3
aI8
aI2
aI3
aI8
aI2
aI2
aI4
aI4
aI5
aI1
aI6
aI3
aI6
aI2
aI4
aI2
aI3
aI6
aI3
aI117
aI8
aI3
aI7
aI1
aI8
aI1
aI3
aI4
aI1
aI1
aI1
aI35
aI2
aI2
aI6
aI5
aI5
aI1
aI4
aI6
aI12
aI1
aI1
aI1
aI3
aI11
aI1
aI20
aI2
aI10
aI9
aI2
aI2
aI2
aI14
aI1
aI7
aI8
aI8
aI7
aI1
aI3
aI6
aI3
aI41
aI1
aI1
aI1
aI5
aI1
aI3
aI1
aI1
aI7
aI2
aI7
aI3
aI2
aI1
aI3
aI1
aI8
aI3
aI4
aI8
aI1
aI46
aI7
aI8
aI9
aI1
aI1
aI7
aI4
aI1
aI1
aI1
aI8
aI2
aI3
aI3
aI1
aI1
aI6
aI16
aI1
aI1
aI1
aI7
aI1
aI4
aI8
aI16
aI4
aI85
aI2
aI3
aI11
aI12
aI3
aI1
aI5
aI6
aI3
aI3
aI1
aI1
aI3
aI8
aI1
aI9
aI6
aI8
aI8
aI2
aI1
aI1
aI5
aI4
aI6
aI1
aI1
aI5
aI2
aI2
aI1
aI1
aI6
aI2
aI3
aI10
aI1
aI2
aI2
aI6
aI2
aI1
aI2
aI4
aI2
aI7
aI5
aI3
aI4
aI12
aI1
aI6
aI13
aI12
aI6
aI1
aI1
aI1
aI6
aI7
aI1
aI6
aI1
aI10
aI1
aI4
aI10
aI6
aI12
aI5
aI9
aI3
aI4
aI14
aI3
aI8
aI6
aI1
aI2
aI1
aI4
aI1
aI1
aI1
aI10
aI1
aI2
aI3
aI8
aI3
aI1
aI3
aI2
aI7
aI7
aI2
aI1
aI2
aI1
aI7
aI9
aI7
aI3
aI1
aI8
aI15
aI1
aI3
aI1
aI1
aI7
aI2
aI7
aI3
aI8
aI3
aI3
aI7
aI2
aI1
aI4
aI5
aI12
aI6
aI1
aI1
aI14
aI18
aI16
aI5
aI1
aI4
aI2
aI3
aI1
aI4
aI3
aI11
aI7
aI10
aI5
aI2
aI5
aI2
aI4
aI3
aI3
aI1
aI1
aI5
aI2
aI1
aI1
aI1
aI1
aI2
aI5
aI6
aI23
aI3
aI15
aI1
aI28
aI4
aI3
aI2
aI1
aI2
aI1
aI2
aI10
aI5
aI7
aI1
aI1
aI1
aI5
aI1
aI1
aI1
aI7
aI4
aI18
aI5
aI7
aI2
aI3
aI10
aI1
aI2
aI24
aI10
aI2
aI1
aI1
aI1
aI1
aI5
aI3
aI4
aI1
aI4
aI5
aI5
aI12
aI20
aI12
aI2
aI3
aI1
aI2
aI1
aI1
aI1
aI11
aI5
aI3
aI1
aI10
aI4
aI21
aI15
aI1
aI2
aI6
aI31
aI1
aI7
aI1
aI4
aI3
aI3
aI13
aI9
aI5
aI5
aI2
aI8
aI2
aI1
aI5
aI8
aI8
aI2
aI1
aI6
aI1
aI3
aI1
aI1
aI1
aI9
aI1
aI5
aI1
aI8
aI5
aI2
aI6
aI4
aI9
aI1
aI1
aI11
aI31
aI1
aI1
aI8
aI2
aI1
aI1
aI1
aI8
aI4
aI1
aI3
aI4
aI14
aI1
aI9
aI3
aI2
aI3
aI8
aI9
aI1
aI11
aI2
aI10
aI1
aI1
aI1
aI1
aI4
aI1
aI1
aI8
aI19
aI4
aI6
aI1
aI18
aI5
aI1
aI2
aI1
aI1
aI3
aI1
aI4
aI1
aI6
aI3
aI4
aI3
aI2
aI1
aI3
aI4
aI1
aI8
aI8
aI1
aI10
aI3
aI2
aI1
aI1
aI2
aI1
aI3
aI3
aI1
aI2
aI2
asS'times'
p9
(lp10
F1056.5177328586578
aF4.59524393081665
aF20.39845108985901
aF1125.9904589653015
aF5.618058919906616
aF4.666688919067383
aF4.954241991043091
aF569.3058559894562
aF252.47149181365967
aF3.1708059310913086
aF343.79174995422363
aF19.078486919403076
aF23.200324058532715
aF8.696380138397217
aF69.82553005218506
aF27.110697984695435
aF9.982446908950806
aF767.2038509845734
aF11.544883966445923
aF1440.2274360656738
aF51.119343996047974
aF530.7126278877258
aF4.043835163116455
aF30.353224992752075
aF13.013311862945557
aF510.1021509170532
aF553.9336369037628
aF7.5972418785095215
aF4.093008995056152
aF809.9114980697632
aF15.542686939239502
aF204.0194058418274
aF704.6144189834595
aF55.79950499534607
aF4.813070058822632
aF25.51230001449585
aF354.68351006507874
aF461.20428109169006
aF712.2566030025482
aF31.025146007537842
aF13.351647138595581
aF3.924161911010742
aF14.915634155273438
aF4.669708013534546
aF7.613469839096069
aF6.366818904876709
aF27.128567934036255
aF66.69664096832275
aF4.8383400440216064
aF16.439504146575928
aF777.8955547809601
aF14.824740886688232
aF28.231121063232422
aF1008.9566459655762
aF14.814089059829712
aF14.679428100585938
aF22.438345909118652
aF50.175410985946655
aF51.057865142822266
aF5.674596071243286
aF203.54620099067688
aF20.89774990081787
aF1225.431853055954
aF15.01812195777893
aF32.770604848861694
aF11.291815996170044
aF19.08175301551819
aF65.46281099319458
aF22.497584104537964
aF806.8399848937988
aF129.2049548625946
aF18.357059001922607
aF123.75528907775879
aF9.125180959701538
aF570.6057319641113
aF6.710072994232178
aF20.64295792579651
aF25.73519015312195
aF9.394177913665771
aF5.3443238735198975
aF3.2440950870513916
aF518.7173399925232
aF10.521024942398071
aF14.405444860458374
aF911.4797139167786
aF46.473016023635864
aF68.75548219680786
aF5.915209054946899
aF27.753241062164307
aF61.08748698234558
aF657.8915650844574
aF7.278908014297485
aF4.395247936248779
aF6.459561109542847
aF20.78393292427063
aF427.20190596580505
aF8.79009485244751
aF485.7354829311371
aF13.842839002609253
aF365.59542202949524
aF215.82504606246948
aF15.88266897201538
aF15.98837399482727
aF12.042042970657349
aF648.7943341732025
aF3.6388609409332275
aF188.62473392486572
aF281.5104820728302
aF727.9449090957642
aF158.65395379066467
aF5.861570119857788
aF15.529176950454712
aF63.229074001312256
aF16.00575613975525
aF803.3755989074707
aF9.497321844100952
aF7.082320928573608
aF7.733376979827881
aF27.620038986206055
aF7.14283299446106
aF19.847675800323486
aF7.601870059967041
aF5.073725938796997
aF42.959579944610596
aF20.37521505355835
aF1150.3032310009003
aF18.331888914108276
aF17.547752857208252
aF6.590295076370239
aF22.455113172531128
aF5.339817047119141
aF701.6381030082703
aF22.028767108917236
aF25.058058977127075
aF47.61398911476135
aF6.379366874694824
aF1017.2656102180481
aF214.29315280914307
aF840.7330770492554
aF98.90728092193604
aF5.230767011642456
aF2.909822940826416
aF816.9086511135101
aF25.20200490951538
aF4.658529996871948
aF3.768709897994995
aF7.33043098449707
aF502.1973121166229
aF16.834009170532227
aF18.819724082946777
aF19.696218013763428
aF6.6496100425720215
aF9.738770961761475
aF53.5601921081543
aF302.9431941509247
aF7.205297946929932
aF7.67394495010376
aF6.1528379917144775
aF832.3790590763092
aF5.309573173522949
aF41.57079577445984
aF752.5480628013611
aF207.13330006599426
aF31.04738211631775
aF604.5549938678741
aF12.765450954437256
aF22.82905602455139
aF346.29445815086365
aF455.5554268360138
aF29.215211153030396
aF8.868603944778442
aF42.44915199279785
aF112.22825694084167
aF17.866708993911743
aF24.472890853881836
aF4.501431941986084
aF9.621440887451172
aF26.850448846817017
aF1167.7293610572815
aF7.41100001335144
aF972.1565990447998
aF1193.4490349292755
aF310.58119010925293
aF175.55438089370728
aF12.66698694229126
aF5.937276124954224
aF8.048046827316284
aF49.254966020584106
aF38.607640981674194
aF34.25817894935608
aF4.884582042694092
aF5.157374143600464
aF49.29009199142456
aF13.21751594543457
aF14.924196004867554
aF8.341264009475708
aF5.0350120067596436
aF149.89475202560425
aF13.498440980911255
aF18.31460404396057
aF311.7767939567566
aF3.8657097816467285
aF14.67097282409668
aF9.298743963241577
aF53.92124319076538
aF13.91911506652832
aF7.181502819061279
aF14.074725151062012
aF39.61293292045593
aF11.740885972976685
aF49.93886709213257
aF35.63786697387695
aF29.962899923324585
aF31.194080114364624
aF397.0720088481903
aF5.4854981899261475
aF191.85383200645447
aF404.7615718841553
aF703.9951128959656
aF65.53135704994202
aF5.870602130889893
aF4.975646018981934
aF6.040556907653809
aF957.6368110179901
aF1515.4163210391998
aF3.2897160053253174
aF824.8207988739014
aF5.046517848968506
aF927.2880759239197
aF4.5415849685668945
aF40.71556115150452
aF1485.6907999515533
aF75.83459711074829
aF153.5033049583435
aF31.838526964187622
aF193.37447214126587
aF16.164682865142822
aF23.07924485206604
aF389.02515411376953
aF23.311529874801636
aF621.0802960395813
aF57.1166729927063
aF3.5908751487731934
aF16.786201000213623
aF6.02754282951355
aF27.590777158737183
aF8.7955482006073
aF7.008791923522949
aF8.477977991104126
aF740.6060929298401
aF8.58451795578003
aF15.837869882583618
aF15.629935026168823
aF1795.0121669769287
aF23.6112220287323
aF6.464529991149902
aF18.921852827072144
aF13.958086013793945
aF76.01729893684387
aF1011.5729229450226
aF19.956662893295288
aF7.6574859619140625
aF17.28791093826294
aF8.317860126495361
aF850.4297389984131
aF208.2400529384613
aF112.16936683654785
aF37.72789406776428
aF4.870097875595093
aF71.66041898727417
aF994.6054577827454
aF7.2169740200042725
aF20.435175895690918
aF8.248331069946289
aF7.433495044708252
aF142.0278639793396
aF14.19113802909851
aF123.2046468257904
aF19.50343894958496
aF217.9716920852661
aF22.65511918067932
aF17.425135135650635
aF283.5315251350403
aF17.39643883705139
aF4.440536975860596
aF27.081138849258423
aF49.670504093170166
aF940.7995579242706
aF51.56291198730469
aF5.064511060714722
aF3.8570139408111572
aF224.76698803901672
aF679.0494570732117
aF96.92994093894958
aF35.904885053634644
aF6.759055137634277
aF47.764403104782104
aF18.064186096191406
aF28.59299087524414
aF6.490201950073242
aF27.43439292907715
aF19.63387393951416
aF146.82739090919495
aF191.17195391654968
aF734.6244459152222
aF59.78933119773865
aF9.816473007202148
aF63.70645880699158
aF13.16892123222351
aF26.73832893371582
aF25.016114950180054
aF20.39900302886963
aF4.454034090042114
aF7.188758134841919
aF46.996752977371216
aF19.2044620513916
aF6.302059888839722
aF5.051048040390015
aF5.917834997177124
aF6.965283155441284
aF11.118636131286621
aF37.14949107170105
aF620.6214020252228
aF498.66191387176514
aF22.994874954223633
aF656.1720039844513
aF7.322994947433472
aF638.955363035202
aF34.24703097343445
aF21.096219062805176
aF15.325650930404663
aF4.181653022766113
aF11.055649042129517
aF6.241860866546631
aF12.605345010757446
aF79.23523497581482
aF98.4368588924408
aF84.38852095603943
aF3.6758599281311035
aF5.63312292098999
aF5.714969158172607
aF62.84143090248108
aF5.41843581199646
aF8.399733781814575
aF8.468507051467896
aF268.06012415885925
aF51.76115393638611
aF1528.9361369609833
aF62.623175859451294
aF804.7208859920502
aF13.890146970748901
aF19.65347909927368
aF894.1962490081787
aF9.864728927612305
aF16.89472508430481
aF679.3609299659729
aF66.92628192901611
aF17.763394117355347
aF4.742599010467529
aF7.771270036697388
aF7.063491106033325
aF6.816123008728027
aF109.10834193229675
aF20.60006093978882
aF33.49637794494629
aF5.865603923797607
aF29.429336071014404
aF45.83315587043762
aF38.01706504821777
aF132.96713709831238
aF871.3911809921265
aF243.8236198425293
aF9.3749840259552
aF21.494927883148193
aF9.494982957839966
aF14.501183032989502
aF5.273824214935303
aF6.8194050788879395
aF3.6186771392822266
aF1756.2514600753784
aF43.59992504119873
aF21.504755973815918
aF4.839807987213135
aF295.37470388412476
aF25.067058801651
aF519.4466440677643
aF601.1673049926758
aF5.332702159881592
aF13.257421970367432
aF39.6465380191803
aF507.0971109867096
aF6.632347106933594
aF84.0501549243927
aF3.3521039485931396
aF28.458543062210083
aF23.94507098197937
aF27.34117603302002
aF699.6703760623932
aF1002.3170461654663
aF45.36331009864807
aF48.13786602020264
aF15.67992901802063
aF266.27832102775574
aF13.397562026977539
aF5.633359909057617
aF45.12589192390442
aF987.1781978607178
aF1251.262757062912
aF14.533670902252197
aF7.797620058059692
aF70.10424590110779
aF7.3106091022491455
aF20.228116989135742
aF5.825715065002441
aF6.289945840835571
aF9.558640956878662
aF129.98580288887024
aF8.979896068572998
aF38.56096696853638
aF6.524028062820435
aF703.6997320652008
aF52.21126198768616
aF11.285907983779907
aF51.39499282836914
aF37.26435613632202
aF438.96326184272766
aF5.654017925262451
aF6.138516902923584
aF588.7503390312195
aF502.9449830055237
aF5.668454885482788
aF5.6042420864105225
aF385.8593258857727
aF11.771302938461304
aF6.510191917419434
aF4.573719024658203
aF7.60520601272583
aF450.41458010673523
aF26.169027090072632
aF3.4101431369781494
aF19.255353927612305
aF18.864126920700073
aF198.9195339679718
aF11.25404691696167
aF68.66193008422852
aF17.864877939224243
aF15.305276870727539
aF18.229442834854126
aF50.71037197113037
aF90.02467107772827
aF5.6441521644592285
aF103.19216203689575
aF15.278401136398315
aF948.3806118965149
aF6.7933030128479
aF4.329827070236206
aF7.3369300365448
aF4.332023859024048
aF37.32974910736084
aF6.146344900131226
aF11.77756404876709
aF53.824727058410645
aF302.7980999946594
aF37.95637083053589
aF50.221187114715576
aF6.171841859817505
aF953.8476889133453
aF41.07947397232056
aF4.873862028121948
aF23.444520950317383
aF6.7728588581085205
aF5.0147199630737305
aF32.2199170589447
aF9.477473974227905
aF34.275798082351685
aF7.02786111831665
aF138.48114585876465
aF23.92663288116455
aF26.773170948028564
aF34.486090898513794
aF8.472347021102905
aF5.3580310344696045
aF28.76037907600403
aF29.775573015213013
aF8.52783203125
aF382.01899886131287
aF531.1086189746857
aF5.414682865142822
aF720.1789429187775
aF20.402031183242798
aF18.479449033737183
aF4.864182949066162
aF6.211846113204956
aF11.565006971359253
aF6.80522608757019
aF33.156378984451294
aF28.26681113243103
aF8.210626125335693
aF17.465709924697876
aF17.405990839004517
as.