(dp0
S'successes'
p1
(lp2
I01
aI01
aI00
aI00
aI01
aI01
aI01
aI01
aI01
aI00
asS'pidxs'
p3
(lp4
I20004
aI20003
aI20005
aI20000
aI20009
aI20007
aI20002
aI20001
aI20008
aI20006
asS'plan_length'
p5
(lp6
I9
aI1
aI4
aI1
aI7
aI8
aI2
asS'num_nodes'
p7
(lp8
I46
aI1
aI39
aI30
aI11
aI1
aI25
aI28
aI3
aI44
asS'times'
p9
(lp10
F198.17564296722412
aF37.31050086021423
aF355.07906103134155
aF301.3598051071167
aF150.97148990631104
aF5.726410865783691
aF141.83216881752014
aF205.19480895996094
aF36.97107005119324
aF302.535236120224
as.