(dp0
S'successes'
p1
(lp2
I01
aI01
aI01
aI01
aI01
aI01
aI01
aI00
aI01
aI01
aI01
aI00
aI00
aI00
aI00
aI01
aI00
aI01
aI01
aI00
aI01
aI01
aI00
aI01
aI01
aI01
aI01
aI01
aI01
aI01
aI01
aI00
aI00
aI01
aI01
aI00
aI00
aI01
aI01
aI00
aI00
aI00
aI01
aI01
aI01
aI01
aI00
aI00
aI00
aI01
aI00
aI01
aI00
aI00
aI01
aI01
aI01
aI01
aI00
aI00
aI01
aI00
aI01
aI01
aI00
aI00
aI01
aI01
aI00
aI00
aI01
aI01
aI01
aI00
aI00
aI00
aI01
aI00
aI01
aI01
aI01
aI00
aI00
aI01
aI01
aI00
aI01
aI01
aI01
aI00
aI01
aI00
aI01
aI01
aI01
aI01
aI01
aI00
aI01
aI01
aI01
aI00
aI01
aI01
aI00
aI00
aI01
aI00
aI00
aI01
aI01
aI01
aI01
aI01
aI01
aI00
aI00
aI00
aI00
aI01
aI01
aI00
aI01
aI00
aI01
aI00
aI00
aI01
aI01
aI01
aI00
aI01
aI00
aI00
aI00
aI00
aI00
aI00
aI00
aI00
aI00
aI01
aI00
aI00
aI00
aI01
aI01
aI00
aI01
aI01
aI01
aI00
aI00
aI00
aI01
aI00
aI00
aI01
aI01
aI00
aI01
aI00
aI01
aI01
aI01
aI01
aI01
aI01
aI00
aI01
aI01
aI01
aI00
aI01
aI00
aI00
aI01
aI01
aI00
aI01
aI00
aI01
aI00
aI00
aI01
aI01
aI00
aI01
aI01
aI00
aI01
aI00
aI00
aI01
aI01
aI01
aI01
aI01
aI01
aI01
aI01
aI01
aI01
aI00
aI00
aI01
aI00
aI01
aI00
aI01
aI00
aI01
aI00
aI01
aI00
aI00
aI01
aI01
aI01
aI01
aI00
aI01
aI00
aI00
aI00
aI00
aI00
aI01
aI01
aI00
aI00
aI01
aI01
aI01
aI01
aI01
aI01
aI00
aI01
aI00
aI01
aI01
aI01
aI01
aI01
asS'pidxs'
p3
(lp4
I20018
aI20016
aI20042
aI20025
aI20018
aI20014
aI20025
aI20021
aI20020
aI20024
aI20029
aI20011
aI20015
aI20006
aI20001
aI20035
aI20037
aI20024
aI20029
aI20040
aI20026
aI20028
aI20005
aI20026
aI20018
aI20007
aI20028
aI20010
aI20019
aI20029
aI20039
aI20015
aI20047
aI20016
aI20032
aI20011
aI20002
aI20048
aI20020
aI20038
aI20021
aI20038
aI20035
aI20034
aI20019
aI20036
aI20030
aI20015
aI20001
aI20028
aI20046
aI20018
aI20027
aI20021
aI20049
aI20035
aI20010
aI20044
aI20038
aI20034
aI20014
aI20021
aI20012
aI20016
aI20011
aI20002
aI20044
aI20042
aI20037
aI20027
aI20033
aI20022
aI20031
aI20008
aI20003
aI20037
aI20048
aI20043
aI20000
aI20007
aI20016
aI20009
aI20040
aI20012
aI20010
aI20040
aI20025
aI20049
aI20041
aI20040
aI20018
aI20023
aI20014
aI20041
aI20029
aI20000
aI20017
aI20003
aI20033
aI20033
aI20039
aI20013
aI20012
aI20029
aI20038
aI20005
aI20048
aI20030
aI20043
aI20019
aI20049
aI20025
aI20028
aI20032
aI20016
aI20001
aI20015
aI20037
aI20047
aI20026
aI20020
aI20027
aI20024
aI20002
aI20044
aI20009
aI20046
aI20042
aI20036
aI20031
aI20017
aI20045
aI20001
aI20006
aI20043
aI20023
aI20003
aI20005
aI20006
aI20037
aI20004
aI20010
aI20006
aI20047
aI20009
aI20022
aI20033
aI20034
aI20008
aI20000
aI20020
aI20040
aI20009
aI20017
aI20036
aI20015
aI20030
aI20012
aI20000
aI20002
aI20022
aI20009
aI20045
aI20031
aI20044
aI20031
aI20035
aI20039
aI20030
aI20032
aI20024
aI20012
aI20021
aI20004
aI20046
aI20047
aI20020
aI20014
aI20046
aI20007
aI20011
aI20048
aI20003
aI20017
aI20024
aI20025
aI20043
aI20031
aI20007
aI20013
aI20039
aI20034
aI20002
aI20042
aI20036
aI20032
aI20013
aI20043
aI20042
aI20026
aI20034
aI20041
aI20026
aI20046
aI20006
aI20041
aI20023
aI20035
aI20005
aI20048
aI20003
aI20045
aI20004
aI20014
aI20004
aI20030
aI20045
aI20033
aI20041
aI20000
aI20023
aI20036
aI20047
aI20038
aI20005
aI20001
aI20011
aI20049
aI20032
aI20023
aI20027
aI20028
aI20049
aI20019
aI20022
aI20044
aI20019
aI20027
aI20045
aI20013
aI20010
aI20004
aI20039
aI20022
aI20007
asS'plan_length'
p5
(lp6
I1
aI1
aI1
aI1
aI1
aI1
aI1
aI1
aI1
aI1
aI1
aI1
aI1
aI1
aI1
aI1
aI1
aI1
aI1
aI1
aI1
aI1
aI1
aI1
aI1
aI1
aI1
aI1
aI1
aI1
aI1
aI1
aI1
aI1
aI1
aI1
aI1
aI1
aI1
aI1
aI1
aI1
aI1
aI1
aI1
aI1
aI1
aI1
aI1
aI1
aI1
aI1
aI1
aI1
aI1
aI1
aI1
aI1
aI1
aI1
aI1
aI1
aI1
aI1
aI1
aI1
aI1
aI1
aI1
aI1
aI1
aI1
aI1
aI1
aI1
aI1
aI1
aI1
aI1
aI1
aI1
aI1
aI1
aI1
aI1
aI1
aI1
aI1
aI1
aI1
aI1
aI1
aI1
aI1
aI1
aI1
aI1
aI1
aI1
aI2
aI1
aI1
aI1
aI1
aI1
aI1
aI1
aI1
aI1
aI1
aI1
aI1
aI1
aI1
aI1
aI1
aI1
aI1
aI1
aI1
aI1
aI1
aI1
aI1
aI1
aI1
aI1
aI1
aI1
aI1
aI1
aI1
aI1
aI1
aI1
aI1
aI1
aI1
aI1
aI2
aI1
aI1
aI1
asS'num_nodes'
p7
(lp8
I1
aI1
aI1
aI1
aI1
aI1
aI1
aI2
aI1
aI1
aI1
aI1
aI2
aI1
aI0
aI1
aI0
aI1
aI1
aI0
aI1
aI1
aI1
aI1
aI1
aI1
aI1
aI1
aI1
aI1
aI1
aI2
aI1
aI1
aI1
aI1
aI2
aI1
aI1
aI0
aI1
aI0
aI1
aI1
aI1
aI1
aI2
aI1
aI0
aI1
aI2
aI1
aI0
aI1
aI1
aI1
aI1
aI1
aI0
aI1
aI1
aI1
aI1
aI1
aI1
aI1
aI1
aI1
aI0
aI0
aI1
aI1
aI1
aI2
aI1
aI0
aI1
aI2
aI1
aI1
aI1
aI1
aI0
aI1
aI1
aI0
aI1
aI1
aI1
aI0
aI1
aI1
aI1
aI1
aI1
aI1
aI1
aI2
aI1
aI1
aI1
aI3
aI1
aI1
aI0
aI1
aI1
aI1
aI1
aI1
aI1
aI1
aI1
aI1
aI1
aI0
aI1
aI0
aI1
aI1
aI1
aI0
aI1
aI2
aI1
aI1
aI1
aI1
aI1
aI1
aI2
aI1
aI0
aI1
aI2
aI1
aI2
aI1
aI1
aI0
aI1
aI1
aI1
aI1
aI1
aI1
aI1
aI1
aI1
aI1
aI1
aI0
aI2
aI2
aI1
aI2
aI2
aI1
aI1
aI1
aI1
aI1
aI1
aI1
aI1
aI1
aI1
aI1
aI1
aI1
aI1
aI1
aI2
aI2
aI1
aI1
aI1
aI1
aI2
aI1
aI1
aI1
aI1
aI1
aI1
aI1
aI1
aI1
aI1
aI3
aI1
aI1
aI1
aI1
aI1
aI1
aI1
aI1
aI1
aI1
aI1
aI1
aI1
aI1
aI1
aI1
aI1
aI1
aI1
aI1
aI2
aI1
aI2
aI1
aI3
aI1
aI1
aI1
aI1
aI1
aI1
aI1
aI0
aI0
aI1
aI0
aI1
aI1
aI1
aI1
aI0
aI1
aI1
aI1
aI1
aI1
aI1
aI0
aI1
aI1
aI1
aI2
aI1
aI1
aI1
asS'times'
p9
(lp10
F351.4566581249237
aF455.238942861557
aF292.9389741420746
aF287.70698499679565
aF358.9590837955475
aF306.87664699554443
aF325.1297369003296
aF404.08399295806885
aF305.0218451023102
aF310.9328670501709
aF284.90014815330505
aF321.0830178260803
aF395.30898785591125
aF498.3334159851074
aF795.9922080039978
aF280.85541820526123
aF715.8474049568176
aF325.2835569381714
aF307.6571500301361
aF361.18001198768616
aF282.1622450351715
aF313.7639138698578
aF349.69664311408997
aF285.4451308250427
aF290.97773790359497
aF323.7608540058136
aF334.631098985672
aF294.92641401290894
aF366.02547097206116
aF284.5239179134369
aF395.7518129348755
aF415.37724804878235
aF741.0433979034424
aF323.75887298583984
aF271.55088210105896
aF334.99602699279785
aF439.10608100891113
aF302.27682518959045
aF282.54333090782166
aF709.1443297863007
aF320.1276879310608
aF723.6560039520264
aF309.0668249130249
aF288.07774806022644
aF416.64954900741577
aF433.1914749145508
aF398.53112721443176
aF334.70933294296265
aF765.3769018650055
aF339.17089080810547
aF409.6957290172577
aF323.80612802505493
aF432.237193107605
aF323.11295199394226
aF304.26975893974304
aF273.46220803260803
aF308.6360750198364
aF287.80793809890747
aF722.768189907074
aF316.1436400413513
aF282.92497301101685
aF309.42696499824524
aF287.7437081336975
aF278.88054299354553
aF305.7064440250397
aF419.5070011615753
aF334.65510296821594
aF288.6144001483917
aF665.5838980674744
aF415.61682415008545
aF330.61466908454895
aF309.86342692375183
aF325.73183608055115
aF414.45227003097534
aF302.18184995651245
aF666.6767330169678
aF350.4725489616394
aF402.4179890155792
aF395.60680890083313
aF269.72800397872925
aF336.51156878471375
aF344.90643095970154
aF369.4966690540314
aF275.86068201065063
aF349.99481201171875
aF358.72960782051086
aF356.51541018486023
aF359.85906291007996
aF476.17693996429443
aF360.8462779521942
aF286.5609700679779
aF390.1425271034241
aF344.1945250034332
aF511.81381392478943
aF290.8372149467468
aF394.76759600639343
aF327.31002593040466
aF377.23259115219116
aF505.01346492767334
aF302.30289101600647
aF319.34267711639404
aF388.1311500072479
aF276.30686807632446
aF332.7877640724182
aF796.2296359539032
aF508.7228729724884
aF308.33578610420227
aF310.42960810661316
aF384.1711690425873
aF331.7581298351288
aF290.8786211013794
aF315.8020179271698
aF338.93387484550476
aF290.87104201316833
aF305.91201186180115
aF781.3655178546906
aF364.0629291534424
aF696.2960689067841
aF531.3406128883362
aF314.84943199157715
aF333.99173498153687
aF401.0689380168915
aF310.5129179954529
aF404.0120098590851
aF322.3699400424957
aF332.3304331302643
aF309.71101689338684
aF298.38891792297363
aF433.36722683906555
aF278.16213607788086
aF401.08135199546814
aF301.2679491043091
aF714.5846300125122
aF605.8150010108948
aF409.3715851306915
aF360.4310448169708
aF368.3777689933777
aF320.9580137729645
aF312.7922320365906
aF712.1816091537476
aF344.7413549423218
aF391.86374592781067
aF329.4205639362335
aF567.6936709880829
aF320.51703810691833
aF293.65662002563477
aF380.9309549331665
aF360.9863839149475
aF293.1047787666321
aF349.8817811012268
aF314.94274616241455
aF357.7181808948517
aF454.25629591941833
aF415.0379128456116
aF446.15644907951355
aF404.31840896606445
aF397.6334550380707
aF291.72802782058716
aF354.80064392089844
aF343.87957096099854
aF306.5671401023865
aF319.07563304901123
aF299.1684868335724
aF288.30837988853455
aF288.8468270301819
aF291.8415038585663
aF285.113196849823
aF319.9783570766449
aF320.22177600860596
aF357.9580729007721
aF301.3575859069824
aF272.26353001594543
aF402.63620805740356
aF411.59749484062195
aF325.9204239845276
aF565.2192549705505
aF317.04183292388916
aF311.3914430141449
aF389.5203640460968
aF287.8998830318451
aF337.31083607673645
aF300.42710399627686
aF322.21376299858093
aF339.851665019989
aF326.1515760421753
aF344.8187029361725
aF306.6403911113739
aF294.16340494155884
aF317.24965381622314
aF371.1653411388397
aF539.4612610340118
aF301.61112785339355
aF333.396733045578
aF287.39373993873596
aF472.36294889450073
aF272.9555411338806
aF335.42635798454285
aF280.45201992988586
aF319.17166686058044
aF318.30166506767273
aF290.09798192977905
aF554.7952799797058
aF323.9233911037445
aF306.5999879837036
aF301.4932961463928
aF455.3553807735443
aF341.7938640117645
aF286.00680208206177
aF304.1400589942932
aF324.212788105011
aF401.30797004699707
aF306.21101999282837
aF405.7124021053314
aF284.4226839542389
aF566.5991849899292
aF331.5700788497925
aF296.4585511684418
aF291.63462710380554
aF465.45287799835205
aF332.86999011039734
aF316.9577639102936
aF523.3534181118011
aF306.4670310020447
aF799.275768995285
aF307.96253085136414
aF804.6576819419861
aF316.8365659713745
aF379.2135660648346
aF318.8723452091217
aF319.18852400779724
aF401.29679703712463
aF317.4808828830719
aF411.0045669078827
aF330.26428508758545
aF311.8060550689697
aF280.4380919933319
aF333.96461391448975
aF378.1393618583679
aF341.7316138744354
aF301.0101568698883
aF297.3243670463562
aF397.0967619419098
aF358.72339606285095
aF309.4907670021057
aF307.8604381084442
as.