(itrajectory_representation.shortest_path_pick_and_place_state
ShortestPathPaPState
p0
(dp1
S'place_used'
p2
(dp3
(Vrectangular_packing_box1
p4
S'loading_region'
p5
tp6
(itrajectory_representation.operator
Operator
p7
(dp8
S'is_skeleton'
p9
I01
sS'discrete_parameters'
p10
(dp11
S'region'
p12
g5
sS'object'
p13
g4
ssS'type'
p14
S'two_arm_place'
p15
sS'continuous_parameters'
p16
(dp17
S'q_goal'
p18
cnumpy.core.multiarray
_reconstruct
p19
(cnumpy
ndarray
p20
(I0
tp21
S'b'
p22
tp23
Rp24
(I1
(I3
tp25
cnumpy
dtype
p26
(S'f8'
p27
I0
I1
tp28
Rp29
(I3
S'<'
p30
NNNI-1
I-1
I0
tp31
bI00
S'\x80\x89]\x1f\xdd\x05\xf8?`\xfdt\x81+\xad\x1d\xc0|b\x17%S\x91\xd4\xbf'
p32
tp33
bssS'low_level_motion'
p34
(lp35
g19
(g20
(I0
tp36
g22
tp37
Rp38
(I1
(I3
tp39
g29
I00
S'\x18\xb4\xe4\xc4\x8f8\xfa?\xb4\x87\xfe\xaa\x1d\xc9\x1a\xc0\x9dn\x9cC=\x86\xf9?'
p40
tp41
bag19
(g20
(I0
tp42
g22
tp43
Rp44
(I1
(I3
tp45
g26
(S'f8'
p46
I0
I1
tp47
Rp48
(I3
S'<'
p49
NNNI-1
I-1
I0
tp50
bI00
S'\xad\xa0\xdfFH\xe9\xf6?\xa3\xfc\x14D\x8bb\x1d\xc0\x9e2hH\xc0\xe5\xf0?'
p51
tp52
bag19
(g20
(I0
tp53
g22
tp54
Rp55
(I1
(I3
tp56
g48
I00
S'\tAsXx\r\x00@F^\x05/\xfdK\x1d\xc0~\xbbB\x0f\xbe\xe6\xd2?'
p57
tp58
bag24
ag24
asbs(Vsquare_packing_box3
p59
g5
tp60
(itrajectory_representation.operator
Operator
p61
(dp62
g9
I01
sg10
(dp63
g12
g5
sg13
g59
ssg14
g15
sg16
(dp64
g18
g19
(g20
(I0
tp65
g22
tp66
Rp67
(I1
(I3
tp68
g29
I00
S'\x03\xd8\xb2\xb0\xf3\x01\x0c@G\xad\xdc\xca\xb1\x89\x1c\xc0\xff\x8e\xc1\xf2\xea\x94\xf5\xbf'
p69
tp70
bssg34
(lp71
g19
(g20
(I0
tp72
g22
tp73
Rp74
(I1
(I3
tp75
g29
I00
S'\xcc\x8e\xa7\x80\x98j\x05@\xb3\x02\xf6\xcb.\x1e\x1d\xc0\x80N\xe6\x8c\xd3\xb5\xe5\xbf'
p76
tp77
bag19
(g20
(I0
tp78
g22
tp79
Rp80
(I1
(I3
tp81
g48
I00
S';\x94\xb3\x9e!v\x07@\xeeQ\x93*@\xfa\x1c\xc0\xfd|\x9b\xb9"Y\x18@'
p82
tp83
bag19
(g20
(I0
tp84
g22
tp85
Rp86
(I1
(I3
tp87
g48
I00
S'S\xb5\xd0\x1cl\xf0\x0c@>\x04.\xd9\xd9\xa1\x1c\xc0|\x85\x1fUEk\xf8\xbf'
p88
tp89
bag67
ag67
asbs(Vrectangular_packing_box4
p90
g5
tp91
(itrajectory_representation.operator
Operator
p92
(dp93
g9
I01
sg10
(dp94
g12
g5
sg13
g90
ssg14
g15
sg16
(dp95
g18
g19
(g20
(I0
tp96
g22
tp97
Rp98
(I1
(I3
tp99
g29
I00
S'\x1b\x1dt\xe3&\x98\x02@\xf7\x8f\xd3\xf9k\xd3\x1d\xc0\xb1\xe0"-\xb3\x9b\xf6\xbf'
p100
tp101
bssg34
(lp102
g19
(g20
(I0
tp103
g22
tp104
Rp105
(I1
(I3
tp106
g29
I00
S'\xb0\x02+\xb8\x18d\xe7?"\x86\xe2\xa7w\xdd\x1a\xc09N\nE\xf2\xcc\xfb?'
p107
tp108
bag19
(g20
(I0
tp109
g22
tp110
Rp111
(I1
(I3
tp112
g48
I00
S'*4\xc9\xb1\x13|\xf5?=~n\xf8\xb0\xf9\x1b\xc0\x97\x8e\x14L\xfds\x01@'
p113
tp114
bag19
(g20
(I0
tp115
g22
tp116
Rp117
(I1
(I3
tp118
g48
I00
S'zT\r\xfe&\xfe\xfd?~,i\xf5\xe3\x9c\x1d\xc0\xe2\x1a4?SB\x15@'
p119
tp120
bag98
ag98
asbs(Vsquare_packing_box4
p121
g5
tp122
(itrajectory_representation.operator
Operator
p123
(dp124
g9
I01
sg10
(dp125
g12
g5
sg13
g121
ssg14
g15
sg16
(dp126
g18
g19
(g20
(I0
tp127
g22
tp128
Rp129
(I1
(I3
tp130
g29
I00
S'\x08P\xf5\xf0\xa9\x8c\xff?\xfa\x0c\x1bC\xde\xf7\x1f\xc0\xa3#!?\xb6k\x07@'
p131
tp132
bssg34
(lp133
g19
(g20
(I0
tp134
g22
tp135
Rp136
(I1
(I3
tp137
g29
I00
S'hl\x7fnD\xac\xe5?|V\x99e\xa9t\x14\xc0\xe2Wji\x93\xe6\xf6\xbf'
p138
tp139
bag19
(g20
(I0
tp140
g22
tp141
Rp142
(I1
(I3
tp143
g48
I00
S'\xac\xb4\xd5\x83\xbb\xf9\xe0?\xe1\x80\xe9+%\xe6\x16\xc0<\xd6N\xab\x06\xcc\xf7\xbf'
p144
tp145
bag19
(g20
(I0
tp146
g22
tp147
Rp148
(I1
(I3
tp149
g48
I00
S'\xfe\xcb\x95>\x9aG\xe1?\xc8?\x9f\xd9\xb8\xe7\x19\xc0\xdb\x1a;\xf0\x837\xfe?'
p150
tp151
bag19
(g20
(I0
tp152
g22
tp153
Rp154
(I1
(I3
tp155
g48
I00
S'\xaf3:\xca\x05\xfa\xee?\x17\xfeO1BH\x1c\xc0&\xc3FV\xf0\xcb\xf7?'
p156
tp157
bag19
(g20
(I0
tp158
g22
tp159
Rp160
(I1
(I3
tp161
g48
I00
S'S@\xf8l\x95\x08\xf8?\xef\x91If\xa4L\x1e\xc0\x8b\xc5pa\xf4C\x04\xc0'
p162
tp163
bag129
ag129
asbs(Vsquare_packing_box1
p164
S'home_region'
p165
tp166
(itrajectory_representation.operator
Operator
p167
(dp168
g9
I01
sg10
(dp169
g12
g165
sg13
g164
ssg14
g15
sg16
(dp170
g18
g19
(g20
(I0
tp171
g22
tp172
Rp173
(I1
(I3
tp174
g29
I00
S'h\xcf\x9b\xcbmu\xe8?~\xf7\xef\xb9&\xe9\xfd\xbf\xfeZ#@\x82\xd7\xf9\xbf'
p175
tp176
bssg34
(lp177
g19
(g20
(I0
tp178
g22
tp179
Rp180
(I1
(I3
tp181
g29
I00
S'8\xb0\x90)g\xcd\x06@dOn1\xd8M\x16\xc0\xb2}\xbc\xa0\xbdm\xa6?'
p182
tp183
bag19
(g20
(I0
tp184
g22
tp185
Rp186
(I1
(I3
tp187
g48
I00
S'\xfe\xe8\x18\xb9\x80t\x02@\xc8\xc9\x8bB\xfe\x86\x16\xc0\x19\xcf\xcc\xc3%!\x9e\xbf'
p188
tp189
bag19
(g20
(I0
tp190
g22
tp191
Rp192
(I1
(I3
tp193
g48
I00
S'\x00\xda\x1c<\xfd\xdc\x00@j"\x91\xe3 \x1a\x18\xc0i~!@)\xb0\xdc\xbf'
p194
tp195
bag19
(g20
(I0
tp196
g22
tp197
Rp198
(I1
(I3
tp199
g48
I00
S'v%D\x97w\xd1\xf7?Z\xadP\x90\x08<\x17\xc0-\xca\x8a\t\xe2p\xe7\xbf'
p200
tp201
bag19
(g20
(I0
tp202
g22
tp203
Rp204
(I1
(I3
tp205
g48
I00
S'tx\x8as\xa8b\xed?\x9ej\x15\xfa\xf0{\x15\xc0@\xed\x9a-\x9eD\xf2\xbf'
p206
tp207
bag19
(g20
(I0
tp208
g22
tp209
Rp210
(I1
(I3
tp211
g48
I00
S'l[\xc4\x16<\xe6\xe9?\xa6\xa0\x90\x84X\x9f\x13\xc0\xc2\xd74Q\x00\xaf\xff\xbf'
p212
tp213
bag19
(g20
(I0
tp214
g22
tp215
Rp216
(I1
(I3
tp217
g48
I00
S"\xaeJ\xbd\x1936\xec?\x04\x13\xd4'\x9f\x88\x10\xc0\x805qo\xb6\xe6\xff\xbf"
p218
tp219
bag19
(g20
(I0
tp220
g22
tp221
Rp222
(I1
(I3
tp223
g48
I00
S'\xf09\xb6\x1c*\x86\xee?\xc4\n/\x96\xcb\xe3\n\xc0\xa0\xc9\xd6F6\x0f\x00\xc0'
p224
tp225
bag19
(g20
(I0
tp226
g22
tp227
Rp228
(I1
(I3
tp229
g48
I00
S'\x99\x94\xd7\x8f\x10k\xf0?\x7f\xef\xb5\xdcX\xb6\x04\xc0~\xf8\xf4U\x11+\x00\xc0'
p230
tp231
bag173
ag173
asbs(Vrectangular_packing_box2
p232
g5
tp233
(itrajectory_representation.operator
Operator
p234
(dp235
g9
I01
sg10
(dp236
g12
g5
sg13
g232
ssg14
g15
sg16
(dp237
g18
g19
(g20
(I0
tp238
g22
tp239
Rp240
(I1
(I3
tp241
g29
I00
S'\xa4\x06\xac\xc2\xe2\xa3\x06@\xe4\x1a\xba\xe4 \x0e\x17\xc0\xdd\x1e\x15\x0e\x0cj\xf5\xbf'
p242
tp243
bssg34
(lp244
g19
(g20
(I0
tp245
g22
tp246
Rp247
(I1
(I3
tp248
g29
I00
S'\x1a\n\xaedR\xb9\x06@Z\x02\x88\xad\xe9y\x18\xc0\xc3s\x01\xdf\x05\xeb\x0b@'
p249
tp250
bag19
(g20
(I0
tp251
g22
tp252
Rp253
(I1
(I3
tp254
g48
I00
S'\xcb\x1a\x84\x1d\\\x9c\x08@\xec\xcbi\xc9#;\x18\xc0\xbf\xf24g\x02T\x05@'
p255
tp256
bag19
(g20
(I0
tp257
g22
tp258
Rp259
(I1
(I3
tp260
g48
I00
S'P\x9d\xdf\x99\xa6e\x04@\x1c`\xb6c\x8e7\x19\xc0@\xf2\xef\xc5\xd3\xc8\x17@'
p261
tp262
bag240
ag240
asbssS'place_in_way'
p263
(itrajectory_representation.predicates.place_in_way
PlaceInWay
p264
(dp265
S'mc_path_to_entity'
p266
(dp267
(Vrectangular_packing_box3
p268
S'home_region'
p269
tp270
(lp271
g19
(g20
(I0
tp272
g22
tp273
Rp274
(I1
(I3
tp275
g26
(S'f8'
p276
I0
I1
tp277
Rp278
(I3
S'<'
p279
NNNI-1
I-1
I0
tp280
bI00
S'\xd4Z\x82\x08\x1a)\xe8?\x9d\xc4\xf5o\t\xa7\x1e\xc0\xd60\x90\xbc\xce-\x05@'
p281
tp282
bag19
(g20
(I0
tp283
g22
tp284
Rp285
(I1
(I3
tp286
g26
(S'f8'
p287
I0
I1
tp288
Rp289
(I3
S'<'
p290
NNNI-1
I-1
I0
tp291
bI00
S'\x0c\x0f=\x82\xe8\x10\xef?\x95;\xd2\x17&\xe7\x1b\xc0\xf2\xbb\xbd\xb4q\x0b\t@'
p292
tp293
bag19
(g20
(I0
tp294
g22
tp295
Rp296
(I1
(I3
tp297
g289
I00
S'\xae\xea\x9e\xa3\xa2\xb1\xed?\xa4\xca\x1d?h\x96\x19\xc0dq\xdf\xb1\x9d\xe4\x05@'
p298
tp299
bag19
(g20
(I0
tp300
g22
tp301
Rp302
(I1
(I3
tp303
g289
I00
S'o\xd6\x82\xea\x7f\xb2\xed?9\xf2C\x0b?\xfd\x16\xc0(?d\xe9@\xb5\x02@'
p304
tp305
bag19
(g20
(I0
tp306
g22
tp307
Rp308
(I1
(I3
tp309
g289
I00
S'&>c9\x01,\xeb?\xb2\xc2\xf0\x02\xce\x8e\x14\xc0\xd8p\xbb2\x14\xd2\x03@'
p310
tp311
bag19
(g20
(I0
tp312
g22
tp313
Rp314
(I1
(I3
tp315
g289
I00
S'\xc6\x05\xbdtg\xd9\xe2?F\xdf\x9d@\\\xf3\x11\xc0\x1a\xc4.\xbb\xcc\x12\x02@'
p316
tp317
bag19
(g20
(I0
tp318
g22
tp319
Rp320
(I1
(I3
tp321
g289
I00
S'3z\xed\x8eN)\xe4?\x0c\x96\xd4\xa2\x0e\xd0\r\xc0\xbd%\xf5{\xe9\xf9\x03@'
p322
tp323
bag19
(g20
(I0
tp324
g22
tp325
Rp326
(I1
(I3
tp327
g289
I00
S'\xaf0\xe9h\xba~\xee?k\xbb\xd8\xd4\xd0g\t\xc09\x9ey\xed\xb06\x06@'
p328
tp329
bag19
(g20
(I0
tp330
g22
tp331
Rp332
(I1
(I3
tp333
g289
I00
S'\xf4\xfdJ\x1a(#\xec?H"\x9cD\x1aE\x05\xc0.\xa9\x0b\x87\xf8\xe1\x02@'
p334
tp335
bas(Vrectangular_packing_box4
p336
g269
tp337
(lp338
g19
(g20
(I0
tp339
g22
tp340
Rp341
(I1
(I3
tp342
g278
I00
S'\x88\x02+\xb8\x18d\xe7?/\x86\xe2\xa7w\xdd\x1a\xc04N\nE\xf2\xcc\xfb?'
p343
tp344
bag19
(g20
(I0
tp345
g22
tp346
Rp347
(I1
(I3
tp348
g289
I00
S'B\x9aa8\x98\xa6\xe8?\xf3\xe9\x94/\xc2\xe4\x18\xc0u\xf8\xb0\x7fO\xb8\xf2?'
p349
tp350
bag19
(g20
(I0
tp351
g22
tp352
Rp353
(I1
(I3
tp354
g289
I00
S'\xd8\x87\x03p)T\xe4?\xd5\xabI\xb7V\xd0\x15\xc0vWg\x9a\x87\x8a\xec?'
p355
tp356
bag19
(g20
(I0
tp357
g22
tp358
Rp359
(I1
(I3
tp360
g289
I00
S'\xa9\xd9\x1d\x8d\xa6j\xdf?\xa0\x85\x1a\x84\xc6\xec\x12\xc0\x01\xb6 H\xb1\x91\xeb?'
p361
tp362
bag19
(g20
(I0
tp363
g22
tp364
Rp365
(I1
(I3
tp366
g289
I00
S'\x93k\xbc\xee\xc2\x10\xe8?\xab^\x86?\x08D\x10\xc0\x10;2\x00\xe5\t\xde?'
p367
tp368
bag19
(g20
(I0
tp369
g22
tp370
Rp371
(I1
(I3
tp372
g289
I00
S'\xef\xc3u*\xfb\xdb\xeb?\x8d\xa5\n\xfd\x03<\n\xc0\xd8\xfb\xde\x16R\xac\xde?'
p373
tp374
bag19
(g20
(I0
tp375
g22
tp376
Rp377
(I1
(I3
tp378
g289
I00
S'\xf4\xfdJ\x1a(#\xec?H"\x9cD\x1aE\x05\xc0.\xa9\x0b\x87\xf8\xe1\x02@'
p379
tp380
bas(Vsquare_packing_box1
p381
g269
tp382
(lp383
g19
(g20
(I0
tp384
g22
tp385
Rp386
(I1
(I3
tp387
g278
I00
S'<\xb0\x90)g\xcd\x06@nOn1\xd8M\x16\xc0\xda}\xbc\xa0\xbdm\xa6?'
p388
tp389
bag19
(g20
(I0
tp390
g22
tp391
Rp392
(I1
(I3
tp393
g289
I00
S'\x19\xdbXU\x9c\xa8\x04@\xe6\xf1\xeb\xae\xcb\x05\x18\xc0\xce\x9cp\x98\xaf*\xeb?'
p394
tp395
bag19
(g20
(I0
tp396
g22
tp397
Rp398
(I1
(I3
tp399
g289
I00
S'\xe0 ;\x819w\xfd?\xe7\xcc\xc2\xa0\xa5f\x17\xc04\xedq\x1c\x8eK\xfa?'
p400
tp401
bag19
(g20
(I0
tp402
g22
tp403
Rp404
(I1
(I3
tp405
g289
I00
S'\x85\\2\xba\x0b5\xf5?I\r\x06\xd10\xfb\x15\xc0\x9e\x11\xee\xd8\xb9\xd7\xf5?'
p406
tp407
bag19
(g20
(I0
tp408
g22
tp409
Rp410
(I1
(I3
tp411
g289
I00
S'v\xb8^\x85\xa7[\xea?x\xbe\xff2t\x8d\x13\xc0\x88\x85\x8cCyH\xf6?'
p412
tp413
bag19
(g20
(I0
tp414
g22
tp415
Rp416
(I1
(I3
tp417
g289
I00
S'\xc2\xda(e\x83\x1a\xeb?\x8au\x8d3\xa6E\x11\xc0\xb4c\x1b\xed_\xfd\xfa?'
p418
tp419
bag19
(g20
(I0
tp420
g22
tp421
Rp422
(I1
(I3
tp423
g289
I00
S'\xe4u**\x0e5\xe9?\xaa\xfd\r\xed\xc4\xf6\r\xc0\x0fDE0\x1f\x0b\xfe?'
p424
tp425
bag19
(g20
(I0
tp426
g22
tp427
Rp428
(I1
(I3
tp429
g289
I00
S'\x06\x11,\xef\x98O\xe7??\x10\x01s=b\t\xc04\x92\xb79o\x8c\x00@'
p430
tp431
bag19
(g20
(I0
tp432
g22
tp433
Rp434
(I1
(I3
tp435
g289
I00
S'\x92\xaf\xf3P\x96O\xc2?(\xa1:\x8er}\x05\xc0\xd4_\x91\xb3\xffL\x02@'
p436
tp437
bas(Vsquare_packing_box2
p438
g269
tp439
(lp440
g19
(g20
(I0
tp441
g22
tp442
Rp443
(I1
(I3
tp444
g278
I00
S'\xbcD@\x1cPn\x0e@8\x1a-\xc8\x9b(\x1a\xc0\t\xdd\xaf\x13\t\xaa\xfb?'
p445
tp446
bag19
(g20
(I0
tp447
g22
tp448
Rp449
(I1
(I3
tp450
g289
I00
S'g\x886\x82\xe7\x9e\t@\x81\x00+\xe8\xfe$\x19\xc0m@m\xfd\x93\x06\xf2?'
p451
tp452
bag19
(g20
(I0
tp453
g22
tp454
Rp455
(I1
(I3
tp456
g289
I00
S'\x19\xdbXU\x9c\xa8\x04@\xe6\xf1\xeb\xae\xcb\x05\x18\xc0\xce\x9cp\x98\xaf*\xeb?'
p457
tp458
bag19
(g20
(I0
tp459
g22
tp460
Rp461
(I1
(I3
tp462
g289
I00
S'/\xe1\x02^.|\x00@\xb8\xae\xc5\xcfF\x16\x17\xc0\xf8\x01)d\xc5\xf9\xe2?'
p463
tp464
bag19
(g20
(I0
tp465
g22
tp466
Rp467
(I1
(I3
tp468
g289
I00
S'\x85\\2\xba\x0b5\xf5?I\r\x06\xd10\xfb\x15\xc0\x9e\x11\xee\xd8\xb9\xd7\xf5?'
p469
tp470
bag19
(g20
(I0
tp471
g22
tp472
Rp473
(I1
(I3
tp474
g289
I00
S'v\xb8^\x85\xa7[\xea?x\xbe\xff2t\x8d\x13\xc0\x88\x85\x8cCyH\xf6?'
p475
tp476
bag19
(g20
(I0
tp477
g22
tp478
Rp479
(I1
(I3
tp480
g289
I00
S'\xc2\xda(e\x83\x1a\xeb?\x8au\x8d3\xa6E\x11\xc0\xb4c\x1b\xed_\xfd\xfa?'
p481
tp482
bag19
(g20
(I0
tp483
g22
tp484
Rp485
(I1
(I3
tp486
g289
I00
S'\xe4u**\x0e5\xe9?\xaa\xfd\r\xed\xc4\xf6\r\xc0\x0fDE0\x1f\x0b\xfe?'
p487
tp488
bag19
(g20
(I0
tp489
g22
tp490
Rp491
(I1
(I3
tp492
g289
I00
S'\x06\x11,\xef\x98O\xe7??\x10\x01s=b\t\xc04\x92\xb79o\x8c\x00@'
p493
tp494
bag19
(g20
(I0
tp495
g22
tp496
Rp497
(I1
(I3
tp498
g289
I00
S'\x92\xaf\xf3P\x96O\xc2?(\xa1:\x8er}\x05\xc0\xd4_\x91\xb3\xffL\x02@'
p499
tp500
bas(Vrectangular_packing_box1
p501
g269
tp502
(lp503
g19
(g20
(I0
tp504
g22
tp505
Rp506
(I1
(I3
tp507
g278
I00
S'\xf8\xb3\xe4\xc4\x8f8\xfa?\xb2\x87\xfe\xaa\x1d\xc9\x1a\xc0\x9an\x9cC=\x86\xf9?'
p508
tp509
bag19
(g20
(I0
tp510
g22
tp511
Rp512
(I1
(I3
tp513
g289
I00
S'{\xe7\xcc\xce\x02,\xf5?\xeb\x85\xf2\xb4\xc9\x08\x19\xc0\xcd\x97\xf6\xcc\xe4z\x00@'
p514
tp515
bag19
(g20
(I0
tp516
g22
tp517
Rp518
(I1
(I3
tp519
g289
I00
S'o\xd6\x82\xea\x7f\xb2\xed?9\xf2C\x0b?\xfd\x16\xc0(?d\xe9@\xb5\x02@'
p520
tp521
bag19
(g20
(I0
tp522
g22
tp523
Rp524
(I1
(I3
tp525
g289
I00
S'&>c9\x01,\xeb?\xb2\xc2\xf0\x02\xce\x8e\x14\xc0\xd8p\xbb2\x14\xd2\x03@'
p526
tp527
bag19
(g20
(I0
tp528
g22
tp529
Rp530
(I1
(I3
tp531
g289
I00
S'\xc6\x05\xbdtg\xd9\xe2?F\xdf\x9d@\\\xf3\x11\xc0\x1a\xc4.\xbb\xcc\x12\x02@'
p532
tp533
bag19
(g20
(I0
tp534
g22
tp535
Rp536
(I1
(I3
tp537
g289
I00
S'3z\xed\x8eN)\xe4?\x0c\x96\xd4\xa2\x0e\xd0\r\xc0\xbd%\xf5{\xe9\xf9\x03@'
p538
tp539
bag19
(g20
(I0
tp540
g22
tp541
Rp542
(I1
(I3
tp543
g289
I00
S'\xaf0\xe9h\xba~\xee?k\xbb\xd8\xd4\xd0g\t\xc09\x9ey\xed\xb06\x06@'
p544
tp545
bag19
(g20
(I0
tp546
g22
tp547
Rp548
(I1
(I3
tp549
g289
I00
S'\xf4\xfdJ\x1a(#\xec?H"\x9cD\x1aE\x05\xc0.\xa9\x0b\x87\xf8\xe1\x02@'
p550
tp551
bas(Vsquare_packing_box3
p552
g269
tp553
(lp554
g19
(g20
(I0
tp555
g22
tp556
Rp557
(I1
(I3
tp558
g278
I00
S'\x10\x8f\xa7\x80\x98j\x05@\x9d\x02\xf6\xcb.\x1e\x1d\xc0Lc\xa7\xe2@k\x16@'
p559
tp560
bag19
(g20
(I0
tp561
g22
tp562
Rp563
(I1
(I3
tp564
g289
I00
S'\tf\xd5\xc3\xdb\xc1\x02@y9\xac\xaa\x85r\x1a\xc0n\x19\xc0\xf8c\xa8\xe2\xbf'
p565
tp566
bag19
(g20
(I0
tp567
g22
tp568
Rp569
(I1
(I3
tp570
g289
I00
S'\x00\xda\x1c<\xfd\xdc\x00@j"\x91\xe3 \x1a\x18\xc0i~!@)\xb0\xdc\xbf'
p571
tp572
bag19
(g20
(I0
tp573
g22
tp574
Rp575
(I1
(I3
tp576
g289
I00
S'v%D\x97w\xd1\xf7?Z\xadP\x90\x08<\x17\xc0-\xca\x8a\t\xe2p\xe7\xbf'
p577
tp578
bag19
(g20
(I0
tp579
g22
tp580
Rp581
(I1
(I3
tp582
g289
I00
S'tx\x8as\xa8b\xed?\x9ej\x15\xfa\xf0{\x15\xc0@\xed\x9a-\x9eD\xf2\xbf'
p583
tp584
bag19
(g20
(I0
tp585
g22
tp586
Rp587
(I1
(I3
tp588
g289
I00
S'\xb0E\xbb;Cb\xeb?\x9e\xde\xa7\xdd\xbdd\x12\xc0\xc6\xee\xbd\x16\x8c\xaa\xf3\xbf'
p589
tp590
bag19
(g20
(I0
tp591
g22
tp592
Rp593
(I1
(I3
tp594
g289
I00
S'`\xc8Aw-\x81\xeb?/\xc3\xe6O\x04\xca\x10\xc0\x8a\xb7K)\x91{\xe4\xbf'
p595
tp596
bag19
(g20
(I0
tp597
g22
tp598
Rp599
(I1
(I3
tp600
g289
I00
S'\xe1\xc6\xc7\xa7\x12X\xe7?\x98\x99\xb0\x9a\xfb\xdb\x0b\xc0R\t\x1b)\xeae\xe0\xbf'
p601
tp602
bag19
(g20
(I0
tp603
g22
tp604
Rp605
(I1
(I3
tp606
g289
I00
S'p\xf1\xbdc^\x84\xf1?"\x88LL\xf9D\x06\xc0~w\r\xe9m\x0f\x19@'
p607
tp608
bas(Vrectangular_packing_box2
p609
g269
tp610
(lp611
g19
(g20
(I0
tp612
g22
tp613
Rp614
(I1
(I3
tp615
g278
I00
S'[\n\xaedR\xb9\x06@\x7f\x02\x88\xad\xe9y\x18\xc0\xc4s\x01\xdf\x05\xeb\x0b@'
p616
tp617
bag19
(g20
(I0
tp618
g22
tp619
Rp620
(I1
(I3
tp621
g289
I00
S'\xe2>s\xda\xb3\xca\x03@\xe7\x8al\x18\x05\xe1\x15\xc0}\xfd7\xe9\xe3n\x0b@'
p622
tp623
bag19
(g20
(I0
tp624
g22
tp625
Rp626
(I1
(I3
tp627
g289
I00
S'\xc7\xc7\x06s\xd6\xa3\xff?3\x91\xe4\x97\xb5\x07\x16\xc0\x1bW\xbc\xbfY:\x06@'
p628
tp629
bag19
(g20
(I0
tp630
g22
tp631
Rp632
(I1
(I3
tp633
g289
I00
S'\x84\xa2s4\xa1\xd0\xf6?E=|\xb9\xcam\x17\xc0\xa93^V\xfc\xed\x05@'
p634
tp635
bag19
(g20
(I0
tp636
g22
tp637
Rp638
(I1
(I3
tp639
g289
I00
S'f\xb4\x9c\x07\xac\xbf\xec?n\x96\x96\x9e\x90n\x16\xc0uo!\xa9\x9b\x82\x07@'
p640
tp641
bag19
(g20
(I0
tp642
g22
tp643
Rp644
(I1
(I3
tp645
g289
I00
S'm\xd5h\x072\x03\xea?\xdf\xe5\xe82\xd3\x17\x14\xc0\x08\x9e\xe1\xfbO\x94\x08@'
p646
tp647
bag19
(g20
(I0
tp648
g22
tp649
Rp650
(I1
(I3
tp651
g289
I00
S'\x97\xff-a\x91r\xf0?\x1a\x15\xfe\xb9:\x1b\x12\xc0\nG\xfe\xfa~y\x05@'
p652
tp653
bag19
(g20
(I0
tp654
g22
tp655
Rp656
(I1
(I3
tp657
g289
I00
S'y\xd4\xbc{`\x0b\xf2?\xb0C6m\xb7\xd6\x0e\xc0\xe8\xe2r\xbe\x16{\xf5?'
p658
tp659
bag19
(g20
(I0
tp660
g22
tp661
Rp662
(I1
(I3
tp663
g289
I00
S'\xd1\xaa\x15!\x8c\x06\xed?\x8c\xab\xab^w\xe3\t\xc0~&\xcc\xa2\xcbw\xf6?'
p664
tp665
bag19
(g20
(I0
tp666
g22
tp667
Rp668
(I1
(I3
tp669
g289
I00
S'3\xe9\xaf\x05T\x89\xe7?+~\xcb\xd3\x15\xc7\x04\xc0x6(d5\xed\x07@'
p670
tp671
bassS'mc_to_entity'
p672
(dp673
(g268
g269
tp674
(lp675
Vrectangular_packing_box1
p676
aVrectangular_packing_box4
p677
aVsquare_packing_box4
p678
as(g336
g269
tp679
(lp680
Vrectangular_packing_box1
p681
aVsquare_packing_box4
p682
as(g381
g269
tp683
(lp684
Vrectangular_packing_box1
p685
aVsquare_packing_box4
p686
as(g438
g269
tp687
(lp688
Vsquare_packing_box1
p689
aVrectangular_packing_box1
p690
aVsquare_packing_box4
p691
as(g501
g269
tp692
(lp693
Vrectangular_packing_box2
p694
aVsquare_packing_box4
p695
aVrectangular_packing_box4
p696
as(g552
g269
tp697
(lp698
Vrectangular_packing_box2
p699
aVrectangular_packing_box1
p700
aVsquare_packing_box4
p701
as(g609
g269
tp702
(lp703
Vrectangular_packing_box1
p704
aVsquare_packing_box4
p705
aVrectangular_packing_box4
p706
assS'reachable_entities'
p707
(lp708
Vrectangular_packing_box2
p709
aVsquare_packing_box2
p710
aVsquare_packing_box3
p711
aVsquare_packing_box1
p712
asS'collides'
p713
(dp714
Vrectangular_packing_box4
p715
c__builtin__
set
p716
((lp717
I491
aI132
aI517
aI6
aI137
aI138
aI139
aI276
aI152
aI153
aI154
aI157
aI417
aI34
aI547
aI165
aI166
aI424
aI553
aI584
aI521
aI196
aI198
aI456
aI518
aI459
aI338
aI84
aI349
aI350
aI351
aI362
aI107
aI108
aI503
aI249
aI252
aI383
atp718
Rp719
sVrectangular_packing_box2
p720
g716
((lp721
I256
aI577
aI268
aI194
aI145
aI538
aI413
aI219
aI36
aI37
aI422
aI220
aI561
aI178
aI179
aI54
aI443
aI188
aI63
aI64
aI65
aI66
aI69
aI435
aI205
aI79
aI80
aI595
aI215
aI89
aI90
aI91
aI92
aI444
aI114
aI115
aI376
aI511
atp722
Rp723
sVrectangular_packing_box3
p724
g716
((lp725
I384
aI257
aI134
aI265
aI394
aI532
aI580
aI158
aI159
aI164
aI433
aI564
aI575
aI452
aI583
aI328
aI589
aI83
aI478
aI356
aI229
aI366
aI502
atp726
Rp727
sVrectangular_packing_box1
p728
g716
((lp729
I4
aI5
aI137
aI132
aI416
aI161
aI34
aI35
aI554
aI43
aI301
aI584
aI309
aI310
aI55
aI56
aI570
aI187
aI449
aI70
aI327
aI456
aI201
aI202
aI203
aI162
aI595
aI84
aI597
aI93
aI94
aI607
aI484
aI233
aI106
aI107
aI108
aI497
aI252
atp730
Rp731
sVsquare_packing_box2
p732
g716
((lp733
I0
aI1
aI546
aI545
aI555
aI403
aI367
aI368
aI369
aI370
aI371
aI342
aI377
aI378
aI571
aI541
aI474
atp734
Rp735
sVsquare_packing_box3
p736
g716
((lp737
I513
aI386
aI260
aI269
aI270
aI405
aI280
aI436
aI565
aI440
aI573
aI193
aI68
aI210
aI339
aI340
aI213
aI479
aI354
aI613
aI614
aI111
aI112
aI113
aI211
aI245
aI375
aI212
aI381
aI254
aI255
atp738
Rp739
sVsquare_packing_box1
p740
g716
((lp741
I0
aI1
aI546
aI454
aI555
aI369
aI370
aI371
aI342
aI378
aI571
aI541
atp742
Rp743
sVsquare_packing_box4
p744
g716
((lp745
I235
aI132
aI517
aI8
aI416
aI33
aI34
aI607
aI554
aI43
aI44
aI301
aI584
aI56
aI186
aI187
aI459
aI196
aI71
aI456
aI203
aI162
aI84
aI93
aI94
aI95
aI327
aI484
aI233
aI234
aI107
aI108
aI497
aI252
aI106
atp746
Rp747
ssg2
g3
sS'pick_used'
p748
(dp749
Vrectangular_packing_box4
p750
(itrajectory_representation.operator
Operator
p751
(dp752
g9
I01
sg10
(dp753
g13
g750
ssg14
S'two_arm_pick'
p754
sg16
(dp755
g18
g19
(g20
(I0
tp756
g22
tp757
Rp758
(I1
(I3
tp759
g29
I00
S'\x83\x02+\xb8\x18d\xe7?0\x86\xe2\xa7w\xdd\x1a\xc04N\nE\xf2\xcc\xfb?'
p760
tp761
bssg34
(lp762
g19
(g20
(I0
tp763
g22
tp764
Rp765
(I1
(I3
tp766
g278
I00
S'dR\xdd8\xd6\x8d\x00@\xc0C|\xd2X\x00\x16\xc0\xc1\xab\x9e\x0b\x900\xd2?'
p767
tp768
bag19
(g20
(I0
tp769
g22
tp770
Rp771
(I1
(I3
tp772
g289
I00
S'\x12\xfe\xe1\x95\xb8\x19\xf8?\x8c#.~\xd7\xc6\x16\xc0\xfe\xd3A\xf0\xcat\xc0\xbf'
p773
tp774
bag19
(g20
(I0
tp775
g22
tp776
Rp777
(I1
(I3
tp778
g289
I00
S'{\xe7\xcc\xce\x02,\xf5?\xeb\x85\xf2\xb4\xc9\x08\x19\xc0\xcd\x97\xf6\xcc\xe4z\x00@'
p779
tp780
bag758
asbsg709
(itrajectory_representation.operator
Operator
p781
(dp782
g9
I01
sg10
(dp783
g13
g709
ssg14
g754
sg16
(dp784
g18
g19
(g20
(I0
tp785
g22
tp786
Rp787
(I1
(I3
tp788
g29
I00
S']\n\xaedR\xb9\x06@\x7f\x02\x88\xad\xe9y\x18\xc0l\xe6\x86\xc9\xf0X\x06\xc0'
p789
tp790
bssg34
(lp791
g19
(g20
(I0
tp792
g22
tp793
Rp794
(I1
(I3
tp795
g278
I00
S'dR\xdd8\xd6\x8d\x00@\xc0C|\xd2X\x00\x16\xc0\xc1\xab\x9e\x0b\x900\xd2?'
p796
tp797
bag19
(g20
(I0
tp798
g22
tp799
Rp800
(I1
(I3
tp801
g289
I00
S'\x16\x9e\xd06H\xd3\x04@\xe5\xe1\xfb\xc5\xb8\xd1\x16\xc0es\x86\x03\xdb\x8e\x17@'
p802
tp803
bag19
(g20
(I0
tp804
g22
tp805
Rp806
(I1
(I3
tp807
g289
I00
S'\x7f\xf7\x8e\x1f\xfbq\x06@\x05\xa9\xa4M\x80 \x16\xc0\x85\x00\n\x0c\x80\xee\n\xc0'
p808
tp809
bag787
asbsVrectangular_packing_box3
p810
(itrajectory_representation.operator
Operator
p811
(dp812
g9
I01
sg10
(dp813
S'object'
p814
Vrectangular_packing_box3
p815
ssg14
S'two_arm_pick'
p816
sg16
(dp817
S'q_goal'
p818
(lp819
g19
(g20
(I0
tp820
g22
tp821
Rp822
(I1
(I3
tp823
g278
I00
S'\xd4Z\x82\x08\x1a)\xe8?\x9e\xc4\xf5o\t\xa7\x1e\xc0\xd60\x90\xbc\xce-\x05@'
p824
tp825
bag19
(g20
(I0
tp826
g22
tp827
Rp828
(I1
(I3
tp829
g278
I00
S'X\x86|Xh\x8a\xe7?\t\xf1\x9c\xa3HC\x1e\xc0@\x9f\xe0\xc5Y\x0e\n@'
p830
tp831
bag19
(g20
(I0
tp832
g22
tp833
Rp834
(I1
(I3
tp835
g278
I00
S'wo\x93A:\xf9\xdb?vE\xb5\xd5\x06\x91\x1b\xc0+}E\x91\xa9V\x01\xc0'
p836
tp837
basS'is_feasible'
p838
I00
ssg34
(lp839
g19
(g20
(I0
tp840
g22
tp841
Rp842
(I1
(I3
tp843
g278
I00
S'dR\xdd8\xd6\x8d\x00@\xc0C|\xd2X\x00\x16\xc0\xc1\xab\x9e\x0b\x900\xd2?'
p844
tp845
bag19
(g20
(I0
tp846
g22
tp847
Rp848
(I1
(I3
tp849
g289
I00
S'\x0e]\xf2K\xc6E\xf7?\x06\x8c\xb9Ybt\x17\xc0%\xac6\x86\x93\xa8\xdd?'
p850
tp851
bag19
(g20
(I0
tp852
g22
tp853
Rp854
(I1
(I3
tp855
g289
I00
S'Pa\x88\xb1[\x02\xf1?\x1e\x1c\xb3\x8d\x8c\xb7\x19\xc0t\xf6\xbb\xc4\x878\x11@'
p856
tp857
bag834
asbsVrectangular_packing_box1
p858
(itrajectory_representation.operator
Operator
p859
(dp860
g9
I01
sg10
(dp861
g13
g858
ssg14
g754
sg16
(dp862
g18
g19
(g20
(I0
tp863
g22
tp864
Rp865
(I1
(I3
tp866
g29
I00
S'\xf8\xb3\xe4\xc4\x8f8\xfa?\xb4\x87\xfe\xaa\x1d\xc9\x1a\xc0\x9an\x9cC=\x86\xf9?'
p867
tp868
bssg34
(lp869
g19
(g20
(I0
tp870
g22
tp871
Rp872
(I1
(I3
tp873
g278
I00
S'dR\xdd8\xd6\x8d\x00@\xc0C|\xd2X\x00\x16\xc0\xc1\xab\x9e\x0b\x900\xd2?'
p874
tp875
bag19
(g20
(I0
tp876
g22
tp877
Rp878
(I1
(I3
tp879
g289
I00
S'\x00\xda\x1c<\xfd\xdc\x00@j"\x91\xe3 \x1a\x18\xc0i~!@)\xb0\xdc\xbf'
p880
tp881
bag19
(g20
(I0
tp882
g22
tp883
Rp884
(I1
(I3
tp885
g289
I00
S'j\xc7\xc0&\x8ag\xf6?h\x9cH4\x7f\xab\x18\xc0\xd8|\x1d\xfc\xcbV\xf2?'
p886
tp887
bag865
asbsg710
(itrajectory_representation.operator
Operator
p888
(dp889
g9
I01
sg10
(dp890
g814
Vsquare_packing_box2
p891
ssg14
g816
sg16
(dp892
g818
(lp893
g19
(g20
(I0
tp894
g22
tp895
Rp896
(I1
(I3
tp897
g278
I00
S'\xbcD@\x1cPn\x0e@:\x1a-\xc8\x9b(\x1a\xc0\n\xdd\xaf\x13\t\xaa\xfb?'
p898
tp899
bag19
(g20
(I0
tp900
g22
tp901
Rp902
(I1
(I3
tp903
g278
I00
S'\xe0\xe9\x1f\xb9L\xa7\x0b@\xba\x9b\xa0\x9b\xba\xc1\x19\xc0T\x1e\x03P-<\xec?'
p904
tp905
bag19
(g20
(I0
tp906
g22
tp907
Rp908
(I1
(I3
tp909
g278
I00
S'@\xed\xf1\xc5\xd4\xe4\x0c@w2\xbaW\x87\xe2\x19\xc0%R\xc0\n\xe4K\xf4?'
p910
tp911
bag19
(g20
(I0
tp912
g22
tp913
Rp914
(I1
(I3
tp915
g278
I00
S'|s\x12\xe5\xf5n\x0c@\xff\xe6+(N\x02\x1a\xc0\xd6\x17|D\x1b\x87\xf5?'
p916
tp917
basg838
I00
ssg34
(lp918
g19
(g20
(I0
tp919
g22
tp920
Rp921
(I1
(I3
tp922
g278
I00
S'dR\xdd8\xd6\x8d\x00@\xc0C|\xd2X\x00\x16\xc0\xc1\xab\x9e\x0b\x900\xd2?'
p923
tp924
bag19
(g20
(I0
tp925
g22
tp926
Rp927
(I1
(I3
tp928
g289
I00
S'\x19\xdbXU\x9c\xa8\x04@\xe6\xf1\xeb\xae\xcb\x05\x18\xc0\xce\x9cp\x98\xaf*\xeb?'
p929
tp930
bag19
(g20
(I0
tp931
g22
tp932
Rp933
(I1
(I3
tp934
g289
I00
S'g\x886\x82\xe7\x9e\t@\x81\x00+\xe8\xfe$\x19\xc0m@m\xfd\x93\x06\xf2?'
p935
tp936
bag902
asbsg711
(itrajectory_representation.operator
Operator
p937
(dp938
g9
I01
sg10
(dp939
g13
g711
ssg14
g754
sg16
(dp940
g18
g19
(g20
(I0
tp941
g22
tp942
Rp943
(I1
(I3
tp944
g29
I00
S'\x10\x8f\xa7\x80\x98j\x05@\x9d\x02\xf6\xcb.\x1e\x1d\xc0dN\xe6\x8c\xd3\xb5\xe5\xbf'
p945
tp946
bssg34
(lp947
g19
(g20
(I0
tp948
g22
tp949
Rp950
(I1
(I3
tp951
g278
I00
S'dR\xdd8\xd6\x8d\x00@\xc0C|\xd2X\x00\x16\xc0\xc1\xab\x9e\x0b\x900\xd2?'
p952
tp953
bag19
(g20
(I0
tp954
g22
tp955
Rp956
(I1
(I3
tp957
g289
I00
S'\x19\xdbXU\x9c\xa8\x04@\xe6\xf1\xeb\xae\xcb\x05\x18\xc0\xce\x9cp\x98\xaf*\xeb?'
p958
tp959
bag19
(g20
(I0
tp960
g22
tp961
Rp962
(I1
(I3
tp963
g289
I00
S'g\x886\x82\xe7\x9e\t@\x81\x00+\xe8\xfe$\x19\xc0m@m\xfd\x93\x06\xf2?'
p964
tp965
bag19
(g20
(I0
tp966
g22
tp967
Rp968
(I1
(I3
tp969
g289
I00
S'\x9a\x9e\xdc\x13\r\n\n@\xf1\xbcp\x07u\xf1\x1a\xc0\xd2JG\xa3\xec%\xd4\xbf'
p970
tp971
bag943
asbsg712
(itrajectory_representation.operator
Operator
p972
(dp973
g9
I01
sg10
(dp974
g13
g712
ssg14
g754
sg16
(dp975
g18
g19
(g20
(I0
tp976
g22
tp977
Rp978
(I1
(I3
tp979
g29
I00
S'=\xb0\x90)g\xcd\x06@nOn1\xd8M\x16\xc0\xe0}\xbc\xa0\xbdm\xa6?'
p980
tp981
bssg34
(lp982
g19
(g20
(I0
tp983
g22
tp984
Rp985
(I1
(I3
tp986
g278
I00
S'dR\xdd8\xd6\x8d\x00@\xc0C|\xd2X\x00\x16\xc0\xc1\xab\x9e\x0b\x900\xd2?'
p987
tp988
bag978
asbsVsquare_packing_box4
p989
(itrajectory_representation.operator
Operator
p990
(dp991
g9
I01
sg10
(dp992
g13
g989
ssg14
g754
sg16
(dp993
g18
g19
(g20
(I0
tp994
g22
tp995
Rp996
(I1
(I3
tp997
g29
I00
S'\xael\x7fnD\xac\xe5?|V\x99e\xa9t\x14\xc0\xe2Wji\x93\xe6\xf6\xbf'
p998
tp999
bssg34
(lp1000
g19
(g20
(I0
tp1001
g22
tp1002
Rp1003
(I1
(I3
tp1004
g278
I00
S'dR\xdd8\xd6\x8d\x00@\xc0C|\xd2X\x00\x16\xc0\xc1\xab\x9e\x0b\x900\xd2?'
p1005
tp1006
bag19
(g20
(I0
tp1007
g22
tp1008
Rp1009
(I1
(I3
tp1010
g289
I00
S'\x0e]\xf2K\xc6E\xf7?\x06\x8c\xb9Ybt\x17\xc0%\xac6\x86\x93\xa8\xdd?'
p1011
tp1012
bag19
(g20
(I0
tp1013
g22
tp1014
Rp1015
(I1
(I3
tp1016
g289
I00
S'tx\x8as\xa8b\xed?\x9ej\x15\xfa\xf0{\x15\xc0@\xed\x9a-\x9eD\xf2\xbf'
p1017
tp1018
bag996
asbssS'mc_paths'
p1019
(dp1020
sS'robot'
p1021
NsS'reachable_obj_region_pairs'
p1022
(lp1023
sS'sampled_pick_configs_for_objects'
p1024
(dp1025
sS'mc_calls'
p1026
I0
sS'pick_poses'
p1027
g749
sS'problem_env'
p1028
NsS'evaluations'
p1029
(dp1030
(g501
g609
g269
tp1031
I01
s(g438
g609
g269
tp1032
I00
s(g609
g552
g269
tp1033
I00
s(g336
g438
g269
tp1034
I00
s(g552
g381
g269
tp1035
I00
s(g381
g268
g269
tp1036
I00
s(g552
g609
g269
tp1037
I01
s(g336
Vsquare_packing_box4
p1038
g269
tp1039
I01
s(g438
g381
g269
tp1040
I01
s(g501
g381
g269
tp1041
I00
s(g501
g336
g269
tp1042
I01
s(g438
g268
g269
tp1043
I00
s(g336
g552
g269
tp1044
I00
s(g552
g268
g269
tp1045
I00
s(g381
g609
g269
tp1046
I00
s(g552
g1038
g269
tp1047
I01
s(g609
g501
g269
tp1048
I01
s(g268
g381
g269
tp1049
I00
s(g552
g336
g269
tp1050
I00
s(g609
g381
g269
tp1051
I00
s(g268
g336
g269
tp1052
I01
s(g609
g1038
g269
tp1053
I01
s(g336
g501
g269
tp1054
I01
s(g381
g501
g269
tp1055
I01
s(g268
g552
g269
tp1056
I00
s(g268
g501
g269
tp1057
I01
s(g552
g501
g269
tp1058
I01
s(g336
g609
g269
tp1059
I00
s(g501
g1038
g269
tp1060
I01
s(g438
g501
g269
tp1061
I01
s(g268
g1038
g269
tp1062
I01
s(g438
g336
g269
tp1063
I00
s(g552
g438
g269
tp1064
I00
s(g381
g438
g269
tp1065
I00
s(g438
g1038
g269
tp1066
I01
s(g381
g552
g269
tp1067
I00
s(g438
g552
g269
tp1068
I00
s(g336
g268
g269
tp1069
I00
s(g501
g552
g269
tp1070
I00
s(g501
g268
g269
tp1071
I00
s(g268
g609
g269
tp1072
I00
s(g609
g438
g269
tp1073
I00
s(g336
g381
g269
tp1074
I00
s(g381
g1038
g269
tp1075
I01
s(g381
g336
g269
tp1076
I00
s(g609
g336
g269
tp1077
I01
s(g268
g438
g269
tp1078
I00
s(g609
g268
g269
tp1079
I00
s(g501
g438
g269
tp1080
I00
ssS'paths_to_reachable_entities'
p1081
NsS'use_shortest_path'
p1082
I01
sbsS'ternary_edges'
p1083
(dp1084
(g609
g609
g269
tp1085
(lp1086
I00
as(g381
S'loading_region'
p1087
g1087
tp1088
(lp1089
I00
as(S'entire_region'
p1090
g501
g269
tp1091
(lp1092
I00
as(g438
g1038
g1087
tp1093
(lp1094
I00
as(g269
g269
g269
tp1095
(lp1096
I00
as(g1038
g609
g1087
tp1097
(lp1098
I00
as(g381
g268
g269
tp1099
(lp1100
I00
as(g269
g336
g269
tp1101
(lp1102
I00
as(g438
g381
g269
tp1103
(lp1104
I01
as(g268
g336
g1087
tp1105
(lp1106
I00
as(g269
g1038
g1087
tp1107
(lp1108
I00
as(g438
g1090
g269
tp1109
(lp1110
I00
as(g1087
g269
g1087
tp1111
(lp1112
I00
as(g336
g552
g269
tp1113
(lp1114
I00
as(g1038
g1090
g269
tp1115
(lp1116
I00
as(g438
g501
g1087
tp1117
(lp1118
I00
as(g552
g1087
g269
tp1119
(lp1120
I00
as(g1090
g609
g1087
tp1121
(lp1122
I00
as(g269
g1090
g269
tp1123
(lp1124
I00
as(g609
g1087
g269
tp1125
(lp1126
I00
as(g552
g1090
g269
tp1127
(lp1128
I00
as(g381
g381
g1087
tp1129
(lp1130
I00
as(g1087
g1038
g1087
tp1131
(lp1132
I00
as(g1090
g1087
g269
tp1133
(lp1134
I00
as(g1090
g438
g269
tp1135
(lp1136
I00
as(g1087
g1087
g269
tp1137
(lp1138
I00
as(g552
g336
g1087
tp1139
(lp1140
I00
as(g269
g269
g1087
tp1141
(lp1142
I00
as(g501
g438
g1087
tp1143
(lp1144
I00
as(g609
g1038
g269
tp1145
(lp1146
I01
as(g552
g381
g269
tp1147
(lp1148
I00
as(g501
g269
g1087
tp1149
(lp1150
I00
as(g269
g609
g1087
tp1151
(lp1152
I00
as(g501
g268
g1087
tp1153
(lp1154
I00
as(g268
g501
g269
tp1155
(lp1156
I01
as(g1087
g381
g1087
tp1157
(lp1158
I00
as(g1038
g438
g1087
tp1159
(lp1160
I00
as(g609
g609
g1087
tp1161
(lp1162
I00
as(g1090
g1038
g269
tp1163
(lp1164
I00
as(g1087
g269
g269
tp1165
(lp1166
I00
as(g336
g609
g269
tp1167
(lp1168
I00
as(g269
g268
g269
tp1169
(lp1170
I00
as(g438
g501
g269
tp1171
(lp1172
I01
as(g268
g1038
g269
tp1173
(lp1174
I01
as(g381
g268
g1087
tp1175
(lp1176
I00
as(g552
g438
g269
tp1177
(lp1178
I00
as(g438
g381
g1087
tp1179
(lp1180
I00
as(g438
g609
g1087
tp1181
(lp1182
I00
as(g1090
g438
g1087
tp1183
(lp1184
I00
as(g1087
g268
g1087
tp1185
(lp1186
I00
as(g1090
g269
g269
tp1187
(lp1188
I00
as(g336
g269
g269
tp1189
(lp1190
I00
as(g1087
g1090
g269
tp1191
(lp1192
I00
as(g609
g1038
g1087
tp1193
(lp1194
I00
as(g552
g609
g1087
tp1195
(lp1196
I00
as(g552
g552
g269
tp1197
(lp1198
I00
as(g501
g268
g269
tp1199
(lp1200
I00
as(g1090
g609
g269
tp1201
(lp1202
I00
as(g501
g1087
g1087
tp1203
(lp1204
I00
as(g1038
g381
g269
tp1205
(lp1206
I00
as(g381
g381
g269
tp1207
(lp1208
I00
as(g381
g336
g269
tp1209
(lp1210
I00
as(g336
g609
g1087
tp1211
(lp1212
I00
as(g1038
g501
g1087
tp1213
(lp1214
I00
as(g552
g336
g269
tp1215
(lp1216
I00
as(g501
g438
g269
tp1217
(lp1218
I00
as(g609
g501
g1087
tp1219
(lp1220
I00
as(g501
g269
g269
tp1221
(lp1222
I00
as(g438
g609
g269
tp1223
(lp1224
I00
as(g609
g552
g269
tp1225
(lp1226
I00
as(g268
g501
g1087
tp1227
(lp1228
I00
as(g269
g438
g1087
tp1229
(lp1230
I00
as(g1090
g269
g1087
tp1231
(lp1232
I00
as(g1090
g1038
g1087
tp1233
(lp1234
I00
as(g552
g609
g269
tp1235
(lp1236
I01
as(g268
g552
g1087
tp1237
(lp1238
I00
as(g609
g1090
g1087
tp1239
(lp1240
I00
as(g501
g1087
g269
tp1241
(lp1242
I00
as(g552
g438
g1087
tp1243
(lp1244
I00
as(g552
g501
g1087
tp1245
(lp1246
I00
as(g1038
g381
g1087
tp1247
(lp1248
I00
as(g269
g268
g1087
tp1249
(lp1250
I00
as(g1090
g552
g1087
tp1251
(lp1252
I00
as(g1087
g268
g269
tp1253
(lp1254
I00
as(g1087
g438
g1087
tp1255
(lp1256
I00
as(g609
g501
g269
tp1257
(lp1258
I01
as(g1038
g501
g269
tp1259
(lp1260
I00
as(g1087
g552
g269
tp1261
(lp1262
I00
as(g609
g552
g1087
tp1263
(lp1264
I00
as(g609
g336
g1087
tp1265
(lp1266
I00
as(g268
g1038
g1087
tp1267
(lp1268
I00
as(g381
g336
g1087
tp1269
(lp1270
I00
as(g501
g552
g1087
tp1271
(lp1272
I00
as(g269
g381
g1087
tp1273
(lp1274
I00
as(g268
g1087
g1087
tp1275
(lp1276
I00
as(g336
g269
g1087
tp1277
(lp1278
I00
as(g381
g501
g269
tp1279
(lp1280
I01
as(g609
g1090
g269
tp1281
(lp1282
I00
as(g336
g438
g1087
tp1283
(lp1284
I00
as(g268
g609
g1087
tp1285
(lp1286
I00
as(g552
g501
g269
tp1287
(lp1288
I01
as(g1038
g1087
g1087
tp1289
(lp1290
I00
as(g438
g269
g269
tp1291
(lp1292
I00
as(g1038
g336
g269
tp1293
(lp1294
I00
as(g269
g552
g1087
tp1295
(lp1296
I00
as(g1087
g501
g1087
tp1297
(lp1298
I00
as(g1087
g552
g1087
tp1299
(lp1300
I00
as(g381
g552
g269
tp1301
(lp1302
I00
as(g501
g552
g269
tp1303
(lp1304
I00
as(g381
g501
g1087
tp1305
(lp1306
I00
as(g268
g609
g269
tp1307
(lp1308
I00
as(g609
g438
g269
tp1309
(lp1310
I00
as(g268
g269
g1087
tp1311
(lp1312
I00
as(g1038
g1087
g269
tp1313
(lp1314
I00
as(g1087
g336
g1087
tp1315
(lp1316
I00
as(g609
g336
g269
tp1317
(lp1318
I01
as(g268
g268
g269
tp1319
(lp1320
I00
as(g336
g336
g269
tp1321
(lp1322
I00
as(g336
g268
g1087
tp1323
(lp1324
I00
as(g268
g1087
g269
tp1325
(lp1326
I00
as(g552
g1038
g269
tp1327
(lp1328
I01
as(g336
g438
g269
tp1329
(lp1330
I00
as(g438
g1087
g1087
tp1331
(lp1332
I00
as(g268
g1090
g1087
tp1333
(lp1334
I00
as(g438
g269
g1087
tp1335
(lp1336
I00
as(g381
g438
g1087
tp1337
(lp1338
I00
as(g1038
g336
g1087
tp1339
(lp1340
I00
as(g552
g269
g1087
tp1341
(lp1342
I00
as(g268
g269
g269
tp1343
(lp1344
I00
as(g1087
g336
g269
tp1345
(lp1346
I00
as(g501
g501
g269
tp1347
(lp1348
I00
as(g1087
g1038
g269
tp1349
(lp1350
I00
as(g1038
g552
g269
tp1351
(lp1352
I00
as(g381
g609
g269
tp1353
(lp1354
I00
as(g381
g552
g1087
tp1355
(lp1356
I00
as(g336
g381
g1087
tp1357
(lp1358
I00
as(g269
g438
g269
tp1359
(lp1360
I00
as(g1090
g268
g1087
tp1361
(lp1362
I00
as(g268
g381
g269
tp1363
(lp1364
I00
as(g501
g1090
g269
tp1365
(lp1366
I00
as(g552
g1038
g1087
tp1367
(lp1368
I00
as(g552
g268
g1087
tp1369
(lp1370
I00
as(g336
g501
g269
tp1371
(lp1372
I01
as(g609
g438
g1087
tp1373
(lp1374
I00
as(g336
g1087
g269
tp1375
(lp1376
I00
as(g268
g1090
g269
tp1377
(lp1378
I00
as(g1038
g268
g1087
tp1379
(lp1380
I00
as(g609
g381
g269
tp1381
(lp1382
I00
as(g552
g381
g1087
tp1383
(lp1384
I00
as(g1038
g1038
g1087
tp1385
(lp1386
I00
as(g336
g336
g1087
tp1387
(lp1388
I00
as(g501
g501
g1087
tp1389
(lp1390
I00
as(g381
g1038
g1087
tp1391
(lp1392
I00
as(g1038
g438
g269
tp1393
(lp1394
I00
as(g1090
g381
g269
tp1395
(lp1396
I00
as(g269
g1090
g1087
tp1397
(lp1398
I00
as(g269
g501
g1087
tp1399
(lp1400
I00
as(g438
g1087
g269
tp1401
(lp1402
I00
as(g381
g609
g1087
tp1403
(lp1404
I00
as(g501
g381
g1087
tp1405
(lp1406
I00
as(g268
g268
g1087
tp1407
(lp1408
I00
as(g1090
g268
g269
tp1409
(lp1410
I00
as(g438
g268
g1087
tp1411
(lp1412
I00
as(g501
g1090
g1087
tp1413
(lp1414
I00
as(g381
g438
g269
tp1415
(lp1416
I00
as(g336
g501
g1087
tp1417
(lp1418
I00
as(g336
g268
g269
tp1419
(lp1420
I00
as(g1038
g268
g269
tp1421
(lp1422
I00
as(g381
g269
g1087
tp1423
(lp1424
I00
as(g438
g552
g269
tp1425
(lp1426
I00
as(g552
g552
g1087
tp1427
(lp1428
I00
as(g336
g1090
g269
tp1429
(lp1430
I00
as(g1087
g1090
g1087
tp1431
(lp1432
I00
as(g1038
g552
g1087
tp1433
(lp1434
I00
as(g1087
g501
g269
tp1435
(lp1436
I00
as(g1090
g1090
g1087
tp1437
(lp1438
I00
as(g336
g381
g269
tp1439
(lp1440
I00
as(g381
g1038
g269
tp1441
(lp1442
I01
as(g1087
g609
g1087
tp1443
(lp1444
I00
as(g268
g381
g1087
tp1445
(lp1446
I00
as(g552
g269
g269
tp1447
(lp1448
I00
as(g1090
g381
g1087
tp1449
(lp1450
I00
as(g552
g268
g269
tp1451
(lp1452
I00
as(g268
g438
g269
tp1453
(lp1454
I00
as(g336
g1087
g1087
tp1455
(lp1456
I00
as(g609
g381
g1087
tp1457
(lp1458
I00
as(g501
g609
g269
tp1459
(lp1460
I01
as(g1090
g1087
g1087
tp1461
(lp1462
I00
as(g1087
g609
g269
tp1463
(lp1464
I00
as(g381
g1090
g269
tp1465
(lp1466
I00
as(g438
g552
g1087
tp1467
(lp1468
I00
as(g438
g336
g1087
tp1469
(lp1470
I00
as(g1038
g269
g269
tp1471
(lp1472
I00
as(g336
g1090
g1087
tp1473
(lp1474
I00
as(g336
g1038
g269
tp1475
(lp1476
I01
as(g1090
g336
g1087
tp1477
(lp1478
I00
as(g269
g501
g269
tp1479
(lp1480
I00
as(g269
g552
g269
tp1481
(lp1482
I00
as(g501
g381
g269
tp1483
(lp1484
I00
as(g501
g336
g269
tp1485
(lp1486
I01
as(g1090
g552
g269
tp1487
(lp1488
I00
as(g438
g268
g269
tp1489
(lp1490
I00
as(g438
g438
g1087
tp1491
(lp1492
I00
as(g501
g1038
g1087
tp1493
(lp1494
I00
as(g1038
g269
g1087
tp1495
(lp1496
I00
as(g609
g269
g269
tp1497
(lp1498
I00
as(g381
g269
g269
tp1499
(lp1500
I00
as(g501
g609
g1087
tp1501
(lp1502
I00
as(g1038
g609
g269
tp1503
(lp1504
I00
as(g269
g1087
g269
tp1505
(lp1506
I00
as(g1090
g1090
g269
tp1507
(lp1508
I00
as(g609
g268
g1087
tp1509
(lp1510
I00
as(g381
g1090
g1087
tp1511
(lp1512
I00
as(g1087
g438
g269
tp1513
(lp1514
I00
as(g268
g336
g269
tp1515
(lp1516
I01
as(g1090
g336
g269
tp1517
(lp1518
I00
as(g381
g1087
g269
tp1519
(lp1520
I00
as(g268
g438
g1087
tp1521
(lp1522
I00
as(g269
g381
g269
tp1523
(lp1524
I00
as(g1090
g501
g1087
tp1525
(lp1526
I00
as(g1038
g1090
g1087
tp1527
(lp1528
I00
as(g438
g438
g269
tp1529
(lp1530
I00
as(g501
g1038
g269
tp1531
(lp1532
I01
as(g552
g1090
g1087
tp1533
(lp1534
I00
as(g438
g336
g269
tp1535
(lp1536
I00
as(g269
g1038
g269
tp1537
(lp1538
I00
as(g268
g552
g269
tp1539
(lp1540
I00
as(g336
g1038
g1087
tp1541
(lp1542
I00
as(g1038
g1038
g269
tp1543
(lp1544
I00
as(g501
g336
g1087
tp1545
(lp1546
I00
as(g438
g1038
g269
tp1547
(lp1548
I01
as(g552
g1087
g1087
tp1549
(lp1550
I00
as(g269
g609
g269
tp1551
(lp1552
I00
as(g609
g1087
g1087
tp1553
(lp1554
I00
as(g269
g336
g1087
tp1555
(lp1556
I00
as(g609
g269
g1087
tp1557
(lp1558
I00
as(g1087
g1087
g1087
tp1559
(lp1560
I00
as(g438
g1090
g1087
tp1561
(lp1562
I00
as(g336
g552
g1087
tp1563
(lp1564
I00
as(g269
g1087
g1087
tp1565
(lp1566
I00
as(g609
g268
g269
tp1567
(lp1568
I00
as(g1087
g381
g269
tp1569
(lp1570
I00
assg748
g749
sS'use_prm'
p1571
I01
sS'object_names'
p1572
(lp1573
S'square_packing_box1'
p1574
aS'rectangular_packing_box1'
p1575
aS'square_packing_box2'
p1576
aS'rectangular_packing_box2'
p1577
aS'square_packing_box3'
p1578
aS'rectangular_packing_box3'
p1579
aS'square_packing_box4'
p1580
aS'rectangular_packing_box4'
p1581
asg1028
NsS'current_holding_collides'
p1582
NsS'object_poses'
p1583
(dp1584
Vrectangular_packing_box4
p1585
g19
(g20
(I0
tp1586
g22
tp1587
Rp1588
(I1
(I1
I3
tp1589
g278
I00
S'\x98\x1e]pS`\xd2?\x16\x1b\xb6\xe9Ei\x18\xc0\x82\x97\xe8\xa1t:\xe4?'
p1590
tp1591
bsVrectangular_packing_box2
p1592
g19
(g20
(I0
tp1593
g22
tp1594
Rp1595
(I1
(I1
I3
tp1596
g278
I00
S'x#\x8a\xa8\xbfB\x02@]@\xdd\xaa0\xf7\x1a\xc0\xa2\x93\xe4\xf2\xe3\x8f\xe0?'
p1597
tp1598
bsVrectangular_packing_box3
p1599
g19
(g20
(I0
tp1600
g22
tp1601
Rp1602
(I1
(I1
I3
tp1603
g278
I00
S',\xa3$/\t\xb1\xb0?p\xd9\xd7\x88y7\x1e\xc0\xa1\xa8\xa4gcb\x12@'
p1604
tp1605
bsVrectangular_packing_box1
p1606
g19
(g20
(I0
tp1607
g22
tp1608
Rp1609
(I1
(I1
I3
tp1610
g278
I00
S'\xf81, \xdaJ\xf5?\x90\x94\xc7_\x9e4\x18\xc0\x88,&\x8ck,\x0b@'
p1611
tp1612
bsVsquare_packing_box2
p1613
g19
(g20
(I0
tp1614
g22
tp1615
Rp1616
(I1
(I1
I3
tp1617
g278
I00
S'\xb3\x99\x7f<\xad\xb4\r@\xd8\xe5\x95\xe8\xfc\xf0\x16\xc0Y\x96n\x9e\xe7\t\x19@'
p1618
tp1619
bsVsquare_packing_box3
p1620
g19
(g20
(I0
tp1621
g22
tp1622
Rp1623
(I1
(I1
I3
tp1624
g278
I00
S'8\xc7\x84Ad\xa3\n@\xb4\xaf\xb2\x18;\x05\x1e\xc0j8\xf9\x85\xb6\xac\x0f@'
p1625
tp1626
bsVsquare_packing_box1
p1627
g19
(g20
(I0
tp1628
g22
tp1629
Rp1630
(I1
(I1
I3
tp1631
g278
I00
S'\x12\xcf\x19\xc3\xf23\x0c@\x89\xb5r\xad\x0f?\x15\xc0\xbf~a\xe9h\n\x13@'
p1632
tp1633
bsVsquare_packing_box4
p1634
g19
(g20
(I0
tp1635
g22
tp1636
Rp1637
(I1
(I1
I3
tp1638
g278
I00
S'X\xce\xcef\xfe\xbb\xf0?L@\xfc\xa1\x9e\xc0\x16\xc0\xaeKe\x14U\xf8\x13@'
p1639
tp1640
bssS'reachable_regions_while_holding'
p1641
(lp1642
(g750
g1087
tp1643
a(g709
g1087
tp1644
a(g810
g1087
tp1645
a(g858
g1087
tp1646
a(g710
g1087
tp1647
a(g711
g1087
tp1648
a(g712
g1087
tp1649
a(g989
g1087
tp1650
a(g989
g269
tp1651
asS'in_region'
p1652
(itrajectory_representation.predicates.in_region
InRegion
p1653
(dp1654
g1028
NsbsS'cached_pick_paths'
p1655
(dp1656
g750
g762
sg709
g791
sg810
g839
sg858
g869
sg710
g918
sg711
g947
sg712
g982
sg989
g1000
ssg713
(dp1657
(Vsquare_packing_box4
p1658
(cnumpy.core.multiarray
scalar
p1659
(g278
S'\x90\xc0\x1f~\xfe\xbb\xf0?'
p1660
tp1661
Rp1662
g1659
(g278
S'8\xdb\xdc\x98\x9e\xc0\x16\xc0'
p1663
tp1664
Rp1665
g1659
(g278
S'\xda\x8c\xd3\x10U\xf8\x13@'
p1666
tp1667
Rp1668
tp1669
tp1670
g747
s(Vrectangular_packing_box2
p1671
(g1659
(g278
S'\xce\xe30\x98\xbfB\x02@'
p1672
tp1673
Rp1674
g1659
(g278
S'\xf9hq\xc60\xf7\x1a\xc0'
p1675
tp1676
Rp1677
g1659
(g278
S'V\xbc\x91y\xe4\x8f\xe0?'
p1678
tp1679
Rp1680
tp1681
tp1682
g723
s(Vrectangular_packing_box3
p1683
(g1659
(g278
S'{\x9f\xaaB\x03\xb1\xb0?'
p1684
tp1685
Rp1686
g1659
(g278
S'\x0f\x0b\xb5\xa6y7\x1e\xc0'
p1687
tp1688
Rp1689
g1659
(g278
S'\xe5\xef\xdeQcb\x12@'
p1690
tp1691
Rp1692
tp1693
tp1694
g727
s(Vrectangular_packing_box4
p1695
(g1659
(g278
S'}\xec.PR`\xd2?'
p1696
tp1697
Rp1698
g1659
(g278
S'\x8fT\xdf\xf9Ei\x18\xc0'
p1699
tp1700
Rp1701
g1659
(g278
S'\xe8\xf9\xd3Fu:\xe4?'
p1702
tp1703
Rp1704
tp1705
tp1706
g719
s(Vsquare_packing_box2
p1707
(g1659
(g278
S'6\x90.6\xad\xb4\r@'
p1708
tp1709
Rp1710
g1659
(g278
S'7\xc3\r\xf8\xfc\xf0\x16\xc0'
p1711
tp1712
Rp1713
g1659
(g278
S'\xe9\x9d\n\xb8\xe7\t\x19@'
p1714
tp1715
Rp1716
tp1717
tp1718
g735
s(Vsquare_packing_box3
p1719
(g1659
(g278
S'\xc7\xbc\x8e8d\xa3\n@'
p1720
tp1721
Rp1722
g1659
(g278
S'\xb8\xca\x13\x08;\x05\x1e\xc0'
p1723
tp1724
Rp1725
g1659
(g278
S'\xde\xc9\xa7\xc7\xb6\xac\x0f@'
p1726
tp1727
Rp1728
tp1729
tp1730
g739
s(Vsquare_packing_box1
p1731
(g1659
(g278
S'N\xb4\xab\x90\xf23\x0c@'
p1732
tp1733
Rp1734
g1659
(g278
S'Q\xf5+\x9d\x0f?\x15\xc0'
p1735
tp1736
Rp1737
g1659
(g278
S'\xe2\x1f\xb6\xf4h\n\x13@'
p1738
tp1739
Rp1740
tp1741
tp1742
g743
s(Vrectangular_packing_box1
p1743
(g1659
(g278
S'\xa8\xdf\x85\xad\xd9J\xf5?'
p1744
tp1745
Rp1746
g1659
(g278
S'\x14\x05\xfaD\x9e4\x18\xc0'
p1747
tp1748
Rp1749
g1659
(g278
S'\xb13\x85\xcek,\x0b@'
p1750
tp1751
Rp1752
tp1753
tp1754
g731
ssS'state_saver'
p1755
(igtamp_utils.utils
CustomStateSaver
p1756
(dp1757
S'robot_base_pose'
p1758
g19
(g20
(I0
tp1759
g22
tp1760
Rp1761
(I1
(I1
I3
tp1762
g278
I00
S'fR\xdd8\xd6\x8d\x00@\xbfC|\xd2X\x00\x16\xc0\xc1\xab\x9e\x0b\x900\xd2?'
p1763
tp1764
bsS'held_object'
p1765
NsS'robot_name'
p1766
S'pr2'
p1767
sS'env_id'
p1768
I1
sg1583
(dp1769
Vright_wall_1
p1770
g19
(g20
(I0
tp1771
g22
tp1772
Rp1773
(I1
(I4
tp1774
g278
I00
S'H\xe1z\x14\xaeG\x12@&\\\x8f\xc2\xf5(\xd4\xbf\xcc\x7fH\xbf}\x1d\xed?\x00\x00\x00\x00\x00\x00\x00\x00'
p1775
tp1776
bsVc_obst5
p1777
g19
(g20
(I0
tp1778
g22
tp1779
Rp1780
(I1
(I4
tp1781
g278
I00
S"\x9c\xf1q\xbb~\xea\x11@\xfc7\xbb\xd6O\xb6\xd4?e\xaa`TR'\xed?\xd2\x93\xb1\x82\xa4\x94\x0b@"
p1782
tp1783
bsVentrance_right
p1784
g19
(g20
(I0
tp1785
g22
tp1786
Rp1787
(I1
(I4
tp1788
g278
I00
S'ffffff\n@H\xe1z\x14\xaeG\t\xc0\x9c\xc4 \xb0rh\xc1?\x00\x00\x00\x00\x00\x00\x00\x00'
p1789
tp1790
bsVcomputer_table
p1791
g19
(g20
(I0
tp1792
g22
tp1793
Rp1794
(I1
(I4
tp1795
g278
I00
S'\x00\x00\x00\x00\x00\x00\x13@\x00\x00\x00\x00\x00\x00\xf8\xbf\x96C\x8bl\xe7\xfb\xe7?\xd2!3\x7f|\xd9\x12@'
p1796
tp1797
bsVchair_6b56
p1798
g19
(g20
(I0
tp1799
g22
tp1800
Rp1801
(I1
(I4
tp1802
g278
I00
S'u=\n\xd7\xa3p\xf5?K\xe1z\x14\xaeG\xd1?\x00\x00\x00\x00\x00\x00\x00\x00\xd6$\xfaNBm\n@'
p1803
tp1804
bsVsquare_packing_box3
p1805
g19
(g20
(I0
tp1806
g22
tp1807
Rp1808
(I1
(I4
tp1809
g278
I00
S'=\xc7\x84Ad\xa3\n@\xba\xaf\xb2\x18;\x05\x1e\xc0L7\x89A`\xe5\xd8?j8\xf9\x85\xb6\xac\x0f@'
p1810
tp1811
bsVsquare_packing_box2
p1812
g19
(g20
(I0
tp1813
g22
tp1814
Rp1815
(I1
(I4
tp1816
g278
I00
S'\xb3\x99\x7f<\xad\xb4\r@\xd8\xe5\x95\xe8\xfc\xf0\x16\xc0L7\x89A`\xe5\xd8?Y\x96n\x9e\xe7\t\x19@'
p1817
tp1818
bsVtable
p1819
g19
(g20
(I0
tp1820
g22
tp1821
Rp1822
(I1
(I4
tp1823
g278
I00
S'\x7f\xf6#EdX\xed?\xac\xffs\x98//\xc0\xbf\x00\x00\x00\x00\x00\x00\x00\x00\x00\x00\x00\x00\x00\x00\x00\x00'
p1824
tp1825
bsVsquare_packing_box1
p1826
g19
(g20
(I0
tp1827
g22
tp1828
Rp1829
(I1
(I4
tp1830
g278
I00
S'\x0e\xcf\x19\xc3\xf23\x0c@\x88\xb5r\xad\x0f?\x15\xc0L7\x89A`\xe5\xd8?\xbf~a\xe9h\n\x13@'
p1831
tp1832
bsVback_wall_2
p1833
g19
(g20
(I0
tp1834
g22
tp1835
Rp1836
(I1
(I4
tp1837
g278
I00
S'\xaeG\xe1z\x14.\x13@\x80\x14\xaeG\xe1z\xc4?xX\xa85\xcd\xbb\xf2?\x00\x00\x00\x00\x00\x00\x00\x00'
p1838
tp1839
bsVchair_083c
p1840
g19
(g20
(I0
tp1841
g22
tp1842
Rp1843
(I1
(I4
tp1844
g278
I00
S'\xa4p=\n\xd7\xa3\xe0?333333\xe3\xbf\x00\x00\x00\x00\x00\x00\x00\x00\x00\x00\x00\x00\x00\x00\x00\x00'
p1845
tp1846
bsVback_wall_1
p1847
g19
(g20
(I0
tp1848
g22
tp1849
Rp1850
(I1
(I4
tp1851
g278
I00
S'\xaeG\xe1z\x14.\x13@\x80\x14\xaeG\xe1z\xc4?\xcc\x7fH\xbf}\x1d\xed?\x00\x00\x00\x00\x00\x00\x00\x00'
p1852
tp1853
bsVbottom_wall
p1854
g19
(g20
(I0
tp1855
g22
tp1856
Rp1857
(I1
(I4
tp1858
g278
I00
S'\x00\x00\x00\x00\x00\x00\xfc?\x00\x00\x00\x00\x00\x00\x00\x00\x00\x00\x00\x00\x00\x00\x00\x00\x00\x00\x00\x00\x00\x00\x00\x00'
p1859
tp1860
bsVcup_905a
p1861
g19
(g20
(I0
tp1862
g22
tp1863
Rp1864
(I1
(I4
tp1865
g278
I00
S'\x00\x00\x00\x00\x00\x00\xf0?\x83\xc0\xca\xa1E\xb6\xdb?\x1b/\xdd$\x06\x81\xed?\x00\x00\x00\x00\x00\x00\x00\x00'
p1866
tp1867
bsVplate_496f
p1868
g19
(g20
(I0
tp1869
g22
tp1870
Rp1871
(I1
(I4
tp1872
g278
I00
S"q=\n\xd7\xa3p\xe5?\x9dhW!\xe5'\xdd\xbf\x1b/\xdd$\x06\x81\xed?\x00\x00\x00\x00\x00\x00\x00\x00"
p1873
tp1874
bsVtoaster
p1875
g19
(g20
(I0
tp1876
g22
tp1877
Rp1878
(I1
(I4
tp1879
g278
I00
S')\\\x8f\xc2\xf5(\xf4\xbf\xe0z\x14\xaeG\xe1\xf2\xbf\xb8\x1e\x85\xebQ\xb8\xee?\x89/`\x9b\xf8\x8a\xe4?'
p1880
tp1881
bsVc_obst1
p1882
g19
(g20
(I0
tp1883
g22
tp1884
Rp1885
(I1
(I4
tp1886
g278
I00
S"\x07%\x95\xf6\x8a4\x12@%\xc3S\xe6\xc1\xef\xd7?e\xaa`TR'\xed?\xe0\xbaL\x80\x10\xb3\t@"
p1887
tp1888
bsVrectangular_packing_box4
p1889
g19
(g20
(I0
tp1890
g22
tp1891
Rp1892
(I1
(I4
tp1893
g278
I00
S'\x98\x1e]pS`\xd2?\x16\x1b\xb6\xe9Ei\x18\xc0L7\x89A`\xe5\xd8?\x82\x97\xe8\xa1t:\xe4?'
p1894
tp1895
bsVmicrowave
p1896
g19
(g20
(I0
tp1897
g22
tp1898
Rp1899
(I1
(I4
tp1900
g278
I00
S'\x9a\x99\x99\x99\x99\x99\xf1\xbf\x00\x00\x00\x00\x00\x00\x00@7\x89A`\xe5\xd0\xee?\x00\x00\x00\x00\x00\x00\x00\x00'
p1901
tp1902
bsVc_obst7
p1903
g19
(g20
(I0
tp1904
g22
tp1905
Rp1906
(I1
(I4
tp1907
g278
I00
S"\x00\x82=\xfa]F\x12@Rf\x922\x8f\r\xdc?e\xaa`TR'\xed?\xa1F+\x03Yi}?"
p1908
tp1909
bsVc_obst6
p1910
g19
(g20
(I0
tp1911
g22
tp1912
Rp1913
(I1
(I4
tp1914
g278
I00
S"\x04\x9b\x11\x01\x95\x83\x12@\xf0\xa7>?}-\xd2?e\xaa`TR'\xed?\xed\xedJ\xfa\x0b\x0c\x04@"
p1915
tp1916
bsVcup_b6af
p1917
g19
(g20
(I0
tp1918
g22
tp1919
Rp1920
(I1
(I4
tp1921
g278
I00
S'R\xb8\x1e\x85\xebQ\xe8?\x9a\x99\x99\x99\x99\x99\xe1?\x1b/\xdd$\x06\x81\xed?\x00\x00\x00\x00\x00\x00\x00\x00'
p1922
tp1923
bsVc_obst4
p1924
g19
(g20
(I0
tp1925
g22
tp1926
Rp1927
(I1
(I4
tp1928
g278
I00
S"n\x08(p\x9bi\x12@\xc0\x8f\x90\x84\x98\xd9\xc1?e\xaa`TR'\xed?\xae\x8f\xee\xf0\x1b\x97\x16@"
p1929
tp1930
bsVrectangular_packing_box2
p1931
g19
(g20
(I0
tp1932
g22
tp1933
Rp1934
(I1
(I4
tp1935
g278
I00
S'x#\x8a\xa8\xbfB\x02@]@\xdd\xaa0\xf7\x1a\xc0L7\x89A`\xe5\xd8?\xa2\x93\xe4\xf2\xe3\x8f\xe0?'
p1936
tp1937
bsVplate_fa76
p1938
g19
(g20
(I0
tp1939
g22
tp1940
Rp1941
(I1
(I4
tp1942
g278
I00
S'=\n\xd7\xa3p=\xf2?\x00\x00\x00\x00\x00\x00\x00\x00\x1b/\xdd$\x06\x81\xed?\x00\x00\x00\x00\x00\x00\x00\x00'
p1943
tp1944
bsVfloorwalls
p1945
g19
(g20
(I0
tp1946
g22
tp1947
Rp1948
(I1
(I4
tp1949
g278
I00
S'\xc7\xcc\xcc\xcc\xcc\xcc\xfc?\x00\x00\x00\x00\x00\x00\x18\xc0H\xe1z\x14\xaeG\xc1?\x16-DT\xfb!\xf9?'
p1950
tp1951
bsVpin_c671
p1952
g19
(g20
(I0
tp1953
g22
tp1954
Rp1955
(I1
(I4
tp1956
g278
I00
S'\xc3\xf5(\\\x8f\xc2\xf1\xbf}?5^\xbaI\x02@\xb8\x1e\x85\xebQ\xb8\xfa?\x00\x00\x00\x00\x00\x00\x00\x00'
p1957
tp1958
bsVc_obst3
p1959
g19
(g20
(I0
tp1960
g22
tp1961
Rp1962
(I1
(I4
tp1963
g278
I00
S"^\xdd\\<%\xa1\x12@\xac\x8b8\x90\xc6\xe6\xd8?e\xaa`TR'\xed?\x1c\x9e\xaarJ\xdd\x16@"
p1964
tp1965
bsVchair_2e39
p1966
g19
(g20
(I0
tp1967
g22
tp1968
Rp1969
(I1
(I4
tp1970
g278
I00
S'hfffff\xee?cfffff\xf2\xbf\x00\x00\x00\x00\x00\x00\x00\x00\x07M\xe8QQF\xf3?'
p1971
tp1972
bsVentrance_left
p1973
g19
(g20
(I0
tp1974
g22
tp1975
Rp1976
(I1
(I4
tp1977
g278
I00
S'\x98\x99\x99\x99\x99\x99\xe9\xbfH\xe1z\x14\xaeG\t\xc0\x9c\xc4 \xb0rh\xc1?\x00\x00\x00\x00\x00\x00\x00\x00'
p1978
tp1979
bsVtop_wall_1
p1980
g19
(g20
(I0
tp1981
g22
tp1982
Rp1983
(I1
(I4
tp1984
g278
I00
S'H\xe1z\x14\xaeG\x12@\x80\x14\xaeG\xe1z\xc4?xX\xa85\xcd\xbb\xf2?\x00\x00\x00\x00\x00\x00\x00\x00'
p1985
tp1986
bsVrectangular_packing_box3
p1987
g19
(g20
(I0
tp1988
g22
tp1989
Rp1990
(I1
(I4
tp1991
g278
I00
S'\x9c\xa3$/\t\xb1\xb0?r\xd9\xd7\x88y7\x1e\xc0L7\x89A`\xe5\xd8?\xa1\xa8\xa4gcb\x12@'
p1992
tp1993
bsVshaker
p1994
g19
(g20
(I0
tp1995
g22
tp1996
Rp1997
(I1
(I4
tp1998
g278
I00
S'\n\xd7\xa3p=\n\x01@\x14\xaeG\xe1z\x14\x02@\\\x8f\xc2\xf5(\\\xef?\x00\x00\x00\x00\x00\x00\x00\x00'
p1999
tp2000
bsVc_obst9
p2001
g19
(g20
(I0
tp2002
g22
tp2003
Rp2004
(I1
(I4
tp2005
g278
I00
S"\x97v\x82wVC\x12@\xd8m\xad8\xc7F\xc2\xbfe\xaa`TR'\xed?\xd9R5=\xef\x80\x10@"
p2006
tp2007
bsVplate_835a
p2008
g19
(g20
(I0
tp2009
g22
tp2010
Rp2011
(I1
(I4
tp2012
g278
I00
S'\xf6(\\\x8f\xc2\xf5\xf0?\\\x8f\xc2\xf5(\\\xe7\xbf\x1b/\xdd$\x06\x81\xed?\x00\x00\x00\x00\x00\x00\x00\x00'
p2013
tp2014
bsVcup_58a2
p2015
g19
(g20
(I0
tp2016
g22
tp2017
Rp2018
(I1
(I4
tp2019
g278
I00
S'\x85\xebQ\xb8\x1e\x85\xe3?\xcd\xcc\xcc\xcc\xcc\xcc\xdc?\x1b/\xdd$\x06\x81\xed?\x00\x00\x00\x00\x00\x00\x00\x00'
p2020
tp2021
bsVleft_wall_1
p2022
g19
(g20
(I0
tp2023
g22
tp2024
Rp2025
(I1
(I4
tp2026
g278
I00
S'H\xe1z\x14\xaeG\x12@S\xb8\x1e\x85\xebQ\xe4?\xcc\x7fH\xbf}\x1d\xed?\x00\x00\x00\x00\x00\x00\x00\x00'
p2027
tp2028
bsVc_obst2
p2029
g19
(g20
(I0
tp2030
g22
tp2031
Rp2032
(I1
(I4
tp2033
g278
I00
S"\x00\xf9\xf8\xe06C\x12@Nd\x9dS@k\xcc?e\xaa`TR'\xed?\x8e\xd1'\xc0\x08~\xfe?"
p2034
tp2035
bsVsquare_packing_box4
p2036
g19
(g20
(I0
tp2037
g22
tp2038
Rp2039
(I1
(I4
tp2040
g278
I00
S'Z\xce\xcef\xfe\xbb\xf0?N@\xfc\xa1\x9e\xc0\x16\xc0L7\x89A`\xe5\xd8?\xaeKe\x14U\xf8\x13@'
p2041
tp2042
bsVrectangular_packing_box1
p2043
g19
(g20
(I0
tp2044
g22
tp2045
Rp2046
(I1
(I4
tp2047
g278
I00
S'\xf81, \xdaJ\xf5?\x90\x94\xc7_\x9e4\x18\xc0L7\x89A`\xe5\xd8?\x88,&\x8ck,\x0b@'
p2048
tp2049
bsVpin_371e
p2050
g19
(g20
(I0
tp2051
g22
tp2052
Rp2053
(I1
(I4
tp2054
g278
I00
S'333333\xf3\xbfffffff\xf6?\xb8\x1e\x85\xebQ\xb8\xee?\x00\x00\x00\x00\x00\x00\x00\x00'
p2055
tp2056
bsVfridge
p2057
g19
(g20
(I0
tp2058
g22
tp2059
Rp2060
(I1
(I4
tp2061
g278
I00
S'\xd7\xa3p=\n\xd7\xeb\xbf\x00\x00\x00\x00\x00\x00\x00\xc0\xcd\xcc\xcc\xcc\xcc\xcc\xf8?\x00\x00\x00\x00\x00\x00\x00\x00'
p2062
tp2063
bsVcup_d441
p2064
g19
(g20
(I0
tp2065
g22
tp2066
Rp2067
(I1
(I4
tp2068
g278
I00
S'\n\xd7\xa3p=\n\xef?\x8f\xc2\xf5(\\\x8f\xe2?\x1b/\xdd$\x06\x81\xed?\x00\x00\x00\x00\x00\x00\x00\x00'
p2069
tp2070
bsVshelf2
p2071
g19
(g20
(I0
tp2072
g22
tp2073
Rp2074
(I1
(I4
tp2075
g278
I00
S'\x00\x00\x00\x00\x00\x00\x0e@\xaeG\xe1z\x14\xae\x07@\x9c\xc4 \xb0rh\xc1?\xd2!3\x7f|\xd9\x12@'
p2076
tp2077
bsVtop_wall_2
p2078
g19
(g20
(I0
tp2079
g22
tp2080
Rp2081
(I1
(I4
tp2082
g278
I00
S'H\xe1z\x14\xaeG\x12@\x80\x14\xaeG\xe1z\xc4?\x16HP\xfc\x18\xf3\xfd?\x00\x00\x00\x00\x00\x00\x00\x00'
p2083
tp2084
bsVc_obst0
p2085
g19
(g20
(I0
tp2086
g22
tp2087
Rp2088
(I1
(I4
tp2089
g278
I00
S"\xb8\x088t\x9c7\x12@\x9eD\xf1\x14\xed\x8f\x96\xbfe\xaa`TR'\xed?\xadtI0\xaa\x0c\x13@"
p2090
tp2091
bsVshelf1
p2092
g19
(g20
(I0
tp2093
g22
tp2094
Rp2095
(I1
(I4
tp2096
g278
I00
S'\x00\x00\x00\x00\x00\x00\x13@\xaeG\xe1z\x14\xae\x07@\x9c\xc4 \xb0rh\xc1?\xd2!3\x7f|\xd9\x12@'
p2097
tp2098
bsVsink
p2099
g19
(g20
(I0
tp2100
g22
tp2101
Rp2102
(I1
(I4
tp2103
g278
I00
S'ffffff\xd6?333333\x01@\x9a\x99\x99\x99\x99\x99\xb9\xbf\x00\x00\x00\x00\x00\x00\x00\x00'
p2104
tp2105
bsVpr2
p2106
g19
(g20
(I0
tp2107
g22
tp2108
Rp2109
(I1
(I4
tp2110
g278
I00
S'fR\xdd8\xd6\x8d\x00@\xbfC|\xd2X\x00\x16\xc0\x9a_\x94\xa0\xbf\xd0\xc1?\xc1\xab\x9e\x0b\x900\xd2?'
p2111
tp2112
bsVchair_12d0
p2113
g19
(g20
(I0
tp2114
g22
tp2115
Rp2116
(I1
(I4
tp2117
g278
I00
S'\\\xd2\x18\xad\xa3\xaa\xdb?Of\x83L2r\xc6?\x00\x00\x00\x00\x00\x00\x00\x00\xf8\x81\r\x14M\xa6\x17@'
p2118
tp2119
bsVright_wall_2
p2120
g19
(g20
(I0
tp2121
g22
tp2122
Rp2123
(I1
(I4
tp2124
g278
I00
S'H\xe1z\x14\xaeG\x12@&\\\x8f\xc2\xf5(\xd4\xbfxX\xa85\xcd\xbb\xf2?\x00\x00\x00\x00\x00\x00\x00\x00'
p2125
tp2126
bsVknife_block
p2127
g19
(g20
(I0
tp2128
g22
tp2129
Rp2130
(I1
(I4
tp2131
g278
I00
S'R\xb8\x1e\x85\xebQ\xe0\xbfffffff\x02@`\xe5\xd0"\xdb\xf9\xee?\x00\x00\x00\x00\x00\x00\x00\x00'
p2132
tp2133
bsVleft_wall_2
p2134
g19
(g20
(I0
tp2135
g22
tp2136
Rp2137
(I1
(I4
tp2138
g278
I00
S'H\xe1z\x14\xaeG\x12@S\xb8\x1e\x85\xebQ\xe4?xX\xa85\xcd\xbb\xf2?\x00\x00\x00\x00\x00\x00\x00\x00'
p2139
tp2140
bsVleft_wall
p2141
g19
(g20
(I0
tp2142
g22
tp2143
Rp2144
(I1
(I4
tp2145
g278
I00
S'\x9a\x99\x99\x99\x99\x99\x07@H\xe1z\x14\xaeG\xff?\x9c\xc4 \xb0rh\xc1?\x00\x00\x00\x00\x00\x00\x00\x00'
p2146
tp2147
bsVkitchen
p2148
g19
(g20
(I0
tp2149
g22
tp2150
Rp2151
(I1
(I4
tp2152
g278
I00
S'\x00\x00\x00\x00\x00\x00\x00\x00\x00\x00\x00\x00\x00\x00\x00\x00\x00\x00\x00\x00\x00\x00\x00\x00\x00\x00\x00\x00\x00\x00\x00\x00'
p2153
tp2154
bsVtable2
p2155
g19
(g20
(I0
tp2156
g22
tp2157
Rp2158
(I1
(I4
tp2159
g278
I00
S'\x00\x00\x00\x00\x00\x00\x13@\x80\x14\xaeG\xe1z\xc4?S\x96!\x8euq\xec?\xd2!3\x7f|\xd9\x12@'
p2160
tp2161
bsVc_obst8
p2162
g19
(g20
(I0
tp2163
g22
tp2164
Rp2165
(I1
(I4
tp2166
g278
I00
S"\xa1\x86\xba\xbe\x0e\xfe\x11@+\x88\xaeAcX\xc9?e\xaa`TR'\xed?\xe7\xc6R\xf7\xd5q\x17@"
p2167
tp2168
bsVplate_b4e7
p2169
g19
(g20
(I0
tp2170
g22
tp2171
Rp2172
(I1
(I4
tp2173
g278
I00
S'\x14\xaeG\xe1z\x14\xf2\xbf\x14\xaeG\xe1z\x14\x00@=\n\xd7\xa3p=\xf2?\x00\x00\x00\x00\x00\x00\x00\x00'
p2174
tp2175
bsVcooker
p2176
g19
(g20
(I0
tp2177
g22
tp2178
Rp2179
(I1
(I4
tp2180
g278
I00
S'\xaeG\xe1z\x14\xae\xff?\x85\xebQ\xb8\x1e\x85\xfb?\x00\x00\x00\x00\x00\x00\xe8?\x00\x00\x00\x00\x00\x00\x00\x00'
p2181
tp2182
bsVpin_a091
p2183
g19
(g20
(I0
tp2184
g22
tp2185
Rp2186
(I1
(I4
tp2187
g278
I00
S'\xdb\xf9~j\xbct\xf7\xbf)\\\x8f\xc2\xf5(\x02@\xb8\x1e\x85\xebQ\xb8\xfa?\x00\x00\x00\x00\x00\x00\x00\x00'
p2188
tp2189
bsVside_wall_2
p2190
g19
(g20
(I0
tp2191
g22
tp2192
Rp2193
(I1
(I4
tp2194
g278
I00
S'\xfa\xff\xff\xff\xff\xff\x14@\x00\x00\x00\x00\x00\x00\x00\x00\x9c\xc4 \xb0rh\xc1?\x18-DT\xfb!\xf9?'
p2195
tp2196
bsVside_wall_3
p2197
g19
(g20
(I0
tp2198
g22
tp2199
Rp2200
(I1
(I4
tp2201
g278
I00
S'\x00\x00\x00\x00\x00\x00\xfc?H\xe1z\x14\xaeG\t@\x9c\xc4 \xb0rh\xc1?\x00\x00\x00\x00\x00\x00\x00\x00'
p2202
tp2203
bsVmixer
p2204
g19
(g20
(I0
tp2205
g22
tp2206
Rp2207
(I1
(I4
tp2208
g278
I00
S'\n\xd7\xa3p=\n\xfb?ffffff\x02@d;\xdfO\x8d\x97\xee?\x00\x00\x00\x00\x00\x00\x00\x00'
p2209
tp2210
bsVside_wall_1
p2211
g19
(g20
(I0
tp2212
g22
tp2213
Rp2214
(I1
(I4
tp2215
g278
I00
S'\xf4\xff\xff\xff\xff\xff\xfb\xbf\x00\x00\x00\x00\x00\x00\x00\x00\x9c\xc4 \xb0rh\xc1?\x18-DT\xfb!\xf9?'
p2216
tp2217
bsVbottom_wall_1
p2218
g19
(g20
(I0
tp2219
g22
tp2220
Rp2221
(I1
(I4
tp2222
g278
I00
S'H\xe1z\x14\xaeG\x12@\x80\x14\xaeG\xe1z\xc4?\xcc\x7fH\xbf}\x1d\xed?\x00\x00\x00\x00\x00\x00\x00\x00'
p2223
tp2224
bsVcan
p2225
g19
(g20
(I0
tp2226
g22
tp2227
Rp2228
(I1
(I4
tp2229
g278
I00
S'\x00\x00\x00\x00\x00\x00\xf4\xbfH\xe1z\x14\xaeG\xe1\xbf\n\xd7\xa3p=\n\xef?\x00\x00\x00\x00\x00\x00\x00\x00'
p2230
tp2231
bsVright_wall
p2232
g19
(g20
(I0
tp2233
g22
tp2234
Rp2235
(I1
(I4
tp2236
g278
I00
S'\x9a\x99\x99\x99\x99\x99\x07@H\xe1z\x14\xaeG\xff\xbf\x9c\xc4 \xb0rh\xc1?\x00\x00\x00\x00\x00\x00\x00\x00'
p2237
tp2238
bsVcoffe_machine
p2239
g19
(g20
(I0
tp2240
g22
tp2241
Rp2242
(I1
(I4
tp2243
g278
I00
S'\\\x8f\xc2\xf5(\\\xf5\xbf\xb8\x1e\x85\xebQ\xb8\xee?\n\xd7\xa3p=\n\xef?\x00\x00\x00\x00\x00\x00\x00\x00'
p2244
tp2245
bsVcomputer_chair
p2246
g19
(g20
(I0
tp2247
g22
tp2248
Rp2249
(I1
(I4
tp2250
g278
I00
S'\xcd\xcc\xcc\xcc\xcc\xcc\x10@\x00\x00\x00\x00\x00\x00\xf8\xbf\xa00\xb6\x10\xe4\xa9\x95\xbf\x00\x00\x00\x00\x00\x00\x00\x00'
p2251
tp2252
bssS'robot_dof_values'
p2253
g19
(g20
(I0
tp2254
g22
tp2255
Rp2256
(I1
(I39
tp2257
g278
I00
S'\x00\x00\x00\x00\x00\x00\x00\x00\x00\x00\x00\x00\x00\x00\x00\x00\x00\x00\x00\x00\x00\x00\x00\x00\x00\x00\x00\x00\x00\x00\x00\x00\x00\x00\x00\x00\x00\x00\x00\x00\x00\x00\x00\x00\x00\x00\x00\x00\x00\x00\x00\x00\x00\x00\x00\x00\x00\x00\x00\x00\x00\x00\x00\x00\x00\x00\x00\x00\x00\x00\x00\x00\x00\x00\x00\x00\x00\x00\x00\x00\x00\x00\x00\x00\x00\x00\x00\x00\x00\x00\x00\x00\x00\x00\x00\x00@d;\xdfO\x8d\x87?\x00\x00\x00\x00\x00\x00\x00\x00\x00\x00\x00\x00\x00\x00\x00\x00\x00\x00\x00\x00\x00\x00\x00\x00\xec\xed\t\xf1\xcc\xa4\xf4?\x00\x00\x00\x00\x00\x00\xc0\xbcN"\xd0^p\xf8\x00\xc0\x00\x00\x00\x00\x00\x00\x00\x00\x9d\x03\r.\x04V\xe6\xbf\x00\x00\x00\x00\x00\x00\x00\x00\x00\x00\x00\x00\x00\x00\x00\x00\x00\x00\x00\x00\x00\x00\xb6\xbc\x00\x00\x00\x00\x00\x00\x00\x00\x00\x00\x00\x00\x00\x00\xd0\xbc\x00\x00\x00\x00\x00\x00\x00\x00\x00\x00\x00\x00\x00\x00\x00\x00\xec\xed\t\xf1\xcc\xa4\xf4?\x00\x00\x00\x00\x00\x00\xc0\xbcN"\xd0^p\xf8\x00\xc0\x00\x00\x00\x00\x00\x00\x00\x00\xa3\x03\r.\x04V\xe6\xbf\x00\x00\x00\x00\x00\x00\x00\x00\xce9\xe3\xc17\x89\xe1?\x00\x00\x00\x00\x00\x00\xb6\xbc\x00\x00\x00\x00\x00\x00\x00\x00\x00\x00\x00\x00\x00\x00\xe0<\x00\x00\x00\x00\x00\x00\x00\x00'
p2258
tp2259
bsS'is_holding'
p2260
I00
sbsS'holding_collides'
p2261
NsS'parent_ternary_predicates'
p2262
(dp2263
sS'cached_place_paths'
p2264
(dp2265
(g858
g1087
tp2266
(lp2267
g19
(g20
(I0
tp2268
g22
tp2269
Rp2270
(I1
(I3
tp2271
g278
I00
S'\x08\xb4\xe4\xc4\x8f8\xfa?\xaf\x87\xfe\xaa\x1d\xc9\x1a\xc0\x9an\x9cC=\x86\xf9?'
p2272
tp2273
bas(g989
g269
tp2274
(lp2275
g19
(g20
(I0
tp2276
g22
tp2277
Rp2278
(I1
(I3
tp2279
g278
I00
S'\xb8l\x7fnD\xac\xe5?~V\x99e\xa9t\x14\xc0 \x97\xe9yVh\x13@'
p2280
tp2281
bag19
(g20
(I0
tp2282
g22
tp2283
Rp2284
(I1
(I3
tp2285
g289
I00
S'\xb0E\xbb;Cb\xeb?\x9e\xde\xa7\xdd\xbdd\x12\xc0\xc6\xee\xbd\x16\x8c\xaa\xf3\xbf'
p2286
tp2287
bag19
(g20
(I0
tp2288
g22
tp2289
Rp2290
(I1
(I3
tp2291
g289
I00
S'`\xc8Aw-\x81\xeb?/\xc3\xe6O\x04\xca\x10\xc0\x8a\xb7K)\x91{\xe4\xbf'
p2292
tp2293
bag19
(g20
(I0
tp2294
g22
tp2295
Rp2296
(I1
(I3
tp2297
g289
I00
S'\xe1\xc6\xc7\xa7\x12X\xe7?\x98\x99\xb0\x9a\xfb\xdb\x0b\xc0R\t\x1b)\xeae\xe0\xbf'
p2298
tp2299
bag19
(g20
(I0
tp2300
g22
tp2301
Rp2302
(I1
(I3
tp2303
g289
I00
S'p\xf1\xbdc^\x84\xf1?"\x88LL\xf9D\x06\xc0~w\r\xe9m\x0f\x19@'
p2304
tp2305
bas(g750
g269
tp2306
g338
s(g711
g1087
tp2307
(lp2308
g19
(g20
(I0
tp2309
g22
tp2310
Rp2311
(I1
(I3
tp2312
g278
I00
S'\x11\x8f\xa7\x80\x98j\x05@\x9e\x02\xf6\xcb.\x1e\x1d\xc0Lc\xa7\xe2@k\x16@'
p2313
tp2314
bas(g750
g1087
tp2315
(lp2316
g19
(g20
(I0
tp2317
g22
tp2318
Rp2319
(I1
(I3
tp2320
g278
I00
S'{\x02+\xb8\x18d\xe7?0\x86\xe2\xa7w\xdd\x1a\xc07N\nE\xf2\xcc\xfb?'
p2321
tp2322
bas(g711
g269
tp2323
g554
s(g710
g1087
tp2324
(lp2325
g19
(g20
(I0
tp2326
g22
tp2327
Rp2328
(I1
(I3
tp2329
g278
I00
S'\xbbD@\x1cPn\x0e@5\x1a-\xc8\x9b(\x1a\xc0\t\xdd\xaf\x13\t\xaa\xfb?'
p2330
tp2331
bas(g710
g269
tp2332
g440
s(g712
g269
tp2333
g383
s(g810
g269
tp2334
g271
s(g810
g1087
tp2335
(lp2336
g19
(g20
(I0
tp2337
g22
tp2338
Rp2339
(I1
(I3
tp2340
g278
I00
S'\xddZ\x82\x08\x1a)\xe8?\xa2\xc4\xf5o\t\xa7\x1e\xc0\xd60\x90\xbc\xce-\x05@'
p2341
tp2342
bas(g989
g1087
tp2343
(lp2344
g19
(g20
(I0
tp2345
g22
tp2346
Rp2347
(I1
(I3
tp2348
g278
I00
S'\xbfl\x7fnD\xac\xe5?}V\x99e\xa9t\x14\xc0 \x97\xe9yVh\x13@'
p2349
tp2350
bas(g712
g1087
tp2351
(lp2352
g19
(g20
(I0
tp2353
g22
tp2354
Rp2355
(I1
(I3
tp2356
g278
I00
S'=\xb0\x90)g\xcd\x06@nOn1\xd8M\x16\xc0\xcd|\xbc\xa0\xbdm\xa6?'
p2357
tp2358
bas(g709
g1087
tp2359
(lp2360
g19
(g20
(I0
tp2361
g22
tp2362
Rp2363
(I1
(I3
tp2364
g278
I00
S']\n\xaedR\xb9\x06@~\x02\x88\xad\xe9y\x18\xc0\xc4s\x01\xdf\x05\xeb\x0b@'
p2365
tp2366
bas(g709
g269
tp2367
g611
s(g858
g269
tp2368
g503
ssS'parent_binary_predicates'
p2369
(dp2370
sS'nodes'
p2371
(dp2372
g1090
(lp2373
I0
aI0
aI0
aI0
aI0
aI0
aI00
aI01
aI00
aI01
aI00
asg1087
(lp2374
I0
aI0
aI0
aI0
aI0
aI0
aI00
aI01
aI00
aI01
aI00
asg269
(lp2375
I0
aI0
aI0
aI0
aI0
aI0
aI00
aI01
aI01
aI01
aI00
asg336
(lp2376
I0
aI0
aI0
ag1659
(g278
S'l\x1e]pS`\xd2?'
p2377
tp2378
Rp2379
ag1659
(g278
S'\x06\x1b\xb6\xe9Ei\x18\xc0'
p2380
tp2381
Rp2382
ag1659
(g278
S'\x82\x97\xe8\xa1t:\xe4?'
p2383
tp2384
Rp2385
aI01
aI00
aI00
aI00
aI00
asg609
(lp2386
I0
aI0
aI0
ag1659
(g278
S'{#\x8a\xa8\xbfB\x02@'
p2387
tp2388
Rp2389
ag1659
(g278
S']@\xdd\xaa0\xf7\x1a\xc0'
p2390
tp2391
Rp2392
ag1659
(g278
S'\xa2\x93\xe4\xf2\xe3\x8f\xe0?'
p2393
tp2394
Rp2395
aI01
aI00
aI00
aI01
aI00
asg268
(lp2396
I0
aI0
aI0
ag1659
(g278
S'\x88\x8a$/\t\xb1\xb0?'
p2397
tp2398
Rp2399
ag1659
(g278
S'P\xd9\xd7\x88y7\x1e\xc0'
p2400
tp2401
Rp2402
ag1659
(g278
S'\xa0\xa8\xa4gcb\x12@'
p2403
tp2404
Rp2405
aI01
aI00
aI00
aI00
aI00
asg501
(lp2406
I0
aI0
aI0
ag1659
(g278
S'\xf61, \xdaJ\xf5?'
p2407
tp2408
Rp2409
ag1659
(g278
S'\x8e\x94\xc7_\x9e4\x18\xc0'
p2410
tp2411
Rp2412
ag1659
(g278
S'\x88,&\x8ck,\x0b@'
p2413
tp2414
Rp2415
aI01
aI00
aI00
aI00
aI00
asg438
(lp2416
I0
aI0
aI0
ag1659
(g278
S'i\x9a\x7f<\xad\xb4\r@'
p2417
tp2418
Rp2419
ag1659
(g278
S'\xf3\xe6\x95\xe8\xfc\xf0\x16\xc0'
p2420
tp2421
Rp2422
ag1659
(g278
S'Y\x96n\x9e\xe7\t\x19@'
p2423
tp2424
Rp2425
aI01
aI00
aI00
aI01
aI00
asg552
(lp2426
I0
aI0
aI0
ag1659
(g278
S'\xd9\xc6\x84Ad\xa3\n@'
p2427
tp2428
Rp2429
ag1659
(g278
S'Q\xaf\xb2\x18;\x05\x1e\xc0'
p2430
tp2431
Rp2432
ag1659
(g278
S'j8\xf9\x85\xb6\xac\x0f@'
p2433
tp2434
Rp2435
aI01
aI00
aI00
aI01
aI00
asg381
(lp2436
I0
aI0
aI0
ag1659
(g278
S'N\xcf\x19\xc3\xf23\x0c@'
p2437
tp2438
Rp2439
ag1659
(g278
S'\xa4\xb5r\xad\x0f?\x15\xc0'
p2440
tp2441
Rp2442
ag1659
(g278
S'\xbf~a\xe9h\n\x13@'
p2443
tp2444
Rp2445
aI01
aI00
aI01
aI01
aI00
asg1038
(lp2446
I0
aI0
aI0
ag1659
(g278
S'@\xce\xcef\xfe\xbb\xf0?'
p2447
tp2448
Rp2449
ag1659
(g278
S'#@\xfc\xa1\x9e\xc0\x16\xc0'
p2450
tp2451
Rp2452
ag1659
(g278
S'\xaeKe\x14U\xf8\x13@'
p2453
tp2454
Rp2455
aI01
aI00
aI00
aI00
aI00
assS'mc_place_path'
p2456
(dp2457
sS'parent_state'
p2458
NsS'goal_entities'
p2459
(lp2460
S'square_packing_box1'
p2461
ag269
asS'binary_edges'
p2462
(dp2463
(g438
g1038
tp2464
(lp2465
I00
aI00
aI00
as(g438
g336
tp2466
(lp2467
I00
aI00
aI00
as(g268
g552
tp2468
(lp2469
I00
aI00
aI00
as(g268
g268
tp2470
(lp2471
I00
aI00
aI00
as(g609
g552
tp2472
(lp2473
I00
aI00
aI00
as(g609
g268
tp2474
(lp2475
I00
aI00
aI00
as(g1038
g609
tp2476
(lp2477
I00
aI00
aI00
as(g438
g381
tp2478
(lp2479
I00
aI00
aI00
as(g501
g268
tp2480
(lp2481
I00
aI01
aI00
as(g336
g336
tp2482
(lp2483
I00
aI00
aI00
as(g609
g1087
tp2484
(lp2485
g1659
(g26
(S'b1'
p2486
I0
I1
tp2487
Rp2488
(I3
S'|'
p2489
NNNI-1
I-1
I0
tp2490
bS'\x01'
p2491
tp2492
Rp2493
aI00
aI01
as(g1090
g1087
tp2494
(lp2495
I00
aI00
aI00
as(g336
g1038
tp2496
(lp2497
I00
aI00
aI00
as(g1087
g1038
tp2498
(lp2499
I00
aI00
aI00
as(g381
g269
tp2500
(lp2501
I00
aI00
aI00
as(g1090
g609
tp2502
(lp2503
I00
aI00
aI00
as(g609
g1038
tp2504
(lp2505
I00
aI00
aI00
as(g268
g1090
tp2506
(lp2507
g2493
aI00
aI00
as(g438
g438
tp2508
(lp2509
I00
aI00
aI00
as(g1087
g438
tp2510
(lp2511
I00
aI00
aI00
as(g552
g609
tp2512
(lp2513
I00
aI00
aI00
as(g609
g269
tp2514
(lp2515
I00
aI00
aI00
as(g501
g552
tp2516
(lp2517
I00
aI00
aI00
as(g336
g501
tp2518
(lp2519
I00
aI00
aI00
as(g381
g381
tp2520
(lp2521
I00
aI00
aI00
as(g609
g1090
tp2522
(lp2523
g2493
aI00
aI00
as(g1087
g609
tp2524
(lp2525
I00
aI00
aI00
as(g1087
g552
tp2526
(lp2527
I00
aI00
aI00
as(g1087
g268
tp2528
(lp2529
I00
aI00
aI00
as(g552
g269
tp2530
(lp2531
I00
aI00
aI00
as(g1038
g336
tp2532
(lp2533
I00
aI01
aI00
as(g501
g336
tp2534
(lp2535
I00
aI01
aI00
as(g552
g501
tp2536
(lp2537
I00
aI00
aI00
as(g1087
g336
tp2538
(lp2539
I00
aI00
aI00
as(g1090
g269
tp2540
(lp2541
I00
aI00
aI00
as(g381
g609
tp2542
(lp2543
I00
aI00
aI00
as(g336
g552
tp2544
(lp2545
I00
aI00
aI00
as(g1090
g552
tp2546
(lp2547
I00
aI00
aI00
as(g552
g1090
tp2548
(lp2549
g2493
aI00
aI00
as(g268
g438
tp2550
(lp2551
I00
aI00
aI00
as(g1038
g381
tp2552
(lp2553
I00
aI00
aI00
as(g268
g609
tp2554
(lp2555
I00
aI00
aI00
as(g1038
g269
tp2556
(lp2557
I00
aI00
aI01
as(g1090
g1090
tp2558
(lp2559
I00
aI00
aI00
as(g552
g336
tp2560
(lp2561
I00
aI00
aI00
as(g381
g438
tp2562
(lp2563
I00
aI00
aI00
as(g269
g381
tp2564
(lp2565
I00
aI00
aI00
as(g501
g1087
tp2566
(lp2567
g2493
aI00
aI01
as(g269
g501
tp2568
(lp2569
I00
aI00
aI00
as(g1038
g268
tp2570
(lp2571
I00
aI01
aI00
as(g268
g381
tp2572
(lp2573
I00
aI00
aI00
as(g552
g1087
tp2574
(lp2575
g2493
aI00
aI01
as(g268
g501
tp2576
(lp2577
I00
aI00
aI00
as(g552
g552
tp2578
(lp2579
I00
aI00
aI00
as(g501
g609
tp2580
(lp2581
I00
aI00
aI00
as(g1087
g269
tp2582
(lp2583
I00
aI00
aI00
as(g269
g438
tp2584
(lp2585
I00
aI00
aI00
as(g336
g269
tp2586
(lp2587
I00
aI00
aI00
as(g1090
g501
tp2588
(lp2589
I00
aI00
aI00
as(g269
g1038
tp2590
(lp2591
I00
aI00
aI00
as(g268
g1038
tp2592
(lp2593
I00
aI00
aI00
as(g501
g1090
tp2594
(lp2595
g2493
aI00
aI00
as(g1038
g1087
tp2596
(lp2597
g2493
aI00
aI01
as(g501
g438
tp2598
(lp2599
I00
aI00
aI00
as(g336
g609
tp2600
(lp2601
I00
aI00
aI00
as(g336
g1087
tp2602
(lp2603
g2493
aI00
aI01
as(g269
g268
tp2604
(lp2605
I00
aI00
aI00
as(g1090
g1038
tp2606
(lp2607
I00
aI00
aI00
as(g1090
g336
tp2608
(lp2609
I00
aI00
aI00
as(g501
g269
tp2610
(lp2611
I00
aI00
aI00
as(g438
g501
tp2612
(lp2613
I00
aI00
aI00
as(g381
g501
tp2614
(lp2615
I00
aI00
aI00
as(g269
g552
tp2616
(lp2617
I00
aI00
aI00
as(g1087
g1087
tp2618
(lp2619
I00
aI00
aI00
as(g438
g268
tp2620
(lp2621
I00
aI00
aI00
as(g381
g552
tp2622
(lp2623
I00
aI00
aI00
as(g1087
g381
tp2624
(lp2625
I00
aI00
aI00
as(g609
g336
tp2626
(lp2627
I00
aI00
aI00
as(g1087
g501
tp2628
(lp2629
I00
aI00
aI00
as(g381
g1090
tp2630
(lp2631
g2493
aI00
aI00
as(g438
g609
tp2632
(lp2633
I00
aI00
aI00
as(g268
g269
tp2634
(lp2635
I00
aI00
aI00
as(g381
g336
tp2636
(lp2637
I00
aI00
aI00
as(g336
g381
tp2638
(lp2639
I00
aI00
aI00
as(g609
g381
tp2640
(lp2641
I00
aI00
aI00
as(g1090
g438
tp2642
(lp2643
I00
aI00
aI00
as(g609
g501
tp2644
(lp2645
I00
aI01
aI00
as(g552
g438
tp2646
(lp2647
I00
aI00
aI00
as(g438
g1087
tp2648
(lp2649
g2493
aI00
aI01
as(g501
g501
tp2650
(lp2651
I00
aI00
aI00
as(g1038
g438
tp2652
(lp2653
I00
aI00
aI00
as(g381
g1038
tp2654
(lp2655
I00
aI00
aI00
as(g609
g438
tp2656
(lp2657
I00
aI00
aI00
as(g609
g609
tp2658
(lp2659
I00
aI00
aI00
as(g1038
g501
tp2660
(lp2661
I00
aI01
aI00
as(g438
g269
tp2662
(lp2663
I00
aI00
aI00
as(g552
g381
tp2664
(lp2665
I00
aI00
aI00
as(g268
g1087
tp2666
(lp2667
g2493
aI00
aI01
as(g269
g609
tp2668
(lp2669
I00
aI00
aI00
as(g501
g381
tp2670
(lp2671
I00
aI00
aI00
as(g336
g268
tp2672
(lp2673
I00
aI00
aI00
as(g269
g1087
tp2674
(lp2675
I00
aI00
aI00
as(g438
g552
tp2676
(lp2677
I00
aI00
aI00
as(g1090
g268
tp2678
(lp2679
I00
aI00
aI00
as(g438
g1090
tp2680
(lp2681
g2493
aI00
aI00
as(g552
g268
tp2682
(lp2683
I00
aI00
aI00
as(g269
g269
tp2684
(lp2685
I00
aI00
aI00
as(g501
g1038
tp2686
(lp2687
I00
aI01
aI00
as(g336
g1090
tp2688
(lp2689
g2493
aI00
aI00
as(g1038
g1090
tp2690
(lp2691
g2493
aI00
aI00
as(g269
g1090
tp2692
(lp2693
I00
aI00
aI00
as(g269
g336
tp2694
(lp2695
I00
aI00
aI00
as(g552
g1038
tp2696
(lp2697
I00
aI00
aI00
as(g1038
g552
tp2698
(lp2699
I00
aI00
aI00
as(g268
g336
tp2700
(lp2701
I00
aI00
aI00
as(g1087
g1090
tp2702
(lp2703
I00
aI00
aI00
as(g381
g268
tp2704
(lp2705
I00
aI00
aI00
as(g336
g438
tp2706
(lp2707
I00
aI00
aI00
as(g1038
g1038
tp2708
(lp2709
I00
aI00
aI00
as(g381
g1087
tp2710
(lp2711
g2493
aI00
aI01
as(g1090
g381
tp2712
(lp2713
I00
aI00
aI00
assg707
g708
sS'pick_in_way'
p2714
(itrajectory_representation.predicates.pick_in_way
PickInWay
p2715
(dp2716
g266
(dp2717
g336
g762
sg609
g791
sg268
g839
sg501
g869
sg438
g918
sg552
g947
sg381
g982
sg1038
g1000
ssg672
(dp2718
g336
(lp2719
Vrectangular_packing_box1
p2720
aVsquare_packing_box4
p2721
asg609
(lp2722
sg268
(lp2723
Vrectangular_packing_box1
p2724
aVsquare_packing_box4
p2725
asg501
(lp2726
Vrectangular_packing_box1
p2727
aVsquare_packing_box4
p2728
aVrectangular_packing_box2
p2729
asg438
(lp2730
sg552
(lp2731
sg381
(lp2732
sg1038
(lp2733
Vrectangular_packing_box1
p2734
aVsquare_packing_box4
p2735
assg707
(lp2736
g438
ag609
ag552
ag1090
ag269
ag1087
ag381
ag1090
ag269
ag1087
ag1090
ag269
ag1087
ag1090
ag269
ag1087
ag1090
ag269
ag1087
ag1090
ag269
ag1087
ag1090
ag269
ag1087
ag1090
ag269
ag1087
asg713
g714
sg2
(dp2737
sg748
g749
sg1021
Nsg1027
g749
sg1024
(dp2738
sg1026
I8
sg1082
I01
sg1028
Nsg1029
(dp2739
(g438
g1038
tp2740
I00
s(g438
g336
tp2741
I00
s(g268
g552
tp2742
I00
s(g268
g268
tp2743
I00
s(g609
g552
tp2744
I00
s(g609
g268
tp2745
I00
s(g1038
g609
tp2746
I00
s(g438
g381
tp2747
I00
s(g501
g268
tp2748
I01
s(g336
g336
tp2749
I00
s(g609
g1087
tp2750
I00
s(g1090
g1087
tp2751
I00
s(g336
g1038
tp2752
I00
s(g1087
g1038
tp2753
I00
s(g381
g269
tp2754
I00
s(g1090
g609
tp2755
I00
s(g609
g1038
tp2756
I00
s(g268
g1090
tp2757
I00
s(g438
g438
tp2758
I00
s(g1087
g438
tp2759
I00
s(g552
g609
tp2760
I00
s(g609
g269
tp2761
I00
s(g501
g552
tp2762
I00
s(g336
g501
tp2763
I00
s(g381
g381
tp2764
I00
s(g609
g1090
tp2765
I00
s(g1087
g609
tp2766
I00
s(g1087
g552
tp2767
I00
s(g1087
g268
tp2768
I00
s(g552
g269
tp2769
I00
s(g1038
g336
tp2770
I01
s(g501
g336
tp2771
I01
s(g552
g501
tp2772
I00
s(g1087
g336
tp2773
I00
s(g1090
g269
tp2774
I00
s(g381
g609
tp2775
I00
s(g336
g552
tp2776
I00
s(g1090
g552
tp2777
I00
s(g552
g1090
tp2778
I00
s(g268
g438
tp2779
I00
s(g1038
g381
tp2780
I00
s(g268
g609
tp2781
I00
s(g1038
g269
tp2782
I00
s(g1090
g1090
tp2783
I00
s(g552
g336
tp2784
I00
s(g381
g438
tp2785
I00
s(g269
g381
tp2786
I00
s(g501
g1087
tp2787
I00
s(g269
g501
tp2788
I00
s(g1038
g268
tp2789
I01
s(g268
g381
tp2790
I00
s(g552
g1087
tp2791
I00
s(g268
g501
tp2792
I00
s(g552
g552
tp2793
I00
s(g501
g609
tp2794
I00
s(g1087
g269
tp2795
I00
s(g269
g438
tp2796
I00
s(g336
g269
tp2797
I00
s(g1090
g501
tp2798
I00
s(g269
g1038
tp2799
I00
s(g268
g1038
tp2800
I00
s(g501
g1090
tp2801
I00
s(g1038
g1087
tp2802
I00
s(g501
g438
tp2803
I00
s(g336
g609
tp2804
I00
s(g336
g1087
tp2805
I00
s(g269
g268
tp2806
I00
s(g1090
g1038
tp2807
I00
s(g1090
g336
tp2808
I00
s(g501
g269
tp2809
I00
s(g438
g501
tp2810
I00
s(g381
g501
tp2811
I00
s(g269
g552
tp2812
I00
s(g1087
g1087
tp2813
I00
s(g438
g268
tp2814
I00
s(g381
g552
tp2815
I00
s(g1087
g381
tp2816
I00
s(g609
g336
tp2817
I00
s(g1087
g501
tp2818
I00
s(g381
g1090
tp2819
I00
s(g438
g609
tp2820
I00
s(g268
g269
tp2821
I00
s(g381
g336
tp2822
I00
s(g336
g381
tp2823
I00
s(g609
g381
tp2824
I00
s(g1090
g438
tp2825
I00
s(g609
g501
tp2826
I01
s(g552
g438
tp2827
I00
s(g438
g1087
tp2828
I00
s(g501
g501
tp2829
I00
s(g1038
g438
tp2830
I00
s(g381
g1038
tp2831
I00
s(g609
g438
tp2832
I00
s(g609
g609
tp2833
I00
s(g1038
g501
tp2834
I01
s(g438
g269
tp2835
I00
s(g552
g381
tp2836
I00
s(g268
g1087
tp2837
I00
s(g269
g609
tp2838
I00
s(g501
g381
tp2839
I00
s(g336
g268
tp2840
I00
s(g269
g1087
tp2841
I00
s(g438
g552
tp2842
I00
s(g1090
g268
tp2843
I00
s(g438
g1090
tp2844
I00
s(g552
g268
tp2845
I00
s(g269
g269
tp2846
I00
s(g501
g1038
tp2847
I01
s(g336
g1090
tp2848
I00
s(g1038
g1090
tp2849
I00
s(g269
g1090
tp2850
I00
s(g269
g336
tp2851
I00
s(g552
g1038
tp2852
I00
s(g1038
g552
tp2853
I00
s(g268
g336
tp2854
I00
s(g1087
g1090
tp2855
I00
s(g381
g268
tp2856
I00
s(g336
g438
tp2857
I00
s(g1038
g1038
tp2858
I00
s(g381
g1087
tp2859
I00
s(g1090
g381
tp2860
I00
ssg1081
NsbsS'robot_pose'
p2861
g19
(g20
(I0
tp2862
g22
tp2863
Rp2864
(I1
(I1
I3
tp2865
g278
I00
S'fR\xdd8\xd6\x8d\x00@\xbfC|\xd2X\x00\x16\xc0\xc1\xab\x9e\x0b\x900\xd2?'
p2866
tp2867
bsS'is_holding_goal_entity'
p2868
(itrajectory_representation.predicates.is_holding_goal_entity
IsHoldingGoalEntity
p2869
(dp2870
g2459
g2460
sg1028
NsbsS'mc_pick_path'
p2871
(dp2872
sS'current_collides'
p2873
g714
sb.