(itrajectory_representation.shortest_path_pick_and_place_state
ShortestPathPaPState
p0
(dp1
S'place_used'
p2
(dp3
(Vrectangular_packing_box2
p4
S'loading_region'
p5
tp6
(itrajectory_representation.operator
Operator
p7
(dp8
S'is_skeleton'
p9
I01
sS'discrete_parameters'
p10
(dp11
S'region'
p12
g5
sS'object'
p13
g4
ssS'type'
p14
S'two_arm_place'
p15
sS'continuous_parameters'
p16
(dp17
S'q_goal'
p18
cnumpy.core.multiarray
_reconstruct
p19
(cnumpy
ndarray
p20
(I0
tp21
S'b'
p22
tp23
Rp24
(I1
(I3
tp25
cnumpy
dtype
p26
(S'f8'
p27
I0
I1
tp28
Rp29
(I3
S'<'
p30
NNNI-1
I-1
I0
tp31
bI00
S'\xa4\x06\xac\xc2\xe2\xa3\x06@\xe4\x1a\xba\xe4 \x0e\x17\xc0\xdd\x1e\x15\x0e\x0cj\xf5\xbf'
p32
tp33
bssS'low_level_motion'
p34
(lp35
g19
(g20
(I0
tp36
g22
tp37
Rp38
(I1
(I3
tp39
g29
I00
S'\x1a\n\xaedR\xb9\x06@Z\x02\x88\xad\xe9y\x18\xc0\xc3s\x01\xdf\x05\xeb\x0b@'
p40
tp41
bag19
(g20
(I0
tp42
g22
tp43
Rp44
(I1
(I3
tp45
g26
(S'f8'
p46
I0
I1
tp47
Rp48
(I3
S'<'
p49
NNNI-1
I-1
I0
tp50
bI00
S'\xcb\x1a\x84\x1d\\\x9c\x08@\xec\xcbi\xc9#;\x18\xc0\xbf\xf24g\x02T\x05@'
p51
tp52
bag19
(g20
(I0
tp53
g22
tp54
Rp55
(I1
(I3
tp56
g48
I00
S'P\x9d\xdf\x99\xa6e\x04@\x1c`\xb6c\x8e7\x19\xc0@\xf2\xef\xc5\xd3\xc8\x17@'
p57
tp58
bag24
ag24
asbs(Vsquare_packing_box1
p59
S'home_region'
p60
tp61
(itrajectory_representation.operator
Operator
p62
(dp63
g9
I01
sg10
(dp64
g12
g60
sg13
g59
ssg14
g15
sg16
(dp65
g18
g19
(g20
(I0
tp66
g22
tp67
Rp68
(I1
(I3
tp69
g29
I00
S'h\xcf\x9b\xcbmu\xe8?~\xf7\xef\xb9&\xe9\xfd\xbf\xfeZ#@\x82\xd7\xf9\xbf'
p70
tp71
bssg34
(lp72
g19
(g20
(I0
tp73
g22
tp74
Rp75
(I1
(I3
tp76
g29
I00
S'8\xb0\x90)g\xcd\x06@dOn1\xd8M\x16\xc0\xb2}\xbc\xa0\xbdm\xa6?'
p77
tp78
bag19
(g20
(I0
tp79
g22
tp80
Rp81
(I1
(I3
tp82
g48
I00
S'\xfe\xe8\x18\xb9\x80t\x02@\xc8\xc9\x8bB\xfe\x86\x16\xc0\x19\xcf\xcc\xc3%!\x9e\xbf'
p83
tp84
bag19
(g20
(I0
tp85
g22
tp86
Rp87
(I1
(I3
tp88
g48
I00
S'\x00\xda\x1c<\xfd\xdc\x00@j"\x91\xe3 \x1a\x18\xc0i~!@)\xb0\xdc\xbf'
p89
tp90
bag19
(g20
(I0
tp91
g22
tp92
Rp93
(I1
(I3
tp94
g48
I00
S'v%D\x97w\xd1\xf7?Z\xadP\x90\x08<\x17\xc0-\xca\x8a\t\xe2p\xe7\xbf'
p95
tp96
bag19
(g20
(I0
tp97
g22
tp98
Rp99
(I1
(I3
tp100
g48
I00
S'tx\x8as\xa8b\xed?\x9ej\x15\xfa\xf0{\x15\xc0@\xed\x9a-\x9eD\xf2\xbf'
p101
tp102
bag19
(g20
(I0
tp103
g22
tp104
Rp105
(I1
(I3
tp106
g48
I00
S'l[\xc4\x16<\xe6\xe9?\xa6\xa0\x90\x84X\x9f\x13\xc0\xc2\xd74Q\x00\xaf\xff\xbf'
p107
tp108
bag19
(g20
(I0
tp109
g22
tp110
Rp111
(I1
(I3
tp112
g48
I00
S"\xaeJ\xbd\x1936\xec?\x04\x13\xd4'\x9f\x88\x10\xc0\x805qo\xb6\xe6\xff\xbf"
p113
tp114
bag19
(g20
(I0
tp115
g22
tp116
Rp117
(I1
(I3
tp118
g48
I00
S'\xf09\xb6\x1c*\x86\xee?\xc4\n/\x96\xcb\xe3\n\xc0\xa0\xc9\xd6F6\x0f\x00\xc0'
p119
tp120
bag19
(g20
(I0
tp121
g22
tp122
Rp123
(I1
(I3
tp124
g48
I00
S'\x99\x94\xd7\x8f\x10k\xf0?\x7f\xef\xb5\xdcX\xb6\x04\xc0~\xf8\xf4U\x11+\x00\xc0'
p125
tp126
bag68
ag68
asbs(Vrectangular_packing_box1
p127
g5
tp128
(itrajectory_representation.operator
Operator
p129
(dp130
g9
I01
sg10
(dp131
g12
g5
sg13
g127
ssg14
g15
sg16
(dp132
g18
g19
(g20
(I0
tp133
g22
tp134
Rp135
(I1
(I3
tp136
g29
I00
S'\x80\x89]\x1f\xdd\x05\xf8?`\xfdt\x81+\xad\x1d\xc0|b\x17%S\x91\xd4\xbf'
p137
tp138
bssg34
(lp139
g19
(g20
(I0
tp140
g22
tp141
Rp142
(I1
(I3
tp143
g29
I00
S'\x18\xb4\xe4\xc4\x8f8\xfa?\xb4\x87\xfe\xaa\x1d\xc9\x1a\xc0\x9dn\x9cC=\x86\xf9?'
p144
tp145
bag19
(g20
(I0
tp146
g22
tp147
Rp148
(I1
(I3
tp149
g48
I00
S'\xad\xa0\xdfFH\xe9\xf6?\xa3\xfc\x14D\x8bb\x1d\xc0\x9e2hH\xc0\xe5\xf0?'
p150
tp151
bag19
(g20
(I0
tp152
g22
tp153
Rp154
(I1
(I3
tp155
g48
I00
S'\tAsXx\r\x00@F^\x05/\xfdK\x1d\xc0~\xbbB\x0f\xbe\xe6\xd2?'
p156
tp157
bag135
ag135
asbs(Vsquare_packing_box4
p158
g5
tp159
(itrajectory_representation.operator
Operator
p160
(dp161
g9
I01
sg10
(dp162
g12
g5
sg13
g158
ssg14
g15
sg16
(dp163
g18
g19
(g20
(I0
tp164
g22
tp165
Rp166
(I1
(I3
tp167
g29
I00
S'\x08P\xf5\xf0\xa9\x8c\xff?\xfa\x0c\x1bC\xde\xf7\x1f\xc0\xa3#!?\xb6k\x07@'
p168
tp169
bssg34
(lp170
g19
(g20
(I0
tp171
g22
tp172
Rp173
(I1
(I3
tp174
g29
I00
S'hl\x7fnD\xac\xe5?|V\x99e\xa9t\x14\xc0\xe2Wji\x93\xe6\xf6\xbf'
p175
tp176
bag19
(g20
(I0
tp177
g22
tp178
Rp179
(I1
(I3
tp180
g48
I00
S'\xac\xb4\xd5\x83\xbb\xf9\xe0?\xe1\x80\xe9+%\xe6\x16\xc0<\xd6N\xab\x06\xcc\xf7\xbf'
p181
tp182
bag19
(g20
(I0
tp183
g22
tp184
Rp185
(I1
(I3
tp186
g48
I00
S'\xfe\xcb\x95>\x9aG\xe1?\xc8?\x9f\xd9\xb8\xe7\x19\xc0\xdb\x1a;\xf0\x837\xfe?'
p187
tp188
bag19
(g20
(I0
tp189
g22
tp190
Rp191
(I1
(I3
tp192
g48
I00
S'\xaf3:\xca\x05\xfa\xee?\x17\xfeO1BH\x1c\xc0&\xc3FV\xf0\xcb\xf7?'
p193
tp194
bag19
(g20
(I0
tp195
g22
tp196
Rp197
(I1
(I3
tp198
g48
I00
S'S@\xf8l\x95\x08\xf8?\xef\x91If\xa4L\x1e\xc0\x8b\xc5pa\xf4C\x04\xc0'
p199
tp200
bag166
ag166
asbssS'place_in_way'
p201
(itrajectory_representation.predicates.place_in_way
PlaceInWay
p202
(dp203
S'mc_path_to_entity'
p204
(dp205
(Vrectangular_packing_box4
p206
S'home_region'
p207
tp208
(lp209
g19
(g20
(I0
tp210
g22
tp211
Rp212
(I1
(I3
tp213
g26
(S'f8'
p214
I0
I1
tp215
Rp216
(I3
S'<'
p217
NNNI-1
I-1
I0
tp218
bI00
S'\x16Y\xc9\xcc\x11\x99\n@\x0c\x12\x8aa\x1b\xca\x1d\xc0\xf5\x1f\xb2/\x9d\xca\x0b@'
p219
tp220
bag19
(g20
(I0
tp221
g22
tp222
Rp223
(I1
(I3
tp224
g26
(S'f8'
p225
I0
I1
tp226
Rp227
(I3
S'<'
p228
NNNI-1
I-1
I0
tp229
bI00
S'\x89\xcfHU\xa1\xf5\x05@\xee\x9b\xa6\x01<)\x1c\xc0W\xa3jE\xe6\xde\x01\xc0'
p230
tp231
bag19
(g20
(I0
tp232
g22
tp233
Rp234
(I1
(I3
tp235
g227
I00
S'2]\x933g}\x00@\xebx\x00&R!\x1b\xc0\xce\x170ZD}\x00\xc0'
p236
tp237
bag19
(g20
(I0
tp238
g22
tp239
Rp240
(I1
(I3
tp241
g227
I00
S'4#\xe8i\x80D\xf8?\xdd\x1dlTl\\\x19\xc0m\xc1\x1a\xec\xde\x01\x01\xc0'
p242
tp243
bag19
(g20
(I0
tp244
g22
tp245
Rp246
(I1
(I3
tp247
g227
I00
S'\x9f5<Q\xb2\xb3\xf7?\xb3\xd6LI,\xe8\x16\xc0\xc2\x13\xbbtu\x87\x00\xc0'
p248
tp249
bag19
(g20
(I0
tp250
g22
tp251
Rp252
(I1
(I3
tp253
g227
I00
S'\xd0\xcb\x13\x8f\xaa\x9d\xed?\x90\x01<]3\x06\x16\xc0F\xf1\xe7x32\x02\xc0'
p254
tp255
bag19
(g20
(I0
tp256
g22
tp257
Rp258
(I1
(I3
tp259
g227
I00
S'l[\xc4\x16<\xe6\xe9?\xa6\xa0\x90\x84X\x9f\x13\xc0\xc2\xd74Q\x00\xaf\xff\xbf'
p260
tp261
bag19
(g20
(I0
tp262
g22
tp263
Rp264
(I1
(I3
tp265
g227
I00
S"\xaeJ\xbd\x1936\xec?\x04\x13\xd4'\x9f\x88\x10\xc0\x805qo\xb6\xe6\xff\xbf"
p266
tp267
bag19
(g20
(I0
tp268
g22
tp269
Rp270
(I1
(I3
tp271
g227
I00
S'\xf09\xb6\x1c*\x86\xee?\xc4\n/\x96\xcb\xe3\n\xc0\xa0\xc9\xd6F6\x0f\x00\xc0'
p272
tp273
bag19
(g20
(I0
tp274
g22
tp275
Rp276
(I1
(I3
tp277
g227
I00
S'3\xe9\xaf\x05T\x89\xe7?+~\xcb\xd3\x15\xc7\x04\xc0x6(d5\xed\x07@'
p278
tp279
bas(Vrectangular_packing_box1
p280
g207
tp281
(lp282
g19
(g20
(I0
tp283
g22
tp284
Rp285
(I1
(I3
tp286
g216
I00
S'\xf0\xb3\xe4\xc4\x8f8\xfa?\xb4\x87\xfe\xaa\x1d\xc9\x1a\xc0\x9an\x9cC=\x86\xf9?'
p287
tp288
bag19
(g20
(I0
tp289
g22
tp290
Rp291
(I1
(I3
tp292
g227
I00
S'{\xe7\xcc\xce\x02,\xf5?\xeb\x85\xf2\xb4\xc9\x08\x19\xc0\xcd\x97\xf6\xcc\xe4z\x00@'
p293
tp294
bag19
(g20
(I0
tp295
g22
tp296
Rp297
(I1
(I3
tp298
g227
I00
S'o\xd6\x82\xea\x7f\xb2\xed?9\xf2C\x0b?\xfd\x16\xc0(?d\xe9@\xb5\x02@'
p299
tp300
bag19
(g20
(I0
tp301
g22
tp302
Rp303
(I1
(I3
tp304
g227
I00
S'&>c9\x01,\xeb?\xb2\xc2\xf0\x02\xce\x8e\x14\xc0\xd8p\xbb2\x14\xd2\x03@'
p305
tp306
bag19
(g20
(I0
tp307
g22
tp308
Rp309
(I1
(I3
tp310
g227
I00
S'\xc6\x05\xbdtg\xd9\xe2?F\xdf\x9d@\\\xf3\x11\xc0\x1a\xc4.\xbb\xcc\x12\x02@'
p311
tp312
bag19
(g20
(I0
tp313
g22
tp314
Rp315
(I1
(I3
tp316
g227
I00
S'3z\xed\x8eN)\xe4?\x0c\x96\xd4\xa2\x0e\xd0\r\xc0\xbd%\xf5{\xe9\xf9\x03@'
p317
tp318
bag19
(g20
(I0
tp319
g22
tp320
Rp321
(I1
(I3
tp322
g227
I00
S'\xaf0\xe9h\xba~\xee?k\xbb\xd8\xd4\xd0g\t\xc09\x9ey\xed\xb06\x06@'
p323
tp324
bag19
(g20
(I0
tp325
g22
tp326
Rp327
(I1
(I3
tp328
g227
I00
S'\xf4\xfdJ\x1a(#\xec?H"\x9cD\x1aE\x05\xc0.\xa9\x0b\x87\xf8\xe1\x02@'
p329
tp330
bassS'mc_to_entity'
p331
(dp332
(g206
g207
tp333
(lp334
Vsquare_packing_box3
p335
aVrectangular_packing_box2
p336
aVrectangular_packing_box1
p337
aVsquare_packing_box4
p338
as(g280
g207
tp339
(lp340
Vrectangular_packing_box2
p341
aVsquare_packing_box4
p342
assS'reachable_entities'
p343
(lp344
Vrectangular_packing_box4
p345
aVrectangular_packing_box2
p346
aVrectangular_packing_box3
p347
aVsquare_packing_box2
p348
aVsquare_packing_box3
p349
aVsquare_packing_box1
p350
aVsquare_packing_box4
p351
asS'collides'
p352
(dp353
Vrectangular_packing_box4
p354
c__builtin__
set
p355
((lp356
I513
aI386
aI259
aI68
aI613
aI552
aI585
aI515
aI610
aI111
aI112
aI337
aI339
aI117
aI118
aI375
aI440
aI260
aI572
aI573
aI286
atp357
Rp358
sVrectangular_packing_box2
p359
g355
((lp360
I256
aI65
aI268
aI66
aI145
aI538
aI413
aI91
aI36
aI37
aI422
aI92
aI561
aI178
aI179
aI54
aI443
aI188
aI63
aI64
aI577
aI194
aI69
aI435
aI205
aI79
aI80
aI595
aI215
aI89
aI90
aI219
aI220
aI444
aI114
aI115
aI376
aI511
atp361
Rp362
sVrectangular_packing_box3
p363
g355
((lp364
I384
aI257
aI134
aI265
aI394
aI532
aI452
aI158
aI159
aI164
aI433
aI564
aI575
aI580
aI583
aI328
aI589
aI83
aI478
aI356
aI229
aI366
aI502
atp365
Rp366
sVrectangular_packing_box1
p367
g355
((lp368
I132
aI5
aI137
aI4
aI416
aI161
aI34
aI35
aI554
aI43
aI301
aI456
aI309
aI310
aI55
aI56
aI570
aI187
aI449
aI70
aI327
aI584
aI201
aI202
aI203
aI162
aI595
aI84
aI597
aI93
aI94
aI607
aI484
aI233
aI106
aI107
aI108
aI497
aI252
atp369
Rp370
sVsquare_packing_box2
p371
g355
((lp372
I0
aI1
aI546
aI474
aI545
aI555
aI367
aI368
aI369
aI370
aI403
aI342
aI371
aI377
aI378
aI571
aI541
atp373
Rp374
sVsquare_packing_box3
p375
g355
((lp376
I193
aI387
aI617
aI269
aI270
aI111
aI339
aI212
aI245
aI280
aI381
aI213
atp377
Rp378
sVsquare_packing_box1
p379
g355
((lp380
I0
aI1
aI546
aI454
aI555
aI369
aI370
aI371
aI342
aI378
aI571
aI541
atp381
Rp382
sVsquare_packing_box4
p383
g355
((lp384
I107
aI132
aI517
aI8
aI416
aI33
aI34
aI554
aI43
aI44
aI301
aI456
aI56
aI186
aI187
aI459
aI196
aI71
aI584
aI203
aI162
aI95
aI84
aI93
aI94
aI607
aI327
aI484
aI233
aI234
aI235
aI108
aI497
aI252
aI106
atp385
Rp386
ssg2
g3
sS'pick_used'
p387
(dp388
g345
(itrajectory_representation.operator
Operator
p389
(dp390
g9
I01
sg10
(dp391
S'object'
p392
Vrectangular_packing_box4
p393
ssg14
S'two_arm_pick'
p394
sg16
(dp395
S'q_goal'
p396
(lp397
g19
(g20
(I0
tp398
g22
tp399
Rp400
(I1
(I3
tp401
g216
I00
S'\x14Y\xc9\xcc\x11\x99\n@\x0b\x12\x8aa\x1b\xca\x1d\xc0::\xd6xYy\x06\xc0'
p402
tp403
bag19
(g20
(I0
tp404
g22
tp405
Rp406
(I1
(I3
tp407
g216
I00
S'~\xd0\x03ta\x8e\x03@\xcf\xe4\x91RR\x83\x1d\xc0\xc7\x10\xb3C\xc0E\xf1\xbf'
p408
tp409
bag19
(g20
(I0
tp410
g22
tp411
Rp412
(I1
(I3
tp413
g216
I00
S'\xe8\x11\x0c\x13\n\xb7\x01@\xbf\xfd\x186u\x85\x1e\xc0\xb2\x999JR7\xd9\xbf'
p414
tp415
bag19
(g20
(I0
tp416
g22
tp417
Rp418
(I1
(I3
tp419
g216
I00
S'\xf0s\xa0\xa0\x88,\x02@\x0cs\x0eP\xe4U\x1e\xc0\x8a\xc5{\xf3k\xa7\xf3\xbf'
p420
tp421
basS'is_feasible'
p422
I00
ssg34
(lp423
g19
(g20
(I0
tp424
g22
tp425
Rp426
(I1
(I3
tp427
g216
I00
S'\x1c\x1dt\xe3&\x98\x02@\xf4\x8f\xd3\xf9k\xd3\x1d\xc0\xect\xfb\x88\x0e{\x13@'
p428
tp429
bag406
asbsg346
(itrajectory_representation.operator
Operator
p430
(dp431
g9
I01
sg10
(dp432
g13
g346
ssg14
S'two_arm_pick'
p433
sg16
(dp434
g18
g19
(g20
(I0
tp435
g22
tp436
Rp437
(I1
(I3
tp438
g29
I00
S']\n\xaedR\xb9\x06@\x7f\x02\x88\xad\xe9y\x18\xc0l\xe6\x86\xc9\xf0X\x06\xc0'
p439
tp440
bssg34
(lp441
g19
(g20
(I0
tp442
g22
tp443
Rp444
(I1
(I3
tp445
g216
I00
S'\x1c\x1dt\xe3&\x98\x02@\xf4\x8f\xd3\xf9k\xd3\x1d\xc0\xect\xfb\x88\x0e{\x13@'
p446
tp447
bag19
(g20
(I0
tp448
g22
tp449
Rp450
(I1
(I3
tp451
g227
I00
S'\xc4Q\xc7C\xc2\x94\x07@g\xab\x8b\xc7\xff\xcd\x1c\xc0\xf74\xc6\xd0z\x89\xfa\xbf'
p452
tp453
bag19
(g20
(I0
tp454
g22
tp455
Rp456
(I1
(I3
tp457
g227
I00
S"\xd4\\\xc6OT'\n@x\r\xc3F\xfex\x1a\xc0n\xd6\xe7\xac\x933\x0c@"
p458
tp459
bag437
asbsg347
(itrajectory_representation.operator
Operator
p460
(dp461
g9
I01
sg10
(dp462
S'object'
p463
Vrectangular_packing_box3
p464
ssg14
S'two_arm_pick'
p465
sg16
(dp466
S'q_goal'
p467
(lp468
g19
(g20
(I0
tp469
g22
tp470
Rp471
(I1
(I3
tp472
g26
(S'f8'
p473
I0
I1
tp474
Rp475
(I3
S'<'
p476
NNNI-1
I-1
I0
tp477
bI00
S'\xd4Z\x82\x08\x1a)\xe8?\x9e\xc4\xf5o\t\xa7\x1e\xc0\xd60\x90\xbc\xce-\x05@'
p478
tp479
bag19
(g20
(I0
tp480
g22
tp481
Rp482
(I1
(I3
tp483
g475
I00
S'X\x86|Xh\x8a\xe7?\t\xf1\x9c\xa3HC\x1e\xc0@\x9f\xe0\xc5Y\x0e\n@'
p484
tp485
bag19
(g20
(I0
tp486
g22
tp487
Rp488
(I1
(I3
tp489
g475
I00
S'wo\x93A:\xf9\xdb?vE\xb5\xd5\x06\x91\x1b\xc0+}E\x91\xa9V\x01\xc0'
p490
tp491
basS'is_feasible'
p492
I00
ssg34
(lp493
g19
(g20
(I0
tp494
g22
tp495
Rp496
(I1
(I3
tp497
g216
I00
S'\x1c\x1dt\xe3&\x98\x02@\xf4\x8f\xd3\xf9k\xd3\x1d\xc0\xect\xfb\x88\x0e{\x13@'
p498
tp499
bag19
(g20
(I0
tp500
g22
tp501
Rp502
(I1
(I3
tp503
g227
I00
S'zT\r\xfe&\xfe\xfd?~,i\xf5\xe3\x9c\x1d\xc0\xe2\x1a4?SB\x15@'
p504
tp505
bag19
(g20
(I0
tp506
g22
tp507
Rp508
(I1
(I3
tp509
g227
I00
S'S@\xf8l\x95\x08\xf8?\xef\x91If\xa4L\x1e\xc0\x8b\xc5pa\xf4C\x04\xc0'
p510
tp511
bag471
asbsVrectangular_packing_box1
p512
(itrajectory_representation.operator
Operator
p513
(dp514
g9
I01
sg10
(dp515
g13
g512
ssg14
g433
sg16
(dp516
g18
g19
(g20
(I0
tp517
g22
tp518
Rp519
(I1
(I3
tp520
g29
I00
S'\xf8\xb3\xe4\xc4\x8f8\xfa?\xb4\x87\xfe\xaa\x1d\xc9\x1a\xc0\x9an\x9cC=\x86\xf9?'
p521
tp522
bssg34
(lp523
g19
(g20
(I0
tp524
g22
tp525
Rp526
(I1
(I3
tp527
g216
I00
S'\x1c\x1dt\xe3&\x98\x02@\xf4\x8f\xd3\xf9k\xd3\x1d\xc0\xect\xfb\x88\x0e{\x13@'
p528
tp529
bag19
(g20
(I0
tp530
g22
tp531
Rp532
(I1
(I3
tp533
g227
I00
S'\x89\xcfHU\xa1\xf5\x05@\xee\x9b\xa6\x01<)\x1c\xc0W\xa3jE\xe6\xde\x01\xc0'
p534
tp535
bag19
(g20
(I0
tp536
g22
tp537
Rp538
(I1
(I3
tp539
g227
I00
S'b\x95[\xf7r*\x00@:\x8f7a\xbf]\x1c\xc0\x98.\xce\xc6\x89M\xf2?'
p540
tp541
bag519
asbsg348
(itrajectory_representation.operator
Operator
p542
(dp543
g9
I01
sg10
(dp544
g463
Vsquare_packing_box2
p545
ssg14
g465
sg16
(dp546
g467
(lp547
g19
(g20
(I0
tp548
g22
tp549
Rp550
(I1
(I3
tp551
g475
I00
S'\xbcD@\x1cPn\x0e@:\x1a-\xc8\x9b(\x1a\xc0\n\xdd\xaf\x13\t\xaa\xfb?'
p552
tp553
bag19
(g20
(I0
tp554
g22
tp555
Rp556
(I1
(I3
tp557
g475
I00
S'\xe0\xe9\x1f\xb9L\xa7\x0b@\xba\x9b\xa0\x9b\xba\xc1\x19\xc0T\x1e\x03P-<\xec?'
p558
tp559
bag19
(g20
(I0
tp560
g22
tp561
Rp562
(I1
(I3
tp563
g475
I00
S'@\xed\xf1\xc5\xd4\xe4\x0c@w2\xbaW\x87\xe2\x19\xc0%R\xc0\n\xe4K\xf4?'
p564
tp565
bag19
(g20
(I0
tp566
g22
tp567
Rp568
(I1
(I3
tp569
g475
I00
S'|s\x12\xe5\xf5n\x0c@\xff\xe6+(N\x02\x1a\xc0\xd6\x17|D\x1b\x87\xf5?'
p570
tp571
basg492
I00
ssg34
(lp572
g19
(g20
(I0
tp573
g22
tp574
Rp575
(I1
(I3
tp576
g216
I00
S'\x1c\x1dt\xe3&\x98\x02@\xf4\x8f\xd3\xf9k\xd3\x1d\xc0\xect\xfb\x88\x0e{\x13@'
p577
tp578
bag19
(g20
(I0
tp579
g22
tp580
Rp581
(I1
(I3
tp582
g227
I00
S'\xc4Q\xc7C\xc2\x94\x07@g\xab\x8b\xc7\xff\xcd\x1c\xc0\xf74\xc6\xd0z\x89\xfa\xbf'
p583
tp584
bag19
(g20
(I0
tp585
g22
tp586
Rp587
(I1
(I3
tp588
g227
I00
S'\xd3s\x0b\xfa\xdf\xd9\x08@\xc52\xb7\xa7\x86L\x1b\xc0\xca\xe2\x95Rh\xea\xf6?'
p589
tp590
bag556
asbsg349
(itrajectory_representation.operator
Operator
p591
(dp592
g9
I01
sg10
(dp593
S'object'
p594
Vsquare_packing_box3
p595
ssg14
S'two_arm_pick'
p596
sg16
(dp597
S'q_goal'
p598
g19
(g20
(I0
tp599
g22
tp600
Rp601
(I1
(I3
tp602
g26
(S'f8'
p603
I0
I1
tp604
Rp605
(I3
S'<'
p606
NNNI-1
I-1
I0
tp607
bI00
S'\x10\x8f\xa7\x80\x98j\x05@\x9d\x02\xf6\xcb.\x1e\x1d\xc0dN\xe6\x8c\xd3\xb5\xe5\xbf'
p608
tp609
bssg34
(lp610
g19
(g20
(I0
tp611
g22
tp612
Rp613
(I1
(I3
tp614
g216
I00
S'\x1c\x1dt\xe3&\x98\x02@\xf4\x8f\xd3\xf9k\xd3\x1d\xc0\xect\xfb\x88\x0e{\x13@'
p615
tp616
bag601
asbsg350
(itrajectory_representation.operator
Operator
p617
(dp618
g9
I01
sg10
(dp619
g13
g350
ssg14
g433
sg16
(dp620
g18
g19
(g20
(I0
tp621
g22
tp622
Rp623
(I1
(I3
tp624
g29
I00
S'=\xb0\x90)g\xcd\x06@nOn1\xd8M\x16\xc0\xe0}\xbc\xa0\xbdm\xa6?'
p625
tp626
bssg34
(lp627
g19
(g20
(I0
tp628
g22
tp629
Rp630
(I1
(I3
tp631
g216
I00
S'\x1c\x1dt\xe3&\x98\x02@\xf4\x8f\xd3\xf9k\xd3\x1d\xc0\xect\xfb\x88\x0e{\x13@'
p632
tp633
bag19
(g20
(I0
tp634
g22
tp635
Rp636
(I1
(I3
tp637
g227
I00
S'\xc4Q\xc7C\xc2\x94\x07@g\xab\x8b\xc7\xff\xcd\x1c\xc0\xf74\xc6\xd0z\x89\xfa\xbf'
p638
tp639
bag19
(g20
(I0
tp640
g22
tp641
Rp642
(I1
(I3
tp643
g227
I00
S'A\x03\x1d\xda\x16\xfc\n@\x9e 1\xe0c;\x1a\xc0\xbc\xfe\x1aH\xbe\xf1\xfc\xbf'
p644
tp645
bag19
(g20
(I0
tp646
g22
tp647
Rp648
(I1
(I3
tp649
g227
I00
S'\x00O\xfd4U\xed\x06@>#>\xa9c\x95\x18\xc0\xeb\xe4n\xb8\x98\xa5\xc9\xbf'
p650
tp651
bag623
asbsg351
(itrajectory_representation.operator
Operator
p652
(dp653
g9
I01
sg10
(dp654
g13
g351
ssg14
g433
sg16
(dp655
g18
g19
(g20
(I0
tp656
g22
tp657
Rp658
(I1
(I3
tp659
g29
I00
S'\xael\x7fnD\xac\xe5?|V\x99e\xa9t\x14\xc0\xe2Wji\x93\xe6\xf6\xbf'
p660
tp661
bssg34
(lp662
g19
(g20
(I0
tp663
g22
tp664
Rp665
(I1
(I3
tp666
g216
I00
S'\x1c\x1dt\xe3&\x98\x02@\xf4\x8f\xd3\xf9k\xd3\x1d\xc0\xect\xfb\x88\x0e{\x13@'
p667
tp668
bag19
(g20
(I0
tp669
g22
tp670
Rp671
(I1
(I3
tp672
g227
I00
S'\x06\xbc\xc2\x02\xe5\t\xfa?\x13\x91\xe2\xd9\xb5B\x1e\xc0\xce\xd4\xdb\xc4\xdf\xb1\xf6\xbf'
p673
tp674
bag19
(g20
(I0
tp675
g22
tp676
Rp677
(I1
(I3
tp678
g227
I00
S'\xba)c\x05l\x93\xf4?\x8f\x0f\xa1<\xee\x05\x1c\xc0\xf9-\x16\x17\xc6`\xf8\xbf'
p679
tp680
bag19
(g20
(I0
tp681
g22
tp682
Rp683
(I1
(I3
tp684
g227
I00
S'\xb0\xcfg\xd5._\xe8?\xd6\x8d\xba\x87\x91D\x1a\xc0\xea!\xf73\x0cB\xf7\xbf'
p685
tp686
bag19
(g20
(I0
tp687
g22
tp688
Rp689
(I1
(I3
tp690
g227
I00
S'j\x1e\x80\xdd\x0f\xcc\xcc?\xb3\xd8X\xd3%~\x18\xc0\x90\xda\xcf7y\xd5\xe6\xbf'
p691
tp692
bag19
(g20
(I0
tp693
g22
tp694
Rp695
(I1
(I3
tp696
g227
I00
S'\xe4\x02R\xd9\x08\x8c\xc7?2\xc1\xd4;\xf6\xf3\x15\xc0>\x8c\x8fa?0\xd8?'
p697
tp698
bag19
(g20
(I0
tp699
g22
tp700
Rp701
(I1
(I3
tp702
g227
I00
S"\xb2&6mg)\xe8?\x99\xe0G'\x16\xe0\x13\xc0\xc8oL\xf5\x17p\xe6\xbf"
p703
tp704
bag658
asbssS'mc_paths'
p705
(dp706
sS'robot'
p707
NsS'reachable_obj_region_pairs'
p708
(lp709
sS'sampled_pick_configs_for_objects'
p710
(dp711
sS'mc_calls'
p712
I0
sS'pick_poses'
p713
g388
sS'problem_env'
p714
NsS'evaluations'
p715
(dp716
(g206
Vsquare_packing_box3
p717
g207
tp718
I01
s(g206
Vrectangular_packing_box3
p719
g207
tp720
I00
s(g206
Vsquare_packing_box2
p721
g207
tp722
I00
s(g206
Vrectangular_packing_box2
p723
g207
tp724
I01
s(g206
Vsquare_packing_box1
p725
g207
tp726
I00
s(g206
Vsquare_packing_box4
p727
g207
tp728
I01
s(g206
g280
g207
tp729
I01
s(g280
g206
g207
tp730
I00
ssS'paths_to_reachable_entities'
p731
NsS'use_shortest_path'
p732
I01
sbsS'ternary_edges'
p733
(dp734
(g723
g723
g207
tp735
(lp736
I00
as(g725
S'loading_region'
p737
g737
tp738
(lp739
I00
as(S'entire_region'
p740
g280
g207
tp741
(lp742
I00
as(g721
g727
g737
tp743
(lp744
I00
as(g207
g207
g207
tp745
(lp746
I00
as(g727
g723
g737
tp747
(lp748
I00
as(g725
g719
g207
tp749
(lp750
I00
as(g207
g206
g207
tp751
(lp752
I00
as(g721
g725
g207
tp753
(lp754
I01
as(g719
g206
g737
tp755
(lp756
I00
as(g207
g727
g737
tp757
(lp758
I00
as(g721
g740
g207
tp759
(lp760
I00
as(g737
g207
g737
tp761
(lp762
I00
as(g206
g717
g207
tp763
(lp764
I01
as(g727
g740
g207
tp765
(lp766
I00
as(g721
g280
g737
tp767
(lp768
I00
as(g717
g737
g207
tp769
(lp770
I00
as(g740
g723
g737
tp771
(lp772
I00
as(g207
g740
g207
tp773
(lp774
I00
as(g723
g737
g207
tp775
(lp776
I00
as(g717
g740
g207
tp777
(lp778
I00
as(g725
g725
g737
tp779
(lp780
I00
as(g737
g727
g737
tp781
(lp782
I00
as(g740
g737
g207
tp783
(lp784
I00
as(g740
g721
g207
tp785
(lp786
I00
as(g737
g737
g207
tp787
(lp788
I00
as(g717
g206
g737
tp789
(lp790
I00
as(g207
g207
g737
tp791
(lp792
I00
as(g280
g721
g737
tp793
(lp794
I00
as(g723
g727
g207
tp795
(lp796
I01
as(g717
g725
g207
tp797
(lp798
I00
as(g280
g207
g737
tp799
(lp800
I00
as(g207
g723
g737
tp801
(lp802
I00
as(g280
g719
g737
tp803
(lp804
I00
as(g719
g280
g207
tp805
(lp806
I01
as(g737
g725
g737
tp807
(lp808
I00
as(g727
g721
g737
tp809
(lp810
I00
as(g723
g723
g737
tp811
(lp812
I00
as(g740
g727
g207
tp813
(lp814
I00
as(g737
g207
g207
tp815
(lp816
I00
as(g206
g723
g207
tp817
(lp818
I01
as(g207
g719
g207
tp819
(lp820
I00
as(g721
g280
g207
tp821
(lp822
I01
as(g719
g727
g207
tp823
(lp824
I01
as(g725
g719
g737
tp825
(lp826
I00
as(g717
g721
g207
tp827
(lp828
I00
as(g721
g725
g737
tp829
(lp830
I00
as(g721
g723
g737
tp831
(lp832
I00
as(g740
g721
g737
tp833
(lp834
I00
as(g737
g719
g737
tp835
(lp836
I00
as(g740
g207
g207
tp837
(lp838
I00
as(g206
g207
g207
tp839
(lp840
I00
as(g737
g740
g207
tp841
(lp842
I00
as(g723
g727
g737
tp843
(lp844
I00
as(g717
g723
g737
tp845
(lp846
I00
as(g717
g717
g207
tp847
(lp848
I00
as(g280
g719
g207
tp849
(lp850
I00
as(g740
g723
g207
tp851
(lp852
I00
as(g280
g737
g737
tp853
(lp854
I00
as(g727
g725
g207
tp855
(lp856
I00
as(g725
g725
g207
tp857
(lp858
I00
as(g725
g206
g207
tp859
(lp860
I00
as(g206
g723
g737
tp861
(lp862
I00
as(g727
g280
g737
tp863
(lp864
I00
as(g717
g206
g207
tp865
(lp866
I00
as(g280
g721
g207
tp867
(lp868
I00
as(g723
g280
g737
tp869
(lp870
I00
as(g280
g207
g207
tp871
(lp872
I00
as(g721
g723
g207
tp873
(lp874
I00
as(g723
g717
g207
tp875
(lp876
I00
as(g719
g280
g737
tp877
(lp878
I00
as(g207
g721
g737
tp879
(lp880
I00
as(g740
g207
g737
tp881
(lp882
I00
as(g740
g727
g737
tp883
(lp884
I00
as(g717
g723
g207
tp885
(lp886
I01
as(g719
g717
g737
tp887
(lp888
I00
as(g723
g740
g737
tp889
(lp890
I00
as(g280
g737
g207
tp891
(lp892
I00
as(g717
g721
g737
tp893
(lp894
I00
as(g717
g280
g737
tp895
(lp896
I00
as(g727
g725
g737
tp897
(lp898
I00
as(g207
g719
g737
tp899
(lp900
I00
as(g740
g717
g737
tp901
(lp902
I00
as(g737
g719
g207
tp903
(lp904
I00
as(g737
g721
g737
tp905
(lp906
I00
as(g723
g280
g207
tp907
(lp908
I01
as(g727
g280
g207
tp909
(lp910
I00
as(g737
g717
g207
tp911
(lp912
I00
as(g723
g717
g737
tp913
(lp914
I00
as(g723
g206
g737
tp915
(lp916
I00
as(g719
g727
g737
tp917
(lp918
I00
as(g725
g206
g737
tp919
(lp920
I00
as(g280
g717
g737
tp921
(lp922
I00
as(g207
g725
g737
tp923
(lp924
I00
as(g719
g737
g737
tp925
(lp926
I00
as(g206
g207
g737
tp927
(lp928
I00
as(g725
g280
g207
tp929
(lp930
I01
as(g723
g740
g207
tp931
(lp932
I00
as(g206
g721
g737
tp933
(lp934
I00
as(g719
g723
g737
tp935
(lp936
I00
as(g717
g280
g207
tp937
(lp938
I01
as(g727
g737
g737
tp939
(lp940
I00
as(g721
g207
g207
tp941
(lp942
I00
as(g727
g206
g207
tp943
(lp944
I00
as(g207
g717
g737
tp945
(lp946
I00
as(g737
g280
g737
tp947
(lp948
I00
as(g737
g717
g737
tp949
(lp950
I00
as(g725
g717
g207
tp951
(lp952
I00
as(g280
g717
g207
tp953
(lp954
I00
as(g725
g280
g737
tp955
(lp956
I00
as(g719
g723
g207
tp957
(lp958
I00
as(g723
g721
g207
tp959
(lp960
I00
as(g719
g207
g737
tp961
(lp962
I00
as(g727
g737
g207
tp963
(lp964
I00
as(g737
g206
g737
tp965
(lp966
I00
as(g723
g206
g207
tp967
(lp968
I00
as(g719
g719
g207
tp969
(lp970
I00
as(g206
g206
g207
tp971
(lp972
I00
as(g206
g719
g737
tp973
(lp974
I00
as(g719
g737
g207
tp975
(lp976
I00
as(g717
g727
g207
tp977
(lp978
I01
as(g206
g721
g207
tp979
(lp980
I00
as(g721
g737
g737
tp981
(lp982
I00
as(g719
g740
g737
tp983
(lp984
I00
as(g721
g207
g737
tp985
(lp986
I00
as(g725
g721
g737
tp987
(lp988
I00
as(g727
g206
g737
tp989
(lp990
I00
as(g717
g207
g737
tp991
(lp992
I00
as(g719
g207
g207
tp993
(lp994
I00
as(g737
g206
g207
tp995
(lp996
I00
as(g280
g280
g207
tp997
(lp998
I00
as(g737
g727
g207
tp999
(lp1000
I00
as(g727
g717
g207
tp1001
(lp1002
I00
as(g725
g723
g207
tp1003
(lp1004
I00
as(g725
g717
g737
tp1005
(lp1006
I00
as(g206
g725
g737
tp1007
(lp1008
I00
as(g207
g721
g207
tp1009
(lp1010
I00
as(g740
g719
g737
tp1011
(lp1012
I00
as(g719
g725
g207
tp1013
(lp1014
I00
as(g280
g740
g207
tp1015
(lp1016
I00
as(g717
g727
g737
tp1017
(lp1018
I00
as(g717
g719
g737
tp1019
(lp1020
I00
as(g206
g280
g207
tp1021
(lp1022
I01
as(g723
g721
g737
tp1023
(lp1024
I00
as(g206
g737
g207
tp1025
(lp1026
I00
as(g719
g740
g207
tp1027
(lp1028
I00
as(g727
g719
g737
tp1029
(lp1030
I00
as(g723
g725
g207
tp1031
(lp1032
I00
as(g717
g725
g737
tp1033
(lp1034
I00
as(g727
g727
g737
tp1035
(lp1036
I00
as(g206
g206
g737
tp1037
(lp1038
I00
as(g280
g280
g737
tp1039
(lp1040
I00
as(g725
g727
g737
tp1041
(lp1042
I00
as(g727
g721
g207
tp1043
(lp1044
I00
as(g740
g725
g207
tp1045
(lp1046
I00
as(g207
g740
g737
tp1047
(lp1048
I00
as(g207
g280
g737
tp1049
(lp1050
I00
as(g721
g737
g207
tp1051
(lp1052
I00
as(g725
g723
g737
tp1053
(lp1054
I00
as(g280
g725
g737
tp1055
(lp1056
I00
as(g719
g719
g737
tp1057
(lp1058
I00
as(g740
g719
g207
tp1059
(lp1060
I00
as(g721
g719
g737
tp1061
(lp1062
I00
as(g280
g740
g737
tp1063
(lp1064
I00
as(g725
g721
g207
tp1065
(lp1066
I00
as(g206
g280
g737
tp1067
(lp1068
I00
as(g206
g719
g207
tp1069
(lp1070
I00
as(g727
g719
g207
tp1071
(lp1072
I00
as(g725
g207
g737
tp1073
(lp1074
I00
as(g721
g717
g207
tp1075
(lp1076
I00
as(g717
g717
g737
tp1077
(lp1078
I00
as(g206
g740
g207
tp1079
(lp1080
I00
as(g737
g740
g737
tp1081
(lp1082
I00
as(g727
g717
g737
tp1083
(lp1084
I00
as(g737
g280
g207
tp1085
(lp1086
I00
as(g740
g740
g737
tp1087
(lp1088
I00
as(g206
g725
g207
tp1089
(lp1090
I00
as(g725
g727
g207
tp1091
(lp1092
I01
as(g737
g723
g737
tp1093
(lp1094
I00
as(g719
g725
g737
tp1095
(lp1096
I00
as(g717
g207
g207
tp1097
(lp1098
I00
as(g740
g725
g737
tp1099
(lp1100
I00
as(g717
g719
g207
tp1101
(lp1102
I00
as(g719
g721
g207
tp1103
(lp1104
I00
as(g206
g737
g737
tp1105
(lp1106
I00
as(g723
g725
g737
tp1107
(lp1108
I00
as(g280
g723
g207
tp1109
(lp1110
I01
as(g740
g737
g737
tp1111
(lp1112
I00
as(g737
g723
g207
tp1113
(lp1114
I00
as(g725
g740
g207
tp1115
(lp1116
I00
as(g721
g717
g737
tp1117
(lp1118
I00
as(g721
g206
g737
tp1119
(lp1120
I00
as(g727
g207
g207
tp1121
(lp1122
I00
as(g206
g740
g737
tp1123
(lp1124
I00
as(g206
g727
g207
tp1125
(lp1126
I01
as(g740
g206
g737
tp1127
(lp1128
I00
as(g207
g280
g207
tp1129
(lp1130
I00
as(g207
g717
g207
tp1131
(lp1132
I00
as(g280
g725
g207
tp1133
(lp1134
I00
as(g280
g206
g207
tp1135
(lp1136
I00
as(g740
g717
g207
tp1137
(lp1138
I00
as(g721
g719
g207
tp1139
(lp1140
I00
as(g721
g721
g737
tp1141
(lp1142
I00
as(g280
g727
g737
tp1143
(lp1144
I00
as(g727
g207
g737
tp1145
(lp1146
I00
as(g723
g207
g207
tp1147
(lp1148
I00
as(g725
g207
g207
tp1149
(lp1150
I00
as(g280
g723
g737
tp1151
(lp1152
I00
as(g727
g723
g207
tp1153
(lp1154
I00
as(g207
g737
g207
tp1155
(lp1156
I00
as(g740
g740
g207
tp1157
(lp1158
I00
as(g723
g719
g737
tp1159
(lp1160
I00
as(g725
g740
g737
tp1161
(lp1162
I00
as(g737
g721
g207
tp1163
(lp1164
I00
as(g719
g206
g207
tp1165
(lp1166
I00
as(g740
g206
g207
tp1167
(lp1168
I00
as(g725
g737
g207
tp1169
(lp1170
I00
as(g719
g721
g737
tp1171
(lp1172
I00
as(g207
g725
g207
tp1173
(lp1174
I00
as(g740
g280
g737
tp1175
(lp1176
I00
as(g727
g740
g737
tp1177
(lp1178
I00
as(g721
g721
g207
tp1179
(lp1180
I00
as(g280
g727
g207
tp1181
(lp1182
I01
as(g717
g740
g737
tp1183
(lp1184
I00
as(g721
g206
g207
tp1185
(lp1186
I00
as(g207
g727
g207
tp1187
(lp1188
I00
as(g719
g717
g207
tp1189
(lp1190
I00
as(g206
g727
g737
tp1191
(lp1192
I00
as(g727
g727
g207
tp1193
(lp1194
I00
as(g280
g206
g737
tp1195
(lp1196
I00
as(g721
g727
g207
tp1197
(lp1198
I01
as(g717
g737
g737
tp1199
(lp1200
I00
as(g207
g723
g207
tp1201
(lp1202
I00
as(g723
g737
g737
tp1203
(lp1204
I00
as(g207
g206
g737
tp1205
(lp1206
I00
as(g723
g207
g737
tp1207
(lp1208
I00
as(g737
g737
g737
tp1209
(lp1210
I00
as(g721
g740
g737
tp1211
(lp1212
I00
as(g206
g717
g737
tp1213
(lp1214
I00
as(g207
g737
g737
tp1215
(lp1216
I00
as(g723
g719
g207
tp1217
(lp1218
I00
as(g737
g725
g207
tp1219
(lp1220
I00
assg387
g388
sS'use_prm'
p1221
I01
sS'object_names'
p1222
(lp1223
S'square_packing_box1'
p1224
aS'rectangular_packing_box1'
p1225
aS'square_packing_box2'
p1226
aS'rectangular_packing_box2'
p1227
aS'square_packing_box3'
p1228
aS'rectangular_packing_box3'
p1229
aS'square_packing_box4'
p1230
aS'rectangular_packing_box4'
p1231
asg714
NsS'current_holding_collides'
p1232
NsS'object_poses'
p1233
(dp1234
Vrectangular_packing_box4
p1235
g19
(g20
(I0
tp1236
g22
tp1237
Rp1238
(I1
(I1
I3
tp1239
g216
I00
S'T\xaao\xdb\xd8\x19\x06@\xc9\xd1\xd0\xa0\xd4% \xc0\x9f\xe8\xeb\x17A\x1e\x0e@'
p1240
tp1241
bsVrectangular_packing_box2
p1242
g19
(g20
(I0
tp1243
g22
tp1244
Rp1245
(I1
(I1
I3
tp1246
g216
I00
S'x#\x8a\xa8\xbfB\x02@]@\xdd\xaa0\xf7\x1a\xc0\xa2\x93\xe4\xf2\xe3\x8f\xe0?'
p1247
tp1248
bsVrectangular_packing_box3
p1249
g19
(g20
(I0
tp1250
g22
tp1251
Rp1252
(I1
(I1
I3
tp1253
g216
I00
S',\xa3$/\t\xb1\xb0?p\xd9\xd7\x88y7\x1e\xc0\xa1\xa8\xa4gcb\x12@'
p1254
tp1255
bsVrectangular_packing_box1
p1256
g19
(g20
(I0
tp1257
g22
tp1258
Rp1259
(I1
(I1
I3
tp1260
g216
I00
S'\xf81, \xdaJ\xf5?\x90\x94\xc7_\x9e4\x18\xc0\x88,&\x8ck,\x0b@'
p1261
tp1262
bsVsquare_packing_box2
p1263
g19
(g20
(I0
tp1264
g22
tp1265
Rp1266
(I1
(I1
I3
tp1267
g216
I00
S'\xb3\x99\x7f<\xad\xb4\r@\xd8\xe5\x95\xe8\xfc\xf0\x16\xc0Y\x96n\x9e\xe7\t\x19@'
p1268
tp1269
bsVsquare_packing_box3
p1270
g19
(g20
(I0
tp1271
g22
tp1272
Rp1273
(I1
(I1
I3
tp1274
g216
I00
S'g\x11,\xddP\xfa\x0e@t\xb1Ic\x04\xde\x1e\xc0\x82\x04\xd2\xef\xb5O\n@'
p1275
tp1276
bsVsquare_packing_box1
p1277
g19
(g20
(I0
tp1278
g22
tp1279
Rp1280
(I1
(I1
I3
tp1281
g216
I00
S'\x12\xcf\x19\xc3\xf23\x0c@\x89\xb5r\xad\x0f?\x15\xc0\xbf~a\xe9h\n\x13@'
p1282
tp1283
bsVsquare_packing_box4
p1284
g19
(g20
(I0
tp1285
g22
tp1286
Rp1287
(I1
(I1
I3
tp1288
g216
I00
S'X\xce\xcef\xfe\xbb\xf0?L@\xfc\xa1\x9e\xc0\x16\xc0\xaeKe\x14U\xf8\x13@'
p1289
tp1290
bssS'reachable_regions_while_holding'
p1291
(lp1292
(g345
g737
tp1293
a(g346
g737
tp1294
a(g347
g737
tp1295
a(g512
g737
tp1296
a(g348
g737
tp1297
a(g349
g737
tp1298
a(g350
g737
tp1299
a(g351
g737
tp1300
a(g346
g207
tp1301
a(g347
g207
tp1302
a(g348
g207
tp1303
a(g349
g207
tp1304
a(g350
g207
tp1305
a(g351
g207
tp1306
asS'in_region'
p1307
(itrajectory_representation.predicates.in_region
InRegion
p1308
(dp1309
g714
NsbsS'cached_pick_paths'
p1310
(dp1311
g345
g423
sg346
g441
sg347
g493
sg512
g523
sg348
g572
sg349
g610
sg350
g627
sg351
g662
ssg352
(dp1312
(Vsquare_packing_box4
p1313
(cnumpy.core.multiarray
scalar
p1314
(g216
S'\x90\xc0\x1f~\xfe\xbb\xf0?'
p1315
tp1316
Rp1317
g1314
(g216
S'8\xdb\xdc\x98\x9e\xc0\x16\xc0'
p1318
tp1319
Rp1320
g1314
(g216
S'\xda\x8c\xd3\x10U\xf8\x13@'
p1321
tp1322
Rp1323
tp1324
tp1325
g386
s(Vrectangular_packing_box2
p1326
(g1314
(g216
S'\xce\xe30\x98\xbfB\x02@'
p1327
tp1328
Rp1329
g1314
(g216
S'\xf9hq\xc60\xf7\x1a\xc0'
p1330
tp1331
Rp1332
g1314
(g216
S'V\xbc\x91y\xe4\x8f\xe0?'
p1333
tp1334
Rp1335
tp1336
tp1337
g362
s(Vrectangular_packing_box3
p1338
(g1314
(g216
S'{\x9f\xaaB\x03\xb1\xb0?'
p1339
tp1340
Rp1341
g1314
(g216
S'\x0f\x0b\xb5\xa6y7\x1e\xc0'
p1342
tp1343
Rp1344
g1314
(g216
S'\xe5\xef\xdeQcb\x12@'
p1345
tp1346
Rp1347
tp1348
tp1349
g366
s(Vsquare_packing_box3
p1350
(g1314
(g216
S'_\x07\xce\x19Q\xfa\x0e@'
p1351
tp1352
Rp1353
g1314
(g216
S'\x81B=}\x04\xde\x1e\xc0'
p1354
tp1355
Rp1356
g1314
(g216
S'\\\x051\xd0\xb5O\n@'
p1357
tp1358
Rp1359
tp1360
tp1361
g378
s(Vsquare_packing_box2
p1362
(g1314
(g216
S'6\x90.6\xad\xb4\r@'
p1363
tp1364
Rp1365
g1314
(g216
S'7\xc3\r\xf8\xfc\xf0\x16\xc0'
p1366
tp1367
Rp1368
g1314
(g216
S'\xe9\x9d\n\xb8\xe7\t\x19@'
p1369
tp1370
Rp1371
tp1372
tp1373
g374
s(Vsquare_packing_box1
p1374
(g1314
(g216
S'N\xb4\xab\x90\xf23\x0c@'
p1375
tp1376
Rp1377
g1314
(g216
S'Q\xf5+\x9d\x0f?\x15\xc0'
p1378
tp1379
Rp1380
g1314
(g216
S'\xe2\x1f\xb6\xf4h\n\x13@'
p1381
tp1382
Rp1383
tp1384
tp1385
g382
s(Vrectangular_packing_box4
p1386
(g1314
(g216
S'J\xf1\xf1\t\xd9\x19\x06@'
p1387
tp1388
Rp1389
g1314
(g216
S':"\xdf\xa5\xd4% \xc0'
p1390
tp1391
Rp1392
g1314
(g216
S'\x14\xe9~NA\x1e\x0e@'
p1393
tp1394
Rp1395
tp1396
tp1397
g358
s(Vrectangular_packing_box1
p1398
(g1314
(g216
S'\xa8\xdf\x85\xad\xd9J\xf5?'
p1399
tp1400
Rp1401
g1314
(g216
S'\x14\x05\xfaD\x9e4\x18\xc0'
p1402
tp1403
Rp1404
g1314
(g216
S'\xb13\x85\xcek,\x0b@'
p1405
tp1406
Rp1407
tp1408
tp1409
g370
ssS'state_saver'
p1410
(igtamp_utils.utils
CustomStateSaver
p1411
(dp1412
S'robot_base_pose'
p1413
g19
(g20
(I0
tp1414
g22
tp1415
Rp1416
(I1
(I1
I3
tp1417
g216
I00
S'\x1e\x1dt\xe3&\x98\x02@\xf8\x8f\xd3\xf9k\xd3\x1d\xc0\xect\xfb\x88\x0e{\x13@'
p1418
tp1419
bsS'held_object'
p1420
NsS'robot_name'
p1421
S'pr2'
p1422
sS'env_id'
p1423
I1
sg1233
(dp1424
Vright_wall_1
p1425
g19
(g20
(I0
tp1426
g22
tp1427
Rp1428
(I1
(I4
tp1429
g216
I00
S'H\xe1z\x14\xaeG\x12@&\\\x8f\xc2\xf5(\xd4\xbf\xcc\x7fH\xbf}\x1d\xed?\x00\x00\x00\x00\x00\x00\x00\x00'
p1430
tp1431
bsVc_obst5
p1432
g19
(g20
(I0
tp1433
g22
tp1434
Rp1435
(I1
(I4
tp1436
g216
I00
S"\x9c\xf1q\xbb~\xea\x11@\xfc7\xbb\xd6O\xb6\xd4?e\xaa`TR'\xed?\xd2\x93\xb1\x82\xa4\x94\x0b@"
p1437
tp1438
bsVentrance_right
p1439
g19
(g20
(I0
tp1440
g22
tp1441
Rp1442
(I1
(I4
tp1443
g216
I00
S'ffffff\n@H\xe1z\x14\xaeG\t\xc0\x9c\xc4 \xb0rh\xc1?\x00\x00\x00\x00\x00\x00\x00\x00'
p1444
tp1445
bsVcomputer_table
p1446
g19
(g20
(I0
tp1447
g22
tp1448
Rp1449
(I1
(I4
tp1450
g216
I00
S'\x00\x00\x00\x00\x00\x00\x13@\x00\x00\x00\x00\x00\x00\xf8\xbf\x96C\x8bl\xe7\xfb\xe7?\xd2!3\x7f|\xd9\x12@'
p1451
tp1452
bsVchair_6b56
p1453
g19
(g20
(I0
tp1454
g22
tp1455
Rp1456
(I1
(I4
tp1457
g216
I00
S'u=\n\xd7\xa3p\xf5?K\xe1z\x14\xaeG\xd1?\x00\x00\x00\x00\x00\x00\x00\x00\xd6$\xfaNBm\n@'
p1458
tp1459
bsVsquare_packing_box3
p1460
g19
(g20
(I0
tp1461
g22
tp1462
Rp1463
(I1
(I4
tp1464
g216
I00
S't\x11,\xddP\xfa\x0e@\x85\xb1Ic\x04\xde\x1e\xc0K7\x89A`\xe5\xd8?\x82\x04\xd2\xef\xb5O\n@'
p1465
tp1466
bsVsquare_packing_box2
p1467
g19
(g20
(I0
tp1468
g22
tp1469
Rp1470
(I1
(I4
tp1471
g216
I00
S'\xb3\x99\x7f<\xad\xb4\r@\xd8\xe5\x95\xe8\xfc\xf0\x16\xc0L7\x89A`\xe5\xd8?Y\x96n\x9e\xe7\t\x19@'
p1472
tp1473
bsVtable
p1474
g19
(g20
(I0
tp1475
g22
tp1476
Rp1477
(I1
(I4
tp1478
g216
I00
S'\x7f\xf6#EdX\xed?\xac\xffs\x98//\xc0\xbf\x00\x00\x00\x00\x00\x00\x00\x00\x00\x00\x00\x00\x00\x00\x00\x00'
p1479
tp1480
bsVsquare_packing_box1
p1481
g19
(g20
(I0
tp1482
g22
tp1483
Rp1484
(I1
(I4
tp1485
g216
I00
S'\x0e\xcf\x19\xc3\xf23\x0c@\x88\xb5r\xad\x0f?\x15\xc0L7\x89A`\xe5\xd8?\xbf~a\xe9h\n\x13@'
p1486
tp1487
bsVback_wall_2
p1488
g19
(g20
(I0
tp1489
g22
tp1490
Rp1491
(I1
(I4
tp1492
g216
I00
S'\xaeG\xe1z\x14.\x13@\x80\x14\xaeG\xe1z\xc4?xX\xa85\xcd\xbb\xf2?\x00\x00\x00\x00\x00\x00\x00\x00'
p1493
tp1494
bsVchair_083c
p1495
g19
(g20
(I0
tp1496
g22
tp1497
Rp1498
(I1
(I4
tp1499
g216
I00
S'\xa4p=\n\xd7\xa3\xe0?333333\xe3\xbf\x00\x00\x00\x00\x00\x00\x00\x00\x00\x00\x00\x00\x00\x00\x00\x00'
p1500
tp1501
bsVback_wall_1
p1502
g19
(g20
(I0
tp1503
g22
tp1504
Rp1505
(I1
(I4
tp1506
g216
I00
S'\xaeG\xe1z\x14.\x13@\x80\x14\xaeG\xe1z\xc4?\xcc\x7fH\xbf}\x1d\xed?\x00\x00\x00\x00\x00\x00\x00\x00'
p1507
tp1508
bsVbottom_wall
p1509
g19
(g20
(I0
tp1510
g22
tp1511
Rp1512
(I1
(I4
tp1513
g216
I00
S'\x00\x00\x00\x00\x00\x00\xfc?\x00\x00\x00\x00\x00\x00\x00\x00\x00\x00\x00\x00\x00\x00\x00\x00\x00\x00\x00\x00\x00\x00\x00\x00'
p1514
tp1515
bsVcup_905a
p1516
g19
(g20
(I0
tp1517
g22
tp1518
Rp1519
(I1
(I4
tp1520
g216
I00
S'\x00\x00\x00\x00\x00\x00\xf0?\x83\xc0\xca\xa1E\xb6\xdb?\x1b/\xdd$\x06\x81\xed?\x00\x00\x00\x00\x00\x00\x00\x00'
p1521
tp1522
bsVplate_496f
p1523
g19
(g20
(I0
tp1524
g22
tp1525
Rp1526
(I1
(I4
tp1527
g216
I00
S"q=\n\xd7\xa3p\xe5?\x9dhW!\xe5'\xdd\xbf\x1b/\xdd$\x06\x81\xed?\x00\x00\x00\x00\x00\x00\x00\x00"
p1528
tp1529
bsVtoaster
p1530
g19
(g20
(I0
tp1531
g22
tp1532
Rp1533
(I1
(I4
tp1534
g216
I00
S')\\\x8f\xc2\xf5(\xf4\xbf\xe0z\x14\xaeG\xe1\xf2\xbf\xb8\x1e\x85\xebQ\xb8\xee?\x89/`\x9b\xf8\x8a\xe4?'
p1535
tp1536
bsVc_obst1
p1537
g19
(g20
(I0
tp1538
g22
tp1539
Rp1540
(I1
(I4
tp1541
g216
I00
S"\x07%\x95\xf6\x8a4\x12@%\xc3S\xe6\xc1\xef\xd7?e\xaa`TR'\xed?\xe0\xbaL\x80\x10\xb3\t@"
p1542
tp1543
bsVrectangular_packing_box4
p1544
g19
(g20
(I0
tp1545
g22
tp1546
Rp1547
(I1
(I4
tp1548
g216
I00
S'X\xaao\xdb\xd8\x19\x06@\xc7\xd1\xd0\xa0\xd4% \xc0M7\x89A`\xe5\xd8?\x9f\xe8\xeb\x17A\x1e\x0e@'
p1549
tp1550
bsVmicrowave
p1551
g19
(g20
(I0
tp1552
g22
tp1553
Rp1554
(I1
(I4
tp1555
g216
I00
S'\x9a\x99\x99\x99\x99\x99\xf1\xbf\x00\x00\x00\x00\x00\x00\x00@7\x89A`\xe5\xd0\xee?\x00\x00\x00\x00\x00\x00\x00\x00'
p1556
tp1557
bsVc_obst7
p1558
g19
(g20
(I0
tp1559
g22
tp1560
Rp1561
(I1
(I4
tp1562
g216
I00
S"\x00\x82=\xfa]F\x12@Rf\x922\x8f\r\xdc?e\xaa`TR'\xed?\xa1F+\x03Yi}?"
p1563
tp1564
bsVc_obst6
p1565
g19
(g20
(I0
tp1566
g22
tp1567
Rp1568
(I1
(I4
tp1569
g216
I00
S"\x04\x9b\x11\x01\x95\x83\x12@\xf0\xa7>?}-\xd2?e\xaa`TR'\xed?\xed\xedJ\xfa\x0b\x0c\x04@"
p1570
tp1571
bsVcup_b6af
p1572
g19
(g20
(I0
tp1573
g22
tp1574
Rp1575
(I1
(I4
tp1576
g216
I00
S'R\xb8\x1e\x85\xebQ\xe8?\x9a\x99\x99\x99\x99\x99\xe1?\x1b/\xdd$\x06\x81\xed?\x00\x00\x00\x00\x00\x00\x00\x00'
p1577
tp1578
bsVc_obst4
p1579
g19
(g20
(I0
tp1580
g22
tp1581
Rp1582
(I1
(I4
tp1583
g216
I00
S"n\x08(p\x9bi\x12@\xc0\x8f\x90\x84\x98\xd9\xc1?e\xaa`TR'\xed?\xae\x8f\xee\xf0\x1b\x97\x16@"
p1584
tp1585
bsVrectangular_packing_box2
p1586
g19
(g20
(I0
tp1587
g22
tp1588
Rp1589
(I1
(I4
tp1590
g216
I00
S'x#\x8a\xa8\xbfB\x02@]@\xdd\xaa0\xf7\x1a\xc0L7\x89A`\xe5\xd8?\xa2\x93\xe4\xf2\xe3\x8f\xe0?'
p1591
tp1592
bsVplate_fa76
p1593
g19
(g20
(I0
tp1594
g22
tp1595
Rp1596
(I1
(I4
tp1597
g216
I00
S'=\n\xd7\xa3p=\xf2?\x00\x00\x00\x00\x00\x00\x00\x00\x1b/\xdd$\x06\x81\xed?\x00\x00\x00\x00\x00\x00\x00\x00'
p1598
tp1599
bsVfloorwalls
p1600
g19
(g20
(I0
tp1601
g22
tp1602
Rp1603
(I1
(I4
tp1604
g216
I00
S'\xc7\xcc\xcc\xcc\xcc\xcc\xfc?\x00\x00\x00\x00\x00\x00\x18\xc0H\xe1z\x14\xaeG\xc1?\x16-DT\xfb!\xf9?'
p1605
tp1606
bsVpin_c671
p1607
g19
(g20
(I0
tp1608
g22
tp1609
Rp1610
(I1
(I4
tp1611
g216
I00
S'\xc3\xf5(\\\x8f\xc2\xf1\xbf}?5^\xbaI\x02@\xb8\x1e\x85\xebQ\xb8\xfa?\x00\x00\x00\x00\x00\x00\x00\x00'
p1612
tp1613
bsVc_obst3
p1614
g19
(g20
(I0
tp1615
g22
tp1616
Rp1617
(I1
(I4
tp1618
g216
I00
S"^\xdd\\<%\xa1\x12@\xac\x8b8\x90\xc6\xe6\xd8?e\xaa`TR'\xed?\x1c\x9e\xaarJ\xdd\x16@"
p1619
tp1620
bsVchair_2e39
p1621
g19
(g20
(I0
tp1622
g22
tp1623
Rp1624
(I1
(I4
tp1625
g216
I00
S'hfffff\xee?cfffff\xf2\xbf\x00\x00\x00\x00\x00\x00\x00\x00\x07M\xe8QQF\xf3?'
p1626
tp1627
bsVentrance_left
p1628
g19
(g20
(I0
tp1629
g22
tp1630
Rp1631
(I1
(I4
tp1632
g216
I00
S'\x98\x99\x99\x99\x99\x99\xe9\xbfH\xe1z\x14\xaeG\t\xc0\x9c\xc4 \xb0rh\xc1?\x00\x00\x00\x00\x00\x00\x00\x00'
p1633
tp1634
bsVtop_wall_1
p1635
g19
(g20
(I0
tp1636
g22
tp1637
Rp1638
(I1
(I4
tp1639
g216
I00
S'H\xe1z\x14\xaeG\x12@\x80\x14\xaeG\xe1z\xc4?xX\xa85\xcd\xbb\xf2?\x00\x00\x00\x00\x00\x00\x00\x00'
p1640
tp1641
bsVrectangular_packing_box3
p1642
g19
(g20
(I0
tp1643
g22
tp1644
Rp1645
(I1
(I4
tp1646
g216
I00
S'\x9c\xa3$/\t\xb1\xb0?r\xd9\xd7\x88y7\x1e\xc0L7\x89A`\xe5\xd8?\xa1\xa8\xa4gcb\x12@'
p1647
tp1648
bsVshaker
p1649
g19
(g20
(I0
tp1650
g22
tp1651
Rp1652
(I1
(I4
tp1653
g216
I00
S'\n\xd7\xa3p=\n\x01@\x14\xaeG\xe1z\x14\x02@\\\x8f\xc2\xf5(\\\xef?\x00\x00\x00\x00\x00\x00\x00\x00'
p1654
tp1655
bsVc_obst9
p1656
g19
(g20
(I0
tp1657
g22
tp1658
Rp1659
(I1
(I4
tp1660
g216
I00
S"\x97v\x82wVC\x12@\xd8m\xad8\xc7F\xc2\xbfe\xaa`TR'\xed?\xd9R5=\xef\x80\x10@"
p1661
tp1662
bsVplate_835a
p1663
g19
(g20
(I0
tp1664
g22
tp1665
Rp1666
(I1
(I4
tp1667
g216
I00
S'\xf6(\\\x8f\xc2\xf5\xf0?\\\x8f\xc2\xf5(\\\xe7\xbf\x1b/\xdd$\x06\x81\xed?\x00\x00\x00\x00\x00\x00\x00\x00'
p1668
tp1669
bsVcup_58a2
p1670
g19
(g20
(I0
tp1671
g22
tp1672
Rp1673
(I1
(I4
tp1674
g216
I00
S'\x85\xebQ\xb8\x1e\x85\xe3?\xcd\xcc\xcc\xcc\xcc\xcc\xdc?\x1b/\xdd$\x06\x81\xed?\x00\x00\x00\x00\x00\x00\x00\x00'
p1675
tp1676
bsVleft_wall_1
p1677
g19
(g20
(I0
tp1678
g22
tp1679
Rp1680
(I1
(I4
tp1681
g216
I00
S'H\xe1z\x14\xaeG\x12@S\xb8\x1e\x85\xebQ\xe4?\xcc\x7fH\xbf}\x1d\xed?\x00\x00\x00\x00\x00\x00\x00\x00'
p1682
tp1683
bsVc_obst2
p1684
g19
(g20
(I0
tp1685
g22
tp1686
Rp1687
(I1
(I4
tp1688
g216
I00
S"\x00\xf9\xf8\xe06C\x12@Nd\x9dS@k\xcc?e\xaa`TR'\xed?\x8e\xd1'\xc0\x08~\xfe?"
p1689
tp1690
bsVsquare_packing_box4
p1691
g19
(g20
(I0
tp1692
g22
tp1693
Rp1694
(I1
(I4
tp1695
g216
I00
S'Z\xce\xcef\xfe\xbb\xf0?N@\xfc\xa1\x9e\xc0\x16\xc0L7\x89A`\xe5\xd8?\xaeKe\x14U\xf8\x13@'
p1696
tp1697
bsVrectangular_packing_box1
p1698
g19
(g20
(I0
tp1699
g22
tp1700
Rp1701
(I1
(I4
tp1702
g216
I00
S'\xf81, \xdaJ\xf5?\x90\x94\xc7_\x9e4\x18\xc0L7\x89A`\xe5\xd8?\x88,&\x8ck,\x0b@'
p1703
tp1704
bsVpin_371e
p1705
g19
(g20
(I0
tp1706
g22
tp1707
Rp1708
(I1
(I4
tp1709
g216
I00
S'333333\xf3\xbfffffff\xf6?\xb8\x1e\x85\xebQ\xb8\xee?\x00\x00\x00\x00\x00\x00\x00\x00'
p1710
tp1711
bsVfridge
p1712
g19
(g20
(I0
tp1713
g22
tp1714
Rp1715
(I1
(I4
tp1716
g216
I00
S'\xd7\xa3p=\n\xd7\xeb\xbf\x00\x00\x00\x00\x00\x00\x00\xc0\xcd\xcc\xcc\xcc\xcc\xcc\xf8?\x00\x00\x00\x00\x00\x00\x00\x00'
p1717
tp1718
bsVcup_d441
p1719
g19
(g20
(I0
tp1720
g22
tp1721
Rp1722
(I1
(I4
tp1723
g216
I00
S'\n\xd7\xa3p=\n\xef?\x8f\xc2\xf5(\\\x8f\xe2?\x1b/\xdd$\x06\x81\xed?\x00\x00\x00\x00\x00\x00\x00\x00'
p1724
tp1725
bsVshelf2
p1726
g19
(g20
(I0
tp1727
g22
tp1728
Rp1729
(I1
(I4
tp1730
g216
I00
S'\x00\x00\x00\x00\x00\x00\x0e@\xaeG\xe1z\x14\xae\x07@\x9c\xc4 \xb0rh\xc1?\xd2!3\x7f|\xd9\x12@'
p1731
tp1732
bsVtop_wall_2
p1733
g19
(g20
(I0
tp1734
g22
tp1735
Rp1736
(I1
(I4
tp1737
g216
I00
S'H\xe1z\x14\xaeG\x12@\x80\x14\xaeG\xe1z\xc4?\x16HP\xfc\x18\xf3\xfd?\x00\x00\x00\x00\x00\x00\x00\x00'
p1738
tp1739
bsVc_obst0
p1740
g19
(g20
(I0
tp1741
g22
tp1742
Rp1743
(I1
(I4
tp1744
g216
I00
S"\xb8\x088t\x9c7\x12@\x9eD\xf1\x14\xed\x8f\x96\xbfe\xaa`TR'\xed?\xadtI0\xaa\x0c\x13@"
p1745
tp1746
bsVshelf1
p1747
g19
(g20
(I0
tp1748
g22
tp1749
Rp1750
(I1
(I4
tp1751
g216
I00
S'\x00\x00\x00\x00\x00\x00\x13@\xaeG\xe1z\x14\xae\x07@\x9c\xc4 \xb0rh\xc1?\xd2!3\x7f|\xd9\x12@'
p1752
tp1753
bsVsink
p1754
g19
(g20
(I0
tp1755
g22
tp1756
Rp1757
(I1
(I4
tp1758
g216
I00
S'ffffff\xd6?333333\x01@\x9a\x99\x99\x99\x99\x99\xb9\xbf\x00\x00\x00\x00\x00\x00\x00\x00'
p1759
tp1760
bsVpr2
p1761
g19
(g20
(I0
tp1762
g22
tp1763
Rp1764
(I1
(I4
tp1765
g216
I00
S'\x1e\x1dt\xe3&\x98\x02@\xf8\x8f\xd3\xf9k\xd3\x1d\xc0\x9a_\x94\xa0\xbf\xd0\xc1?\xect\xfb\x88\x0e{\x13@'
p1766
tp1767
bsVchair_12d0
p1768
g19
(g20
(I0
tp1769
g22
tp1770
Rp1771
(I1
(I4
tp1772
g216
I00
S'\\\xd2\x18\xad\xa3\xaa\xdb?Of\x83L2r\xc6?\x00\x00\x00\x00\x00\x00\x00\x00\xf8\x81\r\x14M\xa6\x17@'
p1773
tp1774
bsVright_wall_2
p1775
g19
(g20
(I0
tp1776
g22
tp1777
Rp1778
(I1
(I4
tp1779
g216
I00
S'H\xe1z\x14\xaeG\x12@&\\\x8f\xc2\xf5(\xd4\xbfxX\xa85\xcd\xbb\xf2?\x00\x00\x00\x00\x00\x00\x00\x00'
p1780
tp1781
bsVknife_block
p1782
g19
(g20
(I0
tp1783
g22
tp1784
Rp1785
(I1
(I4
tp1786
g216
I00
S'R\xb8\x1e\x85\xebQ\xe0\xbfffffff\x02@`\xe5\xd0"\xdb\xf9\xee?\x00\x00\x00\x00\x00\x00\x00\x00'
p1787
tp1788
bsVleft_wall_2
p1789
g19
(g20
(I0
tp1790
g22
tp1791
Rp1792
(I1
(I4
tp1793
g216
I00
S'H\xe1z\x14\xaeG\x12@S\xb8\x1e\x85\xebQ\xe4?xX\xa85\xcd\xbb\xf2?\x00\x00\x00\x00\x00\x00\x00\x00'
p1794
tp1795
bsVleft_wall
p1796
g19
(g20
(I0
tp1797
g22
tp1798
Rp1799
(I1
(I4
tp1800
g216
I00
S'\x9a\x99\x99\x99\x99\x99\x07@H\xe1z\x14\xaeG\xff?\x9c\xc4 \xb0rh\xc1?\x00\x00\x00\x00\x00\x00\x00\x00'
p1801
tp1802
bsVkitchen
p1803
g19
(g20
(I0
tp1804
g22
tp1805
Rp1806
(I1
(I4
tp1807
g216
I00
S'\x00\x00\x00\x00\x00\x00\x00\x00\x00\x00\x00\x00\x00\x00\x00\x00\x00\x00\x00\x00\x00\x00\x00\x00\x00\x00\x00\x00\x00\x00\x00\x00'
p1808
tp1809
bsVtable2
p1810
g19
(g20
(I0
tp1811
g22
tp1812
Rp1813
(I1
(I4
tp1814
g216
I00
S'\x00\x00\x00\x00\x00\x00\x13@\x80\x14\xaeG\xe1z\xc4?S\x96!\x8euq\xec?\xd2!3\x7f|\xd9\x12@'
p1815
tp1816
bsVc_obst8
p1817
g19
(g20
(I0
tp1818
g22
tp1819
Rp1820
(I1
(I4
tp1821
g216
I00
S"\xa1\x86\xba\xbe\x0e\xfe\x11@+\x88\xaeAcX\xc9?e\xaa`TR'\xed?\xe7\xc6R\xf7\xd5q\x17@"
p1822
tp1823
bsVplate_b4e7
p1824
g19
(g20
(I0
tp1825
g22
tp1826
Rp1827
(I1
(I4
tp1828
g216
I00
S'\x14\xaeG\xe1z\x14\xf2\xbf\x14\xaeG\xe1z\x14\x00@=\n\xd7\xa3p=\xf2?\x00\x00\x00\x00\x00\x00\x00\x00'
p1829
tp1830
bsVcooker
p1831
g19
(g20
(I0
tp1832
g22
tp1833
Rp1834
(I1
(I4
tp1835
g216
I00
S'\xaeG\xe1z\x14\xae\xff?\x85\xebQ\xb8\x1e\x85\xfb?\x00\x00\x00\x00\x00\x00\xe8?\x00\x00\x00\x00\x00\x00\x00\x00'
p1836
tp1837
bsVpin_a091
p1838
g19
(g20
(I0
tp1839
g22
tp1840
Rp1841
(I1
(I4
tp1842
g216
I00
S'\xdb\xf9~j\xbct\xf7\xbf)\\\x8f\xc2\xf5(\x02@\xb8\x1e\x85\xebQ\xb8\xfa?\x00\x00\x00\x00\x00\x00\x00\x00'
p1843
tp1844
bsVside_wall_2
p1845
g19
(g20
(I0
tp1846
g22
tp1847
Rp1848
(I1
(I4
tp1849
g216
I00
S'\xfa\xff\xff\xff\xff\xff\x14@\x00\x00\x00\x00\x00\x00\x00\x00\x9c\xc4 \xb0rh\xc1?\x18-DT\xfb!\xf9?'
p1850
tp1851
bsVside_wall_3
p1852
g19
(g20
(I0
tp1853
g22
tp1854
Rp1855
(I1
(I4
tp1856
g216
I00
S'\x00\x00\x00\x00\x00\x00\xfc?H\xe1z\x14\xaeG\t@\x9c\xc4 \xb0rh\xc1?\x00\x00\x00\x00\x00\x00\x00\x00'
p1857
tp1858
bsVmixer
p1859
g19
(g20
(I0
tp1860
g22
tp1861
Rp1862
(I1
(I4
tp1863
g216
I00
S'\n\xd7\xa3p=\n\xfb?ffffff\x02@d;\xdfO\x8d\x97\xee?\x00\x00\x00\x00\x00\x00\x00\x00'
p1864
tp1865
bsVside_wall_1
p1866
g19
(g20
(I0
tp1867
g22
tp1868
Rp1869
(I1
(I4
tp1870
g216
I00
S'\xf4\xff\xff\xff\xff\xff\xfb\xbf\x00\x00\x00\x00\x00\x00\x00\x00\x9c\xc4 \xb0rh\xc1?\x18-DT\xfb!\xf9?'
p1871
tp1872
bsVbottom_wall_1
p1873
g19
(g20
(I0
tp1874
g22
tp1875
Rp1876
(I1
(I4
tp1877
g216
I00
S'H\xe1z\x14\xaeG\x12@\x80\x14\xaeG\xe1z\xc4?\xcc\x7fH\xbf}\x1d\xed?\x00\x00\x00\x00\x00\x00\x00\x00'
p1878
tp1879
bsVcan
p1880
g19
(g20
(I0
tp1881
g22
tp1882
Rp1883
(I1
(I4
tp1884
g216
I00
S'\x00\x00\x00\x00\x00\x00\xf4\xbfH\xe1z\x14\xaeG\xe1\xbf\n\xd7\xa3p=\n\xef?\x00\x00\x00\x00\x00\x00\x00\x00'
p1885
tp1886
bsVright_wall
p1887
g19
(g20
(I0
tp1888
g22
tp1889
Rp1890
(I1
(I4
tp1891
g216
I00
S'\x9a\x99\x99\x99\x99\x99\x07@H\xe1z\x14\xaeG\xff\xbf\x9c\xc4 \xb0rh\xc1?\x00\x00\x00\x00\x00\x00\x00\x00'
p1892
tp1893
bsVcoffe_machine
p1894
g19
(g20
(I0
tp1895
g22
tp1896
Rp1897
(I1
(I4
tp1898
g216
I00
S'\\\x8f\xc2\xf5(\\\xf5\xbf\xb8\x1e\x85\xebQ\xb8\xee?\n\xd7\xa3p=\n\xef?\x00\x00\x00\x00\x00\x00\x00\x00'
p1899
tp1900
bsVcomputer_chair
p1901
g19
(g20
(I0
tp1902
g22
tp1903
Rp1904
(I1
(I4
tp1905
g216
I00
S'\xcd\xcc\xcc\xcc\xcc\xcc\x10@\x00\x00\x00\x00\x00\x00\xf8\xbf\xa00\xb6\x10\xe4\xa9\x95\xbf\x00\x00\x00\x00\x00\x00\x00\x00'
p1906
tp1907
bssS'robot_dof_values'
p1908
g19
(g20
(I0
tp1909
g22
tp1910
Rp1911
(I1
(I39
tp1912
g216
I00
S'\x00\x00\x00\x00\x00\x00\x00\x00\x00\x00\x00\x00\x00\x00\x00\x00\x00\x00\x00\x00\x00\x00\x00\x00\x00\x00\x00\x00\x00\x00\x00\x00\x00\x00\x00\x00\x00\x00\x00\x00\x00\x00\x00\x00\x00\x00\x00\x00\x00\x00\x00\x00\x00\x00\x00\x00\x00\x00\x00\x00\x00\x00\x00\x00\x00\x00\x00\x00\x00\x00\x00\x00\x00\x00\x00\x00\x00\x00\x00\x00\x00\x00\x00\x00\x00\x00\x00\x00\x00\x00\x00\x00\x00\x00\x00\x00@d;\xdfO\x8d\x87?\x00\x00\x00\x00\x00\x00\x00\x00\x00\x00\x00\x00\x00\x00\x00\x00\x00\x00\x00\x00\x00\x00\x00\x00\xec\xed\t\xf1\xcc\xa4\xf4?\x00\x00\x00\x00\x00\x00\x00\x00N"\xd0^p\xf8\x00\xc0\x00\x00\x00\x00\x00\x00\x00\x00\xa0\x03\r.\x04V\xe6\xbf\x00\x00\x00\x00\x00\x00\x00\x00\x00\x00\x00\x00\x00\x00\x00\x00\x00\x00\x00\x00\x00\x80\xd8<\x00\x00\x00\x00\x00\x00\x00\x00\x00\x00\x00\x00\x00\x80\x03=\x00\x00\x00\x00\x00\x00\x00\x00\x00\x00\x00\x00\x00\x00\x00\x00\xeb\xed\t\xf1\xcc\xa4\xf4?\x00\x00\x00\x00\x00\x00\xb0\xbcN"\xd0^p\xf8\x00\xc0\x00\x00\x00\x00\x00\x00\x00\x00\xa0\x03\r.\x04V\xe6\xbf\xdcU\xe2\\I\x9f\xa3<\xcf9\xe3\xc17\x89\xe1?\x00\x00\x00\x00\x00@\xe6<\x00\x00\x00\x00\x00\x00\x00\x00\x00\x00\x00\x00\x00\x00\xfd<\x00\x00\x00\x00\x00\x00\x00\x00'
p1913
tp1914
bsS'is_holding'
p1915
I00
sbsS'holding_collides'
p1916
NsS'parent_ternary_predicates'
p1917
(dp1918
(Vrectangular_packing_box2
p1919
g1919
S'home_region'
p1920
tp1921
g736
s(Vsquare_packing_box1
p1922
S'loading_region'
p1923
g1923
tp1924
g739
s(S'entire_region'
p1925
Vrectangular_packing_box1
p1926
g1920
tp1927
g742
s(Vsquare_packing_box2
p1928
Vsquare_packing_box4
p1929
g1923
tp1930
g744
s(g1920
g1920
g1920
tp1931
g746
s(g1929
g1919
g1923
tp1932
g748
s(g1922
Vrectangular_packing_box3
p1933
g1920
tp1934
g750
s(g1928
g1922
g1920
tp1935
g754
s(g1920
g1929
g1923
tp1936
g758
s(g1928
g1925
g1920
tp1937
g760
s(g1923
g1920
g1923
tp1938
g762
s(g1929
g1925
g1920
tp1939
g766
s(g1928
g1926
g1923
tp1940
g768
s(Vsquare_packing_box3
p1941
g1923
g1920
tp1942
g770
s(g1925
g1919
g1923
tp1943
g772
s(g1920
g1925
g1920
tp1944
g774
s(g1919
g1923
g1920
tp1945
g776
s(g1922
g1922
g1923
tp1946
g780
s(g1923
g1929
g1923
tp1947
g782
s(g1925
g1928
g1920
tp1948
g786
s(g1923
g1923
g1920
tp1949
g788
s(g1920
g1920
g1923
tp1950
g792
s(g1926
g1928
g1923
tp1951
g794
s(g1919
g1929
g1920
tp1952
g796
s(g1933
g1941
g1923
tp1953
g888
s(g1941
g1920
g1920
tp1954
g1098
s(g1920
g1919
g1923
tp1955
g802
s(g1926
g1933
g1923
tp1956
g804
s(g1933
g1926
g1920
tp1957
g806
s(g1923
g1922
g1923
tp1958
g808
s(g1929
g1928
g1923
tp1959
g810
s(g1919
g1919
g1923
tp1960
g812
s(g1925
g1929
g1920
tp1961
g814
s(g1923
g1920
g1920
tp1962
g816
s(g1928
g1926
g1920
tp1963
g822
s(g1933
g1929
g1920
tp1964
g824
s(g1922
g1933
g1923
tp1965
g826
s(g1941
g1928
g1920
tp1966
g828
s(g1928
g1922
g1923
tp1967
g830
s(g1928
g1919
g1923
tp1968
g832
s(g1925
g1928
g1923
tp1969
g834
s(g1923
g1933
g1923
tp1970
g836
s(g1925
g1920
g1920
tp1971
g838
s(g1923
g1925
g1920
tp1972
g842
s(g1919
g1929
g1923
tp1973
g844
s(g1941
g1919
g1923
tp1974
g846
s(g1929
g1926
g1923
tp1975
g864
s(g1926
g1933
g1920
tp1976
g850
s(g1925
g1919
g1920
tp1977
g852
s(g1926
g1923
g1923
tp1978
g854
s(g1941
g1922
g1920
tp1979
g798
s(g1929
g1922
g1920
tp1980
g856
s(g1922
g1922
g1920
tp1981
g858
s(g1926
g1928
g1920
tp1982
g868
s(g1919
g1926
g1923
tp1983
g870
s(g1926
g1920
g1920
tp1984
g872
s(g1928
g1919
g1920
tp1985
g874
s(g1919
g1941
g1920
tp1986
g876
s(g1933
g1926
g1923
tp1987
g878
s(g1925
g1920
g1923
tp1988
g882
s(g1925
g1929
g1923
tp1989
g884
s(g1941
g1919
g1920
tp1990
g886
s(g1923
g1926
g1920
tp1991
g1086
s(g1919
g1925
g1923
tp1992
g890
s(g1926
g1923
g1920
tp1993
g892
s(g1941
g1928
g1923
tp1994
g894
s(g1941
g1926
g1923
tp1995
g896
s(g1929
g1922
g1923
tp1996
g898
s(g1920
g1933
g1923
tp1997
g900
s(g1925
g1941
g1923
tp1998
g902
s(g1923
g1933
g1920
tp1999
g904
s(g1923
g1928
g1923
tp2000
g906
s(g1919
g1926
g1920
tp2001
g908
s(g1929
g1926
g1920
tp2002
g910
s(g1923
g1941
g1920
tp2003
g912
s(g1920
g1928
g1923
tp2004
g880
s(g1941
g1925
g1920
tp2005
g778
s(g1933
g1929
g1923
tp2006
g918
s(g1941
g1941
g1920
tp2007
g848
s(g1920
g1922
g1923
tp2008
g924
s(g1933
g1923
g1923
tp2009
g926
s(g1922
g1926
g1920
tp2010
g930
s(g1919
g1925
g1920
tp2011
g932
s(g1933
g1919
g1923
tp2012
g936
s(g1941
g1926
g1920
tp2013
g938
s(g1929
g1923
g1923
tp2014
g940
s(g1928
g1920
g1920
tp2015
g942
s(g1920
g1933
g1920
tp2016
g820
s(g1923
g1926
g1923
tp2017
g948
s(g1923
g1941
g1923
tp2018
g950
s(g1922
g1941
g1920
tp2019
g952
s(g1925
g1923
g1920
tp2020
g784
s(g1922
g1926
g1923
tp2021
g956
s(g1933
g1919
g1920
tp2022
g958
s(g1919
g1928
g1920
tp2023
g960
s(g1933
g1920
g1923
tp2024
g962
s(g1929
g1923
g1920
tp2025
g964
s(g1941
g1925
g1923
tp2026
g1184
s(g1933
g1923
g1920
tp2027
g976
s(g1941
g1922
g1923
tp2028
g1034
s(g1941
g1929
g1920
tp2029
g978
s(g1928
g1923
g1923
tp2030
g982
s(g1933
g1925
g1923
tp2031
g984
s(g1928
g1920
g1923
tp2032
g986
s(g1922
g1928
g1923
tp2033
g988
s(g1941
g1920
g1923
tp2034
g992
s(g1933
g1920
g1920
tp2035
g994
s(g1926
g1926
g1920
tp2036
g998
s(g1929
g1941
g1920
tp2037
g1002
s(g1922
g1919
g1920
tp2038
g1004
s(g1922
g1941
g1923
tp2039
g1006
s(g1920
g1928
g1920
tp2040
g1010
s(g1925
g1933
g1923
tp2041
g1012
s(g1933
g1922
g1920
tp2042
g1014
s(g1926
g1925
g1920
tp2043
g1016
s(g1941
g1929
g1923
tp2044
g1018
s(g1941
g1933
g1923
tp2045
g1020
s(g1923
g1929
g1920
tp2046
g1000
s(g1920
g1941
g1923
tp2047
g946
s(g1933
g1925
g1920
tp2048
g1028
s(g1929
g1933
g1923
tp2049
g1030
s(g1919
g1928
g1923
tp2050
g1024
s(g1933
g1941
g1920
tp2051
g1190
s(g1929
g1929
g1923
tp2052
g1036
s(g1926
g1926
g1923
tp2053
g1040
s(g1922
g1929
g1923
tp2054
g1042
s(g1929
g1928
g1920
tp2055
g1044
s(g1925
g1922
g1920
tp2056
g1046
s(g1920
g1925
g1923
tp2057
g1048
s(g1920
g1926
g1923
tp2058
g1050
s(g1928
g1923
g1920
tp2059
g1052
s(g1922
g1919
g1923
tp2060
g1054
s(g1926
g1922
g1923
tp2061
g1056
s(g1925
g1933
g1920
tp2062
g1060
s(g1919
g1922
g1920
tp2063
g1032
s(g1928
g1933
g1923
tp2064
g1062
s(g1926
g1925
g1923
tp2065
g1064
s(g1922
g1928
g1920
tp2066
g1066
s(g1929
g1933
g1920
tp2067
g1072
s(g1922
g1920
g1923
tp2068
g1074
s(g1928
g1941
g1920
tp2069
g1076
s(g1926
g1941
g1920
tp2070
g954
s(g1923
g1925
g1923
tp2071
g1082
s(g1929
g1941
g1923
tp2072
g1084
s(g1925
g1925
g1923
tp2073
g1088
s(g1922
g1929
g1920
tp2074
g1092
s(g1933
g1922
g1923
tp2075
g1096
s(g1926
g1920
g1923
tp2076
g800
s(g1925
g1922
g1923
tp2077
g1100
s(g1941
g1933
g1920
tp2078
g1102
s(g1933
g1928
g1920
tp2079
g1104
s(g1919
g1922
g1923
tp2080
g1108
s(g1926
g1919
g1920
tp2081
g1110
s(g1925
g1923
g1923
tp2082
g1112
s(g1922
g1925
g1920
tp2083
g1116
s(g1928
g1941
g1923
tp2084
g1118
s(g1933
g1933
g1923
tp2085
g1058
s(g1929
g1920
g1920
tp2086
g1122
s(g1941
g1941
g1923
tp2087
g1078
s(g1923
g1919
g1923
tp2088
g1094
s(g1920
g1926
g1920
tp2089
g1130
s(g1920
g1941
g1920
tp2090
g1132
s(g1926
g1922
g1920
tp2091
g1134
s(g1919
g1941
g1923
tp2092
g914
s(g1925
g1941
g1920
tp2093
g1138
s(g1928
g1933
g1920
tp2094
g1140
s(g1928
g1928
g1923
tp2095
g1142
s(g1926
g1929
g1923
tp2096
g1144
s(g1929
g1920
g1923
tp2097
g1146
s(g1919
g1920
g1920
tp2098
g1148
s(g1922
g1920
g1920
tp2099
g1150
s(g1926
g1919
g1923
tp2100
g1152
s(g1929
g1919
g1920
tp2101
g1154
s(g1920
g1923
g1920
tp2102
g1156
s(g1925
g1925
g1920
tp2103
g1158
s(g1919
g1933
g1923
tp2104
g1160
s(g1922
g1925
g1923
tp2105
g1162
s(g1923
g1928
g1920
tp2106
g1164
s(g1923
g1919
g1920
tp2107
g1114
s(g1922
g1923
g1920
tp2108
g1170
s(g1933
g1928
g1923
tp2109
g1172
s(g1920
g1922
g1920
tp2110
g1174
s(g1925
g1926
g1923
tp2111
g1176
s(g1926
g1941
g1923
tp2112
g922
s(g1929
g1925
g1923
tp2113
g1178
s(g1928
g1928
g1920
tp2114
g1180
s(g1926
g1929
g1920
tp2115
g1182
s(g1933
g1933
g1920
tp2116
g970
s(g1920
g1929
g1920
tp2117
g1188
s(g1929
g1929
g1920
tp2118
g1194
s(g1928
g1929
g1920
tp2119
g1198
s(g1941
g1923
g1923
tp2120
g1200
s(g1920
g1919
g1920
tp2121
g1202
s(g1919
g1923
g1923
tp2122
g1204
s(g1919
g1920
g1923
tp2123
g1208
s(g1923
g1923
g1923
tp2124
g1210
s(g1928
g1925
g1923
tp2125
g1212
s(g1920
g1923
g1923
tp2126
g1216
s(g1919
g1933
g1920
tp2127
g1218
s(g1923
g1922
g1920
tp2128
g1220
ssS'cached_place_paths'
p2129
(dp2130
(g512
g737
tp2131
(lp2132
g19
(g20
(I0
tp2133
g22
tp2134
Rp2135
(I1
(I3
tp2136
g216
I00
S'\xe3\xb3\xe4\xc4\x8f8\xfa?\xb3\x87\xfe\xaa\x1d\xc9\x1a\xc0\x9cn\x9cC=\x86\xf9?'
p2137
tp2138
bas(g351
g207
tp2139
(lp2140
g19
(g20
(I0
tp2141
g22
tp2142
Rp2143
(I1
(I3
tp2144
g216
I00
S'\xa2l\x7fnD\xac\xe5?|V\x99e\xa9t\x14\xc0 \x97\xe9yVh\x13@'
p2145
tp2146
bag19
(g20
(I0
tp2147
g22
tp2148
Rp2149
(I1
(I3
tp2150
g227
I00
S'\xb5\xe3\x18\xc8\x9f\xf5\xd7?\xac\xb7\x0f\x9d\xa7\x8c\x11\xc0`\xf2\xb76\xda\xcb\xfa\xbf'
p2151
tp2152
bag19
(g20
(I0
tp2153
g22
tp2154
Rp2155
(I1
(I3
tp2156
g227
I00
S'\xceT\x9e/\xb5f\xd8?VQ\xf7\xbeD\xed\x0c\xc0:\xc1\x11<R\xda\xfb\xbf'
p2157
tp2158
bag19
(g20
(I0
tp2159
g22
tp2160
Rp2161
(I1
(I3
tp2162
g227
I00
S'(\xe0\x1c\xccxa\xe7?<\x8d\x99I\xafl\x08\xc0\xd2\xf1\x03\xe9gv\xf6\xbf'
p2163
tp2164
bag19
(g20
(I0
tp2165
g22
tp2166
Rp2167
(I1
(I3
tp2168
g227
I00
S'3\xe9\xaf\x05T\x89\xe7?+~\xcb\xd3\x15\xc7\x04\xc0x6(d5\xed\x07@'
p2169
tp2170
bas(g345
g207
tp2171
g209
s(g349
g737
tp2172
(lp2173
g19
(g20
(I0
tp2174
g22
tp2175
Rp2176
(I1
(I3
tp2177
g216
I00
S'\x0b\x8f\xa7\x80\x98j\x05@\x9e\x02\xf6\xcb.\x1e\x1d\xc0Lc\xa7\xe2@k\x16@'
p2178
tp2179
bas(g345
g737
tp2180
(lp2181
g19
(g20
(I0
tp2182
g22
tp2183
Rp2184
(I1
(I3
tp2185
g216
I00
S'\x1bY\xc9\xcc\x11\x99\n@\r\x12\x8aa\x1b\xca\x1d\xc0\xf6\x1f\xb2/\x9d\xca\x0b@'
p2186
tp2187
bas(g349
g207
tp2188
(lp2189
g19
(g20
(I0
tp2190
g22
tp2191
Rp2192
(I1
(I3
tp2193
g216
I00
S'\x10\x8f\xa7\x80\x98j\x05@\x9e\x02\xf6\xcb.\x1e\x1d\xc0Lc\xa7\xe2@k\x16@'
p2194
tp2195
bag19
(g20
(I0
tp2196
g22
tp2197
Rp2198
(I1
(I3
tp2199
g227
I00
S'\xd0F\nX\x99\x97\x00@\x820\x00\xd6\xafP\x1e\xc0V\x17\x0f\xa5\x97\r\xff\xbf'
p2200
tp2201
bag19
(g20
(I0
tp2202
g22
tp2203
Rp2204
(I1
(I3
tp2205
g227
I00
S'\x06\xbc\xc2\x02\xe5\t\xfa?\x13\x91\xe2\xd9\xb5B\x1e\xc0\xce\xd4\xdb\xc4\xdf\xb1\xf6\xbf'
p2206
tp2207
bag19
(g20
(I0
tp2208
g22
tp2209
Rp2210
(I1
(I3
tp2211
g227
I00
S'\xba)c\x05l\x93\xf4?\x8f\x0f\xa1<\xee\x05\x1c\xc0\xf9-\x16\x17\xc6`\xf8\xbf'
p2212
tp2213
bag19
(g20
(I0
tp2214
g22
tp2215
Rp2216
(I1
(I3
tp2217
g227
I00
S'\xb0\xcfg\xd5._\xe8?\xd6\x8d\xba\x87\x91D\x1a\xc0\xea!\xf73\x0cB\xf7\xbf'
p2218
tp2219
bag19
(g20
(I0
tp2220
g22
tp2221
Rp2222
(I1
(I3
tp2223
g227
I00
S'j\x1e\x80\xdd\x0f\xcc\xcc?\xb3\xd8X\xd3%~\x18\xc0\x90\xda\xcf7y\xd5\xe6\xbf'
p2224
tp2225
bag19
(g20
(I0
tp2226
g22
tp2227
Rp2228
(I1
(I3
tp2229
g227
I00
S'\xe4\x02R\xd9\x08\x8c\xc7?2\xc1\xd4;\xf6\xf3\x15\xc0>\x8c\x8fa?0\xd8?'
p2230
tp2231
bag19
(g20
(I0
tp2232
g22
tp2233
Rp2234
(I1
(I3
tp2235
g227
I00
S'\xcc\x87!\x1f\xfb\x05\xe6?\x14;\x08\xf1<\xc6\x13\xc0V!\xac1j\x94\xc8?'
p2236
tp2237
bag19
(g20
(I0
tp2238
g22
tp2239
Rp2240
(I1
(I3
tp2241
g227
I00
S'`\xc8Aw-\x81\xeb?/\xc3\xe6O\x04\xca\x10\xc0\x8a\xb7K)\x91{\xe4\xbf'
p2242
tp2243
bag19
(g20
(I0
tp2244
g22
tp2245
Rp2246
(I1
(I3
tp2247
g227
I00
S'\xe1\xc6\xc7\xa7\x12X\xe7?\x98\x99\xb0\x9a\xfb\xdb\x0b\xc0R\t\x1b)\xeae\xe0\xbf'
p2248
tp2249
bag19
(g20
(I0
tp2250
g22
tp2251
Rp2252
(I1
(I3
tp2253
g227
I00
S'p\xf1\xbdc^\x84\xf1?"\x88LL\xf9D\x06\xc0~w\r\xe9m\x0f\x19@'
p2254
tp2255
bas(g348
g737
tp2256
(lp2257
g19
(g20
(I0
tp2258
g22
tp2259
Rp2260
(I1
(I3
tp2261
g216
I00
S'\xc1D@\x1cPn\x0e@=\x1a-\xc8\x9b(\x1a\xc0\x0b\xdd\xaf\x13\t\xaa\xfb?'
p2262
tp2263
bas(g348
g207
tp2264
(lp2265
g19
(g20
(I0
tp2266
g22
tp2267
Rp2268
(I1
(I3
tp2269
g216
I00
S'\xbeD@\x1cPn\x0e@=\x1a-\xc8\x9b(\x1a\xc0\n\xdd\xaf\x13\t\xaa\xfb?'
p2270
tp2271
bag19
(g20
(I0
tp2272
g22
tp2273
Rp2274
(I1
(I3
tp2275
g227
I00
S'\xd3s\x0b\xfa\xdf\xd9\x08@\xc52\xb7\xa7\x86L\x1b\xc0\xca\xe2\x95Rh\xea\xf6?'
p2276
tp2277
bag19
(g20
(I0
tp2278
g22
tp2279
Rp2280
(I1
(I3
tp2281
g227
I00
S'0\xf2\xd6\x9e\xed\xca\x04@\xdc>\xfd\x07B\x8f\x1d\xc0\xe2\xaf5\x16\xb4\x0c\xda?'
p2282
tp2283
bag19
(g20
(I0
tp2284
g22
tp2285
Rp2286
(I1
(I3
tp2287
g227
I00
S'\xb9O\xa7Y\x02\x91\x00@\x96d\x95\x0e\xe6\xda\x1e\xc0l\xef\x8e\x11Rk\xeb?'
p2288
tp2289
bag19
(g20
(I0
tp2290
g22
tp2291
Rp2292
(I1
(I3
tp2293
g227
I00
S'\xad\xa0\xdfFH\xe9\xf6?\xa3\xfc\x14D\x8bb\x1d\xc0\x9e2hH\xc0\xe5\xf0?'
p2294
tp2295
bag19
(g20
(I0
tp2296
g22
tp2297
Rp2298
(I1
(I3
tp2299
g227
I00
S'\xaf3:\xca\x05\xfa\xee?\x17\xfeO1BH\x1c\xc0&\xc3FV\xf0\xcb\xf7?'
p2300
tp2301
bag19
(g20
(I0
tp2302
g22
tp2303
Rp2304
(I1
(I3
tp2305
g227
I00
S'\x00{\xeeM\xfb\x06\xd8?\xa7W\x1e\xc1\xa5F\x1b\xc0\xd0\xcaV\x8a\x88D\xf6?'
p2306
tp2307
bag19
(g20
(I0
tp2308
g22
tp2309
Rp2310
(I1
(I3
tp2311
g227
I00
S'T]\x0c\x0e\xd89\xda?\xf4\x992\x11%\\\x18\xc0\x95\x7f\x10B\xb1)\xe3?'
p2312
tp2313
bag19
(g20
(I0
tp2314
g22
tp2315
Rp2316
(I1
(I3
tp2317
g227
I00
S'\xe4\x02R\xd9\x08\x8c\xc7?2\xc1\xd4;\xf6\xf3\x15\xc0>\x8c\x8fa?0\xd8?'
p2318
tp2319
bag19
(g20
(I0
tp2320
g22
tp2321
Rp2322
(I1
(I3
tp2323
g227
I00
S'\xcc\x87!\x1f\xfb\x05\xe6?\x14;\x08\xf1<\xc6\x13\xc0V!\xac1j\x94\xc8?'
p2324
tp2325
bag19
(g20
(I0
tp2326
g22
tp2327
Rp2328
(I1
(I3
tp2329
g227
I00
S'`\xc8Aw-\x81\xeb?/\xc3\xe6O\x04\xca\x10\xc0\x8a\xb7K)\x91{\xe4\xbf'
p2330
tp2331
bag19
(g20
(I0
tp2332
g22
tp2333
Rp2334
(I1
(I3
tp2335
g227
I00
S'\xe1\xc6\xc7\xa7\x12X\xe7?\x98\x99\xb0\x9a\xfb\xdb\x0b\xc0R\t\x1b)\xeae\xe0\xbf'
p2336
tp2337
bag19
(g20
(I0
tp2338
g22
tp2339
Rp2340
(I1
(I3
tp2341
g227
I00
S'p\xf1\xbdc^\x84\xf1?"\x88LL\xf9D\x06\xc0~w\r\xe9m\x0f\x19@'
p2342
tp2343
bas(g350
g207
tp2344
(lp2345
g19
(g20
(I0
tp2346
g22
tp2347
Rp2348
(I1
(I3
tp2349
g216
I00
S'>\xb0\x90)g\xcd\x06@nOn1\xd8M\x16\xc0\xf2}\xbc\xa0\xbdm\xa6?'
p2350
tp2351
bag19
(g20
(I0
tp2352
g22
tp2353
Rp2354
(I1
(I3
tp2355
g227
I00
S'\x00O\xfd4U\xed\x06@>#>\xa9c\x95\x18\xc0\xeb\xe4n\xb8\x98\xa5\xc9\xbf'
p2356
tp2357
bag19
(g20
(I0
tp2358
g22
tp2359
Rp2360
(I1
(I3
tp2361
g227
I00
S'\x9a\x9e\xdc\x13\r\n\n@\xf1\xbcp\x07u\xf1\x1a\xc0\xd2JG\xa3\xec%\xd4\xbf'
p2362
tp2363
bag19
(g20
(I0
tp2364
g22
tp2365
Rp2366
(I1
(I3
tp2367
g227
I00
S'\x80\xbc\xa4f\x96M\x06@\x9bs*uUR\x1d\xc04!\xe3\x9bv-\xda\xbf'
p2368
tp2369
bag19
(g20
(I0
tp2370
g22
tp2371
Rp2372
(I1
(I3
tp2373
g227
I00
S'\xfb\xa7\xa0\x03\xca\x8c\x02@:+\xa9\x1c>\x86\x1d\xc0\x8e\x98\xf2\x0f\xf7(\xee\xbf'
p2374
tp2375
bag19
(g20
(I0
tp2376
g22
tp2377
Rp2378
(I1
(I3
tp2379
g227
I00
S'\x06\xbc\xc2\x02\xe5\t\xfa?\x13\x91\xe2\xd9\xb5B\x1e\xc0\xce\xd4\xdb\xc4\xdf\xb1\xf6\xbf'
p2380
tp2381
bag19
(g20
(I0
tp2382
g22
tp2383
Rp2384
(I1
(I3
tp2385
g227
I00
S'\xba)c\x05l\x93\xf4?\x8f\x0f\xa1<\xee\x05\x1c\xc0\xf9-\x16\x17\xc6`\xf8\xbf'
p2386
tp2387
bag19
(g20
(I0
tp2388
g22
tp2389
Rp2390
(I1
(I3
tp2391
g227
I00
S'\xb0\xcfg\xd5._\xe8?\xd6\x8d\xba\x87\x91D\x1a\xc0\xea!\xf73\x0cB\xf7\xbf'
p2392
tp2393
bag19
(g20
(I0
tp2394
g22
tp2395
Rp2396
(I1
(I3
tp2397
g227
I00
S'j\x1e\x80\xdd\x0f\xcc\xcc?\xb3\xd8X\xd3%~\x18\xc0\x90\xda\xcf7y\xd5\xe6\xbf'
p2398
tp2399
bag19
(g20
(I0
tp2400
g22
tp2401
Rp2402
(I1
(I3
tp2403
g227
I00
S'\xe4\x02R\xd9\x08\x8c\xc7?2\xc1\xd4;\xf6\xf3\x15\xc0>\x8c\x8fa?0\xd8?'
p2404
tp2405
bag19
(g20
(I0
tp2406
g22
tp2407
Rp2408
(I1
(I3
tp2409
g227
I00
S'\xcc\x87!\x1f\xfb\x05\xe6?\x14;\x08\xf1<\xc6\x13\xc0V!\xac1j\x94\xc8?'
p2410
tp2411
bag19
(g20
(I0
tp2412
g22
tp2413
Rp2414
(I1
(I3
tp2415
g227
I00
S'`\xc8Aw-\x81\xeb?/\xc3\xe6O\x04\xca\x10\xc0\x8a\xb7K)\x91{\xe4\xbf'
p2416
tp2417
bag19
(g20
(I0
tp2418
g22
tp2419
Rp2420
(I1
(I3
tp2421
g227
I00
S'\xe1\xc6\xc7\xa7\x12X\xe7?\x98\x99\xb0\x9a\xfb\xdb\x0b\xc0R\t\x1b)\xeae\xe0\xbf'
p2422
tp2423
bag19
(g20
(I0
tp2424
g22
tp2425
Rp2426
(I1
(I3
tp2427
g227
I00
S'p\xf1\xbdc^\x84\xf1?"\x88LL\xf9D\x06\xc0~w\r\xe9m\x0f\x19@'
p2428
tp2429
bas(g347
g207
tp2430
(lp2431
g19
(g20
(I0
tp2432
g22
tp2433
Rp2434
(I1
(I3
tp2435
g216
I00
S'\xd0Z\x82\x08\x1a)\xe8?\x9c\xc4\xf5o\t\xa7\x1e\xc0\xd60\x90\xbc\xce-\x05@'
p2436
tp2437
bag19
(g20
(I0
tp2438
g22
tp2439
Rp2440
(I1
(I3
tp2441
g227
I00
S"f'\x1d)\\\x10\xe6?I\x87\x7f\xab\xf9\x9f\x1b\xc0\x90\xd8HX\xe5\x0e\x04@"
p2442
tp2443
bag19
(g20
(I0
tp2444
g22
tp2445
Rp2446
(I1
(I3
tp2447
g227
I00
S'\xc0T\xe2\x97\xaf3h\xbfv\xa30\xd5\xeb\xd1\x1a\xc0\x8a\rz\xc6\xa6z\x04@'
p2448
tp2449
bag19
(g20
(I0
tp2450
g22
tp2451
Rp2452
(I1
(I3
tp2453
g227
I00
S'\x0c\x8b\xaa\xe9\xe8%\xb0\xbf\xf7\x05\x80\xfb=|\x18\xc0X\xd6!\xf5\xa2\x12\x07@'
p2454
tp2455
bag19
(g20
(I0
tp2456
g22
tp2457
Rp2458
(I1
(I3
tp2459
g227
I00
S'\xe4\x02R\xd9\x08\x8c\xc7?2\xc1\xd4;\xf6\xf3\x15\xc0>\x8c\x8fa?0\xd8?'
p2460
tp2461
bag19
(g20
(I0
tp2462
g22
tp2463
Rp2464
(I1
(I3
tp2465
g227
I00
S'\xcc\x87!\x1f\xfb\x05\xe6?\x14;\x08\xf1<\xc6\x13\xc0V!\xac1j\x94\xc8?'
p2466
tp2467
bag19
(g20
(I0
tp2468
g22
tp2469
Rp2470
(I1
(I3
tp2471
g227
I00
S'`\xc8Aw-\x81\xeb?/\xc3\xe6O\x04\xca\x10\xc0\x8a\xb7K)\x91{\xe4\xbf'
p2472
tp2473
bag19
(g20
(I0
tp2474
g22
tp2475
Rp2476
(I1
(I3
tp2477
g227
I00
S'\xe1\xc6\xc7\xa7\x12X\xe7?\x98\x99\xb0\x9a\xfb\xdb\x0b\xc0R\t\x1b)\xeae\xe0\xbf'
p2478
tp2479
bag19
(g20
(I0
tp2480
g22
tp2481
Rp2482
(I1
(I3
tp2483
g227
I00
S'p\xf1\xbdc^\x84\xf1?"\x88LL\xf9D\x06\xc0~w\r\xe9m\x0f\x19@'
p2484
tp2485
bas(g347
g737
tp2486
(lp2487
g19
(g20
(I0
tp2488
g22
tp2489
Rp2490
(I1
(I3
tp2491
g216
I00
S'\xe4Z\x82\x08\x1a)\xe8?\xa0\xc4\xf5o\t\xa7\x1e\xc0\xd60\x90\xbc\xce-\x05@'
p2492
tp2493
bas(g351
g737
tp2494
(lp2495
g19
(g20
(I0
tp2496
g22
tp2497
Rp2498
(I1
(I3
tp2499
g216
I00
S'\xb9l\x7fnD\xac\xe5?|V\x99e\xa9t\x14\xc0 \x97\xe9yVh\x13@'
p2500
tp2501
bas(g350
g737
tp2502
(lp2503
g19
(g20
(I0
tp2504
g22
tp2505
Rp2506
(I1
(I3
tp2507
g216
I00
S'=\xb0\x90)g\xcd\x06@oOn1\xd8M\x16\xc0\xcd|\xbc\xa0\xbdm\xa6?'
p2508
tp2509
bas(g346
g737
tp2510
(lp2511
g19
(g20
(I0
tp2512
g22
tp2513
Rp2514
(I1
(I3
tp2515
g216
I00
S'S\n\xaedR\xb9\x06@|\x02\x88\xad\xe9y\x18\xc0\xc4s\x01\xdf\x05\xeb\x0b@'
p2516
tp2517
bas(g346
g207
tp2518
(lp2519
g19
(g20
(I0
tp2520
g22
tp2521
Rp2522
(I1
(I3
tp2523
g216
I00
S'f\n\xaedR\xb9\x06@\x82\x02\x88\xad\xe9y\x18\xc0\xc4s\x01\xdf\x05\xeb\x0b@'
p2524
tp2525
bag19
(g20
(I0
tp2526
g22
tp2527
Rp2528
(I1
(I3
tp2529
g227
I00
S'\xe8\x81y:#O\t@W\xfe\xf6\x1e\x16\xa2\x1a\xc0\x92%c\x11\x9c\x0e\x06@'
p2530
tp2531
bag19
(g20
(I0
tp2532
g22
tp2533
Rp2534
(I1
(I3
tp2535
g227
I00
S'~\xb5g\xe2\xce"\x06@\xde\xf4\xbc@Ne\x1d\xc0\xca\x97\xa7\xf7\x9d\x1e\n@'
p2536
tp2537
bag19
(g20
(I0
tp2538
g22
tp2539
Rp2540
(I1
(I3
tp2541
g227
I00
S'V<\xdb\x99-b\x02@s\xd3@:\x7fA\x1e\xc0\xbf\x94H\xa7$\xf0\xff?'
p2542
tp2543
bag19
(g20
(I0
tp2544
g22
tp2545
Rp2546
(I1
(I3
tp2547
g227
I00
S'T\x93\x9d\x1f\xdb\x8b\x00@h\xc33f\x19N\x1f\xc0\n\x0b9\x98\xdd\xa0\xf7?'
p2548
tp2549
bag19
(g20
(I0
tp2550
g22
tp2551
Rp2552
(I1
(I3
tp2553
g227
I00
S'\xa4\xc8\xcc\x88S\x9f\xf6?N\xeaYik!\x1e\xc0\x00W\xeas\x1a)\xfa?'
p2554
tp2555
bag19
(g20
(I0
tp2556
g22
tp2557
Rp2558
(I1
(I3
tp2559
g227
I00
S'\xaf3:\xca\x05\xfa\xee?\x17\xfeO1BH\x1c\xc0&\xc3FV\xf0\xcb\xf7?'
p2560
tp2561
bag19
(g20
(I0
tp2562
g22
tp2563
Rp2564
(I1
(I3
tp2565
g227
I00
S'\x00{\xeeM\xfb\x06\xd8?\xa7W\x1e\xc1\xa5F\x1b\xc0\xd0\xcaV\x8a\x88D\xf6?'
p2566
tp2567
bag19
(g20
(I0
tp2568
g22
tp2569
Rp2570
(I1
(I3
tp2571
g227
I00
S'T]\x0c\x0e\xd89\xda?\xf4\x992\x11%\\\x18\xc0\x95\x7f\x10B\xb1)\xe3?'
p2572
tp2573
bag19
(g20
(I0
tp2574
g22
tp2575
Rp2576
(I1
(I3
tp2577
g227
I00
S'\xe4\x02R\xd9\x08\x8c\xc7?2\xc1\xd4;\xf6\xf3\x15\xc0>\x8c\x8fa?0\xd8?'
p2578
tp2579
bag19
(g20
(I0
tp2580
g22
tp2581
Rp2582
(I1
(I3
tp2583
g227
I00
S'\xcc\x87!\x1f\xfb\x05\xe6?\x14;\x08\xf1<\xc6\x13\xc0V!\xac1j\x94\xc8?'
p2584
tp2585
bag19
(g20
(I0
tp2586
g22
tp2587
Rp2588
(I1
(I3
tp2589
g227
I00
S'`\xc8Aw-\x81\xeb?/\xc3\xe6O\x04\xca\x10\xc0\x8a\xb7K)\x91{\xe4\xbf'
p2590
tp2591
bag19
(g20
(I0
tp2592
g22
tp2593
Rp2594
(I1
(I3
tp2595
g227
I00
S'\xe1\xc6\xc7\xa7\x12X\xe7?\x98\x99\xb0\x9a\xfb\xdb\x0b\xc0R\t\x1b)\xeae\xe0\xbf'
p2596
tp2597
bag19
(g20
(I0
tp2598
g22
tp2599
Rp2600
(I1
(I3
tp2601
g227
I00
S'p\xf1\xbdc^\x84\xf1?"\x88LL\xf9D\x06\xc0~w\r\xe9m\x0f\x19@'
p2602
tp2603
bas(g512
g207
tp2604
g282
ssS'parent_binary_predicates'
p2605
(dp2606
(g1928
g1929
tp2607
(lp2608
I00
aI00
aI00
as(g1933
g1933
tp2609
(lp2610
I00
aI00
aI00
as(g1933
g1941
tp2611
(lp2612
I00
aI00
aI00
as(g1919
g1941
tp2613
(lp2614
I00
aI00
aI00
as(g1920
g1919
tp2615
(lp2616
I00
aI00
aI00
as(g1929
g1919
tp2617
(lp2618
I00
aI00
aI00
as(g1928
g1922
tp2619
(lp2620
I00
aI00
aI00
as(g1926
g1933
tp2621
(lp2622
I00
aI01
aI00
as(g1919
g1923
tp2623
(lp2624
g1314
(g26
(S'b1'
p2625
I0
I1
tp2626
Rp2627
(I3
S'|'
p2628
NNNI-1
I-1
I0
tp2629
bS'\x01'
p2630
tp2631
Rp2632
aI00
aI01
as(g1926
g1941
tp2633
(lp2634
I00
aI00
aI00
as(g1923
g1929
tp2635
(lp2636
I00
aI00
aI00
as(g1922
g1920
tp2637
(lp2638
I00
aI00
aI00
as(g1925
g1919
tp2639
(lp2640
I00
aI00
aI00
as(g1919
g1929
tp2641
(lp2642
I00
aI00
aI00
as(g1933
g1925
tp2643
(lp2644
g2632
aI00
aI00
as(g1928
g1928
tp2645
(lp2646
I00
aI00
aI00
as(g1923
g1928
tp2647
(lp2648
I00
aI00
aI00
as(g1941
g1919
tp2649
(lp2650
I00
aI00
aI00
as(g1919
g1920
tp2651
(lp2652
I00
aI00
aI00
as(g1925
g1923
tp2653
(lp2654
I00
aI00
aI00
as(g1922
g1922
tp2655
(lp2656
I00
aI00
aI00
as(g1919
g1925
tp2657
(lp2658
g2632
aI00
aI00
as(g1923
g1941
tp2659
(lp2660
I00
aI00
aI00
as(g1919
g1928
tp2661
(lp2662
I00
aI00
aI00
as(g1923
g1933
tp2663
(lp2664
I00
aI00
aI00
as(g1941
g1920
tp2665
(lp2666
I00
aI00
aI00
as(g1941
g1926
tp2667
(lp2668
I00
aI00
aI00
as(g1925
g1920
tp2669
(lp2670
I00
aI00
aI00
as(g1922
g1919
tp2671
(lp2672
I00
aI00
aI00
as(g1925
g1941
tp2673
(lp2674
I00
aI00
aI00
as(g1941
g1925
tp2675
(lp2676
g2632
aI00
aI00
as(g1933
g1928
tp2677
(lp2678
I00
aI00
aI00
as(g1929
g1922
tp2679
(lp2680
I00
aI00
aI00
as(g1933
g1919
tp2681
(lp2682
I00
aI00
aI00
as(g1929
g1920
tp2683
(lp2684
I00
aI00
aI01
as(g1925
g1925
tp2685
(lp2686
I00
aI00
aI00
as(g1919
g1933
tp2687
(lp2688
I00
aI00
aI00
as(g1922
g1928
tp2689
(lp2690
I00
aI00
aI00
as(g1920
g1922
tp2691
(lp2692
I00
aI00
aI00
as(g1926
g1923
tp2693
(lp2694
g2632
aI00
aI01
as(g1920
g1926
tp2695
(lp2696
I00
aI00
aI00
as(g1929
g1933
tp2697
(lp2698
I00
aI01
aI00
as(g1933
g1922
tp2699
(lp2700
I00
aI00
aI00
as(g1941
g1923
tp2701
(lp2702
g2632
aI00
aI01
as(g1933
g1926
tp2703
(lp2704
I00
aI00
aI00
as(g1941
g1941
tp2705
(lp2706
I00
aI00
aI00
as(g1926
g1919
tp2707
(lp2708
I00
aI00
aI00
as(g1923
g1920
tp2709
(lp2710
I00
aI00
aI00
as(g1920
g1928
tp2711
(lp2712
I00
aI00
aI00
as(g1925
g1926
tp2713
(lp2714
I00
aI00
aI00
as(g1920
g1929
tp2715
(lp2716
I00
aI00
aI00
as(g1928
g1941
tp2717
(lp2718
I00
aI00
aI00
as(g1926
g1925
tp2719
(lp2720
g2632
aI00
aI00
as(g1929
g1923
tp2721
(lp2722
g2632
aI00
aI01
as(g1926
g1928
tp2723
(lp2724
I00
aI00
aI00
as(g1925
g1929
tp2725
(lp2726
I00
aI00
aI00
as(g1923
g1919
tp2727
(lp2728
I00
aI00
aI00
as(g1926
g1920
tp2729
(lp2730
I00
aI00
aI00
as(g1928
g1926
tp2731
(lp2732
I00
aI00
aI00
as(g1922
g1926
tp2733
(lp2734
I00
aI00
aI00
as(g1923
g1923
tp2735
(lp2736
I00
aI00
aI00
as(g1922
g1941
tp2737
(lp2738
I00
aI00
aI00
as(g1923
g1922
tp2739
(lp2740
I00
aI00
aI00
as(g1923
g1926
tp2741
(lp2742
I00
aI00
aI00
as(g1922
g1925
tp2743
(lp2744
g2632
aI00
aI00
as(g1928
g1919
tp2745
(lp2746
I00
aI00
aI00
as(g1920
g1933
tp2747
(lp2748
I00
aI00
aI00
as(g1919
g1922
tp2749
(lp2750
I00
aI00
aI00
as(g1925
g1928
tp2751
(lp2752
I00
aI00
aI00
as(g1919
g1926
tp2753
(lp2754
I00
aI01
aI00
as(g1941
g1928
tp2755
(lp2756
I00
aI00
aI00
as(g1928
g1923
tp2757
(lp2758
g2632
aI00
aI01
as(g1926
g1926
tp2759
(lp2760
I00
aI00
aI00
as(g1929
g1928
tp2761
(lp2762
I00
aI00
aI00
as(g1941
g1922
tp2763
(lp2764
I00
aI00
aI00
as(g1922
g1929
tp2765
(lp2766
I00
aI00
aI00
as(g1920
g1941
tp2767
(lp2768
I00
aI00
aI00
as(g1919
g1919
tp2769
(lp2770
I00
aI00
aI00
as(g1929
g1926
tp2771
(lp2772
I00
aI01
aI00
as(g1928
g1920
tp2773
(lp2774
I00
aI00
aI00
as(g1933
g1920
tp2775
(lp2776
I00
aI00
aI00
as(g1933
g1923
tp2777
(lp2778
g2632
aI00
aI01
as(g1926
g1922
tp2779
(lp2780
I00
aI00
aI00
as(g1920
g1923
tp2781
(lp2782
I00
aI00
aI00
as(g1933
g1929
tp2783
(lp2784
I00
aI00
aI00
as(g1925
g1933
tp2785
(lp2786
I00
aI00
aI00
as(g1928
g1925
tp2787
(lp2788
g2632
aI00
aI00
as(g1941
g1933
tp2789
(lp2790
I00
aI00
aI00
as(g1920
g1920
tp2791
(lp2792
I00
aI00
aI00
as(g1926
g1929
tp2793
(lp2794
I00
aI01
aI00
as(g1929
g1925
tp2795
(lp2796
g2632
aI00
aI00
as(g1920
g1925
tp2797
(lp2798
I00
aI00
aI00
as(g1941
g1929
tp2799
(lp2800
I00
aI00
aI00
as(g1929
g1941
tp2801
(lp2802
I00
aI00
aI00
as(g1928
g1933
tp2803
(lp2804
I00
aI00
aI00
as(g1923
g1925
tp2805
(lp2806
I00
aI00
aI00
as(g1922
g1933
tp2807
(lp2808
I00
aI00
aI00
as(g1929
g1929
tp2809
(lp2810
I00
aI00
aI00
as(g1922
g1923
tp2811
(lp2812
g2632
aI00
aI01
as(g1925
g1922
tp2813
(lp2814
I00
aI00
aI00
assS'nodes'
p2815
(dp2816
g740
(lp2817
I0
aI0
aI0
aI0
aI0
aI0
aI00
aI01
aI00
aI01
aI00
asg737
(lp2818
I0
aI0
aI0
aI0
aI0
aI0
aI00
aI01
aI00
aI01
aI00
asg207
(lp2819
I0
aI0
aI0
aI0
aI0
aI0
aI00
aI01
aI01
aI01
aI00
asg206
(lp2820
I0
aI0
aI0
ag1314
(g216
S'\xfc\xa6o\xdb\xd8\x19\x06@'
p2821
tp2822
Rp2823
ag1314
(g216
S'\x8c\xd2\xd0\xa0\xd4% \xc0'
p2824
tp2825
Rp2826
ag1314
(g216
S'\x9e\xe8\xeb\x17A\x1e\x0e@'
p2827
tp2828
Rp2829
aI01
aI00
aI00
aI01
aI00
asg723
(lp2830
I0
aI0
aI0
ag1314
(g216
S'x#\x8a\xa8\xbfB\x02@'
p2831
tp2832
Rp2833
ag1314
(g216
S']@\xdd\xaa0\xf7\x1a\xc0'
p2834
tp2835
Rp2836
ag1314
(g216
S'\xa2\x93\xe4\xf2\xe3\x8f\xe0?'
p2837
tp2838
Rp2839
aI01
aI00
aI00
aI01
aI00
asg719
(lp2840
I0
aI0
aI0
ag1314
(g216
S'\x00\x9f$/\t\xb1\xb0?'
p2841
tp2842
Rp2843
ag1314
(g216
S'Z\xd9\xd7\x88y7\x1e\xc0'
p2844
tp2845
Rp2846
ag1314
(g216
S'\xa1\xa8\xa4gcb\x12@'
p2847
tp2848
Rp2849
aI01
aI00
aI00
aI01
aI00
asg280
(lp2850
I0
aI0
aI0
ag1314
(g216
S'\xf61, \xdaJ\xf5?'
p2851
tp2852
Rp2853
ag1314
(g216
S'\x8d\x94\xc7_\x9e4\x18\xc0'
p2854
tp2855
Rp2856
ag1314
(g216
S'\x88,&\x8ck,\x0b@'
p2857
tp2858
Rp2859
aI01
aI00
aI00
aI00
aI00
asg721
(lp2860
I0
aI0
aI0
ag1314
(g216
S'\xb3\x99\x7f<\xad\xb4\r@'
p2861
tp2862
Rp2863
ag1314
(g216
S'\xd8\xe5\x95\xe8\xfc\xf0\x16\xc0'
p2864
tp2865
Rp2866
ag1314
(g216
S'Y\x96n\x9e\xe7\t\x19@'
p2867
tp2868
Rp2869
aI01
aI00
aI00
aI01
aI00
asg717
(lp2870
I0
aI0
aI0
ag1314
(g216
S'\x87\x10,\xddP\xfa\x0e@'
p2871
tp2872
Rp2873
ag1314
(g216
S'\x99\xb0Ic\x04\xde\x1e\xc0'
p2874
tp2875
Rp2876
ag1314
(g216
S'\x82\x04\xd2\xef\xb5O\n@'
p2877
tp2878
Rp2879
aI01
aI00
aI00
aI01
aI00
asg725
(lp2880
I0
aI0
aI0
ag1314
(g216
S'N\xcf\x19\xc3\xf23\x0c@'
p2881
tp2882
Rp2883
ag1314
(g216
S'\xa4\xb5r\xad\x0f?\x15\xc0'
p2884
tp2885
Rp2886
ag1314
(g216
S'\xbf~a\xe9h\n\x13@'
p2887
tp2888
Rp2889
aI01
aI00
aI01
aI01
aI00
asg727
(lp2890
I0
aI0
aI0
ag1314
(g216
S'@\xce\xcef\xfe\xbb\xf0?'
p2891
tp2892
Rp2893
ag1314
(g216
S'#@\xfc\xa1\x9e\xc0\x16\xc0'
p2894
tp2895
Rp2896
ag1314
(g216
S'\xaeKe\x14U\xf8\x13@'
p2897
tp2898
Rp2899
aI01
aI00
aI00
aI01
aI00
assS'mc_place_path'
p2900
(dp2901
sS'parent_state'
p2902
(itrajectory_representation.shortest_path_pick_and_place_state
ShortestPathPaPState
p2903
(dp2904
g2
(dp2905
(Vrectangular_packing_box1
p2906
S'loading_region'
p2907
tp2908
(itrajectory_representation.operator
Operator
p2909
(dp2910
g9
I01
sg10
(dp2911
S'region'
p2912
g2907
sg594
g2906
ssg14
S'two_arm_place'
p2913
sg16
(dp2914
g598
g19
(g20
(I0
tp2915
g22
tp2916
Rp2917
(I1
(I3
tp2918
g605
I00
S'\x80\x89]\x1f\xdd\x05\xf8?`\xfdt\x81+\xad\x1d\xc0|b\x17%S\x91\xd4\xbf'
p2919
tp2920
bssg34
(lp2921
g19
(g20
(I0
tp2922
g22
tp2923
Rp2924
(I1
(I3
tp2925
g605
I00
S'\x18\xb4\xe4\xc4\x8f8\xfa?\xb4\x87\xfe\xaa\x1d\xc9\x1a\xc0\x9dn\x9cC=\x86\xf9?'
p2926
tp2927
bag19
(g20
(I0
tp2928
g22
tp2929
Rp2930
(I1
(I3
tp2931
g26
(S'f8'
p2932
I0
I1
tp2933
Rp2934
(I3
S'<'
p2935
NNNI-1
I-1
I0
tp2936
bI00
S'\xad\xa0\xdfFH\xe9\xf6?\xa3\xfc\x14D\x8bb\x1d\xc0\x9e2hH\xc0\xe5\xf0?'
p2937
tp2938
bag19
(g20
(I0
tp2939
g22
tp2940
Rp2941
(I1
(I3
tp2942
g2934
I00
S'\tAsXx\r\x00@F^\x05/\xfdK\x1d\xc0~\xbbB\x0f\xbe\xe6\xd2?'
p2943
tp2944
bag2917
ag2917
asbs(Vsquare_packing_box3
p2945
g2907
tp2946
(itrajectory_representation.operator
Operator
p2947
(dp2948
g9
I01
sg10
(dp2949
g2912
g2907
sg594
g2945
ssg14
g2913
sg16
(dp2950
g598
g19
(g20
(I0
tp2951
g22
tp2952
Rp2953
(I1
(I3
tp2954
g605
I00
S'\x03\xd8\xb2\xb0\xf3\x01\x0c@G\xad\xdc\xca\xb1\x89\x1c\xc0\xff\x8e\xc1\xf2\xea\x94\xf5\xbf'
p2955
tp2956
bssg34
(lp2957
g19
(g20
(I0
tp2958
g22
tp2959
Rp2960
(I1
(I3
tp2961
g605
I00
S'\xcc\x8e\xa7\x80\x98j\x05@\xb3\x02\xf6\xcb.\x1e\x1d\xc0\x80N\xe6\x8c\xd3\xb5\xe5\xbf'
p2962
tp2963
bag19
(g20
(I0
tp2964
g22
tp2965
Rp2966
(I1
(I3
tp2967
g2934
I00
S';\x94\xb3\x9e!v\x07@\xeeQ\x93*@\xfa\x1c\xc0\xfd|\x9b\xb9"Y\x18@'
p2968
tp2969
bag19
(g20
(I0
tp2970
g22
tp2971
Rp2972
(I1
(I3
tp2973
g2934
I00
S'S\xb5\xd0\x1cl\xf0\x0c@>\x04.\xd9\xd9\xa1\x1c\xc0|\x85\x1fUEk\xf8\xbf'
p2974
tp2975
bag2953
ag2953
asbs(Vrectangular_packing_box4
p2976
g2907
tp2977
(itrajectory_representation.operator
Operator
p2978
(dp2979
g9
I01
sg10
(dp2980
g2912
g2907
sg594
g2976
ssg14
g2913
sg16
(dp2981
g598
g19
(g20
(I0
tp2982
g22
tp2983
Rp2984
(I1
(I3
tp2985
g605
I00
S'\x1b\x1dt\xe3&\x98\x02@\xf7\x8f\xd3\xf9k\xd3\x1d\xc0\xb1\xe0"-\xb3\x9b\xf6\xbf'
p2986
tp2987
bssg34
(lp2988
g19
(g20
(I0
tp2989
g22
tp2990
Rp2991
(I1
(I3
tp2992
g605
I00
S'\xb0\x02+\xb8\x18d\xe7?"\x86\xe2\xa7w\xdd\x1a\xc09N\nE\xf2\xcc\xfb?'
p2993
tp2994
bag19
(g20
(I0
tp2995
g22
tp2996
Rp2997
(I1
(I3
tp2998
g2934
I00
S'*4\xc9\xb1\x13|\xf5?=~n\xf8\xb0\xf9\x1b\xc0\x97\x8e\x14L\xfds\x01@'
p2999
tp3000
bag19
(g20
(I0
tp3001
g22
tp3002
Rp3003
(I1
(I3
tp3004
g2934
I00
S'zT\r\xfe&\xfe\xfd?~,i\xf5\xe3\x9c\x1d\xc0\xe2\x1a4?SB\x15@'
p3005
tp3006
bag2984
ag2984
asbs(Vsquare_packing_box4
p3007
g2907
tp3008
(itrajectory_representation.operator
Operator
p3009
(dp3010
g9
I01
sg10
(dp3011
g2912
g2907
sg594
g3007
ssg14
g2913
sg16
(dp3012
g598
g19
(g20
(I0
tp3013
g22
tp3014
Rp3015
(I1
(I3
tp3016
g605
I00
S'\x08P\xf5\xf0\xa9\x8c\xff?\xfa\x0c\x1bC\xde\xf7\x1f\xc0\xa3#!?\xb6k\x07@'
p3017
tp3018
bssg34
(lp3019
g19
(g20
(I0
tp3020
g22
tp3021
Rp3022
(I1
(I3
tp3023
g605
I00
S'hl\x7fnD\xac\xe5?|V\x99e\xa9t\x14\xc0\xe2Wji\x93\xe6\xf6\xbf'
p3024
tp3025
bag19
(g20
(I0
tp3026
g22
tp3027
Rp3028
(I1
(I3
tp3029
g2934
I00
S'\xac\xb4\xd5\x83\xbb\xf9\xe0?\xe1\x80\xe9+%\xe6\x16\xc0<\xd6N\xab\x06\xcc\xf7\xbf'
p3030
tp3031
bag19
(g20
(I0
tp3032
g22
tp3033
Rp3034
(I1
(I3
tp3035
g2934
I00
S'\xfe\xcb\x95>\x9aG\xe1?\xc8?\x9f\xd9\xb8\xe7\x19\xc0\xdb\x1a;\xf0\x837\xfe?'
p3036
tp3037
bag19
(g20
(I0
tp3038
g22
tp3039
Rp3040
(I1
(I3
tp3041
g2934
I00
S'\xaf3:\xca\x05\xfa\xee?\x17\xfeO1BH\x1c\xc0&\xc3FV\xf0\xcb\xf7?'
p3042
tp3043
bag19
(g20
(I0
tp3044
g22
tp3045
Rp3046
(I1
(I3
tp3047
g2934
I00
S'S@\xf8l\x95\x08\xf8?\xef\x91If\xa4L\x1e\xc0\x8b\xc5pa\xf4C\x04\xc0'
p3048
tp3049
bag3015
ag3015
asbs(Vsquare_packing_box1
p3050
S'home_region'
p3051
tp3052
(itrajectory_representation.operator
Operator
p3053
(dp3054
g9
I01
sg10
(dp3055
g2912
g3051
sg594
g3050
ssg14
g2913
sg16
(dp3056
g598
g19
(g20
(I0
tp3057
g22
tp3058
Rp3059
(I1
(I3
tp3060
g605
I00
S'h\xcf\x9b\xcbmu\xe8?~\xf7\xef\xb9&\xe9\xfd\xbf\xfeZ#@\x82\xd7\xf9\xbf'
p3061
tp3062
bssg34
(lp3063
g19
(g20
(I0
tp3064
g22
tp3065
Rp3066
(I1
(I3
tp3067
g605
I00
S'8\xb0\x90)g\xcd\x06@dOn1\xd8M\x16\xc0\xb2}\xbc\xa0\xbdm\xa6?'
p3068
tp3069
bag19
(g20
(I0
tp3070
g22
tp3071
Rp3072
(I1
(I3
tp3073
g2934
I00
S'\xfe\xe8\x18\xb9\x80t\x02@\xc8\xc9\x8bB\xfe\x86\x16\xc0\x19\xcf\xcc\xc3%!\x9e\xbf'
p3074
tp3075
bag19
(g20
(I0
tp3076
g22
tp3077
Rp3078
(I1
(I3
tp3079
g2934
I00
S'\x00\xda\x1c<\xfd\xdc\x00@j"\x91\xe3 \x1a\x18\xc0i~!@)\xb0\xdc\xbf'
p3080
tp3081
bag19
(g20
(I0
tp3082
g22
tp3083
Rp3084
(I1
(I3
tp3085
g2934
I00
S'v%D\x97w\xd1\xf7?Z\xadP\x90\x08<\x17\xc0-\xca\x8a\t\xe2p\xe7\xbf'
p3086
tp3087
bag19
(g20
(I0
tp3088
g22
tp3089
Rp3090
(I1
(I3
tp3091
g2934
I00
S'tx\x8as\xa8b\xed?\x9ej\x15\xfa\xf0{\x15\xc0@\xed\x9a-\x9eD\xf2\xbf'
p3092
tp3093
bag19
(g20
(I0
tp3094
g22
tp3095
Rp3096
(I1
(I3
tp3097
g2934
I00
S'l[\xc4\x16<\xe6\xe9?\xa6\xa0\x90\x84X\x9f\x13\xc0\xc2\xd74Q\x00\xaf\xff\xbf'
p3098
tp3099
bag19
(g20
(I0
tp3100
g22
tp3101
Rp3102
(I1
(I3
tp3103
g2934
I00
S"\xaeJ\xbd\x1936\xec?\x04\x13\xd4'\x9f\x88\x10\xc0\x805qo\xb6\xe6\xff\xbf"
p3104
tp3105
bag19
(g20
(I0
tp3106
g22
tp3107
Rp3108
(I1
(I3
tp3109
g2934
I00
S'\xf09\xb6\x1c*\x86\xee?\xc4\n/\x96\xcb\xe3\n\xc0\xa0\xc9\xd6F6\x0f\x00\xc0'
p3110
tp3111
bag19
(g20
(I0
tp3112
g22
tp3113
Rp3114
(I1
(I3
tp3115
g2934
I00
S'\x99\x94\xd7\x8f\x10k\xf0?\x7f\xef\xb5\xdcX\xb6\x04\xc0~\xf8\xf4U\x11+\x00\xc0'
p3116
tp3117
bag3059
ag3059
asbs(Vrectangular_packing_box2
p3118
g2907
tp3119
(itrajectory_representation.operator
Operator
p3120
(dp3121
g9
I01
sg10
(dp3122
g2912
g2907
sg594
g3118
ssg14
g2913
sg16
(dp3123
g598
g19
(g20
(I0
tp3124
g22
tp3125
Rp3126
(I1
(I3
tp3127
g605
I00
S'\xa4\x06\xac\xc2\xe2\xa3\x06@\xe4\x1a\xba\xe4 \x0e\x17\xc0\xdd\x1e\x15\x0e\x0cj\xf5\xbf'
p3128
tp3129
bssg34
(lp3130
g19
(g20
(I0
tp3131
g22
tp3132
Rp3133
(I1
(I3
tp3134
g605
I00
S'\x1a\n\xaedR\xb9\x06@Z\x02\x88\xad\xe9y\x18\xc0\xc3s\x01\xdf\x05\xeb\x0b@'
p3135
tp3136
bag19
(g20
(I0
tp3137
g22
tp3138
Rp3139
(I1
(I3
tp3140
g2934
I00
S'\xcb\x1a\x84\x1d\\\x9c\x08@\xec\xcbi\xc9#;\x18\xc0\xbf\xf24g\x02T\x05@'
p3141
tp3142
bag19
(g20
(I0
tp3143
g22
tp3144
Rp3145
(I1
(I3
tp3146
g2934
I00
S'P\x9d\xdf\x99\xa6e\x04@\x1c`\xb6c\x8e7\x19\xc0@\xf2\xef\xc5\xd3\xc8\x17@'
p3147
tp3148
bag3126
ag3126
asbssg201
(itrajectory_representation.predicates.place_in_way
PlaceInWay
p3149
(dp3150
g715
(dp3151
(g1926
g1919
g1920
tp3152
I01
s(g1928
g1919
g1920
tp3153
I00
s(g1919
g1941
g1920
tp3154
I00
s(Vrectangular_packing_box4
p3155
g1928
g1920
tp3156
I00
s(g1941
g1922
g1920
tp3157
I00
s(g1922
g1933
g1920
tp3158
I00
s(g1941
g1919
g1920
tp3159
I01
s(g3155
g1929
g1920
tp3160
I01
s(g1928
g1922
g1920
tp3161
I01
s(g1926
g1922
g1920
tp3162
I00
s(g1926
g3155
g1920
tp3163
I01
s(g1933
g3155
g1920
tp3164
I01
s(g3155
g1941
g1920
tp3165
I00
s(g1922
g1919
g1920
tp3166
I00
s(g1941
g1929
g1920
tp3167
I01
s(g1919
g1926
g1920
tp3168
I01
s(g1933
g1922
g1920
tp3169
I00
s(g3155
g1926
g1920
tp3170
I01
s(g1919
g1922
g1920
tp3171
I00
s(g1928
g1933
g1920
tp3172
I00
s(g1919
g1929
g1920
tp3173
I01
s(g1919
g1933
g1920
tp3174
I00
s(g1922
g1926
g1920
tp3175
I01
s(g1928
g1929
g1920
tp3176
I01
s(g1933
g1926
g1920
tp3177
I01
s(g1941
g1926
g1920
tp3178
I01
s(g3155
g1919
g1920
tp3179
I00
s(g1926
g1929
g1920
tp3180
I01
s(g1928
g1926
g1920
tp3181
I01
s(g1928
g1941
g1920
tp3182
I00
s(g1928
g3155
g1920
tp3183
I00
s(g1941
g1928
g1920
tp3184
I00
s(g1922
g1928
g1920
tp3185
I00
s(g1919
g3155
g1920
tp3186
I01
s(g1933
g1941
g1920
tp3187
I00
s(g1922
g1941
g1920
tp3188
I00
s(g1933
g1929
g1920
tp3189
I01
s(g3155
g1933
g1920
tp3190
I00
s(g1926
g1941
g1920
tp3191
I00
s(g1926
g1933
g1920
tp3192
I00
s(g1933
g1919
g1920
tp3193
I00
s(g1919
g1928
g1920
tp3194
I00
s(g3155
g1922
g1920
tp3195
I00
s(g1922
g1929
g1920
tp3196
I01
s(g1922
g3155
g1920
tp3197
I00
s(g1941
g1933
g1920
tp3198
I00
s(g1933
g1928
g1920
tp3199
I00
s(g1941
g3155
g1920
tp3200
I00
s(g1926
g1928
g1920
tp3201
I00
ssg204
(dp3202
(g1933
g1920
tp3203
(lp3204
g19
(g20
(I0
tp3205
g22
tp3206
Rp3207
(I1
(I3
tp3208
g475
I00
S'\xd4Z\x82\x08\x1a)\xe8?\x9d\xc4\xf5o\t\xa7\x1e\xc0\xd60\x90\xbc\xce-\x05@'
p3209
tp3210
bag19
(g20
(I0
tp3211
g22
tp3212
Rp3213
(I1
(I3
tp3214
g26
(S'f8'
p3215
I0
I1
tp3216
Rp3217
(I3
S'<'
p3218
NNNI-1
I-1
I0
tp3219
bI00
S'\x0c\x0f=\x82\xe8\x10\xef?\x95;\xd2\x17&\xe7\x1b\xc0\xf2\xbb\xbd\xb4q\x0b\t@'
p3220
tp3221
bag19
(g20
(I0
tp3222
g22
tp3223
Rp3224
(I1
(I3
tp3225
g3217
I00
S'\xae\xea\x9e\xa3\xa2\xb1\xed?\xa4\xca\x1d?h\x96\x19\xc0dq\xdf\xb1\x9d\xe4\x05@'
p3226
tp3227
bag19
(g20
(I0
tp3228
g22
tp3229
Rp3230
(I1
(I3
tp3231
g3217
I00
S'o\xd6\x82\xea\x7f\xb2\xed?9\xf2C\x0b?\xfd\x16\xc0(?d\xe9@\xb5\x02@'
p3232
tp3233
bag19
(g20
(I0
tp3234
g22
tp3235
Rp3236
(I1
(I3
tp3237
g3217
I00
S'&>c9\x01,\xeb?\xb2\xc2\xf0\x02\xce\x8e\x14\xc0\xd8p\xbb2\x14\xd2\x03@'
p3238
tp3239
bag19
(g20
(I0
tp3240
g22
tp3241
Rp3242
(I1
(I3
tp3243
g3217
I00
S'\xc6\x05\xbdtg\xd9\xe2?F\xdf\x9d@\\\xf3\x11\xc0\x1a\xc4.\xbb\xcc\x12\x02@'
p3244
tp3245
bag19
(g20
(I0
tp3246
g22
tp3247
Rp3248
(I1
(I3
tp3249
g3217
I00
S'3z\xed\x8eN)\xe4?\x0c\x96\xd4\xa2\x0e\xd0\r\xc0\xbd%\xf5{\xe9\xf9\x03@'
p3250
tp3251
bag19
(g20
(I0
tp3252
g22
tp3253
Rp3254
(I1
(I3
tp3255
g3217
I00
S'\xaf0\xe9h\xba~\xee?k\xbb\xd8\xd4\xd0g\t\xc09\x9ey\xed\xb06\x06@'
p3256
tp3257
bag19
(g20
(I0
tp3258
g22
tp3259
Rp3260
(I1
(I3
tp3261
g3217
I00
S'\xf4\xfdJ\x1a(#\xec?H"\x9cD\x1aE\x05\xc0.\xa9\x0b\x87\xf8\xe1\x02@'
p3262
tp3263
bas(g3155
g1920
tp3264
(lp3265
g19
(g20
(I0
tp3266
g22
tp3267
Rp3268
(I1
(I3
tp3269
g475
I00
S'\x88\x02+\xb8\x18d\xe7?/\x86\xe2\xa7w\xdd\x1a\xc04N\nE\xf2\xcc\xfb?'
p3270
tp3271
bag19
(g20
(I0
tp3272
g22
tp3273
Rp3274
(I1
(I3
tp3275
g3217
I00
S'B\x9aa8\x98\xa6\xe8?\xf3\xe9\x94/\xc2\xe4\x18\xc0u\xf8\xb0\x7fO\xb8\xf2?'
p3276
tp3277
bag19
(g20
(I0
tp3278
g22
tp3279
Rp3280
(I1
(I3
tp3281
g3217
I00
S'\xd8\x87\x03p)T\xe4?\xd5\xabI\xb7V\xd0\x15\xc0vWg\x9a\x87\x8a\xec?'
p3282
tp3283
bag19
(g20
(I0
tp3284
g22
tp3285
Rp3286
(I1
(I3
tp3287
g3217
I00
S'\xa9\xd9\x1d\x8d\xa6j\xdf?\xa0\x85\x1a\x84\xc6\xec\x12\xc0\x01\xb6 H\xb1\x91\xeb?'
p3288
tp3289
bag19
(g20
(I0
tp3290
g22
tp3291
Rp3292
(I1
(I3
tp3293
g3217
I00
S'\x93k\xbc\xee\xc2\x10\xe8?\xab^\x86?\x08D\x10\xc0\x10;2\x00\xe5\t\xde?'
p3294
tp3295
bag19
(g20
(I0
tp3296
g22
tp3297
Rp3298
(I1
(I3
tp3299
g3217
I00
S'\xef\xc3u*\xfb\xdb\xeb?\x8d\xa5\n\xfd\x03<\n\xc0\xd8\xfb\xde\x16R\xac\xde?'
p3300
tp3301
bag19
(g20
(I0
tp3302
g22
tp3303
Rp3304
(I1
(I3
tp3305
g3217
I00
S'\xf4\xfdJ\x1a(#\xec?H"\x9cD\x1aE\x05\xc0.\xa9\x0b\x87\xf8\xe1\x02@'
p3306
tp3307
bas(g1922
g1920
tp3308
(lp3309
g19
(g20
(I0
tp3310
g22
tp3311
Rp3312
(I1
(I3
tp3313
g475
I00
S'<\xb0\x90)g\xcd\x06@nOn1\xd8M\x16\xc0\xda}\xbc\xa0\xbdm\xa6?'
p3314
tp3315
bag19
(g20
(I0
tp3316
g22
tp3317
Rp3318
(I1
(I3
tp3319
g3217
I00
S'\x19\xdbXU\x9c\xa8\x04@\xe6\xf1\xeb\xae\xcb\x05\x18\xc0\xce\x9cp\x98\xaf*\xeb?'
p3320
tp3321
bag19
(g20
(I0
tp3322
g22
tp3323
Rp3324
(I1
(I3
tp3325
g3217
I00
S'\xe0 ;\x819w\xfd?\xe7\xcc\xc2\xa0\xa5f\x17\xc04\xedq\x1c\x8eK\xfa?'
p3326
tp3327
bag19
(g20
(I0
tp3328
g22
tp3329
Rp3330
(I1
(I3
tp3331
g3217
I00
S'\x85\\2\xba\x0b5\xf5?I\r\x06\xd10\xfb\x15\xc0\x9e\x11\xee\xd8\xb9\xd7\xf5?'
p3332
tp3333
bag19
(g20
(I0
tp3334
g22
tp3335
Rp3336
(I1
(I3
tp3337
g3217
I00
S'v\xb8^\x85\xa7[\xea?x\xbe\xff2t\x8d\x13\xc0\x88\x85\x8cCyH\xf6?'
p3338
tp3339
bag19
(g20
(I0
tp3340
g22
tp3341
Rp3342
(I1
(I3
tp3343
g3217
I00
S'\xc2\xda(e\x83\x1a\xeb?\x8au\x8d3\xa6E\x11\xc0\xb4c\x1b\xed_\xfd\xfa?'
p3344
tp3345
bag19
(g20
(I0
tp3346
g22
tp3347
Rp3348
(I1
(I3
tp3349
g3217
I00
S'\xe4u**\x0e5\xe9?\xaa\xfd\r\xed\xc4\xf6\r\xc0\x0fDE0\x1f\x0b\xfe?'
p3350
tp3351
bag19
(g20
(I0
tp3352
g22
tp3353
Rp3354
(I1
(I3
tp3355
g3217
I00
S'\x06\x11,\xef\x98O\xe7??\x10\x01s=b\t\xc04\x92\xb79o\x8c\x00@'
p3356
tp3357
bag19
(g20
(I0
tp3358
g22
tp3359
Rp3360
(I1
(I3
tp3361
g3217
I00
S'\x92\xaf\xf3P\x96O\xc2?(\xa1:\x8er}\x05\xc0\xd4_\x91\xb3\xffL\x02@'
p3362
tp3363
bas(g1928
g1920
tp3364
(lp3365
g19
(g20
(I0
tp3366
g22
tp3367
Rp3368
(I1
(I3
tp3369
g475
I00
S'\xbcD@\x1cPn\x0e@8\x1a-\xc8\x9b(\x1a\xc0\t\xdd\xaf\x13\t\xaa\xfb?'
p3370
tp3371
bag19
(g20
(I0
tp3372
g22
tp3373
Rp3374
(I1
(I3
tp3375
g3217
I00
S'g\x886\x82\xe7\x9e\t@\x81\x00+\xe8\xfe$\x19\xc0m@m\xfd\x93\x06\xf2?'
p3376
tp3377
bag19
(g20
(I0
tp3378
g22
tp3379
Rp3380
(I1
(I3
tp3381
g3217
I00
S'\x19\xdbXU\x9c\xa8\x04@\xe6\xf1\xeb\xae\xcb\x05\x18\xc0\xce\x9cp\x98\xaf*\xeb?'
p3382
tp3383
bag19
(g20
(I0
tp3384
g22
tp3385
Rp3386
(I1
(I3
tp3387
g3217
I00
S'/\xe1\x02^.|\x00@\xb8\xae\xc5\xcfF\x16\x17\xc0\xf8\x01)d\xc5\xf9\xe2?'
p3388
tp3389
bag19
(g20
(I0
tp3390
g22
tp3391
Rp3392
(I1
(I3
tp3393
g3217
I00
S'\x85\\2\xba\x0b5\xf5?I\r\x06\xd10\xfb\x15\xc0\x9e\x11\xee\xd8\xb9\xd7\xf5?'
p3394
tp3395
bag19
(g20
(I0
tp3396
g22
tp3397
Rp3398
(I1
(I3
tp3399
g3217
I00
S'v\xb8^\x85\xa7[\xea?x\xbe\xff2t\x8d\x13\xc0\x88\x85\x8cCyH\xf6?'
p3400
tp3401
bag19
(g20
(I0
tp3402
g22
tp3403
Rp3404
(I1
(I3
tp3405
g3217
I00
S'\xc2\xda(e\x83\x1a\xeb?\x8au\x8d3\xa6E\x11\xc0\xb4c\x1b\xed_\xfd\xfa?'
p3406
tp3407
bag19
(g20
(I0
tp3408
g22
tp3409
Rp3410
(I1
(I3
tp3411
g3217
I00
S'\xe4u**\x0e5\xe9?\xaa\xfd\r\xed\xc4\xf6\r\xc0\x0fDE0\x1f\x0b\xfe?'
p3412
tp3413
bag19
(g20
(I0
tp3414
g22
tp3415
Rp3416
(I1
(I3
tp3417
g3217
I00
S'\x06\x11,\xef\x98O\xe7??\x10\x01s=b\t\xc04\x92\xb79o\x8c\x00@'
p3418
tp3419
bag19
(g20
(I0
tp3420
g22
tp3421
Rp3422
(I1
(I3
tp3423
g3217
I00
S'\x92\xaf\xf3P\x96O\xc2?(\xa1:\x8er}\x05\xc0\xd4_\x91\xb3\xffL\x02@'
p3424
tp3425
bas(g1926
g1920
tp3426
(lp3427
g19
(g20
(I0
tp3428
g22
tp3429
Rp3430
(I1
(I3
tp3431
g475
I00
S'\xf8\xb3\xe4\xc4\x8f8\xfa?\xb2\x87\xfe\xaa\x1d\xc9\x1a\xc0\x9an\x9cC=\x86\xf9?'
p3432
tp3433
bag19
(g20
(I0
tp3434
g22
tp3435
Rp3436
(I1
(I3
tp3437
g3217
I00
S'{\xe7\xcc\xce\x02,\xf5?\xeb\x85\xf2\xb4\xc9\x08\x19\xc0\xcd\x97\xf6\xcc\xe4z\x00@'
p3438
tp3439
bag19
(g20
(I0
tp3440
g22
tp3441
Rp3442
(I1
(I3
tp3443
g3217
I00
S'o\xd6\x82\xea\x7f\xb2\xed?9\xf2C\x0b?\xfd\x16\xc0(?d\xe9@\xb5\x02@'
p3444
tp3445
bag19
(g20
(I0
tp3446
g22
tp3447
Rp3448
(I1
(I3
tp3449
g3217
I00
S'&>c9\x01,\xeb?\xb2\xc2\xf0\x02\xce\x8e\x14\xc0\xd8p\xbb2\x14\xd2\x03@'
p3450
tp3451
bag19
(g20
(I0
tp3452
g22
tp3453
Rp3454
(I1
(I3
tp3455
g3217
I00
S'\xc6\x05\xbdtg\xd9\xe2?F\xdf\x9d@\\\xf3\x11\xc0\x1a\xc4.\xbb\xcc\x12\x02@'
p3456
tp3457
bag19
(g20
(I0
tp3458
g22
tp3459
Rp3460
(I1
(I3
tp3461
g3217
I00
S'3z\xed\x8eN)\xe4?\x0c\x96\xd4\xa2\x0e\xd0\r\xc0\xbd%\xf5{\xe9\xf9\x03@'
p3462
tp3463
bag19
(g20
(I0
tp3464
g22
tp3465
Rp3466
(I1
(I3
tp3467
g3217
I00
S'\xaf0\xe9h\xba~\xee?k\xbb\xd8\xd4\xd0g\t\xc09\x9ey\xed\xb06\x06@'
p3468
tp3469
bag19
(g20
(I0
tp3470
g22
tp3471
Rp3472
(I1
(I3
tp3473
g3217
I00
S'\xf4\xfdJ\x1a(#\xec?H"\x9cD\x1aE\x05\xc0.\xa9\x0b\x87\xf8\xe1\x02@'
p3474
tp3475
bas(g1941
g1920
tp3476
(lp3477
g19
(g20
(I0
tp3478
g22
tp3479
Rp3480
(I1
(I3
tp3481
g475
I00
S'\x10\x8f\xa7\x80\x98j\x05@\x9d\x02\xf6\xcb.\x1e\x1d\xc0Lc\xa7\xe2@k\x16@'
p3482
tp3483
bag19
(g20
(I0
tp3484
g22
tp3485
Rp3486
(I1
(I3
tp3487
g3217
I00
S'\tf\xd5\xc3\xdb\xc1\x02@y9\xac\xaa\x85r\x1a\xc0n\x19\xc0\xf8c\xa8\xe2\xbf'
p3488
tp3489
bag19
(g20
(I0
tp3490
g22
tp3491
Rp3492
(I1
(I3
tp3493
g3217
I00
S'\x00\xda\x1c<\xfd\xdc\x00@j"\x91\xe3 \x1a\x18\xc0i~!@)\xb0\xdc\xbf'
p3494
tp3495
bag19
(g20
(I0
tp3496
g22
tp3497
Rp3498
(I1
(I3
tp3499
g3217
I00
S'v%D\x97w\xd1\xf7?Z\xadP\x90\x08<\x17\xc0-\xca\x8a\t\xe2p\xe7\xbf'
p3500
tp3501
bag19
(g20
(I0
tp3502
g22
tp3503
Rp3504
(I1
(I3
tp3505
g3217
I00
S'tx\x8as\xa8b\xed?\x9ej\x15\xfa\xf0{\x15\xc0@\xed\x9a-\x9eD\xf2\xbf'
p3506
tp3507
bag19
(g20
(I0
tp3508
g22
tp3509
Rp3510
(I1
(I3
tp3511
g3217
I00
S'\xb0E\xbb;Cb\xeb?\x9e\xde\xa7\xdd\xbdd\x12\xc0\xc6\xee\xbd\x16\x8c\xaa\xf3\xbf'
p3512
tp3513
bag19
(g20
(I0
tp3514
g22
tp3515
Rp3516
(I1
(I3
tp3517
g3217
I00
S'`\xc8Aw-\x81\xeb?/\xc3\xe6O\x04\xca\x10\xc0\x8a\xb7K)\x91{\xe4\xbf'
p3518
tp3519
bag19
(g20
(I0
tp3520
g22
tp3521
Rp3522
(I1
(I3
tp3523
g3217
I00
S'\xe1\xc6\xc7\xa7\x12X\xe7?\x98\x99\xb0\x9a\xfb\xdb\x0b\xc0R\t\x1b)\xeae\xe0\xbf'
p3524
tp3525
bag19
(g20
(I0
tp3526
g22
tp3527
Rp3528
(I1
(I3
tp3529
g3217
I00
S'p\xf1\xbdc^\x84\xf1?"\x88LL\xf9D\x06\xc0~w\r\xe9m\x0f\x19@'
p3530
tp3531
bas(g1919
g1920
tp3532
(lp3533
g19
(g20
(I0
tp3534
g22
tp3535
Rp3536
(I1
(I3
tp3537
g475
I00
S'[\n\xaedR\xb9\x06@\x7f\x02\x88\xad\xe9y\x18\xc0\xc4s\x01\xdf\x05\xeb\x0b@'
p3538
tp3539
bag19
(g20
(I0
tp3540
g22
tp3541
Rp3542
(I1
(I3
tp3543
g3217
I00
S'\xe2>s\xda\xb3\xca\x03@\xe7\x8al\x18\x05\xe1\x15\xc0}\xfd7\xe9\xe3n\x0b@'
p3544
tp3545
bag19
(g20
(I0
tp3546
g22
tp3547
Rp3548
(I1
(I3
tp3549
g3217
I00
S'\xc7\xc7\x06s\xd6\xa3\xff?3\x91\xe4\x97\xb5\x07\x16\xc0\x1bW\xbc\xbfY:\x06@'
p3550
tp3551
bag19
(g20
(I0
tp3552
g22
tp3553
Rp3554
(I1
(I3
tp3555
g3217
I00
S'\x84\xa2s4\xa1\xd0\xf6?E=|\xb9\xcam\x17\xc0\xa93^V\xfc\xed\x05@'
p3556
tp3557
bag19
(g20
(I0
tp3558
g22
tp3559
Rp3560
(I1
(I3
tp3561
g3217
I00
S'f\xb4\x9c\x07\xac\xbf\xec?n\x96\x96\x9e\x90n\x16\xc0uo!\xa9\x9b\x82\x07@'
p3562
tp3563
bag19
(g20
(I0
tp3564
g22
tp3565
Rp3566
(I1
(I3
tp3567
g3217
I00
S'm\xd5h\x072\x03\xea?\xdf\xe5\xe82\xd3\x17\x14\xc0\x08\x9e\xe1\xfbO\x94\x08@'
p3568
tp3569
bag19
(g20
(I0
tp3570
g22
tp3571
Rp3572
(I1
(I3
tp3573
g3217
I00
S'\x97\xff-a\x91r\xf0?\x1a\x15\xfe\xb9:\x1b\x12\xc0\nG\xfe\xfa~y\x05@'
p3574
tp3575
bag19
(g20
(I0
tp3576
g22
tp3577
Rp3578
(I1
(I3
tp3579
g3217
I00
S'y\xd4\xbc{`\x0b\xf2?\xb0C6m\xb7\xd6\x0e\xc0\xe8\xe2r\xbe\x16{\xf5?'
p3580
tp3581
bag19
(g20
(I0
tp3582
g22
tp3583
Rp3584
(I1
(I3
tp3585
g3217
I00
S'\xd1\xaa\x15!\x8c\x06\xed?\x8c\xab\xab^w\xe3\t\xc0~&\xcc\xa2\xcbw\xf6?'
p3586
tp3587
bag19
(g20
(I0
tp3588
g22
tp3589
Rp3590
(I1
(I3
tp3591
g3217
I00
S'3\xe9\xaf\x05T\x89\xe7?+~\xcb\xd3\x15\xc7\x04\xc0x6(d5\xed\x07@'
p3592
tp3593
bassg331
(dp3594
(g1933
g1920
tp3595
(lp3596
Vrectangular_packing_box1
p3597
aVrectangular_packing_box4
p3598
aVsquare_packing_box4
p3599
as(g3155
g1920
tp3600
(lp3601
Vrectangular_packing_box1
p3602
aVsquare_packing_box4
p3603
as(g1922
g1920
tp3604
(lp3605
Vrectangular_packing_box1
p3606
aVsquare_packing_box4
p3607
as(g1928
g1920
tp3608
(lp3609
Vsquare_packing_box1
p3610
aVrectangular_packing_box1
p3611
aVsquare_packing_box4
p3612
as(g1926
g1920
tp3613
(lp3614
Vrectangular_packing_box2
p3615
aVsquare_packing_box4
p3616
aVrectangular_packing_box4
p3617
as(g1941
g1920
tp3618
(lp3619
Vrectangular_packing_box2
p3620
aVrectangular_packing_box1
p3621
aVsquare_packing_box4
p3622
as(g1919
g1920
tp3623
(lp3624
Vrectangular_packing_box1
p3625
aVsquare_packing_box4
p3626
aVrectangular_packing_box4
p3627
assg343
(lp3628
Vrectangular_packing_box2
p3629
aVsquare_packing_box2
p3630
ag595
aVsquare_packing_box1
p3631
asg352
(dp3632
Vrectangular_packing_box4
p3633
g355
((lp3634
I107
aI132
aI517
aI6
aI137
aI138
aI139
aI276
aI152
aI153
aI154
aI157
aI417
aI34
aI547
aI165
aI166
aI424
aI553
aI456
aI521
aI196
aI198
aI584
aI518
aI459
aI338
aI84
aI349
aI350
aI351
aI362
aI491
aI108
aI503
aI249
aI252
aI383
atp3635
Rp3636
sVrectangular_packing_box2
p3637
g362
sVrectangular_packing_box3
p3638
g366
sVrectangular_packing_box1
p3639
g370
sVsquare_packing_box2
p3640
g374
sVsquare_packing_box3
p3641
g355
((lp3642
I513
aI386
aI260
aI269
aI270
aI405
aI280
aI436
aI565
aI440
aI573
aI193
aI68
aI210
aI339
aI340
aI213
aI479
aI354
aI613
aI614
aI111
aI112
aI113
aI211
aI245
aI375
aI212
aI381
aI254
aI255
atp3643
Rp3644
sVsquare_packing_box1
p3645
g382
sVsquare_packing_box4
p3646
g386
ssg2
g2905
sg387
(dp3647
Vrectangular_packing_box4
p3648
(itrajectory_representation.operator
Operator
p3649
(dp3650
g9
I01
sg10
(dp3651
g594
g3648
ssg14
g596
sg16
(dp3652
g598
g19
(g20
(I0
tp3653
g22
tp3654
Rp3655
(I1
(I3
tp3656
g605
I00
S'\x83\x02+\xb8\x18d\xe7?0\x86\xe2\xa7w\xdd\x1a\xc04N\nE\xf2\xcc\xfb?'
p3657
tp3658
bssg34
(lp3659
g19
(g20
(I0
tp3660
g22
tp3661
Rp3662
(I1
(I3
tp3663
g475
I00
S'dR\xdd8\xd6\x8d\x00@\xc0C|\xd2X\x00\x16\xc0\xc1\xab\x9e\x0b\x900\xd2?'
p3664
tp3665
bag19
(g20
(I0
tp3666
g22
tp3667
Rp3668
(I1
(I3
tp3669
g3217
I00
S'\x12\xfe\xe1\x95\xb8\x19\xf8?\x8c#.~\xd7\xc6\x16\xc0\xfe\xd3A\xf0\xcat\xc0\xbf'
p3670
tp3671
bag19
(g20
(I0
tp3672
g22
tp3673
Rp3674
(I1
(I3
tp3675
g3217
I00
S'{\xe7\xcc\xce\x02,\xf5?\xeb\x85\xf2\xb4\xc9\x08\x19\xc0\xcd\x97\xf6\xcc\xe4z\x00@'
p3676
tp3677
bag3655
asbsg3629
(itrajectory_representation.operator
Operator
p3678
(dp3679
g9
I01
sg10
(dp3680
g594
g3629
ssg14
g596
sg16
(dp3681
g598
g19
(g20
(I0
tp3682
g22
tp3683
Rp3684
(I1
(I3
tp3685
g605
I00
S']\n\xaedR\xb9\x06@\x7f\x02\x88\xad\xe9y\x18\xc0l\xe6\x86\xc9\xf0X\x06\xc0'
p3686
tp3687
bssg34
(lp3688
g19
(g20
(I0
tp3689
g22
tp3690
Rp3691
(I1
(I3
tp3692
g475
I00
S'dR\xdd8\xd6\x8d\x00@\xc0C|\xd2X\x00\x16\xc0\xc1\xab\x9e\x0b\x900\xd2?'
p3693
tp3694
bag19
(g20
(I0
tp3695
g22
tp3696
Rp3697
(I1
(I3
tp3698
g3217
I00
S'\x16\x9e\xd06H\xd3\x04@\xe5\xe1\xfb\xc5\xb8\xd1\x16\xc0es\x86\x03\xdb\x8e\x17@'
p3699
tp3700
bag19
(g20
(I0
tp3701
g22
tp3702
Rp3703
(I1
(I3
tp3704
g3217
I00
S'\x7f\xf7\x8e\x1f\xfbq\x06@\x05\xa9\xa4M\x80 \x16\xc0\x85\x00\n\x0c\x80\xee\n\xc0'
p3705
tp3706
bag3684
asbsVrectangular_packing_box3
p3707
g460
sVrectangular_packing_box1
p3708
(itrajectory_representation.operator
Operator
p3709
(dp3710
g9
I01
sg10
(dp3711
g594
g3708
ssg14
g596
sg16
(dp3712
g598
g19
(g20
(I0
tp3713
g22
tp3714
Rp3715
(I1
(I3
tp3716
g605
I00
S'\xf8\xb3\xe4\xc4\x8f8\xfa?\xb4\x87\xfe\xaa\x1d\xc9\x1a\xc0\x9an\x9cC=\x86\xf9?'
p3717
tp3718
bssg34
(lp3719
g19
(g20
(I0
tp3720
g22
tp3721
Rp3722
(I1
(I3
tp3723
g475
I00
S'dR\xdd8\xd6\x8d\x00@\xc0C|\xd2X\x00\x16\xc0\xc1\xab\x9e\x0b\x900\xd2?'
p3724
tp3725
bag19
(g20
(I0
tp3726
g22
tp3727
Rp3728
(I1
(I3
tp3729
g3217
I00
S'\x00\xda\x1c<\xfd\xdc\x00@j"\x91\xe3 \x1a\x18\xc0i~!@)\xb0\xdc\xbf'
p3730
tp3731
bag19
(g20
(I0
tp3732
g22
tp3733
Rp3734
(I1
(I3
tp3735
g3217
I00
S'j\xc7\xc0&\x8ag\xf6?h\x9cH4\x7f\xab\x18\xc0\xd8|\x1d\xfc\xcbV\xf2?'
p3736
tp3737
bag3715
asbsg3630
g542
sg595
g591
sg3631
(itrajectory_representation.operator
Operator
p3738
(dp3739
g9
I01
sg10
(dp3740
g594
g3631
ssg14
g596
sg16
(dp3741
g598
g19
(g20
(I0
tp3742
g22
tp3743
Rp3744
(I1
(I3
tp3745
g605
I00
S'=\xb0\x90)g\xcd\x06@nOn1\xd8M\x16\xc0\xe0}\xbc\xa0\xbdm\xa6?'
p3746
tp3747
bssg34
(lp3748
g19
(g20
(I0
tp3749
g22
tp3750
Rp3751
(I1
(I3
tp3752
g475
I00
S'dR\xdd8\xd6\x8d\x00@\xc0C|\xd2X\x00\x16\xc0\xc1\xab\x9e\x0b\x900\xd2?'
p3753
tp3754
bag3744
asbsVsquare_packing_box4
p3755
(itrajectory_representation.operator
Operator
p3756
(dp3757
g9
I01
sg10
(dp3758
g594
g3755
ssg14
g596
sg16
(dp3759
g598
g19
(g20
(I0
tp3760
g22
tp3761
Rp3762
(I1
(I3
tp3763
g605
I00
S'\xael\x7fnD\xac\xe5?|V\x99e\xa9t\x14\xc0\xe2Wji\x93\xe6\xf6\xbf'
p3764
tp3765
bssg34
(lp3766
g19
(g20
(I0
tp3767
g22
tp3768
Rp3769
(I1
(I3
tp3770
g475
I00
S'dR\xdd8\xd6\x8d\x00@\xc0C|\xd2X\x00\x16\xc0\xc1\xab\x9e\x0b\x900\xd2?'
p3771
tp3772
bag19
(g20
(I0
tp3773
g22
tp3774
Rp3775
(I1
(I3
tp3776
g3217
I00
S'\x0e]\xf2K\xc6E\xf7?\x06\x8c\xb9Ybt\x17\xc0%\xac6\x86\x93\xa8\xdd?'
p3777
tp3778
bag19
(g20
(I0
tp3779
g22
tp3780
Rp3781
(I1
(I3
tp3782
g3217
I00
S'tx\x8as\xa8b\xed?\x9ej\x15\xfa\xf0{\x15\xc0@\xed\x9a-\x9eD\xf2\xbf'
p3783
tp3784
bag3762
asbssg705
(dp3785
sg707
Nsg708
(lp3786
sg710
(dp3787
sg713
g3647
sg712
I0
sg714
Nsg731
Nsg732
I01
sbsg733
(dp3788
(g1919
g1919
g1920
tp3789
g736
s(g1922
g1923
g1923
tp3790
g739
s(g1925
g1926
g1920
tp3791
g742
s(g1928
g1929
g1923
tp3792
g744
s(g1941
g1920
g1920
tp3793
g1098
s(g1920
g1920
g1920
tp3794
g746
s(g1929
g1919
g1923
tp3795
g748
s(g1922
g1933
g1920
tp3796
g750
s(g1920
g3155
g1920
tp3797
(lp3798
I00
as(g1928
g1922
g1920
tp3799
g754
s(g1928
g1933
g1923
tp3800
g1062
s(g1925
g3155
g1920
tp3801
(lp3802
I00
as(g1920
g1929
g1923
tp3803
g758
s(g1928
g1925
g1920
tp3804
g760
s(g1923
g1920
g1923
tp3805
g762
s(g3155
g1941
g1920
tp3806
(lp3807
I00
as(g1929
g1925
g1920
tp3808
g766
s(g1928
g1926
g1923
tp3809
g768
s(g1941
g1923
g1920
tp3810
g770
s(g1925
g1919
g1923
tp3811
g772
s(g1919
g1923
g1920
tp3812
g776
s(g1919
g3155
g1923
tp3813
(lp3814
I00
as(g1922
g1922
g1923
tp3815
g780
s(g1923
g1929
g1923
tp3816
g782
s(g1925
g1928
g1920
tp3817
g786
s(g1923
g1923
g1920
tp3818
g788
s(g1941
g3155
g1923
tp3819
(lp3820
I00
as(g1920
g1920
g1923
tp3821
g792
s(g1929
g1919
g1920
tp3822
g1154
s(g1926
g1928
g1923
tp3823
g794
s(g1919
g1929
g1920
tp3824
g796
s(g1933
g1941
g1923
tp3825
g888
s(g1926
g1920
g1923
tp3826
g800
s(g1919
g1933
g1923
tp3827
g1160
s(g1926
g1933
g1923
tp3828
g804
s(g1933
g1926
g1920
tp3829
g806
s(g1923
g1922
g1923
tp3830
g808
s(g1922
g1925
g1923
tp3831
g1162
s(g1919
g1919
g1923
tp3832
g812
s(g1925
g1929
g1920
tp3833
g814
s(g1923
g1920
g1920
tp3834
g816
s(g3155
g1919
g1920
tp3835
(lp3836
I00
as(g1928
g1926
g1920
tp3837
g822
s(g1928
g1941
g1920
tp3838
g1076
s(g1922
g1933
g1923
tp3839
g826
s(g1941
g1928
g1920
tp3840
g828
s(g1928
g1922
g1923
tp3841
g830
s(g1928
g1919
g1923
tp3842
g832
s(g1925
g1928
g1923
tp3843
g834
s(g1923
g1933
g1923
tp3844
g836
s(g1925
g1920
g1920
tp3845
g838
s(g1923
g1925
g1920
tp3846
g842
s(g1919
g1929
g1923
tp3847
g844
s(g1941
g1919
g1923
tp3848
g846
s(g1929
g1926
g1923
tp3849
g864
s(g1926
g1933
g1920
tp3850
g850
s(g1925
g1919
g1920
tp3851
g852
s(g1925
g1941
g1923
tp3852
g902
s(g1941
g1922
g1920
tp3853
g798
s(g1929
g1922
g1920
tp3854
g856
s(g1922
g1922
g1920
tp3855
g858
s(g1922
g3155
g1920
tp3856
(lp3857
I00
as(g3155
g1919
g1923
tp3858
(lp3859
I00
as(g1941
g3155
g1920
tp3860
(lp3861
I00
as(g1926
g1928
g1920
tp3862
g868
s(g1919
g1926
g1923
tp3863
g870
s(g1926
g1920
g1920
tp3864
g872
s(g1928
g1919
g1920
tp3865
g874
s(g1919
g1941
g1920
tp3866
g876
s(g1933
g1926
g1923
tp3867
g878
s(g1925
g1920
g1923
tp3868
g882
s(g1925
g1929
g1923
tp3869
g884
s(g1941
g1919
g1920
tp3870
g886
s(g1923
g1926
g1920
tp3871
g1086
s(g1919
g1925
g1923
tp3872
g890
s(g1928
g1941
g1923
tp3873
g1118
s(g1926
g1923
g1920
tp3874
g892
s(g1941
g1928
g1923
tp3875
g894
s(g1941
g1926
g1923
tp3876
g896
s(g1929
g1922
g1923
tp3877
g898
s(g1922
g1928
g1920
tp3878
g1066
s(g1926
g1923
g1923
tp3879
g854
s(g1923
g1933
g1920
tp3880
g904
s(g1919
g1926
g1920
tp3881
g908
s(g1929
g1926
g1920
tp3882
g910
s(g1923
g1941
g1920
tp3883
g912
s(g1920
g1928
g1923
tp3884
g880
s(g1941
g1925
g1920
tp3885
g778
s(g1922
g3155
g1923
tp3886
(lp3887
I00
as(g1941
g1941
g1920
tp3888
g848
s(g1928
g1928
g1920
tp3889
g1180
s(g1933
g1923
g1923
tp3890
g926
s(g1922
g1926
g1920
tp3891
g930
s(g1919
g1925
g1920
tp3892
g932
s(g3155
g1928
g1923
tp3893
(lp3894
I00
as(g1933
g1919
g1923
tp3895
g936
s(g1941
g1926
g1920
tp3896
g938
s(g1929
g1923
g1923
tp3897
g940
s(g1928
g1920
g1920
tp3898
g942
s(g1920
g1933
g1920
tp3899
g820
s(g1923
g1926
g1923
tp3900
g948
s(g1923
g1941
g1923
tp3901
g950
s(g1922
g1941
g1920
tp3902
g952
s(g1925
g1923
g1920
tp3903
g784
s(g1922
g1926
g1923
tp3904
g956
s(g1929
g3155
g1920
tp3905
(lp3906
I00
as(g1919
g1928
g1920
tp3907
g960
s(g1933
g1920
g1923
tp3908
g962
s(g1929
g1923
g1920
tp3909
g964
s(g1923
g3155
g1923
tp3910
(lp3911
I00
as(g1919
g3155
g1920
tp3912
(lp3913
I01
as(g1928
g3155
g1920
tp3914
(lp3915
I00
as(g3155
g3155
g1920
tp3916
(lp3917
I00
as(g3155
g1933
g1923
tp3918
(lp3919
I00
as(g1933
g1923
g1920
tp3920
g976
s(g1928
g1929
g1920
tp3921
g1198
s(g1941
g1929
g1920
tp3922
g978
s(g3155
g1928
g1920
tp3923
(lp3924
I00
as(g1928
g1923
g1923
tp3925
g982
s(g1933
g1925
g1923
tp3926
g984
s(g1928
g1920
g1923
tp3927
g986
s(g1922
g1928
g1923
tp3928
g988
s(g1929
g3155
g1923
tp3929
(lp3930
I00
as(g1941
g1920
g1923
tp3931
g992
s(g1933
g1920
g1920
tp3932
g994
s(g1923
g3155
g1920
tp3933
(lp3934
I00
as(g1926
g1926
g1920
tp3935
g998
s(g1922
g1941
g1923
tp3936
g1006
s(g1929
g1941
g1920
tp3937
g1002
s(g1922
g1919
g1920
tp3938
g1004
s(g1920
g1925
g1920
tp3939
g774
s(g3155
g1922
g1923
tp3940
(lp3941
I00
as(g1920
g1928
g1920
tp3942
g1010
s(g1925
g1933
g1923
tp3943
g1012
s(g1933
g1922
g1920
tp3944
g1014
s(g1926
g1925
g1920
tp3945
g1016
s(g1941
g1929
g1923
tp3946
g1018
s(g1941
g1933
g1923
tp3947
g1020
s(g1923
g1929
g1920
tp3948
g1000
s(g1920
g1941
g1923
tp3949
g946
s(g3155
g1923
g1920
tp3950
(lp3951
I00
as(g1933
g1925
g1920
tp3952
g1028
s(g1929
g1933
g1923
tp3953
g1030
s(g1919
g1928
g1923
tp3954
g1024
s(g1933
g1941
g1920
tp3955
g1190
s(g1929
g1929
g1923
tp3956
g1036
s(g3155
g3155
g1923
tp3957
(lp3958
I00
as(g1926
g1926
g1923
tp3959
g1040
s(g1922
g1929
g1923
tp3960
g1042
s(g1922
g1925
g1920
tp3961
g1116
s(g1925
g1922
g1920
tp3962
g1046
s(g1920
g1925
g1923
tp3963
g1048
s(g1920
g1926
g1923
tp3964
g1050
s(g1928
g1923
g1920
tp3965
g1052
s(g1922
g1919
g1923
tp3966
g1054
s(g1926
g1922
g1923
tp3967
g1056
s(g1928
g3155
g1923
tp3968
(lp3969
I00
as(g1925
g1933
g1920
tp3970
g1060
s(g1919
g1922
g1920
tp3971
g1032
s(g1933
g3155
g1923
tp3972
(lp3973
I00
as(g1926
g1925
g1923
tp3974
g1064
s(g1923
g1928
g1923
tp3975
g906
s(g3155
g1926
g1923
tp3976
(lp3977
I00
as(g1919
g1923
g1923
tp3978
g1204
s(g1929
g1933
g1920
tp3979
g1072
s(g1922
g1920
g1923
tp3980
g1074
s(g1933
g1929
g1920
tp3981
g824
s(g1926
g1941
g1920
tp3982
g954
s(g3155
g1925
g1920
tp3983
(lp3984
I00
as(g1923
g1925
g1923
tp3985
g1082
s(g1929
g1941
g1923
tp3986
g1084
s(g1925
g1925
g1923
tp3987
g1088
s(g3155
g1922
g1920
tp3988
(lp3989
I00
as(g1922
g1929
g1920
tp3990
g1092
s(g1925
g3155
g1923
tp3991
(lp3992
I00
as(g1933
g1922
g1923
tp3993
g1096
s(g3155
g1920
g1923
tp3994
(lp3995
I00
as(g1925
g1922
g1923
tp3996
g1100
s(g1941
g1933
g1920
tp3997
g1102
s(g1933
g1928
g1920
tp3998
g1104
s(g3155
g1923
g1923
tp3999
(lp4000
I00
as(g1919
g1922
g1923
tp4001
g1108
s(g1926
g1919
g1920
tp4002
g1110
s(g1925
g1923
g1923
tp4003
g1112
s(g1929
g1928
g1920
tp4004
g1044
s(g1933
g1929
g1923
tp4005
g918
s(g1933
g1933
g1923
tp4006
g1058
s(g1933
g1919
g1920
tp4007
g958
s(g1929
g1920
g1920
tp4008
g1122
s(g1941
g1941
g1923
tp4009
g1078
s(g3155
g1929
g1920
tp4010
(lp4011
I01
as(g1923
g1919
g1923
tp4012
g1094
s(g1920
g1926
g1920
tp4013
g1130
s(g1920
g1941
g1920
tp4014
g1132
s(g1926
g3155
g1920
tp4015
(lp4016
I01
as(g1926
g1922
g1920
tp4017
g1134
s(g1919
g1941
g1923
tp4018
g914
s(g1925
g1941
g1920
tp4019
g1138
s(g1928
g1933
g1920
tp4020
g1140
s(g1928
g1928
g1923
tp4021
g1142
s(g1926
g1929
g1923
tp4022
g1144
s(g1929
g1920
g1923
tp4023
g1146
s(g1919
g1920
g1920
tp4024
g1148
s(g1922
g1920
g1920
tp4025
g1150
s(g1926
g1919
g1923
tp4026
g1152
s(g3155
g1925
g1923
tp4027
(lp4028
I00
as(g1920
g1933
g1923
tp4029
g900
s(g1920
g1923
g1920
tp4030
g1156
s(g1925
g1925
g1920
tp4031
g1158
s(g1920
g1919
g1923
tp4032
g802
s(g1929
g1928
g1923
tp4033
g810
s(g1923
g1928
g1920
tp4034
g1164
s(g3155
g1920
g1920
tp4035
(lp4036
I00
as(g1923
g1919
g1920
tp4037
g1114
s(g1922
g1923
g1920
tp4038
g1170
s(g3155
g1926
g1920
tp4039
(lp4040
I01
as(g1920
g1922
g1920
tp4041
g1174
s(g1925
g1926
g1923
tp4042
g1176
s(g1926
g1941
g1923
tp4043
g922
s(g1929
g1925
g1923
tp4044
g1178
s(g1933
g3155
g1920
tp4045
(lp4046
I01
as(g1920
g1922
g1923
tp4047
g924
s(g1926
g1929
g1920
tp4048
g1182
s(g1941
g1925
g1923
tp4049
g1184
s(g1933
g1933
g1920
tp4050
g970
s(g1920
g1929
g1920
tp4051
g1188
s(g3155
g1929
g1923
tp4052
(lp4053
I00
as(g1929
g1929
g1920
tp4054
g1194
s(g1926
g3155
g1923
tp4055
(lp4056
I00
as(g1941
g1922
g1923
tp4057
g1034
s(g1941
g1923
g1923
tp4058
g1200
s(g1919
g1933
g1920
tp4059
g1218
s(g3155
g1933
g1920
tp4060
(lp4061
I00
as(g1920
g3155
g1923
tp4062
(lp4063
I00
as(g1919
g1920
g1923
tp4064
g1208
s(g1923
g1923
g1923
tp4065
g1210
s(g1928
g1925
g1923
tp4066
g1212
s(g3155
g1941
g1923
tp4067
(lp4068
I00
as(g1920
g1923
g1923
tp4069
g1216
s(g1920
g1919
g1920
tp4070
g1202
s(g1923
g1922
g1920
tp4071
g1220
s(g1933
g1928
g1923
tp4072
g1172
ssg387
g3647
sg1221
I01
sg1222
(lp4073
S'square_packing_box1'
p4074
aS'rectangular_packing_box1'
p4075
aS'square_packing_box2'
p4076
aS'rectangular_packing_box2'
p4077
aS'square_packing_box3'
p4078
aS'rectangular_packing_box3'
p4079
aS'square_packing_box4'
p4080
aS'rectangular_packing_box4'
p4081
asg714
Nsg1232
Nsg1233
(dp4082
Vrectangular_packing_box4
p4083
g19
(g20
(I0
tp4084
g22
tp4085
Rp4086
(I1
(I1
I3
tp4087
g475
I00
S'\x98\x1e]pS`\xd2?\x16\x1b\xb6\xe9Ei\x18\xc0\x82\x97\xe8\xa1t:\xe4?'
p4088
tp4089
bsVrectangular_packing_box2
p4090
g19
(g20
(I0
tp4091
g22
tp4092
Rp4093
(I1
(I1
I3
tp4094
g475
I00
S'x#\x8a\xa8\xbfB\x02@]@\xdd\xaa0\xf7\x1a\xc0\xa2\x93\xe4\xf2\xe3\x8f\xe0?'
p4095
tp4096
bsVrectangular_packing_box3
p4097
g19
(g20
(I0
tp4098
g22
tp4099
Rp4100
(I1
(I1
I3
tp4101
g475
I00
S',\xa3$/\t\xb1\xb0?p\xd9\xd7\x88y7\x1e\xc0\xa1\xa8\xa4gcb\x12@'
p4102
tp4103
bsVrectangular_packing_box1
p4104
g19
(g20
(I0
tp4105
g22
tp4106
Rp4107
(I1
(I1
I3
tp4108
g475
I00
S'\xf81, \xdaJ\xf5?\x90\x94\xc7_\x9e4\x18\xc0\x88,&\x8ck,\x0b@'
p4109
tp4110
bsVsquare_packing_box2
p4111
g19
(g20
(I0
tp4112
g22
tp4113
Rp4114
(I1
(I1
I3
tp4115
g475
I00
S'\xb3\x99\x7f<\xad\xb4\r@\xd8\xe5\x95\xe8\xfc\xf0\x16\xc0Y\x96n\x9e\xe7\t\x19@'
p4116
tp4117
bsVsquare_packing_box3
p4118
g19
(g20
(I0
tp4119
g22
tp4120
Rp4121
(I1
(I1
I3
tp4122
g475
I00
S'8\xc7\x84Ad\xa3\n@\xb4\xaf\xb2\x18;\x05\x1e\xc0j8\xf9\x85\xb6\xac\x0f@'
p4123
tp4124
bsVsquare_packing_box1
p4125
g19
(g20
(I0
tp4126
g22
tp4127
Rp4128
(I1
(I1
I3
tp4129
g475
I00
S'\x12\xcf\x19\xc3\xf23\x0c@\x89\xb5r\xad\x0f?\x15\xc0\xbf~a\xe9h\n\x13@'
p4130
tp4131
bsVsquare_packing_box4
p4132
g19
(g20
(I0
tp4133
g22
tp4134
Rp4135
(I1
(I1
I3
tp4136
g475
I00
S'X\xce\xcef\xfe\xbb\xf0?L@\xfc\xa1\x9e\xc0\x16\xc0\xaeKe\x14U\xf8\x13@'
p4137
tp4138
bssg1291
(lp4139
(g3648
g1923
tp4140
a(g3629
g1923
tp4141
a(g3707
g1923
tp4142
a(g3708
g1923
tp4143
a(g3630
g1923
tp4144
a(g595
g1923
tp4145
a(g3631
g1923
tp4146
a(g3755
g1923
tp4147
a(g3755
g1920
tp4148
asg1307
(itrajectory_representation.predicates.in_region
InRegion
p4149
(dp4150
g714
Nsbsg1310
(dp4151
g3648
g3659
sg3629
g3688
sg3707
(lp4152
g19
(g20
(I0
tp4153
g22
tp4154
Rp4155
(I1
(I3
tp4156
g475
I00
S'dR\xdd8\xd6\x8d\x00@\xc0C|\xd2X\x00\x16\xc0\xc1\xab\x9e\x0b\x900\xd2?'
p4157
tp4158
bag19
(g20
(I0
tp4159
g22
tp4160
Rp4161
(I1
(I3
tp4162
g3217
I00
S'\x0e]\xf2K\xc6E\xf7?\x06\x8c\xb9Ybt\x17\xc0%\xac6\x86\x93\xa8\xdd?'
p4163
tp4164
bag19
(g20
(I0
tp4165
g22
tp4166
Rp4167
(I1
(I3
tp4168
g3217
I00
S'Pa\x88\xb1[\x02\xf1?\x1e\x1c\xb3\x8d\x8c\xb7\x19\xc0t\xf6\xbb\xc4\x878\x11@'
p4169
tp4170
bag488
asg3708
g3719
sg3630
(lp4171
g19
(g20
(I0
tp4172
g22
tp4173
Rp4174
(I1
(I3
tp4175
g475
I00
S'dR\xdd8\xd6\x8d\x00@\xc0C|\xd2X\x00\x16\xc0\xc1\xab\x9e\x0b\x900\xd2?'
p4176
tp4177
bag19
(g20
(I0
tp4178
g22
tp4179
Rp4180
(I1
(I3
tp4181
g3217
I00
S'\x19\xdbXU\x9c\xa8\x04@\xe6\xf1\xeb\xae\xcb\x05\x18\xc0\xce\x9cp\x98\xaf*\xeb?'
p4182
tp4183
bag19
(g20
(I0
tp4184
g22
tp4185
Rp4186
(I1
(I3
tp4187
g3217
I00
S'g\x886\x82\xe7\x9e\t@\x81\x00+\xe8\xfe$\x19\xc0m@m\xfd\x93\x06\xf2?'
p4188
tp4189
bag556
asg595
(lp4190
g19
(g20
(I0
tp4191
g22
tp4192
Rp4193
(I1
(I3
tp4194
g475
I00
S'dR\xdd8\xd6\x8d\x00@\xc0C|\xd2X\x00\x16\xc0\xc1\xab\x9e\x0b\x900\xd2?'
p4195
tp4196
bag19
(g20
(I0
tp4197
g22
tp4198
Rp4199
(I1
(I3
tp4200
g3217
I00
S'\x19\xdbXU\x9c\xa8\x04@\xe6\xf1\xeb\xae\xcb\x05\x18\xc0\xce\x9cp\x98\xaf*\xeb?'
p4201
tp4202
bag19
(g20
(I0
tp4203
g22
tp4204
Rp4205
(I1
(I3
tp4206
g3217
I00
S'g\x886\x82\xe7\x9e\t@\x81\x00+\xe8\xfe$\x19\xc0m@m\xfd\x93\x06\xf2?'
p4207
tp4208
bag19
(g20
(I0
tp4209
g22
tp4210
Rp4211
(I1
(I3
tp4212
g3217
I00
S'\x9a\x9e\xdc\x13\r\n\n@\xf1\xbcp\x07u\xf1\x1a\xc0\xd2JG\xa3\xec%\xd4\xbf'
p4213
tp4214
bag601
asg3631
g3748
sg3755
g3766
ssg352
(dp4215
(Vsquare_packing_box4
p4216
(g1314
(g216
S'\x90\xc0\x1f~\xfe\xbb\xf0?'
p4217
tp4218
Rp4219
g1314
(g216
S'8\xdb\xdc\x98\x9e\xc0\x16\xc0'
p4220
tp4221
Rp4222
g1314
(g216
S'\xda\x8c\xd3\x10U\xf8\x13@'
p4223
tp4224
Rp4225
tp4226
tp4227
g386
s(Vrectangular_packing_box2
p4228
(g1314
(g216
S'\xce\xe30\x98\xbfB\x02@'
p4229
tp4230
Rp4231
g1314
(g216
S'\xf9hq\xc60\xf7\x1a\xc0'
p4232
tp4233
Rp4234
g1314
(g216
S'V\xbc\x91y\xe4\x8f\xe0?'
p4235
tp4236
Rp4237
tp4238
tp4239
g362
s(Vrectangular_packing_box3
p4240
(g1314
(g216
S'{\x9f\xaaB\x03\xb1\xb0?'
p4241
tp4242
Rp4243
g1314
(g216
S'\x0f\x0b\xb5\xa6y7\x1e\xc0'
p4244
tp4245
Rp4246
g1314
(g216
S'\xe5\xef\xdeQcb\x12@'
p4247
tp4248
Rp4249
tp4250
tp4251
g366
s(Vrectangular_packing_box4
p4252
(g1314
(g216
S'}\xec.PR`\xd2?'
p4253
tp4254
Rp4255
g1314
(g216
S'\x8fT\xdf\xf9Ei\x18\xc0'
p4256
tp4257
Rp4258
g1314
(g216
S'\xe8\xf9\xd3Fu:\xe4?'
p4259
tp4260
Rp4261
tp4262
tp4263
g3636
s(Vsquare_packing_box2
p4264
(g1314
(g216
S'6\x90.6\xad\xb4\r@'
p4265
tp4266
Rp4267
g1314
(g216
S'7\xc3\r\xf8\xfc\xf0\x16\xc0'
p4268
tp4269
Rp4270
g1314
(g216
S'\xe9\x9d\n\xb8\xe7\t\x19@'
p4271
tp4272
Rp4273
tp4274
tp4275
g374
s(Vsquare_packing_box3
p4276
(g1314
(g216
S'\xc7\xbc\x8e8d\xa3\n@'
p4277
tp4278
Rp4279
g1314
(g216
S'\xb8\xca\x13\x08;\x05\x1e\xc0'
p4280
tp4281
Rp4282
g1314
(g216
S'\xde\xc9\xa7\xc7\xb6\xac\x0f@'
p4283
tp4284
Rp4285
tp4286
tp4287
g3644
s(Vsquare_packing_box1
p4288
(g1314
(g216
S'N\xb4\xab\x90\xf23\x0c@'
p4289
tp4290
Rp4291
g1314
(g216
S'Q\xf5+\x9d\x0f?\x15\xc0'
p4292
tp4293
Rp4294
g1314
(g216
S'\xe2\x1f\xb6\xf4h\n\x13@'
p4295
tp4296
Rp4297
tp4298
tp4299
g382
s(Vrectangular_packing_box1
p4300
(g1314
(g216
S'\xa8\xdf\x85\xad\xd9J\xf5?'
p4301
tp4302
Rp4303
g1314
(g216
S'\x14\x05\xfaD\x9e4\x18\xc0'
p4304
tp4305
Rp4306
g1314
(g216
S'\xb13\x85\xcek,\x0b@'
p4307
tp4308
Rp4309
tp4310
tp4311
g370
ssg1410
(igtamp_utils.utils
CustomStateSaver
p4312
(dp4313
g1413
g19
(g20
(I0
tp4314
g22
tp4315
Rp4316
(I1
(I1
I3
tp4317
g475
I00
S'fR\xdd8\xd6\x8d\x00@\xbfC|\xd2X\x00\x16\xc0\xc1\xab\x9e\x0b\x900\xd2?'
p4318
tp4319
bsg1420
Nsg1421
S'pr2'
p4320
sg1423
I1
sg1233
(dp4321
Vc_obst5
p4322
g19
(g20
(I0
tp4323
g22
tp4324
Rp4325
(I1
(I4
tp4326
g475
I00
S"\x9c\xf1q\xbb~\xea\x11@\xfc7\xbb\xd6O\xb6\xd4?e\xaa`TR'\xed?\xd2\x93\xb1\x82\xa4\x94\x0b@"
p4327
tp4328
bsVcan
p4329
g19
(g20
(I0
tp4330
g22
tp4331
Rp4332
(I1
(I4
tp4333
g475
I00
S'\x00\x00\x00\x00\x00\x00\xf4\xbfH\xe1z\x14\xaeG\xe1\xbf\n\xd7\xa3p=\n\xef?\x00\x00\x00\x00\x00\x00\x00\x00'
p4334
tp4335
bsVside_wall_1
p4336
g19
(g20
(I0
tp4337
g22
tp4338
Rp4339
(I1
(I4
tp4340
g475
I00
S'\xf4\xff\xff\xff\xff\xff\xfb\xbf\x00\x00\x00\x00\x00\x00\x00\x00\x9c\xc4 \xb0rh\xc1?\x18-DT\xfb!\xf9?'
p4341
tp4342
bsVkitchen
p4343
g19
(g20
(I0
tp4344
g22
tp4345
Rp4346
(I1
(I4
tp4347
g475
I00
S'\x00\x00\x00\x00\x00\x00\x00\x00\x00\x00\x00\x00\x00\x00\x00\x00\x00\x00\x00\x00\x00\x00\x00\x00\x00\x00\x00\x00\x00\x00\x00\x00'
p4348
tp4349
bsVcomputer_table
p4350
g19
(g20
(I0
tp4351
g22
tp4352
Rp4353
(I1
(I4
tp4354
g475
I00
S'\x00\x00\x00\x00\x00\x00\x13@\x00\x00\x00\x00\x00\x00\xf8\xbf\x96C\x8bl\xe7\xfb\xe7?\xd2!3\x7f|\xd9\x12@'
p4355
tp4356
bsVchair_6b56
p4357
g19
(g20
(I0
tp4358
g22
tp4359
Rp4360
(I1
(I4
tp4361
g475
I00
S'u=\n\xd7\xa3p\xf5?K\xe1z\x14\xaeG\xd1?\x00\x00\x00\x00\x00\x00\x00\x00\xd6$\xfaNBm\n@'
p4362
tp4363
bsVtable
p4364
g19
(g20
(I0
tp4365
g22
tp4366
Rp4367
(I1
(I4
tp4368
g475
I00
S'\x7f\xf6#EdX\xed?\xac\xffs\x98//\xc0\xbf\x00\x00\x00\x00\x00\x00\x00\x00\x00\x00\x00\x00\x00\x00\x00\x00'
p4369
tp4370
bsVsquare_packing_box2
p4371
g19
(g20
(I0
tp4372
g22
tp4373
Rp4374
(I1
(I4
tp4375
g475
I00
S'\xb3\x99\x7f<\xad\xb4\r@\xd8\xe5\x95\xe8\xfc\xf0\x16\xc0L7\x89A`\xe5\xd8?Y\x96n\x9e\xe7\t\x19@'
p4376
tp4377
bsVsquare_packing_box3
p4378
g19
(g20
(I0
tp4379
g22
tp4380
Rp4381
(I1
(I4
tp4382
g475
I00
S'=\xc7\x84Ad\xa3\n@\xba\xaf\xb2\x18;\x05\x1e\xc0L7\x89A`\xe5\xd8?j8\xf9\x85\xb6\xac\x0f@'
p4383
tp4384
bsVsquare_packing_box1
p4385
g19
(g20
(I0
tp4386
g22
tp4387
Rp4388
(I1
(I4
tp4389
g475
I00
S'\x0e\xcf\x19\xc3\xf23\x0c@\x88\xb5r\xad\x0f?\x15\xc0L7\x89A`\xe5\xd8?\xbf~a\xe9h\n\x13@'
p4390
tp4391
bsVback_wall_2
p4392
g19
(g20
(I0
tp4393
g22
tp4394
Rp4395
(I1
(I4
tp4396
g475
I00
S'\xaeG\xe1z\x14.\x13@\x80\x14\xaeG\xe1z\xc4?xX\xa85\xcd\xbb\xf2?\x00\x00\x00\x00\x00\x00\x00\x00'
p4397
tp4398
bsVchair_083c
p4399
g19
(g20
(I0
tp4400
g22
tp4401
Rp4402
(I1
(I4
tp4403
g475
I00
S'\xa4p=\n\xd7\xa3\xe0?333333\xe3\xbf\x00\x00\x00\x00\x00\x00\x00\x00\x00\x00\x00\x00\x00\x00\x00\x00'
p4404
tp4405
bsVback_wall_1
p4406
g19
(g20
(I0
tp4407
g22
tp4408
Rp4409
(I1
(I4
tp4410
g475
I00
S'\xaeG\xe1z\x14.\x13@\x80\x14\xaeG\xe1z\xc4?\xcc\x7fH\xbf}\x1d\xed?\x00\x00\x00\x00\x00\x00\x00\x00'
p4411
tp4412
bsVentrance_left
p4413
g19
(g20
(I0
tp4414
g22
tp4415
Rp4416
(I1
(I4
tp4417
g475
I00
S'\x98\x99\x99\x99\x99\x99\xe9\xbfH\xe1z\x14\xaeG\t\xc0\x9c\xc4 \xb0rh\xc1?\x00\x00\x00\x00\x00\x00\x00\x00'
p4418
tp4419
bsVcup_905a
p4420
g19
(g20
(I0
tp4421
g22
tp4422
Rp4423
(I1
(I4
tp4424
g475
I00
S'\x00\x00\x00\x00\x00\x00\xf0?\x83\xc0\xca\xa1E\xb6\xdb?\x1b/\xdd$\x06\x81\xed?\x00\x00\x00\x00\x00\x00\x00\x00'
p4425
tp4426
bsVbottom_wall_1
p4427
g19
(g20
(I0
tp4428
g22
tp4429
Rp4430
(I1
(I4
tp4431
g475
I00
S'H\xe1z\x14\xaeG\x12@\x80\x14\xaeG\xe1z\xc4?\xcc\x7fH\xbf}\x1d\xed?\x00\x00\x00\x00\x00\x00\x00\x00'
p4432
tp4433
bsVplate_496f
p4434
g19
(g20
(I0
tp4435
g22
tp4436
Rp4437
(I1
(I4
tp4438
g475
I00
S"q=\n\xd7\xa3p\xe5?\x9dhW!\xe5'\xdd\xbf\x1b/\xdd$\x06\x81\xed?\x00\x00\x00\x00\x00\x00\x00\x00"
p4439
tp4440
bsVtoaster
p4441
g19
(g20
(I0
tp4442
g22
tp4443
Rp4444
(I1
(I4
tp4445
g475
I00
S')\\\x8f\xc2\xf5(\xf4\xbf\xe0z\x14\xaeG\xe1\xf2\xbf\xb8\x1e\x85\xebQ\xb8\xee?\x89/`\x9b\xf8\x8a\xe4?'
p4446
tp4447
bsVrectangular_packing_box4
p4448
g19
(g20
(I0
tp4449
g22
tp4450
Rp4451
(I1
(I4
tp4452
g475
I00
S'\x98\x1e]pS`\xd2?\x16\x1b\xb6\xe9Ei\x18\xc0L7\x89A`\xe5\xd8?\x82\x97\xe8\xa1t:\xe4?'
p4453
tp4454
bsVmicrowave
p4455
g19
(g20
(I0
tp4456
g22
tp4457
Rp4458
(I1
(I4
tp4459
g475
I00
S'\x9a\x99\x99\x99\x99\x99\xf1\xbf\x00\x00\x00\x00\x00\x00\x00@7\x89A`\xe5\xd0\xee?\x00\x00\x00\x00\x00\x00\x00\x00'
p4460
tp4461
bsVc_obst7
p4462
g19
(g20
(I0
tp4463
g22
tp4464
Rp4465
(I1
(I4
tp4466
g475
I00
S"\x00\x82=\xfa]F\x12@Rf\x922\x8f\r\xdc?e\xaa`TR'\xed?\xa1F+\x03Yi}?"
p4467
tp4468
bsVc_obst6
p4469
g19
(g20
(I0
tp4470
g22
tp4471
Rp4472
(I1
(I4
tp4473
g475
I00
S"\x04\x9b\x11\x01\x95\x83\x12@\xf0\xa7>?}-\xd2?e\xaa`TR'\xed?\xed\xedJ\xfa\x0b\x0c\x04@"
p4474
tp4475
bsVcup_b6af
p4476
g19
(g20
(I0
tp4477
g22
tp4478
Rp4479
(I1
(I4
tp4480
g475
I00
S'R\xb8\x1e\x85\xebQ\xe8?\x9a\x99\x99\x99\x99\x99\xe1?\x1b/\xdd$\x06\x81\xed?\x00\x00\x00\x00\x00\x00\x00\x00'
p4481
tp4482
bsVc_obst4
p4483
g19
(g20
(I0
tp4484
g22
tp4485
Rp4486
(I1
(I4
tp4487
g475
I00
S"n\x08(p\x9bi\x12@\xc0\x8f\x90\x84\x98\xd9\xc1?e\xaa`TR'\xed?\xae\x8f\xee\xf0\x1b\x97\x16@"
p4488
tp4489
bsVrectangular_packing_box2
p4490
g19
(g20
(I0
tp4491
g22
tp4492
Rp4493
(I1
(I4
tp4494
g475
I00
S'x#\x8a\xa8\xbfB\x02@]@\xdd\xaa0\xf7\x1a\xc0L7\x89A`\xe5\xd8?\xa2\x93\xe4\xf2\xe3\x8f\xe0?'
p4495
tp4496
bsVplate_fa76
p4497
g19
(g20
(I0
tp4498
g22
tp4499
Rp4500
(I1
(I4
tp4501
g475
I00
S'=\n\xd7\xa3p=\xf2?\x00\x00\x00\x00\x00\x00\x00\x00\x1b/\xdd$\x06\x81\xed?\x00\x00\x00\x00\x00\x00\x00\x00'
p4502
tp4503
bsVc_obst1
p4504
g19
(g20
(I0
tp4505
g22
tp4506
Rp4507
(I1
(I4
tp4508
g475
I00
S"\x07%\x95\xf6\x8a4\x12@%\xc3S\xe6\xc1\xef\xd7?e\xaa`TR'\xed?\xe0\xbaL\x80\x10\xb3\t@"
p4509
tp4510
bsVpin_c671
p4511
g19
(g20
(I0
tp4512
g22
tp4513
Rp4514
(I1
(I4
tp4515
g475
I00
S'\xc3\xf5(\\\x8f\xc2\xf1\xbf}?5^\xbaI\x02@\xb8\x1e\x85\xebQ\xb8\xfa?\x00\x00\x00\x00\x00\x00\x00\x00'
p4516
tp4517
bsVc_obst3
p4518
g19
(g20
(I0
tp4519
g22
tp4520
Rp4521
(I1
(I4
tp4522
g475
I00
S"^\xdd\\<%\xa1\x12@\xac\x8b8\x90\xc6\xe6\xd8?e\xaa`TR'\xed?\x1c\x9e\xaarJ\xdd\x16@"
p4523
tp4524
bsVchair_2e39
p4525
g19
(g20
(I0
tp4526
g22
tp4527
Rp4528
(I1
(I4
tp4529
g475
I00
S'hfffff\xee?cfffff\xf2\xbf\x00\x00\x00\x00\x00\x00\x00\x00\x07M\xe8QQF\xf3?'
p4530
tp4531
bsVleft_wall_1
p4532
g19
(g20
(I0
tp4533
g22
tp4534
Rp4535
(I1
(I4
tp4536
g475
I00
S'H\xe1z\x14\xaeG\x12@S\xb8\x1e\x85\xebQ\xe4?\xcc\x7fH\xbf}\x1d\xed?\x00\x00\x00\x00\x00\x00\x00\x00'
p4537
tp4538
bsVtop_wall_1
p4539
g19
(g20
(I0
tp4540
g22
tp4541
Rp4542
(I1
(I4
tp4543
g475
I00
S'H\xe1z\x14\xaeG\x12@\x80\x14\xaeG\xe1z\xc4?xX\xa85\xcd\xbb\xf2?\x00\x00\x00\x00\x00\x00\x00\x00'
p4544
tp4545
bsVrectangular_packing_box3
p4546
g19
(g20
(I0
tp4547
g22
tp4548
Rp4549
(I1
(I4
tp4550
g475
I00
S'\x9c\xa3$/\t\xb1\xb0?r\xd9\xd7\x88y7\x1e\xc0L7\x89A`\xe5\xd8?\xa1\xa8\xa4gcb\x12@'
p4551
tp4552
bsVshaker
p4553
g19
(g20
(I0
tp4554
g22
tp4555
Rp4556
(I1
(I4
tp4557
g475
I00
S'\n\xd7\xa3p=\n\x01@\x14\xaeG\xe1z\x14\x02@\\\x8f\xc2\xf5(\\\xef?\x00\x00\x00\x00\x00\x00\x00\x00'
p4558
tp4559
bsVplate_b4e7
p4560
g19
(g20
(I0
tp4561
g22
tp4562
Rp4563
(I1
(I4
tp4564
g475
I00
S'\x14\xaeG\xe1z\x14\xf2\xbf\x14\xaeG\xe1z\x14\x00@=\n\xd7\xa3p=\xf2?\x00\x00\x00\x00\x00\x00\x00\x00'
p4565
tp4566
bsVplate_835a
p4567
g19
(g20
(I0
tp4568
g22
tp4569
Rp4570
(I1
(I4
tp4571
g475
I00
S'\xf6(\\\x8f\xc2\xf5\xf0?\\\x8f\xc2\xf5(\\\xe7\xbf\x1b/\xdd$\x06\x81\xed?\x00\x00\x00\x00\x00\x00\x00\x00'
p4572
tp4573
bsVcup_58a2
p4574
g19
(g20
(I0
tp4575
g22
tp4576
Rp4577
(I1
(I4
tp4578
g475
I00
S'\x85\xebQ\xb8\x1e\x85\xe3?\xcd\xcc\xcc\xcc\xcc\xcc\xdc?\x1b/\xdd$\x06\x81\xed?\x00\x00\x00\x00\x00\x00\x00\x00'
p4579
tp4580
bsVknife_block
p4581
g19
(g20
(I0
tp4582
g22
tp4583
Rp4584
(I1
(I4
tp4585
g475
I00
S'R\xb8\x1e\x85\xebQ\xe0\xbfffffff\x02@`\xe5\xd0"\xdb\xf9\xee?\x00\x00\x00\x00\x00\x00\x00\x00'
p4586
tp4587
bsVc_obst2
p4588
g19
(g20
(I0
tp4589
g22
tp4590
Rp4591
(I1
(I4
tp4592
g475
I00
S"\x00\xf9\xf8\xe06C\x12@Nd\x9dS@k\xcc?e\xaa`TR'\xed?\x8e\xd1'\xc0\x08~\xfe?"
p4593
tp4594
bsVsquare_packing_box4
p4595
g19
(g20
(I0
tp4596
g22
tp4597
Rp4598
(I1
(I4
tp4599
g475
I00
S'Z\xce\xcef\xfe\xbb\xf0?N@\xfc\xa1\x9e\xc0\x16\xc0L7\x89A`\xe5\xd8?\xaeKe\x14U\xf8\x13@'
p4600
tp4601
bsVrectangular_packing_box1
p4602
g19
(g20
(I0
tp4603
g22
tp4604
Rp4605
(I1
(I4
tp4606
g475
I00
S'\xf81, \xdaJ\xf5?\x90\x94\xc7_\x9e4\x18\xc0L7\x89A`\xe5\xd8?\x88,&\x8ck,\x0b@'
p4607
tp4608
bsVpin_371e
p4609
g19
(g20
(I0
tp4610
g22
tp4611
Rp4612
(I1
(I4
tp4613
g475
I00
S'333333\xf3\xbfffffff\xf6?\xb8\x1e\x85\xebQ\xb8\xee?\x00\x00\x00\x00\x00\x00\x00\x00'
p4614
tp4615
bsVfridge
p4616
g19
(g20
(I0
tp4617
g22
tp4618
Rp4619
(I1
(I4
tp4620
g475
I00
S'\xd7\xa3p=\n\xd7\xeb\xbf\x00\x00\x00\x00\x00\x00\x00\xc0\xcd\xcc\xcc\xcc\xcc\xcc\xf8?\x00\x00\x00\x00\x00\x00\x00\x00'
p4621
tp4622
bsVcup_d441
p4623
g19
(g20
(I0
tp4624
g22
tp4625
Rp4626
(I1
(I4
tp4627
g475
I00
S'\n\xd7\xa3p=\n\xef?\x8f\xc2\xf5(\\\x8f\xe2?\x1b/\xdd$\x06\x81\xed?\x00\x00\x00\x00\x00\x00\x00\x00'
p4628
tp4629
bsVright_wall
p4630
g19
(g20
(I0
tp4631
g22
tp4632
Rp4633
(I1
(I4
tp4634
g475
I00
S'\x9a\x99\x99\x99\x99\x99\x07@H\xe1z\x14\xaeG\xff\xbf\x9c\xc4 \xb0rh\xc1?\x00\x00\x00\x00\x00\x00\x00\x00'
p4635
tp4636
bsVshelf2
p4637
g19
(g20
(I0
tp4638
g22
tp4639
Rp4640
(I1
(I4
tp4641
g475
I00
S'\x00\x00\x00\x00\x00\x00\x0e@\xaeG\xe1z\x14\xae\x07@\x9c\xc4 \xb0rh\xc1?\xd2!3\x7f|\xd9\x12@'
p4642
tp4643
bsVshelf1
p4644
g19
(g20
(I0
tp4645
g22
tp4646
Rp4647
(I1
(I4
tp4648
g475
I00
S'\x00\x00\x00\x00\x00\x00\x13@\xaeG\xe1z\x14\xae\x07@\x9c\xc4 \xb0rh\xc1?\xd2!3\x7f|\xd9\x12@'
p4649
tp4650
bsVsink
p4651
g19
(g20
(I0
tp4652
g22
tp4653
Rp4654
(I1
(I4
tp4655
g475
I00
S'ffffff\xd6?333333\x01@\x9a\x99\x99\x99\x99\x99\xb9\xbf\x00\x00\x00\x00\x00\x00\x00\x00'
p4656
tp4657
bsVpr2
p4658
g19
(g20
(I0
tp4659
g22
tp4660
Rp4661
(I1
(I4
tp4662
g475
I00
S'fR\xdd8\xd6\x8d\x00@\xbfC|\xd2X\x00\x16\xc0\x9a_\x94\xa0\xbf\xd0\xc1?\xc1\xab\x9e\x0b\x900\xd2?'
p4663
tp4664
bsVright_wall_1
p4665
g19
(g20
(I0
tp4666
g22
tp4667
Rp4668
(I1
(I4
tp4669
g475
I00
S'H\xe1z\x14\xaeG\x12@&\\\x8f\xc2\xf5(\xd4\xbf\xcc\x7fH\xbf}\x1d\xed?\x00\x00\x00\x00\x00\x00\x00\x00'
p4670
tp4671
bsVright_wall_2
p4672
g19
(g20
(I0
tp4673
g22
tp4674
Rp4675
(I1
(I4
tp4676
g475
I00
S'H\xe1z\x14\xaeG\x12@&\\\x8f\xc2\xf5(\xd4\xbfxX\xa85\xcd\xbb\xf2?\x00\x00\x00\x00\x00\x00\x00\x00'
p4677
tp4678
bsVbottom_wall
p4679
g19
(g20
(I0
tp4680
g22
tp4681
Rp4682
(I1
(I4
tp4683
g475
I00
S'\x00\x00\x00\x00\x00\x00\xfc?\x00\x00\x00\x00\x00\x00\x00\x00\x00\x00\x00\x00\x00\x00\x00\x00\x00\x00\x00\x00\x00\x00\x00\x00'
p4684
tp4685
bsVleft_wall_2
p4686
g19
(g20
(I0
tp4687
g22
tp4688
Rp4689
(I1
(I4
tp4690
g475
I00
S'H\xe1z\x14\xaeG\x12@S\xb8\x1e\x85\xebQ\xe4?xX\xa85\xcd\xbb\xf2?\x00\x00\x00\x00\x00\x00\x00\x00'
p4691
tp4692
bsVleft_wall
p4693
g19
(g20
(I0
tp4694
g22
tp4695
Rp4696
(I1
(I4
tp4697
g475
I00
S'\x9a\x99\x99\x99\x99\x99\x07@H\xe1z\x14\xaeG\xff?\x9c\xc4 \xb0rh\xc1?\x00\x00\x00\x00\x00\x00\x00\x00'
p4698
tp4699
bsVfloorwalls
p4700
g19
(g20
(I0
tp4701
g22
tp4702
Rp4703
(I1
(I4
tp4704
g475
I00
S'\xc7\xcc\xcc\xcc\xcc\xcc\xfc?\x00\x00\x00\x00\x00\x00\x18\xc0H\xe1z\x14\xaeG\xc1?\x16-DT\xfb!\xf9?'
p4705
tp4706
bsVtable2
p4707
g19
(g20
(I0
tp4708
g22
tp4709
Rp4710
(I1
(I4
tp4711
g475
I00
S'\x00\x00\x00\x00\x00\x00\x13@\x80\x14\xaeG\xe1z\xc4?S\x96!\x8euq\xec?\xd2!3\x7f|\xd9\x12@'
p4712
tp4713
bsVentrance_right
p4714
g19
(g20
(I0
tp4715
g22
tp4716
Rp4717
(I1
(I4
tp4718
g475
I00
S'ffffff\n@H\xe1z\x14\xaeG\t\xc0\x9c\xc4 \xb0rh\xc1?\x00\x00\x00\x00\x00\x00\x00\x00'
p4719
tp4720
bsVcooker
p4721
g19
(g20
(I0
tp4722
g22
tp4723
Rp4724
(I1
(I4
tp4725
g475
I00
S'\xaeG\xe1z\x14\xae\xff?\x85\xebQ\xb8\x1e\x85\xfb?\x00\x00\x00\x00\x00\x00\xe8?\x00\x00\x00\x00\x00\x00\x00\x00'
p4726
tp4727
bsVpin_a091
p4728
g19
(g20
(I0
tp4729
g22
tp4730
Rp4731
(I1
(I4
tp4732
g475
I00
S'\xdb\xf9~j\xbct\xf7\xbf)\\\x8f\xc2\xf5(\x02@\xb8\x1e\x85\xebQ\xb8\xfa?\x00\x00\x00\x00\x00\x00\x00\x00'
p4733
tp4734
bsVside_wall_2
p4735
g19
(g20
(I0
tp4736
g22
tp4737
Rp4738
(I1
(I4
tp4739
g475
I00
S'\xfa\xff\xff\xff\xff\xff\x14@\x00\x00\x00\x00\x00\x00\x00\x00\x9c\xc4 \xb0rh\xc1?\x18-DT\xfb!\xf9?'
p4740
tp4741
bsVside_wall_3
p4742
g19
(g20
(I0
tp4743
g22
tp4744
Rp4745
(I1
(I4
tp4746
g475
I00
S'\x00\x00\x00\x00\x00\x00\xfc?H\xe1z\x14\xaeG\t@\x9c\xc4 \xb0rh\xc1?\x00\x00\x00\x00\x00\x00\x00\x00'
p4747
tp4748
bsVmixer
p4749
g19
(g20
(I0
tp4750
g22
tp4751
Rp4752
(I1
(I4
tp4753
g475
I00
S'\n\xd7\xa3p=\n\xfb?ffffff\x02@d;\xdfO\x8d\x97\xee?\x00\x00\x00\x00\x00\x00\x00\x00'
p4754
tp4755
bsVtop_wall_2
p4756
g19
(g20
(I0
tp4757
g22
tp4758
Rp4759
(I1
(I4
tp4760
g475
I00
S'H\xe1z\x14\xaeG\x12@\x80\x14\xaeG\xe1z\xc4?\x16HP\xfc\x18\xf3\xfd?\x00\x00\x00\x00\x00\x00\x00\x00'
p4761
tp4762
bsVc_obst0
p4763
g19
(g20
(I0
tp4764
g22
tp4765
Rp4766
(I1
(I4
tp4767
g475
I00
S"\xb8\x088t\x9c7\x12@\x9eD\xf1\x14\xed\x8f\x96\xbfe\xaa`TR'\xed?\xadtI0\xaa\x0c\x13@"
p4768
tp4769
bsVc_obst9
p4770
g19
(g20
(I0
tp4771
g22
tp4772
Rp4773
(I1
(I4
tp4774
g475
I00
S"\x97v\x82wVC\x12@\xd8m\xad8\xc7F\xc2\xbfe\xaa`TR'\xed?\xd9R5=\xef\x80\x10@"
p4775
tp4776
bsVc_obst8
p4777
g19
(g20
(I0
tp4778
g22
tp4779
Rp4780
(I1
(I4
tp4781
g475
I00
S"\xa1\x86\xba\xbe\x0e\xfe\x11@+\x88\xaeAcX\xc9?e\xaa`TR'\xed?\xe7\xc6R\xf7\xd5q\x17@"
p4782
tp4783
bsVcoffe_machine
p4784
g19
(g20
(I0
tp4785
g22
tp4786
Rp4787
(I1
(I4
tp4788
g475
I00
S'\\\x8f\xc2\xf5(\\\xf5\xbf\xb8\x1e\x85\xebQ\xb8\xee?\n\xd7\xa3p=\n\xef?\x00\x00\x00\x00\x00\x00\x00\x00'
p4789
tp4790
bsVchair_12d0
p4791
g19
(g20
(I0
tp4792
g22
tp4793
Rp4794
(I1
(I4
tp4795
g475
I00
S'\\\xd2\x18\xad\xa3\xaa\xdb?Of\x83L2r\xc6?\x00\x00\x00\x00\x00\x00\x00\x00\xf8\x81\r\x14M\xa6\x17@'
p4796
tp4797
bsVcomputer_chair
p4798
g19
(g20
(I0
tp4799
g22
tp4800
Rp4801
(I1
(I4
tp4802
g475
I00
S'\xcd\xcc\xcc\xcc\xcc\xcc\x10@\x00\x00\x00\x00\x00\x00\xf8\xbf\xa00\xb6\x10\xe4\xa9\x95\xbf\x00\x00\x00\x00\x00\x00\x00\x00'
p4803
tp4804
bssg1908
g19
(g20
(I0
tp4805
g22
tp4806
Rp4807
(I1
(I39
tp4808
g475
I00
S'\x00\x00\x00\x00\x00\x00\x00\x00\x00\x00\x00\x00\x00\x00\x00\x00\x00\x00\x00\x00\x00\x00\x00\x00\x00\x00\x00\x00\x00\x00\x00\x00\x00\x00\x00\x00\x00\x00\x00\x00\x00\x00\x00\x00\x00\x00\x00\x00\x00\x00\x00\x00\x00\x00\x00\x00\x00\x00\x00\x00\x00\x00\x00\x00\x00\x00\x00\x00\x00\x00\x00\x00\x00\x00\x00\x00\x00\x00\x00\x00\x00\x00\x00\x00\x00\x00\x00\x00\x00\x00\x00\x00\x00\x00\x00\x00@d;\xdfO\x8d\x87?\x00\x00\x00\x00\x00\x00\x00\x00\x00\x00\x00\x00\x00\x00\x00\x00\x00\x00\x00\x00\x00\x00\x00\x00\xec\xed\t\xf1\xcc\xa4\xf4?\x00\x00\x00\x00\x00\x00\xc0\xbcN"\xd0^p\xf8\x00\xc0\x00\x00\x00\x00\x00\x00\x00\x00\x9d\x03\r.\x04V\xe6\xbf\x00\x00\x00\x00\x00\x00\x00\x00\x00\x00\x00\x00\x00\x00\x00\x00\x00\x00\x00\x00\x00\x00\xb6\xbc\x00\x00\x00\x00\x00\x00\x00\x00\x00\x00\x00\x00\x00\x00\xd0\xbc\x00\x00\x00\x00\x00\x00\x00\x00\x00\x00\x00\x00\x00\x00\x00\x00\xec\xed\t\xf1\xcc\xa4\xf4?\x00\x00\x00\x00\x00\x00\xc0\xbcN"\xd0^p\xf8\x00\xc0\x00\x00\x00\x00\x00\x00\x00\x00\xa3\x03\r.\x04V\xe6\xbf\x00\x00\x00\x00\x00\x00\x00\x00\xce9\xe3\xc17\x89\xe1?\x00\x00\x00\x00\x00\x00\xb6\xbc\x00\x00\x00\x00\x00\x00\x00\x00\x00\x00\x00\x00\x00\x00\xe0<\x00\x00\x00\x00\x00\x00\x00\x00'
p4809
tp4810
bsg1915
I00
sbsg1916
Nsg1917
(dp4811
sg2129
(dp4812
(g3708
g1923
tp4813
(lp4814
g19
(g20
(I0
tp4815
g22
tp4816
Rp4817
(I1
(I3
tp4818
g475
I00
S'\x08\xb4\xe4\xc4\x8f8\xfa?\xaf\x87\xfe\xaa\x1d\xc9\x1a\xc0\x9an\x9cC=\x86\xf9?'
p4819
tp4820
bas(g3755
g1920
tp4821
(lp4822
g19
(g20
(I0
tp4823
g22
tp4824
Rp4825
(I1
(I3
tp4826
g475
I00
S'\xb8l\x7fnD\xac\xe5?~V\x99e\xa9t\x14\xc0 \x97\xe9yVh\x13@'
p4827
tp4828
bag19
(g20
(I0
tp4829
g22
tp4830
Rp4831
(I1
(I3
tp4832
g3217
I00
S'\xb0E\xbb;Cb\xeb?\x9e\xde\xa7\xdd\xbdd\x12\xc0\xc6\xee\xbd\x16\x8c\xaa\xf3\xbf'
p4833
tp4834
bag19
(g20
(I0
tp4835
g22
tp4836
Rp4837
(I1
(I3
tp4838
g3217
I00
S'`\xc8Aw-\x81\xeb?/\xc3\xe6O\x04\xca\x10\xc0\x8a\xb7K)\x91{\xe4\xbf'
p4839
tp4840
bag19
(g20
(I0
tp4841
g22
tp4842
Rp4843
(I1
(I3
tp4844
g3217
I00
S'\xe1\xc6\xc7\xa7\x12X\xe7?\x98\x99\xb0\x9a\xfb\xdb\x0b\xc0R\t\x1b)\xeae\xe0\xbf'
p4845
tp4846
bag19
(g20
(I0
tp4847
g22
tp4848
Rp4849
(I1
(I3
tp4850
g3217
I00
S'p\xf1\xbdc^\x84\xf1?"\x88LL\xf9D\x06\xc0~w\r\xe9m\x0f\x19@'
p4851
tp4852
bas(g3755
g1923
tp4853
(lp4854
g19
(g20
(I0
tp4855
g22
tp4856
Rp4857
(I1
(I3
tp4858
g475
I00
S'\xbfl\x7fnD\xac\xe5?}V\x99e\xa9t\x14\xc0 \x97\xe9yVh\x13@'
p4859
tp4860
bas(g3648
g1920
tp4861
g3265
s(g595
g1923
tp4862
(lp4863
g19
(g20
(I0
tp4864
g22
tp4865
Rp4866
(I1
(I3
tp4867
g475
I00
S'\x11\x8f\xa7\x80\x98j\x05@\x9e\x02\xf6\xcb.\x1e\x1d\xc0Lc\xa7\xe2@k\x16@'
p4868
tp4869
bas(g3648
g1923
tp4870
(lp4871
g19
(g20
(I0
tp4872
g22
tp4873
Rp4874
(I1
(I3
tp4875
g475
I00
S'{\x02+\xb8\x18d\xe7?0\x86\xe2\xa7w\xdd\x1a\xc07N\nE\xf2\xcc\xfb?'
p4876
tp4877
bas(g3631
g1923
tp4878
(lp4879
g19
(g20
(I0
tp4880
g22
tp4881
Rp4882
(I1
(I3
tp4883
g475
I00
S'=\xb0\x90)g\xcd\x06@nOn1\xd8M\x16\xc0\xcd|\xbc\xa0\xbdm\xa6?'
p4884
tp4885
bas(g3630
g1923
tp4886
(lp4887
g19
(g20
(I0
tp4888
g22
tp4889
Rp4890
(I1
(I3
tp4891
g475
I00
S'\xbbD@\x1cPn\x0e@5\x1a-\xc8\x9b(\x1a\xc0\t\xdd\xaf\x13\t\xaa\xfb?'
p4892
tp4893
bas(g3630
g1920
tp4894
g3365
s(g3707
g1920
tp4895
g3204
s(g3707
g1923
tp4896
(lp4897
g19
(g20
(I0
tp4898
g22
tp4899
Rp4900
(I1
(I3
tp4901
g475
I00
S'\xddZ\x82\x08\x1a)\xe8?\xa2\xc4\xf5o\t\xa7\x1e\xc0\xd60\x90\xbc\xce-\x05@'
p4902
tp4903
bas(g3631
g1920
tp4904
g3309
s(g595
g1920
tp4905
g3477
s(g3629
g1923
tp4906
(lp4907
g19
(g20
(I0
tp4908
g22
tp4909
Rp4910
(I1
(I3
tp4911
g475
I00
S']\n\xaedR\xb9\x06@~\x02\x88\xad\xe9y\x18\xc0\xc4s\x01\xdf\x05\xeb\x0b@'
p4912
tp4913
bas(g3629
g1920
tp4914
g3533
s(g3708
g1920
tp4915
g3427
ssg2605
(dp4916
sg2815
(dp4917
g1925
(lp4918
I0
aI0
aI0
aI0
aI0
aI0
aI00
aI01
aI00
aI01
aI00
asg1923
(lp4919
I0
aI0
aI0
aI0
aI0
aI0
aI00
aI01
aI00
aI01
aI00
asg1920
(lp4920
I0
aI0
aI0
aI0
aI0
aI0
aI00
aI01
aI01
aI01
aI00
asg3155
(lp4921
I0
aI0
aI0
ag1314
(g216
S'l\x1e]pS`\xd2?'
p4922
tp4923
Rp4924
ag1314
(g216
S'\x06\x1b\xb6\xe9Ei\x18\xc0'
p4925
tp4926
Rp4927
ag1314
(g216
S'\x82\x97\xe8\xa1t:\xe4?'
p4928
tp4929
Rp4930
aI01
aI00
aI00
aI00
aI00
asg1919
(lp4931
I0
aI0
aI0
ag1314
(g216
S'{#\x8a\xa8\xbfB\x02@'
p4932
tp4933
Rp4934
ag1314
(g216
S']@\xdd\xaa0\xf7\x1a\xc0'
p4935
tp4936
Rp4937
ag1314
(g216
S'\xa2\x93\xe4\xf2\xe3\x8f\xe0?'
p4938
tp4939
Rp4940
aI01
aI00
aI00
aI01
aI00
asg1933
(lp4941
I0
aI0
aI0
ag1314
(g216
S'\x88\x8a$/\t\xb1\xb0?'
p4942
tp4943
Rp4944
ag1314
(g216
S'P\xd9\xd7\x88y7\x1e\xc0'
p4945
tp4946
Rp4947
ag1314
(g216
S'\xa0\xa8\xa4gcb\x12@'
p4948
tp4949
Rp4950
aI01
aI00
aI00
aI00
aI00
asg1926
(lp4951
I0
aI0
aI0
ag1314
(g216
S'\xf61, \xdaJ\xf5?'
p4952
tp4953
Rp4954
ag1314
(g216
S'\x8e\x94\xc7_\x9e4\x18\xc0'
p4955
tp4956
Rp4957
ag1314
(g216
S'\x88,&\x8ck,\x0b@'
p4958
tp4959
Rp4960
aI01
aI00
aI00
aI00
aI00
asg1928
(lp4961
I0
aI0
aI0
ag1314
(g216
S'i\x9a\x7f<\xad\xb4\r@'
p4962
tp4963
Rp4964
ag1314
(g216
S'\xf3\xe6\x95\xe8\xfc\xf0\x16\xc0'
p4965
tp4966
Rp4967
ag1314
(g216
S'Y\x96n\x9e\xe7\t\x19@'
p4968
tp4969
Rp4970
aI01
aI00
aI00
aI01
aI00
asg1941
(lp4971
I0
aI0
aI0
ag1314
(g216
S'\xd9\xc6\x84Ad\xa3\n@'
p4972
tp4973
Rp4974
ag1314
(g216
S'Q\xaf\xb2\x18;\x05\x1e\xc0'
p4975
tp4976
Rp4977
ag1314
(g216
S'j8\xf9\x85\xb6\xac\x0f@'
p4978
tp4979
Rp4980
aI01
aI00
aI00
aI01
aI00
asg1922
(lp4981
I0
aI0
aI0
ag1314
(g216
S'N\xcf\x19\xc3\xf23\x0c@'
p4982
tp4983
Rp4984
ag1314
(g216
S'\xa4\xb5r\xad\x0f?\x15\xc0'
p4985
tp4986
Rp4987
ag1314
(g216
S'\xbf~a\xe9h\n\x13@'
p4988
tp4989
Rp4990
aI01
aI00
aI01
aI01
aI00
asg1929
(lp4991
I0
aI0
aI0
ag1314
(g216
S'@\xce\xcef\xfe\xbb\xf0?'
p4992
tp4993
Rp4994
ag1314
(g216
S'#@\xfc\xa1\x9e\xc0\x16\xc0'
p4995
tp4996
Rp4997
ag1314
(g216
S'\xaeKe\x14U\xf8\x13@'
p4998
tp4999
Rp5000
aI01
aI00
aI00
aI00
aI00
assg2900
(dp5001
sg2902
NsS'goal_entities'
p5002
(lp5003
S'square_packing_box1'
p5004
ag1920
asS'binary_edges'
p5005
(dp5006
(g1928
g1929
tp5007
g2608
s(g1933
g1933
tp5008
g2610
s(g1933
g1941
tp5009
g2612
s(g1919
g1919
tp5010
g2770
s(g1928
g3155
tp5011
(lp5012
I00
aI00
aI00
as(g1919
g1941
tp5013
g2614
s(g1919
g1933
tp5014
g2688
s(g1929
g1919
tp5015
g2618
s(g1928
g1922
tp5016
g2620
s(g1926
g1933
tp5017
g2622
s(g3155
g3155
tp5018
(lp5019
I00
aI00
aI00
as(g1919
g1923
tp5020
g2624
s(g1925
g1923
tp5021
g2654
s(g3155
g1929
tp5022
(lp5023
I00
aI00
aI00
as(g1925
g1928
tp5024
g2752
s(g1922
g1920
tp5025
g2638
s(g1923
g3155
tp5026
(lp5027
I00
aI00
aI00
as(g1919
g1929
tp5028
g2642
s(g1933
g1925
tp5029
g2644
s(g1928
g1928
tp5030
g2646
s(g1925
g1929
tp5031
g2726
s(g1941
g1919
tp5032
g2650
s(g1919
g1920
tp5033
g2652
s(g1926
g1941
tp5034
g2634
s(g3155
g1926
tp5035
(lp5036
I00
aI00
aI00
as(g1922
g1922
tp5037
g2656
s(g1919
g1925
tp5038
g2658
s(g1925
g3155
tp5039
(lp5040
I00
aI00
aI00
as(g1923
g1941
tp5041
g2660
s(g1919
g1928
tp5042
g2662
s(g1923
g1933
tp5043
g2664
s(g1941
g1920
tp5044
g2666
s(g1929
g3155
tp5045
(lp5046
I00
aI01
aI00
as(g1926
g3155
tp5047
(lp5048
I00
aI01
aI00
as(g1941
g1926
tp5049
g2668
s(g1925
g1920
tp5050
g2670
s(g1922
g1919
tp5051
g2672
s(g3155
g1941
tp5052
(lp5053
I00
aI00
aI00
as(g1925
g1941
tp5054
g2674
s(g1941
g1925
tp5055
g2676
s(g1933
g1928
tp5056
g2678
s(g1929
g1922
tp5057
g2680
s(g1933
g1919
tp5058
g2682
s(g1929
g1920
tp5059
g2684
s(g1925
g1925
tp5060
g2686
s(g1941
g3155
tp5061
(lp5062
I00
aI00
aI00
as(g1929
g1925
tp5063
g2796
s(g1920
g1925
tp5064
g2798
s(g1920
g1922
tp5065
g2692
s(g1926
g1923
tp5066
g2694
s(g1920
g1926
tp5067
g2696
s(g1929
g1933
tp5068
g2698
s(g1933
g1922
tp5069
g2700
s(g1941
g1923
tp5070
g2702
s(g1933
g1926
tp5071
g2704
s(g1941
g1941
tp5072
g2706
s(g1926
g1919
tp5073
g2708
s(g1923
g1920
tp5074
g2710
s(g1920
g1928
tp5075
g2712
s(g3155
g1920
tp5076
(lp5077
I00
aI00
aI00
as(g1925
g1926
tp5078
g2714
s(g1920
g1929
tp5079
g2716
s(g1933
g1929
tp5080
g2784
s(g1926
g1925
tp5081
g2720
s(g1929
g1923
tp5082
g2722
s(g1926
g1928
tp5083
g2724
s(g3155
g1919
tp5084
(lp5085
I00
aI00
aI00
as(g3155
g1923
tp5086
(lp5087
g2632
aI00
aI01
as(g1923
g1928
tp5088
g2648
s(g1923
g1919
tp5089
g2728
s(g1926
g1920
tp5090
g2730
s(g1928
g1926
tp5091
g2732
s(g1922
g1926
tp5092
g2734
s(g1923
g1923
tp5093
g2736
s(g1933
g3155
tp5094
(lp5095
I00
aI00
aI00
as(g1922
g1941
tp5096
g2738
s(g1923
g1922
tp5097
g2740
s(g1919
g3155
tp5098
(lp5099
I00
aI00
aI00
as(g1923
g1926
tp5100
g2742
s(g1922
g1925
tp5101
g2744
s(g1928
g1919
tp5102
g2746
s(g1933
g1920
tp5103
g2776
s(g1922
g3155
tp5104
(lp5105
I00
aI00
aI00
as(g3155
g1922
tp5106
(lp5107
I00
aI00
aI00
as(g1919
g1922
tp5108
g2750
s(g1923
g1929
tp5109
g2636
s(g1919
g1926
tp5110
g2754
s(g1941
g1928
tp5111
g2756
s(g1928
g1923
tp5112
g2758
s(g1926
g1926
tp5113
g2760
s(g1929
g1928
tp5114
g2762
s(g1922
g1929
tp5115
g2766
s(g1920
g1941
tp5116
g2768
s(g1920
g1933
tp5117
g2748
s(g1929
g1926
tp5118
g2772
s(g1928
g1920
tp5119
g2774
s(g1941
g1922
tp5120
g2764
s(g1933
g1923
tp5121
g2778
s(g1920
g1919
tp5122
g2616
s(g1926
g1922
tp5123
g2780
s(g3155
g1933
tp5124
(lp5125
I00
aI00
aI00
as(g1920
g1923
tp5126
g2782
s(g1928
g1941
tp5127
g2718
s(g1925
g1933
tp5128
g2786
s(g1928
g1925
tp5129
g2788
s(g1941
g1933
tp5130
g2790
s(g1920
g1920
tp5131
g2792
s(g1926
g1929
tp5132
g2794
s(g3155
g1925
tp5133
(lp5134
g2632
aI00
aI00
as(g1922
g1928
tp5135
g2690
s(g1925
g1919
tp5136
g2640
s(g1920
g3155
tp5137
(lp5138
I00
aI00
aI00
as(g1941
g1929
tp5139
g2800
s(g1929
g1941
tp5140
g2802
s(g1928
g1933
tp5141
g2804
s(g1923
g1925
tp5142
g2806
s(g1922
g1933
tp5143
g2808
s(g3155
g1928
tp5144
(lp5145
I00
aI00
aI00
as(g1929
g1929
tp5146
g2810
s(g1922
g1923
tp5147
g2812
s(g1925
g1922
tp5148
g2814
ssg343
g3628
sS'pick_in_way'
p5149
(itrajectory_representation.predicates.pick_in_way
PickInWay
p5150
(dp5151
g715
(dp5152
(g1928
g1929
tp5153
I00
s(g1933
g1933
tp5154
I00
s(g1933
g1941
tp5155
I00
s(g1919
g1919
tp5156
I00
s(g1928
g3155
tp5157
I00
s(g1919
g1941
tp5158
I00
s(g1919
g1933
tp5159
I00
s(g1929
g1919
tp5160
I00
s(g1928
g1922
tp5161
I00
s(g1926
g1933
tp5162
I01
s(g3155
g3155
tp5163
I00
s(g1919
g1923
tp5164
I00
s(g1925
g1923
tp5165
I00
s(g3155
g1929
tp5166
I00
s(g1925
g1928
tp5167
I00
s(g1922
g1920
tp5168
I00
s(g1923
g3155
tp5169
I00
s(g1919
g1929
tp5170
I00
s(g1933
g1925
tp5171
I00
s(g1928
g1928
tp5172
I00
s(g1925
g1929
tp5173
I00
s(g1941
g1919
tp5174
I00
s(g1919
g1920
tp5175
I00
s(g1926
g1941
tp5176
I00
s(g3155
g1926
tp5177
I00
s(g1922
g1922
tp5178
I00
s(g1919
g1925
tp5179
I00
s(g1925
g3155
tp5180
I00
s(g1923
g1941
tp5181
I00
s(g1919
g1928
tp5182
I00
s(g1923
g1933
tp5183
I00
s(g1941
g1920
tp5184
I00
s(g1929
g3155
tp5185
I01
s(g1926
g3155
tp5186
I01
s(g1941
g1926
tp5187
I00
s(g1925
g1920
tp5188
I00
s(g1922
g1919
tp5189
I00
s(g3155
g1941
tp5190
I00
s(g1925
g1941
tp5191
I00
s(g1941
g1925
tp5192
I00
s(g1933
g1928
tp5193
I00
s(g1929
g1922
tp5194
I00
s(g1933
g1919
tp5195
I00
s(g1929
g1920
tp5196
I00
s(g1925
g1925
tp5197
I00
s(g1941
g3155
tp5198
I00
s(g1929
g1925
tp5199
I00
s(g1920
g1925
tp5200
I00
s(g1920
g1922
tp5201
I00
s(g1926
g1923
tp5202
I00
s(g1920
g1926
tp5203
I00
s(g1929
g1933
tp5204
I01
s(g1933
g1922
tp5205
I00
s(g1941
g1923
tp5206
I00
s(g1933
g1926
tp5207
I00
s(g1941
g1941
tp5208
I00
s(g1926
g1919
tp5209
I00
s(g1923
g1920
tp5210
I00
s(g1920
g1928
tp5211
I00
s(g3155
g1920
tp5212
I00
s(g1925
g1926
tp5213
I00
s(g1920
g1929
tp5214
I00
s(g1933
g1929
tp5215
I00
s(g1926
g1925
tp5216
I00
s(g1929
g1923
tp5217
I00
s(g1926
g1928
tp5218
I00
s(g3155
g1919
tp5219
I00
s(g3155
g1923
tp5220
I00
s(g1923
g1928
tp5221
I00
s(g1923
g1919
tp5222
I00
s(g1926
g1920
tp5223
I00
s(g1928
g1926
tp5224
I00
s(g1922
g1926
tp5225
I00
s(g1923
g1923
tp5226
I00
s(g1933
g3155
tp5227
I00
s(g1922
g1941
tp5228
I00
s(g1923
g1922
tp5229
I00
s(g1919
g3155
tp5230
I00
s(g1923
g1926
tp5231
I00
s(g1922
g1925
tp5232
I00
s(g1928
g1919
tp5233
I00
s(g1933
g1920
tp5234
I00
s(g1922
g3155
tp5235
I00
s(g3155
g1922
tp5236
I00
s(g1919
g1922
tp5237
I00
s(g1923
g1929
tp5238
I00
s(g1919
g1926
tp5239
I01
s(g1941
g1928
tp5240
I00
s(g1928
g1923
tp5241
I00
s(g1926
g1926
tp5242
I00
s(g1929
g1928
tp5243
I00
s(g1922
g1929
tp5244
I00
s(g1920
g1941
tp5245
I00
s(g1920
g1933
tp5246
I00
s(g1929
g1926
tp5247
I01
s(g1928
g1920
tp5248
I00
s(g1941
g1922
tp5249
I00
s(g1933
g1923
tp5250
I00
s(g1920
g1919
tp5251
I00
s(g1926
g1922
tp5252
I00
s(g3155
g1933
tp5253
I00
s(g1920
g1923
tp5254
I00
s(g1928
g1941
tp5255
I00
s(g1925
g1933
tp5256
I00
s(g1928
g1925
tp5257
I00
s(g1941
g1933
tp5258
I00
s(g1920
g1920
tp5259
I00
s(g1926
g1929
tp5260
I01
s(g3155
g1925
tp5261
I00
s(g1922
g1928
tp5262
I00
s(g1925
g1919
tp5263
I00
s(g1920
g3155
tp5264
I00
s(g1941
g1929
tp5265
I00
s(g1929
g1941
tp5266
I00
s(g1928
g1933
tp5267
I00
s(g1923
g1925
tp5268
I00
s(g1922
g1933
tp5269
I00
s(g3155
g1928
tp5270
I00
s(g1929
g1929
tp5271
I00
s(g1922
g1923
tp5272
I00
s(g1925
g1922
tp5273
I00
ssg204
(dp5274
g3155
g3659
sg1919
g3688
sg1933
g4152
sg1926
g3719
sg1928
g4171
sg1941
g4190
sg1922
g3748
sg1929
g3766
ssg331
(dp5275
g3155
(lp5276
Vrectangular_packing_box1
p5277
aVsquare_packing_box4
p5278
asg1919
(lp5279
sg1933
(lp5280
Vrectangular_packing_box1
p5281
aVsquare_packing_box4
p5282
asg1926
(lp5283
Vrectangular_packing_box1
p5284
aVsquare_packing_box4
p5285
aVrectangular_packing_box2
p5286
asg1928
(lp5287
sg1941
(lp5288
sg1922
(lp5289
sg1929
(lp5290
Vrectangular_packing_box1
p5291
aVsquare_packing_box4
p5292
assg343
(lp5293
g1928
ag1919
ag1941
ag1925
ag1920
ag1923
ag1922
ag1925
ag1920
ag1923
ag1925
ag1920
ag1923
ag1925
ag1920
ag1923
ag1925
ag1920
ag1923
ag1925
ag1920
ag1923
ag1925
ag1920
ag1923
ag1925
ag1920
ag1923
asg352
g3632
sg2
(dp5294
sg387
g3647
sg707
Nsg713
g3647
sg710
(dp5295
sg732
I01
sg712
I8
sg714
Nsg731
NsbsS'robot_pose'
p5296
g19
(g20
(I0
tp5297
g22
tp5298
Rp5299
(I1
(I1
I3
tp5300
g475
I00
S'fR\xdd8\xd6\x8d\x00@\xbfC|\xd2X\x00\x16\xc0\xc1\xab\x9e\x0b\x900\xd2?'
p5301
tp5302
bsS'is_holding_goal_entity'
p5303
(itrajectory_representation.predicates.is_holding_goal_entity
IsHoldingGoalEntity
p5304
(dp5305
g5002
g5003
sg714
NsbsS'mc_pick_path'
p5306
(dp5307
sS'current_collides'
p5308
g3632
sbsg5002
(lp5309
S'square_packing_box1'
p5310
ag207
asg5005
(dp5311
(g721
g727
tp5312
(lp5313
I00
aI00
aI00
as(g721
g206
tp5314
(lp5315
I00
aI00
aI00
as(g719
g717
tp5316
(lp5317
I00
aI00
aI00
as(g719
g719
tp5318
(lp5319
I00
aI00
aI00
as(g723
g717
tp5320
(lp5321
I00
aI00
aI00
as(g723
g719
tp5322
(lp5323
I00
aI00
aI00
as(g727
g723
tp5324
(lp5325
I00
aI00
aI00
as(g721
g725
tp5326
(lp5327
I00
aI00
aI00
as(g280
g719
tp5328
(lp5329
I00
aI00
aI00
as(g206
g206
tp5330
(lp5331
I00
aI00
aI00
as(g723
g737
tp5332
(lp5333
g2632
aI00
aI01
as(g740
g737
tp5334
(lp5335
I00
aI00
aI00
as(g206
g727
tp5336
(lp5337
I00
aI00
aI00
as(g737
g727
tp5338
(lp5339
I00
aI00
aI00
as(g725
g207
tp5340
(lp5341
I00
aI00
aI01
as(g740
g723
tp5342
(lp5343
I00
aI00
aI00
as(g723
g727
tp5344
(lp5345
I00
aI00
aI00
as(g719
g740
tp5346
(lp5347
g2632
aI00
aI00
as(g721
g721
tp5348
(lp5349
I00
aI00
aI00
as(g737
g721
tp5350
(lp5351
I00
aI00
aI00
as(g717
g723
tp5352
(lp5353
I00
aI00
aI00
as(g723
g207
tp5354
(lp5355
I00
aI00
aI01
as(g280
g717
tp5356
(lp5357
I00
aI00
aI00
as(g206
g280
tp5358
(lp5359
I00
aI00
aI00
as(g725
g725
tp5360
(lp5361
I00
aI00
aI00
as(g723
g740
tp5362
(lp5363
g2632
aI00
aI00
as(g737
g723
tp5364
(lp5365
I00
aI00
aI00
as(g737
g717
tp5366
(lp5367
I00
aI00
aI00
as(g737
g719
tp5368
(lp5369
I00
aI00
aI00
as(g717
g207
tp5370
(lp5371
I00
aI00
aI01
as(g727
g206
tp5372
(lp5373
I00
aI00
aI00
as(g280
g206
tp5374
(lp5375
I00
aI00
aI00
as(g717
g280
tp5376
(lp5377
I00
aI00
aI00
as(g737
g206
tp5378
(lp5379
I00
aI00
aI00
as(g740
g207
tp5380
(lp5381
I00
aI00
aI00
as(g725
g723
tp5382
(lp5383
I00
aI00
aI00
as(g206
g717
tp5384
(lp5385
I00
aI00
aI00
as(g740
g717
tp5386
(lp5387
I00
aI00
aI00
as(g717
g740
tp5388
(lp5389
g2632
aI00
aI00
as(g719
g721
tp5390
(lp5391
I00
aI00
aI00
as(g727
g725
tp5392
(lp5393
I00
aI00
aI00
as(g719
g723
tp5394
(lp5395
I00
aI00
aI00
as(g727
g207
tp5396
(lp5397
I00
aI00
aI01
as(g740
g740
tp5398
(lp5399
I00
aI00
aI00
as(g717
g206
tp5400
(lp5401
I00
aI00
aI00
as(g725
g721
tp5402
(lp5403
I00
aI00
aI00
as(g207
g725
tp5404
(lp5405
I00
aI00
aI00
as(g280
g737
tp5406
(lp5407
g2632
aI00
aI01
as(g207
g280
tp5408
(lp5409
I00
aI00
aI00
as(g727
g719
tp5410
(lp5411
I00
aI00
aI00
as(g719
g725
tp5412
(lp5413
I00
aI00
aI00
as(g717
g737
tp5414
(lp5415
g2632
aI00
aI01
as(g719
g280
tp5416
(lp5417
I00
aI00
aI00
as(g717
g717
tp5418
(lp5419
I00
aI00
aI00
as(g280
g723
tp5420
(lp5421
I00
aI00
aI00
as(g737
g207
tp5422
(lp5423
I00
aI00
aI00
as(g207
g721
tp5424
(lp5425
I00
aI00
aI00
as(g206
g207
tp5426
(lp5427
I00
aI00
aI00
as(g740
g280
tp5428
(lp5429
I00
aI00
aI00
as(g207
g727
tp5430
(lp5431
I00
aI00
aI00
as(g719
g727
tp5432
(lp5433
I00
aI00
aI00
as(g280
g740
tp5434
(lp5435
g2632
aI00
aI00
as(g727
g737
tp5436
(lp5437
g2632
aI00
aI01
as(g280
g721
tp5438
(lp5439
I00
aI00
aI00
as(g206
g723
tp5440
(lp5441
I00
aI00
aI00
as(g206
g737
tp5442
(lp5443
g2632
aI00
aI01
as(g207
g719
tp5444
(lp5445
I00
aI00
aI00
as(g740
g727
tp5446
(lp5447
I00
aI00
aI00
as(g740
g206
tp5448
(lp5449
I00
aI00
aI00
as(g280
g207
tp5450
(lp5451
I00
aI00
aI00
as(g721
g280
tp5452
(lp5453
I00
aI00
aI00
as(g725
g280
tp5454
(lp5455
I00
aI00
aI00
as(g207
g717
tp5456
(lp5457
I00
aI00
aI00
as(g737
g737
tp5458
(lp5459
I00
aI00
aI00
as(g721
g719
tp5460
(lp5461
I00
aI00
aI00
as(g725
g717
tp5462
(lp5463
I00
aI00
aI00
as(g737
g725
tp5464
(lp5465
I00
aI00
aI00
as(g723
g206
tp5466
(lp5467
I00
aI00
aI00
as(g737
g280
tp5468
(lp5469
I00
aI00
aI00
as(g725
g740
tp5470
(lp5471
g2632
aI00
aI00
as(g721
g723
tp5472
(lp5473
I00
aI00
aI00
as(g719
g207
tp5474
(lp5475
I00
aI00
aI01
as(g725
g206
tp5476
(lp5477
I00
aI00
aI00
as(g206
g725
tp5478
(lp5479
I00
aI00
aI00
as(g723
g725
tp5480
(lp5481
I00
aI00
aI00
as(g740
g721
tp5482
(lp5483
I00
aI00
aI00
as(g723
g280
tp5484
(lp5485
I00
aI01
aI00
as(g717
g721
tp5486
(lp5487
I00
aI00
aI00
as(g721
g737
tp5488
(lp5489
g2632
aI00
aI01
as(g280
g280
tp5490
(lp5491
I00
aI00
aI00
as(g727
g721
tp5492
(lp5493
I00
aI00
aI00
as(g725
g727
tp5494
(lp5495
I00
aI00
aI00
as(g723
g721
tp5496
(lp5497
I00
aI00
aI00
as(g723
g723
tp5498
(lp5499
I00
aI00
aI00
as(g727
g280
tp5500
(lp5501
I00
aI00
aI00
as(g721
g207
tp5502
(lp5503
I00
aI00
aI01
as(g717
g725
tp5504
(lp5505
I00
aI00
aI00
as(g719
g737
tp5506
(lp5507
g2632
aI00
aI01
as(g207
g723
tp5508
(lp5509
I00
aI00
aI00
as(g280
g725
tp5510
(lp5511
I00
aI00
aI00
as(g206
g719
tp5512
(lp5513
I00
aI00
aI00
as(g207
g737
tp5514
(lp5515
I00
aI00
aI00
as(g721
g717
tp5516
(lp5517
I00
aI00
aI00
as(g740
g719
tp5518
(lp5519
I00
aI00
aI00
as(g721
g740
tp5520
(lp5521
g2632
aI00
aI00
as(g717
g719
tp5522
(lp5523
I00
aI00
aI00
as(g207
g207
tp5524
(lp5525
I00
aI00
aI00
as(g280
g727
tp5526
(lp5527
I00
aI00
aI00
as(g206
g740
tp5528
(lp5529
g2632
aI00
aI00
as(g727
g740
tp5530
(lp5531
g2632
aI00
aI00
as(g207
g740
tp5532
(lp5533
I00
aI00
aI00
as(g207
g206
tp5534
(lp5535
I00
aI00
aI00
as(g717
g727
tp5536
(lp5537
I00
aI00
aI00
as(g727
g717
tp5538
(lp5539
I00
aI00
aI00
as(g719
g206
tp5540
(lp5541
I00
aI00
aI00
as(g737
g740
tp5542
(lp5543
I00
aI00
aI00
as(g725
g719
tp5544
(lp5545
I00
aI00
aI00
as(g206
g721
tp5546
(lp5547
I00
aI00
aI00
as(g727
g727
tp5548
(lp5549
I00
aI00
aI00
as(g725
g737
tp5550
(lp5551
g2632
aI00
aI01
as(g740
g725
tp5552
(lp5553
I00
aI00
aI00
assg343
g344
sg5149
(itrajectory_representation.predicates.pick_in_way
PickInWay
p5554
(dp5555
g204
(dp5556
g206
g423
sg723
g441
sg719
g493
sg280
g523
sg721
g572
sg717
g610
sg725
g627
sg727
g662
ssg331
(dp5557
g206
(lp5558
sg723
(lp5559
sg719
(lp5560
sg280
(lp5561
Vrectangular_packing_box2
p5562
asg721
(lp5563
sg717
(lp5564
sg725
(lp5565
sg727
(lp5566
ssg343
(lp5567
g721
ag723
ag717
ag719
ag727
ag206
ag740
ag207
ag737
ag725
ag740
ag207
ag737
ag740
ag207
ag737
ag740
ag207
ag737
ag740
ag207
ag737
ag740
ag207
ag737
ag740
ag207
ag737
ag740
ag207
ag737
asg352
g353
sg2
(dp5568
sg387
g388
sg707
Nsg713
g388
sg710
(dp5569
sg712
I8
sg732
I01
sg714
Nsg715
(dp5570
(g721
g727
tp5571
I00
s(g721
g206
tp5572
I00
s(g719
g717
tp5573
I00
s(g719
g719
tp5574
I00
s(g723
g717
tp5575
I00
s(g723
g719
tp5576
I00
s(g727
g723
tp5577
I00
s(g721
g725
tp5578
I00
s(g280
g719
tp5579
I00
s(g206
g206
tp5580
I00
s(g723
g737
tp5581
I00
s(g740
g737
tp5582
I00
s(g206
g727
tp5583
I00
s(g737
g727
tp5584
I00
s(g725
g207
tp5585
I00
s(g740
g723
tp5586
I00
s(g723
g727
tp5587
I00
s(g719
g740
tp5588
I00
s(g721
g721
tp5589
I00
s(g737
g721
tp5590
I00
s(g717
g723
tp5591
I00
s(g723
g207
tp5592
I00
s(g280
g717
tp5593
I00
s(g206
g280
tp5594
I00
s(g725
g725
tp5595
I00
s(g723
g740
tp5596
I00
s(g737
g723
tp5597
I00
s(g737
g717
tp5598
I00
s(g737
g719
tp5599
I00
s(g717
g207
tp5600
I00
s(g727
g206
tp5601
I00
s(g280
g206
tp5602
I00
s(g717
g280
tp5603
I00
s(g737
g206
tp5604
I00
s(g740
g207
tp5605
I00
s(g725
g723
tp5606
I00
s(g206
g717
tp5607
I00
s(g740
g717
tp5608
I00
s(g717
g740
tp5609
I00
s(g719
g721
tp5610
I00
s(g727
g725
tp5611
I00
s(g719
g723
tp5612
I00
s(g727
g207
tp5613
I00
s(g740
g740
tp5614
I00
s(g717
g206
tp5615
I00
s(g725
g721
tp5616
I00
s(g207
g725
tp5617
I00
s(g280
g737
tp5618
I00
s(g207
g280
tp5619
I00
s(g727
g719
tp5620
I00
s(g719
g725
tp5621
I00
s(g717
g737
tp5622
I00
s(g719
g280
tp5623
I00
s(g717
g717
tp5624
I00
s(g280
g723
tp5625
I00
s(g737
g207
tp5626
I00
s(g207
g721
tp5627
I00
s(g206
g207
tp5628
I00
s(g740
g280
tp5629
I00
s(g207
g727
tp5630
I00
s(g719
g727
tp5631
I00
s(g280
g740
tp5632
I00
s(g727
g737
tp5633
I00
s(g280
g721
tp5634
I00
s(g206
g723
tp5635
I00
s(g206
g737
tp5636
I00
s(g207
g719
tp5637
I00
s(g740
g727
tp5638
I00
s(g740
g206
tp5639
I00
s(g280
g207
tp5640
I00
s(g721
g280
tp5641
I00
s(g725
g280
tp5642
I00
s(g207
g717
tp5643
I00
s(g737
g737
tp5644
I00
s(g721
g719
tp5645
I00
s(g725
g717
tp5646
I00
s(g737
g725
tp5647
I00
s(g723
g206
tp5648
I00
s(g737
g280
tp5649
I00
s(g725
g740
tp5650
I00
s(g721
g723
tp5651
I00
s(g719
g207
tp5652
I00
s(g725
g206
tp5653
I00
s(g206
g725
tp5654
I00
s(g723
g725
tp5655
I00
s(g740
g721
tp5656
I00
s(g723
g280
tp5657
I01
s(g717
g721
tp5658
I00
s(g721
g737
tp5659
I00
s(g280
g280
tp5660
I00
s(g727
g721
tp5661
I00
s(g725
g727
tp5662
I00
s(g723
g721
tp5663
I00
s(g723
g723
tp5664
I00
s(g727
g280
tp5665
I00
s(g721
g207
tp5666
I00
s(g717
g725
tp5667
I00
s(g719
g737
tp5668
I00
s(g207
g723
tp5669
I00
s(g280
g725
tp5670
I00
s(g206
g719
tp5671
I00
s(g207
g737
tp5672
I00
s(g721
g717
tp5673
I00
s(g740
g719
tp5674
I00
s(g721
g740
tp5675
I00
s(g717
g719
tp5676
I00
s(g207
g207
tp5677
I00
s(g280
g727
tp5678
I00
s(g206
g740
tp5679
I00
s(g727
g740
tp5680
I00
s(g207
g740
tp5681
I00
s(g207
g206
tp5682
I00
s(g717
g727
tp5683
I00
s(g727
g717
tp5684
I00
s(g719
g206
tp5685
I00
s(g737
g740
tp5686
I00
s(g725
g719
tp5687
I00
s(g206
g721
tp5688
I00
s(g727
g727
tp5689
I00
s(g725
g737
tp5690
I00
s(g740
g725
tp5691
I00
ssg731
Nsbsg5296
g19
(g20
(I0
tp5692
g22
tp5693
Rp5694
(I1
(I1
I3
tp5695
g216
I00
S'\x1e\x1dt\xe3&\x98\x02@\xf8\x8f\xd3\xf9k\xd3\x1d\xc0\xect\xfb\x88\x0e{\x13@'
p5696
tp5697
bsg5303
(itrajectory_representation.predicates.is_holding_goal_entity
IsHoldingGoalEntity
p5698
(dp5699
g5002
g5309
sg714
Nsbsg5306
(dp5700
sg5308
g353
sb.