(itrajectory_representation.shortest_path_pick_and_place_state
ShortestPathPaPState
p0
(dp1
S'place_used'
p2
(dp3
sS'in_region'
p4
(itrajectory_representation.predicates.in_region
InRegion
p5
(dp6
S'problem_env'
p7
NsbsS'ternary_edges'
p8
(dp9
(Vrectangular_packing_box2
p10
g10
S'home_region'
p11
tp12
(lp13
I00
as(Vsquare_packing_box1
p14
S'loading_region'
p15
g15
tp16
(lp17
I00
as(S'entire_region'
p18
Vrectangular_packing_box1
p19
g11
tp20
(lp21
I00
as(Vsquare_packing_box2
p22
Vsquare_packing_box4
p23
g15
tp24
(lp25
I00
as(g11
g11
g11
tp26
(lp27
I00
as(g23
g10
g15
tp28
(lp29
I00
as(g14
Vrectangular_packing_box3
p30
g11
tp31
(lp32
I00
as(g11
Vrectangular_packing_box4
p33
g11
tp34
(lp35
I00
as(g22
g14
g11
tp36
(lp37
I00
as(g30
g33
g15
tp38
(lp39
I00
as(g11
g23
g15
tp40
(lp41
I00
as(g22
g18
g11
tp42
(lp43
I00
as(g15
g11
g15
tp44
(lp45
I00
as(g33
Vsquare_packing_box3
p46
g11
tp47
(lp48
I00
as(g23
g18
g11
tp49
(lp50
I00
as(g22
g19
g15
tp51
(lp52
I00
as(g46
g15
g11
tp53
(lp54
I00
as(g18
g10
g15
tp55
(lp56
I00
as(g11
g18
g11
tp57
(lp58
I00
as(g10
g15
g11
tp59
(lp60
I00
as(g46
g18
g11
tp61
(lp62
I00
as(g14
g14
g15
tp63
(lp64
I00
as(g15
g23
g15
tp65
(lp66
I00
as(g18
g15
g11
tp67
(lp68
I00
as(g18
g22
g11
tp69
(lp70
I00
as(g15
g15
g11
tp71
(lp72
I00
as(g46
g33
g15
tp73
(lp74
I00
as(g11
g11
g15
tp75
(lp76
I00
as(g19
g22
g15
tp77
(lp78
I00
as(g10
g23
g11
tp79
(lp80
I01
as(g46
g14
g11
tp81
(lp82
I00
as(g19
g11
g15
tp83
(lp84
I00
as(g11
g10
g15
tp85
(lp86
I00
as(g19
g30
g15
tp87
(lp88
I00
as(g30
g19
g11
tp89
(lp90
I01
as(g15
g14
g15
tp91
(lp92
I00
as(g23
g22
g15
tp93
(lp94
I00
as(g10
g10
g15
tp95
(lp96
I00
as(g18
g23
g11
tp97
(lp98
I00
as(g15
g11
g11
tp99
(lp100
I00
as(g33
g10
g11
tp101
(lp102
I00
as(g11
g30
g11
tp103
(lp104
I00
as(g22
g19
g11
tp105
(lp106
I01
as(g30
g23
g11
tp107
(lp108
I01
as(g14
g30
g15
tp109
(lp110
I00
as(g46
g22
g11
tp111
(lp112
I00
as(g22
g14
g15
tp113
(lp114
I00
as(g22
g10
g15
tp115
(lp116
I00
as(g18
g22
g15
tp117
(lp118
I00
as(g15
g30
g15
tp119
(lp120
I00
as(g18
g11
g11
tp121
(lp122
I00
as(g33
g11
g11
tp123
(lp124
I00
as(g15
g18
g11
tp125
(lp126
I00
as(g10
g23
g15
tp127
(lp128
I00
as(g46
g10
g15
tp129
(lp130
I00
as(g46
g46
g11
tp131
(lp132
I00
as(g19
g30
g11
tp133
(lp134
I00
as(g18
g10
g11
tp135
(lp136
I00
as(g19
g15
g15
tp137
(lp138
I00
as(g23
g14
g11
tp139
(lp140
I00
as(g14
g14
g11
tp141
(lp142
I00
as(g14
g33
g11
tp143
(lp144
I00
as(g33
g10
g15
tp145
(lp146
I00
as(g23
g19
g15
tp147
(lp148
I00
as(g46
g33
g11
tp149
(lp150
I00
as(g19
g22
g11
tp151
(lp152
I00
as(g10
g19
g15
tp153
(lp154
I00
as(g19
g11
g11
tp155
(lp156
I00
as(g22
g10
g11
tp157
(lp158
I01
as(g10
g46
g11
tp159
(lp160
I00
as(g30
g19
g15
tp161
(lp162
I00
as(g11
g22
g15
tp163
(lp164
I00
as(g18
g11
g15
tp165
(lp166
I00
as(g18
g23
g15
tp167
(lp168
I00
as(g46
g10
g11
tp169
(lp170
I00
as(g30
g46
g15
tp171
(lp172
I00
as(g10
g18
g15
tp173
(lp174
I00
as(g19
g15
g11
tp175
(lp176
I00
as(g46
g22
g15
tp177
(lp178
I00
as(g46
g19
g15
tp179
(lp180
I00
as(g23
g14
g15
tp181
(lp182
I00
as(g11
g30
g15
tp183
(lp184
I00
as(g18
g46
g15
tp185
(lp186
I00
as(g15
g30
g11
tp187
(lp188
I00
as(g15
g22
g15
tp189
(lp190
I00
as(g10
g19
g11
tp191
(lp192
I01
as(g23
g19
g11
tp193
(lp194
I00
as(g15
g46
g11
tp195
(lp196
I00
as(g10
g46
g15
tp197
(lp198
I00
as(g10
g33
g15
tp199
(lp200
I00
as(g30
g23
g15
tp201
(lp202
I00
as(g14
g33
g15
tp203
(lp204
I00
as(g19
g46
g15
tp205
(lp206
I00
as(g11
g14
g15
tp207
(lp208
I00
as(g30
g15
g15
tp209
(lp210
I00
as(g33
g11
g15
tp211
(lp212
I00
as(g14
g19
g11
tp213
(lp214
I01
as(g10
g18
g11
tp215
(lp216
I00
as(g33
g22
g15
tp217
(lp218
I00
as(g30
g10
g15
tp219
(lp220
I00
as(g46
g19
g11
tp221
(lp222
I00
as(g23
g15
g15
tp223
(lp224
I00
as(g22
g11
g11
tp225
(lp226
I00
as(g23
g33
g11
tp227
(lp228
I00
as(g11
g46
g15
tp229
(lp230
I00
as(g15
g19
g15
tp231
(lp232
I00
as(g15
g46
g15
tp233
(lp234
I00
as(g14
g46
g11
tp235
(lp236
I00
as(g19
g46
g11
tp237
(lp238
I00
as(g14
g19
g15
tp239
(lp240
I00
as(g30
g10
g11
tp241
(lp242
I00
as(g10
g22
g11
tp243
(lp244
I00
as(g30
g11
g15
tp245
(lp246
I00
as(g23
g15
g11
tp247
(lp248
I00
as(g15
g33
g15
tp249
(lp250
I00
as(g10
g33
g11
tp251
(lp252
I01
as(g30
g30
g11
tp253
(lp254
I00
as(g33
g33
g11
tp255
(lp256
I00
as(g33
g30
g15
tp257
(lp258
I00
as(g30
g15
g11
tp259
(lp260
I00
as(g46
g23
g11
tp261
(lp262
I00
as(g33
g22
g11
tp263
(lp264
I00
as(g22
g15
g15
tp265
(lp266
I00
as(g30
g18
g15
tp267
(lp268
I00
as(g22
g11
g15
tp269
(lp270
I00
as(g14
g22
g15
tp271
(lp272
I00
as(g23
g33
g15
tp273
(lp274
I00
as(g46
g11
g15
tp275
(lp276
I00
as(g30
g11
g11
tp277
(lp278
I00
as(g15
g33
g11
tp279
(lp280
I00
as(g19
g19
g11
tp281
(lp282
I00
as(g15
g23
g11
tp283
(lp284
I00
as(g23
g46
g11
tp285
(lp286
I00
as(g14
g10
g11
tp287
(lp288
I00
as(g14
g46
g15
tp289
(lp290
I00
as(g33
g14
g15
tp291
(lp292
I00
as(g11
g22
g11
tp293
(lp294
I00
as(g18
g30
g15
tp295
(lp296
I00
as(g30
g14
g11
tp297
(lp298
I00
as(g19
g18
g11
tp299
(lp300
I00
as(g46
g23
g15
tp301
(lp302
I00
as(g46
g30
g15
tp303
(lp304
I00
as(g33
g19
g11
tp305
(lp306
I00
as(g10
g22
g15
tp307
(lp308
I00
as(g33
g15
g11
tp309
(lp310
I00
as(g30
g18
g11
tp311
(lp312
I00
as(g23
g30
g15
tp313
(lp314
I00
as(g10
g14
g11
tp315
(lp316
I00
as(g46
g14
g15
tp317
(lp318
I00
as(g23
g23
g15
tp319
(lp320
I00
as(g33
g33
g15
tp321
(lp322
I00
as(g19
g19
g15
tp323
(lp324
I00
as(g14
g23
g15
tp325
(lp326
I00
as(g23
g22
g11
tp327
(lp328
I00
as(g18
g14
g11
tp329
(lp330
I00
as(g11
g18
g15
tp331
(lp332
I00
as(g11
g19
g15
tp333
(lp334
I00
as(g22
g15
g11
tp335
(lp336
I00
as(g14
g10
g15
tp337
(lp338
I00
as(g19
g14
g15
tp339
(lp340
I00
as(g30
g30
g15
tp341
(lp342
I00
as(g18
g30
g11
tp343
(lp344
I00
as(g22
g30
g15
tp345
(lp346
I00
as(g19
g18
g15
tp347
(lp348
I00
as(g14
g22
g11
tp349
(lp350
I01
as(g33
g19
g15
tp351
(lp352
I00
as(g33
g30
g11
tp353
(lp354
I00
as(g23
g30
g11
tp355
(lp356
I00
as(g14
g11
g15
tp357
(lp358
I00
as(g22
g46
g11
tp359
(lp360
I00
as(g46
g46
g15
tp361
(lp362
I00
as(g33
g18
g11
tp363
(lp364
I00
as(g15
g18
g15
tp365
(lp366
I00
as(g23
g46
g15
tp367
(lp368
I00
as(g15
g19
g11
tp369
(lp370
I00
as(g18
g18
g15
tp371
(lp372
I00
as(g33
g14
g11
tp373
(lp374
I00
as(g14
g23
g11
tp375
(lp376
I01
as(g15
g10
g15
tp377
(lp378
I00
as(g30
g14
g15
tp379
(lp380
I00
as(g46
g11
g11
tp381
(lp382
I00
as(g18
g14
g15
tp383
(lp384
I00
as(g46
g30
g11
tp385
(lp386
I00
as(g30
g22
g11
tp387
(lp388
I00
as(g33
g15
g15
tp389
(lp390
I00
as(g10
g14
g15
tp391
(lp392
I00
as(g19
g10
g11
tp393
(lp394
I00
as(g18
g15
g15
tp395
(lp396
I00
as(g15
g10
g11
tp397
(lp398
I00
as(g14
g18
g11
tp399
(lp400
I00
as(g22
g46
g15
tp401
(lp402
I00
as(g22
g33
g15
tp403
(lp404
I00
as(g23
g11
g11
tp405
(lp406
I00
as(g33
g18
g15
tp407
(lp408
I00
as(g33
g23
g11
tp409
(lp410
I00
as(g18
g33
g15
tp411
(lp412
I00
as(g11
g19
g11
tp413
(lp414
I00
as(g11
g46
g11
tp415
(lp416
I00
as(g19
g14
g11
tp417
(lp418
I00
as(g19
g33
g11
tp419
(lp420
I00
as(g18
g46
g11
tp421
(lp422
I00
as(g22
g30
g11
tp423
(lp424
I00
as(g22
g22
g15
tp425
(lp426
I00
as(g19
g23
g15
tp427
(lp428
I00
as(g23
g11
g15
tp429
(lp430
I00
as(g10
g11
g11
tp431
(lp432
I00
as(g14
g11
g11
tp433
(lp434
I00
as(g19
g10
g15
tp435
(lp436
I00
as(g23
g10
g11
tp437
(lp438
I00
as(g11
g15
g11
tp439
(lp440
I00
as(g18
g18
g11
tp441
(lp442
I00
as(g10
g30
g15
tp443
(lp444
I00
as(g14
g18
g15
tp445
(lp446
I00
as(g15
g22
g11
tp447
(lp448
I00
as(g30
g33
g11
tp449
(lp450
I01
as(g18
g33
g11
tp451
(lp452
I00
as(g14
g15
g11
tp453
(lp454
I00
as(g30
g22
g15
tp455
(lp456
I00
as(g11
g14
g11
tp457
(lp458
I00
as(g18
g19
g15
tp459
(lp460
I00
as(g23
g18
g15
tp461
(lp462
I00
as(g22
g22
g11
tp463
(lp464
I00
as(g19
g23
g11
tp465
(lp466
I01
as(g46
g18
g15
tp467
(lp468
I00
as(g22
g33
g11
tp469
(lp470
I00
as(g11
g23
g11
tp471
(lp472
I00
as(g30
g46
g11
tp473
(lp474
I00
as(g33
g23
g15
tp475
(lp476
I00
as(g23
g23
g11
tp477
(lp478
I00
as(g19
g33
g15
tp479
(lp480
I00
as(g22
g23
g11
tp481
(lp482
I01
as(g46
g15
g15
tp483
(lp484
I00
as(g11
g10
g11
tp485
(lp486
I00
as(g10
g15
g15
tp487
(lp488
I00
as(g11
g33
g15
tp489
(lp490
I00
as(g10
g11
g15
tp491
(lp492
I00
as(g15
g15
g15
tp493
(lp494
I00
as(g22
g18
g15
tp495
(lp496
I00
as(g33
g46
g15
tp497
(lp498
I00
as(g11
g15
g15
tp499
(lp500
I00
as(g10
g30
g11
tp501
(lp502
I00
as(g15
g14
g11
tp503
(lp504
I00
assS'pick_used'
p505
(dp506
Vrectangular_packing_box4
p507
(itrajectory_representation.operator
Operator
p508
(dp509
S'discrete_parameters'
p510
(dp511
S'object'
p512
Vrectangular_packing_box4
p513
ssS'type'
p514
S'two_arm_pick'
p515
sS'continuous_parameters'
p516
(dp517
S'q_goal'
p518
(lp519
cnumpy.core.multiarray
_reconstruct
p520
(cnumpy
ndarray
p521
(I0
tp522
S'b'
p523
tp524
Rp525
(I1
(I3
tp526
cnumpy
dtype
p527
(S'f8'
p528
I0
I1
tp529
Rp530
(I3
S'<'
p531
NNNI-1
I-1
I0
tp532
bI00
S'\xe1\xee\xbc7\x1c\xc9\xc2\xbf\x06{?`*X\x16\xc0Tu\xb9\x08\x1c\xbe\xf1\xbf'
p533
tp534
bag520
(g521
(I0
tp535
g523
tp536
Rp537
(I1
(I3
tp538
g530
I00
S'\x17L\xf0\x92\x88\x80\xcb\xbf\xa9C4\x80H\xfd\x15\xc0\xb3\r\xd4\xcf\xe37\xe9\xbf'
p539
tp540
bag520
(g521
(I0
tp541
g523
tp542
Rp543
(I1
(I3
tp544
g530
I00
S'\xe8@\x96(\x83\n\xf0?=\x0b\xfe\xca\xdf\x01\x17\xc0\xa5b\xce\xdbM\x85\t\xc0'
p545
tp546
basS'is_feasible'
p547
I00
ssS'low_level_motion'
p548
(lp549
g520
(g521
(I0
tp550
g523
tp551
Rp552
(I1
(I3
tp553
g530
I00
S'cR\xdd8\xd6\x8d\x00@\xc1C|\xd2X\x00\x16\xc0\xc1\xab\x9e\x0b\x900\xd2?'
p554
tp555
bag520
(g521
(I0
tp556
g523
tp557
Rp558
(I1
(I3
tp559
g527
(S'f8'
p560
I0
I1
tp561
Rp562
(I3
S'<'
p563
NNNI-1
I-1
I0
tp564
bI00
S'\xf5I-\xc1\xee\x1f\xfa?Zc\rx\x9c\n\x18\xc0?_z:D*\x17@'
p565
tp566
bag520
(g521
(I0
tp567
g523
tp568
Rp569
(I1
(I3
tp570
g562
I00
S'-%/\xa8h{\xf9?\x98fM\xb1\x8f\x0e\x16\xc0\x8f\x17\x96\x89\xffQ\x10@'
p571
tp572
bag543
asbsVrectangular_packing_box2
p573
(itrajectory_representation.operator
Operator
p574
(dp575
g510
(dp576
g512
Vrectangular_packing_box2
p577
ssg514
g515
sg516
(dp578
g518
(lp579
g520
(g521
(I0
tp580
g523
tp581
Rp582
(I1
(I3
tp583
g530
I00
S'\x91\x07\xbd)b\xbe\xfb?\t\x85t\x92\x153\x18\xc0\x82\xc6\xaf\xc59L\xdb\xbf'
p584
tp585
bag520
(g521
(I0
tp586
g523
tp587
Rp588
(I1
(I3
tp589
g530
I00
S'Z%SSZ\x02\x05@E\xa1dRg \x1e\xc0\xdd2Yo\x08\x01\x00@'
p590
tp591
bag520
(g521
(I0
tp592
g523
tp593
Rp594
(I1
(I3
tp595
g530
I00
S'\\\xcb,\x86\xdc\x8b\x00@[\x82\xd4\xc5\xd4\x10\x18\xc02\xc0$\xccy\xd6\xee\xbf'
p596
tp597
basg547
I00
ssg548
(lp598
g520
(g521
(I0
tp599
g523
tp600
Rp601
(I1
(I3
tp602
g530
I00
S'cR\xdd8\xd6\x8d\x00@\xc1C|\xd2X\x00\x16\xc0\xc1\xab\x9e\x0b\x900\xd2?'
p603
tp604
bag520
(g521
(I0
tp605
g523
tp606
Rp607
(I1
(I3
tp608
g562
I00
S'\x16\x9e\xd06H\xd3\x04@\xe5\xe1\xfb\xc5\xb8\xd1\x16\xc0es\x86\x03\xdb\x8e\x17@'
p609
tp610
bag520
(g521
(I0
tp611
g523
tp612
Rp613
(I1
(I3
tp614
g562
I00
S'\xe6rt0\xc6`\x05@\xe8\xf6\xaa\xc7\x03\x10\x17\xc0v\x9e\xc9\x80o\x15\xed\xbf'
p615
tp616
bag594
asbsVrectangular_packing_box3
p617
(itrajectory_representation.operator
Operator
p618
(dp619
g510
(dp620
g512
Vrectangular_packing_box3
p621
ssg514
g515
sg516
(dp622
g518
(lp623
g520
(g521
(I0
tp624
g523
tp625
Rp626
(I1
(I3
tp627
g530
I00
S'\xe5\xfb\xaaE\x8f\xc1\xe5?\xb9\xa6\xc5gY\x12\x1f\xc0])%M\x96\x93\x08@'
p628
tp629
bag520
(g521
(I0
tp630
g523
tp631
Rp632
(I1
(I3
tp633
g530
I00
S'\x94\xc3\xfbV\x05J\xdb?\xff{\xafnm5\x1b\xc0\xcb\xe3\xb3\xbaBQ\x00\xc0'
p634
tp635
bag520
(g521
(I0
tp636
g523
tp637
Rp638
(I1
(I3
tp639
g530
I00
S'\xca\xf0\x99by\xfe\xe7?\xa0"\xc5\xafi\x18\x1f\xc0\x80\x81\xfe\xc56\x0f\x07@'
p640
tp641
basg547
I00
ssg548
(lp642
g520
(g521
(I0
tp643
g523
tp644
Rp645
(I1
(I3
tp646
g530
I00
S'cR\xdd8\xd6\x8d\x00@\xc1C|\xd2X\x00\x16\xc0\xc1\xab\x9e\x0b\x900\xd2?'
p647
tp648
bag520
(g521
(I0
tp649
g523
tp650
Rp651
(I1
(I3
tp652
g562
I00
S'\x0e]\xf2K\xc6E\xf7?\x06\x8c\xb9Ybt\x17\xc0%\xac6\x86\x93\xa8\xdd?'
p653
tp654
bag520
(g521
(I0
tp655
g523
tp656
Rp657
(I1
(I3
tp658
g562
I00
S'Pa\x88\xb1[\x02\xf1?\x1e\x1c\xb3\x8d\x8c\xb7\x19\xc0t\xf6\xbb\xc4\x878\x11@'
p659
tp660
bag632
asbsVrectangular_packing_box1
p661
(itrajectory_representation.operator
Operator
p662
(dp663
g510
(dp664
g512
Vrectangular_packing_box1
p665
ssg514
g515
sg516
(dp666
g518
(lp667
g520
(g521
(I0
tp668
g523
tp669
Rp670
(I1
(I3
tp671
g530
I00
S'Y\xca\xc0\xcf\xd9[\xf0?\xff/#\xddH6\x15\xc0J#\xbeM\xbe$\xf2\xbf'
p672
tp673
bag520
(g521
(I0
tp674
g523
tp675
Rp676
(I1
(I3
tp677
g530
I00
S'J\x87Zb\xfc\x0f\xfa?.\xb0\xcdN\xd7x\x1a\xc0\xb0\xf6\xaa+jH\xfd?'
p678
tp679
bag520
(g521
(I0
tp680
g523
tp681
Rp682
(I1
(I3
tp683
g530
I00
S'&1>0\x8a\x8c\xf9?\x93\x90>\x82\xfb\xec\x1a\xc0\xef\x9c\x19\x05S\xe5\xf8?'
p684
tp685
bag520
(g521
(I0
tp686
g523
tp687
Rp688
(I1
(I3
tp689
g530
I00
S'\x1d\x94\xe3j\xcc\x8c\xe2?\x88U\x1dv\xaaL\x19\xc0Ig\xce\xd5\x1f~\xd3?'
p690
tp691
bag520
(g521
(I0
tp692
g523
tp693
Rp694
(I1
(I3
tp695
g530
I00
S' \x9e1\xd4y}\xf7?\xc2\xaa\x00\x1e\xfa&\x1b\xc0Z\xa2\xbcma\xc2\x01@'
p696
tp697
basg547
I00
ssg548
(lp698
g520
(g521
(I0
tp699
g523
tp700
Rp701
(I1
(I3
tp702
g530
I00
S'cR\xdd8\xd6\x8d\x00@\xc1C|\xd2X\x00\x16\xc0\xc1\xab\x9e\x0b\x900\xd2?'
p703
tp704
bag520
(g521
(I0
tp705
g523
tp706
Rp707
(I1
(I3
tp708
g562
I00
S'/\xe1\x02^.|\x00@\xb8\xae\xc5\xcfF\x16\x17\xc0\xf8\x01)d\xc5\xf9\xe2?'
p709
tp710
bag520
(g521
(I0
tp711
g523
tp712
Rp713
(I1
(I3
tp714
g562
I00
S'\xe0 ;\x819w\xfd?\xe7\xcc\xc2\xa0\xa5f\x17\xc04\xedq\x1c\x8eK\xfa?'
p715
tp716
bag676
asbsVsquare_packing_box2
p717
(itrajectory_representation.operator
Operator
p718
(dp719
g510
(dp720
g512
Vsquare_packing_box2
p721
ssg514
g515
sg516
(dp722
g518
(lp723
g520
(g521
(I0
tp724
g523
tp725
Rp726
(I1
(I3
tp727
g530
I00
S'\xd7\xf2\xfc\xf7\x04\xce\x07@\xc7Ffi\xc6\xf0\x16\xc0\xc5\xbd\xe5i\xab\xcd\xdf\xbf'
p728
tp729
bag520
(g521
(I0
tp730
g523
tp731
Rp732
(I1
(I3
tp733
g530
I00
S'\x1e\xd3\x8e\xcahk\x08@\xb7\xdbN\x1b\x86\x83\x16\xc06\xe8\xe4\xa8\x83\xc5\xcb\xbf'
p734
tp735
bag520
(g521
(I0
tp736
g523
tp737
Rp738
(I1
(I3
tp739
g530
I00
S'\xd3Ln\x97\x8eR\x0c@\xdc\xe0c\xed\xbf\xe1\x19\xc07v\xab\x11\x1f\xda\xf6?'
p740
tp741
basg547
I00
ssg548
(lp742
g520
(g521
(I0
tp743
g523
tp744
Rp745
(I1
(I3
tp746
g530
I00
S'cR\xdd8\xd6\x8d\x00@\xc1C|\xd2X\x00\x16\xc0\xc1\xab\x9e\x0b\x900\xd2?'
p747
tp748
bag520
(g521
(I0
tp749
g523
tp750
Rp751
(I1
(I3
tp752
g562
I00
S'\x00\xda\x1c<\xfd\xdc\x00@j"\x91\xe3 \x1a\x18\xc0i~!@)\xb0\xdc\xbf'
p753
tp754
bag520
(g521
(I0
tp755
g523
tp756
Rp757
(I1
(I3
tp758
g562
I00
S'\xe6rt0\xc6`\x05@\xe8\xf6\xaa\xc7\x03\x10\x17\xc0v\x9e\xc9\x80o\x15\xed\xbf'
p759
tp760
bag726
asbsVsquare_packing_box3
p761
(itrajectory_representation.operator
Operator
p762
(dp763
g510
(dp764
g512
Vsquare_packing_box3
p765
ssg514
g515
sg516
(dp766
g518
(lp767
g520
(g521
(I0
tp768
g523
tp769
Rp770
(I1
(I3
tp771
g530
I00
S'a\xc8\xacwl\xa9\x05@\x8eL\xa6~\x15\xe6\x1c\xc0\xe1\xc6r\xb24H\xea\xbf'
p772
tp773
bag520
(g521
(I0
tp774
g523
tp775
Rp776
(I1
(I3
tp777
g530
I00
S'9\x1fG5\xaf\r\x0e@\x8c\x1fn\x15\x89\x17 \xc0l\xa7B\x95\x1f/\x01@'
p778
tp779
bag520
(g521
(I0
tp780
g523
tp781
Rp782
(I1
(I3
tp783
g530
I00
S')b<|\xd6D\x05@\xcd\x9b/\xe0\xab\x8c\x1c\xc0\xac-DkM\xdf\xe3\xbf'
p784
tp785
basg547
I00
ssg548
(lp786
g520
(g521
(I0
tp787
g523
tp788
Rp789
(I1
(I3
tp790
g530
I00
S'cR\xdd8\xd6\x8d\x00@\xc1C|\xd2X\x00\x16\xc0\xc1\xab\x9e\x0b\x900\xd2?'
p791
tp792
bag520
(g521
(I0
tp793
g523
tp794
Rp795
(I1
(I3
tp796
g562
I00
S'\x19\xdbXU\x9c\xa8\x04@\xe6\xf1\xeb\xae\xcb\x05\x18\xc0\xce\x9cp\x98\xaf*\xeb?'
p797
tp798
bag520
(g521
(I0
tp799
g523
tp800
Rp801
(I1
(I3
tp802
g562
I00
S'g\x886\x82\xe7\x9e\t@\x81\x00+\xe8\xfe$\x19\xc0m@m\xfd\x93\x06\xf2?'
p803
tp804
bag520
(g521
(I0
tp805
g523
tp806
Rp807
(I1
(I3
tp808
g562
I00
S'\x9a\x9e\xdc\x13\r\n\n@\xf1\xbcp\x07u\xf1\x1a\xc0\xd2JG\xa3\xec%\xd4\xbf'
p809
tp810
bag770
asbsVsquare_packing_box1
p811
(itrajectory_representation.operator
Operator
p812
(dp813
g510
(dp814
g512
Vsquare_packing_box1
p815
ssg514
g515
sg516
(dp816
g518
(lp817
g520
(g521
(I0
tp818
g523
tp819
Rp820
(I1
(I3
tp821
g530
I00
S'\xb8\x9ct\x99Y\x93\x0e@\xa6\x82\x19\x7fa\xb4\x17\xc0\x0c\x07\x97\xeb\xfc\n\x00@'
p822
tp823
bag520
(g521
(I0
tp824
g523
tp825
Rp826
(I1
(I3
tp827
g530
I00
S'\xf0^\xef\x9djg\x0b@\x07\x94\xb6\xd3\x8f~\x18\xc0Bx\x0c\xcbf\xe5\xfe?'
p828
tp829
bag520
(g521
(I0
tp830
g523
tp831
Rp832
(I1
(I3
tp833
g530
I00
S'\xc4\xdc\xf4\xda\x03v\x06@\x94\x18_H\xa8\xe9\x15\xc0D\xab\x1bg,\x98\xe0?'
p834
tp835
basg547
I00
ssg548
(lp836
g520
(g521
(I0
tp837
g523
tp838
Rp839
(I1
(I3
tp840
g530
I00
S'cR\xdd8\xd6\x8d\x00@\xc1C|\xd2X\x00\x16\xc0\xc1\xab\x9e\x0b\x900\xd2?'
p841
tp842
bag832
asbsVsquare_packing_box4
p843
(itrajectory_representation.operator
Operator
p844
(dp845
g510
(dp846
g512
Vsquare_packing_box4
p847
ssg514
g515
sg516
(dp848
g518
(lp849
g520
(g521
(I0
tp850
g523
tp851
Rp852
(I1
(I3
tp853
g530
I00
S'\xb6\xdc\xa0]\xb4\xb3\xed?a\xb9\xcf\x1f\xa8Q\x13\xc0x{\x0cpr\x06\xf8\xbf'
p854
tp855
bag520
(g521
(I0
tp856
g523
tp857
Rp858
(I1
(I3
tp859
g530
I00
S"\xda\xbc\x08\xcd\xa0\xd3\xe8?\x95\xe8\x8e\x11\xcd\xc4\x13\xc0\xf7\xfe\xcd'\xcd\x89\xf6\xbf"
p860
tp861
bag520
(g521
(I0
tp862
g523
tp863
Rp864
(I1
(I3
tp865
g530
I00
S'\xdc4\xec\x12j\xa2\xf1?\x16X\x81\xf7\x02\xe8\x19\xc0\x19\x02n)J!\xf2?'
p866
tp867
basg547
I00
ssg548
(lp868
g520
(g521
(I0
tp869
g523
tp870
Rp871
(I1
(I3
tp872
g530
I00
S'cR\xdd8\xd6\x8d\x00@\xc1C|\xd2X\x00\x16\xc0\xc1\xab\x9e\x0b\x900\xd2?'
p873
tp874
bag520
(g521
(I0
tp875
g523
tp876
Rp877
(I1
(I3
tp878
g562
I00
S'/\xe1\x02^.|\x00@\xb8\xae\xc5\xcfF\x16\x17\xc0\xf8\x01)d\xc5\xf9\xe2?'
p879
tp880
bag520
(g521
(I0
tp881
g523
tp882
Rp883
(I1
(I3
tp884
g562
I00
S'j\xc7\xc0&\x8ag\xf6?h\x9cH4\x7f\xab\x18\xc0\xd8|\x1d\xfc\xcbV\xf2?'
p885
tp886
bag864
asbssS'use_prm'
p887
I01
sS'object_names'
p888
(lp889
S'square_packing_box1'
p890
aS'rectangular_packing_box1'
p891
aS'square_packing_box2'
p892
aS'rectangular_packing_box2'
p893
aS'square_packing_box3'
p894
aS'rectangular_packing_box3'
p895
aS'square_packing_box4'
p896
aS'rectangular_packing_box4'
p897
asg7
NsS'current_holding_collides'
p898
(dp899
Vrectangular_packing_box4
p900
c__builtin__
set
p901
((lp902
tp903
Rp904
sVrectangular_packing_box2
p905
g901
((lp906
I256
aI514
aI449
aI268
aI194
aI219
aI145
aI146
aI538
aI413
aI35
aI36
aI37
aI422
aI220
aI556
aI302
aI303
aI561
aI178
aI179
aI54
aI55
aI443
aI188
aI62
aI63
aI64
aI65
aI66
aI67
aI68
aI69
aI435
aI577
aI205
aI79
aI80
aI210
aI595
aI215
aI89
aI90
aI91
aI92
aI605
aI611
aI550
aI438
aI444
aI114
aI115
aI372
aI376
aI511
atp907
Rp908
sVrectangular_packing_box3
p909
g901
((lp910
I384
aI257
aI133
aI134
aI135
aI136
aI265
aI394
aI580
aI532
aI153
aI154
aI157
aI158
aI159
aI164
aI433
aI564
aI521
aI575
aI452
aI197
aI583
aI328
aI589
aI83
aI346
aI478
aI356
aI229
aI366
aI502
aI121
aI122
atp911
Rp912
sVrectangular_packing_box1
p913
g901
((lp914
I554
aI4
aI5
aI137
aI132
aI517
aI416
aI161
aI34
aI35
aI42
aI43
aI301
aI584
aI178
aI309
aI310
aI55
aI56
aI570
aI187
aI449
aI459
aI70
aI71
aI456
aI201
aI202
aI203
aI162
aI82
aI163
aI84
aI597
aI89
aI92
aI93
aI94
aI607
aI327
aI484
aI233
aI106
aI107
aI108
aI497
aI595
aI379
aI252
aI362
atp915
Rp916
sVsquare_packing_box2
p917
g901
((lp918
I0
aI1
aI393
aI144
aI403
aI541
aI545
aI546
aI555
aI571
aI454
aI342
aI473
aI474
aI367
aI368
aI369
aI370
aI371
aI247
aI248
aI377
aI378
atp919
Rp920
sVsquare_packing_box3
p921
g901
((lp922
I513
aI386
aI387
aI260
aI269
aI270
aI515
aI405
aI280
aI436
aI565
aI440
aI442
aI573
aI193
aI68
aI210
aI339
aI340
aI213
aI220
aI479
aI354
aI613
aI614
aI111
aI112
aI113
aI211
aI245
aI375
aI212
aI381
aI254
aI255
atp923
Rp924
sVsquare_packing_box1
p925
g901
((lp926
I0
aI1
aI546
aI454
aI545
aI393
aI555
aI541
aI144
aI369
aI370
aI371
aI342
aI377
aI378
aI571
aI474
atp927
Rp928
sVsquare_packing_box4
p929
g901
((lp930
I235
aI132
aI517
aI6
aI8
aI301
aI554
aI404
aI416
aI33
aI34
aI607
aI584
aI42
aI43
aI44
aI45
aI456
aI309
aI56
aI186
aI187
aI189
aI459
aI196
aI71
aI72
aI203
aI162
aI595
aI84
aI93
aI94
aI95
aI327
aI484
aI233
aI106
aI107
aI108
aI445
aI497
aI503
aI252
aI234
aI383
atp931
Rp932
ssS'reachable_regions_while_holding'
p933
(lp934
(g507
g15
tp935
a(g573
g15
tp936
a(g617
g15
tp937
a(g661
g15
tp938
a(g717
g15
tp939
a(g761
g15
tp940
a(g811
g15
tp941
a(g843
g15
tp942
a(g507
g11
tp943
a(g761
g11
tp944
a(g843
g11
tp945
asS'object_poses'
p946
(dp947
Vrectangular_packing_box4
p948
g520
(g521
(I0
tp949
g523
tp950
Rp951
(I1
(I1
I3
tp952
g530
I00
S'\x98\x1e]pS`\xd2?\x16\x1b\xb6\xe9Ei\x18\xc0\x82\x97\xe8\xa1t:\xe4?'
p953
tp954
bsVrectangular_packing_box2
p955
g520
(g521
(I0
tp956
g523
tp957
Rp958
(I1
(I1
I3
tp959
g530
I00
S'x#\x8a\xa8\xbfB\x02@]@\xdd\xaa0\xf7\x1a\xc0\xa2\x93\xe4\xf2\xe3\x8f\xe0?'
p960
tp961
bsVrectangular_packing_box3
p962
g520
(g521
(I0
tp963
g523
tp964
Rp965
(I1
(I1
I3
tp966
g530
I00
S'\xbc\xa2$/\t\xb1\xb0?p\xd9\xd7\x88y7\x1e\xc0\xa1\xa8\xa4gcb\x12@'
p967
tp968
bsVrectangular_packing_box1
p969
g520
(g521
(I0
tp970
g523
tp971
Rp972
(I1
(I1
I3
tp973
g530
I00
S'\xf81, \xdaJ\xf5?\x90\x94\xc7_\x9e4\x18\xc0\x88,&\x8ck,\x0b@'
p974
tp975
bsVsquare_packing_box2
p976
g520
(g521
(I0
tp977
g523
tp978
Rp979
(I1
(I1
I3
tp980
g530
I00
S'\xb3\x99\x7f<\xad\xb4\r@\xd8\xe5\x95\xe8\xfc\xf0\x16\xc0Y\x96n\x9e\xe7\t\x19@'
p981
tp982
bsVsquare_packing_box3
p983
g520
(g521
(I0
tp984
g523
tp985
Rp986
(I1
(I1
I3
tp987
g530
I00
S'2\xc7\x84Ad\xa3\n@\xae\xaf\xb2\x18;\x05\x1e\xc0j8\xf9\x85\xb6\xac\x0f@'
p988
tp989
bsVsquare_packing_box1
p990
g520
(g521
(I0
tp991
g523
tp992
Rp993
(I1
(I1
I3
tp994
g530
I00
S'\x15\xcf\x19\xc3\xf23\x0c@\x8b\xb5r\xad\x0f?\x15\xc0\xbf~a\xe9h\n\x13@'
p995
tp996
bsVsquare_packing_box4
p997
g520
(g521
(I0
tp998
g523
tp999
Rp1000
(I1
(I1
I3
tp1001
g530
I00
S'V\xce\xcef\xfe\xbb\xf0?J@\xfc\xa1\x9e\xc0\x16\xc0\xaeKe\x14U\xf8\x13@'
p1002
tp1003
bssS'place_in_way'
p1004
(itrajectory_representation.predicates.place_in_way
PlaceInWay
p1005
(dp1006
S'mc_path_to_entity'
p1007
(dp1008
(g14
g11
tp1009
(lp1010
g520
(g521
(I0
tp1011
g523
tp1012
Rp1013
(I1
(I3
tp1014
g530
I00
S'\xba\x9ct\x99Y\x93\x0e@\xa6\x82\x19\x7fa\xb4\x17\xc0\x0c\x07\x97\xeb\xfc\n\x00@'
p1015
tp1016
bag520
(g521
(I0
tp1017
g523
tp1018
Rp1019
(I1
(I3
tp1020
g562
I00
S'\xcb\x1a\x84\x1d\\\x9c\x08@\xec\xcbi\xc9#;\x18\xc0\xbf\xf24g\x02T\x05@'
p1021
tp1022
bag520
(g521
(I0
tp1023
g523
tp1024
Rp1025
(I1
(I3
tp1026
g562
I00
S'\xf8d\x877\x12\xfd\x04@h\xdbW\x9a\x83\x8e\x16\xc0\x87\xf16\xb9\x03k\x05@'
p1027
tp1028
bag520
(g521
(I0
tp1029
g523
tp1030
Rp1031
(I1
(I3
tp1032
g562
I00
S'\xc7\xc7\x06s\xd6\xa3\xff?3\x91\xe4\x97\xb5\x07\x16\xc0\x1bW\xbc\xbfY:\x06@'
p1033
tp1034
bag520
(g521
(I0
tp1035
g523
tp1036
Rp1037
(I1
(I3
tp1038
g562
I00
S'\x85\\2\xba\x0b5\xf5?I\r\x06\xd10\xfb\x15\xc0\x9e\x11\xee\xd8\xb9\xd7\xf5?'
p1039
tp1040
bag520
(g521
(I0
tp1041
g523
tp1042
Rp1043
(I1
(I3
tp1044
g562
I00
S'v\xb8^\x85\xa7[\xea?x\xbe\xff2t\x8d\x13\xc0\x88\x85\x8cCyH\xf6?'
p1045
tp1046
bag520
(g521
(I0
tp1047
g523
tp1048
Rp1049
(I1
(I3
tp1050
g562
I00
S'\xc2\xda(e\x83\x1a\xeb?\x8au\x8d3\xa6E\x11\xc0\xb4c\x1b\xed_\xfd\xfa?'
p1051
tp1052
bag520
(g521
(I0
tp1053
g523
tp1054
Rp1055
(I1
(I3
tp1056
g562
I00
S'\xe4u**\x0e5\xe9?\xaa\xfd\r\xed\xc4\xf6\r\xc0\x0fDE0\x1f\x0b\xfe?'
p1057
tp1058
bag520
(g521
(I0
tp1059
g523
tp1060
Rp1061
(I1
(I3
tp1062
g562
I00
S'\x06\x11,\xef\x98O\xe7??\x10\x01s=b\t\xc04\x92\xb79o\x8c\x00@'
p1063
tp1064
bag520
(g521
(I0
tp1065
g523
tp1066
Rp1067
(I1
(I3
tp1068
g562
I00
S'\x92\xaf\xf3P\x96O\xc2?(\xa1:\x8er}\x05\xc0\xd4_\x91\xb3\xffL\x02@'
p1069
tp1070
bas(g10
g11
tp1071
(lp1072
g520
(g521
(I0
tp1073
g523
tp1074
Rp1075
(I1
(I3
tp1076
g530
I00
S'\x98\x07\xbd)b\xbe\xfb?\t\x85t\x92\x153\x18\xc0\xb00\xe9\xb77m\x17@'
p1077
tp1078
bag520
(g521
(I0
tp1079
g523
tp1080
Rp1081
(I1
(I3
tp1082
g562
I00
S'N\xcd\xaa\x1e;\x0f\xee?&\xa8j\x7f\xa2\xe5\x17\xc0\xc1rR\xf6\xd1Y\xe0\xbf'
p1083
tp1084
bag520
(g521
(I0
tp1085
g523
tp1086
Rp1087
(I1
(I3
tp1088
g562
I00
S'\xe4\x9e\xb7\xac\xe0!\xeb?\x8a\x83\x10\xb1\xa2\xad\x15\xc0\x9aS\xfbY\xaf\x8f\xd2\xbf'
p1089
tp1090
bag520
(g521
(I0
tp1091
g523
tp1092
Rp1093
(I1
(I3
tp1094
g562
I00
S"\xb2&6mg)\xe8?\x99\xe0G'\x16\xe0\x13\xc0\xc8oL\xf5\x17p\xe6\xbf"
p1095
tp1096
bag520
(g521
(I0
tp1097
g523
tp1098
Rp1099
(I1
(I3
tp1100
g562
I00
S'`\xc8Aw-\x81\xeb?/\xc3\xe6O\x04\xca\x10\xc0\x8a\xb7K)\x91{\xe4\xbf'
p1101
tp1102
bag520
(g521
(I0
tp1103
g523
tp1104
Rp1105
(I1
(I3
tp1106
g562
I00
S'\xe1\xc6\xc7\xa7\x12X\xe7?\x98\x99\xb0\x9a\xfb\xdb\x0b\xc0R\t\x1b)\xeae\xe0\xbf'
p1107
tp1108
bag520
(g521
(I0
tp1109
g523
tp1110
Rp1111
(I1
(I3
tp1112
g562
I00
S'p\xf1\xbdc^\x84\xf1?"\x88LL\xf9D\x06\xc0~w\r\xe9m\x0f\x19@'
p1113
tp1114
bas(g30
g11
tp1115
(lp1116
g520
(g521
(I0
tp1117
g523
tp1118
Rp1119
(I1
(I3
tp1120
g530
I00
S'\xe4\xfb\xaaE\x8f\xc1\xe5?\xb7\xa6\xc5gY\x12\x1f\xc0])%M\x96\x93\x08@'
p1121
tp1122
bag520
(g521
(I0
tp1123
g523
tp1124
Rp1125
(I1
(I3
tp1126
g562
I00
S'\xd23W\xd6\xdd\xe3\xe6?\xdc\xcai,~\xa9\x1c\xc0\xe4\x03\x93/\x16_\x04\xc0'
p1127
tp1128
bag520
(g521
(I0
tp1129
g523
tp1130
Rp1131
(I1
(I3
tp1132
g562
I00
S'\xf8\xfc\x1a\xd0\xc9l\xe8?\x8a\x897\x8e~\x98\x1a\xc0\xaf\xf7\xb87\xc6\xa7\x01\xc0'
p1133
tp1134
bag520
(g521
(I0
tp1135
g523
tp1136
Rp1137
(I1
(I3
tp1138
g562
I00
S'\xf8C*\xbe\x14\xcf\xe8?\x81d\xab\xeb\xa8<\x18\xc0\xc8\\\xf4\x8c\xc3\xfa\xfe\xbf'
p1139
tp1140
bag520
(g521
(I0
tp1141
g523
tp1142
Rp1143
(I1
(I3
tp1144
g562
I00
S'\xd0\xcb\x13\x8f\xaa\x9d\xed?\x90\x01<]3\x06\x16\xc0F\xf1\xe7x32\x02\xc0'
p1145
tp1146
bag520
(g521
(I0
tp1147
g523
tp1148
Rp1149
(I1
(I3
tp1150
g562
I00
S'l[\xc4\x16<\xe6\xe9?\xa6\xa0\x90\x84X\x9f\x13\xc0\xc2\xd74Q\x00\xaf\xff\xbf'
p1151
tp1152
bag520
(g521
(I0
tp1153
g523
tp1154
Rp1155
(I1
(I3
tp1156
g562
I00
S"\xaeJ\xbd\x1936\xec?\x04\x13\xd4'\x9f\x88\x10\xc0\x805qo\xb6\xe6\xff\xbf"
p1157
tp1158
bag520
(g521
(I0
tp1159
g523
tp1160
Rp1161
(I1
(I3
tp1162
g562
I00
S'\xf09\xb6\x1c*\x86\xee?\xc4\n/\x96\xcb\xe3\n\xc0\xa0\xc9\xd6F6\x0f\x00\xc0'
p1163
tp1164
bag520
(g521
(I0
tp1165
g523
tp1166
Rp1167
(I1
(I3
tp1168
g562
I00
S'3\xe9\xaf\x05T\x89\xe7?+~\xcb\xd3\x15\xc7\x04\xc0x6(d5\xed\x07@'
p1169
tp1170
bas(g19
g11
tp1171
(lp1172
g520
(g521
(I0
tp1173
g523
tp1174
Rp1175
(I1
(I3
tp1176
g530
I00
S'X\xca\xc0\xcf\xd9[\xf0?\xff/#\xddH6\x15\xc0F\xa4\xd4\xc0\xcb\x98\x14@'
p1177
tp1178
bag520
(g521
(I0
tp1179
g523
tp1180
Rp1181
(I1
(I3
tp1182
g562
I00
S'A\x17\xef\x80|\x96\xed?\xac\xb9\xac\x81\xb2M\x12\xc0 -\xe6\\\xe0\x1a\t\xc0'
p1183
tp1184
bag520
(g521
(I0
tp1185
g523
tp1186
Rp1187
(I1
(I3
tp1188
g562
I00
S'N\nd\xc1\xac\x11\xe6?\xa7\xb8"u\xaf\xb8\x0e\xc0\xfeK\xd2\xea\x9eB\x08\xc0'
p1189
tp1190
bag520
(g521
(I0
tp1191
g523
tp1192
Rp1193
(I1
(I3
tp1194
g562
I00
S'\xf09\xb6\x1c*\x86\xee?\xc4\n/\x96\xcb\xe3\n\xc0\xa0\xc9\xd6F6\x0f\x00\xc0'
p1195
tp1196
bag520
(g521
(I0
tp1197
g523
tp1198
Rp1199
(I1
(I3
tp1200
g562
I00
S'\xf4\xfdJ\x1a(#\xec?H"\x9cD\x1aE\x05\xc0.\xa9\x0b\x87\xf8\xe1\x02@'
p1201
tp1202
bas(g22
g11
tp1203
(lp1204
g520
(g521
(I0
tp1205
g523
tp1206
Rp1207
(I1
(I3
tp1208
g530
I00
S'\xd8\xf2\xfc\xf7\x04\xce\x07@\xc7Ffi\xc6\xf0\x16\xc0<\xd1\xa5\x9d %\x17@'
p1209
tp1210
bag520
(g521
(I0
tp1211
g523
tp1212
Rp1213
(I1
(I3
tp1214
g562
I00
S'\x93\xe8\x9a\xb2\xd1\xfa\x03@\x8aHE%\xee\xed\x15\xc0\xf8hW\x99?x\xfa\xbf'
p1215
tp1216
bag520
(g521
(I0
tp1217
g523
tp1218
Rp1219
(I1
(I3
tp1220
g562
I00
S'!\x83\xc0\xf3W\x85\xff?\xed\x8f\x90/y\xfd\x16\xc06jP\xfe\x98\xf5\xf4\xbf'
p1221
tp1222
bag520
(g521
(I0
tp1223
g523
tp1224
Rp1225
(I1
(I3
tp1226
g562
I00
S'2Z\xe1\xe97J\xf6?\\\x1e`@2v\x16\xc0\xc4\x0c\xcc\x14<\xf9\xf6\xbf'
p1227
tp1228
bag520
(g521
(I0
tp1229
g523
tp1230
Rp1231
(I1
(I3
tp1232
g562
I00
S'tx\x8as\xa8b\xed?\x9ej\x15\xfa\xf0{\x15\xc0@\xed\x9a-\x9eD\xf2\xbf'
p1233
tp1234
bag520
(g521
(I0
tp1235
g523
tp1236
Rp1237
(I1
(I3
tp1238
g562
I00
S"\xb2&6mg)\xe8?\x99\xe0G'\x16\xe0\x13\xc0\xc8oL\xf5\x17p\xe6\xbf"
p1239
tp1240
bag520
(g521
(I0
tp1241
g523
tp1242
Rp1243
(I1
(I3
tp1244
g562
I00
S'`\xc8Aw-\x81\xeb?/\xc3\xe6O\x04\xca\x10\xc0\x8a\xb7K)\x91{\xe4\xbf'
p1245
tp1246
bag520
(g521
(I0
tp1247
g523
tp1248
Rp1249
(I1
(I3
tp1250
g562
I00
S'\xe1\xc6\xc7\xa7\x12X\xe7?\x98\x99\xb0\x9a\xfb\xdb\x0b\xc0R\t\x1b)\xeae\xe0\xbf'
p1251
tp1252
bag520
(g521
(I0
tp1253
g523
tp1254
Rp1255
(I1
(I3
tp1256
g562
I00
S'p\xf1\xbdc^\x84\xf1?"\x88LL\xf9D\x06\xc0~w\r\xe9m\x0f\x19@'
p1257
tp1258
bassS'mc_to_entity'
p1259
(dp1260
(g14
g11
tp1261
(lp1262
Vsquare_packing_box2
p1263
aVrectangular_packing_box1
p1264
aVsquare_packing_box4
p1265
as(g10
g11
tp1266
(lp1267
Vrectangular_packing_box1
p1268
aVsquare_packing_box4
p1269
aVrectangular_packing_box4
p1270
as(g30
g11
tp1271
(lp1272
Vrectangular_packing_box1
p1273
aVsquare_packing_box4
p1274
aVrectangular_packing_box4
p1275
as(g19
g11
tp1276
(lp1277
Vsquare_packing_box4
p1278
as(g22
g11
tp1279
(lp1280
Vrectangular_packing_box2
p1281
aVrectangular_packing_box1
p1282
aVsquare_packing_box4
p1283
assS'reachable_entities'
p1284
(lp1285
g573
ag717
ag761
ag811
asS'collides'
p1286
(dp1287
Vrectangular_packing_box4
p1288
g901
((lp1289
I491
aI132
aI517
aI6
aI137
aI138
aI139
aI276
aI152
aI153
aI154
aI157
aI417
aI34
aI547
aI165
aI166
aI424
aI553
aI584
aI521
aI196
aI198
aI456
aI518
aI459
aI338
aI84
aI349
aI350
aI351
aI362
aI107
aI108
aI503
aI249
aI252
aI383
atp1290
Rp1291
sVrectangular_packing_box2
p1292
g901
((lp1293
I256
aI577
aI268
aI194
aI145
aI538
aI413
aI219
aI36
aI37
aI422
aI220
aI561
aI178
aI179
aI54
aI443
aI188
aI63
aI64
aI65
aI66
aI69
aI435
aI205
aI79
aI80
aI595
aI215
aI89
aI90
aI91
aI92
aI444
aI114
aI115
aI376
aI511
atp1294
Rp1295
sVrectangular_packing_box3
p1296
g901
((lp1297
I384
aI257
aI134
aI265
aI394
aI532
aI580
aI158
aI159
aI164
aI433
aI564
aI575
aI452
aI583
aI328
aI589
aI83
aI478
aI356
aI229
aI366
aI502
atp1298
Rp1299
sVrectangular_packing_box1
p1300
g901
((lp1301
I4
aI5
aI137
aI132
aI416
aI161
aI34
aI35
aI554
aI43
aI301
aI584
aI309
aI310
aI55
aI56
aI570
aI187
aI449
aI70
aI327
aI456
aI201
aI202
aI203
aI162
aI595
aI84
aI597
aI93
aI94
aI607
aI484
aI233
aI106
aI107
aI108
aI497
aI252
atp1302
Rp1303
sVsquare_packing_box2
p1304
g901
((lp1305
I0
aI1
aI546
aI545
aI555
aI403
aI367
aI368
aI369
aI370
aI371
aI342
aI377
aI378
aI571
aI541
aI474
atp1306
Rp1307
sVsquare_packing_box3
p1308
g901
((lp1309
I513
aI386
aI260
aI269
aI270
aI405
aI280
aI436
aI565
aI440
aI573
aI193
aI68
aI210
aI339
aI340
aI213
aI479
aI354
aI613
aI614
aI111
aI112
aI113
aI211
aI245
aI375
aI212
aI381
aI254
aI255
atp1310
Rp1311
sVsquare_packing_box1
p1312
g901
((lp1313
I0
aI1
aI546
aI454
aI555
aI369
aI370
aI371
aI342
aI378
aI571
aI541
atp1314
Rp1315
sVsquare_packing_box4
p1316
g901
((lp1317
I235
aI132
aI517
aI8
aI416
aI33
aI34
aI607
aI554
aI43
aI44
aI301
aI584
aI56
aI186
aI187
aI459
aI196
aI71
aI456
aI203
aI162
aI84
aI93
aI94
aI95
aI327
aI484
aI233
aI234
aI107
aI108
aI497
aI252
aI106
atp1318
Rp1319
ssg2
g3
sg505
g506
sS'mc_paths'
p1320
(dp1321
sS'robot'
p1322
NsS'reachable_obj_region_pairs'
p1323
(lp1324
sS'sampled_pick_configs_for_objects'
p1325
(dp1326
sS'mc_calls'
p1327
I0
sS'pick_poses'
p1328
g506
sg7
NsS'evaluations'
p1329
(dp1330
(g19
g10
g11
tp1331
I00
s(g22
g10
g11
tp1332
I01
s(g10
g46
g11
tp1333
I00
s(g14
g30
g11
tp1334
I00
s(g22
g14
g11
tp1335
I00
s(g19
g14
g11
tp1336
I00
s(g19
g33
g11
tp1337
I00
s(g22
g30
g11
tp1338
I00
s(g14
g10
g11
tp1339
I00
s(g10
g19
g11
tp1340
I01
s(g30
g14
g11
tp1341
I00
s(g10
g14
g11
tp1342
I00
s(g30
g33
g11
tp1343
I01
s(g10
g23
g11
tp1344
I01
s(g14
g19
g11
tp1345
I01
s(g30
g46
g11
tp1346
I00
s(g30
g19
g11
tp1347
I01
s(g19
g23
g11
tp1348
I01
s(g22
g19
g11
tp1349
I01
s(g30
g23
g11
tp1350
I01
s(g22
g33
g11
tp1351
I00
s(g14
g22
g11
tp1352
I01
s(g22
g23
g11
tp1353
I01
s(g14
g46
g11
tp1354
I00
s(g22
g46
g11
tp1355
I00
s(g19
g46
g11
tp1356
I00
s(g19
g30
g11
tp1357
I00
s(g30
g10
g11
tp1358
I00
s(g10
g22
g11
tp1359
I00
s(g14
g23
g11
tp1360
I01
s(g14
g33
g11
tp1361
I00
s(g10
g33
g11
tp1362
I01
s(g30
g22
g11
tp1363
I00
s(g10
g30
g11
tp1364
I00
s(g19
g22
g11
tp1365
I00
ssS'paths_to_reachable_entities'
p1366
NsS'use_shortest_path'
p1367
I01
sbsS'cached_pick_paths'
p1368
(dp1369
g507
g549
sg573
g598
sg617
g642
sg661
g698
sg717
g742
sg761
g786
sg811
g836
sg843
g868
ssg1286
(dp1370
(Vsquare_packing_box4
p1371
(cnumpy.core.multiarray
scalar
p1372
(g530
S'\x90\xc0\x1f~\xfe\xbb\xf0?'
p1373
tp1374
Rp1375
g1372
(g530
S'8\xdb\xdc\x98\x9e\xc0\x16\xc0'
p1376
tp1377
Rp1378
g1372
(g530
S'\xda\x8c\xd3\x10U\xf8\x13@'
p1379
tp1380
Rp1381
tp1382
tp1383
g1319
s(Vrectangular_packing_box2
p1384
(g1372
(g530
S'\xce\xe30\x98\xbfB\x02@'
p1385
tp1386
Rp1387
g1372
(g530
S'\xf9hq\xc60\xf7\x1a\xc0'
p1388
tp1389
Rp1390
g1372
(g530
S'V\xbc\x91y\xe4\x8f\xe0?'
p1391
tp1392
Rp1393
tp1394
tp1395
g1295
s(Vrectangular_packing_box3
p1396
(g1372
(g530
S'{\x9f\xaaB\x03\xb1\xb0?'
p1397
tp1398
Rp1399
g1372
(g530
S'\x0f\x0b\xb5\xa6y7\x1e\xc0'
p1400
tp1401
Rp1402
g1372
(g530
S'\xe5\xef\xdeQcb\x12@'
p1403
tp1404
Rp1405
tp1406
tp1407
g1299
s(Vrectangular_packing_box4
p1408
(g1372
(g530
S'}\xec.PR`\xd2?'
p1409
tp1410
Rp1411
g1372
(g530
S'\x8fT\xdf\xf9Ei\x18\xc0'
p1412
tp1413
Rp1414
g1372
(g530
S'\xe8\xf9\xd3Fu:\xe4?'
p1415
tp1416
Rp1417
tp1418
tp1419
g1291
s(Vsquare_packing_box2
p1420
(g1372
(g530
S'6\x90.6\xad\xb4\r@'
p1421
tp1422
Rp1423
g1372
(g530
S'7\xc3\r\xf8\xfc\xf0\x16\xc0'
p1424
tp1425
Rp1426
g1372
(g530
S'\xe9\x9d\n\xb8\xe7\t\x19@'
p1427
tp1428
Rp1429
tp1430
tp1431
g1307
s(Vsquare_packing_box3
p1432
(g1372
(g530
S'\xc7\xbc\x8e8d\xa3\n@'
p1433
tp1434
Rp1435
g1372
(g530
S'\xb8\xca\x13\x08;\x05\x1e\xc0'
p1436
tp1437
Rp1438
g1372
(g530
S'\xde\xc9\xa7\xc7\xb6\xac\x0f@'
p1439
tp1440
Rp1441
tp1442
tp1443
g1311
s(Vsquare_packing_box1
p1444
(g1372
(g530
S'N\xb4\xab\x90\xf23\x0c@'
p1445
tp1446
Rp1447
g1372
(g530
S'Q\xf5+\x9d\x0f?\x15\xc0'
p1448
tp1449
Rp1450
g1372
(g530
S'\xe2\x1f\xb6\xf4h\n\x13@'
p1451
tp1452
Rp1453
tp1454
tp1455
g1315
s(Vrectangular_packing_box1
p1456
(g1372
(g530
S'\xa8\xdf\x85\xad\xd9J\xf5?'
p1457
tp1458
Rp1459
g1372
(g530
S'\x14\x05\xfaD\x9e4\x18\xc0'
p1460
tp1461
Rp1462
g1372
(g530
S'\xb13\x85\xcek,\x0b@'
p1463
tp1464
Rp1465
tp1466
tp1467
g1303
ssS'state_saver'
p1468
(igtamp_utils.utils
CustomStateSaver
p1469
(dp1470
S'robot_base_pose'
p1471
g520
(g521
(I0
tp1472
g523
tp1473
Rp1474
(I1
(I1
I3
tp1475
g530
I00
S'fR\xdd8\xd6\x8d\x00@\xbfC|\xd2X\x00\x16\xc0\xc1\xab\x9e\x0b\x900\xd2?'
p1476
tp1477
bsS'held_object'
p1478
NsS'robot_name'
p1479
S'pr2'
p1480
sS'env_id'
p1481
I1
sg946
(dp1482
Vright_wall_1
p1483
g520
(g521
(I0
tp1484
g523
tp1485
Rp1486
(I1
(I4
tp1487
g530
I00
S'H\xe1z\x14\xaeG\x12@&\\\x8f\xc2\xf5(\xd4\xbf\xcc\x7fH\xbf}\x1d\xed?\x00\x00\x00\x00\x00\x00\x00\x00'
p1488
tp1489
bsVc_obst5
p1490
g520
(g521
(I0
tp1491
g523
tp1492
Rp1493
(I1
(I4
tp1494
g530
I00
S"\x9a\xf1q\xbb~\xea\x11@\n8\xbb\xd6O\xb6\xd4?e\xaa`TR'\xed?\xd2\x93\xb1\x82\xa4\x94\x0b@"
p1495
tp1496
bsVentrance_right
p1497
g520
(g521
(I0
tp1498
g523
tp1499
Rp1500
(I1
(I4
tp1501
g530
I00
S'ffffff\n@H\xe1z\x14\xaeG\t\xc0\x9c\xc4 \xb0rh\xc1?\x00\x00\x00\x00\x00\x00\x00\x00'
p1502
tp1503
bsVcomputer_table
p1504
g520
(g521
(I0
tp1505
g523
tp1506
Rp1507
(I1
(I4
tp1508
g530
I00
S'\x00\x00\x00\x00\x00\x00\x13@\x00\x00\x00\x00\x00\x00\xf8\xbf\x96C\x8bl\xe7\xfb\xe7?\xd2!3\x7f|\xd9\x12@'
p1509
tp1510
bsVchair_6b56
p1511
g520
(g521
(I0
tp1512
g523
tp1513
Rp1514
(I1
(I4
tp1515
g530
I00
S'y=\n\xd7\xa3p\xf5?M\xe1z\x14\xaeG\xd1?\x00\x00\x00\x00\x00\x00\x00\x00\xd6$\xfaNBm\n@'
p1516
tp1517
bsVsquare_packing_box3
p1518
g520
(g521
(I0
tp1519
g523
tp1520
Rp1521
(I1
(I4
tp1522
g530
I00
S'8\xc7\x84Ad\xa3\n@\xb4\xaf\xb2\x18;\x05\x1e\xc0L7\x89A`\xe5\xd8?j8\xf9\x85\xb6\xac\x0f@'
p1523
tp1524
bsVsquare_packing_box2
p1525
g520
(g521
(I0
tp1526
g523
tp1527
Rp1528
(I1
(I4
tp1529
g530
I00
S'\xb3\x99\x7f<\xad\xb4\r@\xd8\xe5\x95\xe8\xfc\xf0\x16\xc0L7\x89A`\xe5\xd8?Y\x96n\x9e\xe7\t\x19@'
p1530
tp1531
bsVtable
p1532
g520
(g521
(I0
tp1533
g523
tp1534
Rp1535
(I1
(I4
tp1536
g530
I00
S'\x7f\xf6#EdX\xed?\xac\xffs\x98//\xc0\xbf\x00\x00\x00\x00\x00\x00\x00\x00\x00\x00\x00\x00\x00\x00\x00\x00'
p1537
tp1538
bsVsquare_packing_box1
p1539
g520
(g521
(I0
tp1540
g523
tp1541
Rp1542
(I1
(I4
tp1543
g530
I00
S'\x12\xcf\x19\xc3\xf23\x0c@\x89\xb5r\xad\x0f?\x15\xc0L7\x89A`\xe5\xd8?\xbf~a\xe9h\n\x13@'
p1544
tp1545
bsVback_wall_2
p1546
g520
(g521
(I0
tp1547
g523
tp1548
Rp1549
(I1
(I4
tp1550
g530
I00
S'\xaeG\xe1z\x14.\x13@\x80\x14\xaeG\xe1z\xc4?xX\xa85\xcd\xbb\xf2?\x00\x00\x00\x00\x00\x00\x00\x00'
p1551
tp1552
bsVchair_083c
p1553
g520
(g521
(I0
tp1554
g523
tp1555
Rp1556
(I1
(I4
tp1557
g530
I00
S'\xa4p=\n\xd7\xa3\xe0?333333\xe3\xbf\x00\x00\x00\x00\x00\x00\x00\x00\x00\x00\x00\x00\x00\x00\x00\x00'
p1558
tp1559
bsVback_wall_1
p1560
g520
(g521
(I0
tp1561
g523
tp1562
Rp1563
(I1
(I4
tp1564
g530
I00
S'\xaeG\xe1z\x14.\x13@\x80\x14\xaeG\xe1z\xc4?\xcc\x7fH\xbf}\x1d\xed?\x00\x00\x00\x00\x00\x00\x00\x00'
p1565
tp1566
bsVbottom_wall
p1567
g520
(g521
(I0
tp1568
g523
tp1569
Rp1570
(I1
(I4
tp1571
g530
I00
S'\x00\x00\x00\x00\x00\x00\xfc?\x00\x00\x00\x00\x00\x00\x00\x00\x00\x00\x00\x00\x00\x00\x00\x00\x00\x00\x00\x00\x00\x00\x00\x00'
p1572
tp1573
bsVcup_905a
p1574
g520
(g521
(I0
tp1575
g523
tp1576
Rp1577
(I1
(I4
tp1578
g530
I00
S'\x00\x00\x00\x00\x00\x00\xf0?\x83\xc0\xca\xa1E\xb6\xdb?\x1b/\xdd$\x06\x81\xed?\x00\x00\x00\x00\x00\x00\x00\x00'
p1579
tp1580
bsVplate_496f
p1581
g520
(g521
(I0
tp1582
g523
tp1583
Rp1584
(I1
(I4
tp1585
g530
I00
S"q=\n\xd7\xa3p\xe5?\x9dhW!\xe5'\xdd\xbf\x1b/\xdd$\x06\x81\xed?\x00\x00\x00\x00\x00\x00\x00\x00"
p1586
tp1587
bsVtoaster
p1588
g520
(g521
(I0
tp1589
g523
tp1590
Rp1591
(I1
(I4
tp1592
g530
I00
S')\\\x8f\xc2\xf5(\xf4\xbf\xe0z\x14\xaeG\xe1\xf2\xbf\xb8\x1e\x85\xebQ\xb8\xee?\x89/`\x9b\xf8\x8a\xe4?'
p1593
tp1594
bsVc_obst1
p1595
g520
(g521
(I0
tp1596
g523
tp1597
Rp1598
(I1
(I4
tp1599
g530
I00
S"\xff$\x95\xf6\x8a4\x12@\x1b\xc3S\xe6\xc1\xef\xd7?e\xaa`TR'\xed?\xe0\xbaL\x80\x10\xb3\t@"
p1600
tp1601
bsVrectangular_packing_box4
p1602
g520
(g521
(I0
tp1603
g523
tp1604
Rp1605
(I1
(I4
tp1606
g530
I00
S'\x98\x1e]pS`\xd2?\x16\x1b\xb6\xe9Ei\x18\xc0L7\x89A`\xe5\xd8?\x82\x97\xe8\xa1t:\xe4?'
p1607
tp1608
bsVmicrowave
p1609
g520
(g521
(I0
tp1610
g523
tp1611
Rp1612
(I1
(I4
tp1613
g530
I00
S'\x9a\x99\x99\x99\x99\x99\xf1\xbf\x00\x00\x00\x00\x00\x00\x00@7\x89A`\xe5\xd0\xee?\x00\x00\x00\x00\x00\x00\x00\x00'
p1614
tp1615
bsVc_obst7
p1616
g520
(g521
(I0
tp1617
g523
tp1618
Rp1619
(I1
(I4
tp1620
g530
I00
S"\xfe\x81=\xfa]F\x12@Rf\x922\x8f\r\xdc?e\xaa`TR'\xed?\xa1F+\x03Yi}?"
p1621
tp1622
bsVc_obst6
p1623
g520
(g521
(I0
tp1624
g523
tp1625
Rp1626
(I1
(I4
tp1627
g530
I00
S"\x00\x9b\x11\x01\x95\x83\x12@\xe8\xa7>?}-\xd2?e\xaa`TR'\xed?\xed\xedJ\xfa\x0b\x0c\x04@"
p1628
tp1629
bsVcup_b6af
p1630
g520
(g521
(I0
tp1631
g523
tp1632
Rp1633
(I1
(I4
tp1634
g530
I00
S'R\xb8\x1e\x85\xebQ\xe8?\x9a\x99\x99\x99\x99\x99\xe1?\x1b/\xdd$\x06\x81\xed?\x00\x00\x00\x00\x00\x00\x00\x00'
p1635
tp1636
bsVc_obst4
p1637
g520
(g521
(I0
tp1638
g523
tp1639
Rp1640
(I1
(I4
tp1641
g530
I00
S"n\x08(p\x9bi\x12@\xc0\x8f\x90\x84\x98\xd9\xc1?e\xaa`TR'\xed?\xae\x8f\xee\xf0\x1b\x97\x16@"
p1642
tp1643
bsVrectangular_packing_box2
p1644
g520
(g521
(I0
tp1645
g523
tp1646
Rp1647
(I1
(I4
tp1648
g530
I00
S'x#\x8a\xa8\xbfB\x02@]@\xdd\xaa0\xf7\x1a\xc0L7\x89A`\xe5\xd8?\xa2\x93\xe4\xf2\xe3\x8f\xe0?'
p1649
tp1650
bsVplate_fa76
p1651
g520
(g521
(I0
tp1652
g523
tp1653
Rp1654
(I1
(I4
tp1655
g530
I00
S'=\n\xd7\xa3p=\xf2?\x00\x00\x00\x00\x00\x00\x00\x00\x1b/\xdd$\x06\x81\xed?\x00\x00\x00\x00\x00\x00\x00\x00'
p1656
tp1657
bsVfloorwalls
p1658
g520
(g521
(I0
tp1659
g523
tp1660
Rp1661
(I1
(I4
tp1662
g530
I00
S'\xc7\xcc\xcc\xcc\xcc\xcc\xfc?\x00\x00\x00\x00\x00\x00\x18\xc0H\xe1z\x14\xaeG\xc1?\x16-DT\xfb!\xf9?'
p1663
tp1664
bsVpin_c671
p1665
g520
(g521
(I0
tp1666
g523
tp1667
Rp1668
(I1
(I4
tp1669
g530
I00
S'\xc3\xf5(\\\x8f\xc2\xf1\xbf}?5^\xbaI\x02@\xb8\x1e\x85\xebQ\xb8\xfa?\x00\x00\x00\x00\x00\x00\x00\x00'
p1670
tp1671
bsVc_obst3
p1672
g520
(g521
(I0
tp1673
g523
tp1674
Rp1675
(I1
(I4
tp1676
g530
I00
S"^\xdd\\<%\xa1\x12@\xac\x8b8\x90\xc6\xe6\xd8?e\xaa`TR'\xed?\x1c\x9e\xaarJ\xdd\x16@"
p1677
tp1678
bsVchair_2e39
p1679
g520
(g521
(I0
tp1680
g523
tp1681
Rp1682
(I1
(I4
tp1683
g530
I00
S'hfffff\xee?`fffff\xf2\xbf\x00\x00\x00\x00\x00\x00\x00\x00\x07M\xe8QQF\xf3?'
p1684
tp1685
bsVentrance_left
p1686
g520
(g521
(I0
tp1687
g523
tp1688
Rp1689
(I1
(I4
tp1690
g530
I00
S'\x98\x99\x99\x99\x99\x99\xe9\xbfH\xe1z\x14\xaeG\t\xc0\x9c\xc4 \xb0rh\xc1?\x00\x00\x00\x00\x00\x00\x00\x00'
p1691
tp1692
bsVtop_wall_1
p1693
g520
(g521
(I0
tp1694
g523
tp1695
Rp1696
(I1
(I4
tp1697
g530
I00
S'H\xe1z\x14\xaeG\x12@\x80\x14\xaeG\xe1z\xc4?xX\xa85\xcd\xbb\xf2?\x00\x00\x00\x00\x00\x00\x00\x00'
p1698
tp1699
bsVrectangular_packing_box3
p1700
g520
(g521
(I0
tp1701
g523
tp1702
Rp1703
(I1
(I4
tp1704
g530
I00
S',\xa3$/\t\xb1\xb0?p\xd9\xd7\x88y7\x1e\xc0L7\x89A`\xe5\xd8?\xa1\xa8\xa4gcb\x12@'
p1705
tp1706
bsVshaker
p1707
g520
(g521
(I0
tp1708
g523
tp1709
Rp1710
(I1
(I4
tp1711
g530
I00
S'\n\xd7\xa3p=\n\x01@\x14\xaeG\xe1z\x14\x02@\\\x8f\xc2\xf5(\\\xef?\x00\x00\x00\x00\x00\x00\x00\x00'
p1712
tp1713
bsVc_obst9
p1714
g520
(g521
(I0
tp1715
g523
tp1716
Rp1717
(I1
(I4
tp1718
g530
I00
S"\x91v\x82wVC\x12@0n\xad8\xc7F\xc2\xbfe\xaa`TR'\xed?\xd9R5=\xef\x80\x10@"
p1719
tp1720
bsVplate_835a
p1721
g520
(g521
(I0
tp1722
g523
tp1723
Rp1724
(I1
(I4
tp1725
g530
I00
S'\xf6(\\\x8f\xc2\xf5\xf0?\\\x8f\xc2\xf5(\\\xe7\xbf\x1b/\xdd$\x06\x81\xed?\x00\x00\x00\x00\x00\x00\x00\x00'
p1726
tp1727
bsVcup_58a2
p1728
g520
(g521
(I0
tp1729
g523
tp1730
Rp1731
(I1
(I4
tp1732
g530
I00
S'\x85\xebQ\xb8\x1e\x85\xe3?\xcd\xcc\xcc\xcc\xcc\xcc\xdc?\x1b/\xdd$\x06\x81\xed?\x00\x00\x00\x00\x00\x00\x00\x00'
p1733
tp1734
bsVleft_wall_1
p1735
g520
(g521
(I0
tp1736
g523
tp1737
Rp1738
(I1
(I4
tp1739
g530
I00
S'H\xe1z\x14\xaeG\x12@S\xb8\x1e\x85\xebQ\xe4?\xcc\x7fH\xbf}\x1d\xed?\x00\x00\x00\x00\x00\x00\x00\x00'
p1740
tp1741
bsVc_obst2
p1742
g520
(g521
(I0
tp1743
g523
tp1744
Rp1745
(I1
(I4
tp1746
g530
I00
S"\x01\xf9\xf8\xe06C\x12@\x02d\x9dS@k\xcc?e\xaa`TR'\xed?\x8e\xd1'\xc0\x08~\xfe?"
p1747
tp1748
bsVsquare_packing_box4
p1749
g520
(g521
(I0
tp1750
g523
tp1751
Rp1752
(I1
(I4
tp1753
g530
I00
S'X\xce\xcef\xfe\xbb\xf0?L@\xfc\xa1\x9e\xc0\x16\xc0L7\x89A`\xe5\xd8?\xaeKe\x14U\xf8\x13@'
p1754
tp1755
bsVrectangular_packing_box1
p1756
g520
(g521
(I0
tp1757
g523
tp1758
Rp1759
(I1
(I4
tp1760
g530
I00
S'\xf81, \xdaJ\xf5?\x90\x94\xc7_\x9e4\x18\xc0L7\x89A`\xe5\xd8?\x88,&\x8ck,\x0b@'
p1761
tp1762
bsVpin_371e
p1763
g520
(g521
(I0
tp1764
g523
tp1765
Rp1766
(I1
(I4
tp1767
g530
I00
S'333333\xf3\xbfffffff\xf6?\xb8\x1e\x85\xebQ\xb8\xee?\x00\x00\x00\x00\x00\x00\x00\x00'
p1768
tp1769
bsVfridge
p1770
g520
(g521
(I0
tp1771
g523
tp1772
Rp1773
(I1
(I4
tp1774
g530
I00
S'\xd7\xa3p=\n\xd7\xeb\xbf\x00\x00\x00\x00\x00\x00\x00\xc0\xcd\xcc\xcc\xcc\xcc\xcc\xf8?\x00\x00\x00\x00\x00\x00\x00\x00'
p1775
tp1776
bsVcup_d441
p1777
g520
(g521
(I0
tp1778
g523
tp1779
Rp1780
(I1
(I4
tp1781
g530
I00
S'\n\xd7\xa3p=\n\xef?\x8f\xc2\xf5(\\\x8f\xe2?\x1b/\xdd$\x06\x81\xed?\x00\x00\x00\x00\x00\x00\x00\x00'
p1782
tp1783
bsVshelf2
p1784
g520
(g521
(I0
tp1785
g523
tp1786
Rp1787
(I1
(I4
tp1788
g530
I00
S'\x00\x00\x00\x00\x00\x00\x0e@\xaeG\xe1z\x14\xae\x07@\x9c\xc4 \xb0rh\xc1?\xd2!3\x7f|\xd9\x12@'
p1789
tp1790
bsVtop_wall_2
p1791
g520
(g521
(I0
tp1792
g523
tp1793
Rp1794
(I1
(I4
tp1795
g530
I00
S'H\xe1z\x14\xaeG\x12@\x80\x14\xaeG\xe1z\xc4?\x16HP\xfc\x18\xf3\xfd?\x00\x00\x00\x00\x00\x00\x00\x00'
p1796
tp1797
bsVc_obst0
p1798
g520
(g521
(I0
tp1799
g523
tp1800
Rp1801
(I1
(I4
tp1802
g530
I00
S"\xb8\x088t\x9c7\x12@\xbeE\xf1\x14\xed\x8f\x96\xbfe\xaa`TR'\xed?\xadtI0\xaa\x0c\x13@"
p1803
tp1804
bsVshelf1
p1805
g520
(g521
(I0
tp1806
g523
tp1807
Rp1808
(I1
(I4
tp1809
g530
I00
S'\x00\x00\x00\x00\x00\x00\x13@\xaeG\xe1z\x14\xae\x07@\x9c\xc4 \xb0rh\xc1?\xd2!3\x7f|\xd9\x12@'
p1810
tp1811
bsVsink
p1812
g520
(g521
(I0
tp1813
g523
tp1814
Rp1815
(I1
(I4
tp1816
g530
I00
S'ffffff\xd6?333333\x01@\x9a\x99\x99\x99\x99\x99\xb9\xbf\x00\x00\x00\x00\x00\x00\x00\x00'
p1817
tp1818
bsVpr2
p1819
g520
(g521
(I0
tp1820
g523
tp1821
Rp1822
(I1
(I4
tp1823
g530
I00
S'fR\xdd8\xd6\x8d\x00@\xbfC|\xd2X\x00\x16\xc0\x9a_\x94\xa0\xbf\xd0\xc1?\xc1\xab\x9e\x0b\x900\xd2?'
p1824
tp1825
bsVchair_12d0
p1826
g520
(g521
(I0
tp1827
g523
tp1828
Rp1829
(I1
(I4
tp1830
g530
I00
S'^\xd2\x18\xad\xa3\xaa\xdb?Pf\x83L2r\xc6?\x00\x00\x00\x00\x00\x00\x00\x00\xf8\x81\r\x14M\xa6\x17@'
p1831
tp1832
bsVright_wall_2
p1833
g520
(g521
(I0
tp1834
g523
tp1835
Rp1836
(I1
(I4
tp1837
g530
I00
S'H\xe1z\x14\xaeG\x12@&\\\x8f\xc2\xf5(\xd4\xbfxX\xa85\xcd\xbb\xf2?\x00\x00\x00\x00\x00\x00\x00\x00'
p1838
tp1839
bsVknife_block
p1840
g520
(g521
(I0
tp1841
g523
tp1842
Rp1843
(I1
(I4
tp1844
g530
I00
S'R\xb8\x1e\x85\xebQ\xe0\xbfffffff\x02@`\xe5\xd0"\xdb\xf9\xee?\x00\x00\x00\x00\x00\x00\x00\x00'
p1845
tp1846
bsVleft_wall_2
p1847
g520
(g521
(I0
tp1848
g523
tp1849
Rp1850
(I1
(I4
tp1851
g530
I00
S'H\xe1z\x14\xaeG\x12@S\xb8\x1e\x85\xebQ\xe4?xX\xa85\xcd\xbb\xf2?\x00\x00\x00\x00\x00\x00\x00\x00'
p1852
tp1853
bsVleft_wall
p1854
g520
(g521
(I0
tp1855
g523
tp1856
Rp1857
(I1
(I4
tp1858
g530
I00
S'\x9a\x99\x99\x99\x99\x99\x07@H\xe1z\x14\xaeG\xff?\x9c\xc4 \xb0rh\xc1?\x00\x00\x00\x00\x00\x00\x00\x00'
p1859
tp1860
bsVkitchen
p1861
g520
(g521
(I0
tp1862
g523
tp1863
Rp1864
(I1
(I4
tp1865
g530
I00
S'\x00\x00\x00\x00\x00\x00\x00\x00\x00\x00\x00\x00\x00\x00\x00\x00\x00\x00\x00\x00\x00\x00\x00\x00\x00\x00\x00\x00\x00\x00\x00\x00'
p1866
tp1867
bsVtable2
p1868
g520
(g521
(I0
tp1869
g523
tp1870
Rp1871
(I1
(I4
tp1872
g530
I00
S'\x00\x00\x00\x00\x00\x00\x13@\x80\x14\xaeG\xe1z\xc4?S\x96!\x8euq\xec?\xd2!3\x7f|\xd9\x12@'
p1873
tp1874
bsVc_obst8
p1875
g520
(g521
(I0
tp1876
g523
tp1877
Rp1878
(I1
(I4
tp1879
g530
I00
S"\xa2\x86\xba\xbe\x0e\xfe\x11@\x1c\x88\xaeAcX\xc9?e\xaa`TR'\xed?\xe7\xc6R\xf7\xd5q\x17@"
p1880
tp1881
bsVplate_b4e7
p1882
g520
(g521
(I0
tp1883
g523
tp1884
Rp1885
(I1
(I4
tp1886
g530
I00
S'\x14\xaeG\xe1z\x14\xf2\xbf\x14\xaeG\xe1z\x14\x00@=\n\xd7\xa3p=\xf2?\x00\x00\x00\x00\x00\x00\x00\x00'
p1887
tp1888
bsVcooker
p1889
g520
(g521
(I0
tp1890
g523
tp1891
Rp1892
(I1
(I4
tp1893
g530
I00
S'\xaeG\xe1z\x14\xae\xff?\x85\xebQ\xb8\x1e\x85\xfb?\x00\x00\x00\x00\x00\x00\xe8?\x00\x00\x00\x00\x00\x00\x00\x00'
p1894
tp1895
bsVpin_a091
p1896
g520
(g521
(I0
tp1897
g523
tp1898
Rp1899
(I1
(I4
tp1900
g530
I00
S'\xdb\xf9~j\xbct\xf7\xbf)\\\x8f\xc2\xf5(\x02@\xb8\x1e\x85\xebQ\xb8\xfa?\x00\x00\x00\x00\x00\x00\x00\x00'
p1901
tp1902
bsVside_wall_2
p1903
g520
(g521
(I0
tp1904
g523
tp1905
Rp1906
(I1
(I4
tp1907
g530
I00
S'\xf6\xff\xff\xff\xff\xff\x14@\x00\x00\x00\x00\x00\x00\x00\x00\x9c\xc4 \xb0rh\xc1?\x18-DT\xfb!\xf9?'
p1908
tp1909
bsVside_wall_3
p1910
g520
(g521
(I0
tp1911
g523
tp1912
Rp1913
(I1
(I4
tp1914
g530
I00
S'\x00\x00\x00\x00\x00\x00\xfc?H\xe1z\x14\xaeG\t@\x9c\xc4 \xb0rh\xc1?\x00\x00\x00\x00\x00\x00\x00\x00'
p1915
tp1916
bsVmixer
p1917
g520
(g521
(I0
tp1918
g523
tp1919
Rp1920
(I1
(I4
tp1921
g530
I00
S'\n\xd7\xa3p=\n\xfb?ffffff\x02@d;\xdfO\x8d\x97\xee?\x00\x00\x00\x00\x00\x00\x00\x00'
p1922
tp1923
bsVside_wall_1
p1924
g520
(g521
(I0
tp1925
g523
tp1926
Rp1927
(I1
(I4
tp1928
g530
I00
S'\xec\xff\xff\xff\xff\xff\xfb\xbf\x00\x00\x00\x00\x00\x00\x00\x00\x9c\xc4 \xb0rh\xc1?\x18-DT\xfb!\xf9?'
p1929
tp1930
bsVbottom_wall_1
p1931
g520
(g521
(I0
tp1932
g523
tp1933
Rp1934
(I1
(I4
tp1935
g530
I00
S'H\xe1z\x14\xaeG\x12@\x80\x14\xaeG\xe1z\xc4?\xcc\x7fH\xbf}\x1d\xed?\x00\x00\x00\x00\x00\x00\x00\x00'
p1936
tp1937
bsVcan
p1938
g520
(g521
(I0
tp1939
g523
tp1940
Rp1941
(I1
(I4
tp1942
g530
I00
S'\x00\x00\x00\x00\x00\x00\xf4\xbfH\xe1z\x14\xaeG\xe1\xbf\n\xd7\xa3p=\n\xef?\x00\x00\x00\x00\x00\x00\x00\x00'
p1943
tp1944
bsVright_wall
p1945
g520
(g521
(I0
tp1946
g523
tp1947
Rp1948
(I1
(I4
tp1949
g530
I00
S'\x9a\x99\x99\x99\x99\x99\x07@H\xe1z\x14\xaeG\xff\xbf\x9c\xc4 \xb0rh\xc1?\x00\x00\x00\x00\x00\x00\x00\x00'
p1950
tp1951
bsVcoffe_machine
p1952
g520
(g521
(I0
tp1953
g523
tp1954
Rp1955
(I1
(I4
tp1956
g530
I00
S'\\\x8f\xc2\xf5(\\\xf5\xbf\xb8\x1e\x85\xebQ\xb8\xee?\n\xd7\xa3p=\n\xef?\x00\x00\x00\x00\x00\x00\x00\x00'
p1957
tp1958
bsVcomputer_chair
p1959
g520
(g521
(I0
tp1960
g523
tp1961
Rp1962
(I1
(I4
tp1963
g530
I00
S'\xcd\xcc\xcc\xcc\xcc\xcc\x10@\x00\x00\x00\x00\x00\x00\xf8\xbf\xa00\xb6\x10\xe4\xa9\x95\xbf\x00\x00\x00\x00\x00\x00\x00\x00'
p1964
tp1965
bssS'robot_dof_values'
p1966
g520
(g521
(I0
tp1967
g523
tp1968
Rp1969
(I1
(I39
tp1970
g530
I00
S'\x00\x00\x00\x00\x00\x00\x00\x00\x00\x00\x00\x00\x00\x00\x00\x00\x00\x00\x00\x00\x00\x00\x00\x00\x00\x00\x00\x00\x00\x00\x00\x00\x00\x00\x00\x00\x00\x00\x00\x00\x00\x00\x00\x00\x00\x00\x00\x00\x00\x00\x00\x00\x00\x00\x00\x00\x00\x00\x00\x00\x00\x00\x00\x00\x00\x00\x00\x00\x00\x00\x00\x00\x00\x00\x00\x00\x00\x00\x00\x00\x00\x00\x00\x00\x00\x00\x00\x00\x00\x00\x00\x00\x00\x00\x00\x00@d;\xdfO\x8d\x87?\x00\x00\x00\x00\x00\x00\x00\x00\x00\x00\x00\x00\x00\x00\x00\x00\x00\x00\x00\x00\x00\x00\x00\x00\xec\xed\t\xf1\xcc\xa4\xf4?\x00\x00\x00\x00\x00\x00\xc0\xbcN"\xd0^p\xf8\x00\xc0\x00\x00\x00\x00\x00\x00\x00\x00\x9d\x03\r.\x04V\xe6\xbf\x00\x00\x00\x00\x00\x00\x00\x00\x00\x00\x00\x00\x00\x00\x00\x00\x00\x00\x00\x00\x00\x00\xb6\xbc\x00\x00\x00\x00\x00\x00\x00\x00\x00\x00\x00\x00\x00\x00\xd0\xbc\x00\x00\x00\x00\x00\x00\x00\x00\x00\x00\x00\x00\x00\x00\x00\x00\xec\xed\t\xf1\xcc\xa4\xf4?\x00\x00\x00\x00\x00\x00\xc0\xbcN"\xd0^p\xf8\x00\xc0\x00\x00\x00\x00\x00\x00\x00\x00\xa3\x03\r.\x04V\xe6\xbf\x00\x00\x00\x00\x00\x00\x00\x00\xce9\xe3\xc17\x89\xe1?\x00\x00\x00\x00\x00\x00\xb6\xbc\x00\x00\x00\x00\x00\x00\x00\x00\x00\x00\x00\x00\x00\x00\xe0<\x00\x00\x00\x00\x00\x00\x00\x00'
p1971
tp1972
bsS'is_holding'
p1973
I00
sbsS'holding_collides'
p1974
(dp1975
(Vsquare_packing_box4
p1976
(g1372
(g530
S'\x90\xc0\x1f~\xfe\xbb\xf0?'
p1977
tp1978
Rp1979
g1372
(g530
S'8\xdb\xdc\x98\x9e\xc0\x16\xc0'
p1980
tp1981
Rp1982
g1372
(g530
S'\xda\x8c\xd3\x10U\xf8\x13@'
p1983
tp1984
Rp1985
tp1986
tp1987
g932
s(Vrectangular_packing_box2
p1988
(g1372
(g530
S'\xce\xe30\x98\xbfB\x02@'
p1989
tp1990
Rp1991
g1372
(g530
S'\xf9hq\xc60\xf7\x1a\xc0'
p1992
tp1993
Rp1994
g1372
(g530
S'V\xbc\x91y\xe4\x8f\xe0?'
p1995
tp1996
Rp1997
tp1998
tp1999
g908
s(Vrectangular_packing_box3
p2000
(g1372
(g530
S'{\x9f\xaaB\x03\xb1\xb0?'
p2001
tp2002
Rp2003
g1372
(g530
S'\x0f\x0b\xb5\xa6y7\x1e\xc0'
p2004
tp2005
Rp2006
g1372
(g530
S'\xe5\xef\xdeQcb\x12@'
p2007
tp2008
Rp2009
tp2010
tp2011
g912
s(Vrectangular_packing_box4
p2012
(g1372
(g530
S'}\xec.PR`\xd2?'
p2013
tp2014
Rp2015
g1372
(g530
S'\x8fT\xdf\xf9Ei\x18\xc0'
p2016
tp2017
Rp2018
g1372
(g530
S'\xe8\xf9\xd3Fu:\xe4?'
p2019
tp2020
Rp2021
tp2022
tp2023
g904
s(Vsquare_packing_box2
p2024
(g1372
(g530
S'6\x90.6\xad\xb4\r@'
p2025
tp2026
Rp2027
g1372
(g530
S'7\xc3\r\xf8\xfc\xf0\x16\xc0'
p2028
tp2029
Rp2030
g1372
(g530
S'\xe9\x9d\n\xb8\xe7\t\x19@'
p2031
tp2032
Rp2033
tp2034
tp2035
g920
s(Vsquare_packing_box3
p2036
(g1372
(g530
S'\xc7\xbc\x8e8d\xa3\n@'
p2037
tp2038
Rp2039
g1372
(g530
S'\xb8\xca\x13\x08;\x05\x1e\xc0'
p2040
tp2041
Rp2042
g1372
(g530
S'\xde\xc9\xa7\xc7\xb6\xac\x0f@'
p2043
tp2044
Rp2045
tp2046
tp2047
g924
s(Vsquare_packing_box1
p2048
(g1372
(g530
S'N\xb4\xab\x90\xf23\x0c@'
p2049
tp2050
Rp2051
g1372
(g530
S'Q\xf5+\x9d\x0f?\x15\xc0'
p2052
tp2053
Rp2054
g1372
(g530
S'\xe2\x1f\xb6\xf4h\n\x13@'
p2055
tp2056
Rp2057
tp2058
tp2059
g928
s(Vrectangular_packing_box1
p2060
(g1372
(g530
S'\xa8\xdf\x85\xad\xd9J\xf5?'
p2061
tp2062
Rp2063
g1372
(g530
S'\x14\x05\xfaD\x9e4\x18\xc0'
p2064
tp2065
Rp2066
g1372
(g530
S'\xb13\x85\xcek,\x0b@'
p2067
tp2068
Rp2069
tp2070
tp2071
g916
ssS'parent_ternary_predicates'
p2072
(dp2073
sS'cached_place_paths'
p2074
(dp2075
(g661
g15
tp2076
(lp2077
g520
(g521
(I0
tp2078
g523
tp2079
Rp2080
(I1
(I3
tp2081
g530
I00
S'[\xca\xc0\xcf\xd9[\xf0?\xff/#\xddH6\x15\xc0F\xa4\xd4\xc0\xcb\x98\x14@'
p2082
tp2083
bas(g843
g11
tp2084
(lp2085
g520
(g521
(I0
tp2086
g523
tp2087
Rp2088
(I1
(I3
tp2089
g530
I00
S'\xc0\xdc\xa0]\xb4\xb3\xed?c\xb9\xcf\x1f\xa8Q\x13\xc0:\x0eA\xb8^ \x13@'
p2090
tp2091
bag520
(g521
(I0
tp2092
g523
tp2093
Rp2094
(I1
(I3
tp2095
g562
I00
S"\xaeJ\xbd\x1936\xec?\x04\x13\xd4'\x9f\x88\x10\xc0\x805qo\xb6\xe6\xff\xbf"
p2096
tp2097
bag520
(g521
(I0
tp2098
g523
tp2099
Rp2100
(I1
(I3
tp2101
g562
I00
S'\xf09\xb6\x1c*\x86\xee?\xc4\n/\x96\xcb\xe3\n\xc0\xa0\xc9\xd6F6\x0f\x00\xc0'
p2102
tp2103
bag520
(g521
(I0
tp2104
g523
tp2105
Rp2106
(I1
(I3
tp2107
g562
I00
S'\xf4\xfdJ\x1a(#\xec?H"\x9cD\x1aE\x05\xc0.\xa9\x0b\x87\xf8\xe1\x02@'
p2108
tp2109
bas(g507
g11
tp2110
(lp2111
g520
(g521
(I0
tp2112
g523
tp2113
Rp2114
(I1
(I3
tp2115
g530
I00
S' \xef\xbc7\x1c\xc9\xc2\xbf\x06{?`*X\x16\xc0\xc3\xcf\x15Rt\xb2\x14@'
p2116
tp2117
bag520
(g521
(I0
tp2118
g523
tp2119
Rp2120
(I1
(I3
tp2121
g562
I00
S'\xff\x1dX8\xbe\xd2\xc9?\x91h\xd1{\x1e(\x16\xc0\xee\xfeSI\xc3\xd4\x03\xc0'
p2122
tp2123
bag520
(g521
(I0
tp2124
g523
tp2125
Rp2126
(I1
(I3
tp2127
g562
I00
S'\xcc\x87!\x1f\xfb\x05\xe6?\x14;\x08\xf1<\xc6\x13\xc0V!\xac1j\x94\xc8?'
p2128
tp2129
bag520
(g521
(I0
tp2130
g523
tp2131
Rp2132
(I1
(I3
tp2133
g562
I00
S'`\xc8Aw-\x81\xeb?/\xc3\xe6O\x04\xca\x10\xc0\x8a\xb7K)\x91{\xe4\xbf'
p2134
tp2135
bag520
(g521
(I0
tp2136
g523
tp2137
Rp2138
(I1
(I3
tp2139
g562
I00
S'\xe1\xc6\xc7\xa7\x12X\xe7?\x98\x99\xb0\x9a\xfb\xdb\x0b\xc0R\t\x1b)\xeae\xe0\xbf'
p2140
tp2141
bag520
(g521
(I0
tp2142
g523
tp2143
Rp2144
(I1
(I3
tp2145
g562
I00
S'p\xf1\xbdc^\x84\xf1?"\x88LL\xf9D\x06\xc0~w\r\xe9m\x0f\x19@'
p2146
tp2147
bas(g761
g15
tp2148
(lp2149
g520
(g521
(I0
tp2150
g523
tp2151
Rp2152
(I1
(I3
tp2153
g530
I00
S'b\xc8\xacwl\xa9\x05@\x8fL\xa6~\x15\xe6\x1c\xc0<\xd4\xf5\xbd\xf4\xd8\x15@'
p2154
tp2155
bas(g507
g15
tp2156
(lp2157
g520
(g521
(I0
tp2158
g523
tp2159
Rp2160
(I1
(I3
tp2161
g530
I00
S'\xcd\xee\xbc7\x1c\xc9\xc2\xbf\x08{?`*X\x16\xc0\xc3\xcf\x15Rt\xb2\x14@'
p2162
tp2163
bas(g761
g11
tp2164
(lp2165
g520
(g521
(I0
tp2166
g523
tp2167
Rp2168
(I1
(I3
tp2169
g530
I00
S'e\xc8\xacwl\xa9\x05@\x8fL\xa6~\x15\xe6\x1c\xc0<\xd4\xf5\xbd\xf4\xd8\x15@'
p2170
tp2171
bag520
(g521
(I0
tp2172
g523
tp2173
Rp2174
(I1
(I3
tp2175
g562
I00
S';\x8f\xd5Y\xee\xd5\x01@\x96Vuf4l\x1f\xc0\x08\xe6\xe9\x98\x9f0\xf6\xbf'
p2176
tp2177
bag520
(g521
(I0
tp2178
g523
tp2179
Rp2180
(I1
(I3
tp2181
g562
I00
S'\x06\xbc\xc2\x02\xe5\t\xfa?\x13\x91\xe2\xd9\xb5B\x1e\xc0\xce\xd4\xdb\xc4\xdf\xb1\xf6\xbf'
p2182
tp2183
bag520
(g521
(I0
tp2184
g523
tp2185
Rp2186
(I1
(I3
tp2187
g562
I00
S'\xba)c\x05l\x93\xf4?\x8f\x0f\xa1<\xee\x05\x1c\xc0\xf9-\x16\x17\xc6`\xf8\xbf'
p2188
tp2189
bag520
(g521
(I0
tp2190
g523
tp2191
Rp2192
(I1
(I3
tp2193
g562
I00
S'\xb0\xcfg\xd5._\xe8?\xd6\x8d\xba\x87\x91D\x1a\xc0\xea!\xf73\x0cB\xf7\xbf'
p2194
tp2195
bag520
(g521
(I0
tp2196
g523
tp2197
Rp2198
(I1
(I3
tp2199
g562
I00
S'\xb0\x11@i\x1f\x12\xb4?\x01\xb6C\x19\x0b\x9d\x1a\xc0\xda \xc5\xc8m8\xeb?'
p2200
tp2201
bag520
(g521
(I0
tp2202
g523
tp2203
Rp2204
(I1
(I3
tp2205
g562
I00
S'Dz\xddx\xe9\xf0\xb4?\x9c\xf2\xf6\xf0\xef \x18\xc0\x03\xe5\x88\xf0JN\xf3?'
p2206
tp2207
bag520
(g521
(I0
tp2208
g523
tp2209
Rp2210
(I1
(I3
tp2211
g562
I00
S'\xe4\x02R\xd9\x08\x8c\xc7?2\xc1\xd4;\xf6\xf3\x15\xc0>\x8c\x8fa?0\xd8?'
p2212
tp2213
bag520
(g521
(I0
tp2214
g523
tp2215
Rp2216
(I1
(I3
tp2217
g562
I00
S'\xcc\x87!\x1f\xfb\x05\xe6?\x14;\x08\xf1<\xc6\x13\xc0V!\xac1j\x94\xc8?'
p2218
tp2219
bag520
(g521
(I0
tp2220
g523
tp2221
Rp2222
(I1
(I3
tp2223
g562
I00
S'`\xc8Aw-\x81\xeb?/\xc3\xe6O\x04\xca\x10\xc0\x8a\xb7K)\x91{\xe4\xbf'
p2224
tp2225
bag520
(g521
(I0
tp2226
g523
tp2227
Rp2228
(I1
(I3
tp2229
g562
I00
S'\xe1\xc6\xc7\xa7\x12X\xe7?\x98\x99\xb0\x9a\xfb\xdb\x0b\xc0R\t\x1b)\xeae\xe0\xbf'
p2230
tp2231
bag520
(g521
(I0
tp2232
g523
tp2233
Rp2234
(I1
(I3
tp2235
g562
I00
S'p\xf1\xbdc^\x84\xf1?"\x88LL\xf9D\x06\xc0~w\r\xe9m\x0f\x19@'
p2236
tp2237
bas(g717
g15
tp2238
(lp2239
g520
(g521
(I0
tp2240
g523
tp2241
Rp2242
(I1
(I3
tp2243
g530
I00
S'\xd4\xf2\xfc\xf7\x04\xce\x07@\xc6Ffi\xc6\xf0\x16\xc0;\xd1\xa5\x9d %\x17@'
p2244
tp2245
bas(g717
g11
tp2246
g1204
s(g811
g11
tp2247
g1010
s(g617
g11
tp2248
g1116
s(g617
g15
tp2249
(lp2250
g520
(g521
(I0
tp2251
g523
tp2252
Rp2253
(I1
(I3
tp2254
g530
I00
S'\xe2\xfb\xaaE\x8f\xc1\xe5?\xb2\xa6\xc5gY\x12\x1f\xc0])%M\x96\x93\x08@'
p2255
tp2256
bas(g843
g15
tp2257
(lp2258
g520
(g521
(I0
tp2259
g523
tp2260
Rp2261
(I1
(I3
tp2262
g530
I00
S'\xc8\xdc\xa0]\xb4\xb3\xed?b\xb9\xcf\x1f\xa8Q\x13\xc0:\x0eA\xb8^ \x13@'
p2263
tp2264
bas(g811
g15
tp2265
(lp2266
g520
(g521
(I0
tp2267
g523
tp2268
Rp2269
(I1
(I3
tp2270
g530
I00
S'\xbe\x9ct\x99Y\x93\x0e@\xa3\x82\x19\x7fa\xb4\x17\xc0\x0b\x07\x97\xeb\xfc\n\x00@'
p2271
tp2272
bas(g573
g15
tp2273
(lp2274
g520
(g521
(I0
tp2275
g523
tp2276
Rp2277
(I1
(I3
tp2278
g530
I00
S'\x92\x07\xbd)b\xbe\xfb?\n\x85t\x92\x153\x18\xc0\xb00\xe9\xb77m\x17@'
p2279
tp2280
bas(g573
g11
tp2281
g1072
s(g661
g11
tp2282
g1172
ssS'parent_binary_predicates'
p2283
(dp2284
sS'nodes'
p2285
(dp2286
g18
(lp2287
I0
aI0
aI0
aI0
aI0
aI0
aI00
aI01
aI00
aI01
aI00
asg15
(lp2288
I0
aI0
aI0
aI0
aI0
aI0
aI00
aI01
aI00
aI01
aI00
asg11
(lp2289
I0
aI0
aI0
aI0
aI0
aI0
aI00
aI01
aI01
aI01
aI00
asg33
(lp2290
I0
aI0
aI0
ag1372
(g530
S'\\\x1e]pS`\xd2?'
p2291
tp2292
Rp2293
ag1372
(g530
S'\xf8\x1a\xb6\xe9Ei\x18\xc0'
p2294
tp2295
Rp2296
ag1372
(g530
S'\x82\x97\xe8\xa1t:\xe4?'
p2297
tp2298
Rp2299
aI01
aI00
aI00
aI00
aI00
asg10
(lp2300
I0
aI0
aI0
ag1372
(g530
S'x#\x8a\xa8\xbfB\x02@'
p2301
tp2302
Rp2303
ag1372
(g530
S'T@\xdd\xaa0\xf7\x1a\xc0'
p2304
tp2305
Rp2306
ag1372
(g530
S'\x9a\x93\xe4\xf2\xe3\x8f\xe0?'
p2307
tp2308
Rp2309
aI01
aI00
aI00
aI01
aI00
asg30
(lp2310
I0
aI0
aI0
ag1372
(g530
S'h;$/\t\xb1\xb0?'
p2311
tp2312
Rp2313
ag1372
(g530
S'\xd6\xd8\xd7\x88y7\x1e\xc0'
p2314
tp2315
Rp2316
ag1372
(g530
S'\xa1\xa8\xa4gcb\x12@'
p2317
tp2318
Rp2319
aI01
aI00
aI00
aI00
aI00
asg19
(lp2320
I0
aI0
aI0
ag1372
(g530
S'\x991, \xdaJ\xf5?'
p2321
tp2322
Rp2323
ag1372
(g530
S'5\x94\xc7_\x9e4\x18\xc0'
p2324
tp2325
Rp2326
ag1372
(g530
S'\x88,&\x8ck,\x0b@'
p2327
tp2328
Rp2329
aI01
aI00
aI00
aI00
aI00
asg22
(lp2330
I0
aI0
aI0
ag1372
(g530
S'\xb8\x99\x7f<\xad\xb4\r@'
p2331
tp2332
Rp2333
ag1372
(g530
S'\xde\xe5\x95\xe8\xfc\xf0\x16\xc0'
p2334
tp2335
Rp2336
ag1372
(g530
S'Y\x96n\x9e\xe7\t\x19@'
p2337
tp2338
Rp2339
aI01
aI00
aI00
aI01
aI00
asg46
(lp2340
I0
aI0
aI0
ag1372
(g530
S'1\xc6\x84Ad\xa3\n@'
p2341
tp2342
Rp2343
ag1372
(g530
S'\x98\xae\xb2\x18;\x05\x1e\xc0'
p2344
tp2345
Rp2346
ag1372
(g530
S'j8\xf9\x85\xb6\xac\x0f@'
p2347
tp2348
Rp2349
aI01
aI00
aI00
aI01
aI00
asg14
(lp2350
I0
aI0
aI0
ag1372
(g530
S'\xc6\xcf\x19\xc3\xf23\x0c@'
p2351
tp2352
Rp2353
ag1372
(g530
S'\xd4\xb5r\xad\x0f?\x15\xc0'
p2354
tp2355
Rp2356
ag1372
(g530
S'\xbf~a\xe9h\n\x13@'
p2357
tp2358
Rp2359
aI01
aI00
aI01
aI01
aI00
asg23
(lp2360
I0
aI0
aI0
ag1372
(g530
S'\xcc\xcd\xcef\xfe\xbb\xf0?'
p2361
tp2362
Rp2363
ag1372
(g530
S'\xe6?\xfc\xa1\x9e\xc0\x16\xc0'
p2364
tp2365
Rp2366
ag1372
(g530
S'\xacKe\x14U\xf8\x13@'
p2367
tp2368
Rp2369
aI01
aI00
aI00
aI00
aI00
assS'mc_place_path'
p2370
(dp2371
sS'parent_state'
p2372
NsS'goal_entities'
p2373
(lp2374
Vsquare_packing_box1
p2375
ag11
asS'binary_edges'
p2376
(dp2377
(g22
g23
tp2378
(lp2379
I00
aI00
aI00
as(g22
g33
tp2380
(lp2381
I00
aI00
aI00
as(g30
g46
tp2382
(lp2383
I00
aI00
aI00
as(g30
g30
tp2384
(lp2385
I00
aI00
aI00
as(g10
g46
tp2386
(lp2387
I00
aI00
aI00
as(g10
g30
tp2388
(lp2389
I00
aI00
aI00
as(g23
g10
tp2390
(lp2391
I00
aI00
aI00
as(g22
g14
tp2392
(lp2393
I00
aI00
aI00
as(g19
g30
tp2394
(lp2395
I00
aI01
aI00
as(g33
g33
tp2396
(lp2397
I00
aI00
aI00
as(g10
g15
tp2398
(lp2399
g1372
(g527
(S'b1'
p2400
I0
I1
tp2401
Rp2402
(I3
S'|'
p2403
NNNI-1
I-1
I0
tp2404
bS'\x01'
p2405
tp2406
Rp2407
aI00
aI01
as(g18
g15
tp2408
(lp2409
I00
aI00
aI00
as(g33
g23
tp2410
(lp2411
I00
aI00
aI00
as(g15
g23
tp2412
(lp2413
I00
aI00
aI00
as(g14
g11
tp2414
(lp2415
I00
aI00
aI00
as(g18
g10
tp2416
(lp2417
I00
aI00
aI00
as(g10
g23
tp2418
(lp2419
I00
aI00
aI00
as(g30
g18
tp2420
(lp2421
g2407
aI00
aI00
as(g22
g22
tp2422
(lp2423
I00
aI00
aI00
as(g15
g22
tp2424
(lp2425
I00
aI00
aI00
as(g46
g10
tp2426
(lp2427
I00
aI00
aI00
as(g10
g11
tp2428
(lp2429
I00
aI00
aI00
as(g19
g46
tp2430
(lp2431
I00
aI00
aI00
as(g33
g19
tp2432
(lp2433
I00
aI00
aI00
as(g14
g14
tp2434
(lp2435
I00
aI00
aI00
as(g10
g18
tp2436
(lp2437
g2407
aI00
aI00
as(g15
g10
tp2438
(lp2439
I00
aI00
aI00
as(g15
g46
tp2440
(lp2441
I00
aI00
aI00
as(g15
g30
tp2442
(lp2443
I00
aI00
aI00
as(g46
g11
tp2444
(lp2445
I00
aI00
aI01
as(g23
g33
tp2446
(lp2447
I00
aI01
aI00
as(g19
g33
tp2448
(lp2449
I00
aI01
aI00
as(g46
g19
tp2450
(lp2451
I00
aI00
aI00
as(g15
g33
tp2452
(lp2453
I00
aI00
aI00
as(g18
g11
tp2454
(lp2455
I00
aI00
aI00
as(g14
g10
tp2456
(lp2457
I00
aI00
aI00
as(g33
g46
tp2458
(lp2459
I00
aI00
aI00
as(g18
g46
tp2460
(lp2461
I00
aI00
aI00
as(g46
g18
tp2462
(lp2463
g2407
aI00
aI00
as(g30
g22
tp2464
(lp2465
I00
aI00
aI00
as(g23
g14
tp2466
(lp2467
I00
aI00
aI00
as(g30
g10
tp2468
(lp2469
I00
aI00
aI00
as(g23
g11
tp2470
(lp2471
I00
aI00
aI01
as(g18
g18
tp2472
(lp2473
I00
aI00
aI00
as(g46
g33
tp2474
(lp2475
I00
aI00
aI00
as(g14
g22
tp2476
(lp2477
I00
aI00
aI00
as(g11
g14
tp2478
(lp2479
I00
aI00
aI00
as(g19
g15
tp2480
(lp2481
g2407
aI00
aI01
as(g11
g19
tp2482
(lp2483
I00
aI00
aI00
as(g23
g30
tp2484
(lp2485
I00
aI01
aI00
as(g30
g14
tp2486
(lp2487
I00
aI00
aI00
as(g46
g15
tp2488
(lp2489
g2407
aI00
aI01
as(g30
g19
tp2490
(lp2491
I00
aI00
aI00
as(g46
g46
tp2492
(lp2493
I00
aI00
aI00
as(g19
g10
tp2494
(lp2495
I00
aI00
aI00
as(g15
g11
tp2496
(lp2497
I00
aI00
aI00
as(g11
g22
tp2498
(lp2499
I00
aI00
aI00
as(g33
g11
tp2500
(lp2501
I00
aI00
aI01
as(g18
g19
tp2502
(lp2503
I00
aI00
aI00
as(g11
g23
tp2504
(lp2505
I00
aI00
aI00
as(g30
g23
tp2506
(lp2507
I00
aI00
aI00
as(g19
g18
tp2508
(lp2509
g2407
aI00
aI00
as(g23
g15
tp2510
(lp2511
g2407
aI00
aI01
as(g19
g22
tp2512
(lp2513
I00
aI00
aI00
as(g33
g10
tp2514
(lp2515
I00
aI00
aI00
as(g33
g15
tp2516
(lp2517
g2407
aI00
aI01
as(g11
g30
tp2518
(lp2519
I00
aI00
aI00
as(g18
g23
tp2520
(lp2521
I00
aI00
aI00
as(g18
g33
tp2522
(lp2523
I00
aI00
aI00
as(g19
g11
tp2524
(lp2525
I00
aI00
aI00
as(g22
g19
tp2526
(lp2527
I00
aI00
aI00
as(g14
g19
tp2528
(lp2529
I00
aI00
aI00
as(g11
g46
tp2530
(lp2531
I00
aI00
aI00
as(g15
g15
tp2532
(lp2533
I00
aI00
aI00
as(g22
g30
tp2534
(lp2535
I00
aI00
aI00
as(g14
g46
tp2536
(lp2537
I00
aI00
aI00
as(g15
g14
tp2538
(lp2539
I00
aI00
aI00
as(g10
g33
tp2540
(lp2541
I00
aI00
aI00
as(g15
g19
tp2542
(lp2543
I00
aI00
aI00
as(g14
g18
tp2544
(lp2545
g2407
aI00
aI00
as(g22
g10
tp2546
(lp2547
I00
aI00
aI00
as(g30
g11
tp2548
(lp2549
I00
aI00
aI00
as(g14
g33
tp2550
(lp2551
I00
aI00
aI00
as(g33
g14
tp2552
(lp2553
I00
aI00
aI00
as(g10
g14
tp2554
(lp2555
I00
aI00
aI00
as(g18
g22
tp2556
(lp2557
I00
aI00
aI00
as(g10
g19
tp2558
(lp2559
I00
aI01
aI00
as(g46
g22
tp2560
(lp2561
I00
aI00
aI00
as(g22
g15
tp2562
(lp2563
g2407
aI00
aI01
as(g19
g19
tp2564
(lp2565
I00
aI00
aI00
as(g23
g22
tp2566
(lp2567
I00
aI00
aI00
as(g14
g23
tp2568
(lp2569
I00
aI00
aI00
as(g10
g22
tp2570
(lp2571
I00
aI00
aI00
as(g10
g10
tp2572
(lp2573
I00
aI00
aI00
as(g23
g19
tp2574
(lp2575
I00
aI00
aI00
as(g22
g11
tp2576
(lp2577
I00
aI00
aI00
as(g46
g14
tp2578
(lp2579
I00
aI00
aI00
as(g30
g15
tp2580
(lp2581
g2407
aI00
aI01
as(g11
g10
tp2582
(lp2583
I00
aI00
aI00
as(g19
g14
tp2584
(lp2585
I00
aI00
aI00
as(g33
g30
tp2586
(lp2587
I00
aI00
aI00
as(g11
g15
tp2588
(lp2589
I00
aI00
aI00
as(g22
g46
tp2590
(lp2591
I00
aI00
aI00
as(g18
g30
tp2592
(lp2593
I00
aI00
aI00
as(g22
g18
tp2594
(lp2595
g2407
aI00
aI00
as(g46
g30
tp2596
(lp2597
I00
aI00
aI00
as(g11
g11
tp2598
(lp2599
I00
aI00
aI00
as(g19
g23
tp2600
(lp2601
I00
aI01
aI00
as(g33
g18
tp2602
(lp2603
g2407
aI00
aI00
as(g23
g18
tp2604
(lp2605
g2407
aI00
aI00
as(g11
g18
tp2606
(lp2607
I00
aI00
aI00
as(g11
g33
tp2608
(lp2609
I00
aI00
aI00
as(g46
g23
tp2610
(lp2611
I00
aI00
aI00
as(g23
g46
tp2612
(lp2613
I00
aI00
aI00
as(g30
g33
tp2614
(lp2615
I00
aI00
aI00
as(g15
g18
tp2616
(lp2617
I00
aI00
aI00
as(g14
g30
tp2618
(lp2619
I00
aI00
aI00
as(g33
g22
tp2620
(lp2621
I00
aI00
aI00
as(g23
g23
tp2622
(lp2623
I00
aI00
aI00
as(g14
g15
tp2624
(lp2625
g2407
aI00
aI01
as(g18
g14
tp2626
(lp2627
I00
aI00
aI00
assg1284
g1285
sS'pick_in_way'
p2628
(itrajectory_representation.predicates.pick_in_way
PickInWay
p2629
(dp2630
g1007
(dp2631
g33
g549
sg10
g598
sg30
g642
sg19
g698
sg22
g742
sg46
g786
sg14
g836
sg23
g868
ssg1259
(dp2632
g33
(lp2633
Vrectangular_packing_box1
p2634
aVsquare_packing_box4
p2635
asg10
(lp2636
sg30
(lp2637
Vrectangular_packing_box1
p2638
aVsquare_packing_box4
p2639
asg19
(lp2640
Vrectangular_packing_box1
p2641
aVrectangular_packing_box2
p2642
asg22
(lp2643
sg46
(lp2644
sg14
(lp2645
sg23
(lp2646
Vrectangular_packing_box1
p2647
aVsquare_packing_box4
p2648
assg1284
(lp2649
g22
ag10
ag46
ag18
ag11
ag15
ag14
ag18
ag11
ag15
ag18
ag11
ag15
ag18
ag11
ag15
ag18
ag11
ag15
ag18
ag11
ag15
ag18
ag11
ag15
ag18
ag11
ag15
asg1286
g1287
sg2
(dp2650
sg505
g506
sg1322
Nsg1328
g506
sg1325
(dp2651
sg1327
I8
sg1367
I01
sg7
Nsg1329
(dp2652
(g22
g23
tp2653
I00
s(g22
g33
tp2654
I00
s(g30
g46
tp2655
I00
s(g30
g30
tp2656
I00
s(g10
g46
tp2657
I00
s(g10
g30
tp2658
I00
s(g23
g10
tp2659
I00
s(g22
g14
tp2660
I00
s(g19
g30
tp2661
I01
s(g33
g33
tp2662
I00
s(g10
g15
tp2663
I00
s(g18
g15
tp2664
I00
s(g33
g23
tp2665
I00
s(g15
g23
tp2666
I00
s(g14
g11
tp2667
I00
s(g18
g10
tp2668
I00
s(g10
g23
tp2669
I00
s(g30
g18
tp2670
I00
s(g22
g22
tp2671
I00
s(g15
g22
tp2672
I00
s(g46
g10
tp2673
I00
s(g10
g11
tp2674
I00
s(g19
g46
tp2675
I00
s(g33
g19
tp2676
I00
s(g14
g14
tp2677
I00
s(g10
g18
tp2678
I00
s(g15
g10
tp2679
I00
s(g15
g46
tp2680
I00
s(g15
g30
tp2681
I00
s(g46
g11
tp2682
I00
s(g23
g33
tp2683
I01
s(g19
g33
tp2684
I01
s(g46
g19
tp2685
I00
s(g15
g33
tp2686
I00
s(g18
g11
tp2687
I00
s(g14
g10
tp2688
I00
s(g33
g46
tp2689
I00
s(g18
g46
tp2690
I00
s(g46
g18
tp2691
I00
s(g30
g22
tp2692
I00
s(g23
g14
tp2693
I00
s(g30
g10
tp2694
I00
s(g23
g11
tp2695
I00
s(g18
g18
tp2696
I00
s(g46
g33
tp2697
I00
s(g14
g22
tp2698
I00
s(g11
g14
tp2699
I00
s(g19
g15
tp2700
I00
s(g11
g19
tp2701
I00
s(g23
g30
tp2702
I01
s(g30
g14
tp2703
I00
s(g46
g15
tp2704
I00
s(g30
g19
tp2705
I00
s(g46
g46
tp2706
I00
s(g19
g10
tp2707
I00
s(g15
g11
tp2708
I00
s(g11
g22
tp2709
I00
s(g33
g11
tp2710
I00
s(g18
g19
tp2711
I00
s(g11
g23
tp2712
I00
s(g30
g23
tp2713
I00
s(g19
g18
tp2714
I00
s(g23
g15
tp2715
I00
s(g19
g22
tp2716
I00
s(g33
g10
tp2717
I00
s(g33
g15
tp2718
I00
s(g11
g30
tp2719
I00
s(g18
g23
tp2720
I00
s(g18
g33
tp2721
I00
s(g19
g11
tp2722
I00
s(g22
g19
tp2723
I00
s(g14
g19
tp2724
I00
s(g11
g46
tp2725
I00
s(g15
g15
tp2726
I00
s(g22
g30
tp2727
I00
s(g14
g46
tp2728
I00
s(g15
g14
tp2729
I00
s(g10
g33
tp2730
I00
s(g15
g19
tp2731
I00
s(g14
g18
tp2732
I00
s(g22
g10
tp2733
I00
s(g30
g11
tp2734
I00
s(g14
g33
tp2735
I00
s(g33
g14
tp2736
I00
s(g10
g14
tp2737
I00
s(g18
g22
tp2738
I00
s(g10
g19
tp2739
I01
s(g46
g22
tp2740
I00
s(g22
g15
tp2741
I00
s(g19
g19
tp2742
I00
s(g23
g22
tp2743
I00
s(g14
g23
tp2744
I00
s(g10
g22
tp2745
I00
s(g10
g10
tp2746
I00
s(g23
g19
tp2747
I00
s(g22
g11
tp2748
I00
s(g46
g14
tp2749
I00
s(g30
g15
tp2750
I00
s(g11
g10
tp2751
I00
s(g19
g14
tp2752
I00
s(g33
g30
tp2753
I00
s(g11
g15
tp2754
I00
s(g22
g46
tp2755
I00
s(g18
g30
tp2756
I00
s(g22
g18
tp2757
I00
s(g46
g30
tp2758
I00
s(g11
g11
tp2759
I00
s(g19
g23
tp2760
I01
s(g33
g18
tp2761
I00
s(g23
g18
tp2762
I00
s(g11
g18
tp2763
I00
s(g11
g33
tp2764
I00
s(g46
g23
tp2765
I00
s(g23
g46
tp2766
I00
s(g30
g33
tp2767
I00
s(g15
g18
tp2768
I00
s(g14
g30
tp2769
I00
s(g33
g22
tp2770
I00
s(g23
g23
tp2771
I00
s(g14
g15
tp2772
I00
s(g18
g14
tp2773
I00
ssg1366
NsbsS'robot_pose'
p2774
g520
(g521
(I0
tp2775
g523
tp2776
Rp2777
(I1
(I1
I3
tp2778
g530
I00
S'fR\xdd8\xd6\x8d\x00@\xbfC|\xd2X\x00\x16\xc0\xc1\xab\x9e\x0b\x900\xd2?'
p2779
tp2780
bsS'is_holding_goal_entity'
p2781
(itrajectory_representation.predicates.is_holding_goal_entity
IsHoldingGoalEntity
p2782
(dp2783
g2373
g2374
sg7
NsbsS'mc_pick_path'
p2784
(dp2785
sS'current_collides'
p2786
g1287
sb.