(itrajectory_representation.shortest_path_pick_and_place_state
ShortestPathPaPState
p0
(dp1
S'place_used'
p2
(dp3
sS'in_region'
p4
(itrajectory_representation.predicates.in_region
InRegion
p5
(dp6
S'problem_env'
p7
NsbsS'ternary_edges'
p8
(dp9
(Vrectangular_packing_box2
p10
g10
S'home_region'
p11
tp12
(lp13
I00
as(Vsquare_packing_box1
p14
S'loading_region'
p15
g15
tp16
(lp17
I00
as(S'entire_region'
p18
Vrectangular_packing_box1
p19
g11
tp20
(lp21
I00
as(Vsquare_packing_box2
p22
Vsquare_packing_box4
p23
g15
tp24
(lp25
I00
as(g11
g11
g11
tp26
(lp27
I00
as(g23
g10
g15
tp28
(lp29
I00
as(g14
Vrectangular_packing_box3
p30
g11
tp31
(lp32
I00
as(g11
Vrectangular_packing_box4
p33
g11
tp34
(lp35
I00
as(g22
g14
g11
tp36
(lp37
I00
as(g30
g33
g15
tp38
(lp39
I00
as(g11
g23
g15
tp40
(lp41
I00
as(g22
g18
g11
tp42
(lp43
I00
as(g15
g11
g15
tp44
(lp45
I00
as(g33
Vsquare_packing_box3
p46
g11
tp47
(lp48
I00
as(g23
g18
g11
tp49
(lp50
I00
as(g22
g19
g15
tp51
(lp52
I00
as(g46
g15
g11
tp53
(lp54
I00
as(g18
g10
g15
tp55
(lp56
I00
as(g11
g18
g11
tp57
(lp58
I00
as(g10
g15
g11
tp59
(lp60
I00
as(g46
g18
g11
tp61
(lp62
I00
as(g14
g14
g15
tp63
(lp64
I00
as(g15
g23
g15
tp65
(lp66
I00
as(g18
g15
g11
tp67
(lp68
I00
as(g18
g22
g11
tp69
(lp70
I00
as(g15
g15
g11
tp71
(lp72
I00
as(g46
g33
g15
tp73
(lp74
I00
as(g11
g11
g15
tp75
(lp76
I00
as(g19
g22
g15
tp77
(lp78
I00
as(g10
g23
g11
tp79
(lp80
I01
as(g46
g14
g11
tp81
(lp82
I00
as(g19
g11
g15
tp83
(lp84
I00
as(g11
g10
g15
tp85
(lp86
I00
as(g19
g30
g15
tp87
(lp88
I00
as(g30
g19
g11
tp89
(lp90
I01
as(g15
g14
g15
tp91
(lp92
I00
as(g23
g22
g15
tp93
(lp94
I00
as(g10
g10
g15
tp95
(lp96
I00
as(g18
g23
g11
tp97
(lp98
I00
as(g15
g11
g11
tp99
(lp100
I00
as(g33
g10
g11
tp101
(lp102
I00
as(g11
g30
g11
tp103
(lp104
I00
as(g22
g19
g11
tp105
(lp106
I01
as(g30
g23
g11
tp107
(lp108
I01
as(g14
g30
g15
tp109
(lp110
I00
as(g46
g22
g11
tp111
(lp112
I00
as(g22
g14
g15
tp113
(lp114
I00
as(g22
g10
g15
tp115
(lp116
I00
as(g18
g22
g15
tp117
(lp118
I00
as(g15
g30
g15
tp119
(lp120
I00
as(g18
g11
g11
tp121
(lp122
I00
as(g33
g11
g11
tp123
(lp124
I00
as(g15
g18
g11
tp125
(lp126
I00
as(g10
g23
g15
tp127
(lp128
I00
as(g46
g10
g15
tp129
(lp130
I00
as(g46
g46
g11
tp131
(lp132
I00
as(g19
g30
g11
tp133
(lp134
I00
as(g18
g10
g11
tp135
(lp136
I00
as(g19
g15
g15
tp137
(lp138
I00
as(g23
g14
g11
tp139
(lp140
I00
as(g14
g14
g11
tp141
(lp142
I00
as(g14
g33
g11
tp143
(lp144
I00
as(g33
g10
g15
tp145
(lp146
I00
as(g23
g19
g15
tp147
(lp148
I00
as(g46
g33
g11
tp149
(lp150
I00
as(g19
g22
g11
tp151
(lp152
I00
as(g10
g19
g15
tp153
(lp154
I00
as(g19
g11
g11
tp155
(lp156
I00
as(g22
g10
g11
tp157
(lp158
I00
as(g10
g46
g11
tp159
(lp160
I01
as(g30
g19
g15
tp161
(lp162
I00
as(g11
g22
g15
tp163
(lp164
I00
as(g18
g11
g15
tp165
(lp166
I00
as(g18
g23
g15
tp167
(lp168
I00
as(g46
g10
g11
tp169
(lp170
I00
as(g30
g46
g15
tp171
(lp172
I00
as(g10
g18
g15
tp173
(lp174
I00
as(g19
g15
g11
tp175
(lp176
I00
as(g46
g22
g15
tp177
(lp178
I00
as(g46
g19
g15
tp179
(lp180
I00
as(g23
g14
g15
tp181
(lp182
I00
as(g11
g30
g15
tp183
(lp184
I00
as(g18
g46
g15
tp185
(lp186
I00
as(g15
g30
g11
tp187
(lp188
I00
as(g15
g22
g15
tp189
(lp190
I00
as(g10
g19
g11
tp191
(lp192
I01
as(g23
g19
g11
tp193
(lp194
I00
as(g15
g46
g11
tp195
(lp196
I00
as(g10
g46
g15
tp197
(lp198
I00
as(g10
g33
g15
tp199
(lp200
I00
as(g30
g23
g15
tp201
(lp202
I00
as(g14
g33
g15
tp203
(lp204
I00
as(g19
g46
g15
tp205
(lp206
I00
as(g11
g14
g15
tp207
(lp208
I00
as(g30
g15
g15
tp209
(lp210
I00
as(g33
g11
g15
tp211
(lp212
I00
as(g14
g19
g11
tp213
(lp214
I01
as(g10
g18
g11
tp215
(lp216
I00
as(g33
g22
g15
tp217
(lp218
I00
as(g30
g10
g15
tp219
(lp220
I00
as(g46
g19
g11
tp221
(lp222
I00
as(g23
g15
g15
tp223
(lp224
I00
as(g22
g11
g11
tp225
(lp226
I00
as(g23
g33
g11
tp227
(lp228
I00
as(g11
g46
g15
tp229
(lp230
I00
as(g15
g19
g15
tp231
(lp232
I00
as(g15
g46
g15
tp233
(lp234
I00
as(g14
g46
g11
tp235
(lp236
I00
as(g19
g46
g11
tp237
(lp238
I00
as(g14
g19
g15
tp239
(lp240
I00
as(g30
g10
g11
tp241
(lp242
I00
as(g10
g22
g11
tp243
(lp244
I00
as(g30
g11
g15
tp245
(lp246
I00
as(g23
g15
g11
tp247
(lp248
I00
as(g15
g33
g15
tp249
(lp250
I00
as(g10
g33
g11
tp251
(lp252
I00
as(g30
g30
g11
tp253
(lp254
I00
as(g33
g33
g11
tp255
(lp256
I00
as(g33
g30
g15
tp257
(lp258
I00
as(g30
g15
g11
tp259
(lp260
I00
as(g46
g23
g11
tp261
(lp262
I00
as(g33
g22
g11
tp263
(lp264
I00
as(g22
g15
g15
tp265
(lp266
I00
as(g30
g18
g15
tp267
(lp268
I00
as(g22
g11
g15
tp269
(lp270
I00
as(g14
g22
g15
tp271
(lp272
I00
as(g23
g33
g15
tp273
(lp274
I00
as(g46
g11
g15
tp275
(lp276
I00
as(g30
g11
g11
tp277
(lp278
I00
as(g15
g33
g11
tp279
(lp280
I00
as(g19
g19
g11
tp281
(lp282
I00
as(g15
g23
g11
tp283
(lp284
I00
as(g23
g46
g11
tp285
(lp286
I00
as(g14
g10
g11
tp287
(lp288
I01
as(g14
g46
g15
tp289
(lp290
I00
as(g33
g14
g15
tp291
(lp292
I00
as(g11
g22
g11
tp293
(lp294
I00
as(g18
g30
g15
tp295
(lp296
I00
as(g30
g14
g11
tp297
(lp298
I00
as(g19
g18
g11
tp299
(lp300
I00
as(g46
g23
g15
tp301
(lp302
I00
as(g46
g30
g15
tp303
(lp304
I00
as(g33
g19
g11
tp305
(lp306
I00
as(g10
g22
g15
tp307
(lp308
I00
as(g33
g15
g11
tp309
(lp310
I00
as(g30
g18
g11
tp311
(lp312
I00
as(g23
g30
g15
tp313
(lp314
I00
as(g10
g14
g11
tp315
(lp316
I00
as(g46
g14
g15
tp317
(lp318
I00
as(g23
g23
g15
tp319
(lp320
I00
as(g33
g33
g15
tp321
(lp322
I00
as(g19
g19
g15
tp323
(lp324
I00
as(g14
g23
g15
tp325
(lp326
I00
as(g23
g22
g11
tp327
(lp328
I00
as(g18
g14
g11
tp329
(lp330
I00
as(g11
g18
g15
tp331
(lp332
I00
as(g11
g19
g15
tp333
(lp334
I00
as(g22
g15
g11
tp335
(lp336
I00
as(g14
g10
g15
tp337
(lp338
I00
as(g19
g14
g15
tp339
(lp340
I00
as(g30
g30
g15
tp341
(lp342
I00
as(g18
g30
g11
tp343
(lp344
I00
as(g22
g30
g15
tp345
(lp346
I00
as(g19
g18
g15
tp347
(lp348
I00
as(g14
g22
g11
tp349
(lp350
I01
as(g33
g19
g15
tp351
(lp352
I00
as(g33
g30
g11
tp353
(lp354
I00
as(g23
g30
g11
tp355
(lp356
I00
as(g14
g11
g15
tp357
(lp358
I00
as(g22
g46
g11
tp359
(lp360
I00
as(g46
g46
g15
tp361
(lp362
I00
as(g33
g18
g11
tp363
(lp364
I00
as(g15
g18
g15
tp365
(lp366
I00
as(g23
g46
g15
tp367
(lp368
I00
as(g15
g19
g11
tp369
(lp370
I00
as(g18
g18
g15
tp371
(lp372
I00
as(g33
g14
g11
tp373
(lp374
I00
as(g14
g23
g11
tp375
(lp376
I01
as(g15
g10
g15
tp377
(lp378
I00
as(g30
g14
g15
tp379
(lp380
I00
as(g46
g11
g11
tp381
(lp382
I00
as(g18
g14
g15
tp383
(lp384
I00
as(g46
g30
g11
tp385
(lp386
I00
as(g30
g22
g11
tp387
(lp388
I00
as(g33
g15
g15
tp389
(lp390
I00
as(g10
g14
g15
tp391
(lp392
I00
as(g19
g10
g11
tp393
(lp394
I00
as(g18
g15
g15
tp395
(lp396
I00
as(g15
g10
g11
tp397
(lp398
I00
as(g14
g18
g11
tp399
(lp400
I00
as(g22
g46
g15
tp401
(lp402
I00
as(g22
g33
g15
tp403
(lp404
I00
as(g23
g11
g11
tp405
(lp406
I00
as(g33
g18
g15
tp407
(lp408
I00
as(g33
g23
g11
tp409
(lp410
I00
as(g18
g33
g15
tp411
(lp412
I00
as(g11
g19
g11
tp413
(lp414
I00
as(g11
g46
g11
tp415
(lp416
I00
as(g19
g14
g11
tp417
(lp418
I00
as(g19
g33
g11
tp419
(lp420
I00
as(g18
g46
g11
tp421
(lp422
I00
as(g22
g30
g11
tp423
(lp424
I00
as(g22
g22
g15
tp425
(lp426
I00
as(g19
g23
g15
tp427
(lp428
I00
as(g23
g11
g15
tp429
(lp430
I00
as(g10
g11
g11
tp431
(lp432
I00
as(g14
g11
g11
tp433
(lp434
I00
as(g19
g10
g15
tp435
(lp436
I00
as(g23
g10
g11
tp437
(lp438
I00
as(g11
g15
g11
tp439
(lp440
I00
as(g18
g18
g11
tp441
(lp442
I00
as(g10
g30
g15
tp443
(lp444
I00
as(g14
g18
g15
tp445
(lp446
I00
as(g15
g22
g11
tp447
(lp448
I00
as(g30
g33
g11
tp449
(lp450
I01
as(g18
g33
g11
tp451
(lp452
I00
as(g14
g15
g11
tp453
(lp454
I00
as(g30
g22
g15
tp455
(lp456
I00
as(g11
g14
g11
tp457
(lp458
I00
as(g18
g19
g15
tp459
(lp460
I00
as(g23
g18
g15
tp461
(lp462
I00
as(g22
g22
g11
tp463
(lp464
I00
as(g19
g23
g11
tp465
(lp466
I01
as(g46
g18
g15
tp467
(lp468
I00
as(g22
g33
g11
tp469
(lp470
I00
as(g11
g23
g11
tp471
(lp472
I00
as(g30
g46
g11
tp473
(lp474
I00
as(g33
g23
g15
tp475
(lp476
I00
as(g23
g23
g11
tp477
(lp478
I00
as(g19
g33
g15
tp479
(lp480
I00
as(g22
g23
g11
tp481
(lp482
I01
as(g46
g15
g15
tp483
(lp484
I00
as(g11
g10
g11
tp485
(lp486
I00
as(g10
g15
g15
tp487
(lp488
I00
as(g11
g33
g15
tp489
(lp490
I00
as(g10
g11
g15
tp491
(lp492
I00
as(g15
g15
g15
tp493
(lp494
I00
as(g22
g18
g15
tp495
(lp496
I00
as(g33
g46
g15
tp497
(lp498
I00
as(g11
g15
g15
tp499
(lp500
I00
as(g10
g30
g11
tp501
(lp502
I00
as(g15
g14
g11
tp503
(lp504
I00
assS'pick_used'
p505
(dp506
Vrectangular_packing_box4
p507
(itrajectory_representation.operator
Operator
p508
(dp509
S'is_skeleton'
p510
I01
sS'discrete_parameters'
p511
(dp512
S'object'
p513
Vrectangular_packing_box4
p514
ssS'type'
p515
S'two_arm_pick'
p516
sS'continuous_parameters'
p517
(dp518
S'q_goal'
p519
(lp520
cnumpy.core.multiarray
_reconstruct
p521
(cnumpy
ndarray
p522
(I0
tp523
S'b'
p524
tp525
Rp526
(I1
(I3
tp527
cnumpy
dtype
p528
(S'f8'
p529
I0
I1
tp530
Rp531
(I3
S'<'
p532
NNNI-1
I-1
I0
tp533
bI00
S'R\xee\xbc7\x1c\xc9\xc2\xbf\x03{?`*X\x16\xc0Wu\xb9\x08\x1c\xbe\xf1\xbf'
p534
tp535
bag521
(g522
(I0
tp536
g524
tp537
Rp538
(I1
(I3
tp539
g531
I00
S'\x96K\xf0\x92\x88\x80\xcb\xbf\xa7C4\x80H\xfd\x15\xc0\xba\r\xd4\xcf\xe37\xe9\xbf'
p540
tp541
bag521
(g522
(I0
tp542
g524
tp543
Rp544
(I1
(I3
tp545
g531
I00
S'\xfa@\x96(\x83\n\xf0?:\x0b\xfe\xca\xdf\x01\x17\xc0\xa1b\xce\xdbM\x85\t\xc0'
p546
tp547
basS'is_feasible'
p548
I00
ssS'low_level_motion'
p549
(lp550
g521
(g522
(I0
tp551
g524
tp552
Rp553
(I1
(I3
tp554
g528
(S'f8'
p555
I0
I1
tp556
Rp557
(I3
S'<'
p558
NNNI-1
I-1
I0
tp559
bI00
S'\xce#\xd1\xf6\xa3\xa0\xff?f\xf6\x05>\x84\xca\x1a\xc0\xc3\x86M\t\x07\xb1\xc0?'
p560
tp561
bag521
(g522
(I0
tp562
g524
tp563
Rp564
(I1
(I3
tp565
g528
(S'f8'
p566
I0
I1
tp567
Rp568
(I3
S'<'
p569
NNNI-1
I-1
I0
tp570
bI00
S'<|\xa2\xc3\xfag\xfe?Q\xd0\th}W\x1b\xc0\x8b\xe36n\xc16\xce\xbf'
p571
tp572
bag521
(g522
(I0
tp573
g524
tp574
Rp575
(I1
(I3
tp576
g568
I00
S'~\x1a}\xaa\x02\xe0\xf6?N\xaex\xdd\xfd\x81\x19\xc0\xa8\x14\xd5\xf2I\xd8\x07\xc0'
p577
tp578
bag544
asbsVrectangular_packing_box2
p579
(itrajectory_representation.operator
Operator
p580
(dp581
g510
I01
sg511
(dp582
S'object'
p583
Vrectangular_packing_box2
p584
ssg515
S'two_arm_pick'
p585
sg517
(dp586
S'q_goal'
p587
(lp588
g521
(g522
(I0
tp589
g524
tp590
Rp591
(I1
(I3
tp592
g557
I00
S'T\xaf\x1f\x0eo\xc5\t@^(\nc\x03\xf6\x1c\xc0\x99V8\xd9\xc1W\x01@'
p593
tp594
bag521
(g522
(I0
tp595
g524
tp596
Rp597
(I1
(I3
tp598
g557
I00
S'\x9f\x90\xc2\x8a\xe4\xbb\x00@IL\x96\x0b3f\x1b\xc0\xeb\xe9\xd1\xc4\x19\xa6\xe0?'
p599
tp600
bag521
(g522
(I0
tp601
g524
tp602
Rp603
(I1
(I3
tp604
g557
I00
S'\xe2M\x0b\x9cZ\xb0\x08@ ;\x02!!\xa2\x1c\xc0\xcfN\xf7\xcbuo\xfc?'
p605
tp606
bag521
(g522
(I0
tp607
g524
tp608
Rp609
(I1
(I3
tp610
g557
I00
S'\x00\xd5\x84-\x9d<\x00@\xf1}D\xfe/\x81\x1a\xc0&\x8f\xd6#5\x92\xbf?'
p611
tp612
bag521
(g522
(I0
tp613
g524
tp614
Rp615
(I1
(I3
tp616
g557
I00
S'\xee\x88Q\x0egq\x05@\xb2\xb4h\x10(\xfc\x16\xc0&\xc1\xbe\xf7sQ\xfe\xbf'
p617
tp618
basS'is_feasible'
p619
I00
ssg549
(lp620
g521
(g522
(I0
tp621
g524
tp622
Rp623
(I1
(I3
tp624
g557
I00
S'\xce#\xd1\xf6\xa3\xa0\xff?f\xf6\x05>\x84\xca\x1a\xc0\xc3\x86M\t\x07\xb1\xc0?'
p625
tp626
bag597
asbsVrectangular_packing_box3
p627
(itrajectory_representation.operator
Operator
p628
(dp629
g510
I01
sg511
(dp630
g513
Vrectangular_packing_box3
p631
ssg515
g516
sg517
(dp632
g519
(lp633
g521
(g522
(I0
tp634
g524
tp635
Rp636
(I1
(I3
tp637
g531
I00
S'\x95\xfd\xaaE\x8f\xc1\xe5?\xba\xa6\xc5gY\x12\x1f\xc0\\)%M\x96\x93\x08@'
p638
tp639
bag521
(g522
(I0
tp640
g524
tp641
Rp642
(I1
(I3
tp643
g531
I00
S'\x8f\xc7\xfbV\x05J\xdb?\x02|\xafnm5\x1b\xc0\xcc\xe3\xb3\xbaBQ\x00\xc0'
p644
tp645
bag521
(g522
(I0
tp646
g524
tp647
Rp648
(I1
(I3
tp649
g531
I00
S'\t\xf3\x99by\xfe\xe7?\xb5"\xc5\xafi\x18\x1f\xc0x\x81\xfe\xc56\x0f\x07@'
p650
tp651
basg548
I00
ssg549
(lp652
g521
(g522
(I0
tp653
g524
tp654
Rp655
(I1
(I3
tp656
g557
I00
S'\xce#\xd1\xf6\xa3\xa0\xff?f\xf6\x05>\x84\xca\x1a\xc0\xc3\x86M\t\x07\xb1\xc0?'
p657
tp658
bag521
(g522
(I0
tp659
g524
tp660
Rp661
(I1
(I3
tp662
g568
I00
S'\tAsXx\r\x00@F^\x05/\xfdK\x1d\xc0~\xbbB\x0f\xbe\xe6\xd2?'
p663
tp664
bag521
(g522
(I0
tp665
g524
tp666
Rp667
(I1
(I3
tp668
g568
I00
S'S@\xf8l\x95\x08\xf8?\xef\x91If\xa4L\x1e\xc0\x8b\xc5pa\xf4C\x04\xc0'
p669
tp670
bag648
asbsVrectangular_packing_box1
p671
(itrajectory_representation.operator
Operator
p672
(dp673
g510
I01
sg511
(dp674
g513
Vrectangular_packing_box1
p675
ssg515
g516
sg517
(dp676
g519
(lp677
g521
(g522
(I0
tp678
g524
tp679
Rp680
(I1
(I3
tp681
g531
I00
S'\xfd\xc9\xc0\xcf\xd9[\xf0?\x96/#\xddH6\x15\xc0F#\xbeM\xbe$\xf2\xbf'
p682
tp683
bag521
(g522
(I0
tp684
g524
tp685
Rp686
(I1
(I3
tp687
g531
I00
S'\xcc\x86Zb\xfc\x0f\xfa?\xa7\xaf\xcdN\xd7x\x1a\xc0\xb2\xf6\xaa+jH\xfd?'
p688
tp689
bag521
(g522
(I0
tp690
g524
tp691
Rp692
(I1
(I3
tp693
g531
I00
S'\xa30>0\x8a\x8c\xf9?\x0c\x90>\x82\xfb\xec\x1a\xc0\xef\x9c\x19\x05S\xe5\xf8?'
p694
tp695
bag521
(g522
(I0
tp696
g524
tp697
Rp698
(I1
(I3
tp699
g531
I00
S'\x11\x93\xe3j\xcc\x8c\xe2?\xffT\x1dv\xaaL\x19\xc0rg\xce\xd5\x1f~\xd3?'
p700
tp701
bag521
(g522
(I0
tp702
g524
tp703
Rp704
(I1
(I3
tp705
g531
I00
S'w\x9d1\xd4y}\xf7?\x11\xaa\x00\x1e\xfa&\x1b\xc0Z\xa2\xbcma\xc2\x01@'
p706
tp707
basg548
I00
ssg549
(lp708
g521
(g522
(I0
tp709
g524
tp710
Rp711
(I1
(I3
tp712
g557
I00
S'\xce#\xd1\xf6\xa3\xa0\xff?f\xf6\x05>\x84\xca\x1a\xc0\xc3\x86M\t\x07\xb1\xc0?'
p713
tp714
bag521
(g522
(I0
tp715
g524
tp716
Rp717
(I1
(I3
tp718
g568
I00
S'\x00\xda\x1c<\xfd\xdc\x00@j"\x91\xe3 \x1a\x18\xc0i~!@)\xb0\xdc\xbf'
p719
tp720
bag521
(g522
(I0
tp721
g524
tp722
Rp723
(I1
(I3
tp724
g568
I00
S'\xb9\x81\xdfb\xdf\x92\xfe?\x1a\xe3?2\xb6\xec\x1a\xc0B\x1b\x81\xfa\x93C\xfa?'
p725
tp726
bag686
asbsVsquare_packing_box2
p727
(itrajectory_representation.operator
Operator
p728
(dp729
g510
I01
sg511
(dp730
g513
Vsquare_packing_box2
p731
ssg515
g516
sg517
(dp732
g519
(lp733
g521
(g522
(I0
tp734
g524
tp735
Rp736
(I1
(I3
tp737
g531
I00
S'\xd7\xf2\xfc\xf7\x04\xce\x07@\xc7Ffi\xc6\xf0\x16\xc0\xc5\xbd\xe5i\xab\xcd\xdf\xbf'
p738
tp739
bag521
(g522
(I0
tp740
g524
tp741
Rp742
(I1
(I3
tp743
g531
I00
S' \xd3\x8e\xcahk\x08@\xb6\xdbN\x1b\x86\x83\x16\xc06\xe8\xe4\xa8\x83\xc5\xcb\xbf'
p744
tp745
bag521
(g522
(I0
tp746
g524
tp747
Rp748
(I1
(I3
tp749
g531
I00
S'\xd1Ln\x97\x8eR\x0c@\xd9\xe0c\xed\xbf\xe1\x19\xc07v\xab\x11\x1f\xda\xf6?'
p750
tp751
basg548
I00
ssg549
(lp752
g521
(g522
(I0
tp753
g524
tp754
Rp755
(I1
(I3
tp756
g557
I00
S'\xce#\xd1\xf6\xa3\xa0\xff?f\xf6\x05>\x84\xca\x1a\xc0\xc3\x86M\t\x07\xb1\xc0?'
p757
tp758
bag521
(g522
(I0
tp759
g524
tp760
Rp761
(I1
(I3
tp762
g568
I00
S'\xb1\x91\x83\xd6J:\x00@X\xbf\x9b\xa3\xf7;\x19\xc0\xb4\xa9\x94\xff\xff\xd1\xec?'
p763
tp764
bag521
(g522
(I0
tp765
g524
tp766
Rp767
(I1
(I3
tp768
g568
I00
S'\xfe\xe8\x18\xb9\x80t\x02@\xc8\xc9\x8bB\xfe\x86\x16\xc0\x19\xcf\xcc\xc3%!\x9e\xbf'
p769
tp770
bag736
asbsVsquare_packing_box3
p771
(itrajectory_representation.operator
Operator
p772
(dp773
g510
I01
sg511
(dp774
g513
Vsquare_packing_box3
p775
ssg515
g516
sg517
(dp776
g519
(lp777
g521
(g522
(I0
tp778
g524
tp779
Rp780
(I1
(I3
tp781
g531
I00
S'a\xc8\xacwl\xa9\x05@\x8eL\xa6~\x15\xe6\x1c\xc0\xe1\xc6r\xb24H\xea\xbf'
p782
tp783
bag521
(g522
(I0
tp784
g524
tp785
Rp786
(I1
(I3
tp787
g531
I00
S'9\x1fG5\xaf\r\x0e@\x8c\x1fn\x15\x89\x17 \xc0l\xa7B\x95\x1f/\x01@'
p788
tp789
bag521
(g522
(I0
tp790
g524
tp791
Rp792
(I1
(I3
tp793
g531
I00
S')b<|\xd6D\x05@\xcc\x9b/\xe0\xab\x8c\x1c\xc0\xb0-DkM\xdf\xe3\xbf'
p794
tp795
basg548
I00
ssg549
(lp796
g521
(g522
(I0
tp797
g524
tp798
Rp799
(I1
(I3
tp800
g557
I00
S'\xce#\xd1\xf6\xa3\xa0\xff?f\xf6\x05>\x84\xca\x1a\xc0\xc3\x86M\t\x07\xb1\xc0?'
p801
tp802
bag521
(g522
(I0
tp803
g524
tp804
Rp805
(I1
(I3
tp806
g568
I00
S'\xb1\x91\x83\xd6J:\x00@X\xbf\x9b\xa3\xf7;\x19\xc0\xb4\xa9\x94\xff\xff\xd1\xec?'
p807
tp808
bag521
(g522
(I0
tp809
g524
tp810
Rp811
(I1
(I3
tp812
g568
I00
S'd"x~\xf6\x99\x00@\xe4\xfe\xc6G\x1d\xfb\x1b\xc0\x98\xbd;g\xb8\x8f\xf5\xbf'
p813
tp814
bag780
asbsVsquare_packing_box1
p815
(itrajectory_representation.operator
Operator
p816
(dp817
g510
I01
sg511
(dp818
g513
Vsquare_packing_box1
p819
ssg515
g516
sg517
(dp820
g519
(lp821
g521
(g522
(I0
tp822
g524
tp823
Rp824
(I1
(I3
tp825
g531
I00
S'\xb8\x9ct\x99Y\x93\x0e@\xa6\x82\x19\x7fa\xb4\x17\xc0\x0c\x07\x97\xeb\xfc\n\x00@'
p826
tp827
bag521
(g522
(I0
tp828
g524
tp829
Rp830
(I1
(I3
tp831
g531
I00
S'\xef^\xef\x9djg\x0b@\n\x94\xb6\xd3\x8f~\x18\xc0Bx\x0c\xcbf\xe5\xfe?'
p832
tp833
bag521
(g522
(I0
tp834
g524
tp835
Rp836
(I1
(I3
tp837
g531
I00
S'\xc2\xdc\xf4\xda\x03v\x06@\x93\x18_H\xa8\xe9\x15\xc0.\xab\x1bg,\x98\xe0?'
p838
tp839
basg548
I00
ssg549
(lp840
g521
(g522
(I0
tp841
g524
tp842
Rp843
(I1
(I3
tp844
g557
I00
S'\xce#\xd1\xf6\xa3\xa0\xff?f\xf6\x05>\x84\xca\x1a\xc0\xc3\x86M\t\x07\xb1\xc0?'
p845
tp846
bag521
(g522
(I0
tp847
g524
tp848
Rp849
(I1
(I3
tp850
g568
I00
S'\xb1\x91\x83\xd6J:\x00@X\xbf\x9b\xa3\xf7;\x19\xc0\xb4\xa9\x94\xff\xff\xd1\xec?'
p851
tp852
bag521
(g522
(I0
tp853
g524
tp854
Rp855
(I1
(I3
tp856
g568
I00
S'\xfe\xe8\x18\xb9\x80t\x02@\xc8\xc9\x8bB\xfe\x86\x16\xc0\x19\xcf\xcc\xc3%!\x9e\xbf'
p857
tp858
bag836
asbsVsquare_packing_box4
p859
(itrajectory_representation.operator
Operator
p860
(dp861
g510
I01
sg511
(dp862
g513
Vsquare_packing_box4
p863
ssg515
g516
sg517
(dp864
g519
(lp865
g521
(g522
(I0
tp866
g524
tp867
Rp868
(I1
(I3
tp869
g531
I00
S'\xba\xdc\xa0]\xb4\xb3\xed?a\xb9\xcf\x1f\xa8Q\x13\xc0y{\x0cpr\x06\xf8\xbf'
p870
tp871
bag521
(g522
(I0
tp872
g524
tp873
Rp874
(I1
(I3
tp875
g531
I00
S"\xce\xbc\x08\xcd\xa0\xd3\xe8?\x96\xe8\x8e\x11\xcd\xc4\x13\xc0\xf7\xfe\xcd'\xcd\x89\xf6\xbf"
p876
tp877
bag521
(g522
(I0
tp878
g524
tp879
Rp880
(I1
(I3
tp881
g531
I00
S'\xda4\xec\x12j\xa2\xf1?\x1aX\x81\xf7\x02\xe8\x19\xc0 \x02n)J!\xf2?'
p882
tp883
basg548
I00
ssg549
(lp884
g521
(g522
(I0
tp885
g524
tp886
Rp887
(I1
(I3
tp888
g557
I00
S'\xce#\xd1\xf6\xa3\xa0\xff?f\xf6\x05>\x84\xca\x1a\xc0\xc3\x86M\t\x07\xb1\xc0?'
p889
tp890
bag521
(g522
(I0
tp891
g524
tp892
Rp893
(I1
(I3
tp894
g568
I00
S'JyH\x8ez\xd6\xfa?\xb3\xf7h\x83\xea\xba\x1a\xc0u\xf9Uf\xb7m\xe0?'
p895
tp896
bag521
(g522
(I0
tp897
g524
tp898
Rp899
(I1
(I3
tp900
g568
I00
S'\xcb\xa0\xb6M\xadU\xef?ny]\x1b[.\x1a\xc0\x99\xfe\xc1BBE\xde?'
p901
tp902
bag880
asbssS'use_prm'
p903
I01
sS'object_names'
p904
(lp905
S'square_packing_box1'
p906
aS'rectangular_packing_box1'
p907
aS'square_packing_box2'
p908
aS'rectangular_packing_box2'
p909
aS'square_packing_box3'
p910
aS'rectangular_packing_box3'
p911
aS'square_packing_box4'
p912
aS'rectangular_packing_box4'
p913
asg7
NsS'current_holding_collides'
p914
(dp915
Vrectangular_packing_box4
p916
c__builtin__
set
p917
((lp918
tp919
Rp920
sVrectangular_packing_box2
p921
g917
((lp922
I256
aI2
aI3
aI577
aI307
aI268
aI435
aI144
aI403
aI413
aI453
aI91
aI548
aI37
aI38
aI348
aI555
aI302
aI303
aI304
aI561
aI178
aI179
aI54
aI500
aI442
aI62
aI63
aI64
aI65
aI194
aI68
aI438
aI457
aI79
aI376
aI210
aI342
aI343
aI89
aI90
aI219
aI220
aI605
aI612
aI550
aI114
aI115
aI372
aI247
aI248
aI511
aI381
aI255
atp923
Rp924
sVrectangular_packing_box3
p925
g917
((lp926
I384
aI257
aI133
aI134
aI135
aI136
aI265
aI394
aI532
aI153
aI452
aI154
aI157
aI158
aI159
aI164
aI433
aI564
aI521
aI575
aI580
aI197
aI583
aI328
aI589
aI83
aI346
aI478
aI356
aI229
aI366
aI502
aI121
aI122
atp927
Rp928
sVrectangular_packing_box1
p929
g917
((lp930
I132
aI5
aI137
aI4
aI517
aI416
aI161
aI34
aI35
aI554
aI43
aI301
aI456
aI178
aI309
aI310
aI55
aI56
aI570
aI187
aI449
aI203
aI70
aI71
aI584
aI201
aI202
aI459
aI162
aI82
aI163
aI84
aI597
aI89
aI92
aI93
aI94
aI607
aI327
aI484
aI233
aI106
aI107
aI108
aI497
aI362
aI595
aI379
aI252
aI42
atp931
Rp932
sVsquare_packing_box2
p933
g917
((lp934
I0
aI1
aI393
aI144
aI403
aI541
aI545
aI546
aI555
aI571
aI454
aI342
aI473
aI474
aI367
aI368
aI369
aI370
aI371
aI247
aI248
aI377
aI378
atp935
Rp936
sVsquare_packing_box3
p937
g917
((lp938
I513
aI386
aI387
aI260
aI269
aI270
aI515
aI405
aI280
aI436
aI565
aI440
aI442
aI573
aI193
aI68
aI210
aI339
aI340
aI213
aI220
aI479
aI354
aI613
aI614
aI111
aI112
aI113
aI211
aI245
aI375
aI212
aI381
aI254
aI255
atp939
Rp940
sVsquare_packing_box1
p941
g917
((lp942
I0
aI1
aI546
aI454
aI545
aI393
aI555
aI144
aI369
aI370
aI371
aI342
aI377
aI378
aI571
aI541
aI474
atp943
Rp944
sVsquare_packing_box4
p945
g917
((lp946
I107
aI132
aI517
aI6
aI8
aI45
aI404
aI416
aI33
aI34
aI95
aI554
aI43
aI44
aI301
aI456
aI309
aI56
aI186
aI187
aI189
aI203
aI196
aI71
aI584
aI459
aI162
aI595
aI84
aI93
aI94
aI607
aI327
aI484
aI233
aI106
aI235
aI108
aI445
aI497
aI503
aI72
aI234
aI252
aI42
aI383
atp947
Rp948
ssS'reachable_regions_while_holding'
p949
(lp950
(g507
g15
tp951
a(g579
g15
tp952
a(g627
g15
tp953
a(g671
g15
tp954
a(g727
g15
tp955
a(g771
g15
tp956
a(g815
g15
tp957
a(g859
g15
tp958
a(g507
g11
tp959
a(g727
g11
tp960
a(g771
g11
tp961
a(g859
g11
tp962
asS'object_poses'
p963
(dp964
Vrectangular_packing_box4
p965
g521
(g522
(I0
tp966
g524
tp967
Rp968
(I1
(I1
I3
tp969
g557
I00
S'\x98\x1e]pS`\xd2?\x16\x1b\xb6\xe9Ei\x18\xc0\x82\x97\xe8\xa1t:\xe4?'
p970
tp971
bsVrectangular_packing_box2
p972
g521
(g522
(I0
tp973
g524
tp974
Rp975
(I1
(I1
I3
tp976
g557
I00
S'9\x88\x8d\xf1\xc8}\x06@it\x01\xa6i,\x1a\xc0\x01)\x008\x03\xdd\x0b@'
p977
tp978
bsVrectangular_packing_box3
p979
g521
(g522
(I0
tp980
g524
tp981
Rp982
(I1
(I1
I3
tp983
g557
I00
S'\xfc\xa1$/\t\xb1\xb0?l\xd9\xd7\x88y7\x1e\xc0\xa1\xa8\xa4gcb\x12@'
p984
tp985
bsVrectangular_packing_box1
p986
g521
(g522
(I0
tp987
g524
tp988
Rp989
(I1
(I1
I3
tp990
g557
I00
S'\xf71, \xdaJ\xf5?\x8f\x94\xc7_\x9e4\x18\xc0\x88,&\x8ck,\x0b@'
p991
tp992
bsVsquare_packing_box2
p993
g521
(g522
(I0
tp994
g524
tp995
Rp996
(I1
(I1
I3
tp997
g557
I00
S'\xb3\x99\x7f<\xad\xb4\r@\xd8\xe5\x95\xe8\xfc\xf0\x16\xc0Y\x96n\x9e\xe7\t\x19@'
p998
tp999
bsVsquare_packing_box3
p1000
g521
(g522
(I0
tp1001
g524
tp1002
Rp1003
(I1
(I1
I3
tp1004
g557
I00
S"'\xc7\x84Ad\xa3\n@\xa4\xaf\xb2\x18;\x05\x1e\xc0j8\xf9\x85\xb6\xac\x0f@"
p1005
tp1006
bsVsquare_packing_box1
p1007
g521
(g522
(I0
tp1008
g524
tp1009
Rp1010
(I1
(I1
I3
tp1011
g557
I00
S'\x1a\xcf\x19\xc3\xf23\x0c@\x90\xb5r\xad\x0f?\x15\xc0\xbf~a\xe9h\n\x13@'
p1012
tp1013
bsVsquare_packing_box4
p1014
g521
(g522
(I0
tp1015
g524
tp1016
Rp1017
(I1
(I1
I3
tp1018
g557
I00
S'r\xce\xcef\xfe\xbb\xf0?F@\xfc\xa1\x9e\xc0\x16\xc0\xaeKe\x14U\xf8\x13@'
p1019
tp1020
bssS'place_in_way'
p1021
(itrajectory_representation.predicates.place_in_way
PlaceInWay
p1022
(dp1023
S'mc_path_to_entity'
p1024
(dp1025
(g14
g11
tp1026
(lp1027
g521
(g522
(I0
tp1028
g524
tp1029
Rp1030
(I1
(I3
tp1031
g557
I00
S'\xb8\x9ct\x99Y\x93\x0e@\xa7\x82\x19\x7fa\xb4\x17\xc0\r\x07\x97\xeb\xfc\n\x00@'
p1032
tp1033
bag521
(g522
(I0
tp1034
g524
tp1035
Rp1036
(I1
(I3
tp1037
g568
I00
S'\xcb\x1a\x84\x1d\\\x9c\x08@\xec\xcbi\xc9#;\x18\xc0\xbf\xf24g\x02T\x05@'
p1038
tp1039
bag521
(g522
(I0
tp1040
g524
tp1041
Rp1042
(I1
(I3
tp1043
g568
I00
S'\xf8d\x877\x12\xfd\x04@h\xdbW\x9a\x83\x8e\x16\xc0\x87\xf16\xb9\x03k\x05@'
p1044
tp1045
bag521
(g522
(I0
tp1046
g524
tp1047
Rp1048
(I1
(I3
tp1049
g568
I00
S'\xc7\xc7\x06s\xd6\xa3\xff?3\x91\xe4\x97\xb5\x07\x16\xc0\x1bW\xbc\xbfY:\x06@'
p1050
tp1051
bag521
(g522
(I0
tp1052
g524
tp1053
Rp1054
(I1
(I3
tp1055
g568
I00
S'\x85\\2\xba\x0b5\xf5?I\r\x06\xd10\xfb\x15\xc0\x9e\x11\xee\xd8\xb9\xd7\xf5?'
p1056
tp1057
bag521
(g522
(I0
tp1058
g524
tp1059
Rp1060
(I1
(I3
tp1061
g568
I00
S'v\xb8^\x85\xa7[\xea?x\xbe\xff2t\x8d\x13\xc0\x88\x85\x8cCyH\xf6?'
p1062
tp1063
bag521
(g522
(I0
tp1064
g524
tp1065
Rp1066
(I1
(I3
tp1067
g568
I00
S'\xc2\xda(e\x83\x1a\xeb?\x8au\x8d3\xa6E\x11\xc0\xb4c\x1b\xed_\xfd\xfa?'
p1068
tp1069
bag521
(g522
(I0
tp1070
g524
tp1071
Rp1072
(I1
(I3
tp1073
g568
I00
S'\xe4u**\x0e5\xe9?\xaa\xfd\r\xed\xc4\xf6\r\xc0\x0fDE0\x1f\x0b\xfe?'
p1074
tp1075
bag521
(g522
(I0
tp1076
g524
tp1077
Rp1078
(I1
(I3
tp1079
g568
I00
S'\x06\x11,\xef\x98O\xe7??\x10\x01s=b\t\xc04\x92\xb79o\x8c\x00@'
p1080
tp1081
bag521
(g522
(I0
tp1082
g524
tp1083
Rp1084
(I1
(I3
tp1085
g568
I00
S'\x92\xaf\xf3P\x96O\xc2?(\xa1:\x8er}\x05\xc0\xd4_\x91\xb3\xffL\x02@'
p1086
tp1087
bas(g10
g11
tp1088
(lp1089
g521
(g522
(I0
tp1090
g524
tp1091
Rp1092
(I1
(I3
tp1093
g557
I00
S'T\xaf\x1f\x0eo\xc5\t@\\(\nc\x03\xf6\x1c\xc0\x99V8\xd9\xc1W\x01@'
p1094
tp1095
bag521
(g522
(I0
tp1096
g524
tp1097
Rp1098
(I1
(I3
tp1099
g568
I00
S'\x82PU+O\xe4\n@~_\xe5t\xa53\x1a\xc0\xc63\xe2"\x04\x7f\x01@'
p1100
tp1101
bag521
(g522
(I0
tp1102
g524
tp1103
Rp1104
(I1
(I3
tp1105
g568
I00
S'\xd8\xd6B\xff\x18\xb2\x05@\xf2%;\x9a\xab\xd5\x18\xc0\xce\xc8,\xa0\x8a\x9a\x00@'
p1106
tp1107
bag521
(g522
(I0
tp1108
g524
tp1109
Rp1110
(I1
(I3
tp1111
g568
I00
S'\xf60LV\xe8\x96\x00@\x9aEw{a\xe2\x18\xc0^\xa8\x8a,\xa3\x98\x00@'
p1112
tp1113
bag521
(g522
(I0
tp1114
g524
tp1115
Rp1116
(I1
(I3
tp1117
g568
I00
S'\xe0 ;\x819w\xfd?\xe7\xcc\xc2\xa0\xa5f\x17\xc04\xedq\x1c\x8eK\xfa?'
p1118
tp1119
bag521
(g522
(I0
tp1120
g524
tp1121
Rp1122
(I1
(I3
tp1123
g568
I00
S'\x85\\2\xba\x0b5\xf5?I\r\x06\xd10\xfb\x15\xc0\x9e\x11\xee\xd8\xb9\xd7\xf5?'
p1124
tp1125
bag521
(g522
(I0
tp1126
g524
tp1127
Rp1128
(I1
(I3
tp1129
g568
I00
S'v\xb8^\x85\xa7[\xea?x\xbe\xff2t\x8d\x13\xc0\x88\x85\x8cCyH\xf6?'
p1130
tp1131
bag521
(g522
(I0
tp1132
g524
tp1133
Rp1134
(I1
(I3
tp1135
g568
I00
S'\xc2\xda(e\x83\x1a\xeb?\x8au\x8d3\xa6E\x11\xc0\xb4c\x1b\xed_\xfd\xfa?'
p1136
tp1137
bag521
(g522
(I0
tp1138
g524
tp1139
Rp1140
(I1
(I3
tp1141
g568
I00
S'\xe4u**\x0e5\xe9?\xaa\xfd\r\xed\xc4\xf6\r\xc0\x0fDE0\x1f\x0b\xfe?'
p1142
tp1143
bag521
(g522
(I0
tp1144
g524
tp1145
Rp1146
(I1
(I3
tp1147
g568
I00
S'\x06\x11,\xef\x98O\xe7??\x10\x01s=b\t\xc04\x92\xb79o\x8c\x00@'
p1148
tp1149
bag521
(g522
(I0
tp1150
g524
tp1151
Rp1152
(I1
(I3
tp1153
g568
I00
S'\x92\xaf\xf3P\x96O\xc2?(\xa1:\x8er}\x05\xc0\xd4_\x91\xb3\xffL\x02@'
p1154
tp1155
bas(g30
g11
tp1156
(lp1157
g521
(g522
(I0
tp1158
g524
tp1159
Rp1160
(I1
(I3
tp1161
g557
I00
S'\x96\xfd\xaaE\x8f\xc1\xe5?\xbb\xa6\xc5gY\x12\x1f\xc0\\)%M\x96\x93\x08@'
p1162
tp1163
bag521
(g522
(I0
tp1164
g524
tp1165
Rp1166
(I1
(I3
tp1167
g568
I00
S'\xd23W\xd6\xdd\xe3\xe6?\xdc\xcai,~\xa9\x1c\xc0\xe4\x03\x93/\x16_\x04\xc0'
p1168
tp1169
bag521
(g522
(I0
tp1170
g524
tp1171
Rp1172
(I1
(I3
tp1173
g568
I00
S'\xf8\xfc\x1a\xd0\xc9l\xe8?\x8a\x897\x8e~\x98\x1a\xc0\xaf\xf7\xb87\xc6\xa7\x01\xc0'
p1174
tp1175
bag521
(g522
(I0
tp1176
g524
tp1177
Rp1178
(I1
(I3
tp1179
g568
I00
S"\xc6'8AN\xb0\xec?\xe0\x975>\x0f\x03\x19\xc0(\xe0e;\x85\x89\x05\xc0"
p1180
tp1181
bag521
(g522
(I0
tp1182
g524
tp1183
Rp1184
(I1
(I3
tp1185
g568
I00
S'\xd0\xcb\x13\x8f\xaa\x9d\xed?\x90\x01<]3\x06\x16\xc0F\xf1\xe7x32\x02\xc0'
p1186
tp1187
bag521
(g522
(I0
tp1188
g524
tp1189
Rp1190
(I1
(I3
tp1191
g568
I00
S'l[\xc4\x16<\xe6\xe9?\xa6\xa0\x90\x84X\x9f\x13\xc0\xc2\xd74Q\x00\xaf\xff\xbf'
p1192
tp1193
bag521
(g522
(I0
tp1194
g524
tp1195
Rp1196
(I1
(I3
tp1197
g568
I00
S"\xaeJ\xbd\x1936\xec?\x04\x13\xd4'\x9f\x88\x10\xc0\x805qo\xb6\xe6\xff\xbf"
p1198
tp1199
bag521
(g522
(I0
tp1200
g524
tp1201
Rp1202
(I1
(I3
tp1203
g568
I00
S'\xf09\xb6\x1c*\x86\xee?\xc4\n/\x96\xcb\xe3\n\xc0\xa0\xc9\xd6F6\x0f\x00\xc0'
p1204
tp1205
bag521
(g522
(I0
tp1206
g524
tp1207
Rp1208
(I1
(I3
tp1209
g568
I00
S'3\xe9\xaf\x05T\x89\xe7?+~\xcb\xd3\x15\xc7\x04\xc0x6(d5\xed\x07@'
p1210
tp1211
bas(g19
g11
tp1212
(lp1213
g521
(g522
(I0
tp1214
g524
tp1215
Rp1216
(I1
(I3
tp1217
g557
I00
S'\xfc\xc9\xc0\xcf\xd9[\xf0?\x96/#\xddH6\x15\xc0F\xa4\xd4\xc0\xcb\x98\x14@'
p1218
tp1219
bag521
(g522
(I0
tp1220
g524
tp1221
Rp1222
(I1
(I3
tp1223
g568
I00
S'l[\xc4\x16<\xe6\xe9?\xa6\xa0\x90\x84X\x9f\x13\xc0\xc2\xd74Q\x00\xaf\xff\xbf'
p1224
tp1225
bag521
(g522
(I0
tp1226
g524
tp1227
Rp1228
(I1
(I3
tp1229
g568
I00
S"\xaeJ\xbd\x1936\xec?\x04\x13\xd4'\x9f\x88\x10\xc0\x805qo\xb6\xe6\xff\xbf"
p1230
tp1231
bag521
(g522
(I0
tp1232
g524
tp1233
Rp1234
(I1
(I3
tp1235
g568
I00
S'\xf09\xb6\x1c*\x86\xee?\xc4\n/\x96\xcb\xe3\n\xc0\xa0\xc9\xd6F6\x0f\x00\xc0'
p1236
tp1237
bag521
(g522
(I0
tp1238
g524
tp1239
Rp1240
(I1
(I3
tp1241
g568
I00
S'3\xe9\xaf\x05T\x89\xe7?+~\xcb\xd3\x15\xc7\x04\xc0x6(d5\xed\x07@'
p1242
tp1243
bassS'mc_to_entity'
p1244
(dp1245
(g14
g11
tp1246
(lp1247
Vsquare_packing_box2
p1248
aVrectangular_packing_box2
p1249
aVrectangular_packing_box1
p1250
aVsquare_packing_box4
p1251
as(g10
g11
tp1252
(lp1253
Vsquare_packing_box3
p1254
aVrectangular_packing_box1
p1255
aVsquare_packing_box4
p1256
as(g30
g11
tp1257
(lp1258
Vrectangular_packing_box1
p1259
aVsquare_packing_box4
p1260
aVrectangular_packing_box4
p1261
as(g19
g11
tp1262
(lp1263
Vsquare_packing_box4
p1264
aVrectangular_packing_box4
p1265
assS'reachable_entities'
p1266
(lp1267
g579
ag627
ag671
ag727
ag771
ag815
asS'collides'
p1268
(dp1269
Vrectangular_packing_box4
p1270
g917
((lp1271
I107
aI132
aI517
aI6
aI137
aI138
aI139
aI276
aI152
aI153
aI154
aI157
aI417
aI34
aI547
aI165
aI166
aI424
aI553
aI456
aI521
aI196
aI198
aI584
aI518
aI459
aI338
aI84
aI349
aI350
aI351
aI362
aI491
aI108
aI503
aI249
aI252
aI383
atp1272
Rp1273
sVrectangular_packing_box2
p1274
g917
((lp1275
I577
aI307
aI268
aI435
aI144
aI403
aI91
aI548
aI37
aI38
aI348
aI302
aI303
aI561
aI178
aI179
aI54
aI442
aI62
aI63
aI64
aI65
aI194
aI438
aI79
aI376
aI210
aI342
aI343
aI89
aI90
aI219
aI220
aI605
aI612
aI550
aI114
aI500
aI247
aI248
aI511
atp1276
Rp1277
sVrectangular_packing_box3
p1278
g917
((lp1279
I384
aI257
aI134
aI265
aI394
aI532
aI452
aI158
aI159
aI164
aI433
aI564
aI575
aI580
aI583
aI328
aI589
aI83
aI478
aI356
aI229
aI366
aI502
atp1280
Rp1281
sVrectangular_packing_box1
p1282
g917
((lp1283
I132
aI5
aI137
aI4
aI416
aI161
aI34
aI35
aI554
aI43
aI301
aI456
aI309
aI310
aI55
aI56
aI570
aI187
aI449
aI70
aI327
aI584
aI201
aI202
aI203
aI162
aI595
aI84
aI597
aI93
aI94
aI607
aI484
aI233
aI106
aI107
aI108
aI497
aI252
atp1284
Rp1285
sVsquare_packing_box2
p1286
g917
((lp1287
I0
aI1
aI546
aI474
aI545
aI555
aI367
aI368
aI369
aI370
aI403
aI342
aI371
aI377
aI378
aI571
aI541
atp1288
Rp1289
sVsquare_packing_box3
p1290
g917
((lp1291
I513
aI386
aI260
aI269
aI270
aI405
aI280
aI436
aI565
aI440
aI573
aI193
aI68
aI210
aI339
aI340
aI213
aI479
aI354
aI613
aI614
aI111
aI112
aI113
aI211
aI245
aI375
aI212
aI381
aI254
aI255
atp1292
Rp1293
sVsquare_packing_box1
p1294
g917
((lp1295
I0
aI1
aI546
aI454
aI555
aI369
aI370
aI371
aI342
aI378
aI571
aI541
atp1296
Rp1297
sVsquare_packing_box4
p1298
g917
((lp1299
I107
aI132
aI517
aI8
aI416
aI33
aI34
aI554
aI43
aI44
aI301
aI456
aI56
aI186
aI187
aI459
aI196
aI71
aI584
aI203
aI162
aI95
aI84
aI93
aI94
aI607
aI327
aI484
aI233
aI234
aI235
aI108
aI497
aI252
aI106
atp1300
Rp1301
ssg2
g3
sg505
g506
sS'mc_paths'
p1302
(dp1303
sS'robot'
p1304
NsS'reachable_obj_region_pairs'
p1305
(lp1306
sS'sampled_pick_configs_for_objects'
p1307
(dp1308
sS'mc_calls'
p1309
I0
sS'pick_poses'
p1310
g506
sg7
NsS'evaluations'
p1311
(dp1312
(g19
g10
g11
tp1313
I00
s(g10
g46
g11
tp1314
I01
s(g14
g10
g11
tp1315
I01
s(g10
g19
g11
tp1316
I01
s(g10
g22
g11
tp1317
I00
s(g30
g10
g11
tp1318
I00
s(g10
g33
g11
tp1319
I00
s(g10
g14
g11
tp1320
I00
s(g10
g30
g11
tp1321
I00
s(g10
g23
g11
tp1322
I01
ssS'paths_to_reachable_entities'
p1323
NsS'use_shortest_path'
p1324
I01
sbsS'cached_pick_paths'
p1325
(dp1326
g507
g550
sg579
g620
sg627
g652
sg671
g708
sg727
g752
sg771
g796
sg815
g840
sg859
g884
ssg1268
(dp1327
(Vsquare_packing_box4
p1328
(cnumpy.core.multiarray
scalar
p1329
(g557
S'\x90\xc0\x1f~\xfe\xbb\xf0?'
p1330
tp1331
Rp1332
g1329
(g557
S'8\xdb\xdc\x98\x9e\xc0\x16\xc0'
p1333
tp1334
Rp1335
g1329
(g557
S'\xda\x8c\xd3\x10U\xf8\x13@'
p1336
tp1337
Rp1338
tp1339
tp1340
g1301
s(Vrectangular_packing_box3
p1341
(g1329
(g557
S'{\x9f\xaaB\x03\xb1\xb0?'
p1342
tp1343
Rp1344
g1329
(g557
S'\x0f\x0b\xb5\xa6y7\x1e\xc0'
p1345
tp1346
Rp1347
g1329
(g557
S'\xe5\xef\xdeQcb\x12@'
p1348
tp1349
Rp1350
tp1351
tp1352
g1281
s(Vrectangular_packing_box4
p1353
(g1329
(g557
S'}\xec.PR`\xd2?'
p1354
tp1355
Rp1356
g1329
(g557
S'\x8fT\xdf\xf9Ei\x18\xc0'
p1357
tp1358
Rp1359
g1329
(g557
S'\xe8\xf9\xd3Fu:\xe4?'
p1360
tp1361
Rp1362
tp1363
tp1364
g1273
s(Vsquare_packing_box2
p1365
(g1329
(g557
S'6\x90.6\xad\xb4\r@'
p1366
tp1367
Rp1368
g1329
(g557
S'7\xc3\r\xf8\xfc\xf0\x16\xc0'
p1369
tp1370
Rp1371
g1329
(g557
S'\xe9\x9d\n\xb8\xe7\t\x19@'
p1372
tp1373
Rp1374
tp1375
tp1376
g1289
s(Vsquare_packing_box3
p1377
(g1329
(g557
S'\xc7\xbc\x8e8d\xa3\n@'
p1378
tp1379
Rp1380
g1329
(g557
S'\xb8\xca\x13\x08;\x05\x1e\xc0'
p1381
tp1382
Rp1383
g1329
(g557
S'\xde\xc9\xa7\xc7\xb6\xac\x0f@'
p1384
tp1385
Rp1386
tp1387
tp1388
g1293
s(Vsquare_packing_box1
p1389
(g1329
(g557
S'N\xb4\xab\x90\xf23\x0c@'
p1390
tp1391
Rp1392
g1329
(g557
S'Q\xf5+\x9d\x0f?\x15\xc0'
p1393
tp1394
Rp1395
g1329
(g557
S'\xe2\x1f\xb6\xf4h\n\x13@'
p1396
tp1397
Rp1398
tp1399
tp1400
g1297
s(Vrectangular_packing_box2
p1401
(g1329
(g557
S'\xf9\x15k\xb8\xc8}\x06@'
p1402
tp1403
Rp1404
g1329
(g557
S'\x9a?\xa6\xb5i,\x1a\xc0'
p1405
tp1406
Rp1407
g1329
(g557
S'\x99\xb8U\x10\x03\xdd\x0b@'
p1408
tp1409
Rp1410
tp1411
tp1412
g1277
s(Vrectangular_packing_box1
p1413
(g1329
(g557
S'\xa8\xdf\x85\xad\xd9J\xf5?'
p1414
tp1415
Rp1416
g1329
(g557
S'\x14\x05\xfaD\x9e4\x18\xc0'
p1417
tp1418
Rp1419
g1329
(g557
S'\xb13\x85\xcek,\x0b@'
p1420
tp1421
Rp1422
tp1423
tp1424
g1285
ssS'state_saver'
p1425
(igtamp_utils.utils
CustomStateSaver
p1426
(dp1427
S'robot_base_pose'
p1428
g521
(g522
(I0
tp1429
g524
tp1430
Rp1431
(I1
(I1
I3
tp1432
g557
I00
S'\xd1#\xd1\xf6\xa3\xa0\xff?h\xf6\x05>\x84\xca\x1a\xc0\xc3\x86M\t\x07\xb1\xc0?'
p1433
tp1434
bsS'held_object'
p1435
NsS'robot_name'
p1436
S'pr2'
p1437
sS'env_id'
p1438
I1
sg963
(dp1439
Vright_wall_1
p1440
g521
(g522
(I0
tp1441
g524
tp1442
Rp1443
(I1
(I4
tp1444
g557
I00
S'H\xe1z\x14\xaeG\x12@&\\\x8f\xc2\xf5(\xd4\xbf\xcc\x7fH\xbf}\x1d\xed?\x00\x00\x00\x00\x00\x00\x00\x00'
p1445
tp1446
bsVc_obst5
p1447
g521
(g522
(I0
tp1448
g524
tp1449
Rp1450
(I1
(I4
tp1451
g557
I00
S"\x98\xf1q\xbb~\xea\x11@48\xbb\xd6O\xb6\xd4?e\xaa`TR'\xed?\xd2\x93\xb1\x82\xa4\x94\x0b@"
p1452
tp1453
bsVentrance_right
p1454
g521
(g522
(I0
tp1455
g524
tp1456
Rp1457
(I1
(I4
tp1458
g557
I00
S'ffffff\n@H\xe1z\x14\xaeG\t\xc0\x9c\xc4 \xb0rh\xc1?\x00\x00\x00\x00\x00\x00\x00\x00'
p1459
tp1460
bsVcomputer_table
p1461
g521
(g522
(I0
tp1462
g524
tp1463
Rp1464
(I1
(I4
tp1465
g557
I00
S'\x00\x00\x00\x00\x00\x00\x13@\x00\x00\x00\x00\x00\x00\xf8\xbf\x96C\x8bl\xe7\xfb\xe7?\xd2!3\x7f|\xd9\x12@'
p1466
tp1467
bsVchair_6b56
p1468
g521
(g522
(I0
tp1469
g524
tp1470
Rp1471
(I1
(I4
tp1472
g557
I00
S'\x80=\n\xd7\xa3p\xf5?P\xe1z\x14\xaeG\xd1?\x00\x00\x00\x00\x00\x00\x00\x00\xd6$\xfaNBm\n@'
p1473
tp1474
bsVsquare_packing_box3
p1475
g521
(g522
(I0
tp1476
g524
tp1477
Rp1478
(I1
(I4
tp1479
g557
I00
S',\xc7\x84Ad\xa3\n@\xaa\xaf\xb2\x18;\x05\x1e\xc0L7\x89A`\xe5\xd8?j8\xf9\x85\xb6\xac\x0f@'
p1480
tp1481
bsVsquare_packing_box2
p1482
g521
(g522
(I0
tp1483
g524
tp1484
Rp1485
(I1
(I4
tp1486
g557
I00
S'\xb3\x99\x7f<\xad\xb4\r@\xd8\xe5\x95\xe8\xfc\xf0\x16\xc0L7\x89A`\xe5\xd8?Y\x96n\x9e\xe7\t\x19@'
p1487
tp1488
bsVtable
p1489
g521
(g522
(I0
tp1490
g524
tp1491
Rp1492
(I1
(I4
tp1493
g557
I00
S'\x7f\xf6#EdX\xed?\xac\xffs\x98//\xc0\xbf\x00\x00\x00\x00\x00\x00\x00\x00\x00\x00\x00\x00\x00\x00\x00\x00'
p1494
tp1495
bsVsquare_packing_box1
p1496
g521
(g522
(I0
tp1497
g524
tp1498
Rp1499
(I1
(I4
tp1500
g557
I00
S'\x16\xcf\x19\xc3\xf23\x0c@\x8e\xb5r\xad\x0f?\x15\xc0L7\x89A`\xe5\xd8?\xbf~a\xe9h\n\x13@'
p1501
tp1502
bsVback_wall_2
p1503
g521
(g522
(I0
tp1504
g524
tp1505
Rp1506
(I1
(I4
tp1507
g557
I00
S'\xaeG\xe1z\x14.\x13@\x80\x14\xaeG\xe1z\xc4?xX\xa85\xcd\xbb\xf2?\x00\x00\x00\x00\x00\x00\x00\x00'
p1508
tp1509
bsVchair_083c
p1510
g521
(g522
(I0
tp1511
g524
tp1512
Rp1513
(I1
(I4
tp1514
g557
I00
S'\xa4p=\n\xd7\xa3\xe0?333333\xe3\xbf\x00\x00\x00\x00\x00\x00\x00\x00\x00\x00\x00\x00\x00\x00\x00\x00'
p1515
tp1516
bsVback_wall_1
p1517
g521
(g522
(I0
tp1518
g524
tp1519
Rp1520
(I1
(I4
tp1521
g557
I00
S'\xaeG\xe1z\x14.\x13@\x80\x14\xaeG\xe1z\xc4?\xcc\x7fH\xbf}\x1d\xed?\x00\x00\x00\x00\x00\x00\x00\x00'
p1522
tp1523
bsVbottom_wall
p1524
g521
(g522
(I0
tp1525
g524
tp1526
Rp1527
(I1
(I4
tp1528
g557
I00
S'\x00\x00\x00\x00\x00\x00\xfc?\x00\x00\x00\x00\x00\x00\x00\x00\x00\x00\x00\x00\x00\x00\x00\x00\x00\x00\x00\x00\x00\x00\x00\x00'
p1529
tp1530
bsVcup_905a
p1531
g521
(g522
(I0
tp1532
g524
tp1533
Rp1534
(I1
(I4
tp1535
g557
I00
S'\x00\x00\x00\x00\x00\x00\xf0?\x83\xc0\xca\xa1E\xb6\xdb?\x1b/\xdd$\x06\x81\xed?\x00\x00\x00\x00\x00\x00\x00\x00'
p1536
tp1537
bsVplate_496f
p1538
g521
(g522
(I0
tp1539
g524
tp1540
Rp1541
(I1
(I4
tp1542
g557
I00
S"q=\n\xd7\xa3p\xe5?\x9dhW!\xe5'\xdd\xbf\x1b/\xdd$\x06\x81\xed?\x00\x00\x00\x00\x00\x00\x00\x00"
p1543
tp1544
bsVtoaster
p1545
g521
(g522
(I0
tp1546
g524
tp1547
Rp1548
(I1
(I4
tp1549
g557
I00
S')\\\x8f\xc2\xf5(\xf4\xbf\xe0z\x14\xaeG\xe1\xf2\xbf\xb8\x1e\x85\xebQ\xb8\xee?\x89/`\x9b\xf8\x8a\xe4?'
p1550
tp1551
bsVc_obst1
p1552
g521
(g522
(I0
tp1553
g524
tp1554
Rp1555
(I1
(I4
tp1556
g557
I00
S"\xef$\x95\xf6\x8a4\x12@\x07\xc3S\xe6\xc1\xef\xd7?e\xaa`TR'\xed?\xe0\xbaL\x80\x10\xb3\t@"
p1557
tp1558
bsVrectangular_packing_box4
p1559
g521
(g522
(I0
tp1560
g524
tp1561
Rp1562
(I1
(I4
tp1563
g557
I00
S'\x98\x1e]pS`\xd2?\x16\x1b\xb6\xe9Ei\x18\xc0L7\x89A`\xe5\xd8?\x82\x97\xe8\xa1t:\xe4?'
p1564
tp1565
bsVmicrowave
p1566
g521
(g522
(I0
tp1567
g524
tp1568
Rp1569
(I1
(I4
tp1570
g557
I00
S'\x9a\x99\x99\x99\x99\x99\xf1\xbf\x00\x00\x00\x00\x00\x00\x00@7\x89A`\xe5\xd0\xee?\x00\x00\x00\x00\x00\x00\x00\x00'
p1571
tp1572
bsVc_obst7
p1573
g521
(g522
(I0
tp1574
g524
tp1575
Rp1576
(I1
(I4
tp1577
g557
I00
S"\xfa\x81=\xfa]F\x12@Rf\x922\x8f\r\xdc?e\xaa`TR'\xed?\xa1F+\x03Yi}?"
p1578
tp1579
bsVc_obst6
p1580
g521
(g522
(I0
tp1581
g524
tp1582
Rp1583
(I1
(I4
tp1584
g557
I00
S"\xf8\x9a\x11\x01\x95\x83\x12@\xe8\xa7>?}-\xd2?e\xaa`TR'\xed?\xed\xedJ\xfa\x0b\x0c\x04@"
p1585
tp1586
bsVcup_b6af
p1587
g521
(g522
(I0
tp1588
g524
tp1589
Rp1590
(I1
(I4
tp1591
g557
I00
S'R\xb8\x1e\x85\xebQ\xe8?\x9a\x99\x99\x99\x99\x99\xe1?\x1b/\xdd$\x06\x81\xed?\x00\x00\x00\x00\x00\x00\x00\x00'
p1592
tp1593
bsVc_obst4
p1594
g521
(g522
(I0
tp1595
g524
tp1596
Rp1597
(I1
(I4
tp1598
g557
I00
S"n\x08(p\x9bi\x12@\xc0\x8f\x90\x84\x98\xd9\xc1?e\xaa`TR'\xed?\xae\x8f\xee\xf0\x1b\x97\x16@"
p1599
tp1600
bsVrectangular_packing_box2
p1601
g521
(g522
(I0
tp1602
g524
tp1603
Rp1604
(I1
(I4
tp1605
g557
I00
S';\x88\x8d\xf1\xc8}\x06@it\x01\xa6i,\x1a\xc0U7\x89A`\xe5\xd8?\x01)\x008\x03\xdd\x0b@'
p1606
tp1607
bsVplate_fa76
p1608
g521
(g522
(I0
tp1609
g524
tp1610
Rp1611
(I1
(I4
tp1612
g557
I00
S'=\n\xd7\xa3p=\xf2?\x00\x00\x00\x00\x00\x00\x00\x00\x1b/\xdd$\x06\x81\xed?\x00\x00\x00\x00\x00\x00\x00\x00'
p1613
tp1614
bsVfloorwalls
p1615
g521
(g522
(I0
tp1616
g524
tp1617
Rp1618
(I1
(I4
tp1619
g557
I00
S'\xc7\xcc\xcc\xcc\xcc\xcc\xfc?\x00\x00\x00\x00\x00\x00\x18\xc0H\xe1z\x14\xaeG\xc1?\x16-DT\xfb!\xf9?'
p1620
tp1621
bsVpin_c671
p1622
g521
(g522
(I0
tp1623
g524
tp1624
Rp1625
(I1
(I4
tp1626
g557
I00
S'\xc3\xf5(\\\x8f\xc2\xf1\xbf}?5^\xbaI\x02@\xb8\x1e\x85\xebQ\xb8\xfa?\x00\x00\x00\x00\x00\x00\x00\x00'
p1627
tp1628
bsVc_obst3
p1629
g521
(g522
(I0
tp1630
g524
tp1631
Rp1632
(I1
(I4
tp1633
g557
I00
S"^\xdd\\<%\xa1\x12@\xac\x8b8\x90\xc6\xe6\xd8?e\xaa`TR'\xed?\x1c\x9e\xaarJ\xdd\x16@"
p1634
tp1635
bsVchair_2e39
p1636
g521
(g522
(I0
tp1637
g524
tp1638
Rp1639
(I1
(I4
tp1640
g557
I00
S'lfffff\xee?Yfffff\xf2\xbf\x00\x00\x00\x00\x00\x00\x00\x00\x07M\xe8QQF\xf3?'
p1641
tp1642
bsVentrance_left
p1643
g521
(g522
(I0
tp1644
g524
tp1645
Rp1646
(I1
(I4
tp1647
g557
I00
S'\x98\x99\x99\x99\x99\x99\xe9\xbfH\xe1z\x14\xaeG\t\xc0\x9c\xc4 \xb0rh\xc1?\x00\x00\x00\x00\x00\x00\x00\x00'
p1648
tp1649
bsVtop_wall_1
p1650
g521
(g522
(I0
tp1651
g524
tp1652
Rp1653
(I1
(I4
tp1654
g557
I00
S'H\xe1z\x14\xaeG\x12@\x80\x14\xaeG\xe1z\xc4?xX\xa85\xcd\xbb\xf2?\x00\x00\x00\x00\x00\x00\x00\x00'
p1655
tp1656
bsVrectangular_packing_box3
p1657
g521
(g522
(I0
tp1658
g524
tp1659
Rp1660
(I1
(I4
tp1661
g557
I00
S'|\xa2$/\t\xb1\xb0?n\xd9\xd7\x88y7\x1e\xc0L7\x89A`\xe5\xd8?\xa1\xa8\xa4gcb\x12@'
p1662
tp1663
bsVshaker
p1664
g521
(g522
(I0
tp1665
g524
tp1666
Rp1667
(I1
(I4
tp1668
g557
I00
S'\n\xd7\xa3p=\n\x01@\x14\xaeG\xe1z\x14\x02@\\\x8f\xc2\xf5(\\\xef?\x00\x00\x00\x00\x00\x00\x00\x00'
p1669
tp1670
bsVc_obst9
p1671
g521
(g522
(I0
tp1672
g524
tp1673
Rp1674
(I1
(I4
tp1675
g557
I00
S"\x84v\x82wVC\x12@\xa0n\xad8\xc7F\xc2\xbfe\xaa`TR'\xed?\xd9R5=\xef\x80\x10@"
p1676
tp1677
bsVplate_835a
p1678
g521
(g522
(I0
tp1679
g524
tp1680
Rp1681
(I1
(I4
tp1682
g557
I00
S'\xf6(\\\x8f\xc2\xf5\xf0?\\\x8f\xc2\xf5(\\\xe7\xbf\x1b/\xdd$\x06\x81\xed?\x00\x00\x00\x00\x00\x00\x00\x00'
p1683
tp1684
bsVcup_58a2
p1685
g521
(g522
(I0
tp1686
g524
tp1687
Rp1688
(I1
(I4
tp1689
g557
I00
S'\x85\xebQ\xb8\x1e\x85\xe3?\xcd\xcc\xcc\xcc\xcc\xcc\xdc?\x1b/\xdd$\x06\x81\xed?\x00\x00\x00\x00\x00\x00\x00\x00'
p1690
tp1691
bsVleft_wall_1
p1692
g521
(g522
(I0
tp1693
g524
tp1694
Rp1695
(I1
(I4
tp1696
g557
I00
S'H\xe1z\x14\xaeG\x12@S\xb8\x1e\x85\xebQ\xe4?\xcc\x7fH\xbf}\x1d\xed?\x00\x00\x00\x00\x00\x00\x00\x00'
p1697
tp1698
bsVc_obst2
p1699
g521
(g522
(I0
tp1700
g524
tp1701
Rp1702
(I1
(I4
tp1703
g557
I00
S"\x04\xf9\xf8\xe06C\x12@\x8ac\x9dS@k\xcc?e\xaa`TR'\xed?\x8e\xd1'\xc0\x08~\xfe?"
p1704
tp1705
bsVsquare_packing_box4
p1706
g521
(g522
(I0
tp1707
g524
tp1708
Rp1709
(I1
(I4
tp1710
g557
I00
S'i\xce\xcef\xfe\xbb\xf0?G@\xfc\xa1\x9e\xc0\x16\xc0L7\x89A`\xe5\xd8?\xaeKe\x14U\xf8\x13@'
p1711
tp1712
bsVrectangular_packing_box1
p1713
g521
(g522
(I0
tp1714
g524
tp1715
Rp1716
(I1
(I4
tp1717
g557
I00
S'\xf71, \xdaJ\xf5?\x8f\x94\xc7_\x9e4\x18\xc0L7\x89A`\xe5\xd8?\x88,&\x8ck,\x0b@'
p1718
tp1719
bsVpin_371e
p1720
g521
(g522
(I0
tp1721
g524
tp1722
Rp1723
(I1
(I4
tp1724
g557
I00
S'333333\xf3\xbfffffff\xf6?\xb8\x1e\x85\xebQ\xb8\xee?\x00\x00\x00\x00\x00\x00\x00\x00'
p1725
tp1726
bsVfridge
p1727
g521
(g522
(I0
tp1728
g524
tp1729
Rp1730
(I1
(I4
tp1731
g557
I00
S'\xd7\xa3p=\n\xd7\xeb\xbf\x00\x00\x00\x00\x00\x00\x00\xc0\xcd\xcc\xcc\xcc\xcc\xcc\xf8?\x00\x00\x00\x00\x00\x00\x00\x00'
p1732
tp1733
bsVcup_d441
p1734
g521
(g522
(I0
tp1735
g524
tp1736
Rp1737
(I1
(I4
tp1738
g557
I00
S'\n\xd7\xa3p=\n\xef?\x8f\xc2\xf5(\\\x8f\xe2?\x1b/\xdd$\x06\x81\xed?\x00\x00\x00\x00\x00\x00\x00\x00'
p1739
tp1740
bsVshelf2
p1741
g521
(g522
(I0
tp1742
g524
tp1743
Rp1744
(I1
(I4
tp1745
g557
I00
S'\x00\x00\x00\x00\x00\x00\x0e@\xaeG\xe1z\x14\xae\x07@\x9c\xc4 \xb0rh\xc1?\xd2!3\x7f|\xd9\x12@'
p1746
tp1747
bsVtop_wall_2
p1748
g521
(g522
(I0
tp1749
g524
tp1750
Rp1751
(I1
(I4
tp1752
g557
I00
S'H\xe1z\x14\xaeG\x12@\x80\x14\xaeG\xe1z\xc4?\x16HP\xfc\x18\xf3\xfd?\x00\x00\x00\x00\x00\x00\x00\x00'
p1753
tp1754
bsVc_obst0
p1755
g521
(g522
(I0
tp1756
g524
tp1757
Rp1758
(I1
(I4
tp1759
g557
I00
S"\xb8\x088t\x9c7\x12@\xb6H\xf1\x14\xed\x8f\x96\xbfe\xaa`TR'\xed?\xadtI0\xaa\x0c\x13@"
p1760
tp1761
bsVshelf1
p1762
g521
(g522
(I0
tp1763
g524
tp1764
Rp1765
(I1
(I4
tp1766
g557
I00
S'\x00\x00\x00\x00\x00\x00\x13@\xaeG\xe1z\x14\xae\x07@\x9c\xc4 \xb0rh\xc1?\xd2!3\x7f|\xd9\x12@'
p1767
tp1768
bsVsink
p1769
g521
(g522
(I0
tp1770
g524
tp1771
Rp1772
(I1
(I4
tp1773
g557
I00
S'ffffff\xd6?333333\x01@\x9a\x99\x99\x99\x99\x99\xb9\xbf\x00\x00\x00\x00\x00\x00\x00\x00'
p1774
tp1775
bsVpr2
p1776
g521
(g522
(I0
tp1777
g524
tp1778
Rp1779
(I1
(I4
tp1780
g557
I00
S'\xd3#\xd1\xf6\xa3\xa0\xff?j\xf6\x05>\x84\xca\x1a\xc0\x9a_\x94\xa0\xbf\xd0\xc1?\xc3\x86M\t\x07\xb1\xc0?'
p1781
tp1782
bsVchair_12d0
p1783
g521
(g522
(I0
tp1784
g524
tp1785
Rp1786
(I1
(I4
tp1787
g557
I00
S'^\xd2\x18\xad\xa3\xaa\xdb?Pf\x83L2r\xc6?\x00\x00\x00\x00\x00\x00\x00\x00\xf8\x81\r\x14M\xa6\x17@'
p1788
tp1789
bsVright_wall_2
p1790
g521
(g522
(I0
tp1791
g524
tp1792
Rp1793
(I1
(I4
tp1794
g557
I00
S'H\xe1z\x14\xaeG\x12@&\\\x8f\xc2\xf5(\xd4\xbfxX\xa85\xcd\xbb\xf2?\x00\x00\x00\x00\x00\x00\x00\x00'
p1795
tp1796
bsVknife_block
p1797
g521
(g522
(I0
tp1798
g524
tp1799
Rp1800
(I1
(I4
tp1801
g557
I00
S'R\xb8\x1e\x85\xebQ\xe0\xbfffffff\x02@`\xe5\xd0"\xdb\xf9\xee?\x00\x00\x00\x00\x00\x00\x00\x00'
p1802
tp1803
bsVleft_wall_2
p1804
g521
(g522
(I0
tp1805
g524
tp1806
Rp1807
(I1
(I4
tp1808
g557
I00
S'H\xe1z\x14\xaeG\x12@S\xb8\x1e\x85\xebQ\xe4?xX\xa85\xcd\xbb\xf2?\x00\x00\x00\x00\x00\x00\x00\x00'
p1809
tp1810
bsVleft_wall
p1811
g521
(g522
(I0
tp1812
g524
tp1813
Rp1814
(I1
(I4
tp1815
g557
I00
S'\x9a\x99\x99\x99\x99\x99\x07@H\xe1z\x14\xaeG\xff?\x9c\xc4 \xb0rh\xc1?\x00\x00\x00\x00\x00\x00\x00\x00'
p1816
tp1817
bsVkitchen
p1818
g521
(g522
(I0
tp1819
g524
tp1820
Rp1821
(I1
(I4
tp1822
g557
I00
S'\x00\x00\x00\x00\x00\x00\x00\x00\x00\x00\x00\x00\x00\x00\x00\x00\x00\x00\x00\x00\x00\x00\x00\x00\x00\x00\x00\x00\x00\x00\x00\x00'
p1823
tp1824
bsVtable2
p1825
g521
(g522
(I0
tp1826
g524
tp1827
Rp1828
(I1
(I4
tp1829
g557
I00
S'\x00\x00\x00\x00\x00\x00\x13@\x80\x14\xaeG\xe1z\xc4?S\x96!\x8euq\xec?\xd2!3\x7f|\xd9\x12@'
p1830
tp1831
bsVc_obst8
p1832
g521
(g522
(I0
tp1833
g524
tp1834
Rp1835
(I1
(I4
tp1836
g557
I00
S"\xa2\x86\xba\xbe\x0e\xfe\x11@\x10\x88\xaeAcX\xc9?e\xaa`TR'\xed?\xe7\xc6R\xf7\xd5q\x17@"
p1837
tp1838
bsVplate_b4e7
p1839
g521
(g522
(I0
tp1840
g524
tp1841
Rp1842
(I1
(I4
tp1843
g557
I00
S'\x14\xaeG\xe1z\x14\xf2\xbf\x14\xaeG\xe1z\x14\x00@=\n\xd7\xa3p=\xf2?\x00\x00\x00\x00\x00\x00\x00\x00'
p1844
tp1845
bsVcooker
p1846
g521
(g522
(I0
tp1847
g524
tp1848
Rp1849
(I1
(I4
tp1850
g557
I00
S'\xaeG\xe1z\x14\xae\xff?\x85\xebQ\xb8\x1e\x85\xfb?\x00\x00\x00\x00\x00\x00\xe8?\x00\x00\x00\x00\x00\x00\x00\x00'
p1851
tp1852
bsVpin_a091
p1853
g521
(g522
(I0
tp1854
g524
tp1855
Rp1856
(I1
(I4
tp1857
g557
I00
S'\xdb\xf9~j\xbct\xf7\xbf)\\\x8f\xc2\xf5(\x02@\xb8\x1e\x85\xebQ\xb8\xfa?\x00\x00\x00\x00\x00\x00\x00\x00'
p1858
tp1859
bsVside_wall_2
p1860
g521
(g522
(I0
tp1861
g524
tp1862
Rp1863
(I1
(I4
tp1864
g557
I00
S'\xf1\xff\xff\xff\xff\xff\x14@\xe4\xff\xff\xff\xff\x7f\xef<\x9c\xc4 \xb0rh\xc1?\x1c-DT\xfb!\xf9?'
p1865
tp1866
bsVside_wall_3
p1867
g521
(g522
(I0
tp1868
g524
tp1869
Rp1870
(I1
(I4
tp1871
g557
I00
S'\x00\x00\x00\x00\x00\x00\xfc?H\xe1z\x14\xaeG\t@\x9c\xc4 \xb0rh\xc1?\x00\x00\x00\x00\x00\x00\x00\x00'
p1872
tp1873
bsVmixer
p1874
g521
(g522
(I0
tp1875
g524
tp1876
Rp1877
(I1
(I4
tp1878
g557
I00
S'\n\xd7\xa3p=\n\xfb?ffffff\x02@d;\xdfO\x8d\x97\xee?\x00\x00\x00\x00\x00\x00\x00\x00'
p1879
tp1880
bsVside_wall_1
p1881
g521
(g522
(I0
tp1882
g524
tp1883
Rp1884
(I1
(I4
tp1885
g557
I00
S'\xe2\xff\xff\xff\xff\xff\xfb\xbf\xea\xff\xff\xff\xff\xff\xd4\xbc\x9c\xc4 \xb0rh\xc1?\x1c-DT\xfb!\xf9?'
p1886
tp1887
bsVbottom_wall_1
p1888
g521
(g522
(I0
tp1889
g524
tp1890
Rp1891
(I1
(I4
tp1892
g557
I00
S'H\xe1z\x14\xaeG\x12@\x80\x14\xaeG\xe1z\xc4?\xcc\x7fH\xbf}\x1d\xed?\x00\x00\x00\x00\x00\x00\x00\x00'
p1893
tp1894
bsVcan
p1895
g521
(g522
(I0
tp1896
g524
tp1897
Rp1898
(I1
(I4
tp1899
g557
I00
S'\x00\x00\x00\x00\x00\x00\xf4\xbfH\xe1z\x14\xaeG\xe1\xbf\n\xd7\xa3p=\n\xef?\x00\x00\x00\x00\x00\x00\x00\x00'
p1900
tp1901
bsVright_wall
p1902
g521
(g522
(I0
tp1903
g524
tp1904
Rp1905
(I1
(I4
tp1906
g557
I00
S'\x9a\x99\x99\x99\x99\x99\x07@H\xe1z\x14\xaeG\xff\xbf\x9c\xc4 \xb0rh\xc1?\x00\x00\x00\x00\x00\x00\x00\x00'
p1907
tp1908
bsVcoffe_machine
p1909
g521
(g522
(I0
tp1910
g524
tp1911
Rp1912
(I1
(I4
tp1913
g557
I00
S'\\\x8f\xc2\xf5(\\\xf5\xbf\xb8\x1e\x85\xebQ\xb8\xee?\n\xd7\xa3p=\n\xef?\x00\x00\x00\x00\x00\x00\x00\x00'
p1914
tp1915
bsVcomputer_chair
p1916
g521
(g522
(I0
tp1917
g524
tp1918
Rp1919
(I1
(I4
tp1920
g557
I00
S'\xcd\xcc\xcc\xcc\xcc\xcc\x10@\x00\x00\x00\x00\x00\x00\xf8\xbf\xa00\xb6\x10\xe4\xa9\x95\xbf\x00\x00\x00\x00\x00\x00\x00\x00'
p1921
tp1922
bssS'robot_dof_values'
p1923
g521
(g522
(I0
tp1924
g524
tp1925
Rp1926
(I1
(I39
tp1927
g557
I00
S'\x00\x00\x00\x00\x00\x00\x00\x00\x00\x00\x00\x00\x00\x00\x00\x00\x00\x00\x00\x00\x00\x00\x00\x00\x00\x00\x00\x00\x00\x00\x00\x00\x00\x00\x00\x00\x00\x00\x00\x00\x00\x00\x00\x00\x00\x00\x00\x00\x00\x00\x00\x00\x00\x00\x00\x00\x00\x00\x00\x00\x00\x00\x00\x00\x00\x00\x00\x00\x00\x00\x00\x00\x00\x00\x00\x00\x00\x00\x00\x00\x00\x00\x00\x00\x00\x00\x00\x00\x00\x00\x00\x00\x00\x00\x00\x00\xe0\x89\xe6\xb61}\x98?\x00\x00\x00\x00\x00\x00\x00\x00\x00\x00\x00\x00\x00\x00\x00\x00\x00\x00\x00\x00\x00\x00\x00\x00\xe9\xed\t\xf1\xcc\xa4\xf4?\x00\x00\x00\x00\x00\x00\xb0<N"\xd0^p\xf8\x00\xc0\x00\x00\x00\x00\x00\x00\x00\x00\x9e\x03\r.\x04V\xe6\xbf\x00\x00\x00\x00\x00\x00\x00\x00\x00\x00\x00\x00\x00\x00\x00\x00\x00\x00\x00\x00\x008\x16\xbd\x00\x00\x00\x00\x00\x00\x00\x00\x00\x00\x00\x00\x00\x00\x06=\x00\x00\x00\x00\x00\x00\x00\x00\x00\x00\x00\x00\x00\x00\x00\x00\xeb\xed\t\xf1\xcc\xa4\xf4?\x00\x00\x00\x00\x00\x00\xb0\xbcN"\xd0^p\xf8\x00\xc0\x00\x00\x00\x00\x00\x00\x00\x00\x9e\x03\r.\x04V\xe6\xbf\x00\x00\x00\x00\x00\x00\x00\x00\xcd9\xe3\xc17\x89\xe1?\x00\x00\x00\x00\x00\\!\xbd\x00\x00\x00\x00\x00\x00\x00\x00\x00\x00\x00\x00\x00\x00\x0c\xbd\x00\x00\x00\x00\x00\x00\x00\x00'
p1928
tp1929
bsS'is_holding'
p1930
I00
sbsS'holding_collides'
p1931
(dp1932
(Vsquare_packing_box4
p1933
(g1329
(g557
S'\x90\xc0\x1f~\xfe\xbb\xf0?'
p1934
tp1935
Rp1936
g1329
(g557
S'8\xdb\xdc\x98\x9e\xc0\x16\xc0'
p1937
tp1938
Rp1939
g1329
(g557
S'\xda\x8c\xd3\x10U\xf8\x13@'
p1940
tp1941
Rp1942
tp1943
tp1944
g948
s(Vrectangular_packing_box3
p1945
(g1329
(g557
S'{\x9f\xaaB\x03\xb1\xb0?'
p1946
tp1947
Rp1948
g1329
(g557
S'\x0f\x0b\xb5\xa6y7\x1e\xc0'
p1949
tp1950
Rp1951
g1329
(g557
S'\xe5\xef\xdeQcb\x12@'
p1952
tp1953
Rp1954
tp1955
tp1956
g928
s(Vrectangular_packing_box4
p1957
(g1329
(g557
S'}\xec.PR`\xd2?'
p1958
tp1959
Rp1960
g1329
(g557
S'\x8fT\xdf\xf9Ei\x18\xc0'
p1961
tp1962
Rp1963
g1329
(g557
S'\xe8\xf9\xd3Fu:\xe4?'
p1964
tp1965
Rp1966
tp1967
tp1968
g920
s(Vsquare_packing_box2
p1969
(g1329
(g557
S'6\x90.6\xad\xb4\r@'
p1970
tp1971
Rp1972
g1329
(g557
S'7\xc3\r\xf8\xfc\xf0\x16\xc0'
p1973
tp1974
Rp1975
g1329
(g557
S'\xe9\x9d\n\xb8\xe7\t\x19@'
p1976
tp1977
Rp1978
tp1979
tp1980
g936
s(Vsquare_packing_box3
p1981
(g1329
(g557
S'\xc7\xbc\x8e8d\xa3\n@'
p1982
tp1983
Rp1984
g1329
(g557
S'\xb8\xca\x13\x08;\x05\x1e\xc0'
p1985
tp1986
Rp1987
g1329
(g557
S'\xde\xc9\xa7\xc7\xb6\xac\x0f@'
p1988
tp1989
Rp1990
tp1991
tp1992
g940
s(Vsquare_packing_box1
p1993
(g1329
(g557
S'N\xb4\xab\x90\xf23\x0c@'
p1994
tp1995
Rp1996
g1329
(g557
S'Q\xf5+\x9d\x0f?\x15\xc0'
p1997
tp1998
Rp1999
g1329
(g557
S'\xe2\x1f\xb6\xf4h\n\x13@'
p2000
tp2001
Rp2002
tp2003
tp2004
g944
s(Vrectangular_packing_box2
p2005
(g1329
(g557
S'\xf9\x15k\xb8\xc8}\x06@'
p2006
tp2007
Rp2008
g1329
(g557
S'\x9a?\xa6\xb5i,\x1a\xc0'
p2009
tp2010
Rp2011
g1329
(g557
S'\x99\xb8U\x10\x03\xdd\x0b@'
p2012
tp2013
Rp2014
tp2015
tp2016
g924
s(Vrectangular_packing_box1
p2017
(g1329
(g557
S'\xa8\xdf\x85\xad\xd9J\xf5?'
p2018
tp2019
Rp2020
g1329
(g557
S'\x14\x05\xfaD\x9e4\x18\xc0'
p2021
tp2022
Rp2023
g1329
(g557
S'\xb13\x85\xcek,\x0b@'
p2024
tp2025
Rp2026
tp2027
tp2028
g932
ssS'parent_ternary_predicates'
p2029
(dp2030
(S'home_region'
p2031
Vrectangular_packing_box3
p2032
g2031
tp2033
g104
s(Vsquare_packing_box1
p2034
S'loading_region'
p2035
g2035
tp2036
g17
s(S'entire_region'
p2037
Vrectangular_packing_box1
p2038
g2031
tp2039
g21
s(Vsquare_packing_box2
p2040
Vsquare_packing_box4
p2041
g2035
tp2042
g25
s(g2031
g2031
g2031
tp2043
g27
s(g2034
g2032
g2031
tp2044
g32
s(g2031
Vrectangular_packing_box4
p2045
g2031
tp2046
g35
s(g2040
g2034
g2031
tp2047
g37
s(g2032
g2045
g2035
tp2048
g39
s(g2031
g2041
g2035
tp2049
g41
s(g2040
g2037
g2031
tp2050
g43
s(g2035
g2031
g2035
tp2051
g45
s(g2045
Vsquare_packing_box3
p2052
g2031
tp2053
g48
s(g2041
g2037
g2031
tp2054
g50
s(g2040
g2038
g2035
tp2055
g52
s(g2052
g2035
g2031
tp2056
g54
s(g2035
g2045
g2035
tp2057
g250
s(g2031
g2037
g2031
tp2058
g58
s(g2045
g2032
g2035
tp2059
g258
s(g2034
g2034
g2035
tp2060
g64
s(g2035
g2041
g2035
tp2061
g66
s(g2037
g2040
g2031
tp2062
g70
s(g2035
g2035
g2031
tp2063
g72
s(g2052
g2045
g2035
tp2064
g74
s(g2031
g2031
g2035
tp2065
g76
s(g2038
g2040
g2035
tp2066
g78
s(g2035
g2037
g2035
tp2067
g366
s(g2032
g2052
g2035
tp2068
g172
s(g2052
g2031
g2031
tp2069
g382
s(g2038
g2032
g2035
tp2070
g88
s(g2032
g2038
g2031
tp2071
g90
s(g2035
g2034
g2035
tp2072
g92
s(g2041
g2040
g2035
tp2073
g94
s(g2031
g2032
g2035
tp2074
g184
s(g2037
g2041
g2031
tp2075
g98
s(g2035
g2031
g2031
tp2076
g100
s(g2040
g2038
g2031
tp2077
g106
s(g2032
g2041
g2031
tp2078
g108
s(g2034
g2032
g2035
tp2079
g110
s(g2052
g2040
g2031
tp2080
g112
s(g2040
g2034
g2035
tp2081
g114
s(g2037
g2040
g2035
tp2082
g118
s(g2035
g2032
g2035
tp2083
g120
s(g2037
g2031
g2031
tp2084
g122
s(g2035
g2037
g2031
tp2085
g126
s(g2041
g2038
g2035
tp2086
g148
s(g2038
g2032
g2031
tp2087
g134
s(g2035
g2045
g2031
tp2088
g280
s(g2038
g2035
g2035
tp2089
g138
s(g2052
g2034
g2031
tp2090
g82
s(g2041
g2034
g2031
tp2091
g140
s(g2034
g2034
g2031
tp2092
g142
s(g2034
g2045
g2031
tp2093
g144
s(g2052
g2045
g2031
tp2094
g150
s(g2038
g2040
g2031
tp2095
g152
s(g2038
g2031
g2031
tp2096
g156
s(g2031
g2040
g2031
tp2097
g294
s(g2032
g2038
g2035
tp2098
g162
s(g2037
g2031
g2035
tp2099
g166
s(g2037
g2041
g2035
tp2100
g168
s(g2035
g2038
g2031
tp2101
g370
s(g2038
g2035
g2031
tp2102
g176
s(g2052
g2040
g2035
tp2103
g178
s(g2052
g2038
g2035
tp2104
g180
s(g2041
g2034
g2035
tp2105
g182
s(g2037
g2052
g2035
tp2106
g186
s(g2035
g2032
g2031
tp2107
g188
s(g2035
g2040
g2035
tp2108
g190
s(g2041
g2038
g2031
tp2109
g194
s(g2035
g2052
g2031
tp2110
g196
s(g2031
g2040
g2035
tp2111
g164
s(g2052
g2037
g2031
tp2112
g62
s(g2032
g2041
g2035
tp2113
g202
s(g2034
g2045
g2035
tp2114
g204
s(g2052
g2052
g2031
tp2115
g132
s(g2031
g2034
g2035
tp2116
g208
s(g2032
g2035
g2035
tp2117
g210
s(g2045
g2031
g2035
tp2118
g212
s(g2034
g2038
g2031
tp2119
g214
s(g2045
g2040
g2035
tp2120
g218
s(g2037
g2035
g2035
tp2121
g396
s(g2052
g2038
g2031
tp2122
g222
s(g2041
g2035
g2035
tp2123
g224
s(g2040
g2031
g2031
tp2124
g226
s(g2041
g2045
g2031
tp2125
g228
s(g2035
g2038
g2035
tp2126
g232
s(g2035
g2052
g2035
tp2127
g234
s(g2034
g2052
g2031
tp2128
g236
s(g2037
g2035
g2031
tp2129
g68
s(g2034
g2038
g2035
tp2130
g240
s(g2031
g2052
g2031
tp2131
g416
s(g2032
g2031
g2035
tp2132
g246
s(g2041
g2035
g2031
tp2133
g248
s(g2052
g2037
g2035
tp2134
g468
s(g2032
g2032
g2031
tp2135
g254
s(g2045
g2045
g2031
tp2136
g256
s(g2032
g2035
g2031
tp2137
g260
s(g2052
g2034
g2035
tp2138
g318
s(g2052
g2041
g2031
tp2139
g262
s(g2045
g2040
g2031
tp2140
g264
s(g2040
g2035
g2035
tp2141
g266
s(g2032
g2037
g2035
tp2142
g268
s(g2040
g2031
g2035
tp2143
g270
s(g2034
g2040
g2035
tp2144
g272
s(g2041
g2045
g2035
tp2145
g274
s(g2052
g2031
g2035
tp2146
g276
s(g2032
g2031
g2031
tp2147
g278
s(g2038
g2038
g2031
tp2148
g282
s(g2041
g2052
g2031
tp2149
g286
s(g2041
g2031
g2035
tp2150
g430
s(g2034
g2052
g2035
tp2151
g290
s(g2045
g2034
g2035
tp2152
g292
s(g2037
g2032
g2035
tp2153
g296
s(g2032
g2034
g2031
tp2154
g298
s(g2038
g2037
g2031
tp2155
g300
s(g2052
g2041
g2035
tp2156
g302
s(g2052
g2032
g2035
tp2157
g304
s(g2035
g2041
g2031
tp2158
g284
s(g2031
g2052
g2035
tp2159
g230
s(g2045
g2035
g2031
tp2160
g310
s(g2032
g2037
g2031
tp2161
g312
s(g2041
g2032
g2035
tp2162
g314
s(g2032
g2052
g2031
tp2163
g474
s(g2041
g2041
g2035
tp2164
g320
s(g2045
g2045
g2035
tp2165
g322
s(g2038
g2038
g2035
tp2166
g324
s(g2034
g2041
g2035
tp2167
g326
s(g2041
g2040
g2031
tp2168
g328
s(g2037
g2034
g2031
tp2169
g330
s(g2031
g2037
g2035
tp2170
g332
s(g2031
g2038
g2035
tp2171
g334
s(g2040
g2035
g2031
tp2172
g336
s(g2038
g2034
g2035
tp2173
g340
s(g2032
g2032
g2035
tp2174
g342
s(g2037
g2032
g2031
tp2175
g344
s(g2040
g2032
g2035
tp2176
g346
s(g2038
g2037
g2035
tp2177
g348
s(g2034
g2040
g2031
tp2178
g350
s(g2045
g2038
g2035
tp2179
g352
s(g2041
g2032
g2031
tp2180
g356
s(g2034
g2031
g2035
tp2181
g358
s(g2040
g2052
g2031
tp2182
g360
s(g2038
g2052
g2031
tp2183
g238
s(g2045
g2037
g2031
tp2184
g364
s(g2041
g2052
g2035
tp2185
g368
s(g2037
g2037
g2035
tp2186
g372
s(g2045
g2034
g2031
tp2187
g374
s(g2034
g2041
g2031
tp2188
g376
s(g2032
g2034
g2035
tp2189
g380
s(g2038
g2031
g2035
tp2190
g84
s(g2037
g2034
g2035
tp2191
g384
s(g2052
g2032
g2031
tp2192
g386
s(g2032
g2040
g2031
tp2193
g388
s(g2045
g2035
g2035
tp2194
g390
s(g2034
g2037
g2031
tp2195
g400
s(g2040
g2052
g2035
tp2196
g402
s(g2040
g2045
g2035
tp2197
g404
s(g2041
g2031
g2031
tp2198
g406
s(g2052
g2052
g2035
tp2199
g362
s(g2045
g2041
g2031
tp2200
g410
s(g2037
g2045
g2035
tp2201
g412
s(g2031
g2038
g2031
tp2202
g414
s(g2038
g2034
g2031
tp2203
g418
s(g2038
g2045
g2031
tp2204
g420
s(g2037
g2052
g2031
tp2205
g422
s(g2040
g2032
g2031
tp2206
g424
s(g2040
g2040
g2035
tp2207
g426
s(g2038
g2041
g2035
tp2208
g428
s(g2034
g2031
g2031
tp2209
g434
s(g2045
g2037
g2035
tp2210
g408
s(g2031
g2035
g2031
tp2211
g440
s(g2037
g2037
g2031
tp2212
g442
s(g2034
g2037
g2035
tp2213
g446
s(g2035
g2040
g2031
tp2214
g448
s(g2045
g2031
g2031
tp2215
g124
s(g2037
g2045
g2031
tp2216
g452
s(g2034
g2035
g2031
tp2217
g454
s(g2045
g2038
g2031
tp2218
g306
s(g2031
g2034
g2031
tp2219
g458
s(g2037
g2038
g2035
tp2220
g460
s(g2038
g2052
g2035
tp2221
g206
s(g2041
g2037
g2035
tp2222
g462
s(g2032
g2045
g2031
tp2223
g450
s(g2040
g2040
g2031
tp2224
g464
s(g2038
g2041
g2031
tp2225
g466
s(g2040
g2045
g2031
tp2226
g470
s(g2031
g2041
g2031
tp2227
g472
s(g2045
g2041
g2035
tp2228
g476
s(g2041
g2041
g2031
tp2229
g478
s(g2038
g2045
g2035
tp2230
g480
s(g2040
g2041
g2031
tp2231
g482
s(g2052
g2035
g2035
tp2232
g484
s(g2045
g2032
g2031
tp2233
g354
s(g2031
g2045
g2035
tp2234
g490
s(g2035
g2035
g2035
tp2235
g494
s(g2040
g2037
g2035
tp2236
g496
s(g2045
g2052
g2035
tp2237
g498
s(g2031
g2035
g2035
tp2238
g500
s(g2035
g2034
g2031
tp2239
g504
s(g2032
g2040
g2035
tp2240
g456
ssS'cached_place_paths'
p2241
(dp2242
(g671
g15
tp2243
(lp2244
g521
(g522
(I0
tp2245
g524
tp2246
Rp2247
(I1
(I3
tp2248
g557
I00
S'\xfd\xc9\xc0\xcf\xd9[\xf0?\x95/#\xddH6\x15\xc0F\xa4\xd4\xc0\xcb\x98\x14@'
p2249
tp2250
bas(g859
g11
tp2251
(lp2252
g521
(g522
(I0
tp2253
g524
tp2254
Rp2255
(I1
(I3
tp2256
g557
I00
S'\xc0\xdc\xa0]\xb4\xb3\xed?b\xb9\xcf\x1f\xa8Q\x13\xc0:\x0eA\xb8^ \x13@'
p2257
tp2258
bag521
(g522
(I0
tp2259
g524
tp2260
Rp2261
(I1
(I3
tp2262
g568
I00
S"\xaeJ\xbd\x1936\xec?\x04\x13\xd4'\x9f\x88\x10\xc0\x805qo\xb6\xe6\xff\xbf"
p2263
tp2264
bag521
(g522
(I0
tp2265
g524
tp2266
Rp2267
(I1
(I3
tp2268
g568
I00
S'\xf09\xb6\x1c*\x86\xee?\xc4\n/\x96\xcb\xe3\n\xc0\xa0\xc9\xd6F6\x0f\x00\xc0'
p2269
tp2270
bag521
(g522
(I0
tp2271
g524
tp2272
Rp2273
(I1
(I3
tp2274
g568
I00
S'3\xe9\xaf\x05T\x89\xe7?+~\xcb\xd3\x15\xc7\x04\xc0x6(d5\xed\x07@'
p2275
tp2276
bas(g507
g11
tp2277
(lp2278
g521
(g522
(I0
tp2279
g524
tp2280
Rp2281
(I1
(I3
tp2282
g557
I00
S'`\xee\xbc7\x1c\xc9\xc2\xbf\x03{?`*X\x16\xc0\xc2\xcf\x15Rt\xb2\x14@'
p2283
tp2284
bag521
(g522
(I0
tp2285
g524
tp2286
Rp2287
(I1
(I3
tp2288
g568
I00
S'\xff\x1dX8\xbe\xd2\xc9?\x91h\xd1{\x1e(\x16\xc0\xee\xfeSI\xc3\xd4\x03\xc0'
p2289
tp2290
bag521
(g522
(I0
tp2291
g524
tp2292
Rp2293
(I1
(I3
tp2294
g568
I00
S'\xcc\x87!\x1f\xfb\x05\xe6?\x14;\x08\xf1<\xc6\x13\xc0V!\xac1j\x94\xc8?'
p2295
tp2296
bag521
(g522
(I0
tp2297
g524
tp2298
Rp2299
(I1
(I3
tp2300
g568
I00
S'`\xc8Aw-\x81\xeb?/\xc3\xe6O\x04\xca\x10\xc0\x8a\xb7K)\x91{\xe4\xbf'
p2301
tp2302
bag521
(g522
(I0
tp2303
g524
tp2304
Rp2305
(I1
(I3
tp2306
g568
I00
S'\xe1\xc6\xc7\xa7\x12X\xe7?\x98\x99\xb0\x9a\xfb\xdb\x0b\xc0R\t\x1b)\xeae\xe0\xbf'
p2307
tp2308
bag521
(g522
(I0
tp2309
g524
tp2310
Rp2311
(I1
(I3
tp2312
g568
I00
S'p\xf1\xbdc^\x84\xf1?"\x88LL\xf9D\x06\xc0~w\r\xe9m\x0f\x19@'
p2313
tp2314
bas(g771
g15
tp2315
(lp2316
g521
(g522
(I0
tp2317
g524
tp2318
Rp2319
(I1
(I3
tp2320
g557
I00
S']\xc8\xacwl\xa9\x05@\x8cL\xa6~\x15\xe6\x1c\xc0<\xd4\xf5\xbd\xf4\xd8\x15@'
p2321
tp2322
bas(g507
g15
tp2323
(lp2324
g521
(g522
(I0
tp2325
g524
tp2326
Rp2327
(I1
(I3
tp2328
g557
I00
S'\\\xee\xbc7\x1c\xc9\xc2\xbf\x02{?`*X\x16\xc0\xc1\xcf\x15Rt\xb2\x14@'
p2329
tp2330
bas(g771
g11
tp2331
(lp2332
g521
(g522
(I0
tp2333
g524
tp2334
Rp2335
(I1
(I3
tp2336
g557
I00
S'^\xc8\xacwl\xa9\x05@\x8dL\xa6~\x15\xe6\x1c\xc0<\xd4\xf5\xbd\xf4\xd8\x15@'
p2337
tp2338
bag521
(g522
(I0
tp2339
g524
tp2340
Rp2341
(I1
(I3
tp2342
g568
I00
S'\xc4_\xf9\x03N\xba\x00@R\xfd8\x1fs\r\x1d\xc0\xa1\xe6w68\xd4\x03\xc0'
p2343
tp2344
bag521
(g522
(I0
tp2345
g524
tp2346
Rp2347
(I1
(I3
tp2348
g568
I00
S'X\xa4u\xbc=r\xf6?\x90\xee\xc4\x1eW\xf8\x1b\xc0\xcc: \xa4-\x95\x01\xc0'
p2349
tp2350
bag521
(g522
(I0
tp2351
g524
tp2352
Rp2353
(I1
(I3
tp2354
g568
I00
S'\xb0\xcfg\xd5._\xe8?\xd6\x8d\xba\x87\x91D\x1a\xc0\xea!\xf73\x0cB\xf7\xbf'
p2355
tp2356
bag521
(g522
(I0
tp2357
g524
tp2358
Rp2359
(I1
(I3
tp2360
g568
I00
S'\xb0\x11@i\x1f\x12\xb4?\x01\xb6C\x19\x0b\x9d\x1a\xc0\xda \xc5\xc8m8\xeb?'
p2361
tp2362
bag521
(g522
(I0
tp2363
g524
tp2364
Rp2365
(I1
(I3
tp2366
g568
I00
S'Dz\xddx\xe9\xf0\xb4?\x9c\xf2\xf6\xf0\xef \x18\xc0\x03\xe5\x88\xf0JN\xf3?'
p2367
tp2368
bag521
(g522
(I0
tp2369
g524
tp2370
Rp2371
(I1
(I3
tp2372
g568
I00
S'\xe4\x02R\xd9\x08\x8c\xc7?2\xc1\xd4;\xf6\xf3\x15\xc0>\x8c\x8fa?0\xd8?'
p2373
tp2374
bag521
(g522
(I0
tp2375
g524
tp2376
Rp2377
(I1
(I3
tp2378
g568
I00
S'\xcc\x87!\x1f\xfb\x05\xe6?\x14;\x08\xf1<\xc6\x13\xc0V!\xac1j\x94\xc8?'
p2379
tp2380
bag521
(g522
(I0
tp2381
g524
tp2382
Rp2383
(I1
(I3
tp2384
g568
I00
S'`\xc8Aw-\x81\xeb?/\xc3\xe6O\x04\xca\x10\xc0\x8a\xb7K)\x91{\xe4\xbf'
p2385
tp2386
bag521
(g522
(I0
tp2387
g524
tp2388
Rp2389
(I1
(I3
tp2390
g568
I00
S'\xe1\xc6\xc7\xa7\x12X\xe7?\x98\x99\xb0\x9a\xfb\xdb\x0b\xc0R\t\x1b)\xeae\xe0\xbf'
p2391
tp2392
bag521
(g522
(I0
tp2393
g524
tp2394
Rp2395
(I1
(I3
tp2396
g568
I00
S'p\xf1\xbdc^\x84\xf1?"\x88LL\xf9D\x06\xc0~w\r\xe9m\x0f\x19@'
p2397
tp2398
bas(g727
g15
tp2399
(lp2400
g521
(g522
(I0
tp2401
g524
tp2402
Rp2403
(I1
(I3
tp2404
g557
I00
S'\xd6\xf2\xfc\xf7\x04\xce\x07@\xc7Ffi\xc6\xf0\x16\xc0;\xd1\xa5\x9d %\x17@'
p2405
tp2406
bas(g727
g11
tp2407
(lp2408
g521
(g522
(I0
tp2409
g524
tp2410
Rp2411
(I1
(I3
tp2412
g557
I00
S'\xd6\xf2\xfc\xf7\x04\xce\x07@\xc7Ffi\xc6\xf0\x16\xc0<\xd1\xa5\x9d %\x17@'
p2413
tp2414
bag521
(g522
(I0
tp2415
g524
tp2416
Rp2417
(I1
(I3
tp2418
g568
I00
S'\xfe\xe8\x18\xb9\x80t\x02@\xc8\xc9\x8bB\xfe\x86\x16\xc0\x19\xcf\xcc\xc3%!\x9e\xbf'
p2419
tp2420
bag521
(g522
(I0
tp2421
g524
tp2422
Rp2423
(I1
(I3
tp2424
g568
I00
S'\xb1\x91\x83\xd6J:\x00@X\xbf\x9b\xa3\xf7;\x19\xc0\xb4\xa9\x94\xff\xff\xd1\xec?'
p2425
tp2426
bag521
(g522
(I0
tp2427
g524
tp2428
Rp2429
(I1
(I3
tp2430
g568
I00
S'JyH\x8ez\xd6\xfa?\xb3\xf7h\x83\xea\xba\x1a\xc0u\xf9Uf\xb7m\xe0?'
p2431
tp2432
bag521
(g522
(I0
tp2433
g524
tp2434
Rp2435
(I1
(I3
tp2436
g568
I00
S'*4\xc9\xb1\x13|\xf5?=~n\xf8\xb0\xf9\x1b\xc0\x97\x8e\x14L\xfds\x01@'
p2437
tp2438
bag521
(g522
(I0
tp2439
g524
tp2440
Rp2441
(I1
(I3
tp2442
g568
I00
S"f'\x1d)\\\x10\xe6?I\x87\x7f\xab\xf9\x9f\x1b\xc0\x90\xd8HX\xe5\x0e\x04@"
p2443
tp2444
bag521
(g522
(I0
tp2445
g524
tp2446
Rp2447
(I1
(I3
tp2448
g568
I00
S'\xc0T\xe2\x97\xaf3h\xbfv\xa30\xd5\xeb\xd1\x1a\xc0\x8a\rz\xc6\xa6z\x04@'
p2449
tp2450
bag521
(g522
(I0
tp2451
g524
tp2452
Rp2453
(I1
(I3
tp2454
g568
I00
S'\x0c\x8b\xaa\xe9\xe8%\xb0\xbf\xf7\x05\x80\xfb=|\x18\xc0X\xd6!\xf5\xa2\x12\x07@'
p2455
tp2456
bag521
(g522
(I0
tp2457
g524
tp2458
Rp2459
(I1
(I3
tp2460
g568
I00
S'\xe4\x02R\xd9\x08\x8c\xc7?2\xc1\xd4;\xf6\xf3\x15\xc0>\x8c\x8fa?0\xd8?'
p2461
tp2462
bag521
(g522
(I0
tp2463
g524
tp2464
Rp2465
(I1
(I3
tp2466
g568
I00
S'\xcc\x87!\x1f\xfb\x05\xe6?\x14;\x08\xf1<\xc6\x13\xc0V!\xac1j\x94\xc8?'
p2467
tp2468
bag521
(g522
(I0
tp2469
g524
tp2470
Rp2471
(I1
(I3
tp2472
g568
I00
S'`\xc8Aw-\x81\xeb?/\xc3\xe6O\x04\xca\x10\xc0\x8a\xb7K)\x91{\xe4\xbf'
p2473
tp2474
bag521
(g522
(I0
tp2475
g524
tp2476
Rp2477
(I1
(I3
tp2478
g568
I00
S'\xe1\xc6\xc7\xa7\x12X\xe7?\x98\x99\xb0\x9a\xfb\xdb\x0b\xc0R\t\x1b)\xeae\xe0\xbf'
p2479
tp2480
bag521
(g522
(I0
tp2481
g524
tp2482
Rp2483
(I1
(I3
tp2484
g568
I00
S'p\xf1\xbdc^\x84\xf1?"\x88LL\xf9D\x06\xc0~w\r\xe9m\x0f\x19@'
p2485
tp2486
bas(g815
g11
tp2487
g1027
s(g627
g11
tp2488
g1157
s(g627
g15
tp2489
(lp2490
g521
(g522
(I0
tp2491
g524
tp2492
Rp2493
(I1
(I3
tp2494
g557
I00
S'\x95\xfd\xaaE\x8f\xc1\xe5?\xb9\xa6\xc5gY\x12\x1f\xc0\\)%M\x96\x93\x08@'
p2495
tp2496
bas(g859
g15
tp2497
(lp2498
g521
(g522
(I0
tp2499
g524
tp2500
Rp2501
(I1
(I3
tp2502
g557
I00
S'\xce\xdc\xa0]\xb4\xb3\xed?a\xb9\xcf\x1f\xa8Q\x13\xc0:\x0eA\xb8^ \x13@'
p2503
tp2504
bas(g815
g15
tp2505
(lp2506
g521
(g522
(I0
tp2507
g524
tp2508
Rp2509
(I1
(I3
tp2510
g557
I00
S'\xba\x9ct\x99Y\x93\x0e@\xa8\x82\x19\x7fa\xb4\x17\xc0\x0c\x07\x97\xeb\xfc\n\x00@'
p2511
tp2512
bas(g579
g15
tp2513
(lp2514
g521
(g522
(I0
tp2515
g524
tp2516
Rp2517
(I1
(I3
tp2518
g557
I00
S'V\xaf\x1f\x0eo\xc5\t@](\nc\x03\xf6\x1c\xc0\x99V8\xd9\xc1W\x01@'
p2519
tp2520
bas(g579
g11
tp2521
g1089
s(g671
g11
tp2522
g1213
ssS'parent_binary_predicates'
p2523
(dp2524
(g2040
g2041
tp2525
(lp2526
I00
aI00
aI00
as(g2040
g2045
tp2527
(lp2528
I00
aI00
aI00
as(g2032
g2052
tp2529
(lp2530
I00
aI00
aI00
as(g2032
g2032
tp2531
(lp2532
I00
aI00
aI00
as(g2031
g2040
tp2533
(lp2534
I00
aI00
aI00
as(g2040
g2034
tp2535
(lp2536
I00
aI00
aI00
as(g2038
g2032
tp2537
(lp2538
I00
aI01
aI00
as(g2045
g2045
tp2539
(lp2540
I00
aI00
aI00
as(g2045
g2041
tp2541
(lp2542
I00
aI00
aI00
as(g2035
g2041
tp2543
(lp2544
I00
aI00
aI00
as(g2034
g2031
tp2545
(lp2546
I00
aI00
aI00
as(g2035
g2045
tp2547
(lp2548
I00
aI00
aI00
as(g2032
g2037
tp2549
(lp2550
g1329
(g528
(S'b1'
p2551
I0
I1
tp2552
Rp2553
(I3
S'|'
p2554
NNNI-1
I-1
I0
tp2555
bS'\x01'
p2556
tp2557
Rp2558
aI00
aI00
as(g2040
g2040
tp2559
(lp2560
I00
aI00
aI00
as(g2035
g2040
tp2561
(lp2562
I00
aI00
aI00
as(g2037
g2035
tp2563
(lp2564
I00
aI00
aI00
as(g2045
g2038
tp2565
(lp2566
I00
aI00
aI00
as(g2034
g2034
tp2567
(lp2568
I00
aI00
aI00
as(g2035
g2052
tp2569
(lp2570
I00
aI00
aI00
as(g2035
g2032
tp2571
(lp2572
I00
aI00
aI00
as(g2052
g2031
tp2573
(lp2574
I00
aI00
aI01
as(g2041
g2045
tp2575
(lp2576
I00
aI01
aI00
as(g2038
g2045
tp2577
(lp2578
I00
aI01
aI00
as(g2052
g2038
tp2579
(lp2580
I00
aI00
aI00
as(g2037
g2031
tp2581
(lp2582
I00
aI00
aI00
as(g2045
g2052
tp2583
(lp2584
I00
aI00
aI00
as(g2037
g2052
tp2585
(lp2586
I00
aI00
aI00
as(g2052
g2037
tp2587
(lp2588
g2558
aI00
aI00
as(g2032
g2040
tp2589
(lp2590
I00
aI00
aI00
as(g2041
g2034
tp2591
(lp2592
I00
aI00
aI00
as(g2041
g2031
tp2593
(lp2594
I00
aI00
aI01
as(g2037
g2037
tp2595
(lp2596
I00
aI00
aI00
as(g2052
g2045
tp2597
(lp2598
I00
aI00
aI00
as(g2034
g2040
tp2599
(lp2600
I00
aI00
aI00
as(g2031
g2034
tp2601
(lp2602
I00
aI00
aI00
as(g2038
g2035
tp2603
(lp2604
g2558
aI00
aI01
as(g2031
g2038
tp2605
(lp2606
I00
aI00
aI00
as(g2041
g2032
tp2607
(lp2608
I00
aI01
aI00
as(g2032
g2034
tp2609
(lp2610
I00
aI00
aI00
as(g2052
g2035
tp2611
(lp2612
g2558
aI00
aI01
as(g2032
g2038
tp2613
(lp2614
I00
aI00
aI00
as(g2052
g2052
tp2615
(lp2616
I00
aI00
aI00
as(g2035
g2031
tp2617
(lp2618
I00
aI00
aI00
as(g2045
g2031
tp2619
(lp2620
I00
aI00
aI01
as(g2037
g2038
tp2621
(lp2622
I00
aI00
aI00
as(g2031
g2041
tp2623
(lp2624
I00
aI00
aI00
as(g2040
g2052
tp2625
(lp2626
I00
aI00
aI00
as(g2038
g2037
tp2627
(lp2628
g2558
aI00
aI00
as(g2041
g2035
tp2629
(lp2630
g2558
aI00
aI01
as(g2038
g2040
tp2631
(lp2632
I00
aI00
aI00
as(g2045
g2035
tp2633
(lp2634
g2558
aI00
aI01
as(g2037
g2041
tp2635
(lp2636
I00
aI00
aI00
as(g2037
g2045
tp2637
(lp2638
I00
aI00
aI00
as(g2038
g2031
tp2639
(lp2640
I00
aI00
aI00
as(g2040
g2038
tp2641
(lp2642
I00
aI00
aI00
as(g2034
g2038
tp2643
(lp2644
I00
aI00
aI00
as(g2035
g2035
tp2645
(lp2646
I00
aI00
aI00
as(g2040
g2032
tp2647
(lp2648
I00
aI00
aI00
as(g2034
g2052
tp2649
(lp2650
I00
aI00
aI00
as(g2035
g2034
tp2651
(lp2652
I00
aI00
aI00
as(g2038
g2052
tp2653
(lp2654
I00
aI00
aI00
as(g2035
g2038
tp2655
(lp2656
I00
aI00
aI00
as(g2034
g2037
tp2657
(lp2658
g2558
aI00
aI00
as(g2032
g2031
tp2659
(lp2660
I00
aI00
aI00
as(g2034
g2045
tp2661
(lp2662
I00
aI00
aI00
as(g2045
g2034
tp2663
(lp2664
I00
aI00
aI00
as(g2037
g2040
tp2665
(lp2666
I00
aI00
aI00
as(g2052
g2040
tp2667
(lp2668
I00
aI00
aI00
as(g2040
g2035
tp2669
(lp2670
g2558
aI00
aI01
as(g2038
g2038
tp2671
(lp2672
I00
aI00
aI00
as(g2041
g2040
tp2673
(lp2674
I00
aI00
aI00
as(g2034
g2041
tp2675
(lp2676
I00
aI00
aI00
as(g2031
g2052
tp2677
(lp2678
I00
aI00
aI00
as(g2031
g2032
tp2679
(lp2680
I00
aI00
aI00
as(g2041
g2038
tp2681
(lp2682
I00
aI00
aI00
as(g2040
g2031
tp2683
(lp2684
I00
aI00
aI00
as(g2052
g2034
tp2685
(lp2686
I00
aI00
aI00
as(g2032
g2035
tp2687
(lp2688
g2558
aI00
aI01
as(g2038
g2034
tp2689
(lp2690
I00
aI00
aI00
as(g2045
g2032
tp2691
(lp2692
I00
aI00
aI00
as(g2031
g2035
tp2693
(lp2694
I00
aI00
aI00
as(g2032
g2041
tp2695
(lp2696
I00
aI00
aI00
as(g2037
g2032
tp2697
(lp2698
I00
aI00
aI00
as(g2040
g2037
tp2699
(lp2700
g2558
aI00
aI00
as(g2052
g2032
tp2701
(lp2702
I00
aI00
aI00
as(g2031
g2031
tp2703
(lp2704
I00
aI00
aI00
as(g2038
g2041
tp2705
(lp2706
I00
aI01
aI00
as(g2045
g2037
tp2707
(lp2708
g2558
aI00
aI00
as(g2041
g2037
tp2709
(lp2710
g2558
aI00
aI00
as(g2031
g2037
tp2711
(lp2712
I00
aI00
aI00
as(g2031
g2045
tp2713
(lp2714
I00
aI00
aI00
as(g2052
g2041
tp2715
(lp2716
I00
aI00
aI00
as(g2041
g2052
tp2717
(lp2718
I00
aI00
aI00
as(g2032
g2045
tp2719
(lp2720
I00
aI00
aI00
as(g2035
g2037
tp2721
(lp2722
I00
aI00
aI00
as(g2034
g2032
tp2723
(lp2724
I00
aI00
aI00
as(g2045
g2040
tp2725
(lp2726
I00
aI00
aI00
as(g2041
g2041
tp2727
(lp2728
I00
aI00
aI00
as(g2034
g2035
tp2729
(lp2730
g2558
aI00
aI01
as(g2037
g2034
tp2731
(lp2732
I00
aI00
aI00
assS'nodes'
p2733
(dp2734
g18
(lp2735
I0
aI0
aI0
aI0
aI0
aI0
aI00
aI01
aI00
aI01
aI00
asg15
(lp2736
I0
aI0
aI0
aI0
aI0
aI0
aI00
aI01
aI00
aI01
aI00
asg11
(lp2737
I0
aI0
aI0
aI0
aI0
aI0
aI00
aI01
aI01
aI01
aI00
asg33
(lp2738
I0
aI0
aI0
ag1329
(g557
S'\x98\x1e]pS`\xd2?'
p2739
tp2740
Rp2741
ag1329
(g557
S'\x16\x1b\xb6\xe9Ei\x18\xc0'
p2742
tp2743
Rp2744
ag1329
(g557
S'\x82\x97\xe8\xa1t:\xe4?'
p2745
tp2746
Rp2747
aI01
aI00
aI00
aI00
aI00
asg10
(lp2748
I0
aI0
aI0
ag1329
(g557
S'\xf7\x87\x8d\xf1\xc8}\x06@'
p2749
tp2750
Rp2751
ag1329
(g557
S'qt\x01\xa6i,\x1a\xc0'
p2752
tp2753
Rp2754
ag1329
(g557
S'\x01)\x008\x03\xdd\x0b@'
p2755
tp2756
Rp2757
aI01
aI00
aI00
aI01
aI00
asg30
(lp2758
I0
aI0
aI0
ag1329
(g557
S'\x90\x9d$/\t\xb1\xb0?'
p2759
tp2760
Rp2761
ag1329
(g557
S'T\xd9\xd7\x88y7\x1e\xc0'
p2762
tp2763
Rp2764
ag1329
(g557
S'\xa1\xa8\xa4gcb\x12@'
p2765
tp2766
Rp2767
aI01
aI00
aI00
aI01
aI00
asg19
(lp2768
I0
aI0
aI0
ag1329
(g557
S'\xf71, \xdaJ\xf5?'
p2769
tp2770
Rp2771
ag1329
(g557
S'\x8f\x94\xc7_\x9e4\x18\xc0'
p2772
tp2773
Rp2774
ag1329
(g557
S'\x88,&\x8ck,\x0b@'
p2775
tp2776
Rp2777
aI01
aI00
aI00
aI01
aI00
asg22
(lp2778
I0
aI0
aI0
ag1329
(g557
S'\xb3\x99\x7f<\xad\xb4\r@'
p2779
tp2780
Rp2781
ag1329
(g557
S'\xd8\xe5\x95\xe8\xfc\xf0\x16\xc0'
p2782
tp2783
Rp2784
ag1329
(g557
S'Y\x96n\x9e\xe7\t\x19@'
p2785
tp2786
Rp2787
aI01
aI00
aI00
aI01
aI00
asg46
(lp2788
I0
aI0
aI0
ag1329
(g557
S'\xf4\xc6\x84Ad\xa3\n@'
p2789
tp2790
Rp2791
ag1329
(g557
S'Z\xaf\xb2\x18;\x05\x1e\xc0'
p2792
tp2793
Rp2794
ag1329
(g557
S'j8\xf9\x85\xb6\xac\x0f@'
p2795
tp2796
Rp2797
aI01
aI00
aI00
aI01
aI00
asg14
(lp2798
I0
aI0
aI0
ag1329
(g557
S'Y\xcf\x19\xc3\xf23\x0c@'
p2799
tp2800
Rp2801
ag1329
(g557
S'\xac\xb5r\xad\x0f?\x15\xc0'
p2802
tp2803
Rp2804
ag1329
(g557
S'\xbf~a\xe9h\n\x13@'
p2805
tp2806
Rp2807
aI01
aI00
aI01
aI01
aI00
asg23
(lp2808
I0
aI0
aI0
ag1329
(g557
S'\xb2\xce\xcef\xfe\xbb\xf0?'
p2809
tp2810
Rp2811
ag1329
(g557
S'6@\xfc\xa1\x9e\xc0\x16\xc0'
p2812
tp2813
Rp2814
ag1329
(g557
S'\xaeKe\x14U\xf8\x13@'
p2815
tp2816
Rp2817
aI01
aI00
aI00
aI00
aI00
assS'mc_place_path'
p2818
(dp2819
sS'parent_state'
p2820
(itrajectory_representation.shortest_path_pick_and_place_state
ShortestPathPaPState
p2821
(dp2822
g2
(dp2823
sg4
(itrajectory_representation.predicates.in_region
InRegion
p2824
(dp2825
g7
Nsbsg8
(dp2826
(Vrectangular_packing_box2
p2827
g2827
g2031
tp2828
(lp2829
I00
as(g2034
g2035
g2035
tp2830
g17
s(g2037
g2038
g2031
tp2831
g21
s(g2040
g2041
g2035
tp2832
g25
s(g2052
g2031
g2031
tp2833
g382
s(g2031
g2031
g2031
tp2834
g27
s(g2041
g2827
g2035
tp2835
(lp2836
I00
as(g2034
g2032
g2031
tp2837
g32
s(g2031
g2045
g2031
tp2838
g35
s(g2040
g2034
g2031
tp2839
g37
s(g2040
g2032
g2035
tp2840
g346
s(g2037
g2045
g2031
tp2841
g452
s(g2031
g2041
g2035
tp2842
g41
s(g2040
g2037
g2031
tp2843
g43
s(g2035
g2031
g2035
tp2844
g45
s(g2045
g2052
g2031
tp2845
g48
s(g2041
g2037
g2031
tp2846
g50
s(g2040
g2038
g2035
tp2847
g52
s(g2052
g2035
g2031
tp2848
g54
s(g2037
g2827
g2035
tp2849
(lp2850
I00
as(g2827
g2035
g2031
tp2851
(lp2852
I00
as(g2827
g2045
g2035
tp2853
(lp2854
I00
as(g2034
g2034
g2035
tp2855
g64
s(g2035
g2041
g2035
tp2856
g66
s(g2037
g2040
g2031
tp2857
g70
s(g2035
g2035
g2031
tp2858
g72
s(g2052
g2045
g2035
tp2859
g74
s(g2031
g2031
g2035
tp2860
g76
s(g2041
g2827
g2031
tp2861
(lp2862
I00
as(g2038
g2040
g2035
tp2863
g78
s(g2827
g2041
g2031
tp2864
(lp2865
I01
as(g2032
g2052
g2035
tp2866
g172
s(g2038
g2031
g2035
tp2867
g84
s(g2827
g2032
g2035
tp2868
(lp2869
I00
as(g2038
g2032
g2035
tp2870
g88
s(g2032
g2038
g2031
tp2871
g90
s(g2035
g2034
g2035
tp2872
g92
s(g2034
g2037
g2035
tp2873
g446
s(g2827
g2827
g2035
tp2874
(lp2875
I00
as(g2037
g2041
g2031
tp2876
g98
s(g2035
g2031
g2031
tp2877
g100
s(g2045
g2827
g2031
tp2878
(lp2879
I00
as(g2040
g2038
g2031
tp2880
g106
s(g2040
g2052
g2031
tp2881
g360
s(g2034
g2032
g2035
tp2882
g110
s(g2052
g2040
g2031
tp2883
g112
s(g2040
g2034
g2035
tp2884
g114
s(g2040
g2827
g2035
tp2885
(lp2886
I00
as(g2037
g2040
g2035
tp2887
g118
s(g2035
g2032
g2035
tp2888
g120
s(g2037
g2031
g2031
tp2889
g122
s(g2035
g2037
g2031
tp2890
g126
s(g2827
g2041
g2035
tp2891
(lp2892
I00
as(g2052
g2827
g2035
tp2893
(lp2894
I00
as(g2041
g2038
g2035
tp2895
g148
s(g2038
g2032
g2031
tp2896
g134
s(g2037
g2827
g2031
tp2897
(lp2898
I00
as(g2037
g2052
g2035
tp2899
g186
s(g2052
g2034
g2031
tp2900
g82
s(g2041
g2034
g2031
tp2901
g140
s(g2034
g2034
g2031
tp2902
g142
s(g2034
g2045
g2031
tp2903
g144
s(g2045
g2827
g2035
tp2904
(lp2905
I00
as(g2052
g2045
g2031
tp2906
g150
s(g2038
g2040
g2031
tp2907
g152
s(g2827
g2038
g2035
tp2908
(lp2909
I00
as(g2038
g2031
g2031
tp2910
g156
s(g2040
g2827
g2031
tp2911
(lp2912
I01
as(g2827
g2052
g2031
tp2913
(lp2914
I00
as(g2032
g2038
g2035
tp2915
g162
s(g2037
g2031
g2035
tp2916
g166
s(g2037
g2041
g2035
tp2917
g168
s(g2052
g2827
g2031
tp2918
(lp2919
I00
as(g2035
g2038
g2031
tp2920
g370
s(g2827
g2037
g2035
tp2921
(lp2922
I00
as(g2040
g2052
g2035
tp2923
g402
s(g2038
g2035
g2031
tp2924
g176
s(g2052
g2040
g2035
tp2925
g178
s(g2052
g2038
g2035
tp2926
g180
s(g2041
g2034
g2035
tp2927
g182
s(g2034
g2040
g2031
tp2928
g350
s(g2038
g2035
g2035
tp2929
g138
s(g2035
g2032
g2031
tp2930
g188
s(g2827
g2038
g2031
tp2931
(lp2932
I01
as(g2041
g2038
g2031
tp2933
g194
s(g2035
g2052
g2031
tp2934
g196
s(g2031
g2040
g2035
tp2935
g164
s(g2052
g2037
g2031
tp2936
g62
s(g2034
g2045
g2035
tp2937
g204
s(g2052
g2052
g2031
tp2938
g132
s(g2040
g2040
g2031
tp2939
g464
s(g2032
g2035
g2035
tp2940
g210
s(g2034
g2038
g2031
tp2941
g214
s(g2827
g2037
g2031
tp2942
(lp2943
I00
as(g2045
g2040
g2035
tp2944
g218
s(g2032
g2827
g2035
tp2945
(lp2946
I00
as(g2052
g2038
g2031
tp2947
g222
s(g2041
g2035
g2035
tp2948
g224
s(g2040
g2031
g2031
tp2949
g226
s(g2031
g2032
g2031
tp2950
g104
s(g2035
g2038
g2035
tp2951
g232
s(g2035
g2052
g2035
tp2952
g234
s(g2034
g2052
g2031
tp2953
g236
s(g2037
g2035
g2031
tp2954
g68
s(g2034
g2038
g2035
tp2955
g240
s(g2041
g2045
g2031
tp2956
g228
s(g2827
g2040
g2031
tp2957
(lp2958
I00
as(g2032
g2031
g2035
tp2959
g246
s(g2041
g2035
g2031
tp2960
g248
s(g2035
g2045
g2035
tp2961
g250
s(g2827
g2045
g2031
tp2962
(lp2963
I01
as(g2040
g2045
g2031
tp2964
g470
s(g2045
g2045
g2031
tp2965
g256
s(g2045
g2032
g2035
tp2966
g258
s(g2032
g2035
g2031
tp2967
g260
s(g2040
g2041
g2031
tp2968
g482
s(g2052
g2041
g2031
tp2969
g262
s(g2045
g2040
g2031
tp2970
g264
s(g2040
g2035
g2035
tp2971
g266
s(g2032
g2037
g2035
tp2972
g268
s(g2040
g2031
g2035
tp2973
g270
s(g2034
g2040
g2035
tp2974
g272
s(g2041
g2045
g2035
tp2975
g274
s(g2052
g2031
g2035
tp2976
g276
s(g2032
g2031
g2031
tp2977
g278
s(g2035
g2045
g2031
tp2978
g280
s(g2038
g2038
g2031
tp2979
g282
s(g2034
g2052
g2035
tp2980
g290
s(g2041
g2052
g2031
tp2981
g286
s(g2034
g2827
g2031
tp2982
(lp2983
I00
as(g2031
g2037
g2031
tp2984
g58
s(g2045
g2034
g2035
tp2985
g292
s(g2031
g2040
g2031
tp2986
g294
s(g2037
g2032
g2035
tp2987
g296
s(g2032
g2034
g2031
tp2988
g298
s(g2038
g2037
g2031
tp2989
g300
s(g2052
g2041
g2035
tp2990
g302
s(g2052
g2032
g2035
tp2991
g304
s(g2035
g2041
g2031
tp2992
g284
s(g2031
g2052
g2035
tp2993
g230
s(g2045
g2035
g2031
tp2994
g310
s(g2032
g2037
g2031
tp2995
g312
s(g2041
g2032
g2035
tp2996
g314
s(g2827
g2040
g2035
tp2997
(lp2998
I00
as(g2032
g2052
g2031
tp2999
g474
s(g2041
g2041
g2035
tp3000
g320
s(g2045
g2045
g2035
tp3001
g322
s(g2038
g2038
g2035
tp3002
g324
s(g2034
g2041
g2035
tp3003
g326
s(g2034
g2037
g2031
tp3004
g400
s(g2037
g2034
g2031
tp3005
g330
s(g2031
g2037
g2035
tp3006
g332
s(g2031
g2038
g2035
tp3007
g334
s(g2040
g2035
g2031
tp3008
g336
s(g2034
g2827
g2035
tp3009
(lp3010
I00
as(g2038
g2034
g2035
tp3011
g340
s(g2040
g2045
g2035
tp3012
g404
s(g2037
g2032
g2031
tp3013
g344
s(g2827
g2034
g2031
tp3014
(lp3015
I00
as(g2032
g2045
g2035
tp3016
g39
s(g2038
g2037
g2035
tp3017
g348
s(g2035
g2040
g2035
tp3018
g190
s(g2045
g2038
g2035
tp3019
g352
s(g2827
g2035
g2035
tp3020
(lp3021
I00
as(g2041
g2032
g2031
tp3022
g356
s(g2034
g2031
g2035
tp3023
g358
s(g2032
g2041
g2031
tp3024
g108
s(g2038
g2052
g2031
tp3025
g238
s(g2045
g2037
g2031
tp3026
g364
s(g2035
g2037
g2035
tp3027
g366
s(g2041
g2052
g2035
tp3028
g368
s(g2037
g2037
g2035
tp3029
g372
s(g2045
g2034
g2031
tp3030
g374
s(g2034
g2041
g2031
tp3031
g376
s(g2037
g2045
g2035
tp3032
g412
s(g2032
g2034
g2035
tp3033
g380
s(g2045
g2031
g2035
tp3034
g212
s(g2037
g2034
g2035
tp3035
g384
s(g2052
g2032
g2031
tp3036
g386
s(g2032
g2040
g2031
tp3037
g388
s(g2045
g2035
g2035
tp3038
g390
s(g2827
g2034
g2035
tp3039
(lp3040
I00
as(g2038
g2827
g2031
tp3041
(lp3042
I00
as(g2037
g2035
g2035
tp3043
g396
s(g2041
g2040
g2031
tp3044
g328
s(g2032
g2041
g2035
tp3045
g202
s(g2032
g2032
g2035
tp3046
g342
s(g2032
g2827
g2031
tp3047
(lp3048
I00
as(g2041
g2031
g2031
tp3049
g406
s(g2052
g2052
g2035
tp3050
g362
s(g2045
g2041
g2031
tp3051
g410
s(g2035
g2827
g2035
tp3052
(lp3053
I00
as(g2031
g2038
g2031
tp3054
g414
s(g2031
g2052
g2031
tp3055
g416
s(g2038
g2045
g2031
tp3056
g420
s(g2038
g2034
g2031
tp3057
g418
s(g2827
g2052
g2035
tp3058
(lp3059
I00
as(g2037
g2052
g2031
tp3060
g422
s(g2040
g2032
g2031
tp3061
g424
s(g2040
g2040
g2035
tp3062
g426
s(g2038
g2041
g2035
tp3063
g428
s(g2041
g2031
g2035
tp3064
g430
s(g2827
g2031
g2031
tp3065
(lp3066
I00
as(g2034
g2031
g2031
tp3067
g434
s(g2038
g2827
g2035
tp3068
(lp3069
I00
as(g2045
g2037
g2035
tp3070
g408
s(g2031
g2032
g2035
tp3071
g184
s(g2031
g2035
g2031
tp3072
g440
s(g2037
g2037
g2031
tp3073
g442
s(g2031
g2827
g2035
tp3074
(lp3075
I00
as(g2041
g2040
g2035
tp3076
g94
s(g2035
g2040
g2031
tp3077
g448
s(g2045
g2031
g2031
tp3078
g124
s(g2035
g2827
g2031
tp3079
(lp3080
I00
as(g2034
g2035
g2031
tp3081
g454
s(g2045
g2038
g2031
tp3082
g306
s(g2031
g2034
g2031
tp3083
g458
s(g2037
g2038
g2035
tp3084
g460
s(g2038
g2052
g2035
tp3085
g206
s(g2041
g2037
g2035
tp3086
g462
s(g2032
g2045
g2031
tp3087
g450
s(g2031
g2034
g2035
tp3088
g208
s(g2038
g2041
g2031
tp3089
g466
s(g2052
g2037
g2035
tp3090
g468
s(g2032
g2032
g2031
tp3091
g254
s(g2031
g2041
g2031
tp3092
g472
s(g2045
g2041
g2035
tp3093
g476
s(g2041
g2041
g2031
tp3094
g478
s(g2038
g2045
g2035
tp3095
g480
s(g2052
g2034
g2035
tp3096
g318
s(g2052
g2035
g2035
tp3097
g484
s(g2827
g2032
g2031
tp3098
(lp3099
I00
as(g2045
g2032
g2031
tp3100
g354
s(g2031
g2045
g2035
tp3101
g490
s(g2827
g2031
g2035
tp3102
(lp3103
I00
as(g2035
g2035
g2035
tp3104
g494
s(g2040
g2037
g2035
tp3105
g496
s(g2045
g2052
g2035
tp3106
g498
s(g2031
g2035
g2035
tp3107
g500
s(g2031
g2827
g2031
tp3108
(lp3109
I00
as(g2035
g2034
g2031
tp3110
g504
s(g2032
g2040
g2035
tp3111
g456
ssg505
(dp3112
Vrectangular_packing_box4
p3113
g508
sVrectangular_packing_box2
p3114
(itrajectory_representation.operator
Operator
p3115
(dp3116
g510
I01
sg511
(dp3117
g513
Vrectangular_packing_box2
p3118
ssg515
g516
sg517
(dp3119
g519
(lp3120
g521
(g522
(I0
tp3121
g524
tp3122
Rp3123
(I1
(I3
tp3124
g531
I00
S'\x91\x07\xbd)b\xbe\xfb?\x0f\x85t\x92\x153\x18\xc0\x8e\xc6\xaf\xc59L\xdb\xbf'
p3125
tp3126
bag521
(g522
(I0
tp3127
g524
tp3128
Rp3129
(I1
(I3
tp3130
g531
I00
S'Y%SSZ\x02\x05@J\xa1dRg \x1e\xc0\xde2Yo\x08\x01\x00@'
p3131
tp3132
bag521
(g522
(I0
tp3133
g524
tp3134
Rp3135
(I1
(I3
tp3136
g531
I00
S'\\\xcb,\x86\xdc\x8b\x00@k\x82\xd4\xc5\xd4\x10\x18\xc00\xc0$\xccy\xd6\xee\xbf'
p3137
tp3138
basg548
I00
ssg549
(lp3139
g521
(g522
(I0
tp3140
g524
tp3141
Rp3142
(I1
(I3
tp3143
g531
I00
S'dR\xdd8\xd6\x8d\x00@\xc1C|\xd2X\x00\x16\xc0\xc0\xab\x9e\x0b\x900\xd2?'
p3144
tp3145
bag521
(g522
(I0
tp3146
g524
tp3147
Rp3148
(I1
(I3
tp3149
g528
(S'f8'
p3150
I0
I1
tp3151
Rp3152
(I3
S'<'
p3153
NNNI-1
I-1
I0
tp3154
bI00
S'\x16\x9e\xd06H\xd3\x04@\xe5\xe1\xfb\xc5\xb8\xd1\x16\xc0es\x86\x03\xdb\x8e\x17@'
p3155
tp3156
bag521
(g522
(I0
tp3157
g524
tp3158
Rp3159
(I1
(I3
tp3160
g3152
I00
S'\xe6rt0\xc6`\x05@\xe8\xf6\xaa\xc7\x03\x10\x17\xc0v\x9e\xc9\x80o\x15\xed\xbf'
p3161
tp3162
bag3135
asbsVrectangular_packing_box3
p3163
g628
sVrectangular_packing_box1
p3164
g672
sVsquare_packing_box2
p3165
g728
sVsquare_packing_box3
p3166
g772
sVsquare_packing_box1
p3167
g816
sVsquare_packing_box4
p3168
g860
ssg903
I01
sg904
(lp3169
S'square_packing_box1'
p3170
aS'rectangular_packing_box1'
p3171
aS'square_packing_box2'
p3172
aS'rectangular_packing_box2'
p3173
aS'square_packing_box3'
p3174
aS'rectangular_packing_box3'
p3175
aS'square_packing_box4'
p3176
aS'rectangular_packing_box4'
p3177
asg7
Nsg914
(dp3178
Vrectangular_packing_box4
p3179
g920
sVrectangular_packing_box2
p3180
g917
((lp3181
I256
aI514
aI65
aI268
aI66
aI577
aI145
aI146
aI538
aI413
aI35
aI36
aI37
aI422
aI92
aI556
aI302
aI303
aI561
aI178
aI179
aI54
aI55
aI443
aI188
aI62
aI63
aI64
aI449
aI194
aI67
aI68
aI69
aI435
aI205
aI79
aI80
aI210
aI595
aI215
aI89
aI90
aI219
aI220
aI605
aI611
aI550
aI438
aI444
aI114
aI115
aI372
aI376
aI91
aI511
atp3182
Rp3183
sVrectangular_packing_box3
p3184
g928
sVrectangular_packing_box1
p3185
g932
sVsquare_packing_box2
p3186
g936
sVsquare_packing_box3
p3187
g940
sVsquare_packing_box1
p3188
g944
sVsquare_packing_box4
p3189
g948
ssg949
(lp3190
(g3113
g2035
tp3191
a(g3114
g2035
tp3192
a(g3163
g2035
tp3193
a(g3164
g2035
tp3194
a(g3165
g2035
tp3195
a(g3166
g2035
tp3196
a(g3167
g2035
tp3197
a(g3168
g2035
tp3198
a(g3113
g2031
tp3199
a(g3166
g2031
tp3200
a(g3168
g2031
tp3201
asg963
(dp3202
Vrectangular_packing_box4
p3203
g521
(g522
(I0
tp3204
g524
tp3205
Rp3206
(I1
(I1
I3
tp3207
g531
I00
S'\x98\x1e]pS`\xd2?\x16\x1b\xb6\xe9Ei\x18\xc0\x82\x97\xe8\xa1t:\xe4?'
p3208
tp3209
bsVrectangular_packing_box2
p3210
g521
(g522
(I0
tp3211
g524
tp3212
Rp3213
(I1
(I1
I3
tp3214
g531
I00
S'x#\x8a\xa8\xbfB\x02@]@\xdd\xaa0\xf7\x1a\xc0\xa2\x93\xe4\xf2\xe3\x8f\xe0?'
p3215
tp3216
bsVrectangular_packing_box3
p3217
g521
(g522
(I0
tp3218
g524
tp3219
Rp3220
(I1
(I1
I3
tp3221
g531
I00
S'\xbc\xa2$/\t\xb1\xb0?p\xd9\xd7\x88y7\x1e\xc0\xa1\xa8\xa4gcb\x12@'
p3222
tp3223
bsVrectangular_packing_box1
p3224
g521
(g522
(I0
tp3225
g524
tp3226
Rp3227
(I1
(I1
I3
tp3228
g531
I00
S'\xf81, \xdaJ\xf5?\x90\x94\xc7_\x9e4\x18\xc0\x88,&\x8ck,\x0b@'
p3229
tp3230
bsVsquare_packing_box2
p3231
g521
(g522
(I0
tp3232
g524
tp3233
Rp3234
(I1
(I1
I3
tp3235
g531
I00
S'\xb3\x99\x7f<\xad\xb4\r@\xd8\xe5\x95\xe8\xfc\xf0\x16\xc0Y\x96n\x9e\xe7\t\x19@'
p3236
tp3237
bsVsquare_packing_box3
p3238
g521
(g522
(I0
tp3239
g524
tp3240
Rp3241
(I1
(I1
I3
tp3242
g531
I00
S'2\xc7\x84Ad\xa3\n@\xae\xaf\xb2\x18;\x05\x1e\xc0j8\xf9\x85\xb6\xac\x0f@'
p3243
tp3244
bsVsquare_packing_box1
p3245
g521
(g522
(I0
tp3246
g524
tp3247
Rp3248
(I1
(I1
I3
tp3249
g531
I00
S'\x15\xcf\x19\xc3\xf23\x0c@\x8b\xb5r\xad\x0f?\x15\xc0\xbf~a\xe9h\n\x13@'
p3250
tp3251
bsVsquare_packing_box4
p3252
g521
(g522
(I0
tp3253
g524
tp3254
Rp3255
(I1
(I1
I3
tp3256
g531
I00
S'V\xce\xcef\xfe\xbb\xf0?J@\xfc\xa1\x9e\xc0\x16\xc0\xaeKe\x14U\xf8\x13@'
p3257
tp3258
bssg1021
(itrajectory_representation.predicates.place_in_way
PlaceInWay
p3259
(dp3260
g1311
(dp3261
(g2038
g2827
g2031
tp3262
I00
s(g2040
g2827
g2031
tp3263
I01
s(g2827
g2052
g2031
tp3264
I00
s(g2034
g2032
g2031
tp3265
I00
s(g2040
g2034
g2031
tp3266
I00
s(g2038
g2034
g2031
tp3267
I00
s(g2038
g2045
g2031
tp3268
I00
s(g2032
g2045
g2031
tp3269
I01
s(g2034
g2827
g2031
tp3270
I00
s(g2827
g2038
g2031
tp3271
I01
s(g2032
g2034
g2031
tp3272
I00
s(g2827
g2034
g2031
tp3273
I00
s(g2040
g2032
g2031
tp3274
I00
s(g2827
g2041
g2031
tp3275
I01
s(g2034
g2038
g2031
tp3276
I01
s(g2040
g2041
g2031
tp3277
I01
s(g2032
g2038
g2031
tp3278
I01
s(g2038
g2041
g2031
tp3279
I01
s(g2040
g2038
g2031
tp3280
I01
s(g2040
g2052
g2031
tp3281
I00
s(g2040
g2045
g2031
tp3282
I00
s(g2034
g2040
g2031
tp3283
I01
s(g2032
g2052
g2031
tp3284
I00
s(g2034
g2052
g2031
tp3285
I00
s(g2032
g2041
g2031
tp3286
I01
s(g2038
g2052
g2031
tp3287
I00
s(g2038
g2032
g2031
tp3288
I00
s(g2032
g2827
g2031
tp3289
I00
s(g2827
g2040
g2031
tp3290
I00
s(g2034
g2041
g2031
tp3291
I01
s(g2034
g2045
g2031
tp3292
I00
s(g2827
g2045
g2031
tp3293
I01
s(g2032
g2040
g2031
tp3294
I00
s(g2827
g2032
g2031
tp3295
I00
s(g2038
g2040
g2031
tp3296
I00
ssg1024
(dp3297
(g2034
g2031
tp3298
(lp3299
g521
(g522
(I0
tp3300
g524
tp3301
Rp3302
(I1
(I3
tp3303
g531
I00
S'\xba\x9ct\x99Y\x93\x0e@\xa6\x82\x19\x7fa\xb4\x17\xc0\x0c\x07\x97\xeb\xfc\n\x00@'
p3304
tp3305
bag521
(g522
(I0
tp3306
g524
tp3307
Rp3308
(I1
(I3
tp3309
g3152
I00
S'\xcb\x1a\x84\x1d\\\x9c\x08@\xec\xcbi\xc9#;\x18\xc0\xbf\xf24g\x02T\x05@'
p3310
tp3311
bag521
(g522
(I0
tp3312
g524
tp3313
Rp3314
(I1
(I3
tp3315
g3152
I00
S'\xf8d\x877\x12\xfd\x04@h\xdbW\x9a\x83\x8e\x16\xc0\x87\xf16\xb9\x03k\x05@'
p3316
tp3317
bag521
(g522
(I0
tp3318
g524
tp3319
Rp3320
(I1
(I3
tp3321
g3152
I00
S'\xc7\xc7\x06s\xd6\xa3\xff?3\x91\xe4\x97\xb5\x07\x16\xc0\x1bW\xbc\xbfY:\x06@'
p3322
tp3323
bag521
(g522
(I0
tp3324
g524
tp3325
Rp3326
(I1
(I3
tp3327
g3152
I00
S'\x85\\2\xba\x0b5\xf5?I\r\x06\xd10\xfb\x15\xc0\x9e\x11\xee\xd8\xb9\xd7\xf5?'
p3328
tp3329
bag521
(g522
(I0
tp3330
g524
tp3331
Rp3332
(I1
(I3
tp3333
g3152
I00
S'v\xb8^\x85\xa7[\xea?x\xbe\xff2t\x8d\x13\xc0\x88\x85\x8cCyH\xf6?'
p3334
tp3335
bag521
(g522
(I0
tp3336
g524
tp3337
Rp3338
(I1
(I3
tp3339
g3152
I00
S'\xc2\xda(e\x83\x1a\xeb?\x8au\x8d3\xa6E\x11\xc0\xb4c\x1b\xed_\xfd\xfa?'
p3340
tp3341
bag521
(g522
(I0
tp3342
g524
tp3343
Rp3344
(I1
(I3
tp3345
g3152
I00
S'\xe4u**\x0e5\xe9?\xaa\xfd\r\xed\xc4\xf6\r\xc0\x0fDE0\x1f\x0b\xfe?'
p3346
tp3347
bag521
(g522
(I0
tp3348
g524
tp3349
Rp3350
(I1
(I3
tp3351
g3152
I00
S'\x06\x11,\xef\x98O\xe7??\x10\x01s=b\t\xc04\x92\xb79o\x8c\x00@'
p3352
tp3353
bag521
(g522
(I0
tp3354
g524
tp3355
Rp3356
(I1
(I3
tp3357
g3152
I00
S'\x92\xaf\xf3P\x96O\xc2?(\xa1:\x8er}\x05\xc0\xd4_\x91\xb3\xffL\x02@'
p3358
tp3359
bas(g2827
g2031
tp3360
(lp3361
g521
(g522
(I0
tp3362
g524
tp3363
Rp3364
(I1
(I3
tp3365
g531
I00
S'\x90\x07\xbd)b\xbe\xfb?\x0f\x85t\x92\x153\x18\xc0\xaf0\xe9\xb77m\x17@'
p3366
tp3367
bag521
(g522
(I0
tp3368
g524
tp3369
Rp3370
(I1
(I3
tp3371
g3152
I00
S'N\xcd\xaa\x1e;\x0f\xee?&\xa8j\x7f\xa2\xe5\x17\xc0\xc1rR\xf6\xd1Y\xe0\xbf'
p3372
tp3373
bag521
(g522
(I0
tp3374
g524
tp3375
Rp3376
(I1
(I3
tp3377
g3152
I00
S'\xe4\x9e\xb7\xac\xe0!\xeb?\x8a\x83\x10\xb1\xa2\xad\x15\xc0\x9aS\xfbY\xaf\x8f\xd2\xbf'
p3378
tp3379
bag521
(g522
(I0
tp3380
g524
tp3381
Rp3382
(I1
(I3
tp3383
g3152
I00
S"\xb2&6mg)\xe8?\x99\xe0G'\x16\xe0\x13\xc0\xc8oL\xf5\x17p\xe6\xbf"
p3384
tp3385
bag521
(g522
(I0
tp3386
g524
tp3387
Rp3388
(I1
(I3
tp3389
g3152
I00
S'`\xc8Aw-\x81\xeb?/\xc3\xe6O\x04\xca\x10\xc0\x8a\xb7K)\x91{\xe4\xbf'
p3390
tp3391
bag521
(g522
(I0
tp3392
g524
tp3393
Rp3394
(I1
(I3
tp3395
g3152
I00
S'\xe1\xc6\xc7\xa7\x12X\xe7?\x98\x99\xb0\x9a\xfb\xdb\x0b\xc0R\t\x1b)\xeae\xe0\xbf'
p3396
tp3397
bag521
(g522
(I0
tp3398
g524
tp3399
Rp3400
(I1
(I3
tp3401
g3152
I00
S'p\xf1\xbdc^\x84\xf1?"\x88LL\xf9D\x06\xc0~w\r\xe9m\x0f\x19@'
p3402
tp3403
bas(g2032
g2031
tp3404
(lp3405
g521
(g522
(I0
tp3406
g524
tp3407
Rp3408
(I1
(I3
tp3409
g531
I00
S'\x99\xfd\xaaE\x8f\xc1\xe5?\xbb\xa6\xc5gY\x12\x1f\xc0\\)%M\x96\x93\x08@'
p3410
tp3411
bag521
(g522
(I0
tp3412
g524
tp3413
Rp3414
(I1
(I3
tp3415
g3152
I00
S'\xd23W\xd6\xdd\xe3\xe6?\xdc\xcai,~\xa9\x1c\xc0\xe4\x03\x93/\x16_\x04\xc0'
p3416
tp3417
bag521
(g522
(I0
tp3418
g524
tp3419
Rp3420
(I1
(I3
tp3421
g3152
I00
S'\xf8\xfc\x1a\xd0\xc9l\xe8?\x8a\x897\x8e~\x98\x1a\xc0\xaf\xf7\xb87\xc6\xa7\x01\xc0'
p3422
tp3423
bag521
(g522
(I0
tp3424
g524
tp3425
Rp3426
(I1
(I3
tp3427
g3152
I00
S'\xf8C*\xbe\x14\xcf\xe8?\x81d\xab\xeb\xa8<\x18\xc0\xc8\\\xf4\x8c\xc3\xfa\xfe\xbf'
p3428
tp3429
bag521
(g522
(I0
tp3430
g524
tp3431
Rp3432
(I1
(I3
tp3433
g3152
I00
S'\xd0\xcb\x13\x8f\xaa\x9d\xed?\x90\x01<]3\x06\x16\xc0F\xf1\xe7x32\x02\xc0'
p3434
tp3435
bag521
(g522
(I0
tp3436
g524
tp3437
Rp3438
(I1
(I3
tp3439
g3152
I00
S'l[\xc4\x16<\xe6\xe9?\xa6\xa0\x90\x84X\x9f\x13\xc0\xc2\xd74Q\x00\xaf\xff\xbf'
p3440
tp3441
bag521
(g522
(I0
tp3442
g524
tp3443
Rp3444
(I1
(I3
tp3445
g3152
I00
S"\xaeJ\xbd\x1936\xec?\x04\x13\xd4'\x9f\x88\x10\xc0\x805qo\xb6\xe6\xff\xbf"
p3446
tp3447
bag521
(g522
(I0
tp3448
g524
tp3449
Rp3450
(I1
(I3
tp3451
g3152
I00
S'\xf09\xb6\x1c*\x86\xee?\xc4\n/\x96\xcb\xe3\n\xc0\xa0\xc9\xd6F6\x0f\x00\xc0'
p3452
tp3453
bag521
(g522
(I0
tp3454
g524
tp3455
Rp3456
(I1
(I3
tp3457
g3152
I00
S'3\xe9\xaf\x05T\x89\xe7?+~\xcb\xd3\x15\xc7\x04\xc0x6(d5\xed\x07@'
p3458
tp3459
bas(g2038
g2031
tp3460
(lp3461
g521
(g522
(I0
tp3462
g524
tp3463
Rp3464
(I1
(I3
tp3465
g531
I00
S'\x00\xca\xc0\xcf\xd9[\xf0?\x96/#\xddH6\x15\xc0F\xa4\xd4\xc0\xcb\x98\x14@'
p3466
tp3467
bag521
(g522
(I0
tp3468
g524
tp3469
Rp3470
(I1
(I3
tp3471
g3152
I00
S'A\x17\xef\x80|\x96\xed?\xac\xb9\xac\x81\xb2M\x12\xc0 -\xe6\\\xe0\x1a\t\xc0'
p3472
tp3473
bag521
(g522
(I0
tp3474
g524
tp3475
Rp3476
(I1
(I3
tp3477
g3152
I00
S'N\nd\xc1\xac\x11\xe6?\xa7\xb8"u\xaf\xb8\x0e\xc0\xfeK\xd2\xea\x9eB\x08\xc0'
p3478
tp3479
bag521
(g522
(I0
tp3480
g524
tp3481
Rp3482
(I1
(I3
tp3483
g3152
I00
S'\xf09\xb6\x1c*\x86\xee?\xc4\n/\x96\xcb\xe3\n\xc0\xa0\xc9\xd6F6\x0f\x00\xc0'
p3484
tp3485
bag521
(g522
(I0
tp3486
g524
tp3487
Rp3488
(I1
(I3
tp3489
g3152
I00
S'\xf4\xfdJ\x1a(#\xec?H"\x9cD\x1aE\x05\xc0.\xa9\x0b\x87\xf8\xe1\x02@'
p3490
tp3491
bas(g2040
g2031
tp3492
(lp3493
g521
(g522
(I0
tp3494
g524
tp3495
Rp3496
(I1
(I3
tp3497
g531
I00
S'\xd8\xf2\xfc\xf7\x04\xce\x07@\xc6Ffi\xc6\xf0\x16\xc0<\xd1\xa5\x9d %\x17@'
p3498
tp3499
bag521
(g522
(I0
tp3500
g524
tp3501
Rp3502
(I1
(I3
tp3503
g3152
I00
S'\x93\xe8\x9a\xb2\xd1\xfa\x03@\x8aHE%\xee\xed\x15\xc0\xf8hW\x99?x\xfa\xbf'
p3504
tp3505
bag521
(g522
(I0
tp3506
g524
tp3507
Rp3508
(I1
(I3
tp3509
g3152
I00
S'!\x83\xc0\xf3W\x85\xff?\xed\x8f\x90/y\xfd\x16\xc06jP\xfe\x98\xf5\xf4\xbf'
p3510
tp3511
bag521
(g522
(I0
tp3512
g524
tp3513
Rp3514
(I1
(I3
tp3515
g3152
I00
S'2Z\xe1\xe97J\xf6?\\\x1e`@2v\x16\xc0\xc4\x0c\xcc\x14<\xf9\xf6\xbf'
p3516
tp3517
bag521
(g522
(I0
tp3518
g524
tp3519
Rp3520
(I1
(I3
tp3521
g3152
I00
S'tx\x8as\xa8b\xed?\x9ej\x15\xfa\xf0{\x15\xc0@\xed\x9a-\x9eD\xf2\xbf'
p3522
tp3523
bag521
(g522
(I0
tp3524
g524
tp3525
Rp3526
(I1
(I3
tp3527
g3152
I00
S"\xb2&6mg)\xe8?\x99\xe0G'\x16\xe0\x13\xc0\xc8oL\xf5\x17p\xe6\xbf"
p3528
tp3529
bag521
(g522
(I0
tp3530
g524
tp3531
Rp3532
(I1
(I3
tp3533
g3152
I00
S'`\xc8Aw-\x81\xeb?/\xc3\xe6O\x04\xca\x10\xc0\x8a\xb7K)\x91{\xe4\xbf'
p3534
tp3535
bag521
(g522
(I0
tp3536
g524
tp3537
Rp3538
(I1
(I3
tp3539
g3152
I00
S'\xe1\xc6\xc7\xa7\x12X\xe7?\x98\x99\xb0\x9a\xfb\xdb\x0b\xc0R\t\x1b)\xeae\xe0\xbf'
p3540
tp3541
bag521
(g522
(I0
tp3542
g524
tp3543
Rp3544
(I1
(I3
tp3545
g3152
I00
S'p\xf1\xbdc^\x84\xf1?"\x88LL\xf9D\x06\xc0~w\r\xe9m\x0f\x19@'
p3546
tp3547
bassg1244
(dp3548
(g2034
g2031
tp3549
(lp3550
Vsquare_packing_box2
p3551
aVrectangular_packing_box1
p3552
aVsquare_packing_box4
p3553
as(g2827
g2031
tp3554
(lp3555
Vrectangular_packing_box1
p3556
aVsquare_packing_box4
p3557
aVrectangular_packing_box4
p3558
as(g2032
g2031
tp3559
(lp3560
Vrectangular_packing_box1
p3561
aVsquare_packing_box4
p3562
aVrectangular_packing_box4
p3563
as(g2038
g2031
tp3564
(lp3565
Vsquare_packing_box4
p3566
as(g2040
g2031
tp3567
(lp3568
Vrectangular_packing_box2
p3569
aVrectangular_packing_box1
p3570
aVsquare_packing_box4
p3571
assg1266
(lp3572
g3114
ag3165
ag3166
ag3167
asg1268
(dp3573
Vrectangular_packing_box4
p3574
g1273
sVrectangular_packing_box2
p3575
g917
((lp3576
I256
aI65
aI268
aI66
aI145
aI538
aI413
aI91
aI36
aI37
aI422
aI92
aI561
aI178
aI179
aI54
aI443
aI188
aI63
aI64
aI577
aI194
aI69
aI435
aI205
aI79
aI80
aI595
aI215
aI89
aI90
aI219
aI220
aI444
aI114
aI115
aI376
aI511
atp3577
Rp3578
sVrectangular_packing_box3
p3579
g1281
sVrectangular_packing_box1
p3580
g1285
sVsquare_packing_box2
p3581
g1289
sVsquare_packing_box3
p3582
g1293
sVsquare_packing_box1
p3583
g1297
sVsquare_packing_box4
p3584
g1301
ssg2
g2823
sg505
g3112
sg1302
(dp3585
sg1304
Nsg1305
(lp3586
sg1307
(dp3587
sg1310
g3112
sg1309
I0
sg7
Nsg1323
Nsg1324
I01
sbsg1325
(dp3588
g3113
(lp3589
g521
(g522
(I0
tp3590
g524
tp3591
Rp3592
(I1
(I3
tp3593
g531
I00
S'dR\xdd8\xd6\x8d\x00@\xc1C|\xd2X\x00\x16\xc0\xc0\xab\x9e\x0b\x900\xd2?'
p3594
tp3595
bag521
(g522
(I0
tp3596
g524
tp3597
Rp3598
(I1
(I3
tp3599
g3152
I00
S'\xf5I-\xc1\xee\x1f\xfa?Zc\rx\x9c\n\x18\xc0?_z:D*\x17@'
p3600
tp3601
bag521
(g522
(I0
tp3602
g524
tp3603
Rp3604
(I1
(I3
tp3605
g3152
I00
S'-%/\xa8h{\xf9?\x98fM\xb1\x8f\x0e\x16\xc0\x8f\x17\x96\x89\xffQ\x10@'
p3606
tp3607
bag544
asg3114
g3139
sg3163
(lp3608
g521
(g522
(I0
tp3609
g524
tp3610
Rp3611
(I1
(I3
tp3612
g531
I00
S'dR\xdd8\xd6\x8d\x00@\xc1C|\xd2X\x00\x16\xc0\xc0\xab\x9e\x0b\x900\xd2?'
p3613
tp3614
bag521
(g522
(I0
tp3615
g524
tp3616
Rp3617
(I1
(I3
tp3618
g3152
I00
S'\x0e]\xf2K\xc6E\xf7?\x06\x8c\xb9Ybt\x17\xc0%\xac6\x86\x93\xa8\xdd?'
p3619
tp3620
bag521
(g522
(I0
tp3621
g524
tp3622
Rp3623
(I1
(I3
tp3624
g3152
I00
S'Pa\x88\xb1[\x02\xf1?\x1e\x1c\xb3\x8d\x8c\xb7\x19\xc0t\xf6\xbb\xc4\x878\x11@'
p3625
tp3626
bag642
asg3164
(lp3627
g521
(g522
(I0
tp3628
g524
tp3629
Rp3630
(I1
(I3
tp3631
g531
I00
S'dR\xdd8\xd6\x8d\x00@\xc1C|\xd2X\x00\x16\xc0\xc0\xab\x9e\x0b\x900\xd2?'
p3632
tp3633
bag521
(g522
(I0
tp3634
g524
tp3635
Rp3636
(I1
(I3
tp3637
g3152
I00
S'/\xe1\x02^.|\x00@\xb8\xae\xc5\xcfF\x16\x17\xc0\xf8\x01)d\xc5\xf9\xe2?'
p3638
tp3639
bag521
(g522
(I0
tp3640
g524
tp3641
Rp3642
(I1
(I3
tp3643
g3152
I00
S'\xe0 ;\x819w\xfd?\xe7\xcc\xc2\xa0\xa5f\x17\xc04\xedq\x1c\x8eK\xfa?'
p3644
tp3645
bag686
asg3165
(lp3646
g521
(g522
(I0
tp3647
g524
tp3648
Rp3649
(I1
(I3
tp3650
g531
I00
S'dR\xdd8\xd6\x8d\x00@\xc1C|\xd2X\x00\x16\xc0\xc0\xab\x9e\x0b\x900\xd2?'
p3651
tp3652
bag521
(g522
(I0
tp3653
g524
tp3654
Rp3655
(I1
(I3
tp3656
g3152
I00
S'\x00\xda\x1c<\xfd\xdc\x00@j"\x91\xe3 \x1a\x18\xc0i~!@)\xb0\xdc\xbf'
p3657
tp3658
bag521
(g522
(I0
tp3659
g524
tp3660
Rp3661
(I1
(I3
tp3662
g3152
I00
S'\xe6rt0\xc6`\x05@\xe8\xf6\xaa\xc7\x03\x10\x17\xc0v\x9e\xc9\x80o\x15\xed\xbf'
p3663
tp3664
bag736
asg3166
(lp3665
g521
(g522
(I0
tp3666
g524
tp3667
Rp3668
(I1
(I3
tp3669
g531
I00
S'dR\xdd8\xd6\x8d\x00@\xc1C|\xd2X\x00\x16\xc0\xc0\xab\x9e\x0b\x900\xd2?'
p3670
tp3671
bag521
(g522
(I0
tp3672
g524
tp3673
Rp3674
(I1
(I3
tp3675
g3152
I00
S'\x19\xdbXU\x9c\xa8\x04@\xe6\xf1\xeb\xae\xcb\x05\x18\xc0\xce\x9cp\x98\xaf*\xeb?'
p3676
tp3677
bag521
(g522
(I0
tp3678
g524
tp3679
Rp3680
(I1
(I3
tp3681
g3152
I00
S'g\x886\x82\xe7\x9e\t@\x81\x00+\xe8\xfe$\x19\xc0m@m\xfd\x93\x06\xf2?'
p3682
tp3683
bag521
(g522
(I0
tp3684
g524
tp3685
Rp3686
(I1
(I3
tp3687
g3152
I00
S'\x9a\x9e\xdc\x13\r\n\n@\xf1\xbcp\x07u\xf1\x1a\xc0\xd2JG\xa3\xec%\xd4\xbf'
p3688
tp3689
bag780
asg3167
(lp3690
g521
(g522
(I0
tp3691
g524
tp3692
Rp3693
(I1
(I3
tp3694
g531
I00
S'dR\xdd8\xd6\x8d\x00@\xc1C|\xd2X\x00\x16\xc0\xc0\xab\x9e\x0b\x900\xd2?'
p3695
tp3696
bag836
asg3168
(lp3697
g521
(g522
(I0
tp3698
g524
tp3699
Rp3700
(I1
(I3
tp3701
g531
I00
S'dR\xdd8\xd6\x8d\x00@\xc1C|\xd2X\x00\x16\xc0\xc0\xab\x9e\x0b\x900\xd2?'
p3702
tp3703
bag521
(g522
(I0
tp3704
g524
tp3705
Rp3706
(I1
(I3
tp3707
g3152
I00
S'/\xe1\x02^.|\x00@\xb8\xae\xc5\xcfF\x16\x17\xc0\xf8\x01)d\xc5\xf9\xe2?'
p3708
tp3709
bag521
(g522
(I0
tp3710
g524
tp3711
Rp3712
(I1
(I3
tp3713
g3152
I00
S'j\xc7\xc0&\x8ag\xf6?h\x9cH4\x7f\xab\x18\xc0\xd8|\x1d\xfc\xcbV\xf2?'
p3714
tp3715
bag880
assg1268
(dp3716
(Vsquare_packing_box4
p3717
(g1329
(g557
S'\x90\xc0\x1f~\xfe\xbb\xf0?'
p3718
tp3719
Rp3720
g1329
(g557
S'8\xdb\xdc\x98\x9e\xc0\x16\xc0'
p3721
tp3722
Rp3723
g1329
(g557
S'\xda\x8c\xd3\x10U\xf8\x13@'
p3724
tp3725
Rp3726
tp3727
tp3728
g1301
s(Vrectangular_packing_box2
p3729
(g1329
(g557
S'\xce\xe30\x98\xbfB\x02@'
p3730
tp3731
Rp3732
g1329
(g557
S'\xf9hq\xc60\xf7\x1a\xc0'
p3733
tp3734
Rp3735
g1329
(g557
S'V\xbc\x91y\xe4\x8f\xe0?'
p3736
tp3737
Rp3738
tp3739
tp3740
g3578
s(Vrectangular_packing_box3
p3741
(g1329
(g557
S'{\x9f\xaaB\x03\xb1\xb0?'
p3742
tp3743
Rp3744
g1329
(g557
S'\x0f\x0b\xb5\xa6y7\x1e\xc0'
p3745
tp3746
Rp3747
g1329
(g557
S'\xe5\xef\xdeQcb\x12@'
p3748
tp3749
Rp3750
tp3751
tp3752
g1281
s(Vrectangular_packing_box4
p3753
(g1329
(g557
S'}\xec.PR`\xd2?'
p3754
tp3755
Rp3756
g1329
(g557
S'\x8fT\xdf\xf9Ei\x18\xc0'
p3757
tp3758
Rp3759
g1329
(g557
S'\xe8\xf9\xd3Fu:\xe4?'
p3760
tp3761
Rp3762
tp3763
tp3764
g1273
s(Vsquare_packing_box2
p3765
(g1329
(g557
S'6\x90.6\xad\xb4\r@'
p3766
tp3767
Rp3768
g1329
(g557
S'7\xc3\r\xf8\xfc\xf0\x16\xc0'
p3769
tp3770
Rp3771
g1329
(g557
S'\xe9\x9d\n\xb8\xe7\t\x19@'
p3772
tp3773
Rp3774
tp3775
tp3776
g1289
s(Vsquare_packing_box3
p3777
(g1329
(g557
S'\xc7\xbc\x8e8d\xa3\n@'
p3778
tp3779
Rp3780
g1329
(g557
S'\xb8\xca\x13\x08;\x05\x1e\xc0'
p3781
tp3782
Rp3783
g1329
(g557
S'\xde\xc9\xa7\xc7\xb6\xac\x0f@'
p3784
tp3785
Rp3786
tp3787
tp3788
g1293
s(Vsquare_packing_box1
p3789
(g1329
(g557
S'N\xb4\xab\x90\xf23\x0c@'
p3790
tp3791
Rp3792
g1329
(g557
S'Q\xf5+\x9d\x0f?\x15\xc0'
p3793
tp3794
Rp3795
g1329
(g557
S'\xe2\x1f\xb6\xf4h\n\x13@'
p3796
tp3797
Rp3798
tp3799
tp3800
g1297
s(Vrectangular_packing_box1
p3801
(g1329
(g557
S'\xa8\xdf\x85\xad\xd9J\xf5?'
p3802
tp3803
Rp3804
g1329
(g557
S'\x14\x05\xfaD\x9e4\x18\xc0'
p3805
tp3806
Rp3807
g1329
(g557
S'\xb13\x85\xcek,\x0b@'
p3808
tp3809
Rp3810
tp3811
tp3812
g1285
ssg1425
(igtamp_utils.utils
CustomStateSaver
p3813
(dp3814
g1428
g521
(g522
(I0
tp3815
g524
tp3816
Rp3817
(I1
(I1
I3
tp3818
g531
I00
S'fR\xdd8\xd6\x8d\x00@\xbfC|\xd2X\x00\x16\xc0\xc1\xab\x9e\x0b\x900\xd2?'
p3819
tp3820
bsg1435
Nsg1436
S'pr2'
p3821
sg1438
I1
sg963
(dp3822
Vc_obst5
p3823
g521
(g522
(I0
tp3824
g524
tp3825
Rp3826
(I1
(I4
tp3827
g531
I00
S"\x9a\xf1q\xbb~\xea\x11@\n8\xbb\xd6O\xb6\xd4?e\xaa`TR'\xed?\xd2\x93\xb1\x82\xa4\x94\x0b@"
p3828
tp3829
bsVcan
p3830
g521
(g522
(I0
tp3831
g524
tp3832
Rp3833
(I1
(I4
tp3834
g531
I00
S'\x00\x00\x00\x00\x00\x00\xf4\xbfH\xe1z\x14\xaeG\xe1\xbf\n\xd7\xa3p=\n\xef?\x00\x00\x00\x00\x00\x00\x00\x00'
p3835
tp3836
bsVside_wall_1
p3837
g521
(g522
(I0
tp3838
g524
tp3839
Rp3840
(I1
(I4
tp3841
g531
I00
S'\xec\xff\xff\xff\xff\xff\xfb\xbf\x00\x00\x00\x00\x00\x00\x00\x00\x9c\xc4 \xb0rh\xc1?\x18-DT\xfb!\xf9?'
p3842
tp3843
bsVkitchen
p3844
g521
(g522
(I0
tp3845
g524
tp3846
Rp3847
(I1
(I4
tp3848
g531
I00
S'\x00\x00\x00\x00\x00\x00\x00\x00\x00\x00\x00\x00\x00\x00\x00\x00\x00\x00\x00\x00\x00\x00\x00\x00\x00\x00\x00\x00\x00\x00\x00\x00'
p3849
tp3850
bsVcomputer_table
p3851
g521
(g522
(I0
tp3852
g524
tp3853
Rp3854
(I1
(I4
tp3855
g531
I00
S'\x00\x00\x00\x00\x00\x00\x13@\x00\x00\x00\x00\x00\x00\xf8\xbf\x96C\x8bl\xe7\xfb\xe7?\xd2!3\x7f|\xd9\x12@'
p3856
tp3857
bsVchair_6b56
p3858
g521
(g522
(I0
tp3859
g524
tp3860
Rp3861
(I1
(I4
tp3862
g531
I00
S'y=\n\xd7\xa3p\xf5?M\xe1z\x14\xaeG\xd1?\x00\x00\x00\x00\x00\x00\x00\x00\xd6$\xfaNBm\n@'
p3863
tp3864
bsVtable
p3865
g521
(g522
(I0
tp3866
g524
tp3867
Rp3868
(I1
(I4
tp3869
g531
I00
S'\x7f\xf6#EdX\xed?\xac\xffs\x98//\xc0\xbf\x00\x00\x00\x00\x00\x00\x00\x00\x00\x00\x00\x00\x00\x00\x00\x00'
p3870
tp3871
bsVsquare_packing_box2
p3872
g521
(g522
(I0
tp3873
g524
tp3874
Rp3875
(I1
(I4
tp3876
g531
I00
S'\xb3\x99\x7f<\xad\xb4\r@\xd8\xe5\x95\xe8\xfc\xf0\x16\xc0L7\x89A`\xe5\xd8?Y\x96n\x9e\xe7\t\x19@'
p3877
tp3878
bsVsquare_packing_box3
p3879
g521
(g522
(I0
tp3880
g524
tp3881
Rp3882
(I1
(I4
tp3883
g531
I00
S'8\xc7\x84Ad\xa3\n@\xb4\xaf\xb2\x18;\x05\x1e\xc0L7\x89A`\xe5\xd8?j8\xf9\x85\xb6\xac\x0f@'
p3884
tp3885
bsVsquare_packing_box1
p3886
g521
(g522
(I0
tp3887
g524
tp3888
Rp3889
(I1
(I4
tp3890
g531
I00
S'\x12\xcf\x19\xc3\xf23\x0c@\x89\xb5r\xad\x0f?\x15\xc0L7\x89A`\xe5\xd8?\xbf~a\xe9h\n\x13@'
p3891
tp3892
bsVback_wall_2
p3893
g521
(g522
(I0
tp3894
g524
tp3895
Rp3896
(I1
(I4
tp3897
g531
I00
S'\xaeG\xe1z\x14.\x13@\x80\x14\xaeG\xe1z\xc4?xX\xa85\xcd\xbb\xf2?\x00\x00\x00\x00\x00\x00\x00\x00'
p3898
tp3899
bsVchair_083c
p3900
g521
(g522
(I0
tp3901
g524
tp3902
Rp3903
(I1
(I4
tp3904
g531
I00
S'\xa4p=\n\xd7\xa3\xe0?333333\xe3\xbf\x00\x00\x00\x00\x00\x00\x00\x00\x00\x00\x00\x00\x00\x00\x00\x00'
p3905
tp3906
bsVback_wall_1
p3907
g521
(g522
(I0
tp3908
g524
tp3909
Rp3910
(I1
(I4
tp3911
g531
I00
S'\xaeG\xe1z\x14.\x13@\x80\x14\xaeG\xe1z\xc4?\xcc\x7fH\xbf}\x1d\xed?\x00\x00\x00\x00\x00\x00\x00\x00'
p3912
tp3913
bsVentrance_left
p3914
g521
(g522
(I0
tp3915
g524
tp3916
Rp3917
(I1
(I4
tp3918
g531
I00
S'\x98\x99\x99\x99\x99\x99\xe9\xbfH\xe1z\x14\xaeG\t\xc0\x9c\xc4 \xb0rh\xc1?\x00\x00\x00\x00\x00\x00\x00\x00'
p3919
tp3920
bsVcup_905a
p3921
g521
(g522
(I0
tp3922
g524
tp3923
Rp3924
(I1
(I4
tp3925
g531
I00
S'\x00\x00\x00\x00\x00\x00\xf0?\x83\xc0\xca\xa1E\xb6\xdb?\x1b/\xdd$\x06\x81\xed?\x00\x00\x00\x00\x00\x00\x00\x00'
p3926
tp3927
bsVbottom_wall_1
p3928
g521
(g522
(I0
tp3929
g524
tp3930
Rp3931
(I1
(I4
tp3932
g531
I00
S'H\xe1z\x14\xaeG\x12@\x80\x14\xaeG\xe1z\xc4?\xcc\x7fH\xbf}\x1d\xed?\x00\x00\x00\x00\x00\x00\x00\x00'
p3933
tp3934
bsVplate_496f
p3935
g521
(g522
(I0
tp3936
g524
tp3937
Rp3938
(I1
(I4
tp3939
g531
I00
S"q=\n\xd7\xa3p\xe5?\x9dhW!\xe5'\xdd\xbf\x1b/\xdd$\x06\x81\xed?\x00\x00\x00\x00\x00\x00\x00\x00"
p3940
tp3941
bsVtoaster
p3942
g521
(g522
(I0
tp3943
g524
tp3944
Rp3945
(I1
(I4
tp3946
g531
I00
S')\\\x8f\xc2\xf5(\xf4\xbf\xe0z\x14\xaeG\xe1\xf2\xbf\xb8\x1e\x85\xebQ\xb8\xee?\x89/`\x9b\xf8\x8a\xe4?'
p3947
tp3948
bsVrectangular_packing_box4
p3949
g521
(g522
(I0
tp3950
g524
tp3951
Rp3952
(I1
(I4
tp3953
g531
I00
S'\x98\x1e]pS`\xd2?\x16\x1b\xb6\xe9Ei\x18\xc0L7\x89A`\xe5\xd8?\x82\x97\xe8\xa1t:\xe4?'
p3954
tp3955
bsVmicrowave
p3956
g521
(g522
(I0
tp3957
g524
tp3958
Rp3959
(I1
(I4
tp3960
g531
I00
S'\x9a\x99\x99\x99\x99\x99\xf1\xbf\x00\x00\x00\x00\x00\x00\x00@7\x89A`\xe5\xd0\xee?\x00\x00\x00\x00\x00\x00\x00\x00'
p3961
tp3962
bsVc_obst7
p3963
g521
(g522
(I0
tp3964
g524
tp3965
Rp3966
(I1
(I4
tp3967
g531
I00
S"\xfe\x81=\xfa]F\x12@Rf\x922\x8f\r\xdc?e\xaa`TR'\xed?\xa1F+\x03Yi}?"
p3968
tp3969
bsVc_obst6
p3970
g521
(g522
(I0
tp3971
g524
tp3972
Rp3973
(I1
(I4
tp3974
g531
I00
S"\x00\x9b\x11\x01\x95\x83\x12@\xe8\xa7>?}-\xd2?e\xaa`TR'\xed?\xed\xedJ\xfa\x0b\x0c\x04@"
p3975
tp3976
bsVcup_b6af
p3977
g521
(g522
(I0
tp3978
g524
tp3979
Rp3980
(I1
(I4
tp3981
g531
I00
S'R\xb8\x1e\x85\xebQ\xe8?\x9a\x99\x99\x99\x99\x99\xe1?\x1b/\xdd$\x06\x81\xed?\x00\x00\x00\x00\x00\x00\x00\x00'
p3982
tp3983
bsVc_obst4
p3984
g521
(g522
(I0
tp3985
g524
tp3986
Rp3987
(I1
(I4
tp3988
g531
I00
S"n\x08(p\x9bi\x12@\xc0\x8f\x90\x84\x98\xd9\xc1?e\xaa`TR'\xed?\xae\x8f\xee\xf0\x1b\x97\x16@"
p3989
tp3990
bsVrectangular_packing_box2
p3991
g521
(g522
(I0
tp3992
g524
tp3993
Rp3994
(I1
(I4
tp3995
g531
I00
S'x#\x8a\xa8\xbfB\x02@]@\xdd\xaa0\xf7\x1a\xc0L7\x89A`\xe5\xd8?\xa2\x93\xe4\xf2\xe3\x8f\xe0?'
p3996
tp3997
bsVplate_fa76
p3998
g521
(g522
(I0
tp3999
g524
tp4000
Rp4001
(I1
(I4
tp4002
g531
I00
S'=\n\xd7\xa3p=\xf2?\x00\x00\x00\x00\x00\x00\x00\x00\x1b/\xdd$\x06\x81\xed?\x00\x00\x00\x00\x00\x00\x00\x00'
p4003
tp4004
bsVc_obst1
p4005
g521
(g522
(I0
tp4006
g524
tp4007
Rp4008
(I1
(I4
tp4009
g531
I00
S"\xff$\x95\xf6\x8a4\x12@\x1b\xc3S\xe6\xc1\xef\xd7?e\xaa`TR'\xed?\xe0\xbaL\x80\x10\xb3\t@"
p4010
tp4011
bsVpin_c671
p4012
g521
(g522
(I0
tp4013
g524
tp4014
Rp4015
(I1
(I4
tp4016
g531
I00
S'\xc3\xf5(\\\x8f\xc2\xf1\xbf}?5^\xbaI\x02@\xb8\x1e\x85\xebQ\xb8\xfa?\x00\x00\x00\x00\x00\x00\x00\x00'
p4017
tp4018
bsVc_obst3
p4019
g521
(g522
(I0
tp4020
g524
tp4021
Rp4022
(I1
(I4
tp4023
g531
I00
S"^\xdd\\<%\xa1\x12@\xac\x8b8\x90\xc6\xe6\xd8?e\xaa`TR'\xed?\x1c\x9e\xaarJ\xdd\x16@"
p4024
tp4025
bsVchair_2e39
p4026
g521
(g522
(I0
tp4027
g524
tp4028
Rp4029
(I1
(I4
tp4030
g531
I00
S'hfffff\xee?`fffff\xf2\xbf\x00\x00\x00\x00\x00\x00\x00\x00\x07M\xe8QQF\xf3?'
p4031
tp4032
bsVleft_wall_1
p4033
g521
(g522
(I0
tp4034
g524
tp4035
Rp4036
(I1
(I4
tp4037
g531
I00
S'H\xe1z\x14\xaeG\x12@S\xb8\x1e\x85\xebQ\xe4?\xcc\x7fH\xbf}\x1d\xed?\x00\x00\x00\x00\x00\x00\x00\x00'
p4038
tp4039
bsVtop_wall_1
p4040
g521
(g522
(I0
tp4041
g524
tp4042
Rp4043
(I1
(I4
tp4044
g531
I00
S'H\xe1z\x14\xaeG\x12@\x80\x14\xaeG\xe1z\xc4?xX\xa85\xcd\xbb\xf2?\x00\x00\x00\x00\x00\x00\x00\x00'
p4045
tp4046
bsVrectangular_packing_box3
p4047
g521
(g522
(I0
tp4048
g524
tp4049
Rp4050
(I1
(I4
tp4051
g531
I00
S',\xa3$/\t\xb1\xb0?p\xd9\xd7\x88y7\x1e\xc0L7\x89A`\xe5\xd8?\xa1\xa8\xa4gcb\x12@'
p4052
tp4053
bsVshaker
p4054
g521
(g522
(I0
tp4055
g524
tp4056
Rp4057
(I1
(I4
tp4058
g531
I00
S'\n\xd7\xa3p=\n\x01@\x14\xaeG\xe1z\x14\x02@\\\x8f\xc2\xf5(\\\xef?\x00\x00\x00\x00\x00\x00\x00\x00'
p4059
tp4060
bsVplate_b4e7
p4061
g521
(g522
(I0
tp4062
g524
tp4063
Rp4064
(I1
(I4
tp4065
g531
I00
S'\x14\xaeG\xe1z\x14\xf2\xbf\x14\xaeG\xe1z\x14\x00@=\n\xd7\xa3p=\xf2?\x00\x00\x00\x00\x00\x00\x00\x00'
p4066
tp4067
bsVplate_835a
p4068
g521
(g522
(I0
tp4069
g524
tp4070
Rp4071
(I1
(I4
tp4072
g531
I00
S'\xf6(\\\x8f\xc2\xf5\xf0?\\\x8f\xc2\xf5(\\\xe7\xbf\x1b/\xdd$\x06\x81\xed?\x00\x00\x00\x00\x00\x00\x00\x00'
p4073
tp4074
bsVcup_58a2
p4075
g521
(g522
(I0
tp4076
g524
tp4077
Rp4078
(I1
(I4
tp4079
g531
I00
S'\x85\xebQ\xb8\x1e\x85\xe3?\xcd\xcc\xcc\xcc\xcc\xcc\xdc?\x1b/\xdd$\x06\x81\xed?\x00\x00\x00\x00\x00\x00\x00\x00'
p4080
tp4081
bsVknife_block
p4082
g521
(g522
(I0
tp4083
g524
tp4084
Rp4085
(I1
(I4
tp4086
g531
I00
S'R\xb8\x1e\x85\xebQ\xe0\xbfffffff\x02@`\xe5\xd0"\xdb\xf9\xee?\x00\x00\x00\x00\x00\x00\x00\x00'
p4087
tp4088
bsVc_obst2
p4089
g521
(g522
(I0
tp4090
g524
tp4091
Rp4092
(I1
(I4
tp4093
g531
I00
S"\x01\xf9\xf8\xe06C\x12@\x02d\x9dS@k\xcc?e\xaa`TR'\xed?\x8e\xd1'\xc0\x08~\xfe?"
p4094
tp4095
bsVsquare_packing_box4
p4096
g521
(g522
(I0
tp4097
g524
tp4098
Rp4099
(I1
(I4
tp4100
g531
I00
S'X\xce\xcef\xfe\xbb\xf0?L@\xfc\xa1\x9e\xc0\x16\xc0L7\x89A`\xe5\xd8?\xaeKe\x14U\xf8\x13@'
p4101
tp4102
bsVrectangular_packing_box1
p4103
g521
(g522
(I0
tp4104
g524
tp4105
Rp4106
(I1
(I4
tp4107
g531
I00
S'\xf81, \xdaJ\xf5?\x90\x94\xc7_\x9e4\x18\xc0L7\x89A`\xe5\xd8?\x88,&\x8ck,\x0b@'
p4108
tp4109
bsVpin_371e
p4110
g521
(g522
(I0
tp4111
g524
tp4112
Rp4113
(I1
(I4
tp4114
g531
I00
S'333333\xf3\xbfffffff\xf6?\xb8\x1e\x85\xebQ\xb8\xee?\x00\x00\x00\x00\x00\x00\x00\x00'
p4115
tp4116
bsVfridge
p4117
g521
(g522
(I0
tp4118
g524
tp4119
Rp4120
(I1
(I4
tp4121
g531
I00
S'\xd7\xa3p=\n\xd7\xeb\xbf\x00\x00\x00\x00\x00\x00\x00\xc0\xcd\xcc\xcc\xcc\xcc\xcc\xf8?\x00\x00\x00\x00\x00\x00\x00\x00'
p4122
tp4123
bsVcup_d441
p4124
g521
(g522
(I0
tp4125
g524
tp4126
Rp4127
(I1
(I4
tp4128
g531
I00
S'\n\xd7\xa3p=\n\xef?\x8f\xc2\xf5(\\\x8f\xe2?\x1b/\xdd$\x06\x81\xed?\x00\x00\x00\x00\x00\x00\x00\x00'
p4129
tp4130
bsVright_wall
p4131
g521
(g522
(I0
tp4132
g524
tp4133
Rp4134
(I1
(I4
tp4135
g531
I00
S'\x9a\x99\x99\x99\x99\x99\x07@H\xe1z\x14\xaeG\xff\xbf\x9c\xc4 \xb0rh\xc1?\x00\x00\x00\x00\x00\x00\x00\x00'
p4136
tp4137
bsVshelf2
p4138
g521
(g522
(I0
tp4139
g524
tp4140
Rp4141
(I1
(I4
tp4142
g531
I00
S'\x00\x00\x00\x00\x00\x00\x0e@\xaeG\xe1z\x14\xae\x07@\x9c\xc4 \xb0rh\xc1?\xd2!3\x7f|\xd9\x12@'
p4143
tp4144
bsVshelf1
p4145
g521
(g522
(I0
tp4146
g524
tp4147
Rp4148
(I1
(I4
tp4149
g531
I00
S'\x00\x00\x00\x00\x00\x00\x13@\xaeG\xe1z\x14\xae\x07@\x9c\xc4 \xb0rh\xc1?\xd2!3\x7f|\xd9\x12@'
p4150
tp4151
bsVsink
p4152
g521
(g522
(I0
tp4153
g524
tp4154
Rp4155
(I1
(I4
tp4156
g531
I00
S'ffffff\xd6?333333\x01@\x9a\x99\x99\x99\x99\x99\xb9\xbf\x00\x00\x00\x00\x00\x00\x00\x00'
p4157
tp4158
bsVpr2
p4159
g521
(g522
(I0
tp4160
g524
tp4161
Rp4162
(I1
(I4
tp4163
g531
I00
S'fR\xdd8\xd6\x8d\x00@\xbfC|\xd2X\x00\x16\xc0\x9a_\x94\xa0\xbf\xd0\xc1?\xc1\xab\x9e\x0b\x900\xd2?'
p4164
tp4165
bsVright_wall_1
p4166
g521
(g522
(I0
tp4167
g524
tp4168
Rp4169
(I1
(I4
tp4170
g531
I00
S'H\xe1z\x14\xaeG\x12@&\\\x8f\xc2\xf5(\xd4\xbf\xcc\x7fH\xbf}\x1d\xed?\x00\x00\x00\x00\x00\x00\x00\x00'
p4171
tp4172
bsVright_wall_2
p4173
g521
(g522
(I0
tp4174
g524
tp4175
Rp4176
(I1
(I4
tp4177
g531
I00
S'H\xe1z\x14\xaeG\x12@&\\\x8f\xc2\xf5(\xd4\xbfxX\xa85\xcd\xbb\xf2?\x00\x00\x00\x00\x00\x00\x00\x00'
p4178
tp4179
bsVbottom_wall
p4180
g521
(g522
(I0
tp4181
g524
tp4182
Rp4183
(I1
(I4
tp4184
g531
I00
S'\x00\x00\x00\x00\x00\x00\xfc?\x00\x00\x00\x00\x00\x00\x00\x00\x00\x00\x00\x00\x00\x00\x00\x00\x00\x00\x00\x00\x00\x00\x00\x00'
p4185
tp4186
bsVleft_wall_2
p4187
g521
(g522
(I0
tp4188
g524
tp4189
Rp4190
(I1
(I4
tp4191
g531
I00
S'H\xe1z\x14\xaeG\x12@S\xb8\x1e\x85\xebQ\xe4?xX\xa85\xcd\xbb\xf2?\x00\x00\x00\x00\x00\x00\x00\x00'
p4192
tp4193
bsVleft_wall
p4194
g521
(g522
(I0
tp4195
g524
tp4196
Rp4197
(I1
(I4
tp4198
g531
I00
S'\x9a\x99\x99\x99\x99\x99\x07@H\xe1z\x14\xaeG\xff?\x9c\xc4 \xb0rh\xc1?\x00\x00\x00\x00\x00\x00\x00\x00'
p4199
tp4200
bsVfloorwalls
p4201
g521
(g522
(I0
tp4202
g524
tp4203
Rp4204
(I1
(I4
tp4205
g531
I00
S'\xc7\xcc\xcc\xcc\xcc\xcc\xfc?\x00\x00\x00\x00\x00\x00\x18\xc0H\xe1z\x14\xaeG\xc1?\x16-DT\xfb!\xf9?'
p4206
tp4207
bsVtable2
p4208
g521
(g522
(I0
tp4209
g524
tp4210
Rp4211
(I1
(I4
tp4212
g531
I00
S'\x00\x00\x00\x00\x00\x00\x13@\x80\x14\xaeG\xe1z\xc4?S\x96!\x8euq\xec?\xd2!3\x7f|\xd9\x12@'
p4213
tp4214
bsVentrance_right
p4215
g521
(g522
(I0
tp4216
g524
tp4217
Rp4218
(I1
(I4
tp4219
g531
I00
S'ffffff\n@H\xe1z\x14\xaeG\t\xc0\x9c\xc4 \xb0rh\xc1?\x00\x00\x00\x00\x00\x00\x00\x00'
p4220
tp4221
bsVcooker
p4222
g521
(g522
(I0
tp4223
g524
tp4224
Rp4225
(I1
(I4
tp4226
g531
I00
S'\xaeG\xe1z\x14\xae\xff?\x85\xebQ\xb8\x1e\x85\xfb?\x00\x00\x00\x00\x00\x00\xe8?\x00\x00\x00\x00\x00\x00\x00\x00'
p4227
tp4228
bsVpin_a091
p4229
g521
(g522
(I0
tp4230
g524
tp4231
Rp4232
(I1
(I4
tp4233
g531
I00
S'\xdb\xf9~j\xbct\xf7\xbf)\\\x8f\xc2\xf5(\x02@\xb8\x1e\x85\xebQ\xb8\xfa?\x00\x00\x00\x00\x00\x00\x00\x00'
p4234
tp4235
bsVside_wall_2
p4236
g521
(g522
(I0
tp4237
g524
tp4238
Rp4239
(I1
(I4
tp4240
g531
I00
S'\xf6\xff\xff\xff\xff\xff\x14@\x00\x00\x00\x00\x00\x00\x00\x00\x9c\xc4 \xb0rh\xc1?\x18-DT\xfb!\xf9?'
p4241
tp4242
bsVside_wall_3
p4243
g521
(g522
(I0
tp4244
g524
tp4245
Rp4246
(I1
(I4
tp4247
g531
I00
S'\x00\x00\x00\x00\x00\x00\xfc?H\xe1z\x14\xaeG\t@\x9c\xc4 \xb0rh\xc1?\x00\x00\x00\x00\x00\x00\x00\x00'
p4248
tp4249
bsVmixer
p4250
g521
(g522
(I0
tp4251
g524
tp4252
Rp4253
(I1
(I4
tp4254
g531
I00
S'\n\xd7\xa3p=\n\xfb?ffffff\x02@d;\xdfO\x8d\x97\xee?\x00\x00\x00\x00\x00\x00\x00\x00'
p4255
tp4256
bsVtop_wall_2
p4257
g521
(g522
(I0
tp4258
g524
tp4259
Rp4260
(I1
(I4
tp4261
g531
I00
S'H\xe1z\x14\xaeG\x12@\x80\x14\xaeG\xe1z\xc4?\x16HP\xfc\x18\xf3\xfd?\x00\x00\x00\x00\x00\x00\x00\x00'
p4262
tp4263
bsVc_obst0
p4264
g521
(g522
(I0
tp4265
g524
tp4266
Rp4267
(I1
(I4
tp4268
g531
I00
S"\xb8\x088t\x9c7\x12@\xbeE\xf1\x14\xed\x8f\x96\xbfe\xaa`TR'\xed?\xadtI0\xaa\x0c\x13@"
p4269
tp4270
bsVc_obst9
p4271
g521
(g522
(I0
tp4272
g524
tp4273
Rp4274
(I1
(I4
tp4275
g531
I00
S"\x91v\x82wVC\x12@0n\xad8\xc7F\xc2\xbfe\xaa`TR'\xed?\xd9R5=\xef\x80\x10@"
p4276
tp4277
bsVc_obst8
p4278
g521
(g522
(I0
tp4279
g524
tp4280
Rp4281
(I1
(I4
tp4282
g531
I00
S"\xa2\x86\xba\xbe\x0e\xfe\x11@\x1c\x88\xaeAcX\xc9?e\xaa`TR'\xed?\xe7\xc6R\xf7\xd5q\x17@"
p4283
tp4284
bsVcoffe_machine
p4285
g521
(g522
(I0
tp4286
g524
tp4287
Rp4288
(I1
(I4
tp4289
g531
I00
S'\\\x8f\xc2\xf5(\\\xf5\xbf\xb8\x1e\x85\xebQ\xb8\xee?\n\xd7\xa3p=\n\xef?\x00\x00\x00\x00\x00\x00\x00\x00'
p4290
tp4291
bsVchair_12d0
p4292
g521
(g522
(I0
tp4293
g524
tp4294
Rp4295
(I1
(I4
tp4296
g531
I00
S'^\xd2\x18\xad\xa3\xaa\xdb?Pf\x83L2r\xc6?\x00\x00\x00\x00\x00\x00\x00\x00\xf8\x81\r\x14M\xa6\x17@'
p4297
tp4298
bsVcomputer_chair
p4299
g521
(g522
(I0
tp4300
g524
tp4301
Rp4302
(I1
(I4
tp4303
g531
I00
S'\xcd\xcc\xcc\xcc\xcc\xcc\x10@\x00\x00\x00\x00\x00\x00\xf8\xbf\xa00\xb6\x10\xe4\xa9\x95\xbf\x00\x00\x00\x00\x00\x00\x00\x00'
p4304
tp4305
bssg1923
g521
(g522
(I0
tp4306
g524
tp4307
Rp4308
(I1
(I39
tp4309
g531
I00
S'\x00\x00\x00\x00\x00\x00\x00\x00\x00\x00\x00\x00\x00\x00\x00\x00\x00\x00\x00\x00\x00\x00\x00\x00\x00\x00\x00\x00\x00\x00\x00\x00\x00\x00\x00\x00\x00\x00\x00\x00\x00\x00\x00\x00\x00\x00\x00\x00\x00\x00\x00\x00\x00\x00\x00\x00\x00\x00\x00\x00\x00\x00\x00\x00\x00\x00\x00\x00\x00\x00\x00\x00\x00\x00\x00\x00\x00\x00\x00\x00\x00\x00\x00\x00\x00\x00\x00\x00\x00\x00\x00\x00\x00\x00\x00\x00@d;\xdfO\x8d\x87?\x00\x00\x00\x00\x00\x00\x00\x00\x00\x00\x00\x00\x00\x00\x00\x00\x00\x00\x00\x00\x00\x00\x00\x00\xec\xed\t\xf1\xcc\xa4\xf4?\x00\x00\x00\x00\x00\x00\xc0\xbcN"\xd0^p\xf8\x00\xc0\x00\x00\x00\x00\x00\x00\x00\x00\x9d\x03\r.\x04V\xe6\xbf\x00\x00\x00\x00\x00\x00\x00\x00\x00\x00\x00\x00\x00\x00\x00\x00\x00\x00\x00\x00\x00\x00\xb6\xbc\x00\x00\x00\x00\x00\x00\x00\x00\x00\x00\x00\x00\x00\x00\xd0\xbc\x00\x00\x00\x00\x00\x00\x00\x00\x00\x00\x00\x00\x00\x00\x00\x00\xec\xed\t\xf1\xcc\xa4\xf4?\x00\x00\x00\x00\x00\x00\xc0\xbcN"\xd0^p\xf8\x00\xc0\x00\x00\x00\x00\x00\x00\x00\x00\xa3\x03\r.\x04V\xe6\xbf\x00\x00\x00\x00\x00\x00\x00\x00\xce9\xe3\xc17\x89\xe1?\x00\x00\x00\x00\x00\x00\xb6\xbc\x00\x00\x00\x00\x00\x00\x00\x00\x00\x00\x00\x00\x00\x00\xe0<\x00\x00\x00\x00\x00\x00\x00\x00'
p4310
tp4311
bsg1930
I00
sbsg1931
(dp4312
(Vsquare_packing_box4
p4313
(g1329
(g557
S'\x90\xc0\x1f~\xfe\xbb\xf0?'
p4314
tp4315
Rp4316
g1329
(g557
S'8\xdb\xdc\x98\x9e\xc0\x16\xc0'
p4317
tp4318
Rp4319
g1329
(g557
S'\xda\x8c\xd3\x10U\xf8\x13@'
p4320
tp4321
Rp4322
tp4323
tp4324
g948
s(Vrectangular_packing_box2
p4325
(g1329
(g557
S'\xce\xe30\x98\xbfB\x02@'
p4326
tp4327
Rp4328
g1329
(g557
S'\xf9hq\xc60\xf7\x1a\xc0'
p4329
tp4330
Rp4331
g1329
(g557
S'V\xbc\x91y\xe4\x8f\xe0?'
p4332
tp4333
Rp4334
tp4335
tp4336
g3183
s(Vrectangular_packing_box3
p4337
(g1329
(g557
S'{\x9f\xaaB\x03\xb1\xb0?'
p4338
tp4339
Rp4340
g1329
(g557
S'\x0f\x0b\xb5\xa6y7\x1e\xc0'
p4341
tp4342
Rp4343
g1329
(g557
S'\xe5\xef\xdeQcb\x12@'
p4344
tp4345
Rp4346
tp4347
tp4348
g928
s(Vrectangular_packing_box4
p4349
(g1329
(g557
S'}\xec.PR`\xd2?'
p4350
tp4351
Rp4352
g1329
(g557
S'\x8fT\xdf\xf9Ei\x18\xc0'
p4353
tp4354
Rp4355
g1329
(g557
S'\xe8\xf9\xd3Fu:\xe4?'
p4356
tp4357
Rp4358
tp4359
tp4360
g920
s(Vsquare_packing_box2
p4361
(g1329
(g557
S'6\x90.6\xad\xb4\r@'
p4362
tp4363
Rp4364
g1329
(g557
S'7\xc3\r\xf8\xfc\xf0\x16\xc0'
p4365
tp4366
Rp4367
g1329
(g557
S'\xe9\x9d\n\xb8\xe7\t\x19@'
p4368
tp4369
Rp4370
tp4371
tp4372
g936
s(Vsquare_packing_box3
p4373
(g1329
(g557
S'\xc7\xbc\x8e8d\xa3\n@'
p4374
tp4375
Rp4376
g1329
(g557
S'\xb8\xca\x13\x08;\x05\x1e\xc0'
p4377
tp4378
Rp4379
g1329
(g557
S'\xde\xc9\xa7\xc7\xb6\xac\x0f@'
p4380
tp4381
Rp4382
tp4383
tp4384
g940
s(Vsquare_packing_box1
p4385
(g1329
(g557
S'N\xb4\xab\x90\xf23\x0c@'
p4386
tp4387
Rp4388
g1329
(g557
S'Q\xf5+\x9d\x0f?\x15\xc0'
p4389
tp4390
Rp4391
g1329
(g557
S'\xe2\x1f\xb6\xf4h\n\x13@'
p4392
tp4393
Rp4394
tp4395
tp4396
g944
s(Vrectangular_packing_box1
p4397
(g1329
(g557
S'\xa8\xdf\x85\xad\xd9J\xf5?'
p4398
tp4399
Rp4400
g1329
(g557
S'\x14\x05\xfaD\x9e4\x18\xc0'
p4401
tp4402
Rp4403
g1329
(g557
S'\xb13\x85\xcek,\x0b@'
p4404
tp4405
Rp4406
tp4407
tp4408
g932
ssg2029
(dp4409
sg2241
(dp4410
(g3164
g2035
tp4411
(lp4412
g521
(g522
(I0
tp4413
g524
tp4414
Rp4415
(I1
(I3
tp4416
g531
I00
S'\xfb\xc9\xc0\xcf\xd9[\xf0?\x96/#\xddH6\x15\xc0F\xa4\xd4\xc0\xcb\x98\x14@'
p4417
tp4418
bas(g3168
g2031
tp4419
(lp4420
g521
(g522
(I0
tp4421
g524
tp4422
Rp4423
(I1
(I3
tp4424
g531
I00
S'\xc0\xdc\xa0]\xb4\xb3\xed?d\xb9\xcf\x1f\xa8Q\x13\xc0:\x0eA\xb8^ \x13@'
p4425
tp4426
bag521
(g522
(I0
tp4427
g524
tp4428
Rp4429
(I1
(I3
tp4430
g3152
I00
S"\xaeJ\xbd\x1936\xec?\x04\x13\xd4'\x9f\x88\x10\xc0\x805qo\xb6\xe6\xff\xbf"
p4431
tp4432
bag521
(g522
(I0
tp4433
g524
tp4434
Rp4435
(I1
(I3
tp4436
g3152
I00
S'\xf09\xb6\x1c*\x86\xee?\xc4\n/\x96\xcb\xe3\n\xc0\xa0\xc9\xd6F6\x0f\x00\xc0'
p4437
tp4438
bag521
(g522
(I0
tp4439
g524
tp4440
Rp4441
(I1
(I3
tp4442
g3152
I00
S'\xf4\xfdJ\x1a(#\xec?H"\x9cD\x1aE\x05\xc0.\xa9\x0b\x87\xf8\xe1\x02@'
p4443
tp4444
bas(g3168
g2035
tp4445
(lp4446
g521
(g522
(I0
tp4447
g524
tp4448
Rp4449
(I1
(I3
tp4450
g531
I00
S'\xc8\xdc\xa0]\xb4\xb3\xed?b\xb9\xcf\x1f\xa8Q\x13\xc0:\x0eA\xb8^ \x13@'
p4451
tp4452
bas(g3113
g2031
tp4453
(lp4454
g521
(g522
(I0
tp4455
g524
tp4456
Rp4457
(I1
(I3
tp4458
g531
I00
S'\xa0\xee\xbc7\x1c\xc9\xc2\xbf\x02{?`*X\x16\xc0\xc2\xcf\x15Rt\xb2\x14@'
p4459
tp4460
bag521
(g522
(I0
tp4461
g524
tp4462
Rp4463
(I1
(I3
tp4464
g3152
I00
S'\xff\x1dX8\xbe\xd2\xc9?\x91h\xd1{\x1e(\x16\xc0\xee\xfeSI\xc3\xd4\x03\xc0'
p4465
tp4466
bag521
(g522
(I0
tp4467
g524
tp4468
Rp4469
(I1
(I3
tp4470
g3152
I00
S'\xcc\x87!\x1f\xfb\x05\xe6?\x14;\x08\xf1<\xc6\x13\xc0V!\xac1j\x94\xc8?'
p4471
tp4472
bag521
(g522
(I0
tp4473
g524
tp4474
Rp4475
(I1
(I3
tp4476
g3152
I00
S'`\xc8Aw-\x81\xeb?/\xc3\xe6O\x04\xca\x10\xc0\x8a\xb7K)\x91{\xe4\xbf'
p4477
tp4478
bag521
(g522
(I0
tp4479
g524
tp4480
Rp4481
(I1
(I3
tp4482
g3152
I00
S'\xe1\xc6\xc7\xa7\x12X\xe7?\x98\x99\xb0\x9a\xfb\xdb\x0b\xc0R\t\x1b)\xeae\xe0\xbf'
p4483
tp4484
bag521
(g522
(I0
tp4485
g524
tp4486
Rp4487
(I1
(I3
tp4488
g3152
I00
S'p\xf1\xbdc^\x84\xf1?"\x88LL\xf9D\x06\xc0~w\r\xe9m\x0f\x19@'
p4489
tp4490
bas(g3166
g2035
tp4491
(lp4492
g521
(g522
(I0
tp4493
g524
tp4494
Rp4495
(I1
(I3
tp4496
g531
I00
S'_\xc8\xacwl\xa9\x05@\x8eL\xa6~\x15\xe6\x1c\xc0<\xd4\xf5\xbd\xf4\xd8\x15@'
p4497
tp4498
bas(g3113
g2035
tp4499
(lp4500
g521
(g522
(I0
tp4501
g524
tp4502
Rp4503
(I1
(I3
tp4504
g531
I00
S'\x9c\xee\xbc7\x1c\xc9\xc2\xbf\x02{?`*X\x16\xc0\xc1\xcf\x15Rt\xb2\x14@'
p4505
tp4506
bas(g3167
g2035
tp4507
(lp4508
g521
(g522
(I0
tp4509
g524
tp4510
Rp4511
(I1
(I3
tp4512
g531
I00
S'\xbd\x9ct\x99Y\x93\x0e@\xa4\x82\x19\x7fa\xb4\x17\xc0\x0b\x07\x97\xeb\xfc\n\x00@'
p4513
tp4514
bas(g3165
g2035
tp4515
(lp4516
g521
(g522
(I0
tp4517
g524
tp4518
Rp4519
(I1
(I3
tp4520
g531
I00
S'\xd6\xf2\xfc\xf7\x04\xce\x07@\xc6Ffi\xc6\xf0\x16\xc0;\xd1\xa5\x9d %\x17@'
p4521
tp4522
bas(g3165
g2031
tp4523
g3493
s(g3163
g2031
tp4524
g3405
s(g3163
g2035
tp4525
(lp4526
g521
(g522
(I0
tp4527
g524
tp4528
Rp4529
(I1
(I3
tp4530
g531
I00
S'\x97\xfd\xaaE\x8f\xc1\xe5?\xbb\xa6\xc5gY\x12\x1f\xc0\\)%M\x96\x93\x08@'
p4531
tp4532
bas(g3167
g2031
tp4533
g3299
s(g3166
g2031
tp4534
(lp4535
g521
(g522
(I0
tp4536
g524
tp4537
Rp4538
(I1
(I3
tp4539
g531
I00
S'f\xc8\xacwl\xa9\x05@\x8fL\xa6~\x15\xe6\x1c\xc0<\xd4\xf5\xbd\xf4\xd8\x15@'
p4540
tp4541
bag521
(g522
(I0
tp4542
g524
tp4543
Rp4544
(I1
(I3
tp4545
g3152
I00
S';\x8f\xd5Y\xee\xd5\x01@\x96Vuf4l\x1f\xc0\x08\xe6\xe9\x98\x9f0\xf6\xbf'
p4546
tp4547
bag521
(g522
(I0
tp4548
g524
tp4549
Rp4550
(I1
(I3
tp4551
g3152
I00
S'\x06\xbc\xc2\x02\xe5\t\xfa?\x13\x91\xe2\xd9\xb5B\x1e\xc0\xce\xd4\xdb\xc4\xdf\xb1\xf6\xbf'
p4552
tp4553
bag521
(g522
(I0
tp4554
g524
tp4555
Rp4556
(I1
(I3
tp4557
g3152
I00
S'\xba)c\x05l\x93\xf4?\x8f\x0f\xa1<\xee\x05\x1c\xc0\xf9-\x16\x17\xc6`\xf8\xbf'
p4558
tp4559
bag521
(g522
(I0
tp4560
g524
tp4561
Rp4562
(I1
(I3
tp4563
g3152
I00
S'\xb0\xcfg\xd5._\xe8?\xd6\x8d\xba\x87\x91D\x1a\xc0\xea!\xf73\x0cB\xf7\xbf'
p4564
tp4565
bag521
(g522
(I0
tp4566
g524
tp4567
Rp4568
(I1
(I3
tp4569
g3152
I00
S'\xb0\x11@i\x1f\x12\xb4?\x01\xb6C\x19\x0b\x9d\x1a\xc0\xda \xc5\xc8m8\xeb?'
p4570
tp4571
bag521
(g522
(I0
tp4572
g524
tp4573
Rp4574
(I1
(I3
tp4575
g3152
I00
S'Dz\xddx\xe9\xf0\xb4?\x9c\xf2\xf6\xf0\xef \x18\xc0\x03\xe5\x88\xf0JN\xf3?'
p4576
tp4577
bag521
(g522
(I0
tp4578
g524
tp4579
Rp4580
(I1
(I3
tp4581
g3152
I00
S'\xe4\x02R\xd9\x08\x8c\xc7?2\xc1\xd4;\xf6\xf3\x15\xc0>\x8c\x8fa?0\xd8?'
p4582
tp4583
bag521
(g522
(I0
tp4584
g524
tp4585
Rp4586
(I1
(I3
tp4587
g3152
I00
S'\xcc\x87!\x1f\xfb\x05\xe6?\x14;\x08\xf1<\xc6\x13\xc0V!\xac1j\x94\xc8?'
p4588
tp4589
bag521
(g522
(I0
tp4590
g524
tp4591
Rp4592
(I1
(I3
tp4593
g3152
I00
S'`\xc8Aw-\x81\xeb?/\xc3\xe6O\x04\xca\x10\xc0\x8a\xb7K)\x91{\xe4\xbf'
p4594
tp4595
bag521
(g522
(I0
tp4596
g524
tp4597
Rp4598
(I1
(I3
tp4599
g3152
I00
S'\xe1\xc6\xc7\xa7\x12X\xe7?\x98\x99\xb0\x9a\xfb\xdb\x0b\xc0R\t\x1b)\xeae\xe0\xbf'
p4600
tp4601
bag521
(g522
(I0
tp4602
g524
tp4603
Rp4604
(I1
(I3
tp4605
g3152
I00
S'p\xf1\xbdc^\x84\xf1?"\x88LL\xf9D\x06\xc0~w\r\xe9m\x0f\x19@'
p4606
tp4607
bas(g3114
g2035
tp4608
(lp4609
g521
(g522
(I0
tp4610
g524
tp4611
Rp4612
(I1
(I3
tp4613
g531
I00
S'\x8e\x07\xbd)b\xbe\xfb?\x0e\x85t\x92\x153\x18\xc0\xae0\xe9\xb77m\x17@'
p4614
tp4615
bas(g3114
g2031
tp4616
g3361
s(g3164
g2031
tp4617
g3461
ssg2523
(dp4618
sg2733
(dp4619
g2037
(lp4620
I0
aI0
aI0
aI0
aI0
aI0
aI00
aI01
aI00
aI01
aI00
asg2035
(lp4621
I0
aI0
aI0
aI0
aI0
aI0
aI00
aI01
aI00
aI01
aI00
asg2031
(lp4622
I0
aI0
aI0
aI0
aI0
aI0
aI00
aI01
aI01
aI01
aI00
asg2045
(lp4623
I0
aI0
aI0
ag1329
(g557
S'\xec\x1e]pS`\xd2?'
p4624
tp4625
Rp4626
ag1329
(g557
S'\x06\x1b\xb6\xe9Ei\x18\xc0'
p4627
tp4628
Rp4629
ag1329
(g557
S'\x82\x97\xe8\xa1t:\xe4?'
p4630
tp4631
Rp4632
aI01
aI00
aI00
aI00
aI00
asg2827
(lp4633
I0
aI0
aI0
ag1329
(g557
S'\x85#\x8a\xa8\xbfB\x02@'
p4634
tp4635
Rp4636
ag1329
(g557
S'C@\xdd\xaa0\xf7\x1a\xc0'
p4637
tp4638
Rp4639
ag1329
(g557
S'\x9a\x93\xe4\xf2\xe3\x8f\xe0?'
p4640
tp4641
Rp4642
aI01
aI00
aI00
aI01
aI00
asg2032
(lp4643
I0
aI0
aI0
ag1329
(g557
S'\xa8[$/\t\xb1\xb0?'
p4644
tp4645
Rp4646
ag1329
(g557
S':\xd9\xd7\x88y7\x1e\xc0'
p4647
tp4648
Rp4649
ag1329
(g557
S'\x9e\xa8\xa4gcb\x12@'
p4650
tp4651
Rp4652
aI01
aI00
aI00
aI00
aI00
asg2038
(lp4653
I0
aI0
aI0
ag1329
(g557
S'\x960, \xdaJ\xf5?'
p4654
tp4655
Rp4656
ag1329
(g557
S'@\x93\xc7_\x9e4\x18\xc0'
p4657
tp4658
Rp4659
ag1329
(g557
S'\x89,&\x8ck,\x0b@'
p4660
tp4661
Rp4662
aI01
aI00
aI00
aI00
aI00
asg2040
(lp4663
I0
aI0
aI0
ag1329
(g557
S'\xb3\x99\x7f<\xad\xb4\r@'
p4664
tp4665
Rp4666
ag1329
(g557
S'\xdb\xe5\x95\xe8\xfc\xf0\x16\xc0'
p4667
tp4668
Rp4669
ag1329
(g557
S'Y\x96n\x9e\xe7\t\x19@'
p4670
tp4671
Rp4672
aI01
aI00
aI00
aI01
aI00
asg2052
(lp4673
I0
aI0
aI0
ag1329
(g557
S'<\xc6\x84Ad\xa3\n@'
p4674
tp4675
Rp4676
ag1329
(g557
S'\x92\xae\xb2\x18;\x05\x1e\xc0'
p4677
tp4678
Rp4679
ag1329
(g557
S'j8\xf9\x85\xb6\xac\x0f@'
p4680
tp4681
Rp4682
aI01
aI00
aI00
aI01
aI00
asg2034
(lp4683
I0
aI0
aI0
ag1329
(g557
S'\xc0\xcf\x19\xc3\xf23\x0c@'
p4684
tp4685
Rp4686
ag1329
(g557
S'\xd0\xb5r\xad\x0f?\x15\xc0'
p4687
tp4688
Rp4689
ag1329
(g557
S'\xbf~a\xe9h\n\x13@'
p4690
tp4691
Rp4692
aI01
aI00
aI01
aI01
aI00
asg2041
(lp4693
I0
aI0
aI0
ag1329
(g557
S'\x14\xce\xcef\xfe\xbb\xf0?'
p4694
tp4695
Rp4696
ag1329
(g557
S'\xf6?\xfc\xa1\x9e\xc0\x16\xc0'
p4697
tp4698
Rp4699
ag1329
(g557
S'\xaeKe\x14U\xf8\x13@'
p4700
tp4701
Rp4702
aI01
aI00
aI00
aI00
aI00
assg2818
(dp4703
sg2820
NsS'goal_entities'
p4704
(lp4705
Vsquare_packing_box1
p4706
ag2031
asS'binary_edges'
p4707
(dp4708
(g2040
g2041
tp4709
g2526
s(g2032
g2032
tp4710
g2532
s(g2032
g2052
tp4711
g2530
s(g2827
g2827
tp4712
(lp4713
I00
aI00
aI00
as(g2040
g2045
tp4714
g2528
s(g2827
g2052
tp4715
(lp4716
I00
aI00
aI00
as(g2827
g2032
tp4717
(lp4718
I00
aI00
aI00
as(g2041
g2827
tp4719
(lp4720
I00
aI00
aI00
as(g2040
g2034
tp4721
g2536
s(g2038
g2032
tp4722
g2538
s(g2045
g2045
tp4723
g2540
s(g2827
g2035
tp4724
(lp4725
g2558
aI00
aI01
as(g2037
g2035
tp4726
g2564
s(g2045
g2041
tp4727
g2542
s(g2037
g2040
tp4728
g2666
s(g2034
g2031
tp4729
g2546
s(g2035
g2045
tp4730
g2548
s(g2827
g2041
tp4731
(lp4732
I00
aI00
aI00
as(g2032
g2037
tp4733
g2550
s(g2040
g2040
tp4734
g2560
s(g2037
g2041
tp4735
g2636
s(g2052
g2827
tp4736
(lp4737
I00
aI00
aI00
as(g2827
g2031
tp4738
(lp4739
I00
aI00
aI00
as(g2038
g2052
tp4740
g2654
s(g2045
g2038
tp4741
g2566
s(g2034
g2034
tp4742
g2568
s(g2827
g2037
tp4743
(lp4744
g2558
aI00
aI00
as(g2037
g2045
tp4745
g2638
s(g2035
g2052
tp4746
g2570
s(g2827
g2040
tp4747
(lp4748
I00
aI00
aI00
as(g2035
g2032
tp4749
g2572
s(g2052
g2031
tp4750
g2574
s(g2041
g2045
tp4751
g2576
s(g2038
g2045
tp4752
g2578
s(g2052
g2038
tp4753
g2580
s(g2037
g2031
tp4754
g2582
s(g2034
g2827
tp4755
(lp4756
I00
aI00
aI00
as(g2045
g2052
tp4757
g2584
s(g2037
g2052
tp4758
g2586
s(g2052
g2037
tp4759
g2588
s(g2032
g2040
tp4760
g2590
s(g2041
g2034
tp4761
g2592
s(g2032
g2827
tp4762
(lp4763
I00
aI00
aI00
as(g2041
g2031
tp4764
g2594
s(g2037
g2037
tp4765
g2596
s(g2052
g2045
tp4766
g2598
s(g2041
g2037
tp4767
g2710
s(g2031
g2037
tp4768
g2712
s(g2031
g2034
tp4769
g2602
s(g2038
g2035
tp4770
g2604
s(g2031
g2038
tp4771
g2606
s(g2041
g2032
tp4772
g2608
s(g2032
g2034
tp4773
g2610
s(g2052
g2035
tp4774
g2612
s(g2032
g2038
tp4775
g2614
s(g2052
g2052
tp4776
g2616
s(g2038
g2827
tp4777
(lp4778
I00
aI00
aI00
as(g2035
g2031
tp4779
g2618
s(g2031
g2040
tp4780
g2534
s(g2045
g2031
tp4781
g2620
s(g2037
g2038
tp4782
g2622
s(g2031
g2041
tp4783
g2624
s(g2032
g2041
tp4784
g2696
s(g2038
g2037
tp4785
g2628
s(g2041
g2035
tp4786
g2630
s(g2038
g2040
tp4787
g2632
s(g2045
g2827
tp4788
(lp4789
I00
aI00
aI00
as(g2045
g2035
tp4790
g2634
s(g2035
g2040
tp4791
g2562
s(g2035
g2827
tp4792
(lp4793
I00
aI00
aI00
as(g2038
g2031
tp4794
g2640
s(g2040
g2038
tp4795
g2642
s(g2034
g2038
tp4796
g2644
s(g2035
g2035
tp4797
g2646
s(g2032
g2045
tp4798
g2720
s(g2034
g2052
tp4799
g2650
s(g2035
g2034
tp4800
g2652
s(g2827
g2045
tp4801
(lp4802
I00
aI00
aI00
as(g2035
g2038
tp4803
g2656
s(g2034
g2037
tp4804
g2658
s(g2040
g2827
tp4805
(lp4806
I00
aI00
aI00
as(g2032
g2031
tp4807
g2660
s(g2034
g2045
tp4808
g2662
s(g2045
g2034
tp4809
g2664
s(g2827
g2034
tp4810
(lp4811
I00
aI00
aI00
as(g2035
g2041
tp4812
g2544
s(g2827
g2038
tp4813
(lp4814
I00
aI01
aI00
as(g2052
g2040
tp4815
g2668
s(g2040
g2035
tp4816
g2670
s(g2038
g2038
tp4817
g2672
s(g2041
g2040
tp4818
g2674
s(g2034
g2041
tp4819
g2676
s(g2031
g2052
tp4820
g2678
s(g2031
g2032
tp4821
g2680
s(g2041
g2038
tp4822
g2682
s(g2040
g2031
tp4823
g2684
s(g2052
g2034
tp4824
g2686
s(g2032
g2035
tp4825
g2688
s(g2031
g2827
tp4826
(lp4827
I00
aI00
aI00
as(g2038
g2034
tp4828
g2690
s(g2045
g2032
tp4829
g2692
s(g2031
g2035
tp4830
g2694
s(g2040
g2052
tp4831
g2626
s(g2037
g2032
tp4832
g2698
s(g2040
g2037
tp4833
g2700
s(g2052
g2032
tp4834
g2702
s(g2031
g2031
tp4835
g2704
s(g2038
g2041
tp4836
g2706
s(g2045
g2037
tp4837
g2708
s(g2034
g2040
tp4838
g2600
s(g2037
g2827
tp4839
(lp4840
I00
aI00
aI00
as(g2031
g2045
tp4841
g2714
s(g2052
g2041
tp4842
g2716
s(g2041
g2052
tp4843
g2718
s(g2040
g2032
tp4844
g2648
s(g2035
g2037
tp4845
g2722
s(g2034
g2032
tp4846
g2724
s(g2045
g2040
tp4847
g2726
s(g2041
g2041
tp4848
g2728
s(g2034
g2035
tp4849
g2730
s(g2037
g2034
tp4850
g2732
ssg1266
g3572
sS'pick_in_way'
p4851
(itrajectory_representation.predicates.pick_in_way
PickInWay
p4852
(dp4853
g1311
(dp4854
(g2040
g2041
tp4855
I00
s(g2032
g2032
tp4856
I00
s(g2032
g2052
tp4857
I00
s(g2827
g2827
tp4858
I00
s(g2040
g2045
tp4859
I00
s(g2827
g2052
tp4860
I00
s(g2827
g2032
tp4861
I00
s(g2041
g2827
tp4862
I00
s(g2040
g2034
tp4863
I00
s(g2038
g2032
tp4864
I01
s(g2045
g2045
tp4865
I00
s(g2827
g2035
tp4866
I00
s(g2037
g2035
tp4867
I00
s(g2045
g2041
tp4868
I00
s(g2037
g2040
tp4869
I00
s(g2034
g2031
tp4870
I00
s(g2035
g2045
tp4871
I00
s(g2827
g2041
tp4872
I00
s(g2032
g2037
tp4873
I00
s(g2040
g2040
tp4874
I00
s(g2037
g2041
tp4875
I00
s(g2052
g2827
tp4876
I00
s(g2827
g2031
tp4877
I00
s(g2038
g2052
tp4878
I00
s(g2045
g2038
tp4879
I00
s(g2034
g2034
tp4880
I00
s(g2827
g2037
tp4881
I00
s(g2037
g2045
tp4882
I00
s(g2035
g2052
tp4883
I00
s(g2827
g2040
tp4884
I00
s(g2035
g2032
tp4885
I00
s(g2052
g2031
tp4886
I00
s(g2041
g2045
tp4887
I01
s(g2038
g2045
tp4888
I01
s(g2052
g2038
tp4889
I00
s(g2037
g2031
tp4890
I00
s(g2034
g2827
tp4891
I00
s(g2045
g2052
tp4892
I00
s(g2037
g2052
tp4893
I00
s(g2052
g2037
tp4894
I00
s(g2032
g2040
tp4895
I00
s(g2041
g2034
tp4896
I00
s(g2032
g2827
tp4897
I00
s(g2041
g2031
tp4898
I00
s(g2037
g2037
tp4899
I00
s(g2052
g2045
tp4900
I00
s(g2041
g2037
tp4901
I00
s(g2031
g2037
tp4902
I00
s(g2031
g2034
tp4903
I00
s(g2038
g2035
tp4904
I00
s(g2031
g2038
tp4905
I00
s(g2041
g2032
tp4906
I01
s(g2032
g2034
tp4907
I00
s(g2052
g2035
tp4908
I00
s(g2032
g2038
tp4909
I00
s(g2052
g2052
tp4910
I00
s(g2038
g2827
tp4911
I00
s(g2035
g2031
tp4912
I00
s(g2031
g2040
tp4913
I00
s(g2045
g2031
tp4914
I00
s(g2037
g2038
tp4915
I00
s(g2031
g2041
tp4916
I00
s(g2032
g2041
tp4917
I00
s(g2038
g2037
tp4918
I00
s(g2041
g2035
tp4919
I00
s(g2038
g2040
tp4920
I00
s(g2045
g2827
tp4921
I00
s(g2045
g2035
tp4922
I00
s(g2035
g2040
tp4923
I00
s(g2035
g2827
tp4924
I00
s(g2038
g2031
tp4925
I00
s(g2040
g2038
tp4926
I00
s(g2034
g2038
tp4927
I00
s(g2035
g2035
tp4928
I00
s(g2032
g2045
tp4929
I00
s(g2034
g2052
tp4930
I00
s(g2035
g2034
tp4931
I00
s(g2827
g2045
tp4932
I00
s(g2035
g2038
tp4933
I00
s(g2034
g2037
tp4934
I00
s(g2040
g2827
tp4935
I00
s(g2032
g2031
tp4936
I00
s(g2034
g2045
tp4937
I00
s(g2045
g2034
tp4938
I00
s(g2827
g2034
tp4939
I00
s(g2035
g2041
tp4940
I00
s(g2827
g2038
tp4941
I01
s(g2052
g2040
tp4942
I00
s(g2040
g2035
tp4943
I00
s(g2038
g2038
tp4944
I00
s(g2041
g2040
tp4945
I00
s(g2034
g2041
tp4946
I00
s(g2031
g2052
tp4947
I00
s(g2031
g2032
tp4948
I00
s(g2041
g2038
tp4949
I00
s(g2040
g2031
tp4950
I00
s(g2052
g2034
tp4951
I00
s(g2032
g2035
tp4952
I00
s(g2031
g2827
tp4953
I00
s(g2038
g2034
tp4954
I00
s(g2045
g2032
tp4955
I00
s(g2031
g2035
tp4956
I00
s(g2040
g2052
tp4957
I00
s(g2037
g2032
tp4958
I00
s(g2040
g2037
tp4959
I00
s(g2052
g2032
tp4960
I00
s(g2031
g2031
tp4961
I00
s(g2038
g2041
tp4962
I01
s(g2045
g2037
tp4963
I00
s(g2034
g2040
tp4964
I00
s(g2037
g2827
tp4965
I00
s(g2031
g2045
tp4966
I00
s(g2052
g2041
tp4967
I00
s(g2041
g2052
tp4968
I00
s(g2040
g2032
tp4969
I00
s(g2035
g2037
tp4970
I00
s(g2034
g2032
tp4971
I00
s(g2045
g2040
tp4972
I00
s(g2041
g2041
tp4973
I00
s(g2034
g2035
tp4974
I00
s(g2037
g2034
tp4975
I00
ssg1024
(dp4976
g2045
g3589
sg2827
g3139
sg2032
g3608
sg2038
g3627
sg2040
g3646
sg2052
g3665
sg2034
g3690
sg2041
g3697
ssg1244
(dp4977
g2045
(lp4978
Vrectangular_packing_box1
p4979
aVsquare_packing_box4
p4980
asg2827
(lp4981
sg2032
(lp4982
Vrectangular_packing_box1
p4983
aVsquare_packing_box4
p4984
asg2038
(lp4985
Vrectangular_packing_box1
p4986
aVrectangular_packing_box2
p4987
asg2040
(lp4988
sg2052
(lp4989
sg2034
(lp4990
sg2041
(lp4991
Vrectangular_packing_box1
p4992
aVsquare_packing_box4
p4993
assg1266
(lp4994
g2040
ag2827
ag2052
ag2037
ag2031
ag2035
ag2034
ag2037
ag2031
ag2035
ag2037
ag2031
ag2035
ag2037
ag2031
ag2035
ag2037
ag2031
ag2035
ag2037
ag2031
ag2035
ag2037
ag2031
ag2035
ag2037
ag2031
ag2035
asg1268
g3573
sg2
(dp4995
sg505
g3112
sg1304
Nsg1310
g3112
sg1307
(dp4996
sg1324
I01
sg1309
I8
sg7
Nsg1323
NsbsS'robot_pose'
p4997
g521
(g522
(I0
tp4998
g524
tp4999
Rp5000
(I1
(I1
I3
tp5001
g531
I00
S'fR\xdd8\xd6\x8d\x00@\xbfC|\xd2X\x00\x16\xc0\xc1\xab\x9e\x0b\x900\xd2?'
p5002
tp5003
bsS'is_holding_goal_entity'
p5004
(itrajectory_representation.predicates.is_holding_goal_entity
IsHoldingGoalEntity
p5005
(dp5006
g4704
g4705
sg7
NsbsS'mc_pick_path'
p5007
(dp5008
sS'current_collides'
p5009
g3573
sbsg4704
(lp5010
Vsquare_packing_box1
p5011
ag11
asg4707
(dp5012
(g22
g23
tp5013
(lp5014
I00
aI00
aI00
as(g22
g33
tp5015
(lp5016
I00
aI00
aI00
as(g30
g46
tp5017
(lp5018
I00
aI00
aI00
as(g30
g30
tp5019
(lp5020
I00
aI00
aI00
as(g10
g46
tp5021
(lp5022
I00
aI00
aI00
as(g10
g30
tp5023
(lp5024
I00
aI00
aI00
as(g23
g10
tp5025
(lp5026
I00
aI00
aI00
as(g22
g14
tp5027
(lp5028
I00
aI00
aI00
as(g19
g30
tp5029
(lp5030
I00
aI00
aI00
as(g33
g33
tp5031
(lp5032
I00
aI00
aI00
as(g10
g15
tp5033
(lp5034
g2558
aI00
aI01
as(g18
g15
tp5035
(lp5036
I00
aI00
aI00
as(g33
g23
tp5037
(lp5038
I00
aI00
aI00
as(g15
g23
tp5039
(lp5040
I00
aI00
aI00
as(g14
g11
tp5041
(lp5042
I00
aI00
aI00
as(g18
g10
tp5043
(lp5044
I00
aI00
aI00
as(g10
g23
tp5045
(lp5046
I00
aI00
aI00
as(g30
g18
tp5047
(lp5048
g2558
aI00
aI00
as(g22
g22
tp5049
(lp5050
I00
aI00
aI00
as(g15
g22
tp5051
(lp5052
I00
aI00
aI00
as(g46
g10
tp5053
(lp5054
I00
aI00
aI00
as(g10
g11
tp5055
(lp5056
I00
aI00
aI00
as(g19
g46
tp5057
(lp5058
I00
aI00
aI00
as(g33
g19
tp5059
(lp5060
I00
aI00
aI00
as(g14
g14
tp5061
(lp5062
I00
aI00
aI00
as(g10
g18
tp5063
(lp5064
g2558
aI00
aI00
as(g15
g10
tp5065
(lp5066
I00
aI00
aI00
as(g15
g46
tp5067
(lp5068
I00
aI00
aI00
as(g15
g30
tp5069
(lp5070
I00
aI00
aI00
as(g46
g11
tp5071
(lp5072
I00
aI00
aI01
as(g23
g33
tp5073
(lp5074
I00
aI01
aI00
as(g19
g33
tp5075
(lp5076
I00
aI01
aI00
as(g46
g19
tp5077
(lp5078
I00
aI00
aI00
as(g15
g33
tp5079
(lp5080
I00
aI00
aI00
as(g18
g11
tp5081
(lp5082
I00
aI00
aI00
as(g14
g10
tp5083
(lp5084
I00
aI00
aI00
as(g33
g46
tp5085
(lp5086
I00
aI00
aI00
as(g18
g46
tp5087
(lp5088
I00
aI00
aI00
as(g46
g18
tp5089
(lp5090
g2558
aI00
aI00
as(g30
g22
tp5091
(lp5092
I00
aI00
aI00
as(g23
g14
tp5093
(lp5094
I00
aI00
aI00
as(g30
g10
tp5095
(lp5096
I00
aI00
aI00
as(g23
g11
tp5097
(lp5098
I00
aI00
aI01
as(g18
g18
tp5099
(lp5100
I00
aI00
aI00
as(g46
g33
tp5101
(lp5102
I00
aI00
aI00
as(g14
g22
tp5103
(lp5104
I00
aI00
aI00
as(g11
g14
tp5105
(lp5106
I00
aI00
aI00
as(g19
g15
tp5107
(lp5108
g2558
aI00
aI01
as(g11
g19
tp5109
(lp5110
I00
aI00
aI00
as(g23
g30
tp5111
(lp5112
I00
aI00
aI00
as(g30
g14
tp5113
(lp5114
I00
aI00
aI00
as(g46
g15
tp5115
(lp5116
g2558
aI00
aI01
as(g30
g19
tp5117
(lp5118
I00
aI00
aI00
as(g46
g46
tp5119
(lp5120
I00
aI00
aI00
as(g19
g10
tp5121
(lp5122
I00
aI00
aI00
as(g15
g11
tp5123
(lp5124
I00
aI00
aI00
as(g11
g22
tp5125
(lp5126
I00
aI00
aI00
as(g33
g11
tp5127
(lp5128
I00
aI00
aI01
as(g18
g19
tp5129
(lp5130
I00
aI00
aI00
as(g11
g23
tp5131
(lp5132
I00
aI00
aI00
as(g30
g23
tp5133
(lp5134
I00
aI00
aI00
as(g19
g18
tp5135
(lp5136
g2558
aI00
aI00
as(g23
g15
tp5137
(lp5138
g2558
aI00
aI01
as(g19
g22
tp5139
(lp5140
I00
aI00
aI00
as(g33
g10
tp5141
(lp5142
I00
aI00
aI00
as(g33
g15
tp5143
(lp5144
g2558
aI00
aI01
as(g11
g30
tp5145
(lp5146
I00
aI00
aI00
as(g18
g23
tp5147
(lp5148
I00
aI00
aI00
as(g18
g33
tp5149
(lp5150
I00
aI00
aI00
as(g19
g11
tp5151
(lp5152
I00
aI00
aI00
as(g22
g19
tp5153
(lp5154
I00
aI00
aI00
as(g14
g19
tp5155
(lp5156
I00
aI00
aI00
as(g11
g46
tp5157
(lp5158
I00
aI00
aI00
as(g15
g15
tp5159
(lp5160
I00
aI00
aI00
as(g22
g30
tp5161
(lp5162
I00
aI00
aI00
as(g14
g46
tp5163
(lp5164
I00
aI00
aI00
as(g15
g14
tp5165
(lp5166
I00
aI00
aI00
as(g10
g33
tp5167
(lp5168
I00
aI00
aI00
as(g15
g19
tp5169
(lp5170
I00
aI00
aI00
as(g14
g18
tp5171
(lp5172
g2558
aI00
aI00
as(g22
g10
tp5173
(lp5174
I00
aI00
aI00
as(g30
g11
tp5175
(lp5176
I00
aI00
aI00
as(g14
g33
tp5177
(lp5178
I00
aI00
aI00
as(g33
g14
tp5179
(lp5180
I00
aI00
aI00
as(g10
g14
tp5181
(lp5182
I00
aI00
aI00
as(g18
g22
tp5183
(lp5184
I00
aI00
aI00
as(g10
g19
tp5185
(lp5186
I00
aI00
aI00
as(g46
g22
tp5187
(lp5188
I00
aI00
aI00
as(g22
g15
tp5189
(lp5190
g2558
aI00
aI01
as(g19
g19
tp5191
(lp5192
I00
aI00
aI00
as(g23
g22
tp5193
(lp5194
I00
aI00
aI00
as(g14
g23
tp5195
(lp5196
I00
aI00
aI00
as(g10
g22
tp5197
(lp5198
I00
aI00
aI00
as(g10
g10
tp5199
(lp5200
I00
aI00
aI00
as(g23
g19
tp5201
(lp5202
I00
aI00
aI00
as(g22
g11
tp5203
(lp5204
I00
aI00
aI01
as(g46
g14
tp5205
(lp5206
I00
aI00
aI00
as(g30
g15
tp5207
(lp5208
g2558
aI00
aI01
as(g11
g10
tp5209
(lp5210
I00
aI00
aI00
as(g19
g14
tp5211
(lp5212
I00
aI00
aI00
as(g33
g30
tp5213
(lp5214
I00
aI00
aI00
as(g11
g15
tp5215
(lp5216
I00
aI00
aI00
as(g22
g46
tp5217
(lp5218
I00
aI00
aI00
as(g18
g30
tp5219
(lp5220
I00
aI00
aI00
as(g22
g18
tp5221
(lp5222
g2558
aI00
aI00
as(g46
g30
tp5223
(lp5224
I00
aI00
aI00
as(g11
g11
tp5225
(lp5226
I00
aI00
aI00
as(g19
g23
tp5227
(lp5228
I00
aI01
aI00
as(g33
g18
tp5229
(lp5230
g2558
aI00
aI00
as(g23
g18
tp5231
(lp5232
g2558
aI00
aI00
as(g11
g18
tp5233
(lp5234
I00
aI00
aI00
as(g11
g33
tp5235
(lp5236
I00
aI00
aI00
as(g46
g23
tp5237
(lp5238
I00
aI00
aI00
as(g23
g46
tp5239
(lp5240
I00
aI00
aI00
as(g30
g33
tp5241
(lp5242
I00
aI00
aI00
as(g15
g18
tp5243
(lp5244
I00
aI00
aI00
as(g14
g30
tp5245
(lp5246
I00
aI00
aI00
as(g33
g22
tp5247
(lp5248
I00
aI00
aI00
as(g23
g23
tp5249
(lp5250
I00
aI00
aI00
as(g14
g15
tp5251
(lp5252
g2558
aI00
aI01
as(g18
g14
tp5253
(lp5254
I00
aI00
aI00
assg1266
g1267
sg4851
(itrajectory_representation.predicates.pick_in_way
PickInWay
p5255
(dp5256
g1024
(dp5257
g33
g550
sg10
g620
sg30
g652
sg19
g708
sg22
g752
sg46
g796
sg14
g840
sg23
g884
ssg1244
(dp5258
g33
(lp5259
Vrectangular_packing_box1
p5260
aVsquare_packing_box4
p5261
asg10
(lp5262
sg30
(lp5263
sg19
(lp5264
sg22
(lp5265
sg46
(lp5266
sg14
(lp5267
sg23
(lp5268
Vrectangular_packing_box1
p5269
assg1266
(lp5270
g19
ag22
ag10
ag46
ag30
ag18
ag11
ag15
ag14
ag18
ag11
ag15
ag18
ag11
ag15
ag18
ag11
ag15
ag18
ag11
ag15
ag18
ag11
ag15
ag18
ag11
ag15
ag18
ag11
ag15
asg1268
g1269
sg2
(dp5271
sg505
g506
sg1304
Nsg1310
g506
sg1307
(dp5272
sg1309
I8
sg1324
I01
sg7
Nsg1311
(dp5273
(g22
g23
tp5274
I00
s(g22
g33
tp5275
I00
s(g30
g46
tp5276
I00
s(g30
g30
tp5277
I00
s(g10
g46
tp5278
I00
s(g10
g30
tp5279
I00
s(g23
g10
tp5280
I00
s(g22
g14
tp5281
I00
s(g19
g30
tp5282
I00
s(g33
g33
tp5283
I00
s(g10
g15
tp5284
I00
s(g18
g15
tp5285
I00
s(g33
g23
tp5286
I00
s(g15
g23
tp5287
I00
s(g14
g11
tp5288
I00
s(g18
g10
tp5289
I00
s(g10
g23
tp5290
I00
s(g30
g18
tp5291
I00
s(g22
g22
tp5292
I00
s(g15
g22
tp5293
I00
s(g46
g10
tp5294
I00
s(g10
g11
tp5295
I00
s(g19
g46
tp5296
I00
s(g33
g19
tp5297
I00
s(g14
g14
tp5298
I00
s(g10
g18
tp5299
I00
s(g15
g10
tp5300
I00
s(g15
g46
tp5301
I00
s(g15
g30
tp5302
I00
s(g46
g11
tp5303
I00
s(g23
g33
tp5304
I01
s(g19
g33
tp5305
I01
s(g46
g19
tp5306
I00
s(g15
g33
tp5307
I00
s(g18
g11
tp5308
I00
s(g14
g10
tp5309
I00
s(g33
g46
tp5310
I00
s(g18
g46
tp5311
I00
s(g46
g18
tp5312
I00
s(g30
g22
tp5313
I00
s(g23
g14
tp5314
I00
s(g30
g10
tp5315
I00
s(g23
g11
tp5316
I00
s(g18
g18
tp5317
I00
s(g46
g33
tp5318
I00
s(g14
g22
tp5319
I00
s(g11
g14
tp5320
I00
s(g19
g15
tp5321
I00
s(g11
g19
tp5322
I00
s(g23
g30
tp5323
I00
s(g30
g14
tp5324
I00
s(g46
g15
tp5325
I00
s(g30
g19
tp5326
I00
s(g46
g46
tp5327
I00
s(g19
g10
tp5328
I00
s(g15
g11
tp5329
I00
s(g11
g22
tp5330
I00
s(g33
g11
tp5331
I00
s(g18
g19
tp5332
I00
s(g11
g23
tp5333
I00
s(g30
g23
tp5334
I00
s(g19
g18
tp5335
I00
s(g23
g15
tp5336
I00
s(g19
g22
tp5337
I00
s(g33
g10
tp5338
I00
s(g33
g15
tp5339
I00
s(g11
g30
tp5340
I00
s(g18
g23
tp5341
I00
s(g18
g33
tp5342
I00
s(g19
g11
tp5343
I00
s(g22
g19
tp5344
I00
s(g14
g19
tp5345
I00
s(g11
g46
tp5346
I00
s(g15
g15
tp5347
I00
s(g22
g30
tp5348
I00
s(g14
g46
tp5349
I00
s(g15
g14
tp5350
I00
s(g10
g33
tp5351
I00
s(g15
g19
tp5352
I00
s(g14
g18
tp5353
I00
s(g22
g10
tp5354
I00
s(g30
g11
tp5355
I00
s(g14
g33
tp5356
I00
s(g33
g14
tp5357
I00
s(g10
g14
tp5358
I00
s(g18
g22
tp5359
I00
s(g10
g19
tp5360
I00
s(g46
g22
tp5361
I00
s(g22
g15
tp5362
I00
s(g19
g19
tp5363
I00
s(g23
g22
tp5364
I00
s(g14
g23
tp5365
I00
s(g10
g22
tp5366
I00
s(g10
g10
tp5367
I00
s(g23
g19
tp5368
I00
s(g22
g11
tp5369
I00
s(g46
g14
tp5370
I00
s(g30
g15
tp5371
I00
s(g11
g10
tp5372
I00
s(g19
g14
tp5373
I00
s(g33
g30
tp5374
I00
s(g11
g15
tp5375
I00
s(g22
g46
tp5376
I00
s(g18
g30
tp5377
I00
s(g22
g18
tp5378
I00
s(g46
g30
tp5379
I00
s(g11
g11
tp5380
I00
s(g19
g23
tp5381
I01
s(g33
g18
tp5382
I00
s(g23
g18
tp5383
I00
s(g11
g18
tp5384
I00
s(g11
g33
tp5385
I00
s(g46
g23
tp5386
I00
s(g23
g46
tp5387
I00
s(g30
g33
tp5388
I00
s(g15
g18
tp5389
I00
s(g14
g30
tp5390
I00
s(g33
g22
tp5391
I00
s(g23
g23
tp5392
I00
s(g14
g15
tp5393
I00
s(g18
g14
tp5394
I00
ssg1323
Nsbsg4997
g521
(g522
(I0
tp5395
g524
tp5396
Rp5397
(I1
(I1
I3
tp5398
g557
I00
S'\xd0#\xd1\xf6\xa3\xa0\xff?g\xf6\x05>\x84\xca\x1a\xc0\xc3\x86M\t\x07\xb1\xc0?'
p5399
tp5400
bsg5004
(itrajectory_representation.predicates.is_holding_goal_entity
IsHoldingGoalEntity
p5401
(dp5402
g4704
g5010
sg7
Nsbsg5007
(dp5403
sg5009
g1269
sb.