(itrajectory_representation.shortest_path_pick_and_place_state
ShortestPathPaPState
p0
(dp1
S'place_used'
p2
(dp3
sS'in_region'
p4
(itrajectory_representation.predicates.in_region
InRegion
p5
(dp6
S'problem_env'
p7
NsbsS'ternary_edges'
p8
(dp9
(Vrectangular_packing_box2
p10
g10
S'home_region'
p11
tp12
(lp13
I00
as(Vsquare_packing_box1
p14
S'loading_region'
p15
g15
tp16
(lp17
I00
as(S'entire_region'
p18
Vrectangular_packing_box1
p19
g11
tp20
(lp21
I00
as(Vsquare_packing_box2
p22
Vsquare_packing_box4
p23
g15
tp24
(lp25
I00
as(g11
g11
g11
tp26
(lp27
I00
as(g23
g10
g15
tp28
(lp29
I00
as(g14
Vrectangular_packing_box3
p30
g11
tp31
(lp32
I00
as(g11
Vrectangular_packing_box4
p33
g11
tp34
(lp35
I00
as(g22
g14
g11
tp36
(lp37
I00
as(g30
g33
g15
tp38
(lp39
I00
as(g11
g23
g15
tp40
(lp41
I00
as(g22
g18
g11
tp42
(lp43
I00
as(g15
g11
g15
tp44
(lp45
I00
as(g33
Vsquare_packing_box3
p46
g11
tp47
(lp48
I01
as(g23
g18
g11
tp49
(lp50
I00
as(g22
g19
g15
tp51
(lp52
I00
as(g46
g15
g11
tp53
(lp54
I00
as(g18
g10
g15
tp55
(lp56
I00
as(g11
g18
g11
tp57
(lp58
I00
as(g10
g15
g11
tp59
(lp60
I00
as(g46
g18
g11
tp61
(lp62
I00
as(g14
g14
g15
tp63
(lp64
I00
as(g15
g23
g15
tp65
(lp66
I00
as(g18
g15
g11
tp67
(lp68
I00
as(g18
g22
g11
tp69
(lp70
I00
as(g15
g15
g11
tp71
(lp72
I00
as(g46
g33
g15
tp73
(lp74
I00
as(g11
g11
g15
tp75
(lp76
I00
as(g19
g22
g15
tp77
(lp78
I00
as(g10
g23
g11
tp79
(lp80
I00
as(g46
g14
g11
tp81
(lp82
I00
as(g19
g11
g15
tp83
(lp84
I00
as(g11
g10
g15
tp85
(lp86
I00
as(g19
g30
g15
tp87
(lp88
I00
as(g30
g19
g11
tp89
(lp90
I00
as(g15
g14
g15
tp91
(lp92
I00
as(g23
g22
g15
tp93
(lp94
I00
as(g10
g10
g15
tp95
(lp96
I00
as(g18
g23
g11
tp97
(lp98
I00
as(g15
g11
g11
tp99
(lp100
I00
as(g33
g10
g11
tp101
(lp102
I01
as(g11
g30
g11
tp103
(lp104
I00
as(g22
g19
g11
tp105
(lp106
I00
as(g30
g23
g11
tp107
(lp108
I01
as(g14
g30
g15
tp109
(lp110
I00
as(g46
g22
g11
tp111
(lp112
I00
as(g22
g14
g15
tp113
(lp114
I00
as(g22
g10
g15
tp115
(lp116
I00
as(g18
g22
g15
tp117
(lp118
I00
as(g15
g30
g15
tp119
(lp120
I00
as(g18
g11
g11
tp121
(lp122
I00
as(g33
g11
g11
tp123
(lp124
I00
as(g15
g18
g11
tp125
(lp126
I00
as(g10
g23
g15
tp127
(lp128
I00
as(g46
g10
g15
tp129
(lp130
I00
as(g46
g46
g11
tp131
(lp132
I00
as(g19
g30
g11
tp133
(lp134
I01
as(g18
g10
g11
tp135
(lp136
I00
as(g19
g15
g15
tp137
(lp138
I00
as(g23
g14
g11
tp139
(lp140
I00
as(g14
g14
g11
tp141
(lp142
I00
as(g14
g33
g11
tp143
(lp144
I01
as(g33
g10
g15
tp145
(lp146
I00
as(g23
g19
g15
tp147
(lp148
I00
as(g46
g33
g11
tp149
(lp150
I00
as(g19
g22
g11
tp151
(lp152
I00
as(g10
g19
g15
tp153
(lp154
I00
as(g19
g11
g11
tp155
(lp156
I00
as(g22
g10
g11
tp157
(lp158
I01
as(g10
g46
g11
tp159
(lp160
I00
as(g30
g19
g15
tp161
(lp162
I00
as(g11
g22
g15
tp163
(lp164
I00
as(g18
g11
g15
tp165
(lp166
I00
as(g18
g23
g15
tp167
(lp168
I00
as(g46
g10
g11
tp169
(lp170
I00
as(g30
g46
g15
tp171
(lp172
I00
as(g10
g18
g15
tp173
(lp174
I00
as(g19
g15
g11
tp175
(lp176
I00
as(g46
g22
g15
tp177
(lp178
I00
as(g46
g19
g15
tp179
(lp180
I00
as(g23
g14
g15
tp181
(lp182
I00
as(g11
g30
g15
tp183
(lp184
I00
as(g18
g46
g15
tp185
(lp186
I00
as(g15
g30
g11
tp187
(lp188
I00
as(g15
g22
g15
tp189
(lp190
I00
as(g10
g19
g11
tp191
(lp192
I00
as(g23
g19
g11
tp193
(lp194
I00
as(g15
g46
g11
tp195
(lp196
I00
as(g10
g46
g15
tp197
(lp198
I00
as(g10
g33
g15
tp199
(lp200
I00
as(g30
g23
g15
tp201
(lp202
I00
as(g14
g33
g15
tp203
(lp204
I00
as(g19
g46
g15
tp205
(lp206
I00
as(g11
g14
g15
tp207
(lp208
I00
as(g30
g15
g15
tp209
(lp210
I00
as(g33
g11
g15
tp211
(lp212
I00
as(g14
g19
g11
tp213
(lp214
I00
as(g10
g18
g11
tp215
(lp216
I00
as(g33
g22
g15
tp217
(lp218
I00
as(g30
g10
g15
tp219
(lp220
I00
as(g46
g19
g11
tp221
(lp222
I00
as(g23
g15
g15
tp223
(lp224
I00
as(g22
g11
g11
tp225
(lp226
I00
as(g23
g33
g11
tp227
(lp228
I00
as(g11
g46
g15
tp229
(lp230
I00
as(g15
g19
g15
tp231
(lp232
I00
as(g15
g46
g15
tp233
(lp234
I00
as(g14
g46
g11
tp235
(lp236
I01
as(g19
g46
g11
tp237
(lp238
I01
as(g14
g19
g15
tp239
(lp240
I00
as(g30
g10
g11
tp241
(lp242
I01
as(g10
g22
g11
tp243
(lp244
I01
as(g30
g11
g15
tp245
(lp246
I00
as(g23
g15
g11
tp247
(lp248
I00
as(g15
g33
g15
tp249
(lp250
I00
as(g10
g33
g11
tp251
(lp252
I00
as(g30
g30
g11
tp253
(lp254
I00
as(g33
g33
g11
tp255
(lp256
I00
as(g33
g30
g15
tp257
(lp258
I00
as(g30
g15
g11
tp259
(lp260
I00
as(g46
g23
g11
tp261
(lp262
I00
as(g33
g22
g11
tp263
(lp264
I00
as(g22
g15
g15
tp265
(lp266
I00
as(g30
g18
g15
tp267
(lp268
I00
as(g22
g11
g15
tp269
(lp270
I00
as(g14
g22
g15
tp271
(lp272
I00
as(g23
g33
g15
tp273
(lp274
I00
as(g46
g11
g15
tp275
(lp276
I00
as(g30
g11
g11
tp277
(lp278
I00
as(g15
g33
g11
tp279
(lp280
I00
as(g19
g19
g11
tp281
(lp282
I00
as(g15
g23
g11
tp283
(lp284
I00
as(g23
g46
g11
tp285
(lp286
I00
as(g14
g10
g11
tp287
(lp288
I01
as(g14
g46
g15
tp289
(lp290
I00
as(g33
g14
g15
tp291
(lp292
I00
as(g11
g22
g11
tp293
(lp294
I00
as(g18
g30
g15
tp295
(lp296
I00
as(g30
g14
g11
tp297
(lp298
I00
as(g19
g18
g11
tp299
(lp300
I00
as(g46
g23
g15
tp301
(lp302
I00
as(g46
g30
g15
tp303
(lp304
I00
as(g33
g19
g11
tp305
(lp306
I00
as(g10
g22
g15
tp307
(lp308
I00
as(g33
g15
g11
tp309
(lp310
I00
as(g30
g18
g11
tp311
(lp312
I00
as(g23
g30
g15
tp313
(lp314
I00
as(g10
g14
g11
tp315
(lp316
I00
as(g46
g14
g15
tp317
(lp318
I00
as(g23
g23
g15
tp319
(lp320
I00
as(g33
g33
g15
tp321
(lp322
I00
as(g19
g19
g15
tp323
(lp324
I00
as(g14
g23
g15
tp325
(lp326
I00
as(g23
g22
g11
tp327
(lp328
I01
as(g18
g14
g11
tp329
(lp330
I00
as(g11
g18
g15
tp331
(lp332
I00
as(g11
g19
g15
tp333
(lp334
I00
as(g22
g15
g11
tp335
(lp336
I00
as(g14
g10
g15
tp337
(lp338
I00
as(g19
g14
g15
tp339
(lp340
I00
as(g30
g30
g15
tp341
(lp342
I00
as(g18
g30
g11
tp343
(lp344
I00
as(g22
g30
g15
tp345
(lp346
I00
as(g19
g18
g15
tp347
(lp348
I00
as(g14
g22
g11
tp349
(lp350
I00
as(g33
g19
g15
tp351
(lp352
I00
as(g33
g30
g11
tp353
(lp354
I00
as(g23
g30
g11
tp355
(lp356
I00
as(g14
g11
g15
tp357
(lp358
I00
as(g22
g46
g11
tp359
(lp360
I00
as(g46
g46
g15
tp361
(lp362
I00
as(g33
g18
g11
tp363
(lp364
I00
as(g15
g18
g15
tp365
(lp366
I00
as(g23
g46
g15
tp367
(lp368
I00
as(g15
g19
g11
tp369
(lp370
I00
as(g18
g18
g15
tp371
(lp372
I00
as(g33
g14
g11
tp373
(lp374
I00
as(g14
g23
g11
tp375
(lp376
I00
as(g15
g10
g15
tp377
(lp378
I00
as(g30
g14
g15
tp379
(lp380
I00
as(g46
g11
g11
tp381
(lp382
I00
as(g18
g14
g15
tp383
(lp384
I00
as(g46
g30
g11
tp385
(lp386
I00
as(g30
g22
g11
tp387
(lp388
I00
as(g33
g15
g15
tp389
(lp390
I00
as(g10
g14
g15
tp391
(lp392
I00
as(g19
g10
g11
tp393
(lp394
I01
as(g18
g15
g15
tp395
(lp396
I00
as(g15
g10
g11
tp397
(lp398
I00
as(g14
g18
g11
tp399
(lp400
I00
as(g22
g46
g15
tp401
(lp402
I00
as(g22
g33
g15
tp403
(lp404
I00
as(g23
g11
g11
tp405
(lp406
I00
as(g33
g18
g15
tp407
(lp408
I00
as(g33
g23
g11
tp409
(lp410
I00
as(g18
g33
g15
tp411
(lp412
I00
as(g11
g19
g11
tp413
(lp414
I00
as(g11
g46
g11
tp415
(lp416
I00
as(g19
g14
g11
tp417
(lp418
I00
as(g19
g33
g11
tp419
(lp420
I00
as(g18
g46
g11
tp421
(lp422
I00
as(g22
g30
g11
tp423
(lp424
I00
as(g22
g22
g15
tp425
(lp426
I00
as(g19
g23
g15
tp427
(lp428
I00
as(g23
g11
g15
tp429
(lp430
I00
as(g10
g11
g11
tp431
(lp432
I00
as(g14
g11
g11
tp433
(lp434
I00
as(g19
g10
g15
tp435
(lp436
I00
as(g23
g10
g11
tp437
(lp438
I01
as(g11
g15
g11
tp439
(lp440
I00
as(g18
g18
g11
tp441
(lp442
I00
as(g10
g30
g15
tp443
(lp444
I00
as(g14
g18
g15
tp445
(lp446
I00
as(g15
g22
g11
tp447
(lp448
I00
as(g30
g33
g11
tp449
(lp450
I00
as(g18
g33
g11
tp451
(lp452
I00
as(g14
g15
g11
tp453
(lp454
I00
as(g30
g22
g15
tp455
(lp456
I00
as(g11
g14
g11
tp457
(lp458
I00
as(g18
g19
g15
tp459
(lp460
I00
as(g23
g18
g15
tp461
(lp462
I00
as(g22
g22
g11
tp463
(lp464
I00
as(g19
g23
g11
tp465
(lp466
I00
as(g46
g18
g15
tp467
(lp468
I00
as(g22
g33
g11
tp469
(lp470
I00
as(g11
g23
g11
tp471
(lp472
I00
as(g30
g46
g11
tp473
(lp474
I01
as(g33
g23
g15
tp475
(lp476
I00
as(g23
g23
g11
tp477
(lp478
I00
as(g19
g33
g15
tp479
(lp480
I00
as(g22
g23
g11
tp481
(lp482
I00
as(g46
g15
g15
tp483
(lp484
I00
as(g11
g10
g11
tp485
(lp486
I00
as(g10
g15
g15
tp487
(lp488
I00
as(g11
g33
g15
tp489
(lp490
I00
as(g10
g11
g15
tp491
(lp492
I00
as(g15
g15
g15
tp493
(lp494
I00
as(g22
g18
g15
tp495
(lp496
I00
as(g33
g46
g15
tp497
(lp498
I00
as(g11
g15
g15
tp499
(lp500
I00
as(g10
g30
g11
tp501
(lp502
I00
as(g15
g14
g11
tp503
(lp504
I00
assS'pick_used'
p505
(dp506
Vrectangular_packing_box4
p507
(itrajectory_representation.operator
Operator
p508
(dp509
S'is_skeleton'
p510
I01
sS'discrete_parameters'
p511
(dp512
S'object'
p513
Vrectangular_packing_box4
p514
ssS'type'
p515
S'two_arm_pick'
p516
sS'continuous_parameters'
p517
(dp518
S'q_goal'
p519
(lp520
cnumpy.core.multiarray
_reconstruct
p521
(cnumpy
ndarray
p522
(I0
tp523
S'b'
p524
tp525
Rp526
(I1
(I3
tp527
cnumpy
dtype
p528
(S'f8'
p529
I0
I1
tp530
Rp531
(I3
S'<'
p532
NNNI-1
I-1
I0
tp533
bI00
S'\x1fTr\x8bW\xcd\x07@Q\x94\x1eG\xa9L\x16\xc0UT\xea\xb4\xe4\x1d\xfc\xbf'
p534
tp535
bag521
(g522
(I0
tp536
g524
tp537
Rp538
(I1
(I3
tp539
g531
I00
S'b\xc52\x81\x05(\x04@\xb7\x15\xc02n\x06\x17\xc0\xa7la\x8fF\x16\xe8\xbf'
p540
tp541
bag521
(g522
(I0
tp542
g524
tp543
Rp544
(I1
(I3
tp545
g531
I00
S'\x8d\xb9%\xb1\xa3\x90\x06@E<\xcc\xf0X\xb6\x16\xc0\x03\xbbt\xfc\xfd>\xf7\xbf'
p546
tp547
basS'is_feasible'
p548
I00
ssS'low_level_motion'
p549
(lp550
g521
(g522
(I0
tp551
g524
tp552
Rp553
(I1
(I3
tp554
g528
(S'f8'
p555
I0
I1
tp556
Rp557
(I3
S'<'
p558
NNNI-1
I-1
I0
tp559
bI00
S'\xc8~P\xd6\xbf\xdc\xe1?\x12l\xe8\xb1\xc8\xa9\x16\xc0\xcfu\x86kl@\x16@'
p560
tp561
bag521
(g522
(I0
tp562
g524
tp563
Rp564
(I1
(I3
tp565
g528
(S'f8'
p566
I0
I1
tp567
Rp568
(I3
S'<'
p569
NNNI-1
I-1
I0
tp570
bI00
S'j\x1e\x80\xdd\x0f\xcc\xcc?\xb3\xd8X\xd3%~\x18\xc0\x90\xda\xcf7y\xd5\xe6\xbf'
p571
tp572
bag521
(g522
(I0
tp573
g524
tp574
Rp575
(I1
(I3
tp576
g568
I00
S'T]\x0c\x0e\xd89\xda?\xf4\x992\x11%\\\x18\xc0\x95\x7f\x10B\xb1)\xe3?'
p577
tp578
bag521
(g522
(I0
tp579
g524
tp580
Rp581
(I1
(I3
tp582
g568
I00
S'\xdc\xfdN\xc8J~\xf0?\xc2\xcc\xc4M\xa2\x1d\x1a\xc0\xb4;\xa7?\xcck\xe7\xbf'
p583
tp584
bag521
(g522
(I0
tp585
g524
tp586
Rp587
(I1
(I3
tp588
g568
I00
S'\x05\x83iK\x01\x86\xfb?\x162zB{\xdc\x1a\xc0T\xd8\x04\x17\xd4b\xea\xbf'
p589
tp590
bag521
(g522
(I0
tp591
g524
tp592
Rp593
(I1
(I3
tp594
g568
I00
S'\x00\xda\x1c<\xfd\xdc\x00@j"\x91\xe3 \x1a\x18\xc0i~!@)\xb0\xdc\xbf'
p595
tp596
bag538
asbsVrectangular_packing_box2
p597
(itrajectory_representation.operator
Operator
p598
(dp599
g510
I01
sg511
(dp600
g513
Vrectangular_packing_box2
p601
ssg515
g516
sg517
(dp602
g519
(lp603
g521
(g522
(I0
tp604
g524
tp605
Rp606
(I1
(I3
tp607
g531
I00
S'\xce\x9e\x88\x0e\xab1\xd6?\xd0\xc5\xc4\xc3\xe0;\x17\xc0\xa6\xbc\x016\xe1Z\xd2?'
p608
tp609
bag521
(g522
(I0
tp610
g524
tp611
Rp612
(I1
(I3
tp613
g531
I00
S'\x9a\xea\xb9\xb0\xfa\x13\xea?\x95\xc6\xed\xb8\xac\xf6\x18\xc0\x9e\xc8qe>`\xf6?'
p614
tp615
bag521
(g522
(I0
tp616
g524
tp617
Rp618
(I1
(I3
tp619
g531
I00
S'\x88\xf0UjR\xd3\xfc?rH%\xd0\xedY\x18\xc0T1h\xd3<\x8f\x04@'
p620
tp621
basg548
I00
ssg549
(lp622
g521
(g522
(I0
tp623
g524
tp624
Rp625
(I1
(I3
tp626
g557
I00
S'\xc8~P\xd6\xbf\xdc\xe1?\x12l\xe8\xb1\xc8\xa9\x16\xc0\xcfu\x86kl@\x16@'
p627
tp628
bag521
(g522
(I0
tp629
g524
tp630
Rp631
(I1
(I3
tp632
g568
I00
S'\xbc\xcaD\xb3\xa5\xd0\xda?5\x9e\xd8L\xbc\xff\x15\xc0\x86v/\xef\x06;\xe9\xbf'
p633
tp634
bag521
(g522
(I0
tp635
g524
tp636
Rp637
(I1
(I3
tp638
g568
I00
S'T]\x0c\x0e\xd89\xda?\xf4\x992\x11%\\\x18\xc0\x95\x7f\x10B\xb1)\xe3?'
p639
tp640
bag606
asbsVrectangular_packing_box3
p641
(itrajectory_representation.operator
Operator
p642
(dp643
g510
I01
sg511
(dp644
g513
Vrectangular_packing_box3
p645
ssg515
g516
sg517
(dp646
g519
(lp647
g521
(g522
(I0
tp648
g524
tp649
Rp650
(I1
(I3
tp651
g531
I00
S'\xe8\x81s2xD\xd0?i\x03\xed\x02\x06q\x1c\xc0\xaa\xb0\xf8\xe0\x14\x92\xeb?'
p652
tp653
bag521
(g522
(I0
tp654
g524
tp655
Rp656
(I1
(I3
tp657
g531
I00
S's^\x87<\xd9\x8f\xf6?\xfc_\x0b\xfb\xcd\x9f\x17\xc0>\xce\xffN\xd5\x8c\x03\xc0'
p658
tp659
bag521
(g522
(I0
tp660
g524
tp661
Rp662
(I1
(I3
tp663
g531
I00
S'\xbd\x0c\x1e#C\xe3\xd7?{V\x1c\xb9\xd1\xfa\x18\xc0\xc2y\x84\xad\x13\xb2\xe6\xbf'
p664
tp665
basg548
I00
ssg549
(lp666
g521
(g522
(I0
tp667
g524
tp668
Rp669
(I1
(I3
tp670
g557
I00
S'\xc8~P\xd6\xbf\xdc\xe1?\x12l\xe8\xb1\xc8\xa9\x16\xc0\xcfu\x86kl@\x16@'
p671
tp672
bag662
asbsVrectangular_packing_box1
p673
(itrajectory_representation.operator
Operator
p674
(dp675
g510
I01
sg511
(dp676
g513
Vrectangular_packing_box1
p677
ssg515
g516
sg517
(dp678
g519
(lp679
g521
(g522
(I0
tp680
g524
tp681
Rp682
(I1
(I3
tp683
g531
I00
S'\xdb[\xe1\xa4\xcf\x08\xe6?\x8e`\x1a\xe3\xb1\xdc\x1e\xc0L\xc7 \x19"\x1e\r\xc0'
p684
tp685
bag521
(g522
(I0
tp686
g524
tp687
Rp688
(I1
(I3
tp689
g531
I00
S'\xa6u\x0bs\xd0\xab\xc2?\xdd\xd70|\x89\x13\x1c\xc0\xe9*H\x84Q\x8f\xfe\xbf'
p690
tp691
bag521
(g522
(I0
tp692
g524
tp693
Rp694
(I1
(I3
tp695
g531
I00
S'\x13\x0e\x06\xe4 [\xbf\xbfnE\\9\xf6\x1e\x1c\xc0\xd5o\x08\x9a~x\x00\xc0'
p696
tp697
basg548
I00
ssg549
(lp698
g521
(g522
(I0
tp699
g524
tp700
Rp701
(I1
(I3
tp702
g557
I00
S'\xc8~P\xd6\xbf\xdc\xe1?\x12l\xe8\xb1\xc8\xa9\x16\xc0\xcfu\x86kl@\x16@'
p703
tp704
bag521
(g522
(I0
tp705
g524
tp706
Rp707
(I1
(I3
tp708
g568
I00
S'\xf8C*\xbe\x14\xcf\xe8?\x81d\xab\xeb\xa8<\x18\xc0\xc8\\\xf4\x8c\xc3\xfa\xfe\xbf'
p709
tp710
bag521
(g522
(I0
tp711
g524
tp712
Rp713
(I1
(I3
tp714
g568
I00
S'\xf8\xfc\x1a\xd0\xc9l\xe8?\x8a\x897\x8e~\x98\x1a\xc0\xaf\xf7\xb87\xc6\xa7\x01\xc0'
p715
tp716
bag688
asbsVsquare_packing_box2
p717
(itrajectory_representation.operator
Operator
p718
(dp719
g510
I01
sg511
(dp720
g513
Vsquare_packing_box2
p721
ssg515
g516
sg517
(dp722
g519
(lp723
g521
(g522
(I0
tp724
g524
tp725
Rp726
(I1
(I3
tp727
g531
I00
S'\xb8\x8e\xd2\x9f\x15I\xda?$\xb2\xd5q<N\x18\xc0X\xff\xd5R\xb2\x0f\x03@'
p728
tp729
bag521
(g522
(I0
tp730
g524
tp731
Rp732
(I1
(I3
tp733
g531
I00
S'\x18\xeb\xb5c\x84=\xd8?z\xd0\xbf\xba\x97\x97\x18\xc0\xba?\xe3\xcd\xbd\xd2\x03@'
p734
tp735
bag521
(g522
(I0
tp736
g524
tp737
Rp738
(I1
(I3
tp739
g531
I00
S'r \x11,Y\x0c\xdf?G!\xfd^\x12\xc8\x17\xc0\xe3%\x1dc&\xc1\x04@'
p740
tp741
basg548
I00
ssg549
(lp742
g521
(g522
(I0
tp743
g524
tp744
Rp745
(I1
(I3
tp746
g557
I00
S'\xc8~P\xd6\xbf\xdc\xe1?\x12l\xe8\xb1\xc8\xa9\x16\xc0\xcfu\x86kl@\x16@'
p747
tp748
bag521
(g522
(I0
tp749
g524
tp750
Rp751
(I1
(I3
tp752
g568
I00
S'xnY\x12\x1f5\xb9\xbf\xb3~\xb6Z\xbb\xc6\x16\xc0\x80_\xc0b\xcb\xb1\xf7\xbf'
p753
tp754
bag521
(g522
(I0
tp755
g524
tp756
Rp757
(I1
(I3
tp758
g568
I00
S'ib\xa2\x0c9\xe9\xd7?\xca\xcd\xb4=\xe6_\x18\xc0tY\xa4\x97\x8d\xd7\x02@'
p759
tp760
bag726
asbsVsquare_packing_box3
p761
(itrajectory_representation.operator
Operator
p762
(dp763
g510
I01
sg511
(dp764
S'object'
p765
Vsquare_packing_box3
p766
ssg515
S'two_arm_pick'
p767
sg517
(dp768
S'q_goal'
p769
(lp770
g521
(g522
(I0
tp771
g524
tp772
Rp773
(I1
(I3
tp774
g557
I00
S'\xc9CD\x88\x08I\xea?\x17h\x1eI\\@\x1a\xc0 X\x9d\xa7R\x02\xeb?'
p775
tp776
bag521
(g522
(I0
tp777
g524
tp778
Rp779
(I1
(I3
tp780
g557
I00
S'\xda\xdc\x1a\x9a\xabw\xe3?\x8f\xc9\x91\xe9b\x01\x16\xc0`\x7f\x7f^\xde\x86\xf1\xbf'
p781
tp782
bag521
(g522
(I0
tp783
g524
tp784
Rp785
(I1
(I3
tp786
g557
I00
S'\x9c\r\xfc\xfe\x02h\xe5?\xb0\xb1\xd7 \r(\x16\xc09\x15\x18\x18%0\xf1\xbf'
p787
tp788
basS'is_feasible'
p789
I00
ssg549
(lp790
g521
(g522
(I0
tp791
g524
tp792
Rp793
(I1
(I3
tp794
g557
I00
S'\xc8~P\xd6\xbf\xdc\xe1?\x12l\xe8\xb1\xc8\xa9\x16\xc0\xcfu\x86kl@\x16@'
p795
tp796
bag779
asbsVsquare_packing_box1
p797
(itrajectory_representation.operator
Operator
p798
(dp799
g510
I01
sg511
(dp800
g513
Vsquare_packing_box1
p801
ssg515
g516
sg517
(dp802
g519
(lp803
g521
(g522
(I0
tp804
g524
tp805
Rp806
(I1
(I3
tp807
g531
I00
S':I^\xea2k\x08@\xd6\xf0<\x8c\x08R\x16\xc0\xe8<*\xd6\x89\x1e\x8a?'
p808
tp809
bag521
(g522
(I0
tp810
g524
tp811
Rp812
(I1
(I3
tp813
g531
I00
S'&7zN^\x7f\x07@\x96A<\xb7\x01\xe2\x17\xc0\xae\x18\x08\xc6q\x9f\xed?'
p814
tp815
bag521
(g522
(I0
tp816
g524
tp817
Rp818
(I1
(I3
tp819
g531
I00
S'\xd8\x1c\x0c\x8b\xd2\xe3\x07@y\xa0\xc1\x04\x82}\x16\xc0\xd3\x99e\xef\x1e!\xe0\xbf'
p820
tp821
basg548
I00
ssg549
(lp822
g521
(g522
(I0
tp823
g524
tp824
Rp825
(I1
(I3
tp826
g557
I00
S'\xc8~P\xd6\xbf\xdc\xe1?\x12l\xe8\xb1\xc8\xa9\x16\xc0\xcfu\x86kl@\x16@'
p827
tp828
bag521
(g522
(I0
tp829
g524
tp830
Rp831
(I1
(I3
tp832
g568
I00
S"\xc6'8AN\xb0\xec?\xe0\x975>\x0f\x03\x19\xc0(\xe0e;\x85\x89\x05\xc0"
p833
tp834
bag521
(g522
(I0
tp835
g524
tp836
Rp837
(I1
(I3
tp838
g568
I00
S'~\x1a}\xaa\x02\xe0\xf6?N\xaex\xdd\xfd\x81\x19\xc0\xa8\x14\xd5\xf2I\xd8\x07\xc0'
p839
tp840
bag521
(g522
(I0
tp841
g524
tp842
Rp843
(I1
(I3
tp844
g568
I00
S'\x84\xa3|.\x10\xee\xfc?\xfc\xc5\t\x9e\xc3\xe9\x1a\xc0\xec\x96S\xb5\x05\x08\x05\xc0'
p845
tp846
bag521
(g522
(I0
tp847
g524
tp848
Rp849
(I1
(I3
tp850
g568
I00
S'A\xec\xb55+(\x03@v\x14\x1a\xc5J\xca\x18\xc0\xe9\rA\xa0%\xbe\xc7?'
p851
tp852
bag812
asbsVsquare_packing_box4
p853
(itrajectory_representation.operator
Operator
p854
(dp855
g510
I01
sg511
(dp856
g513
Vsquare_packing_box4
p857
ssg515
g516
sg517
(dp858
g519
(lp859
g521
(g522
(I0
tp860
g524
tp861
Rp862
(I1
(I3
tp863
g531
I00
S'\xc8@\x86\xcei\xc9\xa4?\xd4\xc4+\x19#\xbe\x19\xc0\x89\xc85\xcd\x91\xb3\x01\xc0'
p864
tp865
bag521
(g522
(I0
tp866
g524
tp867
Rp868
(I1
(I3
tp869
g531
I00
S'`g\xa4\n\x03\x04\x8e?\xe0\xdc\x97\xbaM>\x1a\xc0\x0b6\x12\xa8\xe6\x13\x05\xc0'
p870
tp871
bag521
(g522
(I0
tp872
g524
tp873
Rp874
(I1
(I3
tp875
g531
I00
S'\xacB\x8f\xb3\x0f\xf0\xcc?\x91\x8f\xc5d\x90\xad\x1d\xc0d\xd48\xa8\x9a\xec\x03@'
p876
tp877
basg548
I00
ssg549
(lp878
g521
(g522
(I0
tp879
g524
tp880
Rp881
(I1
(I3
tp882
g557
I00
S'\xc8~P\xd6\xbf\xdc\xe1?\x12l\xe8\xb1\xc8\xa9\x16\xc0\xcfu\x86kl@\x16@'
p883
tp884
bag521
(g522
(I0
tp885
g524
tp886
Rp887
(I1
(I3
tp888
g568
I00
S'\xac\xb4\xd5\x83\xbb\xf9\xe0?\xe1\x80\xe9+%\xe6\x16\xc0<\xd6N\xab\x06\xcc\xf7\xbf'
p889
tp890
bag521
(g522
(I0
tp891
g524
tp892
Rp893
(I1
(I3
tp894
g568
I00
S'\x0c\x8b\xaa\xe9\xe8%\xb0\xbf\xf7\x05\x80\xfb=|\x18\xc0X\xd6!\xf5\xa2\x12\x07@'
p895
tp896
bag862
asbssS'use_prm'
p897
I01
sS'object_names'
p898
(lp899
S'square_packing_box1'
p900
aS'rectangular_packing_box1'
p901
aS'square_packing_box2'
p902
aS'rectangular_packing_box2'
p903
aS'square_packing_box3'
p904
aS'rectangular_packing_box3'
p905
aS'square_packing_box4'
p906
aS'rectangular_packing_box4'
p907
asg7
NsS'current_holding_collides'
p908
(dp909
Vrectangular_packing_box4
p910
c__builtin__
set
p911
((lp912
tp913
Rp914
sVrectangular_packing_box2
p915
g911
((lp916
I384
aI260
aI133
aI134
aI135
aI136
aI394
aI523
aI155
aI157
aI158
aI417
aI163
aI164
aI165
aI166
aI433
aI296
aI43
aI44
aI45
aI176
aI392
aI178
aI308
aI445
aI458
aI66
aI452
aI197
aI583
aI328
aI202
aI589
aI82
aI83
aI346
aI379
aI229
aI338
aI518
aI502
aI251
atp917
Rp918
sVrectangular_packing_box3
p919
g911
((lp920
I448
aI392
aI132
aI135
aI264
aI268
aI146
aI406
aI407
aI154
aI158
aI416
aI417
aI433
aI296
aI263
aI176
aI177
aI64
aI70
aI583
aI201
aI458
aI203
aI463
aI464
aI593
aI211
aI597
aI505
aI346
aI478
aI611
aI486
aI230
aI490
aI494
aI240
aI374
aI119
aI120
aI121
aI122
atp921
Rp922
sVrectangular_packing_box1
p923
g911
((lp924
I0
aI1
aI2
aI513
aI393
aI435
aI256
aI144
aI403
aI413
aI34
aI548
aI38
aI39
aI40
aI425
aI555
aI302
aI303
aI307
aI438
aI442
aI571
aI573
aI62
aI449
aI453
aI327
aI457
aI376
aI497
aI342
aI343
aI474
aI348
aI605
aI607
aI611
aI612
aI550
aI367
aI368
aI369
aI500
aI247
aI248
aI377
aI541
aI511
atp925
Rp926
sVsquare_packing_box2
p927
g911
((lp928
I513
aI514
aI259
aI260
aI264
aI270
aI403
aI406
aI286
aI543
aI552
aI555
aI556
aI429
aI302
aI303
aI392
aI436
aI585
aI440
aI570
aI443
aI572
aI63
aI66
aI67
aI68
aI457
aI119
aI337
aI610
aI613
aI358
aI515
aI370
aI115
aI117
aI118
aI375
aI123
aI255
atp929
Rp930
sVsquare_packing_box3
p931
g911
((lp932
I4
aI5
aI137
aI529
aI132
aI539
aI265
aI517
aI416
aI33
aI34
aI554
aI43
aI44
aI301
aI46
aI584
aI310
aI55
aI56
aI570
aI187
aI556
aI449
aI580
aI70
aI327
aI456
aI201
aI202
aI203
aI162
aI210
aI84
aI597
aI348
aI93
aI94
aI607
aI484
aI233
aI106
aI107
aI108
aI497
aI499
aI252
atp933
Rp934
sVsquare_packing_box1
p935
g911
((lp936
I387
aI179
aI268
aI405
aI35
aI548
aI497
aI296
aI303
aI304
aI307
aI436
aI565
aI438
aI55
aI500
aI442
aI64
aI577
aI194
aI68
aI375
aI210
aI211
aI340
aI343
aI90
aI91
aI220
aI479
aI354
aI490
aI113
aI114
aI372
aI374
aI247
aI376
aI505
aI378
aI511
aI254
aI255
atp937
Rp938
sVsquare_packing_box4
p939
g911
((lp940
I256
aI513
aI514
aI259
aI260
aI268
aI194
aI145
aI403
aI286
aI552
aI555
aI556
aI429
aI179
aI436
aI55
aI56
aI443
aI444
aI65
aI66
aI67
aI68
aI584
aI585
aI610
aI79
aI440
aI210
aI340
aI215
aI90
aI91
aI354
aI613
aI358
aI572
aI490
aI113
aI370
aI118
aI375
aI378
aI123
aI255
atp941
Rp942
ssS'reachable_regions_while_holding'
p943
(lp944
(g507
g15
tp945
a(g597
g15
tp946
a(g641
g15
tp947
a(g673
g15
tp948
a(g717
g15
tp949
a(g761
g15
tp950
a(g797
g15
tp951
a(g853
g15
tp952
a(g597
g11
tp953
a(g717
g11
tp954
a(g761
g11
tp955
a(g853
g11
tp956
asS'object_poses'
p957
(dp958
Vrectangular_packing_box4
p959
g521
(g522
(I0
tp960
g524
tp961
Rp962
(I1
(I1
I3
tp963
g557
I00
S'\x90g=|i\xa7\x0c@p0\x02\xb6T\xc3\x1d\xc0g\xf9\x1cJ\x05\xfe\xfa?'
p964
tp965
bsVrectangular_packing_box2
p966
g521
(g522
(I0
tp967
g524
tp968
Rp969
(I1
(I1
I3
tp970
g557
I00
S'y\x9c\x0b~8\xb4\xdd?\x1fY\x0c+|m\x1c\xc0p\xb02\xee}\x0c\x17@'
p971
tp972
bsVrectangular_packing_box3
p973
g521
(g522
(I0
tp974
g524
tp975
Rp976
(I1
(I1
I3
tp977
g557
I00
S"\xcc'\x1e]\x82|\xf3?(\x0f~\xe1\xf44\x1f\xc0\xb8\xb4\xbe\x86\xb9\xa3\x02@"
p978
tp979
bsVrectangular_packing_box1
p980
g521
(g522
(I0
tp981
g524
tp982
Rp983
(I1
(I1
I3
tp984
g557
I00
S'\xc4A\xddg?\xcb\t@|\xc0\xe9 W\xa6\x18\xc0\t}p\xc6yR\x01@'
p985
tp986
bsVsquare_packing_box2
p987
g521
(g522
(I0
tp988
g524
tp989
Rp990
(I1
(I1
I3
tp991
g557
I00
S'\xc3+\xc9\xaa\xe7\x1f\x03@\x9b\xb4\xd7XLc\x1f\xc0\x85\xa2\xd5\xfa\xde\xf1\x18@'
p992
tp993
bsVsquare_packing_box3
p994
g521
(g522
(I0
tp995
g524
tp996
Rp997
(I1
(I1
I3
tp998
g557
I00
S'\x0e^}\xa8=W\xf3?\xfd\xd0\xf9\xad\xde\xe1\x17\xc0\xe8\x13H\x91\xbb\x8b\x16@'
p999
tp1000
bsVsquare_packing_box1
p1001
g521
(g522
(I0
tp1002
g524
tp1003
Rp1004
(I1
(I1
I3
tp1005
g557
I00
S'z\x11\xfe,A\xf1\x07@\x02\x92\xce\xc9\xca\x9a\x1b\xc0G14\r[8\x17@'
p1006
tp1007
bsVsquare_packing_box4
p1008
g521
(g522
(I0
tp1009
g524
tp1010
Rp1011
(I1
(I1
I3
tp1012
g557
I00
S'#\xd5\xe4e\x80S\x04@\xa4[\x04\x8d^q\x1d\xc0\xb0y\x1d\x0c\x12\xf2\xd0?'
p1013
tp1014
bssS'place_in_way'
p1015
(itrajectory_representation.predicates.place_in_way
PlaceInWay
p1016
(dp1017
S'mc_path_to_entity'
p1018
(dp1019
(g33
g11
tp1020
(lp1021
g521
(g522
(I0
tp1022
g524
tp1023
Rp1024
(I1
(I3
tp1025
g557
I00
S'"Tr\x8bW\xcd\x07@Q\x94\x1eG\xa9L\x16\xc0\x03\x98\t\'\x82\x1a\x12@'
p1026
tp1027
bag521
(g522
(I0
tp1028
g524
tp1029
Rp1030
(I1
(I3
tp1031
g568
I00
S'\x93\xe8\x9a\xb2\xd1\xfa\x03@\x8aHE%\xee\xed\x15\xc0\xf8hW\x99?x\xfa\xbf'
p1032
tp1033
bag521
(g522
(I0
tp1034
g524
tp1035
Rp1036
(I1
(I3
tp1037
g568
I00
S'!\x83\xc0\xf3W\x85\xff?\xed\x8f\x90/y\xfd\x16\xc06jP\xfe\x98\xf5\xf4\xbf'
p1038
tp1039
bag521
(g522
(I0
tp1040
g524
tp1041
Rp1042
(I1
(I3
tp1043
g568
I00
S'2Z\xe1\xe97J\xf6?\\\x1e`@2v\x16\xc0\xc4\x0c\xcc\x14<\xf9\xf6\xbf'
p1044
tp1045
bag521
(g522
(I0
tp1046
g524
tp1047
Rp1048
(I1
(I3
tp1049
g568
I00
S'tx\x8as\xa8b\xed?\x9ej\x15\xfa\xf0{\x15\xc0@\xed\x9a-\x9eD\xf2\xbf'
p1050
tp1051
bag521
(g522
(I0
tp1052
g524
tp1053
Rp1054
(I1
(I3
tp1055
g568
I00
S"\xb2&6mg)\xe8?\x99\xe0G'\x16\xe0\x13\xc0\xc8oL\xf5\x17p\xe6\xbf"
p1056
tp1057
bag521
(g522
(I0
tp1058
g524
tp1059
Rp1060
(I1
(I3
tp1061
g568
I00
S'`\xc8Aw-\x81\xeb?/\xc3\xe6O\x04\xca\x10\xc0\x8a\xb7K)\x91{\xe4\xbf'
p1062
tp1063
bag521
(g522
(I0
tp1064
g524
tp1065
Rp1066
(I1
(I3
tp1067
g568
I00
S'\xe1\xc6\xc7\xa7\x12X\xe7?\x98\x99\xb0\x9a\xfb\xdb\x0b\xc0R\t\x1b)\xeae\xe0\xbf'
p1068
tp1069
bag521
(g522
(I0
tp1070
g524
tp1071
Rp1072
(I1
(I3
tp1073
g568
I00
S'p\xf1\xbdc^\x84\xf1?"\x88LL\xf9D\x06\xc0~w\r\xe9m\x0f\x19@'
p1074
tp1075
bas(g14
g11
tp1076
(lp1077
g521
(g522
(I0
tp1078
g524
tp1079
Rp1080
(I1
(I3
tp1081
g557
I00
S'8I^\xea2k\x08@\xd6\xf0<\x8c\x08R\x16\xc0\xe8<*\xd6\x89\x1e\x8a?'
p1082
tp1083
bag521
(g522
(I0
tp1084
g524
tp1085
Rp1086
(I1
(I3
tp1087
g568
I00
S'\xfe\xe8\x18\xb9\x80t\x02@\xc8\xc9\x8bB\xfe\x86\x16\xc0\x19\xcf\xcc\xc3%!\x9e\xbf'
p1088
tp1089
bag521
(g522
(I0
tp1090
g524
tp1091
Rp1092
(I1
(I3
tp1093
g568
I00
S'\xb1\x91\x83\xd6J:\x00@X\xbf\x9b\xa3\xf7;\x19\xc0\xb4\xa9\x94\xff\xff\xd1\xec?'
p1094
tp1095
bag521
(g522
(I0
tp1096
g524
tp1097
Rp1098
(I1
(I3
tp1099
g568
I00
S'j\xc7\xc0&\x8ag\xf6?h\x9cH4\x7f\xab\x18\xc0\xd8|\x1d\xfc\xcbV\xf2?'
p1100
tp1101
bag521
(g522
(I0
tp1102
g524
tp1103
Rp1104
(I1
(I3
tp1105
g568
I00
S'\x85\\2\xba\x0b5\xf5?I\r\x06\xd10\xfb\x15\xc0\x9e\x11\xee\xd8\xb9\xd7\xf5?'
p1106
tp1107
bag521
(g522
(I0
tp1108
g524
tp1109
Rp1110
(I1
(I3
tp1111
g568
I00
S'v\xb8^\x85\xa7[\xea?x\xbe\xff2t\x8d\x13\xc0\x88\x85\x8cCyH\xf6?'
p1112
tp1113
bag521
(g522
(I0
tp1114
g524
tp1115
Rp1116
(I1
(I3
tp1117
g568
I00
S'\xc2\xda(e\x83\x1a\xeb?\x8au\x8d3\xa6E\x11\xc0\xb4c\x1b\xed_\xfd\xfa?'
p1118
tp1119
bag521
(g522
(I0
tp1120
g524
tp1121
Rp1122
(I1
(I3
tp1123
g568
I00
S'\xe4u**\x0e5\xe9?\xaa\xfd\r\xed\xc4\xf6\r\xc0\x0fDE0\x1f\x0b\xfe?'
p1124
tp1125
bag521
(g522
(I0
tp1126
g524
tp1127
Rp1128
(I1
(I3
tp1129
g568
I00
S'\x06\x11,\xef\x98O\xe7??\x10\x01s=b\t\xc04\x92\xb79o\x8c\x00@'
p1130
tp1131
bag521
(g522
(I0
tp1132
g524
tp1133
Rp1134
(I1
(I3
tp1135
g568
I00
S'\x92\xaf\xf3P\x96O\xc2?(\xa1:\x8er}\x05\xc0\xd4_\x91\xb3\xffL\x02@'
p1136
tp1137
bas(g30
g11
tp1138
(lp1139
g521
(g522
(I0
tp1140
g524
tp1141
Rp1142
(I1
(I3
tp1143
g557
I00
S'\xe0\x81s2xD\xd0?h\x03\xed\x02\x06q\x1c\xc0\xaa\xb0\xf8\xe0\x14\x92\xeb?'
p1144
tp1145
bag521
(g522
(I0
tp1146
g524
tp1147
Rp1148
(I1
(I3
tp1149
g568
I00
S'X\x9b\x8c[e\xe8\xdb?\xdc\xc11jk\x8b\x1b\xc0\xfe\x18\xeb6\xf7\x88\xc3?'
p1150
tp1151
bag521
(g522
(I0
tp1152
g524
tp1153
Rp1154
(I1
(I3
tp1155
g568
I00
S'\xa6\xc4l\x8d\x92\xcc\xe5?\x10\xc7\xe9C\x0b\xd8\x18\xc0@\xb9\xa4\xa6\xc5\xc5\x8e\xbf'
p1156
tp1157
bag521
(g522
(I0
tp1158
g524
tp1159
Rp1160
(I1
(I3
tp1161
g568
I00
S'\xd8\x87\x03p)T\xe4?\xd5\xabI\xb7V\xd0\x15\xc0vWg\x9a\x87\x8a\xec?'
p1162
tp1163
bag521
(g522
(I0
tp1164
g524
tp1165
Rp1166
(I1
(I3
tp1167
g568
I00
S'\xa9\xd9\x1d\x8d\xa6j\xdf?\xa0\x85\x1a\x84\xc6\xec\x12\xc0\x01\xb6 H\xb1\x91\xeb?'
p1168
tp1169
bag521
(g522
(I0
tp1170
g524
tp1171
Rp1172
(I1
(I3
tp1173
g568
I00
S'\x93k\xbc\xee\xc2\x10\xe8?\xab^\x86?\x08D\x10\xc0\x10;2\x00\xe5\t\xde?'
p1174
tp1175
bag521
(g522
(I0
tp1176
g524
tp1177
Rp1178
(I1
(I3
tp1179
g568
I00
S'\xef\xc3u*\xfb\xdb\xeb?\x8d\xa5\n\xfd\x03<\n\xc0\xd8\xfb\xde\x16R\xac\xde?'
p1180
tp1181
bag521
(g522
(I0
tp1182
g524
tp1183
Rp1184
(I1
(I3
tp1185
g568
I00
S'\xf4\xfdJ\x1a(#\xec?H"\x9cD\x1aE\x05\xc0.\xa9\x0b\x87\xf8\xe1\x02@'
p1186
tp1187
bas(g19
g11
tp1188
(lp1189
g521
(g522
(I0
tp1190
g524
tp1191
Rp1192
(I1
(I3
tp1193
g557
I00
S'\xda[\xe1\xa4\xcf\x08\xe6?\x8d`\x1a\xe3\xb1\xdc\x1e\xc0\xe4\x92g\x8f\xd4%\x05@'
p1194
tp1195
bag521
(g522
(I0
tp1196
g524
tp1197
Rp1198
(I1
(I3
tp1199
g568
I00
S'\x0c\x0f=\x82\xe8\x10\xef?\x95;\xd2\x17&\xe7\x1b\xc0\xf2\xbb\xbd\xb4q\x0b\t@'
p1200
tp1201
bag521
(g522
(I0
tp1202
g524
tp1203
Rp1204
(I1
(I3
tp1205
g568
I00
S'\xae\xea\x9e\xa3\xa2\xb1\xed?\xa4\xca\x1d?h\x96\x19\xc0dq\xdf\xb1\x9d\xe4\x05@'
p1206
tp1207
bag521
(g522
(I0
tp1208
g524
tp1209
Rp1210
(I1
(I3
tp1211
g568
I00
S'o\xd6\x82\xea\x7f\xb2\xed?9\xf2C\x0b?\xfd\x16\xc0(?d\xe9@\xb5\x02@'
p1212
tp1213
bag521
(g522
(I0
tp1214
g524
tp1215
Rp1216
(I1
(I3
tp1217
g568
I00
S'&>c9\x01,\xeb?\xb2\xc2\xf0\x02\xce\x8e\x14\xc0\xd8p\xbb2\x14\xd2\x03@'
p1218
tp1219
bag521
(g522
(I0
tp1220
g524
tp1221
Rp1222
(I1
(I3
tp1223
g568
I00
S'\xc6\x05\xbdtg\xd9\xe2?F\xdf\x9d@\\\xf3\x11\xc0\x1a\xc4.\xbb\xcc\x12\x02@'
p1224
tp1225
bag521
(g522
(I0
tp1226
g524
tp1227
Rp1228
(I1
(I3
tp1229
g568
I00
S'3z\xed\x8eN)\xe4?\x0c\x96\xd4\xa2\x0e\xd0\r\xc0\xbd%\xf5{\xe9\xf9\x03@'
p1230
tp1231
bag521
(g522
(I0
tp1232
g524
tp1233
Rp1234
(I1
(I3
tp1235
g568
I00
S'\xaf0\xe9h\xba~\xee?k\xbb\xd8\xd4\xd0g\t\xc09\x9ey\xed\xb06\x06@'
p1236
tp1237
bag521
(g522
(I0
tp1238
g524
tp1239
Rp1240
(I1
(I3
tp1241
g568
I00
S'\xf4\xfdJ\x1a(#\xec?H"\x9cD\x1aE\x05\xc0.\xa9\x0b\x87\xf8\xe1\x02@'
p1242
tp1243
bassS'mc_to_entity'
p1244
(dp1245
(g33
g11
tp1246
(lp1247
Vrectangular_packing_box1
p1248
aVsquare_packing_box1
p1249
aVsquare_packing_box3
p1250
aVsquare_packing_box4
p1251
as(g14
g11
tp1252
(lp1253
Vrectangular_packing_box1
p1254
aVsquare_packing_box3
p1255
as(g30
g11
tp1256
(lp1257
Vrectangular_packing_box2
p1258
aVsquare_packing_box3
p1259
as(g19
g11
tp1260
(lp1261
Vrectangular_packing_box2
p1262
aVrectangular_packing_box3
p1263
aVsquare_packing_box3
p1264
assS'reachable_entities'
p1265
(lp1266
g507
ag597
ag641
ag717
ag761
ag853
asS'collides'
p1267
(dp1268
Vrectangular_packing_box4
p1269
g911
((lp1270
I386
aI387
aI268
aI269
aI270
aI405
aI280
aI548
aI565
aI573
aI193
aI210
aI339
aI212
aI213
aI479
aI354
aI614
aI111
aI112
aI211
aI245
aI246
aI381
aI254
atp1271
Rp1272
sVrectangular_packing_box2
p1273
g911
((lp1274
I384
aI133
aI134
aI135
aI136
aI394
aI523
aI155
aI157
aI158
aI163
aI164
aI165
aI166
aI296
aI176
aI433
aI308
aI452
aI197
aI583
aI328
aI458
aI589
aI338
aI83
aI346
aI229
aI82
aI518
aI502
aI251
atp1275
Rp1276
sVrectangular_packing_box3
p1277
g911
((lp1278
I135
aI392
aI146
aI406
aI407
aI158
aI433
aI296
aI263
aI176
aI264
aI448
aI583
aI177
aI458
aI463
aI464
aI593
aI505
aI346
aI486
aI230
aI490
aI494
aI240
aI374
aI119
aI120
aI121
aI122
atp1279
Rp1280
sVrectangular_packing_box1
p1281
g911
((lp1282
I0
aI1
aI2
aI393
aI435
aI144
aI403
aI541
aI548
aI38
aI39
aI40
aI425
aI555
aI302
aI303
aI307
aI438
aI442
aI571
aI62
aI453
aI457
aI376
aI342
aI343
aI474
aI348
aI605
aI611
aI612
aI550
aI367
aI368
aI369
aI500
aI247
aI248
aI377
aI511
atp1283
Rp1284
sVsquare_packing_box2
p1285
g911
((lp1286
I513
aI514
aI259
aI260
aI392
aI515
aI406
aI286
aI543
aI552
aI556
aI429
aI436
aI440
aI443
aI572
aI66
aI67
aI68
aI585
aI119
aI337
aI610
aI613
aI358
aI117
aI118
aI375
aI123
aI255
atp1287
Rp1288
sVsquare_packing_box3
p1289
g911
((lp1290
I4
aI5
aI137
aI132
aI517
aI416
aI33
aI34
aI554
aI43
aI44
aI301
aI584
aI310
aI55
aI56
aI570
aI187
aI449
aI70
aI327
aI456
aI201
aI202
aI203
aI162
aI84
aI597
aI93
aI94
aI607
aI484
aI233
aI106
aI107
aI108
aI497
aI252
atp1291
Rp1292
sVsquare_packing_box1
p1293
g911
((lp1294
I179
aI268
aI405
aI548
aI303
aI307
aI436
aI565
aI438
aI442
aI64
aI577
aI194
aI68
aI247
aI210
aI211
aI340
aI343
aI90
aI91
aI220
aI479
aI354
aI113
aI114
aI500
aI375
aI376
aI511
aI254
aI255
atp1295
Rp1296
sVsquare_packing_box4
p1297
g911
((lp1298
I256
aI513
aI514
aI259
aI260
aI268
aI194
aI145
aI286
aI552
aI556
aI429
aI179
aI436
aI440
aI443
aI444
aI65
aI66
aI67
aI68
aI585
aI610
aI79
aI210
aI340
aI215
aI90
aI91
aI354
aI613
aI358
aI572
aI113
aI118
aI375
aI123
aI255
atp1299
Rp1300
ssg2
g3
sg505
g506
sS'mc_paths'
p1301
(dp1302
sS'robot'
p1303
NsS'reachable_obj_region_pairs'
p1304
(lp1305
sS'sampled_pick_configs_for_objects'
p1306
(dp1307
sS'mc_calls'
p1308
I0
sS'pick_poses'
p1309
g506
sg7
NsS'evaluations'
p1310
(dp1311
(g30
g46
g11
tp1312
I01
s(g33
g46
g11
tp1313
I01
s(g14
g46
g11
tp1314
I01
s(g19
g46
g11
tp1315
I01
ssS'paths_to_reachable_entities'
p1316
NsS'use_shortest_path'
p1317
I01
sbsS'cached_pick_paths'
p1318
(dp1319
g507
g550
sg597
g622
sg641
g666
sg673
g698
sg717
g742
sg761
g790
sg797
g822
sg853
g878
ssg1267
(dp1320
(Vrectangular_packing_box2
p1321
(cnumpy.core.multiarray
scalar
p1322
(g557
S'Nb\x10X9\xb4\xdd?'
p1323
tp1324
Rp1325
g1322
(g557
S'\xbbH\xa1,|m\x1c\xc0'
p1326
tp1327
Rp1328
g1322
(g557
S'\xf5,\x08\xe5}\x0c\x17@'
p1329
tp1330
Rp1331
tp1332
tp1333
g1276
s(Vsquare_packing_box4
p1334
(g1322
(g557
S'w\xbd4E\x80S\x04@'
p1335
tp1336
Rp1337
g1322
(g557
S'Y\x19\x8d|^q\x1d\xc0'
p1338
tp1339
Rp1340
g1322
(g557
S'\xfc\x18s\xd7\x12\xf2\xd0?'
p1341
tp1342
Rp1343
tp1344
tp1345
g1300
s(Vsquare_packing_box1
p1346
(g1322
(g557
S'\x1a\xc0[ A\xf1\x07@'
p1347
tp1348
Rp1349
g1322
(g557
S'\x86TQ\xbc\xca\x9a\x1b\xc0'
p1350
tp1351
Rp1352
g1322
(g557
S'\x9c\x8aT\x18[8\x17@'
p1353
tp1354
Rp1355
tp1356
tp1357
g1296
s(Vrectangular_packing_box1
p1358
(g1322
(g557
S'\xf7\x1d\xc3c?\xcb\t@'
p1359
tp1360
Rp1361
g1322
(g557
S'\xc2\xfc\x152W\xa6\x18\xc0'
p1362
tp1363
Rp1364
g1322
(g557
S'W\xd1\x1f\x9ayR\x01@'
p1365
tp1366
Rp1367
tp1368
tp1369
g1284
s(Vrectangular_packing_box3
p1370
(g1322
(g557
S'(\xd2\xfd\x9c\x82|\xf3?'
p1371
tp1372
Rp1373
g1322
(g557
S'\xbe\xd9\xe6\xc6\xf44\x1f\xc0'
p1374
tp1375
Rp1376
g1322
(g557
S'e\x17\x0c\xae\xb9\xa3\x02@'
p1377
tp1378
Rp1379
tp1380
tp1381
g1280
s(Vrectangular_packing_box4
p1382
(g1322
(g557
S"_'\xf5ei\xa7\x0c@"
p1383
tp1384
Rp1385
g1322
(g557
S'\x9ft"\xc1T\xc3\x1d\xc0'
p1386
tp1387
Rp1388
g1322
(g557
S'\x8c\xbc\xac\x89\x05\xfe\xfa?'
p1389
tp1390
Rp1391
tp1392
tp1393
g1272
s(Vsquare_packing_box2
p1394
(g1322
(g557
S'\xfa\x08\xfc\xe1\xe7\x1f\x03@'
p1395
tp1396
Rp1397
g1322
(g557
S'D\xa4\xa6]Lc\x1f\xc0'
p1398
tp1399
Rp1400
g1322
(g557
S'\xc9\xff\xe4\xef\xde\xf1\x18@'
p1401
tp1402
Rp1403
tp1404
tp1405
g1288
s(Vsquare_packing_box3
p1406
(g1322
(g557
S'\x04\x00\xc7\x9e=W\xf3?'
p1407
tp1408
Rp1409
g1322
(g557
S'G!\xc9\xac\xde\xe1\x17\xc0'
p1410
tp1411
Rp1412
g1322
(g557
S';\x1c]\xa5\xbb\x8b\x16@'
p1413
tp1414
Rp1415
tp1416
tp1417
g1292
ssS'state_saver'
p1418
(igtamp_utils.utils
CustomStateSaver
p1419
(dp1420
S'robot_base_pose'
p1421
g521
(g522
(I0
tp1422
g524
tp1423
Rp1424
(I1
(I1
I3
tp1425
g557
I00
S'\xec~P\xd6\xbf\xdc\xe1?\x12l\xe8\xb1\xc8\xa9\x16\xc0\xcfu\x86kl@\x16@'
p1426
tp1427
bsS'held_object'
p1428
NsS'robot_name'
p1429
S'pr2'
p1430
sS'env_id'
p1431
I1
sg957
(dp1432
Vright_wall_1
p1433
g521
(g522
(I0
tp1434
g524
tp1435
Rp1436
(I1
(I4
tp1437
g557
I00
S'H\xe1z\x14\xaeG\x12@&\\\x8f\xc2\xf5(\xd4\xbf\xcc\x7fH\xbf}\x1d\xed?\x00\x00\x00\x00\x00\x00\x00\x00'
p1438
tp1439
bsVc_obst5
p1440
g521
(g522
(I0
tp1441
g524
tp1442
Rp1443
(I1
(I4
tp1444
g557
I00
S"\x9dC\xd6\x9ep\xed\x11@\xb0\x10[\x91\x89~\x9f\xbfe\xaa`TR'\xed?A\xf7\xa8\xc7\x08\x03\xd8?"
p1445
tp1446
bsVentrance_right
p1447
g521
(g522
(I0
tp1448
g524
tp1449
Rp1450
(I1
(I4
tp1451
g557
I00
S'ffffff\n@H\xe1z\x14\xaeG\t\xc0\x9c\xc4 \xb0rh\xc1?\x00\x00\x00\x00\x00\x00\x00\x00'
p1452
tp1453
bsVcomputer_table
p1454
g521
(g522
(I0
tp1455
g524
tp1456
Rp1457
(I1
(I4
tp1458
g557
I00
S'\x00\x00\x00\x00\x00\x00\x13@\x00\x00\x00\x00\x00\x00\xf8\xbf\x96C\x8bl\xe7\xfb\xe7?\xd2!3\x7f|\xd9\x12@'
p1459
tp1460
bsVchair_6b56
p1461
g521
(g522
(I0
tp1462
g524
tp1463
Rp1464
(I1
(I4
tp1465
g557
I00
S'\x80=\n\xd7\xa3p\xf5?P\xe1z\x14\xaeG\xd1?\x00\x00\x00\x00\x00\x00\x00\x00\xd6$\xfaNBm\n@'
p1466
tp1467
bsVsquare_packing_box3
p1468
g521
(g522
(I0
tp1469
g524
tp1470
Rp1471
(I1
(I4
tp1472
g557
I00
S'\t^}\xa8=W\xf3?\xfd\xd0\xf9\xad\xde\xe1\x17\xc0,7\x89A`\xe5\xd8?\xe9\x13H\x91\xbb\x8b\x16@'
p1473
tp1474
bsVsquare_packing_box2
p1475
g521
(g522
(I0
tp1476
g524
tp1477
Rp1478
(I1
(I4
tp1479
g557
I00
S'\xc3+\xc9\xaa\xe7\x1f\x03@\x9b\xb4\xd7XLc\x1f\xc0L7\x89A`\xe5\xd8?z\xa2\xd5\xfa\xde\xf1\x18@'
p1480
tp1481
bsVtable
p1482
g521
(g522
(I0
tp1483
g524
tp1484
Rp1485
(I1
(I4
tp1486
g557
I00
S'\x7f\xf6#EdX\xed?\xac\xffs\x98//\xc0\xbf\x00\x00\x00\x00\x00\x00\x00\x00\x00\x00\x00\x00\x00\x00\x00\x00'
p1487
tp1488
bsVsquare_packing_box1
p1489
g521
(g522
(I0
tp1490
g524
tp1491
Rp1492
(I1
(I4
tp1493
g557
I00
S'z\x11\xfe,A\xf1\x07@\x02\x92\xce\xc9\xca\x9a\x1b\xc0L7\x89A`\xe5\xd8?G14\r[8\x17@'
p1494
tp1495
bsVback_wall_2
p1496
g521
(g522
(I0
tp1497
g524
tp1498
Rp1499
(I1
(I4
tp1500
g557
I00
S'\xaeG\xe1z\x14.\x13@\x80\x14\xaeG\xe1z\xc4?xX\xa85\xcd\xbb\xf2?\x00\x00\x00\x00\x00\x00\x00\x00'
p1501
tp1502
bsVchair_083c
p1503
g521
(g522
(I0
tp1504
g524
tp1505
Rp1506
(I1
(I4
tp1507
g557
I00
S'\xa4p=\n\xd7\xa3\xe0?333333\xe3\xbf\x00\x00\x00\x00\x00\x00\x00\x00\x00\x00\x00\x00\x00\x00\x00\x00'
p1508
tp1509
bsVback_wall_1
p1510
g521
(g522
(I0
tp1511
g524
tp1512
Rp1513
(I1
(I4
tp1514
g557
I00
S'\xaeG\xe1z\x14.\x13@\x80\x14\xaeG\xe1z\xc4?\xcc\x7fH\xbf}\x1d\xed?\x00\x00\x00\x00\x00\x00\x00\x00'
p1515
tp1516
bsVbottom_wall
p1517
g521
(g522
(I0
tp1518
g524
tp1519
Rp1520
(I1
(I4
tp1521
g557
I00
S'\x00\x00\x00\x00\x00\x00\xfc?\x00\x00\x00\x00\x00\x00\x00\x00\x00\x00\x00\x00\x00\x00\x00\x00\x00\x00\x00\x00\x00\x00\x00\x00'
p1522
tp1523
bsVcup_905a
p1524
g521
(g522
(I0
tp1525
g524
tp1526
Rp1527
(I1
(I4
tp1528
g557
I00
S'\x00\x00\x00\x00\x00\x00\xf0?\x83\xc0\xca\xa1E\xb6\xdb?\x1b/\xdd$\x06\x81\xed?\x00\x00\x00\x00\x00\x00\x00\x00'
p1529
tp1530
bsVplate_496f
p1531
g521
(g522
(I0
tp1532
g524
tp1533
Rp1534
(I1
(I4
tp1535
g557
I00
S"q=\n\xd7\xa3p\xe5?\x9dhW!\xe5'\xdd\xbf\x1b/\xdd$\x06\x81\xed?\x00\x00\x00\x00\x00\x00\x00\x00"
p1536
tp1537
bsVtoaster
p1538
g521
(g522
(I0
tp1539
g524
tp1540
Rp1541
(I1
(I4
tp1542
g557
I00
S')\\\x8f\xc2\xf5(\xf4\xbf\xe0z\x14\xaeG\xe1\xf2\xbf\xb8\x1e\x85\xebQ\xb8\xee?\x89/`\x9b\xf8\x8a\xe4?'
p1543
tp1544
bsVc_obst1
p1545
g521
(g522
(I0
tp1546
g524
tp1547
Rp1548
(I1
(I4
tp1549
g557
I00
S"\x12\xea\xc3\xb5T\x1a\x12@\xd0\xb0s\x88\x9c:\xc9\xbfe\xaa`TR'\xed?\x9e\xec\xe19\xb2<\xf0?"
p1550
tp1551
bsVrectangular_packing_box4
p1552
g521
(g522
(I0
tp1553
g524
tp1554
Rp1555
(I1
(I4
tp1556
g557
I00
S'\x90g=|i\xa7\x0c@v0\x02\xb6T\xc3\x1d\xc0L7\x89A`\xe5\xd8?g\xf9\x1cJ\x05\xfe\xfa?'
p1557
tp1558
bsVmicrowave
p1559
g521
(g522
(I0
tp1560
g524
tp1561
Rp1562
(I1
(I4
tp1563
g557
I00
S'\x9a\x99\x99\x99\x99\x99\xf1\xbf\x00\x00\x00\x00\x00\x00\x00@7\x89A`\xe5\xd0\xee?\x00\x00\x00\x00\x00\x00\x00\x00'
p1564
tp1565
bsVc_obst7
p1566
g521
(g522
(I0
tp1567
g524
tp1568
Rp1569
(I1
(I4
tp1570
g557
I00
S"\xb3\t\xa8\xbb\x0f\xa0\x12@\x9c\x89\x9f*1*\xc5\xbfe\xaa`TR'\xed?\xa0\xe6\xdeZ~Q\x13@"
p1571
tp1572
bsVc_obst6
p1573
g521
(g522
(I0
tp1574
g524
tp1575
Rp1576
(I1
(I4
tp1577
g557
I00
S"z\x8aI\xf6>[\x12@\xc0(\x86\xf7\xfd\x13\xa5\xbfe\xaa`TR'\xed?r\xe4K\x19\x9c~\x01@"
p1578
tp1579
bsVcup_b6af
p1580
g521
(g522
(I0
tp1581
g524
tp1582
Rp1583
(I1
(I4
tp1584
g557
I00
S'R\xb8\x1e\x85\xebQ\xe8?\x9a\x99\x99\x99\x99\x99\xe1?\x1b/\xdd$\x06\x81\xed?\x00\x00\x00\x00\x00\x00\x00\x00'
p1585
tp1586
bsVc_obst4
p1587
g521
(g522
(I0
tp1588
g524
tp1589
Rp1590
(I1
(I4
tp1591
g557
I00
S"J\xb3v\xb4\x91I\x12@\xaa\xef\x1b\x1c\x84@\xc0?e\xaa`TR'\xed?r\tq\x98\xc4\x1e\n@"
p1592
tp1593
bsVrectangular_packing_box2
p1594
g521
(g522
(I0
tp1595
g524
tp1596
Rp1597
(I1
(I4
tp1598
g557
I00
S'\x91\x9c\x0b~8\xb4\xdd? Y\x0c+|m\x1c\xc0L7\x89A`\xe5\xd8?p\xb02\xee}\x0c\x17@'
p1599
tp1600
bsVplate_fa76
p1601
g521
(g522
(I0
tp1602
g524
tp1603
Rp1604
(I1
(I4
tp1605
g557
I00
S'=\n\xd7\xa3p=\xf2?\x00\x00\x00\x00\x00\x00\x00\x00\x1b/\xdd$\x06\x81\xed?\x00\x00\x00\x00\x00\x00\x00\x00'
p1606
tp1607
bsVfloorwalls
p1608
g521
(g522
(I0
tp1609
g524
tp1610
Rp1611
(I1
(I4
tp1612
g557
I00
S'\xc7\xcc\xcc\xcc\xcc\xcc\xfc?\x00\x00\x00\x00\x00\x00\x18\xc0H\xe1z\x14\xaeG\xc1?\x16-DT\xfb!\xf9?'
p1613
tp1614
bsVpin_c671
p1615
g521
(g522
(I0
tp1616
g524
tp1617
Rp1618
(I1
(I4
tp1619
g557
I00
S'\xc3\xf5(\\\x8f\xc2\xf1\xbf}?5^\xbaI\x02@\xb8\x1e\x85\xebQ\xb8\xfa?\x00\x00\x00\x00\x00\x00\x00\x00'
p1620
tp1621
bsVc_obst3
p1622
g521
(g522
(I0
tp1623
g524
tp1624
Rp1625
(I1
(I4
tp1626
g557
I00
S'{\xbd\xc2i\x90c\x12@\x08\xb5\\"\x15\xf5\xc6\xbfe\xaa`TR\'\xed?8}4\xe2\xf0o\x17@'
p1627
tp1628
bsVchair_2e39
p1629
g521
(g522
(I0
tp1630
g524
tp1631
Rp1632
(I1
(I4
tp1633
g557
I00
S'jfffff\xee?Yfffff\xf2\xbf\x00\x00\x00\x00\x00\x00\x00\x00\x07M\xe8QQF\xf3?'
p1634
tp1635
bsVentrance_left
p1636
g521
(g522
(I0
tp1637
g524
tp1638
Rp1639
(I1
(I4
tp1640
g557
I00
S'\x98\x99\x99\x99\x99\x99\xe9\xbfH\xe1z\x14\xaeG\t\xc0\x9c\xc4 \xb0rh\xc1?\x00\x00\x00\x00\x00\x00\x00\x00'
p1641
tp1642
bsVtop_wall_1
p1643
g521
(g522
(I0
tp1644
g524
tp1645
Rp1646
(I1
(I4
tp1647
g557
I00
S'H\xe1z\x14\xaeG\x12@\x80\x14\xaeG\xe1z\xc4?xX\xa85\xcd\xbb\xf2?\x00\x00\x00\x00\x00\x00\x00\x00'
p1648
tp1649
bsVrectangular_packing_box3
p1650
g521
(g522
(I0
tp1651
g524
tp1652
Rp1653
(I1
(I4
tp1654
g557
I00
S"\xd0'\x1e]\x82|\xf3?-\x0f~\xe1\xf44\x1f\xc0L7\x89A`\xe5\xd8?\xb8\xb4\xbe\x86\xb9\xa3\x02@"
p1655
tp1656
bsVshaker
p1657
g521
(g522
(I0
tp1658
g524
tp1659
Rp1660
(I1
(I4
tp1661
g557
I00
S'\n\xd7\xa3p=\n\x01@\x14\xaeG\xe1z\x14\x02@\\\x8f\xc2\xf5(\\\xef?\x00\x00\x00\x00\x00\x00\x00\x00'
p1662
tp1663
bsVc_obst9
p1664
g521
(g522
(I0
tp1665
g524
tp1666
Rp1667
(I1
(I4
tp1668
g557
I00
S"\xc4\xa7\x98\x0b\x97[\x12@\xf8:\x18\xd1\x80(\xdc?e\xaa`TR'\xed?]xU\xb2\xe83\xe4?"
p1669
tp1670
bsVplate_835a
p1671
g521
(g522
(I0
tp1672
g524
tp1673
Rp1674
(I1
(I4
tp1675
g557
I00
S'\xf6(\\\x8f\xc2\xf5\xf0?\\\x8f\xc2\xf5(\\\xe7\xbf\x1b/\xdd$\x06\x81\xed?\x00\x00\x00\x00\x00\x00\x00\x00'
p1676
tp1677
bsVcup_58a2
p1678
g521
(g522
(I0
tp1679
g524
tp1680
Rp1681
(I1
(I4
tp1682
g557
I00
S'\x85\xebQ\xb8\x1e\x85\xe3?\xcd\xcc\xcc\xcc\xcc\xcc\xdc?\x1b/\xdd$\x06\x81\xed?\x00\x00\x00\x00\x00\x00\x00\x00'
p1683
tp1684
bsVleft_wall_1
p1685
g521
(g522
(I0
tp1686
g524
tp1687
Rp1688
(I1
(I4
tp1689
g557
I00
S'H\xe1z\x14\xaeG\x12@S\xb8\x1e\x85\xebQ\xe4?\xcc\x7fH\xbf}\x1d\xed?\x00\x00\x00\x00\x00\x00\x00\x00'
p1690
tp1691
bsVc_obst2
p1692
g521
(g522
(I0
tp1693
g524
tp1694
Rp1695
(I1
(I4
tp1696
g557
I00
S"\x90\xdd\x06j\xe2`\x12@ \xad\xbb2${\xd7?e\xaa`TR'\xed?\xfd\xb4\xd3U8\x92\xfe?"
p1697
tp1698
bsVsquare_packing_box4
p1699
g521
(g522
(I0
tp1700
g524
tp1701
Rp1702
(I1
(I4
tp1703
g557
I00
S'$\xd5\xe4e\x80S\x04@\xa7[\x04\x8d^q\x1d\xc0L7\x89A`\xe5\xd8?\xb0y\x1d\x0c\x12\xf2\xd0?'
p1704
tp1705
bsVrectangular_packing_box1
p1706
g521
(g522
(I0
tp1707
g524
tp1708
Rp1709
(I1
(I4
tp1710
g557
I00
S'\xbbA\xddg?\xcb\t@|\xc0\xe9 W\xa6\x18\xc0L7\x89A`\xe5\xd8?\t}p\xc6yR\x01@'
p1711
tp1712
bsVpin_371e
p1713
g521
(g522
(I0
tp1714
g524
tp1715
Rp1716
(I1
(I4
tp1717
g557
I00
S'333333\xf3\xbfffffff\xf6?\xb8\x1e\x85\xebQ\xb8\xee?\x00\x00\x00\x00\x00\x00\x00\x00'
p1718
tp1719
bsVfridge
p1720
g521
(g522
(I0
tp1721
g524
tp1722
Rp1723
(I1
(I4
tp1724
g557
I00
S'\xd7\xa3p=\n\xd7\xeb\xbf\x00\x00\x00\x00\x00\x00\x00\xc0\xcd\xcc\xcc\xcc\xcc\xcc\xf8?\x00\x00\x00\x00\x00\x00\x00\x00'
p1725
tp1726
bsVcup_d441
p1727
g521
(g522
(I0
tp1728
g524
tp1729
Rp1730
(I1
(I4
tp1731
g557
I00
S'\n\xd7\xa3p=\n\xef?\x8f\xc2\xf5(\\\x8f\xe2?\x1b/\xdd$\x06\x81\xed?\x00\x00\x00\x00\x00\x00\x00\x00'
p1732
tp1733
bsVshelf2
p1734
g521
(g522
(I0
tp1735
g524
tp1736
Rp1737
(I1
(I4
tp1738
g557
I00
S'\x00\x00\x00\x00\x00\x00\x0e@\xaeG\xe1z\x14\xae\x07@\x9c\xc4 \xb0rh\xc1?\xd2!3\x7f|\xd9\x12@'
p1739
tp1740
bsVtop_wall_2
p1741
g521
(g522
(I0
tp1742
g524
tp1743
Rp1744
(I1
(I4
tp1745
g557
I00
S'H\xe1z\x14\xaeG\x12@\x80\x14\xaeG\xe1z\xc4?\x16HP\xfc\x18\xf3\xfd?\x00\x00\x00\x00\x00\x00\x00\x00'
p1746
tp1747
bsVc_obst0
p1748
g521
(g522
(I0
tp1749
g524
tp1750
Rp1751
(I1
(I4
tp1752
g557
I00
S"Di\xff;\x1a\xf8\x11@0\xdf\x1c-\x85Z\xd6?e\xaa`TR'\xed?M\xbbTL\x12\xd3\x0b@"
p1753
tp1754
bsVshelf1
p1755
g521
(g522
(I0
tp1756
g524
tp1757
Rp1758
(I1
(I4
tp1759
g557
I00
S'\x00\x00\x00\x00\x00\x00\x13@\xaeG\xe1z\x14\xae\x07@\x9c\xc4 \xb0rh\xc1?\xd2!3\x7f|\xd9\x12@'
p1760
tp1761
bsVsink
p1762
g521
(g522
(I0
tp1763
g524
tp1764
Rp1765
(I1
(I4
tp1766
g557
I00
S'ffffff\xd6?333333\x01@\x9a\x99\x99\x99\x99\x99\xb9\xbf\x00\x00\x00\x00\x00\x00\x00\x00'
p1767
tp1768
bsVpr2
p1769
g521
(g522
(I0
tp1770
g524
tp1771
Rp1772
(I1
(I4
tp1773
g557
I00
S'\xfc~P\xd6\xbf\xdc\xe1?\x12l\xe8\xb1\xc8\xa9\x16\xc0\x9a_\x94\xa0\xbf\xd0\xc1?\xcfu\x86kl@\x16@'
p1774
tp1775
bsVchair_12d0
p1776
g521
(g522
(I0
tp1777
g524
tp1778
Rp1779
(I1
(I4
tp1780
g557
I00
S'^\xd2\x18\xad\xa3\xaa\xdb?Pf\x83L2r\xc6?\x00\x00\x00\x00\x00\x00\x00\x00\xf8\x81\r\x14M\xa6\x17@'
p1781
tp1782
bsVright_wall_2
p1783
g521
(g522
(I0
tp1784
g524
tp1785
Rp1786
(I1
(I4
tp1787
g557
I00
S'H\xe1z\x14\xaeG\x12@&\\\x8f\xc2\xf5(\xd4\xbfxX\xa85\xcd\xbb\xf2?\x00\x00\x00\x00\x00\x00\x00\x00'
p1788
tp1789
bsVknife_block
p1790
g521
(g522
(I0
tp1791
g524
tp1792
Rp1793
(I1
(I4
tp1794
g557
I00
S'R\xb8\x1e\x85\xebQ\xe0\xbfffffff\x02@`\xe5\xd0"\xdb\xf9\xee?\x00\x00\x00\x00\x00\x00\x00\x00'
p1795
tp1796
bsVleft_wall_2
p1797
g521
(g522
(I0
tp1798
g524
tp1799
Rp1800
(I1
(I4
tp1801
g557
I00
S'H\xe1z\x14\xaeG\x12@S\xb8\x1e\x85\xebQ\xe4?xX\xa85\xcd\xbb\xf2?\x00\x00\x00\x00\x00\x00\x00\x00'
p1802
tp1803
bsVleft_wall
p1804
g521
(g522
(I0
tp1805
g524
tp1806
Rp1807
(I1
(I4
tp1808
g557
I00
S'\x9a\x99\x99\x99\x99\x99\x07@H\xe1z\x14\xaeG\xff?\x9c\xc4 \xb0rh\xc1?\x00\x00\x00\x00\x00\x00\x00\x00'
p1809
tp1810
bsVkitchen
p1811
g521
(g522
(I0
tp1812
g524
tp1813
Rp1814
(I1
(I4
tp1815
g557
I00
S'\x00\x00\x00\x00\x00\x00\x00\x00\x00\x00\x00\x00\x00\x00\x00\x00\x00\x00\x00\x00\x00\x00\x00\x00\x00\x00\x00\x00\x00\x00\x00\x00'
p1816
tp1817
bsVtable2
p1818
g521
(g522
(I0
tp1819
g524
tp1820
Rp1821
(I1
(I4
tp1822
g557
I00
S'\x00\x00\x00\x00\x00\x00\x13@\x80\x14\xaeG\xe1z\xc4?S\x96!\x8euq\xec?\xd2!3\x7f|\xd9\x12@'
p1823
tp1824
bsVc_obst8
p1825
g521
(g522
(I0
tp1826
g524
tp1827
Rp1828
(I1
(I4
tp1829
g557
I00
S"\xa2\xe9>Nc\xe7\x11@\xa4H2\xa8\x9d\x94\xd1?e\xaa`TR'\xed?\x1am\xa7\n\xb6\xcd\x11@"
p1830
tp1831
bsVplate_b4e7
p1832
g521
(g522
(I0
tp1833
g524
tp1834
Rp1835
(I1
(I4
tp1836
g557
I00
S'\x14\xaeG\xe1z\x14\xf2\xbf\x14\xaeG\xe1z\x14\x00@=\n\xd7\xa3p=\xf2?\x00\x00\x00\x00\x00\x00\x00\x00'
p1837
tp1838
bsVcooker
p1839
g521
(g522
(I0
tp1840
g524
tp1841
Rp1842
(I1
(I4
tp1843
g557
I00
S'\xaeG\xe1z\x14\xae\xff?\x85\xebQ\xb8\x1e\x85\xfb?\x00\x00\x00\x00\x00\x00\xe8?\x00\x00\x00\x00\x00\x00\x00\x00'
p1844
tp1845
bsVpin_a091
p1846
g521
(g522
(I0
tp1847
g524
tp1848
Rp1849
(I1
(I4
tp1850
g557
I00
S'\xdb\xf9~j\xbct\xf7\xbf)\\\x8f\xc2\xf5(\x02@\xb8\x1e\x85\xebQ\xb8\xfa?\x00\x00\x00\x00\x00\x00\x00\x00'
p1851
tp1852
bsVside_wall_2
p1853
g521
(g522
(I0
tp1854
g524
tp1855
Rp1856
(I1
(I4
tp1857
g557
I00
S'\xf1\xff\xff\xff\xff\xff\x14@\xe0\xff\xff\xff\xff\x7f\xef<\x9c\xc4 \xb0rh\xc1?\x1c-DT\xfb!\xf9?'
p1858
tp1859
bsVside_wall_3
p1860
g521
(g522
(I0
tp1861
g524
tp1862
Rp1863
(I1
(I4
tp1864
g557
I00
S'\x00\x00\x00\x00\x00\x00\xfc?H\xe1z\x14\xaeG\t@\x9c\xc4 \xb0rh\xc1?\x00\x00\x00\x00\x00\x00\x00\x00'
p1865
tp1866
bsVmixer
p1867
g521
(g522
(I0
tp1868
g524
tp1869
Rp1870
(I1
(I4
tp1871
g557
I00
S'\n\xd7\xa3p=\n\xfb?ffffff\x02@d;\xdfO\x8d\x97\xee?\x00\x00\x00\x00\x00\x00\x00\x00'
p1872
tp1873
bsVside_wall_1
p1874
g521
(g522
(I0
tp1875
g524
tp1876
Rp1877
(I1
(I4
tp1878
g557
I00
S'\xe2\xff\xff\xff\xff\xff\xfb\xbf\xe8\xff\xff\xff\xff\xff\xd4\xbc\x9c\xc4 \xb0rh\xc1?\x1c-DT\xfb!\xf9?'
p1879
tp1880
bsVbottom_wall_1
p1881
g521
(g522
(I0
tp1882
g524
tp1883
Rp1884
(I1
(I4
tp1885
g557
I00
S'H\xe1z\x14\xaeG\x12@\x80\x14\xaeG\xe1z\xc4?\xcc\x7fH\xbf}\x1d\xed?\x00\x00\x00\x00\x00\x00\x00\x00'
p1886
tp1887
bsVcan
p1888
g521
(g522
(I0
tp1889
g524
tp1890
Rp1891
(I1
(I4
tp1892
g557
I00
S'\x00\x00\x00\x00\x00\x00\xf4\xbfH\xe1z\x14\xaeG\xe1\xbf\n\xd7\xa3p=\n\xef?\x00\x00\x00\x00\x00\x00\x00\x00'
p1893
tp1894
bsVright_wall
p1895
g521
(g522
(I0
tp1896
g524
tp1897
Rp1898
(I1
(I4
tp1899
g557
I00
S'\x9a\x99\x99\x99\x99\x99\x07@H\xe1z\x14\xaeG\xff\xbf\x9c\xc4 \xb0rh\xc1?\x00\x00\x00\x00\x00\x00\x00\x00'
p1900
tp1901
bsVcoffe_machine
p1902
g521
(g522
(I0
tp1903
g524
tp1904
Rp1905
(I1
(I4
tp1906
g557
I00
S'\\\x8f\xc2\xf5(\\\xf5\xbf\xb8\x1e\x85\xebQ\xb8\xee?\n\xd7\xa3p=\n\xef?\x00\x00\x00\x00\x00\x00\x00\x00'
p1907
tp1908
bsVcomputer_chair
p1909
g521
(g522
(I0
tp1910
g524
tp1911
Rp1912
(I1
(I4
tp1913
g557
I00
S'\xcd\xcc\xcc\xcc\xcc\xcc\x10@\x00\x00\x00\x00\x00\x00\xf8\xbf\xa00\xb6\x10\xe4\xa9\x95\xbf\x00\x00\x00\x00\x00\x00\x00\x00'
p1914
tp1915
bssS'robot_dof_values'
p1916
g521
(g522
(I0
tp1917
g524
tp1918
Rp1919
(I1
(I39
tp1920
g557
I00
S'\x00\x00\x00\x00\x00\x00\x00\x00\x00\x00\x00\x00\x00\x00\x00\x00\x00\x00\x00\x00\x00\x00\x00\x00\x00\x00\x00\x00\x00\x00\x00\x00\x00\x00\x00\x00\x00\x00\x00\x00\x00\x00\x00\x00\x00\x00\x00\x00\x00\x00\x00\x00\x00\x00\x00\x00\x00\x00\x00\x00\x00\x00\x00\x00\x00\x00\x00\x00\x00\x00\x00\x00\x00\x00\x00\x00\x00\x00\x00\x00\x00\x00\x00\x00\x00\x00\x00\x00\x00\x00\x00\x00\x00\x00\x00\x00\xe0\x89\xe6\xb61}\x98?\x00\x00\x00\x00\x00\x00\x00\x00\x00\x00\x00\x00\x00\x00\x00\x00\x00\x00\x00\x00\x00\x00\x00\x00\xeb\xed\t\xf1\xcc\xa4\xf4?\x00\x00\x00\x00\x00\x00\xc0<N"\xd0^p\xf8\x00\xc0\x00\x00\x00\x00\x00\x00\x00\x00\xa4\x03\r.\x04V\xe6\xbf\x00\x00\x00\x00\x00\x00\x00\x00\x00\x00\x00\x00\x00\x00\x00\x00\x00\x00\x00\x00\x00\x0e9\xbdrqx\x16\xb3p\xe0\xbc\x00\x00\x00\x00\x00\x00\xf8\xbc\x00\x00\x00\x00\x00\x00\x00\x00\x00\x00\x00\x00\x00\x00\x00\x00\xea\xed\t\xf1\xcc\xa4\xf4?\x00\x00\x00\x00\x00\x00\xb0\xbcN"\xd0^p\xf8\x00\xc0\x00\x00\x00\x00\x00\x00\x00\x00\xa1\x03\r.\x04V\xe6\xbf\x00\x00\x00\x00\x00\x00\x00\x00\xd79\xe3\xc17\x89\xe1?\x00\x00\x00\x00\x00\xdc-\xbdx\xac\x12\x1c\xc7\x03\x01\xbd\x00\x00\x00\x00\x00\x00\x06\xbd\x00\x00\x00\x00\x00\x00\x00\x00'
p1921
tp1922
bsS'is_holding'
p1923
I00
sbsS'holding_collides'
p1924
(dp1925
(Vrectangular_packing_box2
p1926
(g1322
(g557
S'Nb\x10X9\xb4\xdd?'
p1927
tp1928
Rp1929
g1322
(g557
S'\xbbH\xa1,|m\x1c\xc0'
p1930
tp1931
Rp1932
g1322
(g557
S'\xf5,\x08\xe5}\x0c\x17@'
p1933
tp1934
Rp1935
tp1936
tp1937
g918
s(Vsquare_packing_box4
p1938
(g1322
(g557
S'w\xbd4E\x80S\x04@'
p1939
tp1940
Rp1941
g1322
(g557
S'Y\x19\x8d|^q\x1d\xc0'
p1942
tp1943
Rp1944
g1322
(g557
S'\xfc\x18s\xd7\x12\xf2\xd0?'
p1945
tp1946
Rp1947
tp1948
tp1949
g942
s(Vsquare_packing_box1
p1950
(g1322
(g557
S'\x1a\xc0[ A\xf1\x07@'
p1951
tp1952
Rp1953
g1322
(g557
S'\x86TQ\xbc\xca\x9a\x1b\xc0'
p1954
tp1955
Rp1956
g1322
(g557
S'\x9c\x8aT\x18[8\x17@'
p1957
tp1958
Rp1959
tp1960
tp1961
g938
s(Vrectangular_packing_box1
p1962
(g1322
(g557
S'\xf7\x1d\xc3c?\xcb\t@'
p1963
tp1964
Rp1965
g1322
(g557
S'\xc2\xfc\x152W\xa6\x18\xc0'
p1966
tp1967
Rp1968
g1322
(g557
S'W\xd1\x1f\x9ayR\x01@'
p1969
tp1970
Rp1971
tp1972
tp1973
g926
s(Vrectangular_packing_box3
p1974
(g1322
(g557
S'(\xd2\xfd\x9c\x82|\xf3?'
p1975
tp1976
Rp1977
g1322
(g557
S'\xbe\xd9\xe6\xc6\xf44\x1f\xc0'
p1978
tp1979
Rp1980
g1322
(g557
S'e\x17\x0c\xae\xb9\xa3\x02@'
p1981
tp1982
Rp1983
tp1984
tp1985
g922
s(Vrectangular_packing_box4
p1986
(g1322
(g557
S"_'\xf5ei\xa7\x0c@"
p1987
tp1988
Rp1989
g1322
(g557
S'\x9ft"\xc1T\xc3\x1d\xc0'
p1990
tp1991
Rp1992
g1322
(g557
S'\x8c\xbc\xac\x89\x05\xfe\xfa?'
p1993
tp1994
Rp1995
tp1996
tp1997
g914
s(Vsquare_packing_box2
p1998
(g1322
(g557
S'\xfa\x08\xfc\xe1\xe7\x1f\x03@'
p1999
tp2000
Rp2001
g1322
(g557
S'D\xa4\xa6]Lc\x1f\xc0'
p2002
tp2003
Rp2004
g1322
(g557
S'\xc9\xff\xe4\xef\xde\xf1\x18@'
p2005
tp2006
Rp2007
tp2008
tp2009
g930
s(Vsquare_packing_box3
p2010
(g1322
(g557
S'\x04\x00\xc7\x9e=W\xf3?'
p2011
tp2012
Rp2013
g1322
(g557
S'G!\xc9\xac\xde\xe1\x17\xc0'
p2014
tp2015
Rp2016
g1322
(g557
S';\x1c]\xa5\xbb\x8b\x16@'
p2017
tp2018
Rp2019
tp2020
tp2021
g934
ssS'parent_ternary_predicates'
p2022
(dp2023
(Vrectangular_packing_box2
p2024
g2024
S'home_region'
p2025
tp2026
g13
s(Vsquare_packing_box1
p2027
S'loading_region'
p2028
g2028
tp2029
g17
s(S'entire_region'
p2030
Vrectangular_packing_box1
p2031
g2025
tp2032
g21
s(Vsquare_packing_box2
p2033
Vsquare_packing_box4
p2034
g2028
tp2035
g25
s(g2025
g2025
g2025
tp2036
g27
s(g2034
g2024
g2028
tp2037
g29
s(g2027
Vrectangular_packing_box3
p2038
g2025
tp2039
g32
s(g2025
Vrectangular_packing_box4
p2040
g2025
tp2041
g35
s(g2033
g2027
g2025
tp2042
g37
s(g2038
g2040
g2028
tp2043
g39
s(g2025
g2034
g2028
tp2044
g41
s(g2033
g2030
g2025
tp2045
g43
s(g2028
g2025
g2028
tp2046
g45
s(g2034
g2030
g2025
tp2047
g50
s(g2033
g2031
g2028
tp2048
g52
s(g2025
g2038
g2028
tp2049
g184
s(g2030
g2024
g2028
tp2050
g56
s(g2024
g2028
g2025
tp2051
g60
s(g2027
g2027
g2028
tp2052
g64
s(g2028
g2034
g2028
tp2053
g66
s(g2030
g2033
g2025
tp2054
g70
s(g2028
g2028
g2025
tp2055
g72
s(g2025
g2025
g2028
tp2056
g76
s(g2031
g2033
g2028
tp2057
g78
s(g2024
g2034
g2025
tp2058
g80
s(g2031
g2025
g2028
tp2059
g84
s(g2025
g2024
g2028
tp2060
g86
s(g2031
g2038
g2028
tp2061
g88
s(g2038
g2031
g2025
tp2062
g90
s(g2028
g2027
g2028
tp2063
g92
s(g2034
g2033
g2028
tp2064
g94
s(g2024
g2024
g2028
tp2065
g96
s(g2030
g2034
g2025
tp2066
g98
s(g2028
g2025
g2025
tp2067
g100
s(g2040
g2024
g2025
tp2068
g102
s(g2033
g2031
g2025
tp2069
g106
s(g2027
g2038
g2028
tp2070
g110
s(g2033
g2027
g2028
tp2071
g114
s(g2033
g2024
g2028
tp2072
g116
s(g2030
g2033
g2028
tp2073
g118
s(g2028
g2038
g2028
tp2074
g120
s(g2030
g2025
g2025
tp2075
g122
s(g2028
g2030
g2025
tp2076
g126
s(g2024
g2034
g2028
tp2077
g128
s(g2034
g2031
g2028
tp2078
g148
s(g2031
g2038
g2025
tp2079
g134
s(g2030
g2024
g2025
tp2080
g136
s(g2031
g2028
g2028
tp2081
g138
s(g2034
g2027
g2025
tp2082
g140
s(g2027
g2027
g2025
tp2083
g142
s(g2027
g2040
g2025
tp2084
g144
s(g2040
g2024
g2028
tp2085
g146
s(g2038
g2033
g2028
tp2086
g456
s(g2031
g2033
g2025
tp2087
g152
s(g2024
g2031
g2028
tp2088
g154
s(g2031
g2025
g2025
tp2089
g156
s(g2033
g2024
g2025
tp2090
g158
s(g2025
g2033
g2025
tp2091
g294
s(g2038
g2031
g2028
tp2092
g162
s(g2030
g2025
g2028
tp2093
g166
s(g2030
g2034
g2028
tp2094
g168
s(g2028
g2031
g2025
tp2095
g370
s(g2024
g2030
g2028
tp2096
g174
s(g2031
g2028
g2025
tp2097
g176
s(g2028
g2040
g2025
tp2098
g280
s(g2034
g2027
g2028
tp2099
g182
s(g2028
g2038
g2025
tp2100
g188
s(g2028
g2033
g2028
tp2101
g190
s(g2024
g2031
g2025
tp2102
g192
s(g2034
g2031
g2025
tp2103
g194
s(g2025
g2033
g2028
tp2104
g164
s(g2024
g2040
g2028
tp2105
g200
s(g2027
g2040
g2028
tp2106
g204
s(g2030
g2028
g2028
tp2107
g396
s(g2025
g2027
g2028
tp2108
g208
s(g2038
g2028
g2028
tp2109
g210
s(g2027
g2031
g2025
tp2110
g214
s(g2024
g2030
g2025
tp2111
g216
s(g2040
g2033
g2028
tp2112
g218
s(g2038
g2024
g2028
tp2113
g220
s(g2034
g2028
g2028
tp2114
g224
s(g2033
g2025
g2025
tp2115
g226
s(g2025
g2038
g2025
tp2116
g104
s(g2028
g2031
g2028
tp2117
g232
s(g2025
g2030
g2028
tp2118
g332
s(g2030
g2028
g2025
tp2119
g68
s(g2027
g2031
g2028
tp2120
g240
s(g2034
g2040
g2025
tp2121
g228
s(g2024
g2033
g2025
tp2122
g244
s(g2038
g2025
g2028
tp2123
g246
s(g2034
g2028
g2025
tp2124
g248
s(g2028
g2040
g2028
tp2125
g250
s(g2024
g2040
g2025
tp2126
g252
s(g2038
g2038
g2025
tp2127
g254
s(g2040
g2040
g2025
tp2128
g256
s(g2040
g2038
g2028
tp2129
g258
s(g2038
g2028
g2025
tp2130
g260
s(g2034
g2025
g2025
tp2131
g406
s(g2040
g2033
g2025
tp2132
g264
s(g2033
g2028
g2028
tp2133
g266
s(g2038
g2030
g2028
tp2134
g268
s(g2033
g2025
g2028
tp2135
g270
s(g2027
g2033
g2028
tp2136
g272
s(g2034
g2040
g2028
tp2137
g274
s(g2034
g2034
g2028
tp2138
g320
s(g2038
g2025
g2025
tp2139
g278
s(g2031
g2031
g2025
tp2140
g282
s(g2027
g2024
g2025
tp2141
g288
s(g2025
g2030
g2025
tp2142
g58
s(g2040
g2027
g2028
tp2143
g292
s(g2030
g2038
g2028
tp2144
g296
s(g2038
g2027
g2025
tp2145
g298
s(g2031
g2030
g2025
tp2146
g300
s(g2034
g2025
g2028
tp2147
g430
s(g2028
g2034
g2025
tp2148
g284
s(g2024
g2033
g2028
tp2149
g308
s(g2040
g2028
g2025
tp2150
g310
s(g2038
g2030
g2025
tp2151
g312
s(g2034
g2038
g2028
tp2152
g314
s(g2024
g2027
g2025
tp2153
g316
s(g2040
g2040
g2028
tp2154
g322
s(g2031
g2031
g2028
tp2155
g324
s(g2027
g2034
g2028
tp2156
g326
s(g2034
g2033
g2025
tp2157
g328
s(g2030
g2027
g2025
tp2158
g330
s(g2025
g2031
g2028
tp2159
g334
s(g2033
g2028
g2025
tp2160
g336
s(g2027
g2024
g2028
tp2161
g338
s(g2031
g2027
g2028
tp2162
g340
s(g2038
g2038
g2028
tp2163
g342
s(g2030
g2038
g2025
tp2164
g344
s(g2033
g2038
g2028
tp2165
g346
s(g2031
g2030
g2028
tp2166
g348
s(g2027
g2033
g2025
tp2167
g350
s(g2040
g2031
g2028
tp2168
g352
s(g2040
g2038
g2025
tp2169
g354
s(g2034
g2038
g2025
tp2170
g356
s(g2027
g2025
g2028
tp2171
g358
s(g2038
g2034
g2025
tp2172
g108
s(g2040
g2030
g2025
tp2173
g364
s(g2028
g2030
g2028
tp2174
g366
s(g2034
g2034
g2025
tp2175
g478
s(g2030
g2030
g2028
tp2176
g372
s(g2040
g2027
g2025
tp2177
g374
s(g2027
g2034
g2025
tp2178
g376
s(g2028
g2024
g2028
tp2179
g378
s(g2038
g2027
g2028
tp2180
g380
s(g2040
g2025
g2028
tp2181
g212
s(g2030
g2027
g2028
tp2182
g384
s(g2038
g2033
g2025
tp2183
g388
s(g2040
g2028
g2028
tp2184
g390
s(g2024
g2027
g2028
tp2185
g392
s(g2031
g2024
g2025
tp2186
g394
s(g2028
g2024
g2025
tp2187
g398
s(g2027
g2030
g2025
tp2188
g400
s(g2038
g2034
g2028
tp2189
g202
s(g2033
g2040
g2028
tp2190
g404
s(g2038
g2024
g2025
tp2191
g242
s(g2040
g2030
g2028
tp2192
g408
s(g2040
g2034
g2025
tp2193
g410
s(g2030
g2040
g2028
tp2194
g412
s(g2025
g2031
g2025
tp2195
g414
s(g2031
g2027
g2025
tp2196
g418
s(g2031
g2040
g2025
tp2197
g420
s(g2033
g2038
g2025
tp2198
g424
s(g2033
g2033
g2028
tp2199
g426
s(g2031
g2034
g2028
tp2200
g428
s(g2024
g2025
g2025
tp2201
g432
s(g2027
g2025
g2025
tp2202
g434
s(g2031
g2024
g2028
tp2203
g436
s(g2034
g2024
g2025
tp2204
g438
s(g2025
g2028
g2025
tp2205
g440
s(g2030
g2030
g2025
tp2206
g442
s(g2024
g2038
g2028
tp2207
g444
s(g2027
g2030
g2028
tp2208
g446
s(g2028
g2033
g2025
tp2209
g448
s(g2040
g2025
g2025
tp2210
g124
s(g2030
g2040
g2025
tp2211
g452
s(g2027
g2028
g2025
tp2212
g454
s(g2040
g2031
g2025
tp2213
g306
s(g2025
g2027
g2025
tp2214
g458
s(g2030
g2031
g2028
tp2215
g460
s(g2034
g2030
g2028
tp2216
g462
s(g2038
g2040
g2025
tp2217
g450
s(g2033
g2033
g2025
tp2218
g464
s(g2031
g2034
g2025
tp2219
g466
s(g2033
g2040
g2025
tp2220
g470
s(g2025
g2034
g2025
tp2221
g472
s(g2040
g2034
g2028
tp2222
g476
s(g2031
g2040
g2028
tp2223
g480
s(g2033
g2034
g2025
tp2224
g482
s(g2025
g2024
g2025
tp2225
g486
s(g2024
g2028
g2028
tp2226
g488
s(g2025
g2040
g2028
tp2227
g490
s(g2024
g2025
g2028
tp2228
g492
s(g2028
g2028
g2028
tp2229
g494
s(g2033
g2030
g2028
tp2230
g496
s(g2025
g2028
g2028
tp2231
g500
s(g2024
g2038
g2025
tp2232
g502
s(g2028
g2027
g2025
tp2233
g504
ssS'cached_place_paths'
p2234
(dp2235
(g673
g15
tp2236
(lp2237
g521
(g522
(I0
tp2238
g524
tp2239
Rp2240
(I1
(I3
tp2241
g557
I00
S'\xe8[\xe1\xa4\xcf\x08\xe6?\x87`\x1a\xe3\xb1\xdc\x1e\xc0\xe4\x92g\x8f\xd4%\x05@'
p2242
tp2243
bas(g853
g11
tp2244
(lp2245
g521
(g522
(I0
tp2246
g524
tp2247
Rp2248
(I1
(I3
tp2249
g557
I00
S'\x80?\x86\xcei\xc9\xa4?\xd2\xc4+\x19#\xbe\x19\xc0\xd4H\xa9m2H\x10@'
p2250
tp2251
bag521
(g522
(I0
tp2252
g524
tp2253
Rp2254
(I1
(I3
tp2255
g568
I00
S'\xd0\x185\xfd);\xc3?\x1c\xdfM\xe9\x03\xf1\x16\xc0y\xe4\x94w\xb3\xb2\x08\xc0'
p2256
tp2257
bag521
(g522
(I0
tp2258
g524
tp2259
Rp2260
(I1
(I3
tp2261
g568
I00
S'K\x19\xdd\x9a\xe6\xce\xe9?\xe1\x08\xb9\xe6+\xc9\x15\xc0\xeeN\x0e\xdd1/\x08\xc0'
p2262
tp2263
bag521
(g522
(I0
tp2264
g524
tp2265
Rp2266
(I1
(I3
tp2267
g568
I00
S'\x16nfXE \xf2?\x06\xf1|#c\xe6\x12\xc08\x98\x8f,\xc1@\x04\xc0'
p2268
tp2269
bag521
(g522
(I0
tp2270
g524
tp2271
Rp2272
(I1
(I3
tp2273
g568
I00
S'\xc1E\xbb\x1b\xed\x13\xf3?\xca\xdcw\xec\x1a\x18\x10\xc0j\xed\xec2j\x8c\x04\xc0'
p2274
tp2275
bag521
(g522
(I0
tp2276
g524
tp2277
Rp2278
(I1
(I3
tp2279
g568
I00
S'\xf09\xb6\x1c*\x86\xee?\xc4\n/\x96\xcb\xe3\n\xc0\xa0\xc9\xd6F6\x0f\x00\xc0'
p2280
tp2281
bag521
(g522
(I0
tp2282
g524
tp2283
Rp2284
(I1
(I3
tp2285
g568
I00
S'\xf4\xfdJ\x1a(#\xec?H"\x9cD\x1aE\x05\xc0.\xa9\x0b\x87\xf8\xe1\x02@'
p2286
tp2287
bas(g507
g11
tp2288
g1021
s(g761
g15
tp2289
(lp2290
g521
(g522
(I0
tp2291
g524
tp2292
Rp2293
(I1
(I3
tp2294
g557
I00
S'\xdaCD\x88\x08I\xea?\x18h\x1eI\\@\x1a\xc0$X\x9d\xa7R\x02\xeb?'
p2295
tp2296
bas(g507
g15
tp2297
(lp2298
g521
(g522
(I0
tp2299
g524
tp2300
Rp2301
(I1
(I3
tp2302
g557
I00
S"\x1fTr\x8bW\xcd\x07@O\x94\x1eG\xa9L\x16\xc0\x03\x98\t'\x82\x1a\x12@"
p2303
tp2304
bas(g761
g11
tp2305
(lp2306
g521
(g522
(I0
tp2307
g524
tp2308
Rp2309
(I1
(I3
tp2310
g557
I00
S'\xc8CD\x88\x08I\xea?\x17h\x1eI\\@\x1a\xc0 X\x9d\xa7R\x02\xeb?'
p2311
tp2312
bag521
(g522
(I0
tp2313
g524
tp2314
Rp2315
(I1
(I3
tp2316
g568
I00
S'T]\x0c\x0e\xd89\xda?\xf4\x992\x11%\\\x18\xc0\x95\x7f\x10B\xb1)\xe3?'
p2317
tp2318
bag521
(g522
(I0
tp2319
g524
tp2320
Rp2321
(I1
(I3
tp2322
g568
I00
S'\xd8\x87\x03p)T\xe4?\xd5\xabI\xb7V\xd0\x15\xc0vWg\x9a\x87\x8a\xec?'
p2323
tp2324
bag521
(g522
(I0
tp2325
g524
tp2326
Rp2327
(I1
(I3
tp2328
g568
I00
S'\xa9\xd9\x1d\x8d\xa6j\xdf?\xa0\x85\x1a\x84\xc6\xec\x12\xc0\x01\xb6 H\xb1\x91\xeb?'
p2329
tp2330
bag521
(g522
(I0
tp2331
g524
tp2332
Rp2333
(I1
(I3
tp2334
g568
I00
S'\x93k\xbc\xee\xc2\x10\xe8?\xab^\x86?\x08D\x10\xc0\x10;2\x00\xe5\t\xde?'
p2335
tp2336
bag521
(g522
(I0
tp2337
g524
tp2338
Rp2339
(I1
(I3
tp2340
g568
I00
S'\xef\xc3u*\xfb\xdb\xeb?\x8d\xa5\n\xfd\x03<\n\xc0\xd8\xfb\xde\x16R\xac\xde?'
p2341
tp2342
bag521
(g522
(I0
tp2343
g524
tp2344
Rp2345
(I1
(I3
tp2346
g568
I00
S'\xf4\xfdJ\x1a(#\xec?H"\x9cD\x1aE\x05\xc0.\xa9\x0b\x87\xf8\xe1\x02@'
p2347
tp2348
bas(g717
g15
tp2349
(lp2350
g521
(g522
(I0
tp2351
g524
tp2352
Rp2353
(I1
(I3
tp2354
g557
I00
S'\xf4\x8e\xd2\x9f\x15I\xda? \xb2\xd5q<N\x18\xc0X\xff\xd5R\xb2\x0f\x03@'
p2355
tp2356
bas(g717
g11
tp2357
(lp2358
g521
(g522
(I0
tp2359
g524
tp2360
Rp2361
(I1
(I3
tp2362
g557
I00
S'\xc9\x8e\xd2\x9f\x15I\xda?!\xb2\xd5q<N\x18\xc0X\xff\xd5R\xb2\x0f\x03@'
p2363
tp2364
bag521
(g522
(I0
tp2365
g524
tp2366
Rp2367
(I1
(I3
tp2368
g568
I00
S"\xce2\xed\xc4U\xc2\xb5?\x81'\xaf\x93\x05R\x16\xc0Z\x15T->\xe4\x08@"
p2369
tp2370
bag521
(g522
(I0
tp2371
g524
tp2372
Rp2373
(I1
(I3
tp2374
g568
I00
S'\xa5P\xd1\x87\x88:\xe5?\xd8\xf1\xd1l\xc6\x00\x15\xc0{\xeaM\xb0\xfa\x02\x0e@'
p2375
tp2376
bag521
(g522
(I0
tp2377
g524
tp2378
Rp2379
(I1
(I3
tp2380
g568
I00
S'\xc6\x05\xbdtg\xd9\xe2?F\xdf\x9d@\\\xf3\x11\xc0\x1a\xc4.\xbb\xcc\x12\x02@'
p2381
tp2382
bag521
(g522
(I0
tp2383
g524
tp2384
Rp2385
(I1
(I3
tp2386
g568
I00
S'3z\xed\x8eN)\xe4?\x0c\x96\xd4\xa2\x0e\xd0\r\xc0\xbd%\xf5{\xe9\xf9\x03@'
p2387
tp2388
bag521
(g522
(I0
tp2389
g524
tp2390
Rp2391
(I1
(I3
tp2392
g568
I00
S'\xaf0\xe9h\xba~\xee?k\xbb\xd8\xd4\xd0g\t\xc09\x9ey\xed\xb06\x06@'
p2393
tp2394
bag521
(g522
(I0
tp2395
g524
tp2396
Rp2397
(I1
(I3
tp2398
g568
I00
S'\xf4\xfdJ\x1a(#\xec?H"\x9cD\x1aE\x05\xc0.\xa9\x0b\x87\xf8\xe1\x02@'
p2399
tp2400
bas(g797
g11
tp2401
g1077
s(g641
g11
tp2402
g1139
s(g641
g15
tp2403
(lp2404
g521
(g522
(I0
tp2405
g524
tp2406
Rp2407
(I1
(I3
tp2408
g557
I00
S'\xe1\x81s2xD\xd0?h\x03\xed\x02\x06q\x1c\xc0\xae\xb0\xf8\xe0\x14\x92\xeb?'
p2409
tp2410
bas(g853
g15
tp2411
(lp2412
g521
(g522
(I0
tp2413
g524
tp2414
Rp2415
(I1
(I3
tp2416
g557
I00
S'@A\x86\xcei\xc9\xa4?\xd6\xc4+\x19#\xbe\x19\xc0\xd4H\xa9m2H\x10@'
p2417
tp2418
bas(g797
g15
tp2419
(lp2420
g521
(g522
(I0
tp2421
g524
tp2422
Rp2423
(I1
(I3
tp2424
g557
I00
S'8I^\xea2k\x08@\xd6\xf0<\x8c\x08R\x16\xc0`\x8c*\xd6\x89\x1e\x8a?'
p2425
tp2426
bas(g597
g15
tp2427
(lp2428
g521
(g522
(I0
tp2429
g524
tp2430
Rp2431
(I1
(I3
tp2432
g557
I00
S'\xcf\x9e\x88\x0e\xab1\xd6?\xcf\xc5\xc4\xc3\xe0;\x17\xc0\xa3\xbc\x016\xe1Z\xd2?'
p2433
tp2434
bas(g597
g11
tp2435
(lp2436
g521
(g522
(I0
tp2437
g524
tp2438
Rp2439
(I1
(I3
tp2440
g557
I00
S'\xe0\x9e\x88\x0e\xab1\xd6?\xd0\xc5\xc4\xc3\xe0;\x17\xc0\xa5\xbc\x016\xe1Z\xd2?'
p2441
tp2442
bag521
(g522
(I0
tp2443
g524
tp2444
Rp2445
(I1
(I3
tp2446
g568
I00
S'\x90\xfeW\xea\xb8\x0e\xe6?\x9aG\xe1\xa1\xf0\x14\x15\xc0\x94\xb4\xe8\xd7\x90\xa7\x18@'
p2447
tp2448
bag521
(g522
(I0
tp2449
g524
tp2450
Rp2451
(I1
(I3
tp2452
g568
I00
S'\xc6\x05\xbdtg\xd9\xe2?F\xdf\x9d@\\\xf3\x11\xc0\x1a\xc4.\xbb\xcc\x12\x02@'
p2453
tp2454
bag521
(g522
(I0
tp2455
g524
tp2456
Rp2457
(I1
(I3
tp2458
g568
I00
S'3z\xed\x8eN)\xe4?\x0c\x96\xd4\xa2\x0e\xd0\r\xc0\xbd%\xf5{\xe9\xf9\x03@'
p2459
tp2460
bag521
(g522
(I0
tp2461
g524
tp2462
Rp2463
(I1
(I3
tp2464
g568
I00
S'\xaf0\xe9h\xba~\xee?k\xbb\xd8\xd4\xd0g\t\xc09\x9ey\xed\xb06\x06@'
p2465
tp2466
bag521
(g522
(I0
tp2467
g524
tp2468
Rp2469
(I1
(I3
tp2470
g568
I00
S'\xf4\xfdJ\x1a(#\xec?H"\x9cD\x1aE\x05\xc0.\xa9\x0b\x87\xf8\xe1\x02@'
p2471
tp2472
bas(g673
g11
tp2473
g1189
ssS'parent_binary_predicates'
p2474
(dp2475
(g2033
g2034
tp2476
(lp2477
I00
aI00
aI00
as(g2038
g2038
tp2478
(lp2479
I00
aI00
aI00
as(g2033
g2040
tp2480
(lp2481
I00
aI00
aI00
as(g2025
g2033
tp2482
(lp2483
I00
aI00
aI00
as(g2025
g2024
tp2484
(lp2485
I00
aI00
aI00
as(g2034
g2024
tp2486
(lp2487
I00
aI00
aI00
as(g2033
g2027
tp2488
(lp2489
I00
aI00
aI00
as(g2031
g2038
tp2490
(lp2491
I00
aI00
aI00
as(g2040
g2040
tp2492
(lp2493
I00
aI00
aI00
as(g2024
g2028
tp2494
(lp2495
g1322
(g528
(S'b1'
p2496
I0
I1
tp2497
Rp2498
(I3
S'|'
p2499
NNNI-1
I-1
I0
tp2500
bS'\x01'
p2501
tp2502
Rp2503
aI00
aI01
as(g2040
g2034
tp2504
(lp2505
I00
aI00
aI00
as(g2028
g2034
tp2506
(lp2507
I00
aI00
aI00
as(g2027
g2025
tp2508
(lp2509
I00
aI00
aI00
as(g2028
g2040
tp2510
(lp2511
I00
aI00
aI00
as(g2024
g2034
tp2512
(lp2513
I00
aI00
aI00
as(g2038
g2030
tp2514
(lp2515
g2503
aI00
aI00
as(g2033
g2033
tp2516
(lp2517
I00
aI00
aI00
as(g2028
g2033
tp2518
(lp2519
I00
aI00
aI00
as(g2024
g2025
tp2520
(lp2521
I00
aI00
aI00
as(g2030
g2028
tp2522
(lp2523
I00
aI00
aI00
as(g2040
g2031
tp2524
(lp2525
I00
aI00
aI00
as(g2027
g2027
tp2526
(lp2527
I00
aI00
aI00
as(g2024
g2030
tp2528
(lp2529
g2503
aI00
aI00
as(g2028
g2024
tp2530
(lp2531
I00
aI00
aI00
as(g2028
g2038
tp2532
(lp2533
I00
aI00
aI00
as(g2034
g2034
tp2534
(lp2535
I00
aI00
aI00
as(g2034
g2040
tp2536
(lp2537
I00
aI00
aI00
as(g2031
g2040
tp2538
(lp2539
I00
aI00
aI00
as(g2030
g2025
tp2540
(lp2541
I00
aI00
aI00
as(g2027
g2024
tp2542
(lp2543
I00
aI00
aI00
as(g2038
g2033
tp2544
(lp2545
I00
aI00
aI00
as(g2034
g2027
tp2546
(lp2547
I00
aI00
aI00
as(g2038
g2024
tp2548
(lp2549
I00
aI00
aI00
as(g2034
g2025
tp2550
(lp2551
I00
aI00
aI00
as(g2030
g2030
tp2552
(lp2553
I00
aI00
aI00
as(g2027
g2033
tp2554
(lp2555
I00
aI00
aI00
as(g2025
g2027
tp2556
(lp2557
I00
aI00
aI00
as(g2031
g2028
tp2558
(lp2559
g2503
aI00
aI01
as(g2025
g2031
tp2560
(lp2561
I00
aI00
aI00
as(g2034
g2038
tp2562
(lp2563
I00
aI00
aI00
as(g2038
g2027
tp2564
(lp2565
I00
aI00
aI00
as(g2038
g2031
tp2566
(lp2567
I00
aI00
aI00
as(g2031
g2024
tp2568
(lp2569
I00
aI00
aI00
as(g2028
g2025
tp2570
(lp2571
I00
aI00
aI00
as(g2040
g2025
tp2572
(lp2573
I00
aI00
aI00
as(g2030
g2031
tp2574
(lp2575
I00
aI00
aI00
as(g2025
g2034
tp2576
(lp2577
I00
aI00
aI00
as(g2038
g2034
tp2578
(lp2579
I00
aI00
aI00
as(g2024
g2038
tp2580
(lp2581
I00
aI00
aI00
as(g2034
g2028
tp2582
(lp2583
g2503
aI00
aI01
as(g2031
g2033
tp2584
(lp2585
I00
aI00
aI00
as(g2040
g2024
tp2586
(lp2587
I00
aI00
aI00
as(g2040
g2028
tp2588
(lp2589
g2503
aI00
aI01
as(g2030
g2034
tp2590
(lp2591
I00
aI00
aI00
as(g2030
g2040
tp2592
(lp2593
I00
aI00
aI00
as(g2031
g2025
tp2594
(lp2595
I00
aI00
aI00
as(g2033
g2031
tp2596
(lp2597
I00
aI00
aI00
as(g2027
g2031
tp2598
(lp2599
I00
aI00
aI00
as(g2028
g2028
tp2600
(lp2601
I00
aI00
aI00
as(g2033
g2038
tp2602
(lp2603
I00
aI00
aI00
as(g2028
g2027
tp2604
(lp2605
I00
aI00
aI00
as(g2024
g2040
tp2606
(lp2607
I00
aI00
aI00
as(g2028
g2031
tp2608
(lp2609
I00
aI00
aI00
as(g2027
g2030
tp2610
(lp2611
g2503
aI00
aI00
as(g2033
g2024
tp2612
(lp2613
I00
aI00
aI00
as(g2025
g2038
tp2614
(lp2615
I00
aI00
aI00
as(g2027
g2040
tp2616
(lp2617
I00
aI00
aI00
as(g2040
g2027
tp2618
(lp2619
I00
aI00
aI00
as(g2024
g2027
tp2620
(lp2621
I00
aI00
aI00
as(g2030
g2033
tp2622
(lp2623
I00
aI00
aI00
as(g2024
g2031
tp2624
(lp2625
I00
aI00
aI00
as(g2033
g2028
tp2626
(lp2627
g2503
aI00
aI01
as(g2031
g2031
tp2628
(lp2629
I00
aI00
aI00
as(g2034
g2033
tp2630
(lp2631
I00
aI00
aI00
as(g2027
g2034
tp2632
(lp2633
I00
aI00
aI00
as(g2024
g2033
tp2634
(lp2635
I00
aI00
aI00
as(g2024
g2024
tp2636
(lp2637
I00
aI00
aI00
as(g2034
g2031
tp2638
(lp2639
I00
aI00
aI00
as(g2033
g2025
tp2640
(lp2641
I00
aI00
aI00
as(g2038
g2025
tp2642
(lp2643
I00
aI00
aI00
as(g2038
g2028
tp2644
(lp2645
g2503
aI00
aI01
as(g2031
g2027
tp2646
(lp2647
I00
aI00
aI00
as(g2040
g2038
tp2648
(lp2649
I00
aI00
aI00
as(g2025
g2028
tp2650
(lp2651
I00
aI00
aI00
as(g2031
g2030
tp2652
(lp2653
g2503
aI00
aI00
as(g2030
g2038
tp2654
(lp2655
I00
aI00
aI00
as(g2033
g2030
tp2656
(lp2657
g2503
aI00
aI00
as(g2025
g2025
tp2658
(lp2659
I00
aI00
aI00
as(g2031
g2034
tp2660
(lp2661
I00
aI00
aI00
as(g2040
g2030
tp2662
(lp2663
g2503
aI00
aI00
as(g2034
g2030
tp2664
(lp2665
g2503
aI00
aI00
as(g2025
g2030
tp2666
(lp2667
I00
aI00
aI00
as(g2025
g2040
tp2668
(lp2669
I00
aI00
aI00
as(g2038
g2040
tp2670
(lp2671
I00
aI00
aI00
as(g2028
g2030
tp2672
(lp2673
I00
aI00
aI00
as(g2027
g2038
tp2674
(lp2675
I00
aI00
aI00
as(g2040
g2033
tp2676
(lp2677
I00
aI00
aI00
as(g2030
g2024
tp2678
(lp2679
I00
aI00
aI00
as(g2027
g2028
tp2680
(lp2681
g2503
aI00
aI01
as(g2030
g2027
tp2682
(lp2683
I00
aI00
aI00
assS'nodes'
p2684
(dp2685
g18
(lp2686
I0
aI0
aI0
aI0
aI0
aI0
aI00
aI01
aI00
aI01
aI00
asg15
(lp2687
I0
aI0
aI0
aI0
aI0
aI0
aI00
aI01
aI00
aI01
aI00
asg11
(lp2688
I0
aI0
aI0
aI0
aI0
aI0
aI00
aI01
aI01
aI01
aI00
asg33
(lp2689
I0
aI0
aI0
ag1322
(g557
S'\x90g=|i\xa7\x0c@'
p2690
tp2691
Rp2692
ag1322
(g557
S'j0\x02\xb6T\xc3\x1d\xc0'
p2693
tp2694
Rp2695
ag1322
(g557
S'g\xf9\x1cJ\x05\xfe\xfa?'
p2696
tp2697
Rp2698
aI01
aI00
aI00
aI01
aI00
asg10
(lp2699
I0
aI0
aI0
ag1322
(g557
S'\t\x9a\x0b~8\xb4\xdd?'
p2700
tp2701
Rp2702
ag1322
(g557
S'\x16Y\x0c+|m\x1c\xc0'
p2703
tp2704
Rp2705
ag1322
(g557
S'p\xb02\xee}\x0c\x17@'
p2706
tp2707
Rp2708
aI01
aI00
aI00
aI01
aI00
asg30
(lp2709
I0
aI0
aI0
ag1322
(g557
S"\x98'\x1e]\x82|\xf3?"
p2710
tp2711
Rp2712
ag1322
(g557
S'\xc0\x0e~\xe1\xf44\x1f\xc0'
p2713
tp2714
Rp2715
ag1322
(g557
S'\xb8\xb4\xbe\x86\xb9\xa3\x02@'
p2716
tp2717
Rp2718
aI01
aI00
aI00
aI01
aI00
asg19
(lp2719
I0
aI0
aI0
ag1322
(g557
S'hB\xddg?\xcb\t@'
p2720
tp2721
Rp2722
ag1322
(g557
S'\x81\xc0\xe9 W\xa6\x18\xc0'
p2723
tp2724
Rp2725
ag1322
(g557
S'\t}p\xc6yR\x01@'
p2726
tp2727
Rp2728
aI01
aI00
aI00
aI00
aI00
asg22
(lp2729
I0
aI0
aI0
ag1322
(g557
S'\xb5+\xc9\xaa\xe7\x1f\x03@'
p2730
tp2731
Rp2732
ag1322
(g557
S'\x98\xb4\xd7XLc\x1f\xc0'
p2733
tp2734
Rp2735
ag1322
(g557
S'\x04\xa4\xd5\xfa\xde\xf1\x18@'
p2736
tp2737
Rp2738
aI01
aI00
aI00
aI01
aI00
asg46
(lp2739
I0
aI0
aI0
ag1322
(g557
S'\x04^}\xa8=W\xf3?'
p2740
tp2741
Rp2742
ag1322
(g557
S'\xfa\xd0\xf9\xad\xde\xe1\x17\xc0'
p2743
tp2744
Rp2745
ag1322
(g557
S'\xe8\x13H\x91\xbb\x8b\x16@'
p2746
tp2747
Rp2748
aI01
aI00
aI00
aI01
aI00
asg14
(lp2749
I0
aI0
aI0
ag1322
(g557
S'w\x11\xfe,A\xf1\x07@'
p2750
tp2751
Rp2752
ag1322
(g557
S'\x00\x92\xce\xc9\xca\x9a\x1b\xc0'
p2753
tp2754
Rp2755
ag1322
(g557
S'G14\r[8\x17@'
p2756
tp2757
Rp2758
aI01
aI00
aI01
aI00
aI00
asg23
(lp2759
I0
aI0
aI0
ag1322
(g557
S'\x1a\xd5\xe4e\x80S\x04@'
p2760
tp2761
Rp2762
ag1322
(g557
S'\x93[\x04\x8d^q\x1d\xc0'
p2763
tp2764
Rp2765
ag1322
(g557
S'\xb0y\x1d\x0c\x12\xf2\xd0?'
p2766
tp2767
Rp2768
aI01
aI00
aI00
aI01
aI00
assS'mc_place_path'
p2769
(dp2770
sS'parent_state'
p2771
(itrajectory_representation.shortest_path_pick_and_place_state
ShortestPathPaPState
p2772
(dp2773
g2
(dp2774
sg4
(itrajectory_representation.predicates.in_region
InRegion
p2775
(dp2776
g7
Nsbsg8
(dp2777
(g2024
g2024
g2025
tp2778
g13
s(g2027
g2028
g2028
tp2779
g17
s(g2030
g2031
g2025
tp2780
g21
s(g2033
g2034
g2028
tp2781
g25
s(Vsquare_packing_box3
p2782
g2025
g2025
tp2783
(lp2784
I00
as(g2025
g2025
g2025
tp2785
g27
s(g2034
g2024
g2028
tp2786
g29
s(g2027
g2038
g2025
tp2787
g32
s(g2025
g2040
g2025
tp2788
g35
s(g2033
g2027
g2025
tp2789
g37
s(g2033
g2038
g2028
tp2790
g346
s(g2030
g2040
g2025
tp2791
g452
s(g2025
g2034
g2028
tp2792
g41
s(g2033
g2030
g2025
tp2793
g43
s(g2028
g2025
g2028
tp2794
g45
s(g2040
g2782
g2025
tp2795
(lp2796
I00
as(g2034
g2030
g2025
tp2797
g50
s(g2033
g2031
g2028
tp2798
g52
s(g2782
g2028
g2025
tp2799
(lp2800
I00
as(g2030
g2024
g2028
tp2801
g56
s(g2024
g2028
g2025
tp2802
g60
s(g2024
g2040
g2028
tp2803
g200
s(g2027
g2027
g2028
tp2804
g64
s(g2028
g2034
g2028
tp2805
g66
s(g2030
g2033
g2025
tp2806
g70
s(g2028
g2028
g2025
tp2807
g72
s(g2782
g2040
g2028
tp2808
(lp2809
I00
as(g2025
g2025
g2028
tp2810
g76
s(g2034
g2024
g2025
tp2811
g438
s(g2031
g2033
g2028
tp2812
g78
s(g2024
g2034
g2025
tp2813
g80
s(g2038
g2782
g2028
tp2814
(lp2815
I00
as(g2031
g2025
g2028
tp2816
g84
s(g2024
g2038
g2028
tp2817
g444
s(g2031
g2038
g2028
tp2818
g88
s(g2038
g2031
g2025
tp2819
g90
s(g2028
g2027
g2028
tp2820
g92
s(g2027
g2030
g2028
tp2821
g446
s(g2024
g2024
g2028
tp2822
g96
s(g2030
g2034
g2025
tp2823
g98
s(g2028
g2025
g2025
tp2824
g100
s(g2040
g2024
g2025
tp2825
g102
s(g2033
g2031
g2025
tp2826
g106
s(g2033
g2782
g2025
tp2827
(lp2828
I00
as(g2027
g2038
g2028
tp2829
g110
s(g2782
g2033
g2025
tp2830
(lp2831
I00
as(g2033
g2027
g2028
tp2832
g114
s(g2033
g2024
g2028
tp2833
g116
s(g2030
g2033
g2028
tp2834
g118
s(g2028
g2038
g2028
tp2835
g120
s(g2030
g2025
g2025
tp2836
g122
s(g2028
g2030
g2025
tp2837
g126
s(g2024
g2034
g2028
tp2838
g128
s(g2782
g2024
g2028
tp2839
(lp2840
I00
as(g2034
g2031
g2028
tp2841
g148
s(g2031
g2038
g2025
tp2842
g134
s(g2030
g2024
g2025
tp2843
g136
s(g2030
g2782
g2028
tp2844
(lp2845
I00
as(g2782
g2027
g2025
tp2846
(lp2847
I00
as(g2034
g2027
g2025
tp2848
g140
s(g2027
g2027
g2025
tp2849
g142
s(g2027
g2040
g2025
tp2850
g144
s(g2040
g2024
g2028
tp2851
g146
s(g2782
g2040
g2025
tp2852
(lp2853
I01
as(g2031
g2033
g2025
tp2854
g152
s(g2024
g2031
g2028
tp2855
g154
s(g2031
g2025
g2025
tp2856
g156
s(g2033
g2024
g2025
tp2857
g158
s(g2024
g2782
g2025
tp2858
(lp2859
I00
as(g2038
g2031
g2028
tp2860
g162
s(g2030
g2025
g2028
tp2861
g166
s(g2030
g2034
g2028
tp2862
g168
s(g2782
g2024
g2025
tp2863
(lp2864
I01
as(g2028
g2031
g2025
tp2865
g370
s(g2024
g2030
g2028
tp2866
g174
s(g2033
g2782
g2028
tp2867
(lp2868
I00
as(g2031
g2028
g2025
tp2869
g176
s(g2782
g2033
g2028
tp2870
(lp2871
I00
as(g2782
g2031
g2028
tp2872
(lp2873
I00
as(g2034
g2027
g2028
tp2874
g182
s(g2027
g2033
g2025
tp2875
g350
s(g2031
g2028
g2028
tp2876
g138
s(g2028
g2038
g2025
tp2877
g188
s(g2024
g2031
g2025
tp2878
g192
s(g2034
g2031
g2025
tp2879
g194
s(g2028
g2782
g2025
tp2880
(lp2881
I00
as(g2025
g2033
g2028
tp2882
g164
s(g2782
g2030
g2025
tp2883
(lp2884
I00
as(g2027
g2040
g2028
tp2885
g204
s(g2782
g2782
g2025
tp2886
(lp2887
I00
as(g2033
g2033
g2025
tp2888
g464
s(g2038
g2028
g2028
tp2889
g210
s(g2027
g2031
g2025
tp2890
g214
s(g2024
g2030
g2025
tp2891
g216
s(g2040
g2033
g2028
tp2892
g218
s(g2038
g2024
g2028
tp2893
g220
s(g2782
g2031
g2025
tp2894
(lp2895
I00
as(g2034
g2028
g2028
tp2896
g224
s(g2033
g2025
g2025
tp2897
g226
s(g2025
g2038
g2025
tp2898
g104
s(g2028
g2031
g2028
tp2899
g232
s(g2028
g2782
g2028
tp2900
(lp2901
I00
as(g2027
g2782
g2025
tp2902
(lp2903
I00
as(g2030
g2028
g2025
tp2904
g68
s(g2027
g2031
g2028
tp2905
g240
s(g2034
g2040
g2025
tp2906
g228
s(g2024
g2033
g2025
tp2907
g244
s(g2038
g2025
g2028
tp2908
g246
s(g2034
g2028
g2025
tp2909
g248
s(g2028
g2040
g2028
tp2910
g250
s(g2024
g2040
g2025
tp2911
g252
s(g2033
g2040
g2025
tp2912
g470
s(g2040
g2040
g2025
tp2913
g256
s(g2040
g2038
g2028
tp2914
g258
s(g2038
g2028
g2025
tp2915
g260
s(g2033
g2034
g2025
tp2916
g482
s(g2782
g2034
g2025
tp2917
(lp2918
I00
as(g2040
g2033
g2025
tp2919
g264
s(g2033
g2028
g2028
tp2920
g266
s(g2038
g2030
g2028
tp2921
g268
s(g2033
g2025
g2028
tp2922
g270
s(g2027
g2033
g2028
tp2923
g272
s(g2034
g2040
g2028
tp2924
g274
s(g2782
g2025
g2028
tp2925
(lp2926
I00
as(g2038
g2025
g2025
tp2927
g278
s(g2028
g2040
g2025
tp2928
g280
s(g2031
g2031
g2025
tp2929
g282
s(g2027
g2782
g2028
tp2930
(lp2931
I00
as(g2034
g2782
g2025
tp2932
(lp2933
I00
as(g2027
g2024
g2025
tp2934
g288
s(g2025
g2030
g2025
tp2935
g58
s(g2040
g2027
g2028
tp2936
g292
s(g2025
g2033
g2025
tp2937
g294
s(g2030
g2038
g2028
tp2938
g296
s(g2038
g2027
g2025
tp2939
g298
s(g2031
g2030
g2025
tp2940
g300
s(g2782
g2034
g2028
tp2941
(lp2942
I00
as(g2782
g2038
g2028
tp2943
(lp2944
I00
as(g2028
g2034
g2025
tp2945
g284
s(g2025
g2782
g2028
tp2946
(lp2947
I00
as(g2040
g2028
g2025
tp2948
g310
s(g2038
g2030
g2025
tp2949
g312
s(g2034
g2038
g2028
tp2950
g314
s(g2024
g2033
g2028
tp2951
g308
s(g2038
g2782
g2025
tp2952
(lp2953
I00
as(g2034
g2034
g2028
tp2954
g320
s(g2040
g2040
g2028
tp2955
g322
s(g2031
g2031
g2028
tp2956
g324
s(g2027
g2034
g2028
tp2957
g326
s(g2027
g2030
g2025
tp2958
g400
s(g2030
g2027
g2025
tp2959
g330
s(g2025
g2030
g2028
tp2960
g332
s(g2025
g2031
g2028
tp2961
g334
s(g2033
g2028
g2025
tp2962
g336
s(g2027
g2024
g2028
tp2963
g338
s(g2031
g2027
g2028
tp2964
g340
s(g2033
g2040
g2028
tp2965
g404
s(g2030
g2038
g2025
tp2966
g344
s(g2024
g2027
g2025
tp2967
g316
s(g2038
g2040
g2028
tp2968
g39
s(g2031
g2030
g2028
tp2969
g348
s(g2028
g2033
g2028
tp2970
g190
s(g2040
g2031
g2028
tp2971
g352
s(g2024
g2028
g2028
tp2972
g488
s(g2034
g2038
g2025
tp2973
g356
s(g2027
g2025
g2028
tp2974
g358
s(g2038
g2034
g2025
tp2975
g108
s(g2031
g2782
g2025
tp2976
(lp2977
I00
as(g2040
g2030
g2025
tp2978
g364
s(g2028
g2030
g2028
tp2979
g366
s(g2034
g2782
g2028
tp2980
(lp2981
I00
as(g2030
g2030
g2028
tp2982
g372
s(g2040
g2027
g2025
tp2983
g374
s(g2027
g2034
g2025
tp2984
g376
s(g2030
g2040
g2028
tp2985
g412
s(g2038
g2027
g2028
tp2986
g380
s(g2040
g2025
g2028
tp2987
g212
s(g2030
g2027
g2028
tp2988
g384
s(g2782
g2038
g2025
tp2989
(lp2990
I00
as(g2038
g2033
g2025
tp2991
g388
s(g2040
g2028
g2028
tp2992
g390
s(g2024
g2027
g2028
tp2993
g392
s(g2031
g2024
g2025
tp2994
g394
s(g2030
g2028
g2028
tp2995
g396
s(g2034
g2033
g2025
tp2996
g328
s(g2038
g2034
g2028
tp2997
g202
s(g2038
g2038
g2028
tp2998
g342
s(g2038
g2024
g2025
tp2999
g242
s(g2034
g2025
g2025
tp3000
g406
s(g2782
g2782
g2028
tp3001
(lp3002
I00
as(g2040
g2034
g2025
tp3003
g410
s(g2028
g2024
g2028
tp3004
g378
s(g2025
g2031
g2025
tp3005
g414
s(g2025
g2782
g2025
tp3006
(lp3007
I00
as(g2031
g2040
g2025
tp3008
g420
s(g2031
g2027
g2025
tp3009
g418
s(g2024
g2782
g2028
tp3010
(lp3011
I00
as(g2030
g2782
g2025
tp3012
(lp3013
I00
as(g2033
g2038
g2025
tp3014
g424
s(g2033
g2033
g2028
tp3015
g426
s(g2031
g2034
g2028
tp3016
g428
s(g2034
g2025
g2028
tp3017
g430
s(g2024
g2025
g2025
tp3018
g432
s(g2027
g2025
g2025
tp3019
g434
s(g2031
g2024
g2028
tp3020
g436
s(g2040
g2030
g2028
tp3021
g408
s(g2025
g2038
g2028
tp3022
g184
s(g2025
g2028
g2025
tp3023
g440
s(g2030
g2030
g2025
tp3024
g442
s(g2025
g2024
g2028
tp3025
g86
s(g2034
g2033
g2028
tp3026
g94
s(g2028
g2033
g2025
tp3027
g448
s(g2040
g2025
g2025
tp3028
g124
s(g2028
g2024
g2025
tp3029
g398
s(g2027
g2028
g2025
tp3030
g454
s(g2040
g2031
g2025
tp3031
g306
s(g2025
g2027
g2025
tp3032
g458
s(g2030
g2031
g2028
tp3033
g460
s(g2031
g2782
g2028
tp3034
(lp3035
I00
as(g2034
g2030
g2028
tp3036
g462
s(g2038
g2040
g2025
tp3037
g450
s(g2025
g2027
g2028
tp3038
g208
s(g2031
g2034
g2025
tp3039
g466
s(g2782
g2030
g2028
tp3040
(lp3041
I00
as(g2038
g2038
g2025
tp3042
g254
s(g2025
g2034
g2025
tp3043
g472
s(g2040
g2034
g2028
tp3044
g476
s(g2034
g2034
g2025
tp3045
g478
s(g2031
g2040
g2028
tp3046
g480
s(g2782
g2027
g2028
tp3047
(lp3048
I00
as(g2782
g2028
g2028
tp3049
(lp3050
I00
as(g2024
g2038
g2025
tp3051
g502
s(g2040
g2038
g2025
tp3052
g354
s(g2025
g2040
g2028
tp3053
g490
s(g2024
g2025
g2028
tp3054
g492
s(g2028
g2028
g2028
tp3055
g494
s(g2033
g2030
g2028
tp3056
g496
s(g2040
g2782
g2028
tp3057
(lp3058
I00
as(g2025
g2028
g2028
tp3059
g500
s(g2025
g2024
g2025
tp3060
g486
s(g2028
g2027
g2025
tp3061
g504
s(g2038
g2033
g2028
tp3062
g456
ssg505
(dp3063
Vrectangular_packing_box4
p3064
g508
sVrectangular_packing_box2
p3065
g598
sVrectangular_packing_box3
p3066
g642
sVrectangular_packing_box1
p3067
g674
sVsquare_packing_box2
p3068
g718
sVsquare_packing_box3
p3069
(itrajectory_representation.operator
Operator
p3070
(dp3071
g510
I01
sg511
(dp3072
g513
Vsquare_packing_box3
p3073
ssg515
g516
sg517
(dp3074
g519
(lp3075
g521
(g522
(I0
tp3076
g524
tp3077
Rp3078
(I1
(I3
tp3079
g531
I00
S'\xb1\x91d&]\xf4\r@\x05\x16bSUi\x19\xc0\x19c:Hq\x95\xfe\xbf'
p3080
tp3081
bag521
(g522
(I0
tp3082
g524
tp3083
Rp3084
(I1
(I3
tp3085
g531
I00
S'Cfb\xccjz\x0c@\xde\x1f\xa4\xb6\xc3\x94\x19\xc0\x98\xe6\xfb\xff\xcb\x18\xfd\xbf'
p3086
tp3087
bag521
(g522
(I0
tp3088
g524
tp3089
Rp3090
(I1
(I3
tp3091
g531
I00
S'#\r\x1d\xd0\x02\xfb\t@\xff\xe3ok\xfa\xba\x1f\xc0\xf24\x80\xa2\x96$\xe7?'
p3092
tp3093
basg548
I00
ssg549
(lp3094
g521
(g522
(I0
tp3095
g524
tp3096
Rp3097
(I1
(I3
tp3098
g531
I00
S'\x0c\x8d\xed]E\x13\x05@}\xe3=\x86jC\x1d\xc0\x8d}i\xe8\xda\xae\xe0?'
p3099
tp3100
bag521
(g522
(I0
tp3101
g524
tp3102
Rp3103
(I1
(I3
tp3104
g528
(S'f8'
p3105
I0
I1
tp3106
Rp3107
(I3
S'<'
p3108
NNNI-1
I-1
I0
tp3109
bI00
S'h\xe5u\t\x19Z\x05@*\x05#\xa8W\x05\x1f\xc0\t\xdeI\x16\xa6\x8a\xee?'
p3110
tp3111
bag521
(g522
(I0
tp3112
g524
tp3113
Rp3114
(I1
(I3
tp3115
g3107
I00
S'\x1c\xe9\xa4z+:\n@<P\xfc\xd1\x95\x81\x1f\xc0\x8a\xbf\x04\xe4\xa7Q\x9d\xbf'
p3116
tp3117
bag3090
asbsVsquare_packing_box1
p3118
g798
sVsquare_packing_box4
p3119
g854
ssg897
I01
sg898
(lp3120
S'square_packing_box1'
p3121
aS'rectangular_packing_box1'
p3122
aS'square_packing_box2'
p3123
aS'rectangular_packing_box2'
p3124
aS'square_packing_box3'
p3125
aS'rectangular_packing_box3'
p3126
aS'square_packing_box4'
p3127
aS'rectangular_packing_box4'
p3128
asg7
Nsg908
(dp3129
Vrectangular_packing_box4
p3130
g911
((lp3131
tp3132
Rp3133
sVrectangular_packing_box2
p3134
g911
((lp3135
I107
aI132
aI517
aI6
aI7
aI8
aI45
aI404
aI416
aI33
aI34
aI554
aI43
aI44
aI301
aI456
aI309
aI55
aI56
aI186
aI187
aI189
aI449
aI203
aI196
aI71
aI584
aI202
aI459
aI162
aI595
aI84
aI93
aI94
aI95
aI327
aI484
aI233
aI106
aI235
aI108
aI497
aI503
aI72
aI234
aI42
aI383
atp3136
Rp3137
sVrectangular_packing_box3
p3138
g911
((lp3139
I132
aI5
aI134
aI595
aI136
aI137
aI523
aI276
aI196
aI4
aI155
aI157
aI517
aI416
aI133
aI34
aI35
aI165
aI166
aI296
aI553
aI176
aI328
aI308
aI310
aI570
aI448
aI262
aI203
aI580
aI197
aI70
aI456
aI201
aI202
aI459
aI162
aI584
aI80
aI81
aI82
aI163
aI84
aI597
aI93
aI607
aI355
aI229
aI362
aI107
aI240
aI83
aI547
aI251
aI252
atp3140
Rp3141
sVrectangular_packing_box1
p3142
g911
((lp3143
I384
aI257
aI134
aI135
aI265
aI532
aI452
aI154
aI158
aI159
aI164
aI433
aI564
aI521
aI575
aI580
aI583
aI328
aI589
aI346
aI478
aI356
aI229
aI366
aI502
atp3144
Rp3145
sVsquare_packing_box2
p3146
g911
((lp3147
I235
aI7
aI137
aI138
aI139
aI275
aI152
aI153
aI417
aI166
aI424
aI198
aI349
aI350
aI351
aI233
aI362
aI491
aI503
aI249
aI234
aI383
atp3148
Rp3149
sVsquare_packing_box3
p3150
g911
((lp3151
I513
aI386
aI387
aI268
aI270
aI405
aI280
aI548
aI425
aI307
aI565
aI438
aI442
aI573
aI193
aI210
aI211
aI212
aI213
aI343
aI473
aI220
aI479
aI354
aI612
aI614
aI500
aI245
aI246
aI340
aI381
aI254
aI255
atp3152
Rp3153
sVsquare_packing_box1
p3154
g911
((lp3155
I0
aI1
aI546
aI342
aI454
aI545
aI393
aI555
aI367
aI144
aI369
aI370
aI403
aI368
aI377
aI371
aI473
aI378
aI571
aI541
aI474
atp3156
Rp3157
sVsquare_packing_box4
p3158
g911
((lp3159
I229
aI452
aI197
aI553
aI394
aI589
aI356
aI580
aI433
aI366
aI502
aI521
aI153
aI164
aI154
aI155
aI157
aI478
aI575
atp3160
Rp3161
ssg943
(lp3162
(g3064
g2028
tp3163
a(g3065
g2028
tp3164
a(g3066
g2028
tp3165
a(g3067
g2028
tp3166
a(g3068
g2028
tp3167
a(g3069
g2028
tp3168
a(g3118
g2028
tp3169
a(g3119
g2028
tp3170
asg957
(dp3171
Vrectangular_packing_box4
p3172
g521
(g522
(I0
tp3173
g524
tp3174
Rp3175
(I1
(I1
I3
tp3176
g531
I00
S'\xe4W\xa7\x10\xc3e\x07@\x94}\xbeu6r\x19\xc0\xad:\x8b\x17\x14\x19\x0b@'
p3177
tp3178
bsVrectangular_packing_box2
p3179
g521
(g522
(I0
tp3180
g524
tp3181
Rp3182
(I1
(I1
I3
tp3183
g531
I00
S'\xcb\xb9\xb1\x0b)s\xf1?\x02o~q\x05\x9b\x16\xc03\x0c\xdd\xb4Oa\x07@'
p3184
tp3185
bsVrectangular_packing_box3
p3186
g521
(g522
(I0
tp3187
g524
tp3188
Rp3189
(I1
(I1
I3
tp3190
g531
I00
S'\xf8;s\x1a%\xc6\xec?B\xa2\nh\xd5y\x1a\xc0\xaf\xb4\x82]r\xaf\x0f@'
p3191
tp3192
bsVrectangular_packing_box1
p3193
g521
(g522
(I0
tp3194
g524
tp3195
Rp3196
(I1
(I1
I3
tp3197
g531
I00
S'\xe8\xcf\x1c\x93R\x99\xc3\xbf\x18\x8e-j\x81\xe4\x1e\xc0\x8e[\xa1wxy\x07@'
p3198
tp3199
bsVsquare_packing_box2
p3200
g521
(g522
(I0
tp3201
g524
tp3202
Rp3203
(I1
(I1
I3
tp3204
g531
I00
S'\x00\xf8B%Z)\xcb\xbf\xf8\x9e\x92g.<\x17\xc0k\x08\x03\x15\xf7\x0f\x06@'
p3205
tp3206
bsVsquare_packing_box3
p3207
g521
(g522
(I0
tp3208
g524
tp3209
Rp3210
(I1
(I1
I3
tp3211
g531
I00
S'\xb0@\xb4\x99\xe1\x14\x0c@_~|0\x84\xbf\x1c\xc0\xc7\xd1Y^\x95T\x12@'
p3212
tp3213
bsVsquare_packing_box1
p3214
g521
(g522
(I0
tp3215
g524
tp3216
Rp3217
(I1
(I1
I3
tp3218
g531
I00
S'\xae\xf7\x17|\xb4[\r@\xd8\xfd\xf5\xc3/|\x16\xc0\x8fQ`\x01\xeb\x04\x0b@'
p3219
tp3220
bsVsquare_packing_box4
p3221
g521
(g522
(I0
tp3222
g524
tp3223
Rp3224
(I1
(I1
I3
tp3225
g531
I00
S'\xd6X2\xb2\xb1\x0e\xd9\xbf\x8a\x06\\\x12X\x97\x1c\xc0y\xda\x87\xea"\xed\x10@'
p3226
tp3227
bssg1015
(itrajectory_representation.predicates.place_in_way
PlaceInWay
p3228
(dp3229
g1310
(dp3230
(g2031
g2024
g2025
tp3231
I01
s(g2033
g2024
g2025
tp3232
I01
s(g2024
g2782
g2025
tp3233
I00
s(g2040
g2033
g2025
tp3234
I00
s(g2782
g2027
g2025
tp3235
I00
s(g2034
g2033
g2025
tp3236
I01
s(g2027
g2038
g2025
tp3237
I00
s(g2782
g2024
g2025
tp3238
I01
s(g2040
g2034
g2025
tp3239
I00
s(g2033
g2027
g2025
tp3240
I00
s(g2031
g2027
g2025
tp3241
I00
s(g2031
g2040
g2025
tp3242
I00
s(g2033
g2038
g2025
tp3243
I00
s(g2040
g2782
g2025
tp3244
I00
s(g2034
g2782
g2025
tp3245
I00
s(g2027
g2024
g2025
tp3246
I01
s(g2782
g2034
g2025
tp3247
I00
s(g2024
g2031
g2025
tp3248
I00
s(g2038
g2027
g2025
tp3249
I00
s(g2034
g2031
g2025
tp3250
I00
s(g2040
g2031
g2025
tp3251
I00
s(g2024
g2027
g2025
tp3252
I00
s(g2038
g2040
g2025
tp3253
I00
s(g2024
g2034
g2025
tp3254
I00
s(g2024
g2038
g2025
tp3255
I00
s(g2027
g2031
g2025
tp3256
I00
s(g2033
g2034
g2025
tp3257
I00
s(g2038
g2031
g2025
tp3258
I00
s(g2782
g2031
g2025
tp3259
I00
s(g2034
g2024
g2025
tp3260
I01
s(g2040
g2024
g2025
tp3261
I01
s(g2031
g2034
g2025
tp3262
I00
s(g2033
g2031
g2025
tp3263
I00
s(g2034
g2040
g2025
tp3264
I00
s(g2033
g2782
g2025
tp3265
I00
s(g2033
g2040
g2025
tp3266
I00
s(g2782
g2033
g2025
tp3267
I00
s(g2027
g2033
g2025
tp3268
I00
s(g2024
g2040
g2025
tp3269
I00
s(g2038
g2782
g2025
tp3270
I00
s(g2034
g2038
g2025
tp3271
I00
s(g2027
g2782
g2025
tp3272
I00
s(g2038
g2034
g2025
tp3273
I01
s(g2040
g2038
g2025
tp3274
I00
s(g2031
g2782
g2025
tp3275
I00
s(g2031
g2038
g2025
tp3276
I01
s(g2038
g2024
g2025
tp3277
I01
s(g2024
g2033
g2025
tp3278
I01
s(g2040
g2027
g2025
tp3279
I00
s(g2027
g2034
g2025
tp3280
I00
s(g2034
g2027
g2025
tp3281
I00
s(g2027
g2040
g2025
tp3282
I01
s(g2782
g2038
g2025
tp3283
I00
s(g2038
g2033
g2025
tp3284
I00
s(g2782
g2040
g2025
tp3285
I01
s(g2031
g2033
g2025
tp3286
I00
ssg1018
(dp3287
(g2038
g2025
tp3288
(lp3289
g521
(g522
(I0
tp3290
g524
tp3291
Rp3292
(I1
(I3
tp3293
g531
I00
S'\xe0\x81s2xD\xd0?h\x03\xed\x02\x06q\x1c\xc0\xa9\xb0\xf8\xe0\x14\x92\xeb?'
p3294
tp3295
bag521
(g522
(I0
tp3296
g524
tp3297
Rp3298
(I1
(I3
tp3299
g3107
I00
S'\x00{\xeeM\xfb\x06\xd8?\xa7W\x1e\xc1\xa5F\x1b\xc0\xd0\xcaV\x8a\x88D\xf6?'
p3300
tp3301
bag521
(g522
(I0
tp3302
g524
tp3303
Rp3304
(I1
(I3
tp3305
g3107
I00
S'B\x9aa8\x98\xa6\xe8?\xf3\xe9\x94/\xc2\xe4\x18\xc0u\xf8\xb0\x7fO\xb8\xf2?'
p3306
tp3307
bag521
(g522
(I0
tp3308
g524
tp3309
Rp3310
(I1
(I3
tp3311
g3107
I00
S'\xd8\x87\x03p)T\xe4?\xd5\xabI\xb7V\xd0\x15\xc0vWg\x9a\x87\x8a\xec?'
p3312
tp3313
bag521
(g522
(I0
tp3314
g524
tp3315
Rp3316
(I1
(I3
tp3317
g3107
I00
S'\xa9\xd9\x1d\x8d\xa6j\xdf?\xa0\x85\x1a\x84\xc6\xec\x12\xc0\x01\xb6 H\xb1\x91\xeb?'
p3318
tp3319
bag521
(g522
(I0
tp3320
g524
tp3321
Rp3322
(I1
(I3
tp3323
g3107
I00
S'\x93k\xbc\xee\xc2\x10\xe8?\xab^\x86?\x08D\x10\xc0\x10;2\x00\xe5\t\xde?'
p3324
tp3325
bag521
(g522
(I0
tp3326
g524
tp3327
Rp3328
(I1
(I3
tp3329
g3107
I00
S'\xef\xc3u*\xfb\xdb\xeb?\x8d\xa5\n\xfd\x03<\n\xc0\xd8\xfb\xde\x16R\xac\xde?'
p3330
tp3331
bag521
(g522
(I0
tp3332
g524
tp3333
Rp3334
(I1
(I3
tp3335
g3107
I00
S'\xf4\xfdJ\x1a(#\xec?H"\x9cD\x1aE\x05\xc0.\xa9\x0b\x87\xf8\xe1\x02@'
p3336
tp3337
bas(g2034
g2025
tp3338
(lp3339
g521
(g522
(I0
tp3340
g524
tp3341
Rp3342
(I1
(I3
tp3343
g531
I00
S'\x80?\x86\xcei\xc9\xa4?\xd2\xc4+\x19#\xbe\x19\xc0\xd4H\xa9m2H\x10@'
p3344
tp3345
bag521
(g522
(I0
tp3346
g524
tp3347
Rp3348
(I1
(I3
tp3349
g3107
I00
S'\xd0\x185\xfd);\xc3?\x1c\xdfM\xe9\x03\xf1\x16\xc0y\xe4\x94w\xb3\xb2\x08\xc0'
p3350
tp3351
bag521
(g522
(I0
tp3352
g524
tp3353
Rp3354
(I1
(I3
tp3355
g3107
I00
S'K\x19\xdd\x9a\xe6\xce\xe9?\xe1\x08\xb9\xe6+\xc9\x15\xc0\xeeN\x0e\xdd1/\x08\xc0'
p3356
tp3357
bag521
(g522
(I0
tp3358
g524
tp3359
Rp3360
(I1
(I3
tp3361
g3107
I00
S'\x16nfXE \xf2?\x06\xf1|#c\xe6\x12\xc08\x98\x8f,\xc1@\x04\xc0'
p3362
tp3363
bag521
(g522
(I0
tp3364
g524
tp3365
Rp3366
(I1
(I3
tp3367
g3107
I00
S'\xc1E\xbb\x1b\xed\x13\xf3?\xca\xdcw\xec\x1a\x18\x10\xc0j\xed\xec2j\x8c\x04\xc0'
p3368
tp3369
bag521
(g522
(I0
tp3370
g524
tp3371
Rp3372
(I1
(I3
tp3373
g3107
I00
S'\xf09\xb6\x1c*\x86\xee?\xc4\n/\x96\xcb\xe3\n\xc0\xa0\xc9\xd6F6\x0f\x00\xc0'
p3374
tp3375
bag521
(g522
(I0
tp3376
g524
tp3377
Rp3378
(I1
(I3
tp3379
g3107
I00
S'3\xe9\xaf\x05T\x89\xe7?+~\xcb\xd3\x15\xc7\x04\xc0x6(d5\xed\x07@'
p3380
tp3381
bas(g2040
g2025
tp3382
(lp3383
g521
(g522
(I0
tp3384
g524
tp3385
Rp3386
(I1
(I3
tp3387
g531
I00
S"\x1cTr\x8bW\xcd\x07@O\x94\x1eG\xa9L\x16\xc0\x02\x98\t'\x82\x1a\x12@"
p3388
tp3389
bag521
(g522
(I0
tp3390
g524
tp3391
Rp3392
(I1
(I3
tp3393
g3107
I00
S'\xe6rt0\xc6`\x05@\xe8\xf6\xaa\xc7\x03\x10\x17\xc0v\x9e\xc9\x80o\x15\xed\xbf'
p3394
tp3395
bag521
(g522
(I0
tp3396
g524
tp3397
Rp3398
(I1
(I3
tp3399
g3107
I00
S'!\x83\xc0\xf3W\x85\xff?\xed\x8f\x90/y\xfd\x16\xc06jP\xfe\x98\xf5\xf4\xbf'
p3400
tp3401
bag521
(g522
(I0
tp3402
g524
tp3403
Rp3404
(I1
(I3
tp3405
g3107
I00
S'2Z\xe1\xe97J\xf6?\\\x1e`@2v\x16\xc0\xc4\x0c\xcc\x14<\xf9\xf6\xbf'
p3406
tp3407
bag521
(g522
(I0
tp3408
g524
tp3409
Rp3410
(I1
(I3
tp3411
g3107
I00
S'tx\x8as\xa8b\xed?\x9ej\x15\xfa\xf0{\x15\xc0@\xed\x9a-\x9eD\xf2\xbf'
p3412
tp3413
bag521
(g522
(I0
tp3414
g524
tp3415
Rp3416
(I1
(I3
tp3417
g3107
I00
S"\xb2&6mg)\xe8?\x99\xe0G'\x16\xe0\x13\xc0\xc8oL\xf5\x17p\xe6\xbf"
p3418
tp3419
bag521
(g522
(I0
tp3420
g524
tp3421
Rp3422
(I1
(I3
tp3423
g3107
I00
S'`\xc8Aw-\x81\xeb?/\xc3\xe6O\x04\xca\x10\xc0\x8a\xb7K)\x91{\xe4\xbf'
p3424
tp3425
bag521
(g522
(I0
tp3426
g524
tp3427
Rp3428
(I1
(I3
tp3429
g3107
I00
S'\xe1\xc6\xc7\xa7\x12X\xe7?\x98\x99\xb0\x9a\xfb\xdb\x0b\xc0R\t\x1b)\xeae\xe0\xbf'
p3430
tp3431
bag521
(g522
(I0
tp3432
g524
tp3433
Rp3434
(I1
(I3
tp3435
g3107
I00
S'p\xf1\xbdc^\x84\xf1?"\x88LL\xf9D\x06\xc0~w\r\xe9m\x0f\x19@'
p3436
tp3437
bas(g2027
g2025
tp3438
(lp3439
g521
(g522
(I0
tp3440
g524
tp3441
Rp3442
(I1
(I3
tp3443
g531
I00
S';I^\xea2k\x08@\xd6\xf0<\x8c\x08R\x16\xc0\n=*\xd6\x89\x1e\x8a?'
p3444
tp3445
bag521
(g522
(I0
tp3446
g524
tp3447
Rp3448
(I1
(I3
tp3449
g3107
I00
S'\x00O\xfd4U\xed\x06@>#>\xa9c\x95\x18\xc0\xeb\xe4n\xb8\x98\xa5\xc9\xbf'
p3450
tp3451
bag521
(g522
(I0
tp3452
g524
tp3453
Rp3454
(I1
(I3
tp3455
g3107
I00
S'\x00\xda\x1c<\xfd\xdc\x00@j"\x91\xe3 \x1a\x18\xc0i~!@)\xb0\xdc\xbf'
p3456
tp3457
bag521
(g522
(I0
tp3458
g524
tp3459
Rp3460
(I1
(I3
tp3461
g3107
I00
S'v%D\x97w\xd1\xf7?Z\xadP\x90\x08<\x17\xc0-\xca\x8a\t\xe2p\xe7\xbf'
p3462
tp3463
bag521
(g522
(I0
tp3464
g524
tp3465
Rp3466
(I1
(I3
tp3467
g3107
I00
S'tx\x8as\xa8b\xed?\x9ej\x15\xfa\xf0{\x15\xc0@\xed\x9a-\x9eD\xf2\xbf'
p3468
tp3469
bag521
(g522
(I0
tp3470
g524
tp3471
Rp3472
(I1
(I3
tp3473
g3107
I00
S"\xb2&6mg)\xe8?\x99\xe0G'\x16\xe0\x13\xc0\xc8oL\xf5\x17p\xe6\xbf"
p3474
tp3475
bag521
(g522
(I0
tp3476
g524
tp3477
Rp3478
(I1
(I3
tp3479
g3107
I00
S'`\xc8Aw-\x81\xeb?/\xc3\xe6O\x04\xca\x10\xc0\x8a\xb7K)\x91{\xe4\xbf'
p3480
tp3481
bag521
(g522
(I0
tp3482
g524
tp3483
Rp3484
(I1
(I3
tp3485
g3107
I00
S'\xe1\xc6\xc7\xa7\x12X\xe7?\x98\x99\xb0\x9a\xfb\xdb\x0b\xc0R\t\x1b)\xeae\xe0\xbf'
p3486
tp3487
bag521
(g522
(I0
tp3488
g524
tp3489
Rp3490
(I1
(I3
tp3491
g3107
I00
S'p\xf1\xbdc^\x84\xf1?"\x88LL\xf9D\x06\xc0~w\r\xe9m\x0f\x19@'
p3492
tp3493
bas(g2033
g2025
tp3494
(lp3495
g521
(g522
(I0
tp3496
g524
tp3497
Rp3498
(I1
(I3
tp3499
g531
I00
S'\xa0\x8e\xd2\x9f\x15I\xda?$\xb2\xd5q<N\x18\xc0X\xff\xd5R\xb2\x0f\x03@'
p3500
tp3501
bag521
(g522
(I0
tp3502
g524
tp3503
Rp3504
(I1
(I3
tp3505
g3107
I00
S'f\xb4\x9c\x07\xac\xbf\xec?n\x96\x96\x9e\x90n\x16\xc0uo!\xa9\x9b\x82\x07@'
p3506
tp3507
bag521
(g522
(I0
tp3508
g524
tp3509
Rp3510
(I1
(I3
tp3511
g3107
I00
S'm\xd5h\x072\x03\xea?\xdf\xe5\xe82\xd3\x17\x14\xc0\x08\x9e\xe1\xfbO\x94\x08@'
p3512
tp3513
bag521
(g522
(I0
tp3514
g524
tp3515
Rp3516
(I1
(I3
tp3517
g3107
I00
S'\xc6\x05\xbdtg\xd9\xe2?F\xdf\x9d@\\\xf3\x11\xc0\x1a\xc4.\xbb\xcc\x12\x02@'
p3518
tp3519
bag521
(g522
(I0
tp3520
g524
tp3521
Rp3522
(I1
(I3
tp3523
g3107
I00
S'3z\xed\x8eN)\xe4?\x0c\x96\xd4\xa2\x0e\xd0\r\xc0\xbd%\xf5{\xe9\xf9\x03@'
p3524
tp3525
bag521
(g522
(I0
tp3526
g524
tp3527
Rp3528
(I1
(I3
tp3529
g3107
I00
S'\xaf0\xe9h\xba~\xee?k\xbb\xd8\xd4\xd0g\t\xc09\x9ey\xed\xb06\x06@'
p3530
tp3531
bag521
(g522
(I0
tp3532
g524
tp3533
Rp3534
(I1
(I3
tp3535
g3107
I00
S'\xf4\xfdJ\x1a(#\xec?H"\x9cD\x1aE\x05\xc0.\xa9\x0b\x87\xf8\xe1\x02@'
p3536
tp3537
bas(g2031
g2025
tp3538
(lp3539
g521
(g522
(I0
tp3540
g524
tp3541
Rp3542
(I1
(I3
tp3543
g531
I00
S'\xd8[\xe1\xa4\xcf\x08\xe6?\x8d`\x1a\xe3\xb1\xdc\x1e\xc0\xe4\x92g\x8f\xd4%\x05@'
p3544
tp3545
bag521
(g522
(I0
tp3546
g524
tp3547
Rp3548
(I1
(I3
tp3549
g3107
I00
S'\x0c\x0f=\x82\xe8\x10\xef?\x95;\xd2\x17&\xe7\x1b\xc0\xf2\xbb\xbd\xb4q\x0b\t@'
p3550
tp3551
bag521
(g522
(I0
tp3552
g524
tp3553
Rp3554
(I1
(I3
tp3555
g3107
I00
S'\xae\xea\x9e\xa3\xa2\xb1\xed?\xa4\xca\x1d?h\x96\x19\xc0dq\xdf\xb1\x9d\xe4\x05@'
p3556
tp3557
bag521
(g522
(I0
tp3558
g524
tp3559
Rp3560
(I1
(I3
tp3561
g3107
I00
S'o\xd6\x82\xea\x7f\xb2\xed?9\xf2C\x0b?\xfd\x16\xc0(?d\xe9@\xb5\x02@'
p3562
tp3563
bag521
(g522
(I0
tp3564
g524
tp3565
Rp3566
(I1
(I3
tp3567
g3107
I00
S'&>c9\x01,\xeb?\xb2\xc2\xf0\x02\xce\x8e\x14\xc0\xd8p\xbb2\x14\xd2\x03@'
p3568
tp3569
bag521
(g522
(I0
tp3570
g524
tp3571
Rp3572
(I1
(I3
tp3573
g3107
I00
S'\xc6\x05\xbdtg\xd9\xe2?F\xdf\x9d@\\\xf3\x11\xc0\x1a\xc4.\xbb\xcc\x12\x02@'
p3574
tp3575
bag521
(g522
(I0
tp3576
g524
tp3577
Rp3578
(I1
(I3
tp3579
g3107
I00
S'3z\xed\x8eN)\xe4?\x0c\x96\xd4\xa2\x0e\xd0\r\xc0\xbd%\xf5{\xe9\xf9\x03@'
p3580
tp3581
bag521
(g522
(I0
tp3582
g524
tp3583
Rp3584
(I1
(I3
tp3585
g3107
I00
S'\xaf0\xe9h\xba~\xee?k\xbb\xd8\xd4\xd0g\t\xc09\x9ey\xed\xb06\x06@'
p3586
tp3587
bag521
(g522
(I0
tp3588
g524
tp3589
Rp3590
(I1
(I3
tp3591
g3107
I00
S'\xf4\xfdJ\x1a(#\xec?H"\x9cD\x1aE\x05\xc0.\xa9\x0b\x87\xf8\xe1\x02@'
p3592
tp3593
bas(g2782
g2025
tp3594
(lp3595
g521
(g522
(I0
tp3596
g524
tp3597
Rp3598
(I1
(I3
tp3599
g531
I00
S'\xaa\x91d&]\xf4\r@\x02\x16bSUi\x19\xc0R\x945\x02\x9f|\x11@'
p3600
tp3601
bag521
(g522
(I0
tp3602
g524
tp3603
Rp3604
(I1
(I3
tp3605
g3107
I00
S'\x9c\xd4w\x9c\x04/\t@\x8b\xccu\xcb^\x9d\x18\xc0*\x8aycbt\xf5\xbf'
p3606
tp3607
bag521
(g522
(I0
tp3608
g524
tp3609
Rp3610
(I1
(I3
tp3611
g3107
I00
S'\x02:\xde\x84?\xc0\x03@\x16\xfaJE\x8a\x0f\x19\xc0\x13\xc0\x8b\x01\x1d?\xf4\xbf'
p3612
tp3613
bag521
(g522
(I0
tp3614
g524
tp3615
Rp3616
(I1
(I3
tp3617
g3107
I00
S'!\x83\xc0\xf3W\x85\xff?\xed\x8f\x90/y\xfd\x16\xc06jP\xfe\x98\xf5\xf4\xbf'
p3618
tp3619
bag521
(g522
(I0
tp3620
g524
tp3621
Rp3622
(I1
(I3
tp3623
g3107
I00
S'2Z\xe1\xe97J\xf6?\\\x1e`@2v\x16\xc0\xc4\x0c\xcc\x14<\xf9\xf6\xbf'
p3624
tp3625
bag521
(g522
(I0
tp3626
g524
tp3627
Rp3628
(I1
(I3
tp3629
g3107
I00
S'tx\x8as\xa8b\xed?\x9ej\x15\xfa\xf0{\x15\xc0@\xed\x9a-\x9eD\xf2\xbf'
p3630
tp3631
bag521
(g522
(I0
tp3632
g524
tp3633
Rp3634
(I1
(I3
tp3635
g3107
I00
S"\xb2&6mg)\xe8?\x99\xe0G'\x16\xe0\x13\xc0\xc8oL\xf5\x17p\xe6\xbf"
p3636
tp3637
bag521
(g522
(I0
tp3638
g524
tp3639
Rp3640
(I1
(I3
tp3641
g3107
I00
S'`\xc8Aw-\x81\xeb?/\xc3\xe6O\x04\xca\x10\xc0\x8a\xb7K)\x91{\xe4\xbf'
p3642
tp3643
bag521
(g522
(I0
tp3644
g524
tp3645
Rp3646
(I1
(I3
tp3647
g3107
I00
S'\xe1\xc6\xc7\xa7\x12X\xe7?\x98\x99\xb0\x9a\xfb\xdb\x0b\xc0R\t\x1b)\xeae\xe0\xbf'
p3648
tp3649
bag521
(g522
(I0
tp3650
g524
tp3651
Rp3652
(I1
(I3
tp3653
g3107
I00
S'p\xf1\xbdc^\x84\xf1?"\x88LL\xf9D\x06\xc0~w\r\xe9m\x0f\x19@'
p3654
tp3655
bas(g2024
g2025
tp3656
(lp3657
g521
(g522
(I0
tp3658
g524
tp3659
Rp3660
(I1
(I3
tp3661
g531
I00
S'\xd6\x9e\x88\x0e\xab1\xd6?\xd1\xc5\xc4\xc3\xe0;\x17\xc0\xa7\xbc\x016\xe1Z\xd2?'
p3662
tp3663
bag521
(g522
(I0
tp3664
g524
tp3665
Rp3666
(I1
(I3
tp3667
g3107
I00
S'\xe4\x9e\xb7\xac\xe0!\xeb?\x8a\x83\x10\xb1\xa2\xad\x15\xc0\x9aS\xfbY\xaf\x8f\xd2\xbf'
p3668
tp3669
bag521
(g522
(I0
tp3670
g524
tp3671
Rp3672
(I1
(I3
tp3673
g3107
I00
S"\xb2&6mg)\xe8?\x99\xe0G'\x16\xe0\x13\xc0\xc8oL\xf5\x17p\xe6\xbf"
p3674
tp3675
bag521
(g522
(I0
tp3676
g524
tp3677
Rp3678
(I1
(I3
tp3679
g3107
I00
S'`\xc8Aw-\x81\xeb?/\xc3\xe6O\x04\xca\x10\xc0\x8a\xb7K)\x91{\xe4\xbf'
p3680
tp3681
bag521
(g522
(I0
tp3682
g524
tp3683
Rp3684
(I1
(I3
tp3685
g3107
I00
S'\xe1\xc6\xc7\xa7\x12X\xe7?\x98\x99\xb0\x9a\xfb\xdb\x0b\xc0R\t\x1b)\xeae\xe0\xbf'
p3686
tp3687
bag521
(g522
(I0
tp3688
g524
tp3689
Rp3690
(I1
(I3
tp3691
g3107
I00
S'p\xf1\xbdc^\x84\xf1?"\x88LL\xf9D\x06\xc0~w\r\xe9m\x0f\x19@'
p3692
tp3693
bassg1244
(dp3694
(g2038
g2025
tp3695
(lp3696
Vsquare_packing_box4
p3697
aVrectangular_packing_box2
p3698
as(g2034
g2025
tp3699
(lp3700
Vsquare_packing_box2
p3701
aVrectangular_packing_box2
p3702
as(g2040
g2025
tp3703
(lp3704
Vrectangular_packing_box2
p3705
as(g2027
g2025
tp3706
(lp3707
Vrectangular_packing_box4
p3708
aVrectangular_packing_box2
p3709
as(g2033
g2025
tp3710
(lp3711
Vrectangular_packing_box2
p3712
as(g2031
g2025
tp3713
(lp3714
Vrectangular_packing_box3
p3715
aVrectangular_packing_box2
p3716
as(g2782
g2025
tp3717
(lp3718
Vrectangular_packing_box4
p3719
aVrectangular_packing_box2
p3720
as(g2024
g2025
tp3721
(lp3722
Vsquare_packing_box2
p3723
assg1265
(lp3724
g3064
ag3065
ag3066
ag3067
ag3068
ag3069
ag3118
ag3119
asg1267
(dp3725
Vrectangular_packing_box4
p3726
g911
((lp3727
I2
aI179
aI435
aI144
aI403
aI548
aI37
aI38
aI39
aI220
aI302
aI303
aI561
aI178
aI307
aI54
aI442
aI62
aI63
aI64
aI577
aI194
aI438
aI248
aI342
aI343
aI89
aI90
aI219
aI348
aI605
aI611
aI612
aI550
aI367
aI114
aI500
aI247
aI376
aI377
aI379
aI511
atp3728
Rp3729
sVrectangular_packing_box2
p3730
g911
((lp3731
I107
aI132
aI517
aI8
aI416
aI33
aI34
aI554
aI43
aI44
aI301
aI456
aI55
aI56
aI186
aI187
aI189
aI449
aI203
aI196
aI71
aI584
aI202
aI459
aI162
aI93
aI94
aI95
aI327
aI484
aI233
aI106
aI235
aI108
aI497
aI234
atp3732
Rp3733
sVrectangular_packing_box3
p3734
g911
((lp3735
I4
aI5
aI134
aI136
aI137
aI523
aI276
aI132
aI157
aI133
aI34
aI35
aI165
aI166
aI296
aI176
aI456
aI308
aI310
aI570
aI262
aI197
aI70
aI584
aI162
aI81
aI82
aI163
aI84
aI597
aI93
aI607
aI355
aI107
aI83
aI251
aI252
atp3736
Rp3737
sVrectangular_packing_box1
p3738
g911
((lp3739
I257
aI164
aI229
aI583
aI328
aI265
aI356
aI589
aI366
aI580
aI158
aI564
aI532
aI502
aI452
aI159
aI478
aI575
atp3740
Rp3741
sVsquare_packing_box2
p3742
g911
((lp3743
I417
aI139
aI198
aI7
aI424
aI138
aI491
aI349
aI275
aI350
aI503
aI152
aI249
aI351
aI362
aI153
aI383
atp3744
Rp3745
sVsquare_packing_box3
p3746
g911
((lp3747
I268
aI270
aI405
aI280
aI548
aI307
aI565
aI438
aI442
aI193
aI210
aI211
aI212
aI213
aI343
aI473
aI220
aI479
aI354
aI614
aI500
aI245
aI246
aI381
aI254
atp3748
Rp3749
sVsquare_packing_box1
p3750
g911
((lp3751
I0
aI1
aI546
aI474
aI545
aI555
aI367
aI368
aI369
aI370
aI403
aI342
aI371
aI377
aI378
aI571
aI541
atp3752
Rp3753
sVsquare_packing_box4
p3754
g911
((lp3755
I452
aI229
aI553
aI394
aI589
aI356
aI580
aI502
aI164
aI155
aI478
aI575
atp3756
Rp3757
ssg2
g2774
sg505
g3063
sg1301
(dp3758
sg1303
Nsg1304
(lp3759
sg1306
(dp3760
sg1309
g3063
sg1308
I0
sg7
Nsg1316
Nsg1317
I01
sbsg1318
(dp3761
g3064
(lp3762
g521
(g522
(I0
tp3763
g524
tp3764
Rp3765
(I1
(I3
tp3766
g531
I00
S'\x0c\x8d\xed]E\x13\x05@}\xe3=\x86jC\x1d\xc0\x8d}i\xe8\xda\xae\xe0?'
p3767
tp3768
bag521
(g522
(I0
tp3769
g524
tp3770
Rp3771
(I1
(I3
tp3772
g3107
I00
S'b\x95[\xf7r*\x00@:\x8f7a\xbf]\x1c\xc0\x98.\xce\xc6\x89M\xf2?'
p3773
tp3774
bag521
(g522
(I0
tp3775
g524
tp3776
Rp3777
(I1
(I3
tp3778
g3107
I00
S'\xb9\x81\xdfb\xdf\x92\xfe?\x1a\xe3?2\xb6\xec\x1a\xc0B\x1b\x81\xfa\x93C\xfa?'
p3779
tp3780
bag521
(g522
(I0
tp3781
g524
tp3782
Rp3783
(I1
(I3
tp3784
g3107
I00
S'\x00\xda\x1c<\xfd\xdc\x00@j"\x91\xe3 \x1a\x18\xc0i~!@)\xb0\xdc\xbf'
p3785
tp3786
bag538
asg3065
(lp3787
g521
(g522
(I0
tp3788
g524
tp3789
Rp3790
(I1
(I3
tp3791
g531
I00
S'\x0c\x8d\xed]E\x13\x05@}\xe3=\x86jC\x1d\xc0\x8d}i\xe8\xda\xae\xe0?'
p3792
tp3793
bag521
(g522
(I0
tp3794
g524
tp3795
Rp3796
(I1
(I3
tp3797
g3107
I00
S'b\x95[\xf7r*\x00@:\x8f7a\xbf]\x1c\xc0\x98.\xce\xc6\x89M\xf2?'
p3798
tp3799
bag521
(g522
(I0
tp3800
g524
tp3801
Rp3802
(I1
(I3
tp3803
g3107
I00
S'\xb9\x81\xdfb\xdf\x92\xfe?\x1a\xe3?2\xb6\xec\x1a\xc0B\x1b\x81\xfa\x93C\xfa?'
p3804
tp3805
bag521
(g522
(I0
tp3806
g524
tp3807
Rp3808
(I1
(I3
tp3809
g3107
I00
S'\xc6\xf1T\x16)\x02\xfe?\xa8\x7fQ\xf5\xbb\x10\x19\xc0\xa38\tS\x83\x84\x05@'
p3810
tp3811
bag618
asg3066
(lp3812
g521
(g522
(I0
tp3813
g524
tp3814
Rp3815
(I1
(I3
tp3816
g531
I00
S'\x0c\x8d\xed]E\x13\x05@}\xe3=\x86jC\x1d\xc0\x8d}i\xe8\xda\xae\xe0?'
p3817
tp3818
bag521
(g522
(I0
tp3819
g524
tp3820
Rp3821
(I1
(I3
tp3822
g3107
I00
S'b\x95[\xf7r*\x00@:\x8f7a\xbf]\x1c\xc0\x98.\xce\xc6\x89M\xf2?'
p3823
tp3824
bag521
(g522
(I0
tp3825
g524
tp3826
Rp3827
(I1
(I3
tp3828
g3107
I00
S'\xa4\xc8\xcc\x88S\x9f\xf6?N\xeaYik!\x1e\xc0\x00W\xeas\x1a)\xfa?'
p3829
tp3830
bag521
(g522
(I0
tp3831
g524
tp3832
Rp3833
(I1
(I3
tp3834
g3107
I00
S'r\xb4\xd66\xb5:\xe6?4\xd2\xb3\xd8Ho\x1f\xc0\x0f\xf8\x05\x85\xe9\x10\x00@'
p3835
tp3836
bag521
(g522
(I0
tp3837
g524
tp3838
Rp3839
(I1
(I3
tp3840
g3107
I00
S'\x138\xde\xf8\x80\xc4\xdb?\xb0\xa4\x99\x1dq\x81\x1c\xc0\xc06d\xa1\x11\xde\x10@'
p3841
tp3842
bag521
(g522
(I0
tp3843
g524
tp3844
Rp3845
(I1
(I3
tp3846
g3107
I00
S'\xc0T\xe2\x97\xaf3h\xbfv\xa30\xd5\xeb\xd1\x1a\xc0\x8a\rz\xc6\xa6z\x04@'
p3847
tp3848
bag521
(g522
(I0
tp3849
g524
tp3850
Rp3851
(I1
(I3
tp3852
g3107
I00
S'\x94<e\xf2\x0c\xec\xce?\x96\x12\xae\x90\xe8(\x19\xc0\x0c\n*\xba\xfbb\x16@'
p3853
tp3854
bag662
asg3067
(lp3855
g521
(g522
(I0
tp3856
g524
tp3857
Rp3858
(I1
(I3
tp3859
g531
I00
S'\x0c\x8d\xed]E\x13\x05@}\xe3=\x86jC\x1d\xc0\x8d}i\xe8\xda\xae\xe0?'
p3860
tp3861
bag521
(g522
(I0
tp3862
g524
tp3863
Rp3864
(I1
(I3
tp3865
g3107
I00
S'\xb9O\xa7Y\x02\x91\x00@\x96d\x95\x0e\xe6\xda\x1e\xc0l\xef\x8e\x11Rk\xeb?'
p3866
tp3867
bag521
(g522
(I0
tp3868
g524
tp3869
Rp3870
(I1
(I3
tp3871
g3107
I00
S'%F<\xa3\xac]\xf5?\xe8w&\x87\x9b;\x1e\xc0\xfe\xbe\xc2\xaf\x89\xaa\x18@'
p3872
tp3873
bag682
asg3068
(lp3874
g521
(g522
(I0
tp3875
g524
tp3876
Rp3877
(I1
(I3
tp3878
g531
I00
S'\x0c\x8d\xed]E\x13\x05@}\xe3=\x86jC\x1d\xc0\x8d}i\xe8\xda\xae\xe0?'
p3879
tp3880
bag521
(g522
(I0
tp3881
g524
tp3882
Rp3883
(I1
(I3
tp3884
g3107
I00
S'b\x95[\xf7r*\x00@:\x8f7a\xbf]\x1c\xc0\x98.\xce\xc6\x89M\xf2?'
p3885
tp3886
bag521
(g522
(I0
tp3887
g524
tp3888
Rp3889
(I1
(I3
tp3890
g3107
I00
S'\xa4\xc8\xcc\x88S\x9f\xf6?N\xeaYik!\x1e\xc0\x00W\xeas\x1a)\xfa?'
p3891
tp3892
bag521
(g522
(I0
tp3893
g524
tp3894
Rp3895
(I1
(I3
tp3896
g3107
I00
S'r\xb4\xd66\xb5:\xe6?4\xd2\xb3\xd8Ho\x1f\xc0\x0f\xf8\x05\x85\xe9\x10\x00@'
p3897
tp3898
bag521
(g522
(I0
tp3899
g524
tp3900
Rp3901
(I1
(I3
tp3902
g3107
I00
S'\x138\xde\xf8\x80\xc4\xdb?\xb0\xa4\x99\x1dq\x81\x1c\xc0\xc06d\xa1\x11\xde\x10@'
p3903
tp3904
bag521
(g522
(I0
tp3905
g524
tp3906
Rp3907
(I1
(I3
tp3908
g3107
I00
S'\xc0T\xe2\x97\xaf3h\xbfv\xa30\xd5\xeb\xd1\x1a\xc0\x8a\rz\xc6\xa6z\x04@'
p3909
tp3910
bag732
asg3069
g3094
sg3118
(lp3911
g521
(g522
(I0
tp3912
g524
tp3913
Rp3914
(I1
(I3
tp3915
g531
I00
S'\x0c\x8d\xed]E\x13\x05@}\xe3=\x86jC\x1d\xc0\x8d}i\xe8\xda\xae\xe0?'
p3916
tp3917
bag521
(g522
(I0
tp3918
g524
tp3919
Rp3920
(I1
(I3
tp3921
g3107
I00
S'b\x95[\xf7r*\x00@:\x8f7a\xbf]\x1c\xc0\x98.\xce\xc6\x89M\xf2?'
p3922
tp3923
bag521
(g522
(I0
tp3924
g524
tp3925
Rp3926
(I1
(I3
tp3927
g3107
I00
S'\xb1\x91\x83\xd6J:\x00@X\xbf\x9b\xa3\xf7;\x19\xc0\xb4\xa9\x94\xff\xff\xd1\xec?'
p3928
tp3929
bag521
(g522
(I0
tp3930
g524
tp3931
Rp3932
(I1
(I3
tp3933
g3107
I00
S'\xfe\xe8\x18\xb9\x80t\x02@\xc8\xc9\x8bB\xfe\x86\x16\xc0\x19\xcf\xcc\xc3%!\x9e\xbf'
p3934
tp3935
bag818
asg3119
(lp3936
g521
(g522
(I0
tp3937
g524
tp3938
Rp3939
(I1
(I3
tp3940
g531
I00
S'\x0c\x8d\xed]E\x13\x05@}\xe3=\x86jC\x1d\xc0\x8d}i\xe8\xda\xae\xe0?'
p3941
tp3942
bag521
(g522
(I0
tp3943
g524
tp3944
Rp3945
(I1
(I3
tp3946
g3107
I00
S'\tAsXx\r\x00@F^\x05/\xfdK\x1d\xc0~\xbbB\x0f\xbe\xe6\xd2?'
p3947
tp3948
bag521
(g522
(I0
tp3949
g524
tp3950
Rp3951
(I1
(I3
tp3952
g3107
I00
S'\xad\xa0\xdfFH\xe9\xf6?\xa3\xfc\x14D\x8bb\x1d\xc0\x9e2hH\xc0\xe5\xf0?'
p3953
tp3954
bag521
(g522
(I0
tp3955
g524
tp3956
Rp3957
(I1
(I3
tp3958
g3107
I00
S'j\x90aN\xc4\xbd\xea?\xe8\x8a\xf4\xd5\xa3\x14\x1f\xc0\x8d)|\x00uw\xe1\xbf'
p3959
tp3960
bag521
(g522
(I0
tp3961
g524
tp3962
Rp3963
(I1
(I3
tp3964
g3107
I00
S'\x138\xde\xf8\x80\xc4\xdb?\xb0\xa4\x99\x1dq\x81\x1c\xc0\xc06d\xa1\x11\xde\x10@'
p3965
tp3966
bag868
assg1267
(dp3967
(Vsquare_packing_box2
p3968
(g1322
(g557
S'?8\x9f:V)\xcb\xbf'
p3969
tp3970
Rp3971
g1322
(g557
S'\x18\xd0\x0bw.<\x17\xc0'
p3972
tp3973
Rp3974
g1322
(g557
S'\x1d\x940\xd3\xf6\x0f\x06@'
p3975
tp3976
Rp3977
tp3978
tp3979
g3745
s(Vrectangular_packing_box3
p3980
(g1322
(g557
S'\xab\x94\x9e\xe9%\xc6\xec?'
p3981
tp3982
Rp3983
g1322
(g557
S'"\xc6k^\xd5y\x1a\xc0'
p3984
tp3985
Rp3986
g1322
(g557
S'~\xc5\x1a.r\xaf\x0f@'
p3987
tp3988
Rp3989
tp3990
tp3991
g3737
s(Vrectangular_packing_box1
p3992
(g1322
(g557
S'\xc2\x16\xbb}V\x99\xc3\xbf'
p3993
tp3994
Rp3995
g1322
(g557
S'\xdch\x00o\x81\xe4\x1e\xc0'
p3996
tp3997
Rp3998
g1322
(g557
S'3\x15\xe2\x91xy\x07@'
p3999
tp4000
Rp4001
tp4002
tp4003
g3741
s(Vsquare_packing_box4
p4004
(g1322
(g557
S']\x87jJ\xb2\x0e\xd9\xbf'
p4005
tp4006
Rp4007
g1322
(g557
S'\xa3\xc9\xc5\x18X\x97\x1c\xc0'
p4008
tp4009
Rp4010
g1322
(g557
S'\xf4\xc2\x9d\x0b#\xed\x10@'
p4011
tp4012
Rp4013
tp4014
tp4015
g3757
s(Vsquare_packing_box3
p4016
(g1322
(g557
S'of\xf4\xa3\xe1\x14\x0c@'
p4017
tp4018
Rp4019
g1322
(g557
S'\xc2\xbe\x9dD\x84\xbf\x1c\xc0'
p4020
tp4021
Rp4022
g1322
(g557
S'\xb4wF[\x95T\x12@'
p4023
tp4024
Rp4025
tp4026
tp4027
g3749
s(Vrectangular_packing_box4
p4028
(g1322
(g557
S'y\x07x\xd2\xc2e\x07@'
p4029
tp4030
Rp4031
g1322
(g557
S'\x7fNA~6r\x19\xc0'
p4032
tp4033
Rp4034
g1322
(g557
S'\xf0P\x14\xe8\x13\x19\x0b@'
p4035
tp4036
Rp4037
tp4038
tp4039
g3729
s(Vsquare_packing_box1
p4040
(g1322
(g557
S'n\xa4l\x91\xb4[\r@'
p4041
tp4042
Rp4043
g1322
(g557
S'\xa6(\x97\xc6/|\x16\xc0'
p4044
tp4045
Rp4046
g1322
(g557
S'R\xd2\xc3\xd0\xea\x04\x0b@'
p4047
tp4048
Rp4049
tp4050
tp4051
g3753
s(Vrectangular_packing_box2
p4052
(g1322
(g557
S'\xc1n\xd8\xb6(s\xf1?'
p4053
tp4054
Rp4055
g1322
(g557
S'\x03\x07\xb4t\x05\x9b\x16\xc0'
p4056
tp4057
Rp4058
g1322
(g557
S'7\x8eX\x8bOa\x07@'
p4059
tp4060
Rp4061
tp4062
tp4063
g3733
ssg1418
(igtamp_utils.utils
CustomStateSaver
p4064
(dp4065
g1421
g521
(g522
(I0
tp4066
g524
tp4067
Rp4068
(I1
(I1
I3
tp4069
g531
I00
S'\x0c\x8d\xed]E\x13\x05@~\xe3=\x86jC\x1d\xc0\x8d}i\xe8\xda\xae\xe0?'
p4070
tp4071
bsg1428
Nsg1429
S'pr2'
p4072
sg1431
I1
sg957
(dp4073
Vc_obst5
p4074
g521
(g522
(I0
tp4075
g524
tp4076
Rp4077
(I1
(I4
tp4078
g531
I00
S"\xfb\x0cU\xc7\xd9\x98\x12@\xb2<\xe9DB\xba\xe0?e\xaa`TR'\xed?}\x06{Ld\xa8\x15@"
p4079
tp4080
bsVcan
p4081
g521
(g522
(I0
tp4082
g524
tp4083
Rp4084
(I1
(I4
tp4085
g531
I00
S'\x00\x00\x00\x00\x00\x00\xf4\xbfH\xe1z\x14\xaeG\xe1\xbf\n\xd7\xa3p=\n\xef?\x00\x00\x00\x00\x00\x00\x00\x00'
p4086
tp4087
bsVside_wall_1
p4088
g521
(g522
(I0
tp4089
g524
tp4090
Rp4091
(I1
(I4
tp4092
g531
I00
S'\xec\xff\xff\xff\xff\xff\xfb\xbf\x00\x00\x00\x00\x00\x00\x00\x00\x9c\xc4 \xb0rh\xc1?\x18-DT\xfb!\xf9?'
p4093
tp4094
bsVkitchen
p4095
g521
(g522
(I0
tp4096
g524
tp4097
Rp4098
(I1
(I4
tp4099
g531
I00
S'\x00\x00\x00\x00\x00\x00\x00\x00\x00\x00\x00\x00\x00\x00\x00\x00\x00\x00\x00\x00\x00\x00\x00\x00\x00\x00\x00\x00\x00\x00\x00\x00'
p4100
tp4101
bsVcomputer_table
p4102
g521
(g522
(I0
tp4103
g524
tp4104
Rp4105
(I1
(I4
tp4106
g531
I00
S'\x00\x00\x00\x00\x00\x00\x13@\x00\x00\x00\x00\x00\x00\xf8\xbf\x96C\x8bl\xe7\xfb\xe7?\xd2!3\x7f|\xd9\x12@'
p4107
tp4108
bsVchair_6b56
p4109
g521
(g522
(I0
tp4110
g524
tp4111
Rp4112
(I1
(I4
tp4113
g531
I00
S'y=\n\xd7\xa3p\xf5?M\xe1z\x14\xaeG\xd1?\x00\x00\x00\x00\x00\x00\x00\x00\xd6$\xfaNBm\n@'
p4114
tp4115
bsVtable
p4116
g521
(g522
(I0
tp4117
g524
tp4118
Rp4119
(I1
(I4
tp4120
g531
I00
S'\x7f\xf6#EdX\xed?\xac\xffs\x98//\xc0\xbf\x00\x00\x00\x00\x00\x00\x00\x00\x00\x00\x00\x00\x00\x00\x00\x00'
p4121
tp4122
bsVsquare_packing_box2
p4123
g521
(g522
(I0
tp4124
g524
tp4125
Rp4126
(I1
(I4
tp4127
g531
I00
S'\xf0\xf7B%Z)\xcb\xbf\xf8\x9e\x92g.<\x17\xc0L7\x89A`\xe5\xd8?k\x08\x03\x15\xf7\x0f\x06@'
p4128
tp4129
bsVsquare_packing_box3
p4130
g521
(g522
(I0
tp4131
g524
tp4132
Rp4133
(I1
(I4
tp4134
g531
I00
S'\xa6@\xb4\x99\xe1\x14\x0c@]~|0\x84\xbf\x1c\xc0L7\x89A`\xe5\xd8?\xc7\xd1Y^\x95T\x12@'
p4135
tp4136
bsVsquare_packing_box1
p4137
g521
(g522
(I0
tp4138
g524
tp4139
Rp4140
(I1
(I4
tp4141
g531
I00
S'\xb5\xf7\x17|\xb4[\r@\xde\xfd\xf5\xc3/|\x16\xc0L7\x89A`\xe5\xd8?\x8fQ`\x01\xeb\x04\x0b@'
p4142
tp4143
bsVback_wall_2
p4144
g521
(g522
(I0
tp4145
g524
tp4146
Rp4147
(I1
(I4
tp4148
g531
I00
S'\xaeG\xe1z\x14.\x13@\x80\x14\xaeG\xe1z\xc4?xX\xa85\xcd\xbb\xf2?\x00\x00\x00\x00\x00\x00\x00\x00'
p4149
tp4150
bsVchair_083c
p4151
g521
(g522
(I0
tp4152
g524
tp4153
Rp4154
(I1
(I4
tp4155
g531
I00
S'\xa4p=\n\xd7\xa3\xe0?333333\xe3\xbf\x00\x00\x00\x00\x00\x00\x00\x00\x00\x00\x00\x00\x00\x00\x00\x00'
p4156
tp4157
bsVback_wall_1
p4158
g521
(g522
(I0
tp4159
g524
tp4160
Rp4161
(I1
(I4
tp4162
g531
I00
S'\xaeG\xe1z\x14.\x13@\x80\x14\xaeG\xe1z\xc4?\xcc\x7fH\xbf}\x1d\xed?\x00\x00\x00\x00\x00\x00\x00\x00'
p4163
tp4164
bsVentrance_left
p4165
g521
(g522
(I0
tp4166
g524
tp4167
Rp4168
(I1
(I4
tp4169
g531
I00
S'\x98\x99\x99\x99\x99\x99\xe9\xbfH\xe1z\x14\xaeG\t\xc0\x9c\xc4 \xb0rh\xc1?\x00\x00\x00\x00\x00\x00\x00\x00'
p4170
tp4171
bsVcup_905a
p4172
g521
(g522
(I0
tp4173
g524
tp4174
Rp4175
(I1
(I4
tp4176
g531
I00
S'\x00\x00\x00\x00\x00\x00\xf0?\x83\xc0\xca\xa1E\xb6\xdb?\x1b/\xdd$\x06\x81\xed?\x00\x00\x00\x00\x00\x00\x00\x00'
p4177
tp4178
bsVbottom_wall_1
p4179
g521
(g522
(I0
tp4180
g524
tp4181
Rp4182
(I1
(I4
tp4183
g531
I00
S'H\xe1z\x14\xaeG\x12@\x80\x14\xaeG\xe1z\xc4?\xcc\x7fH\xbf}\x1d\xed?\x00\x00\x00\x00\x00\x00\x00\x00'
p4184
tp4185
bsVplate_496f
p4186
g521
(g522
(I0
tp4187
g524
tp4188
Rp4189
(I1
(I4
tp4190
g531
I00
S"q=\n\xd7\xa3p\xe5?\x9dhW!\xe5'\xdd\xbf\x1b/\xdd$\x06\x81\xed?\x00\x00\x00\x00\x00\x00\x00\x00"
p4191
tp4192
bsVtoaster
p4193
g521
(g522
(I0
tp4194
g524
tp4195
Rp4196
(I1
(I4
tp4197
g531
I00
S')\\\x8f\xc2\xf5(\xf4\xbf\xe0z\x14\xaeG\xe1\xf2\xbf\xb8\x1e\x85\xebQ\xb8\xee?\x89/`\x9b\xf8\x8a\xe4?'
p4198
tp4199
bsVrectangular_packing_box4
p4200
g521
(g522
(I0
tp4201
g524
tp4202
Rp4203
(I1
(I4
tp4204
g531
I00
S'\xe4W\xa7\x10\xc3e\x07@\x94}\xbeu6r\x19\xc0L7\x89A`\xe5\xd8?\xad:\x8b\x17\x14\x19\x0b@'
p4205
tp4206
bsVmicrowave
p4207
g521
(g522
(I0
tp4208
g524
tp4209
Rp4210
(I1
(I4
tp4211
g531
I00
S'\x9a\x99\x99\x99\x99\x99\xf1\xbf\x00\x00\x00\x00\x00\x00\x00@7\x89A`\xe5\xd0\xee?\x00\x00\x00\x00\x00\x00\x00\x00'
p4212
tp4213
bsVc_obst7
p4214
g521
(g522
(I0
tp4215
g524
tp4216
Rp4217
(I1
(I4
tp4218
g531
I00
S"\x86\xdccLT^\x12@p3\xe5\xc2\x99\xf8\xc1\xbfe\xaa`TR'\xed?\xca_\xe5\xb5\xbcG\x03@"
p4219
tp4220
bsVc_obst6
p4221
g521
(g522
(I0
tp4222
g524
tp4223
Rp4224
(I1
(I4
tp4225
g531
I00
S"\x06C\x0f\x90\xaeH\x12@\x00S\x1aD\xcbL\xa9?e\xaa`TR'\xed?d\x9b\xcb\x98n4\x00@"
p4226
tp4227
bsVcup_b6af
p4228
g521
(g522
(I0
tp4229
g524
tp4230
Rp4231
(I1
(I4
tp4232
g531
I00
S'R\xb8\x1e\x85\xebQ\xe8?\x9a\x99\x99\x99\x99\x99\xe1?\x1b/\xdd$\x06\x81\xed?\x00\x00\x00\x00\x00\x00\x00\x00'
p4233
tp4234
bsVc_obst4
p4235
g521
(g522
(I0
tp4236
g524
tp4237
Rp4238
(I1
(I4
tp4239
g531
I00
S"\xdd\xe0\xab\xb3\x1e\x84\x12@\xbc:\xc6M[\x1b\xcc?e\xaa`TR'\xed?\xf1'D~&\xd5\x07@"
p4240
tp4241
bsVrectangular_packing_box2
p4242
g521
(g522
(I0
tp4243
g524
tp4244
Rp4245
(I1
(I4
tp4246
g531
I00
S'\xcb\xb9\xb1\x0b)s\xf1?\x02o~q\x05\x9b\x16\xc0L7\x89A`\xe5\xd8?3\x0c\xdd\xb4Oa\x07@'
p4247
tp4248
bsVplate_fa76
p4249
g521
(g522
(I0
tp4250
g524
tp4251
Rp4252
(I1
(I4
tp4253
g531
I00
S'=\n\xd7\xa3p=\xf2?\x00\x00\x00\x00\x00\x00\x00\x00\x1b/\xdd$\x06\x81\xed?\x00\x00\x00\x00\x00\x00\x00\x00'
p4254
tp4255
bsVc_obst1
p4256
g521
(g522
(I0
tp4257
g524
tp4258
Rp4259
(I1
(I4
tp4260
g531
I00
S"L\xc7\x95$\xbfT\x12@8\xc5\n\xc1\xf2\x9d\xdd?e\xaa`TR'\xed?Q\xd7F\x8c\xaf\x93\xee?"
p4261
tp4262
bsVpin_c671
p4263
g521
(g522
(I0
tp4264
g524
tp4265
Rp4266
(I1
(I4
tp4267
g531
I00
S'\xc3\xf5(\\\x8f\xc2\xf1\xbf}?5^\xbaI\x02@\xb8\x1e\x85\xebQ\xb8\xfa?\x00\x00\x00\x00\x00\x00\x00\x00'
p4268
tp4269
bsVc_obst3
p4270
g521
(g522
(I0
tp4271
g524
tp4272
Rp4273
(I1
(I4
tp4274
g531
I00
S"<\xf2t.\xc1`\x12@\xd0\xd6\x1f\x94\xd8l\xc2?e\xaa`TR'\xed?7\x9d\xe7j\xae\x7f\x16@"
p4275
tp4276
bsVchair_2e39
p4277
g521
(g522
(I0
tp4278
g524
tp4279
Rp4280
(I1
(I4
tp4281
g531
I00
S'hfffff\xee?`fffff\xf2\xbf\x00\x00\x00\x00\x00\x00\x00\x00\x07M\xe8QQF\xf3?'
p4282
tp4283
bsVleft_wall_1
p4284
g521
(g522
(I0
tp4285
g524
tp4286
Rp4287
(I1
(I4
tp4288
g531
I00
S'H\xe1z\x14\xaeG\x12@S\xb8\x1e\x85\xebQ\xe4?\xcc\x7fH\xbf}\x1d\xed?\x00\x00\x00\x00\x00\x00\x00\x00'
p4289
tp4290
bsVtop_wall_1
p4291
g521
(g522
(I0
tp4292
g524
tp4293
Rp4294
(I1
(I4
tp4295
g531
I00
S'H\xe1z\x14\xaeG\x12@\x80\x14\xaeG\xe1z\xc4?xX\xa85\xcd\xbb\xf2?\x00\x00\x00\x00\x00\x00\x00\x00'
p4296
tp4297
bsVrectangular_packing_box3
p4298
g521
(g522
(I0
tp4299
g524
tp4300
Rp4301
(I1
(I4
tp4302
g531
I00
S'\x10<s\x1a%\xc6\xec?B\xa2\nh\xd5y\x1a\xc0L7\x89A`\xe5\xd8?\xaf\xb4\x82]r\xaf\x0f@'
p4303
tp4304
bsVshaker
p4305
g521
(g522
(I0
tp4306
g524
tp4307
Rp4308
(I1
(I4
tp4309
g531
I00
S'\n\xd7\xa3p=\n\x01@\x14\xaeG\xe1z\x14\x02@\\\x8f\xc2\xf5(\\\xef?\x00\x00\x00\x00\x00\x00\x00\x00'
p4310
tp4311
bsVplate_b4e7
p4312
g521
(g522
(I0
tp4313
g524
tp4314
Rp4315
(I1
(I4
tp4316
g531
I00
S'\x14\xaeG\xe1z\x14\xf2\xbf\x14\xaeG\xe1z\x14\x00@=\n\xd7\xa3p=\xf2?\x00\x00\x00\x00\x00\x00\x00\x00'
p4317
tp4318
bsVplate_835a
p4319
g521
(g522
(I0
tp4320
g524
tp4321
Rp4322
(I1
(I4
tp4323
g531
I00
S'\xf6(\\\x8f\xc2\xf5\xf0?\\\x8f\xc2\xf5(\\\xe7\xbf\x1b/\xdd$\x06\x81\xed?\x00\x00\x00\x00\x00\x00\x00\x00'
p4324
tp4325
bsVcup_58a2
p4326
g521
(g522
(I0
tp4327
g524
tp4328
Rp4329
(I1
(I4
tp4330
g531
I00
S'\x85\xebQ\xb8\x1e\x85\xe3?\xcd\xcc\xcc\xcc\xcc\xcc\xdc?\x1b/\xdd$\x06\x81\xed?\x00\x00\x00\x00\x00\x00\x00\x00'
p4331
tp4332
bsVknife_block
p4333
g521
(g522
(I0
tp4334
g524
tp4335
Rp4336
(I1
(I4
tp4337
g531
I00
S'R\xb8\x1e\x85\xebQ\xe0\xbfffffff\x02@`\xe5\xd0"\xdb\xf9\xee?\x00\x00\x00\x00\x00\x00\x00\x00'
p4338
tp4339
bsVc_obst2
p4340
g521
(g522
(I0
tp4341
g524
tp4342
Rp4343
(I1
(I4
tp4344
g531
I00
S"/\x08\x91\xf7\x1b;\x12@\xc0J\xa3\xd0\xed\xc9\xa3\xbfe\xaa`TR'\xed?\x9f-xb\xe8\xd3\x06@"
p4345
tp4346
bsVsquare_packing_box4
p4347
g521
(g522
(I0
tp4348
g524
tp4349
Rp4350
(I1
(I4
tp4351
g531
I00
S'\x96X2\xb2\xb1\x0e\xd9\xbf\x8a\x06\\\x12X\x97\x1c\xc0L7\x89A`\xe5\xd8?y\xda\x87\xea"\xed\x10@'
p4352
tp4353
bsVrectangular_packing_box1
p4354
g521
(g522
(I0
tp4355
g524
tp4356
Rp4357
(I1
(I4
tp4358
g531
I00
S'\xf8\xcf\x1c\x93R\x99\xc3\xbf\x1e\x8e-j\x81\xe4\x1e\xc0L7\x89A`\xe5\xd8?\x8e[\xa1wxy\x07@'
p4359
tp4360
bsVpin_371e
p4361
g521
(g522
(I0
tp4362
g524
tp4363
Rp4364
(I1
(I4
tp4365
g531
I00
S'333333\xf3\xbfffffff\xf6?\xb8\x1e\x85\xebQ\xb8\xee?\x00\x00\x00\x00\x00\x00\x00\x00'
p4366
tp4367
bsVfridge
p4368
g521
(g522
(I0
tp4369
g524
tp4370
Rp4371
(I1
(I4
tp4372
g531
I00
S'\xd7\xa3p=\n\xd7\xeb\xbf\x00\x00\x00\x00\x00\x00\x00\xc0\xcd\xcc\xcc\xcc\xcc\xcc\xf8?\x00\x00\x00\x00\x00\x00\x00\x00'
p4373
tp4374
bsVcup_d441
p4375
g521
(g522
(I0
tp4376
g524
tp4377
Rp4378
(I1
(I4
tp4379
g531
I00
S'\n\xd7\xa3p=\n\xef?\x8f\xc2\xf5(\\\x8f\xe2?\x1b/\xdd$\x06\x81\xed?\x00\x00\x00\x00\x00\x00\x00\x00'
p4380
tp4381
bsVright_wall
p4382
g521
(g522
(I0
tp4383
g524
tp4384
Rp4385
(I1
(I4
tp4386
g531
I00
S'\x9a\x99\x99\x99\x99\x99\x07@H\xe1z\x14\xaeG\xff\xbf\x9c\xc4 \xb0rh\xc1?\x00\x00\x00\x00\x00\x00\x00\x00'
p4387
tp4388
bsVshelf2
p4389
g521
(g522
(I0
tp4390
g524
tp4391
Rp4392
(I1
(I4
tp4393
g531
I00
S'\x00\x00\x00\x00\x00\x00\x0e@\xaeG\xe1z\x14\xae\x07@\x9c\xc4 \xb0rh\xc1?\xd2!3\x7f|\xd9\x12@'
p4394
tp4395
bsVshelf1
p4396
g521
(g522
(I0
tp4397
g524
tp4398
Rp4399
(I1
(I4
tp4400
g531
I00
S'\x00\x00\x00\x00\x00\x00\x13@\xaeG\xe1z\x14\xae\x07@\x9c\xc4 \xb0rh\xc1?\xd2!3\x7f|\xd9\x12@'
p4401
tp4402
bsVsink
p4403
g521
(g522
(I0
tp4404
g524
tp4405
Rp4406
(I1
(I4
tp4407
g531
I00
S'ffffff\xd6?333333\x01@\x9a\x99\x99\x99\x99\x99\xb9\xbf\x00\x00\x00\x00\x00\x00\x00\x00'
p4408
tp4409
bsVpr2
p4410
g521
(g522
(I0
tp4411
g524
tp4412
Rp4413
(I1
(I4
tp4414
g531
I00
S'\x0c\x8d\xed]E\x13\x05@~\xe3=\x86jC\x1d\xc0\x9a_\x94\xa0\xbf\xd0\xc1?\x8d}i\xe8\xda\xae\xe0?'
p4415
tp4416
bsVright_wall_1
p4417
g521
(g522
(I0
tp4418
g524
tp4419
Rp4420
(I1
(I4
tp4421
g531
I00
S'H\xe1z\x14\xaeG\x12@&\\\x8f\xc2\xf5(\xd4\xbf\xcc\x7fH\xbf}\x1d\xed?\x00\x00\x00\x00\x00\x00\x00\x00'
p4422
tp4423
bsVright_wall_2
p4424
g521
(g522
(I0
tp4425
g524
tp4426
Rp4427
(I1
(I4
tp4428
g531
I00
S'H\xe1z\x14\xaeG\x12@&\\\x8f\xc2\xf5(\xd4\xbfxX\xa85\xcd\xbb\xf2?\x00\x00\x00\x00\x00\x00\x00\x00'
p4429
tp4430
bsVbottom_wall
p4431
g521
(g522
(I0
tp4432
g524
tp4433
Rp4434
(I1
(I4
tp4435
g531
I00
S'\x00\x00\x00\x00\x00\x00\xfc?\x00\x00\x00\x00\x00\x00\x00\x00\x00\x00\x00\x00\x00\x00\x00\x00\x00\x00\x00\x00\x00\x00\x00\x00'
p4436
tp4437
bsVleft_wall_2
p4438
g521
(g522
(I0
tp4439
g524
tp4440
Rp4441
(I1
(I4
tp4442
g531
I00
S'H\xe1z\x14\xaeG\x12@S\xb8\x1e\x85\xebQ\xe4?xX\xa85\xcd\xbb\xf2?\x00\x00\x00\x00\x00\x00\x00\x00'
p4443
tp4444
bsVleft_wall
p4445
g521
(g522
(I0
tp4446
g524
tp4447
Rp4448
(I1
(I4
tp4449
g531
I00
S'\x9a\x99\x99\x99\x99\x99\x07@H\xe1z\x14\xaeG\xff?\x9c\xc4 \xb0rh\xc1?\x00\x00\x00\x00\x00\x00\x00\x00'
p4450
tp4451
bsVfloorwalls
p4452
g521
(g522
(I0
tp4453
g524
tp4454
Rp4455
(I1
(I4
tp4456
g531
I00
S'\xc7\xcc\xcc\xcc\xcc\xcc\xfc?\x00\x00\x00\x00\x00\x00\x18\xc0H\xe1z\x14\xaeG\xc1?\x16-DT\xfb!\xf9?'
p4457
tp4458
bsVtable2
p4459
g521
(g522
(I0
tp4460
g524
tp4461
Rp4462
(I1
(I4
tp4463
g531
I00
S'\x00\x00\x00\x00\x00\x00\x13@\x80\x14\xaeG\xe1z\xc4?S\x96!\x8euq\xec?\xd2!3\x7f|\xd9\x12@'
p4464
tp4465
bsVentrance_right
p4466
g521
(g522
(I0
tp4467
g524
tp4468
Rp4469
(I1
(I4
tp4470
g531
I00
S'ffffff\n@H\xe1z\x14\xaeG\t\xc0\x9c\xc4 \xb0rh\xc1?\x00\x00\x00\x00\x00\x00\x00\x00'
p4471
tp4472
bsVcooker
p4473
g521
(g522
(I0
tp4474
g524
tp4475
Rp4476
(I1
(I4
tp4477
g531
I00
S'\xaeG\xe1z\x14\xae\xff?\x85\xebQ\xb8\x1e\x85\xfb?\x00\x00\x00\x00\x00\x00\xe8?\x00\x00\x00\x00\x00\x00\x00\x00'
p4478
tp4479
bsVpin_a091
p4480
g521
(g522
(I0
tp4481
g524
tp4482
Rp4483
(I1
(I4
tp4484
g531
I00
S'\xdb\xf9~j\xbct\xf7\xbf)\\\x8f\xc2\xf5(\x02@\xb8\x1e\x85\xebQ\xb8\xfa?\x00\x00\x00\x00\x00\x00\x00\x00'
p4485
tp4486
bsVside_wall_2
p4487
g521
(g522
(I0
tp4488
g524
tp4489
Rp4490
(I1
(I4
tp4491
g531
I00
S'\xf6\xff\xff\xff\xff\xff\x14@\x00\x00\x00\x00\x00\x00\x00\x00\x9c\xc4 \xb0rh\xc1?\x18-DT\xfb!\xf9?'
p4492
tp4493
bsVside_wall_3
p4494
g521
(g522
(I0
tp4495
g524
tp4496
Rp4497
(I1
(I4
tp4498
g531
I00
S'\x00\x00\x00\x00\x00\x00\xfc?H\xe1z\x14\xaeG\t@\x9c\xc4 \xb0rh\xc1?\x00\x00\x00\x00\x00\x00\x00\x00'
p4499
tp4500
bsVmixer
p4501
g521
(g522
(I0
tp4502
g524
tp4503
Rp4504
(I1
(I4
tp4505
g531
I00
S'\n\xd7\xa3p=\n\xfb?ffffff\x02@d;\xdfO\x8d\x97\xee?\x00\x00\x00\x00\x00\x00\x00\x00'
p4506
tp4507
bsVtop_wall_2
p4508
g521
(g522
(I0
tp4509
g524
tp4510
Rp4511
(I1
(I4
tp4512
g531
I00
S'H\xe1z\x14\xaeG\x12@\x80\x14\xaeG\xe1z\xc4?\x16HP\xfc\x18\xf3\xfd?\x00\x00\x00\x00\x00\x00\x00\x00'
p4513
tp4514
bsVc_obst0
p4515
g521
(g522
(I0
tp4516
g524
tp4517
Rp4518
(I1
(I4
tp4519
g531
I00
S"+\xfaNdK\x8d\x12@\xd6\xc9\xae\xcd\x92\xaa\xd8?e\xaa`TR'\xed?|\xc5a\x89\xcc\x04\xfd?"
p4520
tp4521
bsVc_obst9
p4522
g521
(g522
(I0
tp4523
g524
tp4524
Rp4525
(I1
(I4
tp4526
g531
I00
S"\xba\xd7J\xeb\xcd\x16\x12@\x00\xb2\x8f\xffx\xbf\xb9\xbfe\xaa`TR'\xed?j\xff\x18\x95\xb3\xe1\x05@"
p4527
tp4528
bsVc_obst8
p4529
g521
(g522
(I0
tp4530
g524
tp4531
Rp4532
(I1
(I4
tp4533
g531
I00
S"\xf7\xe1\xc5\x9b\x12W\x12@\xe8\xec\x9fR\xa8I\xd4?e\xaa`TR'\xed?\x80\xce\xdbNMi\x18@"
p4534
tp4535
bsVcoffe_machine
p4536
g521
(g522
(I0
tp4537
g524
tp4538
Rp4539
(I1
(I4
tp4540
g531
I00
S'\\\x8f\xc2\xf5(\\\xf5\xbf\xb8\x1e\x85\xebQ\xb8\xee?\n\xd7\xa3p=\n\xef?\x00\x00\x00\x00\x00\x00\x00\x00'
p4541
tp4542
bsVchair_12d0
p4543
g521
(g522
(I0
tp4544
g524
tp4545
Rp4546
(I1
(I4
tp4547
g531
I00
S'^\xd2\x18\xad\xa3\xaa\xdb?Pf\x83L2r\xc6?\x00\x00\x00\x00\x00\x00\x00\x00\xf8\x81\r\x14M\xa6\x17@'
p4548
tp4549
bsVcomputer_chair
p4550
g521
(g522
(I0
tp4551
g524
tp4552
Rp4553
(I1
(I4
tp4554
g531
I00
S'\xcd\xcc\xcc\xcc\xcc\xcc\x10@\x00\x00\x00\x00\x00\x00\xf8\xbf\xa00\xb6\x10\xe4\xa9\x95\xbf\x00\x00\x00\x00\x00\x00\x00\x00'
p4555
tp4556
bssg1916
g521
(g522
(I0
tp4557
g524
tp4558
Rp4559
(I1
(I39
tp4560
g531
I00
S'\x00\x00\x00\x00\x00\x00\x00\x00\x00\x00\x00\x00\x00\x00\x00\x00\x00\x00\x00\x00\x00\x00\x00\x00\x00\x00\x00\x00\x00\x00\x00\x00\x00\x00\x00\x00\x00\x00\x00\x00\x00\x00\x00\x00\x00\x00\x00\x00\x00\x00\x00\x00\x00\x00\x00\x00\x00\x00\x00\x00\x00\x00\x00\x00\x00\x00\x00\x00\x00\x00\x00\x00\x00\x00\x00\x00\x00\x00\x00\x00\x00\x00\x00\x00\x00\x00\x00\x00\x00\x00\x00\x00\x00\x00\x00\x00@d;\xdfO\x8d\x87?\x00\x00\x00\x00\x00\x00\x00\x00\x00\x00\x00\x00\x00\x00\x00\x00\x00\x00\x00\x00\x00\x00\x00\x00\xec\xed\t\xf1\xcc\xa4\xf4?\x00\x00\x00\x00\x00\x00\xc0<O"\xd0^p\xf8\x00\xc0\x00\x00\x00\x00\x00\x00\x00\x00\x9a\x03\r.\x04V\xe6\xbf\x00\x00\x00\x00\x00\x00\x00\x00\x00\x00\x00\x00\x00\x00\x00\x00\x00\x00\x00\x00\x00\x80\xd7\xbc\x04\x17\xb7\x19\xbc\xde\xba\xbc\x00\x00\x00\x00\x00\x00\xe8<\x00\x00\x00\x00\x00\x00\x00\x00\x00\x00\x00\x00\x00\x00\x00\x00\xec\xed\t\xf1\xcc\xa4\xf4?\x00\x00\x00\x00\x00\x00\xc0\xbcN"\xd0^p\xf8\x00\xc0\x00\x00\x00\x00\x00\x00\x00\x00\xa2\x03\r.\x04V\xe6\xbf\x00\x00\x00\x00\x00\x00\x00\x00\xcd9\xe3\xc17\x89\xe1?\x00\x00\x00\x00\x00\x00\xac\xbcRT\xaf\x99\x8a\xcc\xa3\xbc\x00\x00\x00\x00\x00\x00\x00\x00\x00\x00\x00\x00\x00\x00\x00\x00'
p4561
tp4562
bsg1923
I00
sbsg1924
(dp4563
(Vsquare_packing_box2
p4564
(g1322
(g557
S'?8\x9f:V)\xcb\xbf'
p4565
tp4566
Rp4567
g1322
(g557
S'\x18\xd0\x0bw.<\x17\xc0'
p4568
tp4569
Rp4570
g1322
(g557
S'\x1d\x940\xd3\xf6\x0f\x06@'
p4571
tp4572
Rp4573
tp4574
tp4575
g3149
s(Vrectangular_packing_box3
p4576
(g1322
(g557
S'\xab\x94\x9e\xe9%\xc6\xec?'
p4577
tp4578
Rp4579
g1322
(g557
S'"\xc6k^\xd5y\x1a\xc0'
p4580
tp4581
Rp4582
g1322
(g557
S'~\xc5\x1a.r\xaf\x0f@'
p4583
tp4584
Rp4585
tp4586
tp4587
g3141
s(Vrectangular_packing_box1
p4588
(g1322
(g557
S'\xc2\x16\xbb}V\x99\xc3\xbf'
p4589
tp4590
Rp4591
g1322
(g557
S'\xdch\x00o\x81\xe4\x1e\xc0'
p4592
tp4593
Rp4594
g1322
(g557
S'3\x15\xe2\x91xy\x07@'
p4595
tp4596
Rp4597
tp4598
tp4599
g3145
s(Vsquare_packing_box4
p4600
(g1322
(g557
S']\x87jJ\xb2\x0e\xd9\xbf'
p4601
tp4602
Rp4603
g1322
(g557
S'\xa3\xc9\xc5\x18X\x97\x1c\xc0'
p4604
tp4605
Rp4606
g1322
(g557
S'\xf4\xc2\x9d\x0b#\xed\x10@'
p4607
tp4608
Rp4609
tp4610
tp4611
g3161
s(Vsquare_packing_box3
p4612
(g1322
(g557
S'of\xf4\xa3\xe1\x14\x0c@'
p4613
tp4614
Rp4615
g1322
(g557
S'\xc2\xbe\x9dD\x84\xbf\x1c\xc0'
p4616
tp4617
Rp4618
g1322
(g557
S'\xb4wF[\x95T\x12@'
p4619
tp4620
Rp4621
tp4622
tp4623
g3153
s(Vrectangular_packing_box4
p4624
(g1322
(g557
S'y\x07x\xd2\xc2e\x07@'
p4625
tp4626
Rp4627
g1322
(g557
S'\x7fNA~6r\x19\xc0'
p4628
tp4629
Rp4630
g1322
(g557
S'\xf0P\x14\xe8\x13\x19\x0b@'
p4631
tp4632
Rp4633
tp4634
tp4635
g3133
s(Vsquare_packing_box1
p4636
(g1322
(g557
S'n\xa4l\x91\xb4[\r@'
p4637
tp4638
Rp4639
g1322
(g557
S'\xa6(\x97\xc6/|\x16\xc0'
p4640
tp4641
Rp4642
g1322
(g557
S'R\xd2\xc3\xd0\xea\x04\x0b@'
p4643
tp4644
Rp4645
tp4646
tp4647
g3157
s(Vrectangular_packing_box2
p4648
(g1322
(g557
S'\xc1n\xd8\xb6(s\xf1?'
p4649
tp4650
Rp4651
g1322
(g557
S'\x03\x07\xb4t\x05\x9b\x16\xc0'
p4652
tp4653
Rp4654
g1322
(g557
S'7\x8eX\x8bOa\x07@'
p4655
tp4656
Rp4657
tp4658
tp4659
g3137
ssg2022
(dp4660
sg2234
(dp4661
(g3067
g2028
tp4662
(lp4663
g521
(g522
(I0
tp4664
g524
tp4665
Rp4666
(I1
(I3
tp4667
g531
I00
S'\xd8[\xe1\xa4\xcf\x08\xe6?\x8a`\x1a\xe3\xb1\xdc\x1e\xc0\xe4\x92g\x8f\xd4%\x05@'
p4668
tp4669
bas(g3119
g2025
tp4670
g3339
s(g3119
g2028
tp4671
(lp4672
g521
(g522
(I0
tp4673
g524
tp4674
Rp4675
(I1
(I3
tp4676
g531
I00
S'\x00A\x86\xcei\xc9\xa4?\xd5\xc4+\x19#\xbe\x19\xc0\xd4H\xa9m2H\x10@'
p4677
tp4678
bas(g3064
g2025
tp4679
g3383
s(g3069
g2028
tp4680
(lp4681
g521
(g522
(I0
tp4682
g524
tp4683
Rp4684
(I1
(I3
tp4685
g531
I00
S'\xb2\x91d&]\xf4\r@\x04\x16bSUi\x19\xc0R\x945\x02\x9f|\x11@'
p4686
tp4687
bas(g3064
g2028
tp4688
(lp4689
g521
(g522
(I0
tp4690
g524
tp4691
Rp4692
(I1
(I3
tp4693
g531
I00
S"\x17Tr\x8bW\xcd\x07@O\x94\x1eG\xa9L\x16\xc0\x03\x98\t'\x82\x1a\x12@"
p4694
tp4695
bas(g3118
g2028
tp4696
(lp4697
g521
(g522
(I0
tp4698
g524
tp4699
Rp4700
(I1
(I3
tp4701
g531
I00
S'=I^\xea2k\x08@\xd7\xf0<\x8c\x08R\x16\xc0`\x8c*\xd6\x89\x1e\x8a?'
p4702
tp4703
bas(g3068
g2028
tp4704
(lp4705
g521
(g522
(I0
tp4706
g524
tp4707
Rp4708
(I1
(I3
tp4709
g531
I00
S'\xa0\x8e\xd2\x9f\x15I\xda?$\xb2\xd5q<N\x18\xc0X\xff\xd5R\xb2\x0f\x03@'
p4710
tp4711
bas(g3068
g2025
tp4712
g3495
s(g3066
g2025
tp4713
g3289
s(g3066
g2028
tp4714
(lp4715
g521
(g522
(I0
tp4716
g524
tp4717
Rp4718
(I1
(I3
tp4719
g531
I00
S'\x04\x82s2xD\xd0?h\x03\xed\x02\x06q\x1c\xc0\xaa\xb0\xf8\xe0\x14\x92\xeb?'
p4720
tp4721
bas(g3118
g2025
tp4722
g3439
s(g3069
g2025
tp4723
g3595
s(g3065
g2028
tp4724
(lp4725
g521
(g522
(I0
tp4726
g524
tp4727
Rp4728
(I1
(I3
tp4729
g531
I00
S'\xcd\x9e\x88\x0e\xab1\xd6?\xce\xc5\xc4\xc3\xe0;\x17\xc0\xa3\xbc\x016\xe1Z\xd2?'
p4730
tp4731
bas(g3065
g2025
tp4732
g3657
s(g3067
g2025
tp4733
g3539
ssg2474
(dp4734
sg2684
(dp4735
g2030
(lp4736
I0
aI0
aI0
aI0
aI0
aI0
aI00
aI01
aI00
aI01
aI00
asg2028
(lp4737
I0
aI0
aI0
aI0
aI0
aI0
aI00
aI01
aI00
aI01
aI00
asg2025
(lp4738
I0
aI0
aI0
aI0
aI0
aI0
aI00
aI01
aI01
aI01
aI00
asg2040
(lp4739
I0
aI0
aI0
ag1322
(g557
S'8W\xa7\x10\xc3e\x07@'
p4740
tp4741
Rp4742
ag1322
(g557
S'\x18}\xbeu6r\x19\xc0'
p4743
tp4744
Rp4745
ag1322
(g557
S'\xad:\x8b\x17\x14\x19\x0b@'
p4746
tp4747
Rp4748
aI01
aI00
aI00
aI01
aI00
asg2024
(lp4749
I0
aI0
aI0
ag1322
(g557
S'\xd9\xb9\xb1\x0b)s\xf1?'
p4750
tp4751
Rp4752
ag1322
(g557
S'\xe3n~q\x05\x9b\x16\xc0'
p4753
tp4754
Rp4755
ag1322
(g557
S'3\x0c\xdd\xb4Oa\x07@'
p4756
tp4757
Rp4758
aI01
aI00
aI00
aI01
aI00
asg2038
(lp4759
I0
aI0
aI0
ag1322
(g557
S'\xf09s\x1a%\xc6\xec?'
p4760
tp4761
Rp4762
ag1322
(g557
S'#\xa2\nh\xd5y\x1a\xc0'
p4763
tp4764
Rp4765
ag1322
(g557
S'\xad\xb4\x82]r\xaf\x0f@'
p4766
tp4767
Rp4768
aI01
aI00
aI00
aI01
aI00
asg2031
(lp4769
I0
aI0
aI0
ag1322
(g557
S'\x08\xce\x1c\x93R\x99\xc3\xbf'
p4770
tp4771
Rp4772
ag1322
(g557
S'\xb0\x89-j\x81\xe4\x1e\xc0'
p4773
tp4774
Rp4775
ag1322
(g557
S'\x8e[\xa1wxy\x07@'
p4776
tp4777
Rp4778
aI01
aI00
aI00
aI01
aI00
asg2033
(lp4779
I0
aI0
aI0
ag1322
(g557
S'\xef\xf3B%Z)\xcb\xbf'
p4780
tp4781
Rp4782
ag1322
(g557
S'\xf2\x96\x92g.<\x17\xc0'
p4783
tp4784
Rp4785
ag1322
(g557
S'k\x08\x03\x15\xf7\x0f\x06@'
p4786
tp4787
Rp4788
aI01
aI00
aI00
aI01
aI00
asg2782
(lp4789
I0
aI0
aI0
ag1322
(g557
S'eA\xb4\x99\xe1\x14\x0c@'
p4790
tp4791
Rp4792
ag1322
(g557
S'l~|0\x84\xbf\x1c\xc0'
p4793
tp4794
Rp4795
ag1322
(g557
S'\xc6\xd1Y^\x95T\x12@'
p4796
tp4797
Rp4798
aI01
aI00
aI00
aI01
aI00
asg2027
(lp4799
I0
aI0
aI0
ag1322
(g557
S'\xb5\xf5\x17|\xb4[\r@'
p4800
tp4801
Rp4802
ag1322
(g557
S'K\xfc\xf5\xc3/|\x16\xc0'
p4803
tp4804
Rp4805
ag1322
(g557
S'\x8fQ`\x01\xeb\x04\x0b@'
p4806
tp4807
Rp4808
aI01
aI00
aI01
aI01
aI00
asg2034
(lp4809
I0
aI0
aI0
ag1322
(g557
S'8^2\xb2\xb1\x0e\xd9\xbf'
p4810
tp4811
Rp4812
ag1322
(g557
S'F\x06\\\x12X\x97\x1c\xc0'
p4813
tp4814
Rp4815
ag1322
(g557
S'y\xda\x87\xea"\xed\x10@'
p4816
tp4817
Rp4818
aI01
aI00
aI00
aI01
aI00
assg2769
(dp4819
sg2771
NsS'goal_entities'
p4820
(lp4821
Vsquare_packing_box1
p4822
ag2025
asS'binary_edges'
p4823
(dp4824
(g2033
g2034
tp4825
g2477
s(g2038
g2038
tp4826
g2479
s(g2038
g2782
tp4827
(lp4828
I00
aI00
aI00
as(g2024
g2024
tp4829
g2637
s(g2033
g2040
tp4830
g2481
s(g2024
g2782
tp4831
(lp4832
I00
aI00
aI00
as(g2024
g2038
tp4833
g2581
s(g2034
g2024
tp4834
g2487
s(g2033
g2027
tp4835
g2489
s(g2031
g2038
tp4836
g2491
s(g2040
g2040
tp4837
g2493
s(g2024
g2028
tp4838
g2495
s(g2030
g2028
tp4839
g2523
s(g2040
g2034
tp4840
g2505
s(g2030
g2033
tp4841
g2623
s(g2027
g2025
tp4842
g2509
s(g2028
g2040
tp4843
g2511
s(g2024
g2034
tp4844
g2513
s(g2038
g2030
tp4845
g2515
s(g2033
g2033
tp4846
g2517
s(g2030
g2034
tp4847
g2591
s(g2782
g2024
tp4848
(lp4849
I00
aI00
aI00
as(g2024
g2025
tp4850
g2521
s(g2031
g2782
tp4851
(lp4852
I00
aI00
aI00
as(g2040
g2031
tp4853
g2525
s(g2027
g2027
tp4854
g2527
s(g2024
g2030
tp4855
g2529
s(g2030
g2040
tp4856
g2593
s(g2028
g2782
tp4857
(lp4858
I00
aI00
aI00
as(g2024
g2033
tp4859
g2635
s(g2028
g2038
tp4860
g2533
s(g2782
g2025
tp4861
(lp4862
I00
aI00
aI00
as(g2034
g2040
tp4863
g2537
s(g2031
g2040
tp4864
g2539
s(g2782
g2031
tp4865
(lp4866
I00
aI00
aI00
as(g2030
g2025
tp4867
g2541
s(g2027
g2024
tp4868
g2543
s(g2040
g2782
tp4869
(lp4870
I00
aI00
aI00
as(g2030
g2782
tp4871
(lp4872
I00
aI00
aI00
as(g2782
g2030
tp4873
(lp4874
g2503
aI00
aI00
as(g2038
g2033
tp4875
g2545
s(g2034
g2027
tp4876
g2547
s(g2038
g2024
tp4877
g2549
s(g2034
g2025
tp4878
g2551
s(g2030
g2030
tp4879
g2553
s(g2782
g2040
tp4880
(lp4881
I00
aI00
aI00
as(g2034
g2030
tp4882
g2665
s(g2025
g2030
tp4883
g2667
s(g2025
g2027
tp4884
g2557
s(g2031
g2028
tp4885
g2559
s(g2025
g2031
tp4886
g2561
s(g2034
g2038
tp4887
g2563
s(g2038
g2027
tp4888
g2565
s(g2782
g2028
tp4889
(lp4890
g2503
aI00
aI01
as(g2038
g2031
tp4891
g2567
s(g2782
g2782
tp4892
(lp4893
I00
aI00
aI00
as(g2031
g2024
tp4894
g2569
s(g2028
g2025
tp4895
g2571
s(g2025
g2033
tp4896
g2483
s(g2040
g2025
tp4897
g2573
s(g2030
g2031
tp4898
g2575
s(g2025
g2034
tp4899
g2577
s(g2038
g2034
tp4900
g2579
s(g2031
g2030
tp4901
g2653
s(g2034
g2028
tp4902
g2583
s(g2031
g2033
tp4903
g2585
s(g2040
g2024
tp4904
g2587
s(g2040
g2028
tp4905
g2589
s(g2028
g2033
tp4906
g2519
s(g2028
g2024
tp4907
g2531
s(g2031
g2025
tp4908
g2595
s(g2033
g2031
tp4909
g2597
s(g2027
g2031
tp4910
g2599
s(g2028
g2028
tp4911
g2601
s(g2038
g2040
tp4912
g2671
s(g2027
g2782
tp4913
(lp4914
I00
aI00
aI00
as(g2028
g2027
tp4915
g2605
s(g2024
g2040
tp4916
g2607
s(g2028
g2031
tp4917
g2609
s(g2027
g2030
tp4918
g2611
s(g2033
g2024
tp4919
g2613
s(g2038
g2025
tp4920
g2643
s(g2027
g2040
tp4921
g2617
s(g2040
g2027
tp4922
g2619
s(g2024
g2027
tp4923
g2621
s(g2028
g2034
tp4924
g2507
s(g2024
g2031
tp4925
g2625
s(g2782
g2033
tp4926
(lp4927
I00
aI00
aI00
as(g2033
g2028
tp4928
g2627
s(g2031
g2031
tp4929
g2629
s(g2034
g2033
tp4930
g2631
s(g2027
g2034
tp4931
g2633
s(g2025
g2782
tp4932
(lp4933
I00
aI00
aI00
as(g2025
g2038
tp4934
g2615
s(g2034
g2031
tp4935
g2639
s(g2033
g2025
tp4936
g2641
s(g2782
g2027
tp4937
(lp4938
I00
aI00
aI00
as(g2038
g2028
tp4939
g2645
s(g2025
g2024
tp4940
g2485
s(g2031
g2027
tp4941
g2647
s(g2040
g2038
tp4942
g2649
s(g2025
g2028
tp4943
g2651
s(g2033
g2782
tp4944
(lp4945
I00
aI00
aI00
as(g2030
g2038
tp4946
g2655
s(g2033
g2030
tp4947
g2657
s(g2782
g2038
tp4948
(lp4949
I00
aI00
aI00
as(g2025
g2025
tp4950
g2659
s(g2031
g2034
tp4951
g2661
s(g2040
g2030
tp4952
g2663
s(g2027
g2033
tp4953
g2555
s(g2030
g2024
tp4954
g2679
s(g2025
g2040
tp4955
g2669
s(g2782
g2034
tp4956
(lp4957
I00
aI00
aI00
as(g2034
g2782
tp4958
(lp4959
I00
aI00
aI00
as(g2033
g2038
tp4960
g2603
s(g2028
g2030
tp4961
g2673
s(g2027
g2038
tp4962
g2675
s(g2040
g2033
tp4963
g2677
s(g2034
g2034
tp4964
g2535
s(g2027
g2028
tp4965
g2681
s(g2030
g2027
tp4966
g2683
ssg1265
g3724
sS'pick_in_way'
p4967
(itrajectory_representation.predicates.pick_in_way
PickInWay
p4968
(dp4969
g1310
(dp4970
(g2033
g2034
tp4971
I00
s(g2038
g2038
tp4972
I00
s(g2038
g2782
tp4973
I00
s(g2024
g2024
tp4974
I00
s(g2033
g2040
tp4975
I00
s(g2024
g2782
tp4976
I00
s(g2024
g2038
tp4977
I00
s(g2034
g2024
tp4978
I00
s(g2033
g2027
tp4979
I00
s(g2031
g2038
tp4980
I00
s(g2040
g2040
tp4981
I00
s(g2024
g2028
tp4982
I00
s(g2030
g2028
tp4983
I00
s(g2040
g2034
tp4984
I00
s(g2030
g2033
tp4985
I00
s(g2027
g2025
tp4986
I00
s(g2028
g2040
tp4987
I00
s(g2024
g2034
tp4988
I00
s(g2038
g2030
tp4989
I00
s(g2033
g2033
tp4990
I00
s(g2030
g2034
tp4991
I00
s(g2782
g2024
tp4992
I00
s(g2024
g2025
tp4993
I00
s(g2031
g2782
tp4994
I00
s(g2040
g2031
tp4995
I00
s(g2027
g2027
tp4996
I00
s(g2024
g2030
tp4997
I00
s(g2030
g2040
tp4998
I00
s(g2028
g2782
tp4999
I00
s(g2024
g2033
tp5000
I00
s(g2028
g2038
tp5001
I00
s(g2782
g2025
tp5002
I00
s(g2034
g2040
tp5003
I00
s(g2031
g2040
tp5004
I00
s(g2782
g2031
tp5005
I00
s(g2030
g2025
tp5006
I00
s(g2027
g2024
tp5007
I00
s(g2040
g2782
tp5008
I00
s(g2030
g2782
tp5009
I00
s(g2782
g2030
tp5010
I00
s(g2038
g2033
tp5011
I00
s(g2034
g2027
tp5012
I00
s(g2038
g2024
tp5013
I00
s(g2034
g2025
tp5014
I00
s(g2030
g2030
tp5015
I00
s(g2782
g2040
tp5016
I00
s(g2034
g2030
tp5017
I00
s(g2025
g2030
tp5018
I00
s(g2025
g2027
tp5019
I00
s(g2031
g2028
tp5020
I00
s(g2025
g2031
tp5021
I00
s(g2034
g2038
tp5022
I00
s(g2038
g2027
tp5023
I00
s(g2782
g2028
tp5024
I00
s(g2038
g2031
tp5025
I00
s(g2782
g2782
tp5026
I00
s(g2031
g2024
tp5027
I00
s(g2028
g2025
tp5028
I00
s(g2025
g2033
tp5029
I00
s(g2040
g2025
tp5030
I00
s(g2030
g2031
tp5031
I00
s(g2025
g2034
tp5032
I00
s(g2038
g2034
tp5033
I00
s(g2031
g2030
tp5034
I00
s(g2034
g2028
tp5035
I00
s(g2031
g2033
tp5036
I00
s(g2040
g2024
tp5037
I00
s(g2040
g2028
tp5038
I00
s(g2028
g2033
tp5039
I00
s(g2028
g2024
tp5040
I00
s(g2031
g2025
tp5041
I00
s(g2033
g2031
tp5042
I00
s(g2027
g2031
tp5043
I00
s(g2028
g2028
tp5044
I00
s(g2038
g2040
tp5045
I00
s(g2027
g2782
tp5046
I00
s(g2028
g2027
tp5047
I00
s(g2024
g2040
tp5048
I00
s(g2028
g2031
tp5049
I00
s(g2027
g2030
tp5050
I00
s(g2033
g2024
tp5051
I00
s(g2038
g2025
tp5052
I00
s(g2027
g2040
tp5053
I00
s(g2040
g2027
tp5054
I00
s(g2024
g2027
tp5055
I00
s(g2028
g2034
tp5056
I00
s(g2024
g2031
tp5057
I00
s(g2782
g2033
tp5058
I00
s(g2033
g2028
tp5059
I00
s(g2031
g2031
tp5060
I00
s(g2034
g2033
tp5061
I00
s(g2027
g2034
tp5062
I00
s(g2025
g2782
tp5063
I00
s(g2025
g2038
tp5064
I00
s(g2034
g2031
tp5065
I00
s(g2033
g2025
tp5066
I00
s(g2782
g2027
tp5067
I00
s(g2038
g2028
tp5068
I00
s(g2025
g2024
tp5069
I00
s(g2031
g2027
tp5070
I00
s(g2040
g2038
tp5071
I00
s(g2025
g2028
tp5072
I00
s(g2033
g2782
tp5073
I00
s(g2030
g2038
tp5074
I00
s(g2033
g2030
tp5075
I00
s(g2782
g2038
tp5076
I00
s(g2025
g2025
tp5077
I00
s(g2031
g2034
tp5078
I00
s(g2040
g2030
tp5079
I00
s(g2027
g2033
tp5080
I00
s(g2030
g2024
tp5081
I00
s(g2025
g2040
tp5082
I00
s(g2782
g2034
tp5083
I00
s(g2034
g2782
tp5084
I00
s(g2033
g2038
tp5085
I00
s(g2028
g2030
tp5086
I00
s(g2027
g2038
tp5087
I00
s(g2040
g2033
tp5088
I00
s(g2034
g2034
tp5089
I00
s(g2027
g2028
tp5090
I00
s(g2030
g2027
tp5091
I00
ssg1018
(dp5092
g2040
g3762
sg2024
g3787
sg2038
g3812
sg2031
g3855
sg2033
g3874
sg2782
g3094
sg2027
g3911
sg2034
g3936
ssg1244
(dp5093
g2040
(lp5094
sg2024
(lp5095
sg2038
(lp5096
sg2031
(lp5097
sg2033
(lp5098
sg2782
(lp5099
sg2027
(lp5100
sg2034
(lp5101
ssg1265
(lp5102
g2031
ag2033
ag2024
ag2782
ag2038
ag2034
ag2040
ag2030
ag2025
ag2028
ag2027
ag2030
ag2025
ag2028
ag2030
ag2025
ag2028
ag2030
ag2025
ag2028
ag2030
ag2025
ag2028
ag2030
ag2025
ag2028
ag2030
ag2025
ag2028
ag2030
ag2025
ag2028
asg1267
g3725
sg2
(dp5103
sg505
g3063
sg1303
Nsg1309
g3063
sg1306
(dp5104
sg1317
I01
sg1308
I8
sg7
Nsg1316
NsbsS'robot_pose'
p5105
g521
(g522
(I0
tp5106
g524
tp5107
Rp5108
(I1
(I1
I3
tp5109
g531
I00
S'\x0c\x8d\xed]E\x13\x05@~\xe3=\x86jC\x1d\xc0\x8d}i\xe8\xda\xae\xe0?'
p5110
tp5111
bsS'is_holding_goal_entity'
p5112
(itrajectory_representation.predicates.is_holding_goal_entity
IsHoldingGoalEntity
p5113
(dp5114
g4820
g4821
sg7
NsbsS'mc_pick_path'
p5115
(dp5116
sS'current_collides'
p5117
g3725
sbsg4820
(lp5118
Vsquare_packing_box1
p5119
ag11
asg4823
(dp5120
(g22
g23
tp5121
(lp5122
I00
aI00
aI00
as(g22
g33
tp5123
(lp5124
I00
aI00
aI00
as(g30
g46
tp5125
(lp5126
I00
aI00
aI00
as(g30
g30
tp5127
(lp5128
I00
aI00
aI00
as(g10
g46
tp5129
(lp5130
I00
aI00
aI00
as(g10
g30
tp5131
(lp5132
I00
aI00
aI00
as(g23
g10
tp5133
(lp5134
I00
aI00
aI00
as(g22
g14
tp5135
(lp5136
I00
aI00
aI00
as(g19
g30
tp5137
(lp5138
I00
aI00
aI00
as(g33
g33
tp5139
(lp5140
I00
aI00
aI00
as(g10
g15
tp5141
(lp5142
g2503
aI00
aI01
as(g18
g15
tp5143
(lp5144
I00
aI00
aI00
as(g33
g23
tp5145
(lp5146
I00
aI00
aI00
as(g15
g23
tp5147
(lp5148
I00
aI00
aI00
as(g14
g11
tp5149
(lp5150
I00
aI00
aI00
as(g18
g10
tp5151
(lp5152
I00
aI00
aI00
as(g10
g23
tp5153
(lp5154
I00
aI00
aI00
as(g30
g18
tp5155
(lp5156
g2503
aI00
aI00
as(g22
g22
tp5157
(lp5158
I00
aI00
aI00
as(g15
g22
tp5159
(lp5160
I00
aI00
aI00
as(g46
g10
tp5161
(lp5162
I00
aI00
aI00
as(g10
g11
tp5163
(lp5164
I00
aI00
aI01
as(g19
g46
tp5165
(lp5166
I00
aI00
aI00
as(g33
g19
tp5167
(lp5168
I00
aI00
aI00
as(g14
g14
tp5169
(lp5170
I00
aI00
aI00
as(g10
g18
tp5171
(lp5172
g2503
aI00
aI00
as(g15
g10
tp5173
(lp5174
I00
aI00
aI00
as(g15
g46
tp5175
(lp5176
I00
aI00
aI00
as(g15
g30
tp5177
(lp5178
I00
aI00
aI00
as(g46
g11
tp5179
(lp5180
I00
aI00
aI01
as(g23
g33
tp5181
(lp5182
I00
aI00
aI00
as(g19
g33
tp5183
(lp5184
I00
aI00
aI00
as(g46
g19
tp5185
(lp5186
I00
aI01
aI00
as(g15
g33
tp5187
(lp5188
I00
aI00
aI00
as(g18
g11
tp5189
(lp5190
I00
aI00
aI00
as(g14
g10
tp5191
(lp5192
I00
aI00
aI00
as(g33
g46
tp5193
(lp5194
I00
aI00
aI00
as(g18
g46
tp5195
(lp5196
I00
aI00
aI00
as(g46
g18
tp5197
(lp5198
g2503
aI00
aI00
as(g30
g22
tp5199
(lp5200
I00
aI00
aI00
as(g23
g14
tp5201
(lp5202
I00
aI00
aI00
as(g30
g10
tp5203
(lp5204
I00
aI00
aI00
as(g23
g11
tp5205
(lp5206
I00
aI00
aI01
as(g18
g18
tp5207
(lp5208
I00
aI00
aI00
as(g46
g33
tp5209
(lp5210
I00
aI00
aI00
as(g14
g22
tp5211
(lp5212
I00
aI00
aI00
as(g11
g14
tp5213
(lp5214
I00
aI00
aI00
as(g19
g15
tp5215
(lp5216
g2503
aI00
aI01
as(g11
g19
tp5217
(lp5218
I00
aI00
aI00
as(g23
g30
tp5219
(lp5220
I00
aI00
aI00
as(g30
g14
tp5221
(lp5222
I00
aI00
aI00
as(g46
g15
tp5223
(lp5224
g2503
aI00
aI01
as(g30
g19
tp5225
(lp5226
I00
aI00
aI00
as(g46
g46
tp5227
(lp5228
I00
aI00
aI00
as(g19
g10
tp5229
(lp5230
I00
aI00
aI00
as(g15
g11
tp5231
(lp5232
I00
aI00
aI00
as(g11
g22
tp5233
(lp5234
I00
aI00
aI00
as(g33
g11
tp5235
(lp5236
I00
aI00
aI00
as(g18
g19
tp5237
(lp5238
I00
aI00
aI00
as(g11
g23
tp5239
(lp5240
I00
aI00
aI00
as(g30
g23
tp5241
(lp5242
I00
aI00
aI00
as(g19
g18
tp5243
(lp5244
g2503
aI00
aI00
as(g23
g15
tp5245
(lp5246
g2503
aI00
aI01
as(g19
g22
tp5247
(lp5248
I00
aI00
aI00
as(g33
g10
tp5249
(lp5250
I00
aI00
aI00
as(g33
g15
tp5251
(lp5252
g2503
aI00
aI01
as(g11
g30
tp5253
(lp5254
I00
aI00
aI00
as(g18
g23
tp5255
(lp5256
I00
aI00
aI00
as(g18
g33
tp5257
(lp5258
I00
aI00
aI00
as(g19
g11
tp5259
(lp5260
I00
aI00
aI00
as(g22
g19
tp5261
(lp5262
I00
aI00
aI00
as(g14
g19
tp5263
(lp5264
I00
aI00
aI00
as(g11
g46
tp5265
(lp5266
I00
aI00
aI00
as(g15
g15
tp5267
(lp5268
I00
aI00
aI00
as(g22
g30
tp5269
(lp5270
I00
aI00
aI00
as(g14
g46
tp5271
(lp5272
I00
aI00
aI00
as(g15
g14
tp5273
(lp5274
I00
aI00
aI00
as(g10
g33
tp5275
(lp5276
I00
aI00
aI00
as(g15
g19
tp5277
(lp5278
I00
aI00
aI00
as(g14
g18
tp5279
(lp5280
g2503
aI00
aI00
as(g22
g10
tp5281
(lp5282
I00
aI00
aI00
as(g30
g11
tp5283
(lp5284
I00
aI00
aI00
as(g14
g33
tp5285
(lp5286
I00
aI00
aI00
as(g33
g14
tp5287
(lp5288
I00
aI00
aI00
as(g10
g14
tp5289
(lp5290
I00
aI00
aI00
as(g18
g22
tp5291
(lp5292
I00
aI00
aI00
as(g10
g19
tp5293
(lp5294
I00
aI01
aI00
as(g46
g22
tp5295
(lp5296
I00
aI00
aI00
as(g22
g15
tp5297
(lp5298
g2503
aI00
aI01
as(g19
g19
tp5299
(lp5300
I00
aI00
aI00
as(g23
g22
tp5301
(lp5302
I00
aI00
aI00
as(g14
g23
tp5303
(lp5304
I00
aI00
aI00
as(g10
g22
tp5305
(lp5306
I00
aI00
aI00
as(g10
g10
tp5307
(lp5308
I00
aI00
aI00
as(g23
g19
tp5309
(lp5310
I00
aI00
aI00
as(g22
g11
tp5311
(lp5312
I00
aI00
aI01
as(g46
g14
tp5313
(lp5314
I00
aI01
aI00
as(g30
g15
tp5315
(lp5316
g2503
aI00
aI01
as(g11
g10
tp5317
(lp5318
I00
aI00
aI00
as(g19
g14
tp5319
(lp5320
I00
aI01
aI00
as(g33
g30
tp5321
(lp5322
I00
aI00
aI00
as(g11
g15
tp5323
(lp5324
I00
aI00
aI00
as(g22
g46
tp5325
(lp5326
I00
aI00
aI00
as(g18
g30
tp5327
(lp5328
I00
aI00
aI00
as(g22
g18
tp5329
(lp5330
g2503
aI00
aI00
as(g46
g30
tp5331
(lp5332
I00
aI00
aI00
as(g11
g11
tp5333
(lp5334
I00
aI00
aI00
as(g19
g23
tp5335
(lp5336
I00
aI00
aI00
as(g33
g18
tp5337
(lp5338
g2503
aI00
aI00
as(g23
g18
tp5339
(lp5340
g2503
aI00
aI00
as(g11
g18
tp5341
(lp5342
I00
aI00
aI00
as(g11
g33
tp5343
(lp5344
I00
aI00
aI00
as(g46
g23
tp5345
(lp5346
I00
aI00
aI00
as(g23
g46
tp5347
(lp5348
I00
aI00
aI00
as(g30
g33
tp5349
(lp5350
I00
aI00
aI00
as(g15
g18
tp5351
(lp5352
I00
aI00
aI00
as(g14
g30
tp5353
(lp5354
I00
aI00
aI00
as(g33
g22
tp5355
(lp5356
I00
aI00
aI00
as(g23
g23
tp5357
(lp5358
I00
aI00
aI00
as(g14
g15
tp5359
(lp5360
g2503
aI00
aI01
as(g18
g14
tp5361
(lp5362
I00
aI00
aI00
assg1265
g1266
sg4967
(itrajectory_representation.predicates.pick_in_way
PickInWay
p5363
(dp5364
g1018
(dp5365
g33
g550
sg10
g622
sg30
g666
sg19
g698
sg22
g742
sg46
g790
sg14
g822
sg23
g878
ssg1244
(dp5366
g33
(lp5367
sg10
(lp5368
sg30
(lp5369
sg19
(lp5370
Vsquare_packing_box3
p5371
aVrectangular_packing_box2
p5372
asg22
(lp5373
sg46
(lp5374
sg14
(lp5375
Vsquare_packing_box3
p5376
aVrectangular_packing_box1
p5377
asg23
(lp5378
ssg1265
(lp5379
g22
ag10
ag46
ag30
ag23
ag33
ag18
ag11
ag15
ag18
ag11
ag15
ag18
ag11
ag15
ag18
ag11
ag15
ag18
ag11
ag15
ag18
ag11
ag15
ag18
ag11
ag15
ag18
ag11
ag15
asg1267
g1268
sg2
(dp5380
sg505
g506
sg1303
Nsg1309
g506
sg1306
(dp5381
sg1308
I8
sg1317
I01
sg7
Nsg1310
(dp5382
(g22
g23
tp5383
I00
s(g22
g33
tp5384
I00
s(g30
g46
tp5385
I00
s(g30
g30
tp5386
I00
s(g10
g46
tp5387
I00
s(g10
g30
tp5388
I00
s(g23
g10
tp5389
I00
s(g22
g14
tp5390
I00
s(g19
g30
tp5391
I00
s(g33
g33
tp5392
I00
s(g10
g15
tp5393
I00
s(g18
g15
tp5394
I00
s(g33
g23
tp5395
I00
s(g15
g23
tp5396
I00
s(g14
g11
tp5397
I00
s(g18
g10
tp5398
I00
s(g10
g23
tp5399
I00
s(g30
g18
tp5400
I00
s(g22
g22
tp5401
I00
s(g15
g22
tp5402
I00
s(g46
g10
tp5403
I00
s(g10
g11
tp5404
I00
s(g19
g46
tp5405
I00
s(g33
g19
tp5406
I00
s(g14
g14
tp5407
I00
s(g10
g18
tp5408
I00
s(g15
g10
tp5409
I00
s(g15
g46
tp5410
I00
s(g15
g30
tp5411
I00
s(g46
g11
tp5412
I00
s(g23
g33
tp5413
I00
s(g19
g33
tp5414
I00
s(g46
g19
tp5415
I01
s(g15
g33
tp5416
I00
s(g18
g11
tp5417
I00
s(g14
g10
tp5418
I00
s(g33
g46
tp5419
I00
s(g18
g46
tp5420
I00
s(g46
g18
tp5421
I00
s(g30
g22
tp5422
I00
s(g23
g14
tp5423
I00
s(g30
g10
tp5424
I00
s(g23
g11
tp5425
I00
s(g18
g18
tp5426
I00
s(g46
g33
tp5427
I00
s(g14
g22
tp5428
I00
s(g11
g14
tp5429
I00
s(g19
g15
tp5430
I00
s(g11
g19
tp5431
I00
s(g23
g30
tp5432
I00
s(g30
g14
tp5433
I00
s(g46
g15
tp5434
I00
s(g30
g19
tp5435
I00
s(g46
g46
tp5436
I00
s(g19
g10
tp5437
I00
s(g15
g11
tp5438
I00
s(g11
g22
tp5439
I00
s(g33
g11
tp5440
I00
s(g18
g19
tp5441
I00
s(g11
g23
tp5442
I00
s(g30
g23
tp5443
I00
s(g19
g18
tp5444
I00
s(g23
g15
tp5445
I00
s(g19
g22
tp5446
I00
s(g33
g10
tp5447
I00
s(g33
g15
tp5448
I00
s(g11
g30
tp5449
I00
s(g18
g23
tp5450
I00
s(g18
g33
tp5451
I00
s(g19
g11
tp5452
I00
s(g22
g19
tp5453
I00
s(g14
g19
tp5454
I00
s(g11
g46
tp5455
I00
s(g15
g15
tp5456
I00
s(g22
g30
tp5457
I00
s(g14
g46
tp5458
I00
s(g15
g14
tp5459
I00
s(g10
g33
tp5460
I00
s(g15
g19
tp5461
I00
s(g14
g18
tp5462
I00
s(g22
g10
tp5463
I00
s(g30
g11
tp5464
I00
s(g14
g33
tp5465
I00
s(g33
g14
tp5466
I00
s(g10
g14
tp5467
I00
s(g18
g22
tp5468
I00
s(g10
g19
tp5469
I01
s(g46
g22
tp5470
I00
s(g22
g15
tp5471
I00
s(g19
g19
tp5472
I00
s(g23
g22
tp5473
I00
s(g14
g23
tp5474
I00
s(g10
g22
tp5475
I00
s(g10
g10
tp5476
I00
s(g23
g19
tp5477
I00
s(g22
g11
tp5478
I00
s(g46
g14
tp5479
I01
s(g30
g15
tp5480
I00
s(g11
g10
tp5481
I00
s(g19
g14
tp5482
I01
s(g33
g30
tp5483
I00
s(g11
g15
tp5484
I00
s(g22
g46
tp5485
I00
s(g18
g30
tp5486
I00
s(g22
g18
tp5487
I00
s(g46
g30
tp5488
I00
s(g11
g11
tp5489
I00
s(g19
g23
tp5490
I00
s(g33
g18
tp5491
I00
s(g23
g18
tp5492
I00
s(g11
g18
tp5493
I00
s(g11
g33
tp5494
I00
s(g46
g23
tp5495
I00
s(g23
g46
tp5496
I00
s(g30
g33
tp5497
I00
s(g15
g18
tp5498
I00
s(g14
g30
tp5499
I00
s(g33
g22
tp5500
I00
s(g23
g23
tp5501
I00
s(g14
g15
tp5502
I00
s(g18
g14
tp5503
I00
ssg1316
Nsbsg5105
g521
(g522
(I0
tp5504
g524
tp5505
Rp5506
(I1
(I1
I3
tp5507
g557
I00
S'\xe0~P\xd6\xbf\xdc\xe1?\x11l\xe8\xb1\xc8\xa9\x16\xc0\xcfu\x86kl@\x16@'
p5508
tp5509
bsg5112
(itrajectory_representation.predicates.is_holding_goal_entity
IsHoldingGoalEntity
p5510
(dp5511
g4820
g5118
sg7
Nsbsg5115
(dp5512
sg5117
g1268
sb.