(itrajectory_representation.shortest_path_pick_and_place_state
ShortestPathPaPState
p0
(dp1
S'place_used'
p2
(dp3
sS'in_region'
p4
(itrajectory_representation.predicates.in_region
InRegion
p5
(dp6
S'problem_env'
p7
NsbsS'ternary_edges'
p8
(dp9
(Vrectangular_packing_box2
p10
g10
S'home_region'
p11
tp12
(lp13
I00
as(Vsquare_packing_box1
p14
S'loading_region'
p15
g15
tp16
(lp17
I00
as(S'entire_region'
p18
Vrectangular_packing_box1
p19
g11
tp20
(lp21
I00
as(Vsquare_packing_box2
p22
Vsquare_packing_box4
p23
g15
tp24
(lp25
I00
as(g11
g11
g11
tp26
(lp27
I00
as(g23
g10
g15
tp28
(lp29
I00
as(g14
Vrectangular_packing_box3
p30
g11
tp31
(lp32
I00
as(g11
Vrectangular_packing_box4
p33
g11
tp34
(lp35
I00
as(g22
g14
g11
tp36
(lp37
I00
as(g30
g33
g15
tp38
(lp39
I00
as(g11
g23
g15
tp40
(lp41
I00
as(g22
g18
g11
tp42
(lp43
I00
as(g15
g11
g15
tp44
(lp45
I00
as(g33
Vsquare_packing_box3
p46
g11
tp47
(lp48
I00
as(g23
g18
g11
tp49
(lp50
I00
as(g22
g19
g15
tp51
(lp52
I00
as(g46
g15
g11
tp53
(lp54
I00
as(g18
g10
g15
tp55
(lp56
I00
as(g11
g18
g11
tp57
(lp58
I00
as(g10
g15
g11
tp59
(lp60
I00
as(g46
g18
g11
tp61
(lp62
I00
as(g14
g14
g15
tp63
(lp64
I00
as(g15
g23
g15
tp65
(lp66
I00
as(g18
g15
g11
tp67
(lp68
I00
as(g18
g22
g11
tp69
(lp70
I00
as(g15
g15
g11
tp71
(lp72
I00
as(g46
g33
g15
tp73
(lp74
I00
as(g11
g11
g15
tp75
(lp76
I00
as(g19
g22
g15
tp77
(lp78
I00
as(g10
g23
g11
tp79
(lp80
I01
as(g46
g14
g11
tp81
(lp82
I00
as(g19
g11
g15
tp83
(lp84
I00
as(g11
g10
g15
tp85
(lp86
I00
as(g19
g30
g15
tp87
(lp88
I00
as(g30
g19
g11
tp89
(lp90
I01
as(g15
g14
g15
tp91
(lp92
I00
as(g23
g22
g15
tp93
(lp94
I00
as(g10
g10
g15
tp95
(lp96
I00
as(g18
g23
g11
tp97
(lp98
I00
as(g15
g11
g11
tp99
(lp100
I00
as(g33
g10
g11
tp101
(lp102
I00
as(g11
g30
g11
tp103
(lp104
I00
as(g22
g19
g11
tp105
(lp106
I01
as(g30
g23
g11
tp107
(lp108
I01
as(g14
g30
g15
tp109
(lp110
I00
as(g46
g22
g11
tp111
(lp112
I00
as(g22
g14
g15
tp113
(lp114
I00
as(g22
g10
g15
tp115
(lp116
I00
as(g18
g22
g15
tp117
(lp118
I00
as(g15
g30
g15
tp119
(lp120
I00
as(g18
g11
g11
tp121
(lp122
I00
as(g33
g11
g11
tp123
(lp124
I00
as(g15
g18
g11
tp125
(lp126
I00
as(g10
g23
g15
tp127
(lp128
I00
as(g46
g10
g15
tp129
(lp130
I00
as(g46
g46
g11
tp131
(lp132
I00
as(g19
g30
g11
tp133
(lp134
I00
as(g18
g10
g11
tp135
(lp136
I00
as(g19
g15
g15
tp137
(lp138
I00
as(g23
g14
g11
tp139
(lp140
I00
as(g14
g14
g11
tp141
(lp142
I00
as(g14
g33
g11
tp143
(lp144
I00
as(g33
g10
g15
tp145
(lp146
I00
as(g23
g19
g15
tp147
(lp148
I00
as(g46
g33
g11
tp149
(lp150
I00
as(g19
g22
g11
tp151
(lp152
I00
as(g10
g19
g15
tp153
(lp154
I00
as(g19
g11
g11
tp155
(lp156
I00
as(g22
g10
g11
tp157
(lp158
I01
as(g10
g46
g11
tp159
(lp160
I00
as(g30
g19
g15
tp161
(lp162
I00
as(g11
g22
g15
tp163
(lp164
I00
as(g18
g11
g15
tp165
(lp166
I00
as(g18
g23
g15
tp167
(lp168
I00
as(g46
g10
g11
tp169
(lp170
I01
as(g30
g46
g15
tp171
(lp172
I00
as(g10
g18
g15
tp173
(lp174
I00
as(g19
g15
g11
tp175
(lp176
I00
as(g46
g22
g15
tp177
(lp178
I00
as(g46
g19
g15
tp179
(lp180
I00
as(g23
g14
g15
tp181
(lp182
I00
as(g11
g30
g15
tp183
(lp184
I00
as(g18
g46
g15
tp185
(lp186
I00
as(g15
g30
g11
tp187
(lp188
I00
as(g15
g22
g15
tp189
(lp190
I00
as(g10
g19
g11
tp191
(lp192
I01
as(g23
g19
g11
tp193
(lp194
I00
as(g15
g46
g11
tp195
(lp196
I00
as(g10
g46
g15
tp197
(lp198
I00
as(g10
g33
g15
tp199
(lp200
I00
as(g30
g23
g15
tp201
(lp202
I00
as(g14
g33
g15
tp203
(lp204
I00
as(g19
g46
g15
tp205
(lp206
I00
as(g11
g14
g15
tp207
(lp208
I00
as(g30
g15
g15
tp209
(lp210
I00
as(g33
g11
g15
tp211
(lp212
I00
as(g14
g19
g11
tp213
(lp214
I01
as(g10
g18
g11
tp215
(lp216
I00
as(g33
g22
g15
tp217
(lp218
I00
as(g30
g10
g15
tp219
(lp220
I00
as(g46
g19
g11
tp221
(lp222
I01
as(g23
g15
g15
tp223
(lp224
I00
as(g22
g11
g11
tp225
(lp226
I00
as(g23
g33
g11
tp227
(lp228
I00
as(g11
g46
g15
tp229
(lp230
I00
as(g15
g19
g15
tp231
(lp232
I00
as(g15
g46
g15
tp233
(lp234
I00
as(g14
g46
g11
tp235
(lp236
I00
as(g19
g46
g11
tp237
(lp238
I00
as(g14
g19
g15
tp239
(lp240
I00
as(g30
g10
g11
tp241
(lp242
I00
as(g10
g22
g11
tp243
(lp244
I00
as(g30
g11
g15
tp245
(lp246
I00
as(g23
g15
g11
tp247
(lp248
I00
as(g15
g33
g15
tp249
(lp250
I00
as(g10
g33
g11
tp251
(lp252
I00
as(g30
g30
g11
tp253
(lp254
I00
as(g33
g33
g11
tp255
(lp256
I00
as(g33
g30
g15
tp257
(lp258
I00
as(g30
g15
g11
tp259
(lp260
I00
as(g46
g23
g11
tp261
(lp262
I01
as(g33
g22
g11
tp263
(lp264
I00
as(g22
g15
g15
tp265
(lp266
I00
as(g30
g18
g15
tp267
(lp268
I00
as(g22
g11
g15
tp269
(lp270
I00
as(g14
g22
g15
tp271
(lp272
I00
as(g23
g33
g15
tp273
(lp274
I00
as(g46
g11
g15
tp275
(lp276
I00
as(g30
g11
g11
tp277
(lp278
I00
as(g15
g33
g11
tp279
(lp280
I00
as(g19
g19
g11
tp281
(lp282
I00
as(g15
g23
g11
tp283
(lp284
I00
as(g23
g46
g11
tp285
(lp286
I00
as(g14
g10
g11
tp287
(lp288
I00
as(g14
g46
g15
tp289
(lp290
I00
as(g33
g14
g15
tp291
(lp292
I00
as(g11
g22
g11
tp293
(lp294
I00
as(g18
g30
g15
tp295
(lp296
I00
as(g30
g14
g11
tp297
(lp298
I00
as(g19
g18
g11
tp299
(lp300
I00
as(g46
g23
g15
tp301
(lp302
I00
as(g46
g30
g15
tp303
(lp304
I00
as(g33
g19
g11
tp305
(lp306
I00
as(g10
g22
g15
tp307
(lp308
I00
as(g33
g15
g11
tp309
(lp310
I00
as(g30
g18
g11
tp311
(lp312
I00
as(g23
g30
g15
tp313
(lp314
I00
as(g10
g14
g11
tp315
(lp316
I00
as(g46
g14
g15
tp317
(lp318
I00
as(g23
g23
g15
tp319
(lp320
I00
as(g33
g33
g15
tp321
(lp322
I00
as(g19
g19
g15
tp323
(lp324
I00
as(g14
g23
g15
tp325
(lp326
I00
as(g23
g22
g11
tp327
(lp328
I00
as(g18
g14
g11
tp329
(lp330
I00
as(g11
g18
g15
tp331
(lp332
I00
as(g11
g19
g15
tp333
(lp334
I00
as(g22
g15
g11
tp335
(lp336
I00
as(g14
g10
g15
tp337
(lp338
I00
as(g19
g14
g15
tp339
(lp340
I00
as(g30
g30
g15
tp341
(lp342
I00
as(g18
g30
g11
tp343
(lp344
I00
as(g22
g30
g15
tp345
(lp346
I00
as(g19
g18
g15
tp347
(lp348
I00
as(g14
g22
g11
tp349
(lp350
I01
as(g33
g19
g15
tp351
(lp352
I00
as(g33
g30
g11
tp353
(lp354
I00
as(g23
g30
g11
tp355
(lp356
I00
as(g14
g11
g15
tp357
(lp358
I00
as(g22
g46
g11
tp359
(lp360
I00
as(g46
g46
g15
tp361
(lp362
I00
as(g33
g18
g11
tp363
(lp364
I00
as(g15
g18
g15
tp365
(lp366
I00
as(g23
g46
g15
tp367
(lp368
I00
as(g15
g19
g11
tp369
(lp370
I00
as(g18
g18
g15
tp371
(lp372
I00
as(g33
g14
g11
tp373
(lp374
I00
as(g14
g23
g11
tp375
(lp376
I01
as(g15
g10
g15
tp377
(lp378
I00
as(g30
g14
g15
tp379
(lp380
I00
as(g46
g11
g11
tp381
(lp382
I00
as(g18
g14
g15
tp383
(lp384
I00
as(g46
g30
g11
tp385
(lp386
I00
as(g30
g22
g11
tp387
(lp388
I00
as(g33
g15
g15
tp389
(lp390
I00
as(g10
g14
g15
tp391
(lp392
I00
as(g19
g10
g11
tp393
(lp394
I00
as(g18
g15
g15
tp395
(lp396
I00
as(g15
g10
g11
tp397
(lp398
I00
as(g14
g18
g11
tp399
(lp400
I00
as(g22
g46
g15
tp401
(lp402
I00
as(g22
g33
g15
tp403
(lp404
I00
as(g23
g11
g11
tp405
(lp406
I00
as(g33
g18
g15
tp407
(lp408
I00
as(g33
g23
g11
tp409
(lp410
I00
as(g18
g33
g15
tp411
(lp412
I00
as(g11
g19
g11
tp413
(lp414
I00
as(g11
g46
g11
tp415
(lp416
I00
as(g19
g14
g11
tp417
(lp418
I00
as(g19
g33
g11
tp419
(lp420
I01
as(g18
g46
g11
tp421
(lp422
I00
as(g22
g30
g11
tp423
(lp424
I00
as(g22
g22
g15
tp425
(lp426
I00
as(g19
g23
g15
tp427
(lp428
I00
as(g23
g11
g15
tp429
(lp430
I00
as(g10
g11
g11
tp431
(lp432
I00
as(g14
g11
g11
tp433
(lp434
I00
as(g19
g10
g15
tp435
(lp436
I00
as(g23
g10
g11
tp437
(lp438
I00
as(g11
g15
g11
tp439
(lp440
I00
as(g18
g18
g11
tp441
(lp442
I00
as(g10
g30
g15
tp443
(lp444
I00
as(g14
g18
g15
tp445
(lp446
I00
as(g15
g22
g11
tp447
(lp448
I00
as(g30
g33
g11
tp449
(lp450
I01
as(g18
g33
g11
tp451
(lp452
I00
as(g14
g15
g11
tp453
(lp454
I00
as(g30
g22
g15
tp455
(lp456
I00
as(g11
g14
g11
tp457
(lp458
I00
as(g18
g19
g15
tp459
(lp460
I00
as(g23
g18
g15
tp461
(lp462
I00
as(g22
g22
g11
tp463
(lp464
I00
as(g19
g23
g11
tp465
(lp466
I01
as(g46
g18
g15
tp467
(lp468
I00
as(g22
g33
g11
tp469
(lp470
I00
as(g11
g23
g11
tp471
(lp472
I00
as(g30
g46
g11
tp473
(lp474
I00
as(g33
g23
g15
tp475
(lp476
I00
as(g23
g23
g11
tp477
(lp478
I00
as(g19
g33
g15
tp479
(lp480
I00
as(g22
g23
g11
tp481
(lp482
I01
as(g46
g15
g15
tp483
(lp484
I00
as(g11
g10
g11
tp485
(lp486
I00
as(g10
g15
g15
tp487
(lp488
I00
as(g11
g33
g15
tp489
(lp490
I00
as(g10
g11
g15
tp491
(lp492
I00
as(g15
g15
g15
tp493
(lp494
I00
as(g22
g18
g15
tp495
(lp496
I00
as(g33
g46
g15
tp497
(lp498
I00
as(g11
g15
g15
tp499
(lp500
I00
as(g10
g30
g11
tp501
(lp502
I00
as(g15
g14
g11
tp503
(lp504
I00
assS'pick_used'
p505
(dp506
Vrectangular_packing_box4
p507
(itrajectory_representation.operator
Operator
p508
(dp509
S'is_skeleton'
p510
I01
sS'discrete_parameters'
p511
(dp512
S'object'
p513
Vrectangular_packing_box4
p514
ssS'type'
p515
S'two_arm_pick'
p516
sS'continuous_parameters'
p517
(dp518
S'q_goal'
p519
(lp520
cnumpy.core.multiarray
_reconstruct
p521
(cnumpy
ndarray
p522
(I0
tp523
S'b'
p524
tp525
Rp526
(I1
(I3
tp527
cnumpy
dtype
p528
(S'f8'
p529
I0
I1
tp530
Rp531
(I3
S'<'
p532
NNNI-1
I-1
I0
tp533
bI00
S'R\xee\xbc7\x1c\xc9\xc2\xbf\x03{?`*X\x16\xc0Wu\xb9\x08\x1c\xbe\xf1\xbf'
p534
tp535
bag521
(g522
(I0
tp536
g524
tp537
Rp538
(I1
(I3
tp539
g531
I00
S'\x96K\xf0\x92\x88\x80\xcb\xbf\xa7C4\x80H\xfd\x15\xc0\xba\r\xd4\xcf\xe37\xe9\xbf'
p540
tp541
bag521
(g522
(I0
tp542
g524
tp543
Rp544
(I1
(I3
tp545
g531
I00
S'\xfa@\x96(\x83\n\xf0?:\x0b\xfe\xca\xdf\x01\x17\xc0\xa1b\xce\xdbM\x85\t\xc0'
p546
tp547
basS'is_feasible'
p548
I00
ssS'low_level_motion'
p549
(lp550
g521
(g522
(I0
tp551
g524
tp552
Rp553
(I1
(I3
tp554
g531
I00
S'dR\xdd8\xd6\x8d\x00@\xc1C|\xd2X\x00\x16\xc0\xc0\xab\x9e\x0b\x900\xd2?'
p555
tp556
bag521
(g522
(I0
tp557
g524
tp558
Rp559
(I1
(I3
tp560
g528
(S'f8'
p561
I0
I1
tp562
Rp563
(I3
S'<'
p564
NNNI-1
I-1
I0
tp565
bI00
S'/\xe1\x02^.|\x00@\xb8\xae\xc5\xcfF\x16\x17\xc0\xf8\x01)d\xc5\xf9\xe2?'
p566
tp567
bag521
(g522
(I0
tp568
g524
tp569
Rp570
(I1
(I3
tp571
g563
I00
S'R\x12);\xaf\xa5\xf7?\xf3\xf9\xeb\x07c\xef\x15\xc0\xf0V^\xd6\x94\x96\x05\xc0'
p572
tp573
bag544
asbsVrectangular_packing_box2
p574
(itrajectory_representation.operator
Operator
p575
(dp576
g510
I01
sg511
(dp577
g513
Vrectangular_packing_box2
p578
ssg515
g516
sg517
(dp579
g519
(lp580
g521
(g522
(I0
tp581
g524
tp582
Rp583
(I1
(I3
tp584
g531
I00
S'\\\xcb,\x86\xdc\x8b\x00@k\x82\xd4\xc5\xd4\x10\x18\xc00\xc0$\xccy\xd6\xee\xbf'
p585
tp586
bag521
(g522
(I0
tp587
g524
tp588
Rp589
(I1
(I3
tp590
g531
I00
S'\xff<pw\x8ff\x05@\xab\xda\xc4\xfel\x80\x1d\xc0\xcdA\xc8e\xbe4\xff?'
p591
tp592
bag521
(g522
(I0
tp593
g524
tp594
Rp595
(I1
(I3
tp596
g531
I00
S'\xb0\xad\xd3U\xa8Y\x08@?\x1aO$\xa5\x05\x1a\xc0\xf0Q\xc7G\x1f\x04\x08\xc0'
p597
tp598
bag521
(g522
(I0
tp599
g524
tp600
Rp601
(I1
(I3
tp602
g531
I00
S'lSh\xe0\x13\x8a\x00@\x82\xd8\xed\xc4\xa6\x14\x18\xc0k\x1d\x9e\x7f\xd3\x06\xeb\xbf'
p603
tp604
basg548
I00
ssg549
(lp605
g521
(g522
(I0
tp606
g524
tp607
Rp608
(I1
(I3
tp609
g531
I00
S'dR\xdd8\xd6\x8d\x00@\xc1C|\xd2X\x00\x16\xc0\xc0\xab\x9e\x0b\x900\xd2?'
p610
tp611
bag521
(g522
(I0
tp612
g524
tp613
Rp614
(I1
(I3
tp615
g563
I00
S'\x16\x9e\xd06H\xd3\x04@\xe5\xe1\xfb\xc5\xb8\xd1\x16\xc0es\x86\x03\xdb\x8e\x17@'
p616
tp617
bag521
(g522
(I0
tp618
g524
tp619
Rp620
(I1
(I3
tp621
g563
I00
S'\xe6rt0\xc6`\x05@\xe8\xf6\xaa\xc7\x03\x10\x17\xc0v\x9e\xc9\x80o\x15\xed\xbf'
p622
tp623
bag583
asbsVrectangular_packing_box3
p624
(itrajectory_representation.operator
Operator
p625
(dp626
g510
I01
sg511
(dp627
g513
Vrectangular_packing_box3
p628
ssg515
g516
sg517
(dp629
g519
(lp630
g521
(g522
(I0
tp631
g524
tp632
Rp633
(I1
(I3
tp634
g531
I00
S'b\x02\xabE\x8f\xc1\xe5?\xf6\xa6\xc5gY\x12\x1f\xc0\\)%M\x96\x93\x08@'
p635
tp636
bag521
(g522
(I0
tp637
g524
tp638
Rp639
(I1
(I3
tp640
g531
I00
S"'\xd1\xfbV\x05J\xdb?=|\xafnm5\x1b\xc0\xcc\xe3\xb3\xbaBQ\x00\xc0"
p641
tp642
bag521
(g522
(I0
tp643
g524
tp644
Rp645
(I1
(I3
tp646
g531
I00
S'\xdd\xf7\x99by\xfe\xe7?\xe0"\xc5\xafi\x18\x1f\xc0{\x81\xfe\xc56\x0f\x07@'
p647
tp648
basg548
I00
ssg549
(lp649
g521
(g522
(I0
tp650
g524
tp651
Rp652
(I1
(I3
tp653
g531
I00
S'dR\xdd8\xd6\x8d\x00@\xc1C|\xd2X\x00\x16\xc0\xc0\xab\x9e\x0b\x900\xd2?'
p654
tp655
bag521
(g522
(I0
tp656
g524
tp657
Rp658
(I1
(I3
tp659
g563
I00
S'\x0e]\xf2K\xc6E\xf7?\x06\x8c\xb9Ybt\x17\xc0%\xac6\x86\x93\xa8\xdd?'
p660
tp661
bag521
(g522
(I0
tp662
g524
tp663
Rp664
(I1
(I3
tp665
g563
I00
S'Pa\x88\xb1[\x02\xf1?\x1e\x1c\xb3\x8d\x8c\xb7\x19\xc0t\xf6\xbb\xc4\x878\x11@'
p666
tp667
bag639
asbsVrectangular_packing_box1
p668
(itrajectory_representation.operator
Operator
p669
(dp670
g510
I01
sg511
(dp671
g513
Vrectangular_packing_box1
p672
ssg515
g516
sg517
(dp673
g519
(lp674
g521
(g522
(I0
tp675
g524
tp676
Rp677
(I1
(I3
tp678
g531
I00
S'\xfd\xc9\xc0\xcf\xd9[\xf0?\x96/#\xddH6\x15\xc0F#\xbeM\xbe$\xf2\xbf'
p679
tp680
bag521
(g522
(I0
tp681
g524
tp682
Rp683
(I1
(I3
tp684
g531
I00
S'\xcc\x86Zb\xfc\x0f\xfa?\xa7\xaf\xcdN\xd7x\x1a\xc0\xb2\xf6\xaa+jH\xfd?'
p685
tp686
bag521
(g522
(I0
tp687
g524
tp688
Rp689
(I1
(I3
tp690
g531
I00
S'\xa30>0\x8a\x8c\xf9?\x0c\x90>\x82\xfb\xec\x1a\xc0\xef\x9c\x19\x05S\xe5\xf8?'
p691
tp692
bag521
(g522
(I0
tp693
g524
tp694
Rp695
(I1
(I3
tp696
g531
I00
S'\x11\x93\xe3j\xcc\x8c\xe2?\xffT\x1dv\xaaL\x19\xc0rg\xce\xd5\x1f~\xd3?'
p697
tp698
basg548
I00
ssg549
(lp699
g521
(g522
(I0
tp700
g524
tp701
Rp702
(I1
(I3
tp703
g531
I00
S'dR\xdd8\xd6\x8d\x00@\xc1C|\xd2X\x00\x16\xc0\xc0\xab\x9e\x0b\x900\xd2?'
p704
tp705
bag521
(g522
(I0
tp706
g524
tp707
Rp708
(I1
(I3
tp709
g563
I00
S'\x00\xda\x1c<\xfd\xdc\x00@j"\x91\xe3 \x1a\x18\xc0i~!@)\xb0\xdc\xbf'
p710
tp711
bag521
(g522
(I0
tp712
g524
tp713
Rp714
(I1
(I3
tp715
g563
I00
S'\xe0 ;\x819w\xfd?\xe7\xcc\xc2\xa0\xa5f\x17\xc04\xedq\x1c\x8eK\xfa?'
p716
tp717
bag683
asbsVsquare_packing_box2
p718
(itrajectory_representation.operator
Operator
p719
(dp720
g510
I01
sg511
(dp721
g513
Vsquare_packing_box2
p722
ssg515
g516
sg517
(dp723
g519
(lp724
g521
(g522
(I0
tp725
g524
tp726
Rp727
(I1
(I3
tp728
g531
I00
S'\xd7\xf2\xfc\xf7\x04\xce\x07@\xc7Ffi\xc6\xf0\x16\xc0\xc5\xbd\xe5i\xab\xcd\xdf\xbf'
p729
tp730
bag521
(g522
(I0
tp731
g524
tp732
Rp733
(I1
(I3
tp734
g531
I00
S' \xd3\x8e\xcahk\x08@\xb6\xdbN\x1b\x86\x83\x16\xc06\xe8\xe4\xa8\x83\xc5\xcb\xbf'
p735
tp736
bag521
(g522
(I0
tp737
g524
tp738
Rp739
(I1
(I3
tp740
g531
I00
S'\xd1Ln\x97\x8eR\x0c@\xd9\xe0c\xed\xbf\xe1\x19\xc07v\xab\x11\x1f\xda\xf6?'
p741
tp742
basg548
I00
ssg549
(lp743
g521
(g522
(I0
tp744
g524
tp745
Rp746
(I1
(I3
tp747
g531
I00
S'dR\xdd8\xd6\x8d\x00@\xc1C|\xd2X\x00\x16\xc0\xc0\xab\x9e\x0b\x900\xd2?'
p748
tp749
bag521
(g522
(I0
tp750
g524
tp751
Rp752
(I1
(I3
tp753
g563
I00
S'\x16\x9e\xd06H\xd3\x04@\xe5\xe1\xfb\xc5\xb8\xd1\x16\xc0es\x86\x03\xdb\x8e\x17@'
p754
tp755
bag521
(g522
(I0
tp756
g524
tp757
Rp758
(I1
(I3
tp759
g563
I00
S'\xe6rt0\xc6`\x05@\xe8\xf6\xaa\xc7\x03\x10\x17\xc0v\x9e\xc9\x80o\x15\xed\xbf'
p760
tp761
bag727
asbsVsquare_packing_box3
p762
(itrajectory_representation.operator
Operator
p763
(dp764
g510
I01
sg511
(dp765
g513
Vsquare_packing_box3
p766
ssg515
g516
sg517
(dp767
g519
(lp768
g521
(g522
(I0
tp769
g524
tp770
Rp771
(I1
(I3
tp772
g531
I00
S'?\xdb\xa1r\xd0\xee\x05@\n\x9f\xfa\xca\xa2\xc6\x1f\xc0v\x15\x1co\n\xac\xda?'
p773
tp774
bag521
(g522
(I0
tp775
g524
tp776
Rp777
(I1
(I3
tp778
g531
I00
S'l\n\x82+\x91\xd2\x06@\x7fjM\x13$\xee\x1b\xc0\xf9*}d\xb6\xdc\xe4\xbf'
p779
tp780
bag521
(g522
(I0
tp781
g524
tp782
Rp783
(I1
(I3
tp784
g531
I00
S'\xc5*r\x01\x7f\xa5\x05@\xb7\xd3l<R\xdd\x1e\xc0~D\xd7\x12\x9f\x12\xe2?'
p785
tp786
basg548
I00
ssg549
(lp787
g521
(g522
(I0
tp788
g524
tp789
Rp790
(I1
(I3
tp791
g531
I00
S'dR\xdd8\xd6\x8d\x00@\xc1C|\xd2X\x00\x16\xc0\xc0\xab\x9e\x0b\x900\xd2?'
p792
tp793
bag521
(g522
(I0
tp794
g524
tp795
Rp796
(I1
(I3
tp797
g563
I00
S'A\xec\xb55+(\x03@v\x14\x1a\xc5J\xca\x18\xc0\xe9\rA\xa0%\xbe\xc7?'
p798
tp799
bag521
(g522
(I0
tp800
g524
tp801
Rp802
(I1
(I3
tp803
g563
I00
S'P\x9d\xdf\x99\xa6e\x04@\x1c`\xb6c\x8e7\x19\xc0@\xf2\xef\xc5\xd3\xc8\x17@'
p804
tp805
bag777
asbsVsquare_packing_box1
p806
(itrajectory_representation.operator
Operator
p807
(dp808
g510
I01
sg511
(dp809
g513
Vsquare_packing_box1
p810
ssg515
g516
sg517
(dp811
g519
(lp812
g521
(g522
(I0
tp813
g524
tp814
Rp815
(I1
(I3
tp816
g531
I00
S'\xb9\x9ct\x99Y\x93\x0e@\xa2\x82\x19\x7fa\xb4\x17\xc0\x0f\x07\x97\xeb\xfc\n\x00@'
p817
tp818
bag521
(g522
(I0
tp819
g524
tp820
Rp821
(I1
(I3
tp822
g531
I00
S'\xec^\xef\x9djg\x0b@\x05\x94\xb6\xd3\x8f~\x18\xc0>x\x0c\xcbf\xe5\xfe?'
p823
tp824
bag521
(g522
(I0
tp825
g524
tp826
Rp827
(I1
(I3
tp828
g531
I00
S'\xc3\xdc\xf4\xda\x03v\x06@\x8c\x18_H\xa8\xe9\x15\xc0D\xab\x1bg,\x98\xe0?'
p829
tp830
basg548
I00
ssg549
(lp831
g521
(g522
(I0
tp832
g524
tp833
Rp834
(I1
(I3
tp835
g531
I00
S'dR\xdd8\xd6\x8d\x00@\xc1C|\xd2X\x00\x16\xc0\xc0\xab\x9e\x0b\x900\xd2?'
p836
tp837
bag827
asbsVsquare_packing_box4
p838
(itrajectory_representation.operator
Operator
p839
(dp840
g510
I01
sg511
(dp841
g513
Vsquare_packing_box4
p842
ssg515
g516
sg517
(dp843
g519
(lp844
g521
(g522
(I0
tp845
g524
tp846
Rp847
(I1
(I3
tp848
g531
I00
S'\x9f\xdc\xa0]\xb4\xb3\xed?8\xb9\xcf\x1f\xa8Q\x13\xc0\x84{\x0cpr\x06\xf8\xbf'
p849
tp850
bag521
(g522
(I0
tp851
g524
tp852
Rp853
(I1
(I3
tp854
g531
I00
S"\xac\xbc\x08\xcd\xa0\xd3\xe8?o\xe8\x8e\x11\xcd\xc4\x13\xc0\xfb\xfe\xcd'\xcd\x89\xf6\xbf"
p855
tp856
bag521
(g522
(I0
tp857
g524
tp858
Rp859
(I1
(I3
tp860
g531
I00
S'\x035\xec\x12j\xa2\xf1?\x00X\x81\xf7\x02\xe8\x19\xc0\x0e\x02n)J!\xf2?'
p861
tp862
basg548
I00
ssg549
(lp863
g521
(g522
(I0
tp864
g524
tp865
Rp866
(I1
(I3
tp867
g531
I00
S'dR\xdd8\xd6\x8d\x00@\xc1C|\xd2X\x00\x16\xc0\xc0\xab\x9e\x0b\x900\xd2?'
p868
tp869
bag521
(g522
(I0
tp870
g524
tp871
Rp872
(I1
(I3
tp873
g563
I00
S'/\xe1\x02^.|\x00@\xb8\xae\xc5\xcfF\x16\x17\xc0\xf8\x01)d\xc5\xf9\xe2?'
p874
tp875
bag521
(g522
(I0
tp876
g524
tp877
Rp878
(I1
(I3
tp879
g563
I00
S'j\xc7\xc0&\x8ag\xf6?h\x9cH4\x7f\xab\x18\xc0\xd8|\x1d\xfc\xcbV\xf2?'
p880
tp881
bag859
asbssS'use_prm'
p882
I01
sS'object_names'
p883
(lp884
S'square_packing_box1'
p885
aS'rectangular_packing_box1'
p886
aS'square_packing_box2'
p887
aS'rectangular_packing_box2'
p888
aS'square_packing_box3'
p889
aS'rectangular_packing_box3'
p890
aS'square_packing_box4'
p891
aS'rectangular_packing_box4'
p892
asg7
NsS'current_holding_collides'
p893
(dp894
Vrectangular_packing_box4
p895
c__builtin__
set
p896
((lp897
tp898
Rp899
sVrectangular_packing_box2
p900
g896
((lp901
I256
aI514
aI449
aI268
aI194
aI219
aI145
aI146
aI538
aI413
aI35
aI36
aI37
aI422
aI220
aI556
aI302
aI303
aI561
aI178
aI179
aI54
aI55
aI443
aI188
aI62
aI63
aI64
aI65
aI66
aI67
aI68
aI69
aI435
aI577
aI205
aI79
aI80
aI210
aI595
aI215
aI89
aI90
aI91
aI92
aI605
aI611
aI550
aI438
aI444
aI114
aI115
aI372
aI376
aI511
atp902
Rp903
sVrectangular_packing_box3
p904
g896
((lp905
I384
aI257
aI133
aI134
aI135
aI136
aI265
aI394
aI580
aI532
aI153
aI154
aI157
aI158
aI159
aI164
aI433
aI564
aI521
aI575
aI452
aI197
aI583
aI328
aI589
aI83
aI346
aI478
aI356
aI229
aI366
aI502
aI121
aI122
atp906
Rp907
sVrectangular_packing_box1
p908
g896
((lp909
I554
aI4
aI5
aI137
aI132
aI517
aI416
aI161
aI34
aI35
aI42
aI43
aI301
aI584
aI178
aI309
aI310
aI55
aI56
aI570
aI187
aI449
aI459
aI70
aI71
aI456
aI201
aI202
aI203
aI162
aI82
aI163
aI84
aI597
aI89
aI92
aI93
aI94
aI607
aI327
aI484
aI233
aI106
aI107
aI108
aI497
aI595
aI379
aI252
aI362
atp910
Rp911
sVsquare_packing_box2
p912
g896
((lp913
I0
aI1
aI393
aI144
aI403
aI541
aI545
aI546
aI555
aI571
aI454
aI342
aI473
aI474
aI367
aI368
aI369
aI370
aI371
aI247
aI248
aI377
aI378
atp914
Rp915
sVsquare_packing_box3
p916
g896
((lp917
I513
aI386
aI387
aI260
aI269
aI270
aI515
aI405
aI280
aI436
aI565
aI440
aI442
aI573
aI193
aI68
aI210
aI339
aI340
aI213
aI220
aI479
aI354
aI613
aI614
aI111
aI112
aI113
aI211
aI245
aI375
aI212
aI381
aI254
aI255
atp918
Rp919
sVsquare_packing_box1
p920
g896
((lp921
I0
aI1
aI546
aI454
aI545
aI393
aI555
aI541
aI144
aI369
aI370
aI371
aI342
aI377
aI378
aI571
aI474
atp922
Rp923
sVsquare_packing_box4
p924
g896
((lp925
I235
aI132
aI517
aI6
aI8
aI301
aI554
aI404
aI416
aI33
aI34
aI607
aI584
aI42
aI43
aI44
aI45
aI456
aI309
aI56
aI186
aI187
aI189
aI459
aI196
aI71
aI72
aI203
aI162
aI595
aI84
aI93
aI94
aI95
aI327
aI484
aI233
aI106
aI107
aI108
aI445
aI497
aI503
aI252
aI234
aI383
atp926
Rp927
ssS'reachable_regions_while_holding'
p928
(lp929
(g507
g15
tp930
a(g574
g15
tp931
a(g624
g15
tp932
a(g668
g15
tp933
a(g718
g15
tp934
a(g762
g15
tp935
a(g806
g15
tp936
a(g838
g15
tp937
a(g507
g11
tp938
a(g838
g11
tp939
asS'object_poses'
p940
(dp941
Vrectangular_packing_box4
p942
g521
(g522
(I0
tp943
g524
tp944
Rp945
(I1
(I1
I3
tp946
g531
I00
S'\x98\x1e]pS`\xd2?\x16\x1b\xb6\xe9Ei\x18\xc0\x82\x97\xe8\xa1t:\xe4?'
p947
tp948
bsVrectangular_packing_box2
p949
g521
(g522
(I0
tp950
g524
tp951
Rp952
(I1
(I1
I3
tp953
g531
I00
S'x#\x8a\xa8\xbfB\x02@]@\xdd\xaa0\xf7\x1a\xc0\xa2\x93\xe4\xf2\xe3\x8f\xe0?'
p954
tp955
bsVrectangular_packing_box3
p956
g521
(g522
(I0
tp957
g524
tp958
Rp959
(I1
(I1
I3
tp960
g531
I00
S'\xbc\xa2$/\t\xb1\xb0?p\xd9\xd7\x88y7\x1e\xc0\xa1\xa8\xa4gcb\x12@'
p961
tp962
bsVrectangular_packing_box1
p963
g521
(g522
(I0
tp964
g524
tp965
Rp966
(I1
(I1
I3
tp967
g531
I00
S'\xf81, \xdaJ\xf5?\x90\x94\xc7_\x9e4\x18\xc0\x88,&\x8ck,\x0b@'
p968
tp969
bsVsquare_packing_box2
p970
g521
(g522
(I0
tp971
g524
tp972
Rp973
(I1
(I1
I3
tp974
g531
I00
S'\xb3\x99\x7f<\xad\xb4\r@\xd8\xe5\x95\xe8\xfc\xf0\x16\xc0Y\x96n\x9e\xe7\t\x19@'
p975
tp976
bsVsquare_packing_box3
p977
g521
(g522
(I0
tp978
g524
tp979
Rp980
(I1
(I1
I3
tp981
g531
I00
S'2\xc7\x84Ad\xa3\n@\xae\xaf\xb2\x18;\x05\x1e\xc0j8\xf9\x85\xb6\xac\x0f@'
p982
tp983
bsVsquare_packing_box1
p984
g521
(g522
(I0
tp985
g524
tp986
Rp987
(I1
(I1
I3
tp988
g531
I00
S'\x15\xcf\x19\xc3\xf23\x0c@\x8b\xb5r\xad\x0f?\x15\xc0\xbf~a\xe9h\n\x13@'
p989
tp990
bsVsquare_packing_box4
p991
g521
(g522
(I0
tp992
g524
tp993
Rp994
(I1
(I1
I3
tp995
g531
I00
S'V\xce\xcef\xfe\xbb\xf0?J@\xfc\xa1\x9e\xc0\x16\xc0\xaeKe\x14U\xf8\x13@'
p996
tp997
bssS'place_in_way'
p998
(itrajectory_representation.predicates.place_in_way
PlaceInWay
p999
(dp1000
S'mc_path_to_entity'
p1001
(dp1002
(g30
g11
tp1003
(lp1004
g521
(g522
(I0
tp1005
g524
tp1006
Rp1007
(I1
(I3
tp1008
g531
I00
S'`\x02\xabE\x8f\xc1\xe5?\xf5\xa6\xc5gY\x12\x1f\xc0\\)%M\x96\x93\x08@'
p1009
tp1010
bag521
(g522
(I0
tp1011
g524
tp1012
Rp1013
(I1
(I3
tp1014
g563
I00
S'\xd23W\xd6\xdd\xe3\xe6?\xdc\xcai,~\xa9\x1c\xc0\xe4\x03\x93/\x16_\x04\xc0'
p1015
tp1016
bag521
(g522
(I0
tp1017
g524
tp1018
Rp1019
(I1
(I3
tp1020
g563
I00
S'\xf8\xfc\x1a\xd0\xc9l\xe8?\x8a\x897\x8e~\x98\x1a\xc0\xaf\xf7\xb87\xc6\xa7\x01\xc0'
p1021
tp1022
bag521
(g522
(I0
tp1023
g524
tp1024
Rp1025
(I1
(I3
tp1026
g563
I00
S"\xc6'8AN\xb0\xec?\xe0\x975>\x0f\x03\x19\xc0(\xe0e;\x85\x89\x05\xc0"
p1027
tp1028
bag521
(g522
(I0
tp1029
g524
tp1030
Rp1031
(I1
(I3
tp1032
g563
I00
S'\xd0\xcb\x13\x8f\xaa\x9d\xed?\x90\x01<]3\x06\x16\xc0F\xf1\xe7x32\x02\xc0'
p1033
tp1034
bag521
(g522
(I0
tp1035
g524
tp1036
Rp1037
(I1
(I3
tp1038
g563
I00
S'l[\xc4\x16<\xe6\xe9?\xa6\xa0\x90\x84X\x9f\x13\xc0\xc2\xd74Q\x00\xaf\xff\xbf'
p1039
tp1040
bag521
(g522
(I0
tp1041
g524
tp1042
Rp1043
(I1
(I3
tp1044
g563
I00
S"\xaeJ\xbd\x1936\xec?\x04\x13\xd4'\x9f\x88\x10\xc0\x805qo\xb6\xe6\xff\xbf"
p1045
tp1046
bag521
(g522
(I0
tp1047
g524
tp1048
Rp1049
(I1
(I3
tp1050
g563
I00
S'\xf09\xb6\x1c*\x86\xee?\xc4\n/\x96\xcb\xe3\n\xc0\xa0\xc9\xd6F6\x0f\x00\xc0'
p1051
tp1052
bag521
(g522
(I0
tp1053
g524
tp1054
Rp1055
(I1
(I3
tp1056
g563
I00
S'3\xe9\xaf\x05T\x89\xe7?+~\xcb\xd3\x15\xc7\x04\xc0x6(d5\xed\x07@'
p1057
tp1058
bas(g14
g11
tp1059
(lp1060
g521
(g522
(I0
tp1061
g524
tp1062
Rp1063
(I1
(I3
tp1064
g531
I00
S'\xbb\x9ct\x99Y\x93\x0e@\xa2\x82\x19\x7fa\xb4\x17\xc0\x0f\x07\x97\xeb\xfc\n\x00@'
p1065
tp1066
bag521
(g522
(I0
tp1067
g524
tp1068
Rp1069
(I1
(I3
tp1070
g563
I00
S'\xcb\x1a\x84\x1d\\\x9c\x08@\xec\xcbi\xc9#;\x18\xc0\xbf\xf24g\x02T\x05@'
p1071
tp1072
bag521
(g522
(I0
tp1073
g524
tp1074
Rp1075
(I1
(I3
tp1076
g563
I00
S'\xf8d\x877\x12\xfd\x04@h\xdbW\x9a\x83\x8e\x16\xc0\x87\xf16\xb9\x03k\x05@'
p1077
tp1078
bag521
(g522
(I0
tp1079
g524
tp1080
Rp1081
(I1
(I3
tp1082
g563
I00
S'\xc7\xc7\x06s\xd6\xa3\xff?3\x91\xe4\x97\xb5\x07\x16\xc0\x1bW\xbc\xbfY:\x06@'
p1083
tp1084
bag521
(g522
(I0
tp1085
g524
tp1086
Rp1087
(I1
(I3
tp1088
g563
I00
S'\x85\\2\xba\x0b5\xf5?I\r\x06\xd10\xfb\x15\xc0\x9e\x11\xee\xd8\xb9\xd7\xf5?'
p1089
tp1090
bag521
(g522
(I0
tp1091
g524
tp1092
Rp1093
(I1
(I3
tp1094
g563
I00
S'v\xb8^\x85\xa7[\xea?x\xbe\xff2t\x8d\x13\xc0\x88\x85\x8cCyH\xf6?'
p1095
tp1096
bag521
(g522
(I0
tp1097
g524
tp1098
Rp1099
(I1
(I3
tp1100
g563
I00
S'\xc2\xda(e\x83\x1a\xeb?\x8au\x8d3\xa6E\x11\xc0\xb4c\x1b\xed_\xfd\xfa?'
p1101
tp1102
bag521
(g522
(I0
tp1103
g524
tp1104
Rp1105
(I1
(I3
tp1106
g563
I00
S'\xe4u**\x0e5\xe9?\xaa\xfd\r\xed\xc4\xf6\r\xc0\x0fDE0\x1f\x0b\xfe?'
p1107
tp1108
bag521
(g522
(I0
tp1109
g524
tp1110
Rp1111
(I1
(I3
tp1112
g563
I00
S'\x06\x11,\xef\x98O\xe7??\x10\x01s=b\t\xc04\x92\xb79o\x8c\x00@'
p1113
tp1114
bag521
(g522
(I0
tp1115
g524
tp1116
Rp1117
(I1
(I3
tp1118
g563
I00
S'\x92\xaf\xf3P\x96O\xc2?(\xa1:\x8er}\x05\xc0\xd4_\x91\xb3\xffL\x02@'
p1119
tp1120
bas(g22
g11
tp1121
(lp1122
g521
(g522
(I0
tp1123
g524
tp1124
Rp1125
(I1
(I3
tp1126
g531
I00
S'\xd6\xf2\xfc\xf7\x04\xce\x07@\xc7Ffi\xc6\xf0\x16\xc0<\xd1\xa5\x9d %\x17@'
p1127
tp1128
bag521
(g522
(I0
tp1129
g524
tp1130
Rp1131
(I1
(I3
tp1132
g563
I00
S'\x02:\xde\x84?\xc0\x03@\x16\xfaJE\x8a\x0f\x19\xc0\x13\xc0\x8b\x01\x1d?\xf4\xbf'
p1133
tp1134
bag521
(g522
(I0
tp1135
g524
tp1136
Rp1137
(I1
(I3
tp1138
g563
I00
S'!\x83\xc0\xf3W\x85\xff?\xed\x8f\x90/y\xfd\x16\xc06jP\xfe\x98\xf5\xf4\xbf'
p1139
tp1140
bag521
(g522
(I0
tp1141
g524
tp1142
Rp1143
(I1
(I3
tp1144
g563
I00
S'2Z\xe1\xe97J\xf6?\\\x1e`@2v\x16\xc0\xc4\x0c\xcc\x14<\xf9\xf6\xbf'
p1145
tp1146
bag521
(g522
(I0
tp1147
g524
tp1148
Rp1149
(I1
(I3
tp1150
g563
I00
S'tx\x8as\xa8b\xed?\x9ej\x15\xfa\xf0{\x15\xc0@\xed\x9a-\x9eD\xf2\xbf'
p1151
tp1152
bag521
(g522
(I0
tp1153
g524
tp1154
Rp1155
(I1
(I3
tp1156
g563
I00
S"\xb2&6mg)\xe8?\x99\xe0G'\x16\xe0\x13\xc0\xc8oL\xf5\x17p\xe6\xbf"
p1157
tp1158
bag521
(g522
(I0
tp1159
g524
tp1160
Rp1161
(I1
(I3
tp1162
g563
I00
S'`\xc8Aw-\x81\xeb?/\xc3\xe6O\x04\xca\x10\xc0\x8a\xb7K)\x91{\xe4\xbf'
p1163
tp1164
bag521
(g522
(I0
tp1165
g524
tp1166
Rp1167
(I1
(I3
tp1168
g563
I00
S'\xe1\xc6\xc7\xa7\x12X\xe7?\x98\x99\xb0\x9a\xfb\xdb\x0b\xc0R\t\x1b)\xeae\xe0\xbf'
p1169
tp1170
bag521
(g522
(I0
tp1171
g524
tp1172
Rp1173
(I1
(I3
tp1174
g563
I00
S'p\xf1\xbdc^\x84\xf1?"\x88LL\xf9D\x06\xc0~w\r\xe9m\x0f\x19@'
p1175
tp1176
bas(g19
g11
tp1177
(lp1178
g521
(g522
(I0
tp1179
g524
tp1180
Rp1181
(I1
(I3
tp1182
g531
I00
S'\x00\xca\xc0\xcf\xd9[\xf0?\x95/#\xddH6\x15\xc0F\xa4\xd4\xc0\xcb\x98\x14@'
p1183
tp1184
bag521
(g522
(I0
tp1185
g524
tp1186
Rp1187
(I1
(I3
tp1188
g563
I00
S'l[\xc4\x16<\xe6\xe9?\xa6\xa0\x90\x84X\x9f\x13\xc0\xc2\xd74Q\x00\xaf\xff\xbf'
p1189
tp1190
bag521
(g522
(I0
tp1191
g524
tp1192
Rp1193
(I1
(I3
tp1194
g563
I00
S"\xaeJ\xbd\x1936\xec?\x04\x13\xd4'\x9f\x88\x10\xc0\x805qo\xb6\xe6\xff\xbf"
p1195
tp1196
bag521
(g522
(I0
tp1197
g524
tp1198
Rp1199
(I1
(I3
tp1200
g563
I00
S'\xf09\xb6\x1c*\x86\xee?\xc4\n/\x96\xcb\xe3\n\xc0\xa0\xc9\xd6F6\x0f\x00\xc0'
p1201
tp1202
bag521
(g522
(I0
tp1203
g524
tp1204
Rp1205
(I1
(I3
tp1206
g563
I00
S'3\xe9\xaf\x05T\x89\xe7?+~\xcb\xd3\x15\xc7\x04\xc0x6(d5\xed\x07@'
p1207
tp1208
bas(g46
g11
tp1209
(lp1210
g521
(g522
(I0
tp1211
g524
tp1212
Rp1213
(I1
(I3
tp1214
g531
I00
S'@\xdb\xa1r\xd0\xee\x05@\x0b\x9f\xfa\xca\xa2\xc6\x1f\xc0v\x15\x1co\n\xac\xda?'
p1215
tp1216
bag521
(g522
(I0
tp1217
g524
tp1218
Rp1219
(I1
(I3
tp1220
g563
I00
S'\xb9O\xa7Y\x02\x91\x00@\x96d\x95\x0e\xe6\xda\x1e\xc0l\xef\x8e\x11Rk\xeb?'
p1221
tp1222
bag521
(g522
(I0
tp1223
g524
tp1224
Rp1225
(I1
(I3
tp1226
g563
I00
S'b\x95[\xf7r*\x00@:\x8f7a\xbf]\x1c\xc0\x98.\xce\xc6\x89M\xf2?'
p1227
tp1228
bag521
(g522
(I0
tp1229
g524
tp1230
Rp1231
(I1
(I3
tp1232
g563
I00
S'\xb9\x81\xdfb\xdf\x92\xfe?\x1a\xe3?2\xb6\xec\x1a\xc0B\x1b\x81\xfa\x93C\xfa?'
p1233
tp1234
bag521
(g522
(I0
tp1235
g524
tp1236
Rp1237
(I1
(I3
tp1238
g563
I00
S'{\xe7\xcc\xce\x02,\xf5?\xeb\x85\xf2\xb4\xc9\x08\x19\xc0\xcd\x97\xf6\xcc\xe4z\x00@'
p1239
tp1240
bag521
(g522
(I0
tp1241
g524
tp1242
Rp1243
(I1
(I3
tp1244
g563
I00
S'o\xd6\x82\xea\x7f\xb2\xed?9\xf2C\x0b?\xfd\x16\xc0(?d\xe9@\xb5\x02@'
p1245
tp1246
bag521
(g522
(I0
tp1247
g524
tp1248
Rp1249
(I1
(I3
tp1250
g563
I00
S'&>c9\x01,\xeb?\xb2\xc2\xf0\x02\xce\x8e\x14\xc0\xd8p\xbb2\x14\xd2\x03@'
p1251
tp1252
bag521
(g522
(I0
tp1253
g524
tp1254
Rp1255
(I1
(I3
tp1256
g563
I00
S'\xc6\x05\xbdtg\xd9\xe2?F\xdf\x9d@\\\xf3\x11\xc0\x1a\xc4.\xbb\xcc\x12\x02@'
p1257
tp1258
bag521
(g522
(I0
tp1259
g524
tp1260
Rp1261
(I1
(I3
tp1262
g563
I00
S'3z\xed\x8eN)\xe4?\x0c\x96\xd4\xa2\x0e\xd0\r\xc0\xbd%\xf5{\xe9\xf9\x03@'
p1263
tp1264
bag521
(g522
(I0
tp1265
g524
tp1266
Rp1267
(I1
(I3
tp1268
g563
I00
S'\xaf0\xe9h\xba~\xee?k\xbb\xd8\xd4\xd0g\t\xc09\x9ey\xed\xb06\x06@'
p1269
tp1270
bag521
(g522
(I0
tp1271
g524
tp1272
Rp1273
(I1
(I3
tp1274
g563
I00
S'\xf4\xfdJ\x1a(#\xec?H"\x9cD\x1aE\x05\xc0.\xa9\x0b\x87\xf8\xe1\x02@'
p1275
tp1276
bas(g10
g11
tp1277
(lp1278
g521
(g522
(I0
tp1279
g524
tp1280
Rp1281
(I1
(I3
tp1282
g531
I00
S'^\xcb,\x86\xdc\x8b\x00@k\x82\xd4\xc5\xd4\x10\x18\xc0\x12\x95\xbf\x1a,G\x15@'
p1283
tp1284
bag521
(g522
(I0
tp1285
g524
tp1286
Rp1287
(I1
(I3
tp1288
g563
I00
S'\x12\xfe\xe1\x95\xb8\x19\xf8?\x8c#.~\xd7\xc6\x16\xc0\xfe\xd3A\xf0\xcat\xc0\xbf'
p1289
tp1290
bag521
(g522
(I0
tp1291
g524
tp1292
Rp1293
(I1
(I3
tp1294
g563
I00
S'\xe4\x9e\xb7\xac\xe0!\xeb?\x8a\x83\x10\xb1\xa2\xad\x15\xc0\x9aS\xfbY\xaf\x8f\xd2\xbf'
p1295
tp1296
bag521
(g522
(I0
tp1297
g524
tp1298
Rp1299
(I1
(I3
tp1300
g563
I00
S"\xb2&6mg)\xe8?\x99\xe0G'\x16\xe0\x13\xc0\xc8oL\xf5\x17p\xe6\xbf"
p1301
tp1302
bag521
(g522
(I0
tp1303
g524
tp1304
Rp1305
(I1
(I3
tp1306
g563
I00
S'`\xc8Aw-\x81\xeb?/\xc3\xe6O\x04\xca\x10\xc0\x8a\xb7K)\x91{\xe4\xbf'
p1307
tp1308
bag521
(g522
(I0
tp1309
g524
tp1310
Rp1311
(I1
(I3
tp1312
g563
I00
S'\xe1\xc6\xc7\xa7\x12X\xe7?\x98\x99\xb0\x9a\xfb\xdb\x0b\xc0R\t\x1b)\xeae\xe0\xbf'
p1313
tp1314
bag521
(g522
(I0
tp1315
g524
tp1316
Rp1317
(I1
(I3
tp1318
g563
I00
S'p\xf1\xbdc^\x84\xf1?"\x88LL\xf9D\x06\xc0~w\r\xe9m\x0f\x19@'
p1319
tp1320
bassS'mc_to_entity'
p1321
(dp1322
(g30
g11
tp1323
(lp1324
Vrectangular_packing_box1
p1325
aVsquare_packing_box4
p1326
aVrectangular_packing_box4
p1327
as(g14
g11
tp1328
(lp1329
Vsquare_packing_box2
p1330
aVrectangular_packing_box1
p1331
aVsquare_packing_box4
p1332
as(g22
g11
tp1333
(lp1334
Vrectangular_packing_box2
p1335
aVrectangular_packing_box1
p1336
aVsquare_packing_box4
p1337
as(g19
g11
tp1338
(lp1339
Vsquare_packing_box4
p1340
aVrectangular_packing_box4
p1341
as(g46
g11
tp1342
(lp1343
Vrectangular_packing_box2
p1344
aVrectangular_packing_box1
p1345
aVsquare_packing_box4
p1346
as(g10
g11
tp1347
(lp1348
Vrectangular_packing_box1
p1349
aVsquare_packing_box4
p1350
assS'reachable_entities'
p1351
(lp1352
g574
ag718
ag806
asS'collides'
p1353
(dp1354
Vrectangular_packing_box4
p1355
g896
((lp1356
I491
aI132
aI517
aI6
aI137
aI138
aI139
aI276
aI152
aI153
aI154
aI157
aI417
aI34
aI547
aI165
aI166
aI424
aI553
aI584
aI521
aI196
aI198
aI456
aI518
aI459
aI338
aI84
aI349
aI350
aI351
aI362
aI107
aI108
aI503
aI249
aI252
aI383
atp1357
Rp1358
sVrectangular_packing_box2
p1359
g896
((lp1360
I256
aI577
aI268
aI194
aI145
aI538
aI413
aI219
aI36
aI37
aI422
aI220
aI561
aI178
aI179
aI54
aI443
aI188
aI63
aI64
aI65
aI66
aI69
aI435
aI205
aI79
aI80
aI595
aI215
aI89
aI90
aI91
aI92
aI444
aI114
aI115
aI376
aI511
atp1361
Rp1362
sVrectangular_packing_box3
p1363
g896
((lp1364
I384
aI257
aI134
aI265
aI394
aI532
aI580
aI158
aI159
aI164
aI433
aI564
aI575
aI452
aI583
aI328
aI589
aI83
aI478
aI356
aI229
aI366
aI502
atp1365
Rp1366
sVrectangular_packing_box1
p1367
g896
((lp1368
I4
aI5
aI137
aI132
aI416
aI161
aI34
aI35
aI554
aI43
aI301
aI584
aI309
aI310
aI55
aI56
aI570
aI187
aI449
aI70
aI327
aI456
aI201
aI202
aI203
aI162
aI595
aI84
aI597
aI93
aI94
aI607
aI484
aI233
aI106
aI107
aI108
aI497
aI252
atp1369
Rp1370
sVsquare_packing_box2
p1371
g896
((lp1372
I0
aI1
aI546
aI545
aI555
aI403
aI367
aI368
aI369
aI370
aI371
aI342
aI377
aI378
aI571
aI541
aI474
atp1373
Rp1374
sVsquare_packing_box3
p1375
g896
((lp1376
I513
aI386
aI260
aI269
aI270
aI405
aI280
aI436
aI565
aI440
aI573
aI193
aI68
aI210
aI339
aI340
aI213
aI479
aI354
aI613
aI614
aI111
aI112
aI113
aI211
aI245
aI375
aI212
aI381
aI254
aI255
atp1377
Rp1378
sVsquare_packing_box1
p1379
g896
((lp1380
I0
aI1
aI546
aI454
aI555
aI369
aI370
aI371
aI342
aI378
aI571
aI541
atp1381
Rp1382
sVsquare_packing_box4
p1383
g896
((lp1384
I235
aI132
aI517
aI8
aI416
aI33
aI34
aI607
aI554
aI43
aI44
aI301
aI584
aI56
aI186
aI187
aI459
aI196
aI71
aI456
aI203
aI162
aI84
aI93
aI94
aI95
aI327
aI484
aI233
aI234
aI107
aI108
aI497
aI252
aI106
atp1385
Rp1386
ssg2
g3
sg505
g506
sS'mc_paths'
p1387
(dp1388
sS'robot'
p1389
NsS'reachable_obj_region_pairs'
p1390
(lp1391
sS'sampled_pick_configs_for_objects'
p1392
(dp1393
sS'mc_calls'
p1394
I0
sS'pick_poses'
p1395
g506
sg7
NsS'evaluations'
p1396
(dp1397
(g19
g10
g11
tp1398
I00
s(g22
g10
g11
tp1399
I01
s(g10
g46
g11
tp1400
I00
s(g46
g14
g11
tp1401
I00
s(g14
g30
g11
tp1402
I00
s(g46
g10
g11
tp1403
I01
s(g22
g14
g11
tp1404
I00
s(g19
g14
g11
tp1405
I00
s(g19
g33
g11
tp1406
I01
s(g22
g30
g11
tp1407
I00
s(g46
g30
g11
tp1408
I00
s(g14
g10
g11
tp1409
I00
s(g46
g23
g11
tp1410
I01
s(g10
g19
g11
tp1411
I01
s(g30
g14
g11
tp1412
I00
s(g46
g33
g11
tp1413
I00
s(g10
g14
g11
tp1414
I00
s(g30
g33
g11
tp1415
I01
s(g10
g23
g11
tp1416
I01
s(g14
g19
g11
tp1417
I01
s(g30
g46
g11
tp1418
I00
s(g30
g19
g11
tp1419
I01
s(g46
g19
g11
tp1420
I01
s(g19
g23
g11
tp1421
I01
s(g22
g19
g11
tp1422
I01
s(g30
g23
g11
tp1423
I01
s(g22
g33
g11
tp1424
I00
s(g46
g22
g11
tp1425
I00
s(g14
g22
g11
tp1426
I01
s(g22
g23
g11
tp1427
I01
s(g14
g46
g11
tp1428
I00
s(g22
g46
g11
tp1429
I00
s(g19
g46
g11
tp1430
I00
s(g19
g30
g11
tp1431
I00
s(g30
g10
g11
tp1432
I00
s(g10
g22
g11
tp1433
I00
s(g14
g23
g11
tp1434
I01
s(g14
g33
g11
tp1435
I00
s(g10
g33
g11
tp1436
I00
s(g30
g22
g11
tp1437
I00
s(g10
g30
g11
tp1438
I00
s(g19
g22
g11
tp1439
I00
ssS'paths_to_reachable_entities'
p1440
NsS'use_shortest_path'
p1441
I01
sbsS'cached_pick_paths'
p1442
(dp1443
g507
g550
sg574
g605
sg624
g649
sg668
g699
sg718
g743
sg762
g787
sg806
g831
sg838
g863
ssg1353
(dp1444
(Vsquare_packing_box4
p1445
(cnumpy.core.multiarray
scalar
p1446
(g531
S'\x90\xc0\x1f~\xfe\xbb\xf0?'
p1447
tp1448
Rp1449
g1446
(g531
S'8\xdb\xdc\x98\x9e\xc0\x16\xc0'
p1450
tp1451
Rp1452
g1446
(g531
S'\xda\x8c\xd3\x10U\xf8\x13@'
p1453
tp1454
Rp1455
tp1456
tp1457
g1386
s(Vrectangular_packing_box2
p1458
(g1446
(g531
S'\xce\xe30\x98\xbfB\x02@'
p1459
tp1460
Rp1461
g1446
(g531
S'\xf9hq\xc60\xf7\x1a\xc0'
p1462
tp1463
Rp1464
g1446
(g531
S'V\xbc\x91y\xe4\x8f\xe0?'
p1465
tp1466
Rp1467
tp1468
tp1469
g1362
s(Vrectangular_packing_box3
p1470
(g1446
(g531
S'{\x9f\xaaB\x03\xb1\xb0?'
p1471
tp1472
Rp1473
g1446
(g531
S'\x0f\x0b\xb5\xa6y7\x1e\xc0'
p1474
tp1475
Rp1476
g1446
(g531
S'\xe5\xef\xdeQcb\x12@'
p1477
tp1478
Rp1479
tp1480
tp1481
g1366
s(Vrectangular_packing_box4
p1482
(g1446
(g531
S'}\xec.PR`\xd2?'
p1483
tp1484
Rp1485
g1446
(g531
S'\x8fT\xdf\xf9Ei\x18\xc0'
p1486
tp1487
Rp1488
g1446
(g531
S'\xe8\xf9\xd3Fu:\xe4?'
p1489
tp1490
Rp1491
tp1492
tp1493
g1358
s(Vsquare_packing_box2
p1494
(g1446
(g531
S'6\x90.6\xad\xb4\r@'
p1495
tp1496
Rp1497
g1446
(g531
S'7\xc3\r\xf8\xfc\xf0\x16\xc0'
p1498
tp1499
Rp1500
g1446
(g531
S'\xe9\x9d\n\xb8\xe7\t\x19@'
p1501
tp1502
Rp1503
tp1504
tp1505
g1374
s(Vsquare_packing_box3
p1506
(g1446
(g531
S'\xc7\xbc\x8e8d\xa3\n@'
p1507
tp1508
Rp1509
g1446
(g531
S'\xb8\xca\x13\x08;\x05\x1e\xc0'
p1510
tp1511
Rp1512
g1446
(g531
S'\xde\xc9\xa7\xc7\xb6\xac\x0f@'
p1513
tp1514
Rp1515
tp1516
tp1517
g1378
s(Vsquare_packing_box1
p1518
(g1446
(g531
S'N\xb4\xab\x90\xf23\x0c@'
p1519
tp1520
Rp1521
g1446
(g531
S'Q\xf5+\x9d\x0f?\x15\xc0'
p1522
tp1523
Rp1524
g1446
(g531
S'\xe2\x1f\xb6\xf4h\n\x13@'
p1525
tp1526
Rp1527
tp1528
tp1529
g1382
s(Vrectangular_packing_box1
p1530
(g1446
(g531
S'\xa8\xdf\x85\xad\xd9J\xf5?'
p1531
tp1532
Rp1533
g1446
(g531
S'\x14\x05\xfaD\x9e4\x18\xc0'
p1534
tp1535
Rp1536
g1446
(g531
S'\xb13\x85\xcek,\x0b@'
p1537
tp1538
Rp1539
tp1540
tp1541
g1370
ssS'state_saver'
p1542
(igtamp_utils.utils
CustomStateSaver
p1543
(dp1544
S'robot_base_pose'
p1545
g521
(g522
(I0
tp1546
g524
tp1547
Rp1548
(I1
(I1
I3
tp1549
g531
I00
S'fR\xdd8\xd6\x8d\x00@\xbfC|\xd2X\x00\x16\xc0\xc1\xab\x9e\x0b\x900\xd2?'
p1550
tp1551
bsS'held_object'
p1552
NsS'robot_name'
p1553
S'pr2'
p1554
sS'env_id'
p1555
I1
sg940
(dp1556
Vright_wall_1
p1557
g521
(g522
(I0
tp1558
g524
tp1559
Rp1560
(I1
(I4
tp1561
g531
I00
S'H\xe1z\x14\xaeG\x12@&\\\x8f\xc2\xf5(\xd4\xbf\xcc\x7fH\xbf}\x1d\xed?\x00\x00\x00\x00\x00\x00\x00\x00'
p1562
tp1563
bsVc_obst5
p1564
g521
(g522
(I0
tp1565
g524
tp1566
Rp1567
(I1
(I4
tp1568
g531
I00
S"\x9a\xf1q\xbb~\xea\x11@\n8\xbb\xd6O\xb6\xd4?e\xaa`TR'\xed?\xd2\x93\xb1\x82\xa4\x94\x0b@"
p1569
tp1570
bsVentrance_right
p1571
g521
(g522
(I0
tp1572
g524
tp1573
Rp1574
(I1
(I4
tp1575
g531
I00
S'ffffff\n@H\xe1z\x14\xaeG\t\xc0\x9c\xc4 \xb0rh\xc1?\x00\x00\x00\x00\x00\x00\x00\x00'
p1576
tp1577
bsVcomputer_table
p1578
g521
(g522
(I0
tp1579
g524
tp1580
Rp1581
(I1
(I4
tp1582
g531
I00
S'\x00\x00\x00\x00\x00\x00\x13@\x00\x00\x00\x00\x00\x00\xf8\xbf\x96C\x8bl\xe7\xfb\xe7?\xd2!3\x7f|\xd9\x12@'
p1583
tp1584
bsVchair_6b56
p1585
g521
(g522
(I0
tp1586
g524
tp1587
Rp1588
(I1
(I4
tp1589
g531
I00
S'y=\n\xd7\xa3p\xf5?M\xe1z\x14\xaeG\xd1?\x00\x00\x00\x00\x00\x00\x00\x00\xd6$\xfaNBm\n@'
p1590
tp1591
bsVsquare_packing_box3
p1592
g521
(g522
(I0
tp1593
g524
tp1594
Rp1595
(I1
(I4
tp1596
g531
I00
S'8\xc7\x84Ad\xa3\n@\xb4\xaf\xb2\x18;\x05\x1e\xc0L7\x89A`\xe5\xd8?j8\xf9\x85\xb6\xac\x0f@'
p1597
tp1598
bsVsquare_packing_box2
p1599
g521
(g522
(I0
tp1600
g524
tp1601
Rp1602
(I1
(I4
tp1603
g531
I00
S'\xb3\x99\x7f<\xad\xb4\r@\xd8\xe5\x95\xe8\xfc\xf0\x16\xc0L7\x89A`\xe5\xd8?Y\x96n\x9e\xe7\t\x19@'
p1604
tp1605
bsVtable
p1606
g521
(g522
(I0
tp1607
g524
tp1608
Rp1609
(I1
(I4
tp1610
g531
I00
S'\x7f\xf6#EdX\xed?\xac\xffs\x98//\xc0\xbf\x00\x00\x00\x00\x00\x00\x00\x00\x00\x00\x00\x00\x00\x00\x00\x00'
p1611
tp1612
bsVsquare_packing_box1
p1613
g521
(g522
(I0
tp1614
g524
tp1615
Rp1616
(I1
(I4
tp1617
g531
I00
S'\x12\xcf\x19\xc3\xf23\x0c@\x89\xb5r\xad\x0f?\x15\xc0L7\x89A`\xe5\xd8?\xbf~a\xe9h\n\x13@'
p1618
tp1619
bsVback_wall_2
p1620
g521
(g522
(I0
tp1621
g524
tp1622
Rp1623
(I1
(I4
tp1624
g531
I00
S'\xaeG\xe1z\x14.\x13@\x80\x14\xaeG\xe1z\xc4?xX\xa85\xcd\xbb\xf2?\x00\x00\x00\x00\x00\x00\x00\x00'
p1625
tp1626
bsVchair_083c
p1627
g521
(g522
(I0
tp1628
g524
tp1629
Rp1630
(I1
(I4
tp1631
g531
I00
S'\xa4p=\n\xd7\xa3\xe0?333333\xe3\xbf\x00\x00\x00\x00\x00\x00\x00\x00\x00\x00\x00\x00\x00\x00\x00\x00'
p1632
tp1633
bsVback_wall_1
p1634
g521
(g522
(I0
tp1635
g524
tp1636
Rp1637
(I1
(I4
tp1638
g531
I00
S'\xaeG\xe1z\x14.\x13@\x80\x14\xaeG\xe1z\xc4?\xcc\x7fH\xbf}\x1d\xed?\x00\x00\x00\x00\x00\x00\x00\x00'
p1639
tp1640
bsVbottom_wall
p1641
g521
(g522
(I0
tp1642
g524
tp1643
Rp1644
(I1
(I4
tp1645
g531
I00
S'\x00\x00\x00\x00\x00\x00\xfc?\x00\x00\x00\x00\x00\x00\x00\x00\x00\x00\x00\x00\x00\x00\x00\x00\x00\x00\x00\x00\x00\x00\x00\x00'
p1646
tp1647
bsVcup_905a
p1648
g521
(g522
(I0
tp1649
g524
tp1650
Rp1651
(I1
(I4
tp1652
g531
I00
S'\x00\x00\x00\x00\x00\x00\xf0?\x83\xc0\xca\xa1E\xb6\xdb?\x1b/\xdd$\x06\x81\xed?\x00\x00\x00\x00\x00\x00\x00\x00'
p1653
tp1654
bsVplate_496f
p1655
g521
(g522
(I0
tp1656
g524
tp1657
Rp1658
(I1
(I4
tp1659
g531
I00
S"q=\n\xd7\xa3p\xe5?\x9dhW!\xe5'\xdd\xbf\x1b/\xdd$\x06\x81\xed?\x00\x00\x00\x00\x00\x00\x00\x00"
p1660
tp1661
bsVtoaster
p1662
g521
(g522
(I0
tp1663
g524
tp1664
Rp1665
(I1
(I4
tp1666
g531
I00
S')\\\x8f\xc2\xf5(\xf4\xbf\xe0z\x14\xaeG\xe1\xf2\xbf\xb8\x1e\x85\xebQ\xb8\xee?\x89/`\x9b\xf8\x8a\xe4?'
p1667
tp1668
bsVc_obst1
p1669
g521
(g522
(I0
tp1670
g524
tp1671
Rp1672
(I1
(I4
tp1673
g531
I00
S"\xff$\x95\xf6\x8a4\x12@\x1b\xc3S\xe6\xc1\xef\xd7?e\xaa`TR'\xed?\xe0\xbaL\x80\x10\xb3\t@"
p1674
tp1675
bsVrectangular_packing_box4
p1676
g521
(g522
(I0
tp1677
g524
tp1678
Rp1679
(I1
(I4
tp1680
g531
I00
S'\x98\x1e]pS`\xd2?\x16\x1b\xb6\xe9Ei\x18\xc0L7\x89A`\xe5\xd8?\x82\x97\xe8\xa1t:\xe4?'
p1681
tp1682
bsVmicrowave
p1683
g521
(g522
(I0
tp1684
g524
tp1685
Rp1686
(I1
(I4
tp1687
g531
I00
S'\x9a\x99\x99\x99\x99\x99\xf1\xbf\x00\x00\x00\x00\x00\x00\x00@7\x89A`\xe5\xd0\xee?\x00\x00\x00\x00\x00\x00\x00\x00'
p1688
tp1689
bsVc_obst7
p1690
g521
(g522
(I0
tp1691
g524
tp1692
Rp1693
(I1
(I4
tp1694
g531
I00
S"\xfe\x81=\xfa]F\x12@Rf\x922\x8f\r\xdc?e\xaa`TR'\xed?\xa1F+\x03Yi}?"
p1695
tp1696
bsVc_obst6
p1697
g521
(g522
(I0
tp1698
g524
tp1699
Rp1700
(I1
(I4
tp1701
g531
I00
S"\x00\x9b\x11\x01\x95\x83\x12@\xe8\xa7>?}-\xd2?e\xaa`TR'\xed?\xed\xedJ\xfa\x0b\x0c\x04@"
p1702
tp1703
bsVcup_b6af
p1704
g521
(g522
(I0
tp1705
g524
tp1706
Rp1707
(I1
(I4
tp1708
g531
I00
S'R\xb8\x1e\x85\xebQ\xe8?\x9a\x99\x99\x99\x99\x99\xe1?\x1b/\xdd$\x06\x81\xed?\x00\x00\x00\x00\x00\x00\x00\x00'
p1709
tp1710
bsVc_obst4
p1711
g521
(g522
(I0
tp1712
g524
tp1713
Rp1714
(I1
(I4
tp1715
g531
I00
S"n\x08(p\x9bi\x12@\xc0\x8f\x90\x84\x98\xd9\xc1?e\xaa`TR'\xed?\xae\x8f\xee\xf0\x1b\x97\x16@"
p1716
tp1717
bsVrectangular_packing_box2
p1718
g521
(g522
(I0
tp1719
g524
tp1720
Rp1721
(I1
(I4
tp1722
g531
I00
S'x#\x8a\xa8\xbfB\x02@]@\xdd\xaa0\xf7\x1a\xc0L7\x89A`\xe5\xd8?\xa2\x93\xe4\xf2\xe3\x8f\xe0?'
p1723
tp1724
bsVplate_fa76
p1725
g521
(g522
(I0
tp1726
g524
tp1727
Rp1728
(I1
(I4
tp1729
g531
I00
S'=\n\xd7\xa3p=\xf2?\x00\x00\x00\x00\x00\x00\x00\x00\x1b/\xdd$\x06\x81\xed?\x00\x00\x00\x00\x00\x00\x00\x00'
p1730
tp1731
bsVfloorwalls
p1732
g521
(g522
(I0
tp1733
g524
tp1734
Rp1735
(I1
(I4
tp1736
g531
I00
S'\xc7\xcc\xcc\xcc\xcc\xcc\xfc?\x00\x00\x00\x00\x00\x00\x18\xc0H\xe1z\x14\xaeG\xc1?\x16-DT\xfb!\xf9?'
p1737
tp1738
bsVpin_c671
p1739
g521
(g522
(I0
tp1740
g524
tp1741
Rp1742
(I1
(I4
tp1743
g531
I00
S'\xc3\xf5(\\\x8f\xc2\xf1\xbf}?5^\xbaI\x02@\xb8\x1e\x85\xebQ\xb8\xfa?\x00\x00\x00\x00\x00\x00\x00\x00'
p1744
tp1745
bsVc_obst3
p1746
g521
(g522
(I0
tp1747
g524
tp1748
Rp1749
(I1
(I4
tp1750
g531
I00
S"^\xdd\\<%\xa1\x12@\xac\x8b8\x90\xc6\xe6\xd8?e\xaa`TR'\xed?\x1c\x9e\xaarJ\xdd\x16@"
p1751
tp1752
bsVchair_2e39
p1753
g521
(g522
(I0
tp1754
g524
tp1755
Rp1756
(I1
(I4
tp1757
g531
I00
S'hfffff\xee?`fffff\xf2\xbf\x00\x00\x00\x00\x00\x00\x00\x00\x07M\xe8QQF\xf3?'
p1758
tp1759
bsVentrance_left
p1760
g521
(g522
(I0
tp1761
g524
tp1762
Rp1763
(I1
(I4
tp1764
g531
I00
S'\x98\x99\x99\x99\x99\x99\xe9\xbfH\xe1z\x14\xaeG\t\xc0\x9c\xc4 \xb0rh\xc1?\x00\x00\x00\x00\x00\x00\x00\x00'
p1765
tp1766
bsVtop_wall_1
p1767
g521
(g522
(I0
tp1768
g524
tp1769
Rp1770
(I1
(I4
tp1771
g531
I00
S'H\xe1z\x14\xaeG\x12@\x80\x14\xaeG\xe1z\xc4?xX\xa85\xcd\xbb\xf2?\x00\x00\x00\x00\x00\x00\x00\x00'
p1772
tp1773
bsVrectangular_packing_box3
p1774
g521
(g522
(I0
tp1775
g524
tp1776
Rp1777
(I1
(I4
tp1778
g531
I00
S',\xa3$/\t\xb1\xb0?p\xd9\xd7\x88y7\x1e\xc0L7\x89A`\xe5\xd8?\xa1\xa8\xa4gcb\x12@'
p1779
tp1780
bsVshaker
p1781
g521
(g522
(I0
tp1782
g524
tp1783
Rp1784
(I1
(I4
tp1785
g531
I00
S'\n\xd7\xa3p=\n\x01@\x14\xaeG\xe1z\x14\x02@\\\x8f\xc2\xf5(\\\xef?\x00\x00\x00\x00\x00\x00\x00\x00'
p1786
tp1787
bsVc_obst9
p1788
g521
(g522
(I0
tp1789
g524
tp1790
Rp1791
(I1
(I4
tp1792
g531
I00
S"\x91v\x82wVC\x12@0n\xad8\xc7F\xc2\xbfe\xaa`TR'\xed?\xd9R5=\xef\x80\x10@"
p1793
tp1794
bsVplate_835a
p1795
g521
(g522
(I0
tp1796
g524
tp1797
Rp1798
(I1
(I4
tp1799
g531
I00
S'\xf6(\\\x8f\xc2\xf5\xf0?\\\x8f\xc2\xf5(\\\xe7\xbf\x1b/\xdd$\x06\x81\xed?\x00\x00\x00\x00\x00\x00\x00\x00'
p1800
tp1801
bsVcup_58a2
p1802
g521
(g522
(I0
tp1803
g524
tp1804
Rp1805
(I1
(I4
tp1806
g531
I00
S'\x85\xebQ\xb8\x1e\x85\xe3?\xcd\xcc\xcc\xcc\xcc\xcc\xdc?\x1b/\xdd$\x06\x81\xed?\x00\x00\x00\x00\x00\x00\x00\x00'
p1807
tp1808
bsVleft_wall_1
p1809
g521
(g522
(I0
tp1810
g524
tp1811
Rp1812
(I1
(I4
tp1813
g531
I00
S'H\xe1z\x14\xaeG\x12@S\xb8\x1e\x85\xebQ\xe4?\xcc\x7fH\xbf}\x1d\xed?\x00\x00\x00\x00\x00\x00\x00\x00'
p1814
tp1815
bsVc_obst2
p1816
g521
(g522
(I0
tp1817
g524
tp1818
Rp1819
(I1
(I4
tp1820
g531
I00
S"\x01\xf9\xf8\xe06C\x12@\x02d\x9dS@k\xcc?e\xaa`TR'\xed?\x8e\xd1'\xc0\x08~\xfe?"
p1821
tp1822
bsVsquare_packing_box4
p1823
g521
(g522
(I0
tp1824
g524
tp1825
Rp1826
(I1
(I4
tp1827
g531
I00
S'X\xce\xcef\xfe\xbb\xf0?L@\xfc\xa1\x9e\xc0\x16\xc0L7\x89A`\xe5\xd8?\xaeKe\x14U\xf8\x13@'
p1828
tp1829
bsVrectangular_packing_box1
p1830
g521
(g522
(I0
tp1831
g524
tp1832
Rp1833
(I1
(I4
tp1834
g531
I00
S'\xf81, \xdaJ\xf5?\x90\x94\xc7_\x9e4\x18\xc0L7\x89A`\xe5\xd8?\x88,&\x8ck,\x0b@'
p1835
tp1836
bsVpin_371e
p1837
g521
(g522
(I0
tp1838
g524
tp1839
Rp1840
(I1
(I4
tp1841
g531
I00
S'333333\xf3\xbfffffff\xf6?\xb8\x1e\x85\xebQ\xb8\xee?\x00\x00\x00\x00\x00\x00\x00\x00'
p1842
tp1843
bsVfridge
p1844
g521
(g522
(I0
tp1845
g524
tp1846
Rp1847
(I1
(I4
tp1848
g531
I00
S'\xd7\xa3p=\n\xd7\xeb\xbf\x00\x00\x00\x00\x00\x00\x00\xc0\xcd\xcc\xcc\xcc\xcc\xcc\xf8?\x00\x00\x00\x00\x00\x00\x00\x00'
p1849
tp1850
bsVcup_d441
p1851
g521
(g522
(I0
tp1852
g524
tp1853
Rp1854
(I1
(I4
tp1855
g531
I00
S'\n\xd7\xa3p=\n\xef?\x8f\xc2\xf5(\\\x8f\xe2?\x1b/\xdd$\x06\x81\xed?\x00\x00\x00\x00\x00\x00\x00\x00'
p1856
tp1857
bsVshelf2
p1858
g521
(g522
(I0
tp1859
g524
tp1860
Rp1861
(I1
(I4
tp1862
g531
I00
S'\x00\x00\x00\x00\x00\x00\x0e@\xaeG\xe1z\x14\xae\x07@\x9c\xc4 \xb0rh\xc1?\xd2!3\x7f|\xd9\x12@'
p1863
tp1864
bsVtop_wall_2
p1865
g521
(g522
(I0
tp1866
g524
tp1867
Rp1868
(I1
(I4
tp1869
g531
I00
S'H\xe1z\x14\xaeG\x12@\x80\x14\xaeG\xe1z\xc4?\x16HP\xfc\x18\xf3\xfd?\x00\x00\x00\x00\x00\x00\x00\x00'
p1870
tp1871
bsVc_obst0
p1872
g521
(g522
(I0
tp1873
g524
tp1874
Rp1875
(I1
(I4
tp1876
g531
I00
S"\xb8\x088t\x9c7\x12@\xbeE\xf1\x14\xed\x8f\x96\xbfe\xaa`TR'\xed?\xadtI0\xaa\x0c\x13@"
p1877
tp1878
bsVshelf1
p1879
g521
(g522
(I0
tp1880
g524
tp1881
Rp1882
(I1
(I4
tp1883
g531
I00
S'\x00\x00\x00\x00\x00\x00\x13@\xaeG\xe1z\x14\xae\x07@\x9c\xc4 \xb0rh\xc1?\xd2!3\x7f|\xd9\x12@'
p1884
tp1885
bsVsink
p1886
g521
(g522
(I0
tp1887
g524
tp1888
Rp1889
(I1
(I4
tp1890
g531
I00
S'ffffff\xd6?333333\x01@\x9a\x99\x99\x99\x99\x99\xb9\xbf\x00\x00\x00\x00\x00\x00\x00\x00'
p1891
tp1892
bsVpr2
p1893
g521
(g522
(I0
tp1894
g524
tp1895
Rp1896
(I1
(I4
tp1897
g531
I00
S'fR\xdd8\xd6\x8d\x00@\xbfC|\xd2X\x00\x16\xc0\x9a_\x94\xa0\xbf\xd0\xc1?\xc1\xab\x9e\x0b\x900\xd2?'
p1898
tp1899
bsVchair_12d0
p1900
g521
(g522
(I0
tp1901
g524
tp1902
Rp1903
(I1
(I4
tp1904
g531
I00
S'^\xd2\x18\xad\xa3\xaa\xdb?Pf\x83L2r\xc6?\x00\x00\x00\x00\x00\x00\x00\x00\xf8\x81\r\x14M\xa6\x17@'
p1905
tp1906
bsVright_wall_2
p1907
g521
(g522
(I0
tp1908
g524
tp1909
Rp1910
(I1
(I4
tp1911
g531
I00
S'H\xe1z\x14\xaeG\x12@&\\\x8f\xc2\xf5(\xd4\xbfxX\xa85\xcd\xbb\xf2?\x00\x00\x00\x00\x00\x00\x00\x00'
p1912
tp1913
bsVknife_block
p1914
g521
(g522
(I0
tp1915
g524
tp1916
Rp1917
(I1
(I4
tp1918
g531
I00
S'R\xb8\x1e\x85\xebQ\xe0\xbfffffff\x02@`\xe5\xd0"\xdb\xf9\xee?\x00\x00\x00\x00\x00\x00\x00\x00'
p1919
tp1920
bsVleft_wall_2
p1921
g521
(g522
(I0
tp1922
g524
tp1923
Rp1924
(I1
(I4
tp1925
g531
I00
S'H\xe1z\x14\xaeG\x12@S\xb8\x1e\x85\xebQ\xe4?xX\xa85\xcd\xbb\xf2?\x00\x00\x00\x00\x00\x00\x00\x00'
p1926
tp1927
bsVleft_wall
p1928
g521
(g522
(I0
tp1929
g524
tp1930
Rp1931
(I1
(I4
tp1932
g531
I00
S'\x9a\x99\x99\x99\x99\x99\x07@H\xe1z\x14\xaeG\xff?\x9c\xc4 \xb0rh\xc1?\x00\x00\x00\x00\x00\x00\x00\x00'
p1933
tp1934
bsVkitchen
p1935
g521
(g522
(I0
tp1936
g524
tp1937
Rp1938
(I1
(I4
tp1939
g531
I00
S'\x00\x00\x00\x00\x00\x00\x00\x00\x00\x00\x00\x00\x00\x00\x00\x00\x00\x00\x00\x00\x00\x00\x00\x00\x00\x00\x00\x00\x00\x00\x00\x00'
p1940
tp1941
bsVtable2
p1942
g521
(g522
(I0
tp1943
g524
tp1944
Rp1945
(I1
(I4
tp1946
g531
I00
S'\x00\x00\x00\x00\x00\x00\x13@\x80\x14\xaeG\xe1z\xc4?S\x96!\x8euq\xec?\xd2!3\x7f|\xd9\x12@'
p1947
tp1948
bsVc_obst8
p1949
g521
(g522
(I0
tp1950
g524
tp1951
Rp1952
(I1
(I4
tp1953
g531
I00
S"\xa2\x86\xba\xbe\x0e\xfe\x11@\x1c\x88\xaeAcX\xc9?e\xaa`TR'\xed?\xe7\xc6R\xf7\xd5q\x17@"
p1954
tp1955
bsVplate_b4e7
p1956
g521
(g522
(I0
tp1957
g524
tp1958
Rp1959
(I1
(I4
tp1960
g531
I00
S'\x14\xaeG\xe1z\x14\xf2\xbf\x14\xaeG\xe1z\x14\x00@=\n\xd7\xa3p=\xf2?\x00\x00\x00\x00\x00\x00\x00\x00'
p1961
tp1962
bsVcooker
p1963
g521
(g522
(I0
tp1964
g524
tp1965
Rp1966
(I1
(I4
tp1967
g531
I00
S'\xaeG\xe1z\x14\xae\xff?\x85\xebQ\xb8\x1e\x85\xfb?\x00\x00\x00\x00\x00\x00\xe8?\x00\x00\x00\x00\x00\x00\x00\x00'
p1968
tp1969
bsVpin_a091
p1970
g521
(g522
(I0
tp1971
g524
tp1972
Rp1973
(I1
(I4
tp1974
g531
I00
S'\xdb\xf9~j\xbct\xf7\xbf)\\\x8f\xc2\xf5(\x02@\xb8\x1e\x85\xebQ\xb8\xfa?\x00\x00\x00\x00\x00\x00\x00\x00'
p1975
tp1976
bsVside_wall_2
p1977
g521
(g522
(I0
tp1978
g524
tp1979
Rp1980
(I1
(I4
tp1981
g531
I00
S'\xf6\xff\xff\xff\xff\xff\x14@\x00\x00\x00\x00\x00\x00\x00\x00\x9c\xc4 \xb0rh\xc1?\x18-DT\xfb!\xf9?'
p1982
tp1983
bsVside_wall_3
p1984
g521
(g522
(I0
tp1985
g524
tp1986
Rp1987
(I1
(I4
tp1988
g531
I00
S'\x00\x00\x00\x00\x00\x00\xfc?H\xe1z\x14\xaeG\t@\x9c\xc4 \xb0rh\xc1?\x00\x00\x00\x00\x00\x00\x00\x00'
p1989
tp1990
bsVmixer
p1991
g521
(g522
(I0
tp1992
g524
tp1993
Rp1994
(I1
(I4
tp1995
g531
I00
S'\n\xd7\xa3p=\n\xfb?ffffff\x02@d;\xdfO\x8d\x97\xee?\x00\x00\x00\x00\x00\x00\x00\x00'
p1996
tp1997
bsVside_wall_1
p1998
g521
(g522
(I0
tp1999
g524
tp2000
Rp2001
(I1
(I4
tp2002
g531
I00
S'\xec\xff\xff\xff\xff\xff\xfb\xbf\x00\x00\x00\x00\x00\x00\x00\x00\x9c\xc4 \xb0rh\xc1?\x18-DT\xfb!\xf9?'
p2003
tp2004
bsVbottom_wall_1
p2005
g521
(g522
(I0
tp2006
g524
tp2007
Rp2008
(I1
(I4
tp2009
g531
I00
S'H\xe1z\x14\xaeG\x12@\x80\x14\xaeG\xe1z\xc4?\xcc\x7fH\xbf}\x1d\xed?\x00\x00\x00\x00\x00\x00\x00\x00'
p2010
tp2011
bsVcan
p2012
g521
(g522
(I0
tp2013
g524
tp2014
Rp2015
(I1
(I4
tp2016
g531
I00
S'\x00\x00\x00\x00\x00\x00\xf4\xbfH\xe1z\x14\xaeG\xe1\xbf\n\xd7\xa3p=\n\xef?\x00\x00\x00\x00\x00\x00\x00\x00'
p2017
tp2018
bsVright_wall
p2019
g521
(g522
(I0
tp2020
g524
tp2021
Rp2022
(I1
(I4
tp2023
g531
I00
S'\x9a\x99\x99\x99\x99\x99\x07@H\xe1z\x14\xaeG\xff\xbf\x9c\xc4 \xb0rh\xc1?\x00\x00\x00\x00\x00\x00\x00\x00'
p2024
tp2025
bsVcoffe_machine
p2026
g521
(g522
(I0
tp2027
g524
tp2028
Rp2029
(I1
(I4
tp2030
g531
I00
S'\\\x8f\xc2\xf5(\\\xf5\xbf\xb8\x1e\x85\xebQ\xb8\xee?\n\xd7\xa3p=\n\xef?\x00\x00\x00\x00\x00\x00\x00\x00'
p2031
tp2032
bsVcomputer_chair
p2033
g521
(g522
(I0
tp2034
g524
tp2035
Rp2036
(I1
(I4
tp2037
g531
I00
S'\xcd\xcc\xcc\xcc\xcc\xcc\x10@\x00\x00\x00\x00\x00\x00\xf8\xbf\xa00\xb6\x10\xe4\xa9\x95\xbf\x00\x00\x00\x00\x00\x00\x00\x00'
p2038
tp2039
bssS'robot_dof_values'
p2040
g521
(g522
(I0
tp2041
g524
tp2042
Rp2043
(I1
(I39
tp2044
g531
I00
S'\x00\x00\x00\x00\x00\x00\x00\x00\x00\x00\x00\x00\x00\x00\x00\x00\x00\x00\x00\x00\x00\x00\x00\x00\x00\x00\x00\x00\x00\x00\x00\x00\x00\x00\x00\x00\x00\x00\x00\x00\x00\x00\x00\x00\x00\x00\x00\x00\x00\x00\x00\x00\x00\x00\x00\x00\x00\x00\x00\x00\x00\x00\x00\x00\x00\x00\x00\x00\x00\x00\x00\x00\x00\x00\x00\x00\x00\x00\x00\x00\x00\x00\x00\x00\x00\x00\x00\x00\x00\x00\x00\x00\x00\x00\x00\x00@d;\xdfO\x8d\x87?\x00\x00\x00\x00\x00\x00\x00\x00\x00\x00\x00\x00\x00\x00\x00\x00\x00\x00\x00\x00\x00\x00\x00\x00\xec\xed\t\xf1\xcc\xa4\xf4?\x00\x00\x00\x00\x00\x00\xc0\xbcN"\xd0^p\xf8\x00\xc0\x00\x00\x00\x00\x00\x00\x00\x00\x9d\x03\r.\x04V\xe6\xbf\x00\x00\x00\x00\x00\x00\x00\x00\x00\x00\x00\x00\x00\x00\x00\x00\x00\x00\x00\x00\x00\x00\xb6\xbc\x00\x00\x00\x00\x00\x00\x00\x00\x00\x00\x00\x00\x00\x00\xd0\xbc\x00\x00\x00\x00\x00\x00\x00\x00\x00\x00\x00\x00\x00\x00\x00\x00\xec\xed\t\xf1\xcc\xa4\xf4?\x00\x00\x00\x00\x00\x00\xc0\xbcN"\xd0^p\xf8\x00\xc0\x00\x00\x00\x00\x00\x00\x00\x00\xa3\x03\r.\x04V\xe6\xbf\x00\x00\x00\x00\x00\x00\x00\x00\xce9\xe3\xc17\x89\xe1?\x00\x00\x00\x00\x00\x00\xb6\xbc\x00\x00\x00\x00\x00\x00\x00\x00\x00\x00\x00\x00\x00\x00\xe0<\x00\x00\x00\x00\x00\x00\x00\x00'
p2045
tp2046
bsS'is_holding'
p2047
I00
sbsS'holding_collides'
p2048
(dp2049
(Vsquare_packing_box4
p2050
(g1446
(g531
S'\x90\xc0\x1f~\xfe\xbb\xf0?'
p2051
tp2052
Rp2053
g1446
(g531
S'8\xdb\xdc\x98\x9e\xc0\x16\xc0'
p2054
tp2055
Rp2056
g1446
(g531
S'\xda\x8c\xd3\x10U\xf8\x13@'
p2057
tp2058
Rp2059
tp2060
tp2061
g927
s(Vrectangular_packing_box2
p2062
(g1446
(g531
S'\xce\xe30\x98\xbfB\x02@'
p2063
tp2064
Rp2065
g1446
(g531
S'\xf9hq\xc60\xf7\x1a\xc0'
p2066
tp2067
Rp2068
g1446
(g531
S'V\xbc\x91y\xe4\x8f\xe0?'
p2069
tp2070
Rp2071
tp2072
tp2073
g903
s(Vrectangular_packing_box3
p2074
(g1446
(g531
S'{\x9f\xaaB\x03\xb1\xb0?'
p2075
tp2076
Rp2077
g1446
(g531
S'\x0f\x0b\xb5\xa6y7\x1e\xc0'
p2078
tp2079
Rp2080
g1446
(g531
S'\xe5\xef\xdeQcb\x12@'
p2081
tp2082
Rp2083
tp2084
tp2085
g907
s(Vrectangular_packing_box4
p2086
(g1446
(g531
S'}\xec.PR`\xd2?'
p2087
tp2088
Rp2089
g1446
(g531
S'\x8fT\xdf\xf9Ei\x18\xc0'
p2090
tp2091
Rp2092
g1446
(g531
S'\xe8\xf9\xd3Fu:\xe4?'
p2093
tp2094
Rp2095
tp2096
tp2097
g899
s(Vsquare_packing_box2
p2098
(g1446
(g531
S'6\x90.6\xad\xb4\r@'
p2099
tp2100
Rp2101
g1446
(g531
S'7\xc3\r\xf8\xfc\xf0\x16\xc0'
p2102
tp2103
Rp2104
g1446
(g531
S'\xe9\x9d\n\xb8\xe7\t\x19@'
p2105
tp2106
Rp2107
tp2108
tp2109
g915
s(Vsquare_packing_box3
p2110
(g1446
(g531
S'\xc7\xbc\x8e8d\xa3\n@'
p2111
tp2112
Rp2113
g1446
(g531
S'\xb8\xca\x13\x08;\x05\x1e\xc0'
p2114
tp2115
Rp2116
g1446
(g531
S'\xde\xc9\xa7\xc7\xb6\xac\x0f@'
p2117
tp2118
Rp2119
tp2120
tp2121
g919
s(Vsquare_packing_box1
p2122
(g1446
(g531
S'N\xb4\xab\x90\xf23\x0c@'
p2123
tp2124
Rp2125
g1446
(g531
S'Q\xf5+\x9d\x0f?\x15\xc0'
p2126
tp2127
Rp2128
g1446
(g531
S'\xe2\x1f\xb6\xf4h\n\x13@'
p2129
tp2130
Rp2131
tp2132
tp2133
g923
s(Vrectangular_packing_box1
p2134
(g1446
(g531
S'\xa8\xdf\x85\xad\xd9J\xf5?'
p2135
tp2136
Rp2137
g1446
(g531
S'\x14\x05\xfaD\x9e4\x18\xc0'
p2138
tp2139
Rp2140
g1446
(g531
S'\xb13\x85\xcek,\x0b@'
p2141
tp2142
Rp2143
tp2144
tp2145
g911
ssS'parent_ternary_predicates'
p2146
(dp2147
sS'cached_place_paths'
p2148
(dp2149
(g668
g15
tp2150
(lp2151
g521
(g522
(I0
tp2152
g524
tp2153
Rp2154
(I1
(I3
tp2155
g531
I00
S'\x00\xca\xc0\xcf\xd9[\xf0?\x95/#\xddH6\x15\xc0F\xa4\xd4\xc0\xcb\x98\x14@'
p2156
tp2157
bas(g838
g11
tp2158
(lp2159
g521
(g522
(I0
tp2160
g524
tp2161
Rp2162
(I1
(I3
tp2163
g531
I00
S'\xa0\xdc\xa0]\xb4\xb3\xed?7\xb9\xcf\x1f\xa8Q\x13\xc06\x0eA\xb8^ \x13@'
p2164
tp2165
bag521
(g522
(I0
tp2166
g524
tp2167
Rp2168
(I1
(I3
tp2169
g563
I00
S"\xaeJ\xbd\x1936\xec?\x04\x13\xd4'\x9f\x88\x10\xc0\x805qo\xb6\xe6\xff\xbf"
p2170
tp2171
bag521
(g522
(I0
tp2172
g524
tp2173
Rp2174
(I1
(I3
tp2175
g563
I00
S'\xf09\xb6\x1c*\x86\xee?\xc4\n/\x96\xcb\xe3\n\xc0\xa0\xc9\xd6F6\x0f\x00\xc0'
p2176
tp2177
bag521
(g522
(I0
tp2178
g524
tp2179
Rp2180
(I1
(I3
tp2181
g563
I00
S'3\xe9\xaf\x05T\x89\xe7?+~\xcb\xd3\x15\xc7\x04\xc0x6(d5\xed\x07@'
p2182
tp2183
bas(g507
g11
tp2184
(lp2185
g521
(g522
(I0
tp2186
g524
tp2187
Rp2188
(I1
(I3
tp2189
g531
I00
S'\x80\xee\xbc7\x1c\xc9\xc2\xbf\x03{?`*X\x16\xc0\xc2\xcf\x15Rt\xb2\x14@'
p2190
tp2191
bag521
(g522
(I0
tp2192
g524
tp2193
Rp2194
(I1
(I3
tp2195
g563
I00
S'\xff\x1dX8\xbe\xd2\xc9?\x91h\xd1{\x1e(\x16\xc0\xee\xfeSI\xc3\xd4\x03\xc0'
p2196
tp2197
bag521
(g522
(I0
tp2198
g524
tp2199
Rp2200
(I1
(I3
tp2201
g563
I00
S'\xcc\x87!\x1f\xfb\x05\xe6?\x14;\x08\xf1<\xc6\x13\xc0V!\xac1j\x94\xc8?'
p2202
tp2203
bag521
(g522
(I0
tp2204
g524
tp2205
Rp2206
(I1
(I3
tp2207
g563
I00
S'`\xc8Aw-\x81\xeb?/\xc3\xe6O\x04\xca\x10\xc0\x8a\xb7K)\x91{\xe4\xbf'
p2208
tp2209
bag521
(g522
(I0
tp2210
g524
tp2211
Rp2212
(I1
(I3
tp2213
g563
I00
S'\xe1\xc6\xc7\xa7\x12X\xe7?\x98\x99\xb0\x9a\xfb\xdb\x0b\xc0R\t\x1b)\xeae\xe0\xbf'
p2214
tp2215
bag521
(g522
(I0
tp2216
g524
tp2217
Rp2218
(I1
(I3
tp2219
g563
I00
S'p\xf1\xbdc^\x84\xf1?"\x88LL\xf9D\x06\xc0~w\r\xe9m\x0f\x19@'
p2220
tp2221
bas(g762
g15
tp2222
(lp2223
g521
(g522
(I0
tp2224
g524
tp2225
Rp2226
(I1
(I3
tp2227
g531
I00
S'@\xdb\xa1r\xd0\xee\x05@\x0b\x9f\xfa\xca\xa2\xc6\x1f\xc0n\x15\x1co\n\xac\xda?'
p2228
tp2229
bas(g507
g15
tp2230
(lp2231
g521
(g522
(I0
tp2232
g524
tp2233
Rp2234
(I1
(I3
tp2235
g531
I00
S'\x9c\xee\xbc7\x1c\xc9\xc2\xbf\x02{?`*X\x16\xc0\xc1\xcf\x15Rt\xb2\x14@'
p2236
tp2237
bas(g762
g11
tp2238
g1210
s(g718
g15
tp2239
(lp2240
g521
(g522
(I0
tp2241
g524
tp2242
Rp2243
(I1
(I3
tp2244
g531
I00
S'\xd4\xf2\xfc\xf7\x04\xce\x07@\xc5Ffi\xc6\xf0\x16\xc0;\xd1\xa5\x9d %\x17@'
p2245
tp2246
bas(g718
g11
tp2247
g1122
s(g806
g11
tp2248
g1060
s(g624
g11
tp2249
g1004
s(g624
g15
tp2250
(lp2251
g521
(g522
(I0
tp2252
g524
tp2253
Rp2254
(I1
(I3
tp2255
g531
I00
S'd\x02\xabE\x8f\xc1\xe5?\xf6\xa6\xc5gY\x12\x1f\xc0\\)%M\x96\x93\x08@'
p2256
tp2257
bas(g838
g15
tp2258
(lp2259
g521
(g522
(I0
tp2260
g524
tp2261
Rp2262
(I1
(I3
tp2263
g531
I00
S'\x99\xdc\xa0]\xb4\xb3\xed?7\xb9\xcf\x1f\xa8Q\x13\xc06\x0eA\xb8^ \x13@'
p2264
tp2265
bas(g806
g15
tp2266
(lp2267
g521
(g522
(I0
tp2268
g524
tp2269
Rp2270
(I1
(I3
tp2271
g531
I00
S'\xbc\x9ct\x99Y\x93\x0e@\xa1\x82\x19\x7fa\xb4\x17\xc0\x0e\x07\x97\xeb\xfc\n\x00@'
p2272
tp2273
bas(g574
g15
tp2274
(lp2275
g521
(g522
(I0
tp2276
g524
tp2277
Rp2278
(I1
(I3
tp2279
g531
I00
S'`\xcb,\x86\xdc\x8b\x00@k\x82\xd4\xc5\xd4\x10\x18\xc0\x12\x95\xbf\x1a,G\x15@'
p2280
tp2281
bas(g574
g11
tp2282
g1278
s(g668
g11
tp2283
g1178
ssS'parent_binary_predicates'
p2284
(dp2285
sS'nodes'
p2286
(dp2287
g18
(lp2288
I0
aI0
aI0
aI0
aI0
aI0
aI00
aI01
aI00
aI01
aI00
asg15
(lp2289
I0
aI0
aI0
aI0
aI0
aI0
aI00
aI01
aI00
aI01
aI00
asg11
(lp2290
I0
aI0
aI0
aI0
aI0
aI0
aI00
aI01
aI01
aI01
aI00
asg33
(lp2291
I0
aI0
aI0
ag1446
(g531
S'\xec\x1e]pS`\xd2?'
p2292
tp2293
Rp2294
ag1446
(g531
S'\x00\x1b\xb6\xe9Ei\x18\xc0'
p2295
tp2296
Rp2297
ag1446
(g531
S'\x82\x97\xe8\xa1t:\xe4?'
p2298
tp2299
Rp2300
aI01
aI00
aI00
aI00
aI00
asg10
(lp2301
I0
aI0
aI0
ag1446
(g531
S'\x89#\x8a\xa8\xbfB\x02@'
p2302
tp2303
Rp2304
ag1446
(g531
S'`@\xdd\xaa0\xf7\x1a\xc0'
p2305
tp2306
Rp2307
ag1446
(g531
S'\x9a\x93\xe4\xf2\xe3\x8f\xe0?'
p2308
tp2309
Rp2310
aI01
aI00
aI00
aI01
aI00
asg30
(lp2311
I0
aI0
aI0
ag1446
(g531
S'H\x82$/\t\xb1\xb0?'
p2312
tp2313
Rp2314
ag1446
(g531
S'\x18\xd9\xd7\x88y7\x1e\xc0'
p2315
tp2316
Rp2317
ag1446
(g531
S'\xa0\xa8\xa4gcb\x12@'
p2318
tp2319
Rp2320
aI01
aI00
aI00
aI00
aI00
asg19
(lp2321
I0
aI0
aI0
ag1446
(g531
S'\xa10, \xdaJ\xf5?'
p2322
tp2323
Rp2324
ag1446
(g531
S'F\x93\xc7_\x9e4\x18\xc0'
p2325
tp2326
Rp2327
ag1446
(g531
S'\x89,&\x8ck,\x0b@'
p2328
tp2329
Rp2330
aI01
aI00
aI00
aI00
aI00
asg22
(lp2331
I0
aI0
aI0
ag1446
(g531
S'\xb3\x99\x7f<\xad\xb4\r@'
p2332
tp2333
Rp2334
ag1446
(g531
S'\xdb\xe5\x95\xe8\xfc\xf0\x16\xc0'
p2335
tp2336
Rp2337
ag1446
(g531
S'Y\x96n\x9e\xe7\t\x19@'
p2338
tp2339
Rp2340
aI01
aI00
aI00
aI01
aI00
asg46
(lp2341
I0
aI0
aI0
ag1446
(g531
S'!\xc6\x84Ad\xa3\n@'
p2342
tp2343
Rp2344
ag1446
(g531
S'\x17\xaf\xb2\x18;\x05\x1e\xc0'
p2345
tp2346
Rp2347
ag1446
(g531
S'j8\xf9\x85\xb6\xac\x0f@'
p2348
tp2349
Rp2350
aI01
aI00
aI00
aI00
aI00
asg14
(lp2351
I0
aI0
aI0
ag1446
(g531
S'\xbe\xcf\x19\xc3\xf23\x0c@'
p2352
tp2353
Rp2354
ag1446
(g531
S'\xc5\xb5r\xad\x0f?\x15\xc0'
p2355
tp2356
Rp2357
ag1446
(g531
S'\xbf~a\xe9h\n\x13@'
p2358
tp2359
Rp2360
aI01
aI00
aI01
aI01
aI00
asg23
(lp2361
I0
aI0
aI0
ag1446
(g531
S'"\xcf\xcef\xfe\xbb\xf0?'
p2362
tp2363
Rp2364
ag1446
(g531
S'\x08@\xfc\xa1\x9e\xc0\x16\xc0'
p2365
tp2366
Rp2367
ag1446
(g531
S'\xacKe\x14U\xf8\x13@'
p2368
tp2369
Rp2370
aI01
aI00
aI00
aI00
aI00
assS'mc_place_path'
p2371
(dp2372
sS'parent_state'
p2373
NsS'goal_entities'
p2374
(lp2375
Vsquare_packing_box1
p2376
ag11
asS'binary_edges'
p2377
(dp2378
(g22
g23
tp2379
(lp2380
I00
aI00
aI00
as(g22
g33
tp2381
(lp2382
I00
aI00
aI00
as(g30
g46
tp2383
(lp2384
I00
aI00
aI00
as(g30
g30
tp2385
(lp2386
I00
aI00
aI00
as(g10
g46
tp2387
(lp2388
I00
aI01
aI00
as(g10
g30
tp2389
(lp2390
I00
aI00
aI00
as(g23
g10
tp2391
(lp2392
I00
aI00
aI00
as(g22
g14
tp2393
(lp2394
I00
aI00
aI00
as(g19
g30
tp2395
(lp2396
I00
aI01
aI00
as(g33
g33
tp2397
(lp2398
I00
aI00
aI00
as(g10
g15
tp2399
(lp2400
g1446
(g528
(S'b1'
p2401
I0
I1
tp2402
Rp2403
(I3
S'|'
p2404
NNNI-1
I-1
I0
tp2405
bS'\x01'
p2406
tp2407
Rp2408
aI00
aI01
as(g18
g15
tp2409
(lp2410
I00
aI00
aI00
as(g33
g23
tp2411
(lp2412
I00
aI00
aI00
as(g15
g23
tp2413
(lp2414
I00
aI00
aI00
as(g14
g11
tp2415
(lp2416
I00
aI00
aI00
as(g18
g10
tp2417
(lp2418
I00
aI00
aI00
as(g10
g23
tp2419
(lp2420
I00
aI00
aI00
as(g30
g18
tp2421
(lp2422
g2408
aI00
aI00
as(g22
g22
tp2423
(lp2424
I00
aI00
aI00
as(g15
g22
tp2425
(lp2426
I00
aI00
aI00
as(g46
g10
tp2427
(lp2428
I00
aI00
aI00
as(g10
g11
tp2429
(lp2430
I00
aI00
aI00
as(g19
g46
tp2431
(lp2432
I00
aI00
aI00
as(g33
g19
tp2433
(lp2434
I00
aI00
aI00
as(g14
g14
tp2435
(lp2436
I00
aI00
aI00
as(g10
g18
tp2437
(lp2438
g2408
aI00
aI00
as(g15
g10
tp2439
(lp2440
I00
aI00
aI00
as(g15
g46
tp2441
(lp2442
I00
aI00
aI00
as(g15
g30
tp2443
(lp2444
I00
aI00
aI00
as(g46
g11
tp2445
(lp2446
I00
aI00
aI00
as(g23
g33
tp2447
(lp2448
I00
aI01
aI00
as(g19
g33
tp2449
(lp2450
I00
aI01
aI00
as(g46
g19
tp2451
(lp2452
I00
aI00
aI00
as(g15
g33
tp2453
(lp2454
I00
aI00
aI00
as(g18
g11
tp2455
(lp2456
I00
aI00
aI00
as(g14
g10
tp2457
(lp2458
I00
aI00
aI00
as(g33
g46
tp2459
(lp2460
I00
aI00
aI00
as(g18
g46
tp2461
(lp2462
I00
aI00
aI00
as(g46
g18
tp2463
(lp2464
g2408
aI00
aI00
as(g30
g22
tp2465
(lp2466
I00
aI00
aI00
as(g23
g14
tp2467
(lp2468
I00
aI00
aI00
as(g30
g10
tp2469
(lp2470
I00
aI00
aI00
as(g23
g11
tp2471
(lp2472
I00
aI00
aI01
as(g18
g18
tp2473
(lp2474
I00
aI00
aI00
as(g46
g33
tp2475
(lp2476
I00
aI00
aI00
as(g14
g22
tp2477
(lp2478
I00
aI00
aI00
as(g11
g14
tp2479
(lp2480
I00
aI00
aI00
as(g19
g15
tp2481
(lp2482
g2408
aI00
aI01
as(g11
g19
tp2483
(lp2484
I00
aI00
aI00
as(g23
g30
tp2485
(lp2486
I00
aI01
aI00
as(g30
g14
tp2487
(lp2488
I00
aI00
aI00
as(g46
g15
tp2489
(lp2490
g2408
aI00
aI01
as(g30
g19
tp2491
(lp2492
I00
aI00
aI00
as(g46
g46
tp2493
(lp2494
I00
aI00
aI00
as(g19
g10
tp2495
(lp2496
I00
aI00
aI00
as(g15
g11
tp2497
(lp2498
I00
aI00
aI00
as(g11
g22
tp2499
(lp2500
I00
aI00
aI00
as(g33
g11
tp2501
(lp2502
I00
aI00
aI01
as(g18
g19
tp2503
(lp2504
I00
aI00
aI00
as(g11
g23
tp2505
(lp2506
I00
aI00
aI00
as(g30
g23
tp2507
(lp2508
I00
aI00
aI00
as(g19
g18
tp2509
(lp2510
g2408
aI00
aI00
as(g23
g15
tp2511
(lp2512
g2408
aI00
aI01
as(g19
g22
tp2513
(lp2514
I00
aI00
aI00
as(g33
g10
tp2515
(lp2516
I00
aI00
aI00
as(g33
g15
tp2517
(lp2518
g2408
aI00
aI01
as(g11
g30
tp2519
(lp2520
I00
aI00
aI00
as(g18
g23
tp2521
(lp2522
I00
aI00
aI00
as(g18
g33
tp2523
(lp2524
I00
aI00
aI00
as(g19
g11
tp2525
(lp2526
I00
aI00
aI00
as(g22
g19
tp2527
(lp2528
I00
aI00
aI00
as(g14
g19
tp2529
(lp2530
I00
aI00
aI00
as(g11
g46
tp2531
(lp2532
I00
aI00
aI00
as(g15
g15
tp2533
(lp2534
I00
aI00
aI00
as(g22
g30
tp2535
(lp2536
I00
aI00
aI00
as(g14
g46
tp2537
(lp2538
I00
aI00
aI00
as(g15
g14
tp2539
(lp2540
I00
aI00
aI00
as(g10
g33
tp2541
(lp2542
I00
aI00
aI00
as(g15
g19
tp2543
(lp2544
I00
aI00
aI00
as(g14
g18
tp2545
(lp2546
g2408
aI00
aI00
as(g22
g10
tp2547
(lp2548
I00
aI00
aI00
as(g30
g11
tp2549
(lp2550
I00
aI00
aI00
as(g14
g33
tp2551
(lp2552
I00
aI00
aI00
as(g33
g14
tp2553
(lp2554
I00
aI00
aI00
as(g10
g14
tp2555
(lp2556
I00
aI00
aI00
as(g18
g22
tp2557
(lp2558
I00
aI00
aI00
as(g10
g19
tp2559
(lp2560
I00
aI01
aI00
as(g46
g22
tp2561
(lp2562
I00
aI00
aI00
as(g22
g15
tp2563
(lp2564
g2408
aI00
aI01
as(g19
g19
tp2565
(lp2566
I00
aI00
aI00
as(g23
g22
tp2567
(lp2568
I00
aI00
aI00
as(g14
g23
tp2569
(lp2570
I00
aI00
aI00
as(g10
g22
tp2571
(lp2572
I00
aI00
aI00
as(g10
g10
tp2573
(lp2574
I00
aI00
aI00
as(g23
g19
tp2575
(lp2576
I00
aI00
aI00
as(g22
g11
tp2577
(lp2578
I00
aI00
aI00
as(g46
g14
tp2579
(lp2580
I00
aI00
aI00
as(g30
g15
tp2581
(lp2582
g2408
aI00
aI01
as(g11
g10
tp2583
(lp2584
I00
aI00
aI00
as(g19
g14
tp2585
(lp2586
I00
aI00
aI00
as(g33
g30
tp2587
(lp2588
I00
aI00
aI00
as(g11
g15
tp2589
(lp2590
I00
aI00
aI00
as(g22
g46
tp2591
(lp2592
I00
aI00
aI00
as(g18
g30
tp2593
(lp2594
I00
aI00
aI00
as(g22
g18
tp2595
(lp2596
g2408
aI00
aI00
as(g46
g30
tp2597
(lp2598
I00
aI00
aI00
as(g11
g11
tp2599
(lp2600
I00
aI00
aI00
as(g19
g23
tp2601
(lp2602
I00
aI01
aI00
as(g33
g18
tp2603
(lp2604
g2408
aI00
aI00
as(g23
g18
tp2605
(lp2606
g2408
aI00
aI00
as(g11
g18
tp2607
(lp2608
I00
aI00
aI00
as(g11
g33
tp2609
(lp2610
I00
aI00
aI00
as(g46
g23
tp2611
(lp2612
I00
aI00
aI00
as(g23
g46
tp2613
(lp2614
I00
aI00
aI00
as(g30
g33
tp2615
(lp2616
I00
aI00
aI00
as(g15
g18
tp2617
(lp2618
I00
aI00
aI00
as(g14
g30
tp2619
(lp2620
I00
aI00
aI00
as(g33
g22
tp2621
(lp2622
I00
aI00
aI00
as(g23
g23
tp2623
(lp2624
I00
aI00
aI00
as(g14
g15
tp2625
(lp2626
g2408
aI00
aI01
as(g18
g14
tp2627
(lp2628
I00
aI00
aI00
assg1351
g1352
sS'pick_in_way'
p2629
(itrajectory_representation.predicates.pick_in_way
PickInWay
p2630
(dp2631
g1001
(dp2632
g33
g550
sg10
g605
sg30
g649
sg19
g699
sg22
g743
sg46
g787
sg14
g831
sg23
g863
ssg1321
(dp2633
g33
(lp2634
Vrectangular_packing_box1
p2635
aVsquare_packing_box4
p2636
asg10
(lp2637
sg30
(lp2638
Vrectangular_packing_box1
p2639
aVsquare_packing_box4
p2640
asg19
(lp2641
Vrectangular_packing_box1
p2642
aVrectangular_packing_box2
p2643
asg22
(lp2644
sg46
(lp2645
Vrectangular_packing_box2
p2646
asg14
(lp2647
sg23
(lp2648
Vrectangular_packing_box1
p2649
aVsquare_packing_box4
p2650
assg1351
(lp2651
g22
ag10
ag18
ag11
ag15
ag14
ag18
ag11
ag15
ag18
ag11
ag15
ag18
ag11
ag15
ag18
ag11
ag15
ag18
ag11
ag15
ag18
ag11
ag15
ag18
ag11
ag15
asg1353
g1354
sg2
(dp2652
sg505
g506
sg1389
Nsg1395
g506
sg1392
(dp2653
sg1394
I8
sg1441
I01
sg7
Nsg1396
(dp2654
(g22
g23
tp2655
I00
s(g22
g33
tp2656
I00
s(g30
g46
tp2657
I00
s(g30
g30
tp2658
I00
s(g10
g46
tp2659
I01
s(g10
g30
tp2660
I00
s(g23
g10
tp2661
I00
s(g22
g14
tp2662
I00
s(g19
g30
tp2663
I01
s(g33
g33
tp2664
I00
s(g10
g15
tp2665
I00
s(g18
g15
tp2666
I00
s(g33
g23
tp2667
I00
s(g15
g23
tp2668
I00
s(g14
g11
tp2669
I00
s(g18
g10
tp2670
I00
s(g10
g23
tp2671
I00
s(g30
g18
tp2672
I00
s(g22
g22
tp2673
I00
s(g15
g22
tp2674
I00
s(g46
g10
tp2675
I00
s(g10
g11
tp2676
I00
s(g19
g46
tp2677
I00
s(g33
g19
tp2678
I00
s(g14
g14
tp2679
I00
s(g10
g18
tp2680
I00
s(g15
g10
tp2681
I00
s(g15
g46
tp2682
I00
s(g15
g30
tp2683
I00
s(g46
g11
tp2684
I00
s(g23
g33
tp2685
I01
s(g19
g33
tp2686
I01
s(g46
g19
tp2687
I00
s(g15
g33
tp2688
I00
s(g18
g11
tp2689
I00
s(g14
g10
tp2690
I00
s(g33
g46
tp2691
I00
s(g18
g46
tp2692
I00
s(g46
g18
tp2693
I00
s(g30
g22
tp2694
I00
s(g23
g14
tp2695
I00
s(g30
g10
tp2696
I00
s(g23
g11
tp2697
I00
s(g18
g18
tp2698
I00
s(g46
g33
tp2699
I00
s(g14
g22
tp2700
I00
s(g11
g14
tp2701
I00
s(g19
g15
tp2702
I00
s(g11
g19
tp2703
I00
s(g23
g30
tp2704
I01
s(g30
g14
tp2705
I00
s(g46
g15
tp2706
I00
s(g30
g19
tp2707
I00
s(g46
g46
tp2708
I00
s(g19
g10
tp2709
I00
s(g15
g11
tp2710
I00
s(g11
g22
tp2711
I00
s(g33
g11
tp2712
I00
s(g18
g19
tp2713
I00
s(g11
g23
tp2714
I00
s(g30
g23
tp2715
I00
s(g19
g18
tp2716
I00
s(g23
g15
tp2717
I00
s(g19
g22
tp2718
I00
s(g33
g10
tp2719
I00
s(g33
g15
tp2720
I00
s(g11
g30
tp2721
I00
s(g18
g23
tp2722
I00
s(g18
g33
tp2723
I00
s(g19
g11
tp2724
I00
s(g22
g19
tp2725
I00
s(g14
g19
tp2726
I00
s(g11
g46
tp2727
I00
s(g15
g15
tp2728
I00
s(g22
g30
tp2729
I00
s(g14
g46
tp2730
I00
s(g15
g14
tp2731
I00
s(g10
g33
tp2732
I00
s(g15
g19
tp2733
I00
s(g14
g18
tp2734
I00
s(g22
g10
tp2735
I00
s(g30
g11
tp2736
I00
s(g14
g33
tp2737
I00
s(g33
g14
tp2738
I00
s(g10
g14
tp2739
I00
s(g18
g22
tp2740
I00
s(g10
g19
tp2741
I01
s(g46
g22
tp2742
I00
s(g22
g15
tp2743
I00
s(g19
g19
tp2744
I00
s(g23
g22
tp2745
I00
s(g14
g23
tp2746
I00
s(g10
g22
tp2747
I00
s(g10
g10
tp2748
I00
s(g23
g19
tp2749
I00
s(g22
g11
tp2750
I00
s(g46
g14
tp2751
I00
s(g30
g15
tp2752
I00
s(g11
g10
tp2753
I00
s(g19
g14
tp2754
I00
s(g33
g30
tp2755
I00
s(g11
g15
tp2756
I00
s(g22
g46
tp2757
I00
s(g18
g30
tp2758
I00
s(g22
g18
tp2759
I00
s(g46
g30
tp2760
I00
s(g11
g11
tp2761
I00
s(g19
g23
tp2762
I01
s(g33
g18
tp2763
I00
s(g23
g18
tp2764
I00
s(g11
g18
tp2765
I00
s(g11
g33
tp2766
I00
s(g46
g23
tp2767
I00
s(g23
g46
tp2768
I00
s(g30
g33
tp2769
I00
s(g15
g18
tp2770
I00
s(g14
g30
tp2771
I00
s(g33
g22
tp2772
I00
s(g23
g23
tp2773
I00
s(g14
g15
tp2774
I00
s(g18
g14
tp2775
I00
ssg1440
NsbsS'robot_pose'
p2776
g521
(g522
(I0
tp2777
g524
tp2778
Rp2779
(I1
(I1
I3
tp2780
g531
I00
S'fR\xdd8\xd6\x8d\x00@\xbfC|\xd2X\x00\x16\xc0\xc1\xab\x9e\x0b\x900\xd2?'
p2781
tp2782
bsS'is_holding_goal_entity'
p2783
(itrajectory_representation.predicates.is_holding_goal_entity
IsHoldingGoalEntity
p2784
(dp2785
g2374
g2375
sg7
NsbsS'mc_pick_path'
p2786
(dp2787
sS'current_collides'
p2788
g1354
sb.