(itrajectory_representation.shortest_path_pick_and_place_state
ShortestPathPaPState
p0
(dp1
S'place_used'
p2
(dp3
sS'in_region'
p4
(itrajectory_representation.predicates.in_region
InRegion
p5
(dp6
S'problem_env'
p7
NsbsS'ternary_edges'
p8
(dp9
(Vrectangular_packing_box2
p10
g10
S'home_region'
p11
tp12
(lp13
I00
as(Vsquare_packing_box1
p14
S'loading_region'
p15
g15
tp16
(lp17
I00
as(S'entire_region'
p18
Vrectangular_packing_box1
p19
g11
tp20
(lp21
I00
as(Vsquare_packing_box2
p22
Vsquare_packing_box4
p23
g15
tp24
(lp25
I00
as(g11
g11
g11
tp26
(lp27
I00
as(g23
g10
g15
tp28
(lp29
I00
as(g14
Vrectangular_packing_box3
p30
g11
tp31
(lp32
I00
as(g11
Vrectangular_packing_box4
p33
g11
tp34
(lp35
I00
as(g22
g14
g11
tp36
(lp37
I01
as(g30
g33
g15
tp38
(lp39
I00
as(g11
g23
g15
tp40
(lp41
I00
as(g22
g18
g11
tp42
(lp43
I00
as(g15
g11
g15
tp44
(lp45
I00
as(g33
Vsquare_packing_box3
p46
g11
tp47
(lp48
I00
as(g23
g18
g11
tp49
(lp50
I00
as(g22
g19
g15
tp51
(lp52
I00
as(g46
g15
g11
tp53
(lp54
I00
as(g18
g10
g15
tp55
(lp56
I00
as(g11
g18
g11
tp57
(lp58
I00
as(g10
g15
g11
tp59
(lp60
I00
as(g46
g18
g11
tp61
(lp62
I00
as(g14
g14
g15
tp63
(lp64
I00
as(g15
g23
g15
tp65
(lp66
I00
as(g18
g15
g11
tp67
(lp68
I00
as(g18
g22
g11
tp69
(lp70
I00
as(g15
g15
g11
tp71
(lp72
I00
as(g46
g33
g15
tp73
(lp74
I00
as(g11
g11
g15
tp75
(lp76
I00
as(g19
g22
g15
tp77
(lp78
I00
as(g10
g23
g11
tp79
(lp80
I01
as(g46
g14
g11
tp81
(lp82
I00
as(g19
g11
g15
tp83
(lp84
I00
as(g11
g10
g15
tp85
(lp86
I00
as(g19
g30
g15
tp87
(lp88
I00
as(g30
g19
g11
tp89
(lp90
I01
as(g15
g14
g15
tp91
(lp92
I00
as(g23
g22
g15
tp93
(lp94
I00
as(g10
g10
g15
tp95
(lp96
I00
as(g18
g23
g11
tp97
(lp98
I00
as(g15
g11
g11
tp99
(lp100
I00
as(g33
g10
g11
tp101
(lp102
I00
as(g11
g30
g11
tp103
(lp104
I00
as(g22
g19
g11
tp105
(lp106
I01
as(g30
g23
g11
tp107
(lp108
I01
as(g14
g30
g15
tp109
(lp110
I00
as(g46
g22
g11
tp111
(lp112
I00
as(g22
g14
g15
tp113
(lp114
I00
as(g22
g10
g15
tp115
(lp116
I00
as(g18
g22
g15
tp117
(lp118
I00
as(g15
g30
g15
tp119
(lp120
I00
as(g18
g11
g11
tp121
(lp122
I00
as(g33
g11
g11
tp123
(lp124
I00
as(g15
g18
g11
tp125
(lp126
I00
as(g10
g23
g15
tp127
(lp128
I00
as(g46
g10
g15
tp129
(lp130
I00
as(g46
g46
g11
tp131
(lp132
I00
as(g19
g30
g11
tp133
(lp134
I00
as(g18
g10
g11
tp135
(lp136
I00
as(g19
g15
g15
tp137
(lp138
I00
as(g23
g14
g11
tp139
(lp140
I00
as(g14
g14
g11
tp141
(lp142
I00
as(g14
g33
g11
tp143
(lp144
I00
as(g33
g10
g15
tp145
(lp146
I00
as(g23
g19
g15
tp147
(lp148
I00
as(g46
g33
g11
tp149
(lp150
I00
as(g19
g22
g11
tp151
(lp152
I00
as(g10
g19
g15
tp153
(lp154
I00
as(g19
g11
g11
tp155
(lp156
I00
as(g22
g10
g11
tp157
(lp158
I00
as(g10
g46
g11
tp159
(lp160
I00
as(g30
g19
g15
tp161
(lp162
I00
as(g11
g22
g15
tp163
(lp164
I00
as(g18
g11
g15
tp165
(lp166
I00
as(g18
g23
g15
tp167
(lp168
I00
as(g46
g10
g11
tp169
(lp170
I01
as(g30
g46
g15
tp171
(lp172
I00
as(g10
g18
g15
tp173
(lp174
I00
as(g19
g15
g11
tp175
(lp176
I00
as(g46
g22
g15
tp177
(lp178
I00
as(g46
g19
g15
tp179
(lp180
I00
as(g23
g14
g15
tp181
(lp182
I00
as(g11
g30
g15
tp183
(lp184
I00
as(g18
g46
g15
tp185
(lp186
I00
as(g15
g30
g11
tp187
(lp188
I00
as(g15
g22
g15
tp189
(lp190
I00
as(g10
g19
g11
tp191
(lp192
I01
as(g23
g19
g11
tp193
(lp194
I00
as(g15
g46
g11
tp195
(lp196
I00
as(g10
g46
g15
tp197
(lp198
I00
as(g10
g33
g15
tp199
(lp200
I00
as(g30
g23
g15
tp201
(lp202
I00
as(g14
g33
g15
tp203
(lp204
I00
as(g19
g46
g15
tp205
(lp206
I00
as(g11
g14
g15
tp207
(lp208
I00
as(g30
g15
g15
tp209
(lp210
I00
as(g33
g11
g15
tp211
(lp212
I00
as(g14
g19
g11
tp213
(lp214
I01
as(g10
g18
g11
tp215
(lp216
I00
as(g33
g22
g15
tp217
(lp218
I00
as(g30
g10
g15
tp219
(lp220
I00
as(g46
g19
g11
tp221
(lp222
I01
as(g23
g15
g15
tp223
(lp224
I00
as(g22
g11
g11
tp225
(lp226
I00
as(g23
g33
g11
tp227
(lp228
I00
as(g11
g46
g15
tp229
(lp230
I00
as(g15
g19
g15
tp231
(lp232
I00
as(g15
g46
g15
tp233
(lp234
I00
as(g14
g46
g11
tp235
(lp236
I00
as(g19
g46
g11
tp237
(lp238
I00
as(g14
g19
g15
tp239
(lp240
I00
as(g30
g10
g11
tp241
(lp242
I00
as(g10
g22
g11
tp243
(lp244
I00
as(g30
g11
g15
tp245
(lp246
I00
as(g23
g15
g11
tp247
(lp248
I00
as(g15
g33
g15
tp249
(lp250
I00
as(g10
g33
g11
tp251
(lp252
I00
as(g30
g30
g11
tp253
(lp254
I00
as(g33
g33
g11
tp255
(lp256
I00
as(g33
g30
g15
tp257
(lp258
I00
as(g30
g15
g11
tp259
(lp260
I00
as(g46
g23
g11
tp261
(lp262
I01
as(g33
g22
g11
tp263
(lp264
I00
as(g22
g15
g15
tp265
(lp266
I00
as(g30
g18
g15
tp267
(lp268
I00
as(g22
g11
g15
tp269
(lp270
I00
as(g14
g22
g15
tp271
(lp272
I00
as(g23
g33
g15
tp273
(lp274
I00
as(g46
g11
g15
tp275
(lp276
I00
as(g30
g11
g11
tp277
(lp278
I00
as(g15
g33
g11
tp279
(lp280
I00
as(g19
g19
g11
tp281
(lp282
I00
as(g15
g23
g11
tp283
(lp284
I00
as(g23
g46
g11
tp285
(lp286
I00
as(g14
g10
g11
tp287
(lp288
I00
as(g14
g46
g15
tp289
(lp290
I00
as(g33
g14
g15
tp291
(lp292
I00
as(g11
g22
g11
tp293
(lp294
I00
as(g18
g30
g15
tp295
(lp296
I00
as(g30
g14
g11
tp297
(lp298
I00
as(g19
g18
g11
tp299
(lp300
I00
as(g46
g23
g15
tp301
(lp302
I00
as(g46
g30
g15
tp303
(lp304
I00
as(g33
g19
g11
tp305
(lp306
I00
as(g10
g22
g15
tp307
(lp308
I00
as(g33
g15
g11
tp309
(lp310
I00
as(g30
g18
g11
tp311
(lp312
I00
as(g23
g30
g15
tp313
(lp314
I00
as(g10
g14
g11
tp315
(lp316
I00
as(g46
g14
g15
tp317
(lp318
I00
as(g23
g23
g15
tp319
(lp320
I00
as(g33
g33
g15
tp321
(lp322
I00
as(g19
g19
g15
tp323
(lp324
I00
as(g14
g23
g15
tp325
(lp326
I00
as(g23
g22
g11
tp327
(lp328
I00
as(g18
g14
g11
tp329
(lp330
I00
as(g11
g18
g15
tp331
(lp332
I00
as(g11
g19
g15
tp333
(lp334
I00
as(g22
g15
g11
tp335
(lp336
I00
as(g14
g10
g15
tp337
(lp338
I00
as(g19
g14
g15
tp339
(lp340
I00
as(g30
g30
g15
tp341
(lp342
I00
as(g18
g30
g11
tp343
(lp344
I00
as(g22
g30
g15
tp345
(lp346
I00
as(g19
g18
g15
tp347
(lp348
I00
as(g14
g22
g11
tp349
(lp350
I01
as(g33
g19
g15
tp351
(lp352
I00
as(g33
g30
g11
tp353
(lp354
I00
as(g23
g30
g11
tp355
(lp356
I00
as(g14
g11
g15
tp357
(lp358
I00
as(g22
g46
g11
tp359
(lp360
I00
as(g46
g46
g15
tp361
(lp362
I00
as(g33
g18
g11
tp363
(lp364
I00
as(g15
g18
g15
tp365
(lp366
I00
as(g23
g46
g15
tp367
(lp368
I00
as(g15
g19
g11
tp369
(lp370
I00
as(g18
g18
g15
tp371
(lp372
I00
as(g33
g14
g11
tp373
(lp374
I00
as(g14
g23
g11
tp375
(lp376
I01
as(g15
g10
g15
tp377
(lp378
I00
as(g30
g14
g15
tp379
(lp380
I00
as(g46
g11
g11
tp381
(lp382
I00
as(g18
g14
g15
tp383
(lp384
I00
as(g46
g30
g11
tp385
(lp386
I00
as(g30
g22
g11
tp387
(lp388
I00
as(g33
g15
g15
tp389
(lp390
I00
as(g10
g14
g15
tp391
(lp392
I00
as(g19
g10
g11
tp393
(lp394
I00
as(g18
g15
g15
tp395
(lp396
I00
as(g15
g10
g11
tp397
(lp398
I00
as(g14
g18
g11
tp399
(lp400
I00
as(g22
g46
g15
tp401
(lp402
I00
as(g22
g33
g15
tp403
(lp404
I00
as(g23
g11
g11
tp405
(lp406
I00
as(g33
g18
g15
tp407
(lp408
I00
as(g33
g23
g11
tp409
(lp410
I00
as(g18
g33
g15
tp411
(lp412
I00
as(g11
g19
g11
tp413
(lp414
I00
as(g11
g46
g11
tp415
(lp416
I00
as(g19
g14
g11
tp417
(lp418
I00
as(g19
g33
g11
tp419
(lp420
I01
as(g18
g46
g11
tp421
(lp422
I00
as(g22
g30
g11
tp423
(lp424
I00
as(g22
g22
g15
tp425
(lp426
I00
as(g19
g23
g15
tp427
(lp428
I00
as(g23
g11
g15
tp429
(lp430
I00
as(g10
g11
g11
tp431
(lp432
I00
as(g14
g11
g11
tp433
(lp434
I00
as(g19
g10
g15
tp435
(lp436
I00
as(g23
g10
g11
tp437
(lp438
I00
as(g11
g15
g11
tp439
(lp440
I00
as(g18
g18
g11
tp441
(lp442
I00
as(g10
g30
g15
tp443
(lp444
I00
as(g14
g18
g15
tp445
(lp446
I00
as(g15
g22
g11
tp447
(lp448
I00
as(g30
g33
g11
tp449
(lp450
I01
as(g18
g33
g11
tp451
(lp452
I00
as(g14
g15
g11
tp453
(lp454
I00
as(g30
g22
g15
tp455
(lp456
I00
as(g11
g14
g11
tp457
(lp458
I00
as(g18
g19
g15
tp459
(lp460
I00
as(g23
g18
g15
tp461
(lp462
I00
as(g22
g22
g11
tp463
(lp464
I00
as(g19
g23
g11
tp465
(lp466
I01
as(g46
g18
g15
tp467
(lp468
I00
as(g22
g33
g11
tp469
(lp470
I00
as(g11
g23
g11
tp471
(lp472
I00
as(g30
g46
g11
tp473
(lp474
I00
as(g33
g23
g15
tp475
(lp476
I00
as(g23
g23
g11
tp477
(lp478
I00
as(g19
g33
g15
tp479
(lp480
I00
as(g22
g23
g11
tp481
(lp482
I01
as(g46
g15
g15
tp483
(lp484
I00
as(g11
g10
g11
tp485
(lp486
I00
as(g10
g15
g15
tp487
(lp488
I00
as(g11
g33
g15
tp489
(lp490
I00
as(g10
g11
g15
tp491
(lp492
I00
as(g15
g15
g15
tp493
(lp494
I00
as(g22
g18
g15
tp495
(lp496
I00
as(g33
g46
g15
tp497
(lp498
I00
as(g11
g15
g15
tp499
(lp500
I00
as(g10
g30
g11
tp501
(lp502
I00
as(g15
g14
g11
tp503
(lp504
I00
assS'pick_used'
p505
(dp506
Vrectangular_packing_box4
p507
(itrajectory_representation.operator
Operator
p508
(dp509
S'is_skeleton'
p510
I01
sS'discrete_parameters'
p511
(dp512
S'object'
p513
Vrectangular_packing_box4
p514
ssS'type'
p515
S'two_arm_pick'
p516
sS'continuous_parameters'
p517
(dp518
S'q_goal'
p519
(lp520
cnumpy.core.multiarray
_reconstruct
p521
(cnumpy
ndarray
p522
(I0
tp523
S'b'
p524
tp525
Rp526
(I1
(I3
tp527
cnumpy
dtype
p528
(S'f8'
p529
I0
I1
tp530
Rp531
(I3
S'<'
p532
NNNI-1
I-1
I0
tp533
bI00
S'R\xee\xbc7\x1c\xc9\xc2\xbf\x03{?`*X\x16\xc0Wu\xb9\x08\x1c\xbe\xf1\xbf'
p534
tp535
bag521
(g522
(I0
tp536
g524
tp537
Rp538
(I1
(I3
tp539
g531
I00
S'\x96K\xf0\x92\x88\x80\xcb\xbf\xa7C4\x80H\xfd\x15\xc0\xba\r\xd4\xcf\xe37\xe9\xbf'
p540
tp541
bag521
(g522
(I0
tp542
g524
tp543
Rp544
(I1
(I3
tp545
g531
I00
S'\xfa@\x96(\x83\n\xf0?:\x0b\xfe\xca\xdf\x01\x17\xc0\xa1b\xce\xdbM\x85\t\xc0'
p546
tp547
basS'is_feasible'
p548
I00
ssS'low_level_motion'
p549
(lp550
g521
(g522
(I0
tp551
g524
tp552
Rp553
(I1
(I3
tp554
g528
(S'f8'
p555
I0
I1
tp556
Rp557
(I3
S'<'
p558
NNNI-1
I-1
I0
tp559
bI00
S'h\x89\xdc!\x1ey\t@o\xf5\xbaQ\xd2\xe4\x18\xc0\x0e\xab-f\x05\x15\xf7?'
p560
tp561
bag521
(g522
(I0
tp562
g524
tp563
Rp564
(I1
(I3
tp565
g528
(S'f8'
p566
I0
I1
tp567
Rp568
(I3
S'<'
p569
NNNI-1
I-1
I0
tp570
bI00
S'\x19\xdbXU\x9c\xa8\x04@\xe6\xf1\xeb\xae\xcb\x05\x18\xc0\xce\x9cp\x98\xaf*\xeb?'
p571
tp572
bag521
(g522
(I0
tp573
g524
tp574
Rp575
(I1
(I3
tp576
g568
I00
S'/\xe1\x02^.|\x00@\xb8\xae\xc5\xcfF\x16\x17\xc0\xf8\x01)d\xc5\xf9\xe2?'
p577
tp578
bag521
(g522
(I0
tp579
g524
tp580
Rp581
(I1
(I3
tp582
g568
I00
S'-%/\xa8h{\xf9?\x98fM\xb1\x8f\x0e\x16\xc0\x8f\x17\x96\x89\xffQ\x10@'
p583
tp584
bag544
asbsVrectangular_packing_box2
p585
(itrajectory_representation.operator
Operator
p586
(dp587
g510
I01
sg511
(dp588
g513
Vrectangular_packing_box2
p589
ssg515
g516
sg517
(dp590
g519
(lp591
g521
(g522
(I0
tp592
g524
tp593
Rp594
(I1
(I3
tp595
g531
I00
S'\\\xcb,\x86\xdc\x8b\x00@k\x82\xd4\xc5\xd4\x10\x18\xc00\xc0$\xccy\xd6\xee\xbf'
p596
tp597
bag521
(g522
(I0
tp598
g524
tp599
Rp600
(I1
(I3
tp601
g531
I00
S'\xff<pw\x8ff\x05@\xab\xda\xc4\xfel\x80\x1d\xc0\xcdA\xc8e\xbe4\xff?'
p602
tp603
bag521
(g522
(I0
tp604
g524
tp605
Rp606
(I1
(I3
tp607
g531
I00
S'\xb0\xad\xd3U\xa8Y\x08@?\x1aO$\xa5\x05\x1a\xc0\xf0Q\xc7G\x1f\x04\x08\xc0'
p608
tp609
bag521
(g522
(I0
tp610
g524
tp611
Rp612
(I1
(I3
tp613
g531
I00
S'lSh\xe0\x13\x8a\x00@\x82\xd8\xed\xc4\xa6\x14\x18\xc0k\x1d\x9e\x7f\xd3\x06\xeb\xbf'
p614
tp615
basg548
I00
ssg549
(lp616
g521
(g522
(I0
tp617
g524
tp618
Rp619
(I1
(I3
tp620
g557
I00
S'h\x89\xdc!\x1ey\t@o\xf5\xbaQ\xd2\xe4\x18\xc0\x0e\xab-f\x05\x15\xf7?'
p621
tp622
bag521
(g522
(I0
tp623
g524
tp624
Rp625
(I1
(I3
tp626
g568
I00
S'\xc37\x01A\x9dT\x0e@\x8c\xff\xf1\xa8&^\x18\xc0M\xa3y^\x92`\x02@'
p627
tp628
bag521
(g522
(I0
tp629
g524
tp630
Rp631
(I1
(I3
tp632
g568
I00
S'\xc0\x01k[\xf5\x01\r@\xd1\xec>%\x92s\x19\xc0oM6q\x19\xdd\x13@'
p633
tp634
bag606
asbsVrectangular_packing_box3
p635
(itrajectory_representation.operator
Operator
p636
(dp637
g510
I01
sg511
(dp638
g513
Vrectangular_packing_box3
p639
ssg515
g516
sg517
(dp640
g519
(lp641
g521
(g522
(I0
tp642
g524
tp643
Rp644
(I1
(I3
tp645
g531
I00
S'b\x02\xabE\x8f\xc1\xe5?\xf6\xa6\xc5gY\x12\x1f\xc0\\)%M\x96\x93\x08@'
p646
tp647
bag521
(g522
(I0
tp648
g524
tp649
Rp650
(I1
(I3
tp651
g531
I00
S"'\xd1\xfbV\x05J\xdb?=|\xafnm5\x1b\xc0\xcc\xe3\xb3\xbaBQ\x00\xc0"
p652
tp653
bag521
(g522
(I0
tp654
g524
tp655
Rp656
(I1
(I3
tp657
g531
I00
S'\xdd\xf7\x99by\xfe\xe7?\xe0"\xc5\xafi\x18\x1f\xc0{\x81\xfe\xc56\x0f\x07@'
p658
tp659
basg548
I00
ssg549
(lp660
g521
(g522
(I0
tp661
g524
tp662
Rp663
(I1
(I3
tp664
g557
I00
S'h\x89\xdc!\x1ey\t@o\xf5\xbaQ\xd2\xe4\x18\xc0\x0e\xab-f\x05\x15\xf7?'
p665
tp666
bag521
(g522
(I0
tp667
g524
tp668
Rp669
(I1
(I3
tp670
g568
I00
S'\xd8\xd6B\xff\x18\xb2\x05@\xf2%;\x9a\xab\xd5\x18\xc0\xce\xc8,\xa0\x8a\x9a\x00@'
p671
tp672
bag521
(g522
(I0
tp673
g524
tp674
Rp675
(I1
(I3
tp676
g568
I00
S'\xf60LV\xe8\x96\x00@\x9aEw{a\xe2\x18\xc0^\xa8\x8a,\xa3\x98\x00@'
p677
tp678
bag521
(g522
(I0
tp679
g524
tp680
Rp681
(I1
(I3
tp682
g568
I00
S'{\xe7\xcc\xce\x02,\xf5?\xeb\x85\xf2\xb4\xc9\x08\x19\xc0\xcd\x97\xf6\xcc\xe4z\x00@'
p683
tp684
bag521
(g522
(I0
tp685
g524
tp686
Rp687
(I1
(I3
tp688
g568
I00
S'`$W\xed\x83\x04\xe1?@\xe9\x80h\xcc\xf0\x18\xc0{2\xe8\xfe\xbeY\r@'
p689
tp690
bag650
asbsVrectangular_packing_box1
p691
(itrajectory_representation.operator
Operator
p692
(dp693
g510
I01
sg511
(dp694
g513
Vrectangular_packing_box1
p695
ssg515
g516
sg517
(dp696
g519
(lp697
g521
(g522
(I0
tp698
g524
tp699
Rp700
(I1
(I3
tp701
g531
I00
S'\xfd\xc9\xc0\xcf\xd9[\xf0?\x96/#\xddH6\x15\xc0F#\xbeM\xbe$\xf2\xbf'
p702
tp703
bag521
(g522
(I0
tp704
g524
tp705
Rp706
(I1
(I3
tp707
g531
I00
S'\xcc\x86Zb\xfc\x0f\xfa?\xa7\xaf\xcdN\xd7x\x1a\xc0\xb2\xf6\xaa+jH\xfd?'
p708
tp709
bag521
(g522
(I0
tp710
g524
tp711
Rp712
(I1
(I3
tp713
g531
I00
S'\xa30>0\x8a\x8c\xf9?\x0c\x90>\x82\xfb\xec\x1a\xc0\xef\x9c\x19\x05S\xe5\xf8?'
p714
tp715
bag521
(g522
(I0
tp716
g524
tp717
Rp718
(I1
(I3
tp719
g531
I00
S'\x11\x93\xe3j\xcc\x8c\xe2?\xffT\x1dv\xaaL\x19\xc0rg\xce\xd5\x1f~\xd3?'
p720
tp721
basg548
I00
ssg549
(lp722
g521
(g522
(I0
tp723
g524
tp724
Rp725
(I1
(I3
tp726
g557
I00
S'h\x89\xdc!\x1ey\t@o\xf5\xbaQ\xd2\xe4\x18\xc0\x0e\xab-f\x05\x15\xf7?'
p727
tp728
bag521
(g522
(I0
tp729
g524
tp730
Rp731
(I1
(I3
tp732
g568
I00
S'\x19\xdbXU\x9c\xa8\x04@\xe6\xf1\xeb\xae\xcb\x05\x18\xc0\xce\x9cp\x98\xaf*\xeb?'
p733
tp734
bag521
(g522
(I0
tp735
g524
tp736
Rp737
(I1
(I3
tp738
g568
I00
S'\xf60LV\xe8\x96\x00@\x9aEw{a\xe2\x18\xc0^\xa8\x8a,\xa3\x98\x00@'
p739
tp740
bag706
asbsVsquare_packing_box2
p741
(itrajectory_representation.operator
Operator
p742
(dp743
g510
I01
sg511
(dp744
S'object'
p745
Vsquare_packing_box2
p746
ssg515
S'two_arm_pick'
p747
sg517
(dp748
S'q_goal'
p749
(lp750
g521
(g522
(I0
tp751
g524
tp752
Rp753
(I1
(I3
tp754
g557
I00
S"\xf8\r\xc8\x17\xf8\xcb\x08@Oox\xd2\x0f\x8f\x19\xc0x=\x93/\xad'\xfb?"
p755
tp756
bag521
(g522
(I0
tp757
g524
tp758
Rp759
(I1
(I3
tp760
g557
I00
S'*\x08\x18-"M\x02@\x98\xf3\x7ft*\xd2\x16\xc0\xb8h\xf3\x8f\xcc\x17\xa8\xbf'
p761
tp762
bag521
(g522
(I0
tp763
g524
tp764
Rp765
(I1
(I3
tp766
g557
I00
S"X'\xcfI\x9cG\t@5\xd8\xff\x1b\xa80\x19\xc0\xf9\x1b\x9b\xcf\x00\xc9\xf7?"
p767
tp768
basS'is_feasible'
p769
I00
ssg549
(lp770
g521
(g522
(I0
tp771
g524
tp772
Rp773
(I1
(I3
tp774
g557
I00
S'h\x89\xdc!\x1ey\t@o\xf5\xbaQ\xd2\xe4\x18\xc0\x0e\xab-f\x05\x15\xf7?'
p775
tp776
bag753
asbsVsquare_packing_box3
p777
(itrajectory_representation.operator
Operator
p778
(dp779
g510
I01
sg511
(dp780
g513
Vsquare_packing_box3
p781
ssg515
g516
sg517
(dp782
g519
(lp783
g521
(g522
(I0
tp784
g524
tp785
Rp786
(I1
(I3
tp787
g531
I00
S'?\xdb\xa1r\xd0\xee\x05@\n\x9f\xfa\xca\xa2\xc6\x1f\xc0v\x15\x1co\n\xac\xda?'
p788
tp789
bag521
(g522
(I0
tp790
g524
tp791
Rp792
(I1
(I3
tp793
g531
I00
S'l\n\x82+\x91\xd2\x06@\x7fjM\x13$\xee\x1b\xc0\xf9*}d\xb6\xdc\xe4\xbf'
p794
tp795
bag521
(g522
(I0
tp796
g524
tp797
Rp798
(I1
(I3
tp799
g531
I00
S'\xc5*r\x01\x7f\xa5\x05@\xb7\xd3l<R\xdd\x1e\xc0~D\xd7\x12\x9f\x12\xe2?'
p800
tp801
basg548
I00
ssg549
(lp802
g521
(g522
(I0
tp803
g524
tp804
Rp805
(I1
(I3
tp806
g557
I00
S'h\x89\xdc!\x1ey\t@o\xf5\xbaQ\xd2\xe4\x18\xc0\x0e\xab-f\x05\x15\xf7?'
p807
tp808
bag521
(g522
(I0
tp809
g524
tp810
Rp811
(I1
(I3
tp812
g568
I00
S'g\x886\x82\xe7\x9e\t@\x81\x00+\xe8\xfe$\x19\xc0m@m\xfd\x93\x06\xf2?'
p813
tp814
bag521
(g522
(I0
tp815
g524
tp816
Rp817
(I1
(I3
tp818
g568
I00
S'P\x9d\xdf\x99\xa6e\x04@\x1c`\xb6c\x8e7\x19\xc0@\xf2\xef\xc5\xd3\xc8\x17@'
p819
tp820
bag792
asbsVsquare_packing_box1
p821
(itrajectory_representation.operator
Operator
p822
(dp823
g510
I01
sg511
(dp824
g513
Vsquare_packing_box1
p825
ssg515
g516
sg517
(dp826
g519
(lp827
g521
(g522
(I0
tp828
g524
tp829
Rp830
(I1
(I3
tp831
g531
I00
S'\xb9\x9ct\x99Y\x93\x0e@\xa2\x82\x19\x7fa\xb4\x17\xc0\x0f\x07\x97\xeb\xfc\n\x00@'
p832
tp833
bag521
(g522
(I0
tp834
g524
tp835
Rp836
(I1
(I3
tp837
g531
I00
S'\xec^\xef\x9djg\x0b@\x05\x94\xb6\xd3\x8f~\x18\xc0>x\x0c\xcbf\xe5\xfe?'
p838
tp839
bag521
(g522
(I0
tp840
g524
tp841
Rp842
(I1
(I3
tp843
g531
I00
S'\xc3\xdc\xf4\xda\x03v\x06@\x8c\x18_H\xa8\xe9\x15\xc0D\xab\x1bg,\x98\xe0?'
p844
tp845
basg548
I00
ssg549
(lp846
g521
(g522
(I0
tp847
g524
tp848
Rp849
(I1
(I3
tp850
g557
I00
S'h\x89\xdc!\x1ey\t@o\xf5\xbaQ\xd2\xe4\x18\xc0\x0e\xab-f\x05\x15\xf7?'
p851
tp852
bag830
asbsVsquare_packing_box4
p853
(itrajectory_representation.operator
Operator
p854
(dp855
g510
I01
sg511
(dp856
g513
Vsquare_packing_box4
p857
ssg515
g516
sg517
(dp858
g519
(lp859
g521
(g522
(I0
tp860
g524
tp861
Rp862
(I1
(I3
tp863
g531
I00
S'\x9f\xdc\xa0]\xb4\xb3\xed?8\xb9\xcf\x1f\xa8Q\x13\xc0\x84{\x0cpr\x06\xf8\xbf'
p864
tp865
bag521
(g522
(I0
tp866
g524
tp867
Rp868
(I1
(I3
tp869
g531
I00
S"\xac\xbc\x08\xcd\xa0\xd3\xe8?o\xe8\x8e\x11\xcd\xc4\x13\xc0\xfb\xfe\xcd'\xcd\x89\xf6\xbf"
p870
tp871
bag521
(g522
(I0
tp872
g524
tp873
Rp874
(I1
(I3
tp875
g531
I00
S'\x035\xec\x12j\xa2\xf1?\x00X\x81\xf7\x02\xe8\x19\xc0\x0e\x02n)J!\xf2?'
p876
tp877
basg548
I00
ssg549
(lp878
g521
(g522
(I0
tp879
g524
tp880
Rp881
(I1
(I3
tp882
g557
I00
S'h\x89\xdc!\x1ey\t@o\xf5\xbaQ\xd2\xe4\x18\xc0\x0e\xab-f\x05\x15\xf7?'
p883
tp884
bag521
(g522
(I0
tp885
g524
tp886
Rp887
(I1
(I3
tp888
g568
I00
S'\x80e\xcc\t\x9a\xde\x04@<\x13[@\x0e\xa9\x19\xc0\xca\xb9\x9c\x08\r\xad\xf4?'
p889
tp890
bag521
(g522
(I0
tp891
g524
tp892
Rp893
(I1
(I3
tp894
g568
I00
S'\xb1\x91\x83\xd6J:\x00@X\xbf\x9b\xa3\xf7;\x19\xc0\xb4\xa9\x94\xff\xff\xd1\xec?'
p895
tp896
bag521
(g522
(I0
tp897
g524
tp898
Rp899
(I1
(I3
tp900
g568
I00
S'j\xc7\xc0&\x8ag\xf6?h\x9cH4\x7f\xab\x18\xc0\xd8|\x1d\xfc\xcbV\xf2?'
p901
tp902
bag874
asbssS'use_prm'
p903
I01
sS'object_names'
p904
(lp905
S'square_packing_box1'
p906
aS'rectangular_packing_box1'
p907
aS'square_packing_box2'
p908
aS'rectangular_packing_box2'
p909
aS'square_packing_box3'
p910
aS'rectangular_packing_box3'
p911
aS'square_packing_box4'
p912
aS'rectangular_packing_box4'
p913
asg7
NsS'current_holding_collides'
p914
(dp915
Vrectangular_packing_box4
p916
c__builtin__
set
p917
((lp918
tp919
Rp920
sVrectangular_packing_box2
p921
g917
((lp922
I256
aI514
aI65
aI268
aI66
aI577
aI145
aI146
aI538
aI413
aI35
aI36
aI37
aI422
aI92
aI556
aI302
aI303
aI561
aI178
aI179
aI54
aI55
aI443
aI188
aI62
aI63
aI64
aI449
aI194
aI67
aI68
aI69
aI435
aI205
aI79
aI80
aI210
aI595
aI215
aI89
aI90
aI219
aI220
aI605
aI611
aI550
aI438
aI444
aI114
aI115
aI372
aI376
aI91
aI511
atp923
Rp924
sVrectangular_packing_box3
p925
g917
((lp926
I384
aI257
aI133
aI134
aI135
aI136
aI265
aI394
aI532
aI153
aI452
aI154
aI157
aI158
aI159
aI164
aI433
aI564
aI521
aI575
aI580
aI197
aI583
aI328
aI589
aI83
aI346
aI478
aI356
aI229
aI366
aI502
aI121
aI122
atp927
Rp928
sVrectangular_packing_box1
p929
g917
((lp930
I132
aI5
aI137
aI4
aI517
aI416
aI161
aI34
aI35
aI554
aI43
aI301
aI456
aI178
aI309
aI310
aI55
aI56
aI570
aI187
aI449
aI203
aI70
aI71
aI584
aI201
aI202
aI459
aI162
aI82
aI163
aI84
aI597
aI89
aI92
aI93
aI94
aI607
aI327
aI484
aI233
aI106
aI107
aI108
aI497
aI362
aI595
aI379
aI252
aI42
atp931
Rp932
sVsquare_packing_box2
p933
g917
((lp934
I0
aI1
aI2
aI393
aI395
aI144
aI403
aI539
aI541
aI288
aI289
aI546
aI37
aI38
aI39
aI40
aI41
aI555
aI304
aI307
aI571
aI62
aI454
aI342
aI474
aI348
aI605
aI371
aI376
aI377
aI378
aI380
atp935
Rp936
sVsquare_packing_box3
p937
g917
((lp938
I513
aI386
aI387
aI260
aI269
aI270
aI515
aI405
aI280
aI436
aI565
aI440
aI442
aI573
aI193
aI68
aI210
aI339
aI340
aI213
aI220
aI479
aI354
aI613
aI614
aI111
aI112
aI113
aI211
aI245
aI375
aI212
aI381
aI254
aI255
atp939
Rp940
sVsquare_packing_box1
p941
g917
((lp942
I0
aI1
aI546
aI454
aI545
aI393
aI555
aI144
aI369
aI370
aI371
aI342
aI377
aI378
aI571
aI541
aI474
atp943
Rp944
sVsquare_packing_box4
p945
g917
((lp946
I107
aI132
aI517
aI6
aI8
aI45
aI404
aI416
aI33
aI34
aI95
aI554
aI43
aI44
aI301
aI456
aI309
aI56
aI186
aI187
aI189
aI203
aI196
aI71
aI584
aI459
aI162
aI595
aI84
aI93
aI94
aI607
aI327
aI484
aI233
aI106
aI235
aI108
aI445
aI497
aI503
aI72
aI234
aI252
aI42
aI383
atp947
Rp948
ssS'reachable_regions_while_holding'
p949
(lp950
(g507
g15
tp951
a(g585
g15
tp952
a(g635
g15
tp953
a(g691
g15
tp954
a(g741
g15
tp955
a(g777
g15
tp956
a(g821
g15
tp957
a(g853
g15
tp958
a(g507
g11
tp959
a(g853
g11
tp960
asS'object_poses'
p961
(dp962
Vrectangular_packing_box4
p963
g521
(g522
(I0
tp964
g524
tp965
Rp966
(I1
(I1
I3
tp967
g557
I00
S'\x98\x1e]pS`\xd2?\x16\x1b\xb6\xe9Ei\x18\xc0\x82\x97\xe8\xa1t:\xe4?'
p968
tp969
bsVrectangular_packing_box2
p970
g521
(g522
(I0
tp971
g524
tp972
Rp973
(I1
(I1
I3
tp974
g557
I00
S'x#\x8a\xa8\xbfB\x02@]@\xdd\xaa0\xf7\x1a\xc0\xa2\x93\xe4\xf2\xe3\x8f\xe0?'
p975
tp976
bsVrectangular_packing_box3
p977
g521
(g522
(I0
tp978
g524
tp979
Rp980
(I1
(I1
I3
tp981
g557
I00
S'\x04\xa9$/\t\xb1\xb0?}\xd9\xd7\x88y7\x1e\xc0\xa1\xa8\xa4gcb\x12@'
p982
tp983
bsVrectangular_packing_box1
p984
g521
(g522
(I0
tp985
g524
tp986
Rp987
(I1
(I1
I3
tp988
g557
I00
S'\xf71, \xdaJ\xf5?\x8f\x94\xc7_\x9e4\x18\xc0\x88,&\x8ck,\x0b@'
p989
tp990
bsVsquare_packing_box2
p991
g521
(g522
(I0
tp992
g524
tp993
Rp994
(I1
(I1
I3
tp995
g557
I00
S'\xee/\x9e\xf3\xae0\x08@\x14\xca\xd4\x98D(\x16\xc0\xc6sbz\xc0\xe6\xc1?'
p996
tp997
bsVsquare_packing_box3
p998
g521
(g522
(I0
tp999
g524
tp1000
Rp1001
(I1
(I1
I3
tp1002
g557
I00
S"'\xc7\x84Ad\xa3\n@\xa4\xaf\xb2\x18;\x05\x1e\xc0j8\xf9\x85\xb6\xac\x0f@"
p1003
tp1004
bsVsquare_packing_box1
p1005
g521
(g522
(I0
tp1006
g524
tp1007
Rp1008
(I1
(I1
I3
tp1009
g557
I00
S'\x1a\xcf\x19\xc3\xf23\x0c@\x90\xb5r\xad\x0f?\x15\xc0\xbf~a\xe9h\n\x13@'
p1010
tp1011
bsVsquare_packing_box4
p1012
g521
(g522
(I0
tp1013
g524
tp1014
Rp1015
(I1
(I1
I3
tp1016
g557
I00
S'P\xce\xcef\xfe\xbb\xf0?C@\xfc\xa1\x9e\xc0\x16\xc0\xaeKe\x14U\xf8\x13@'
p1017
tp1018
bssS'place_in_way'
p1019
(itrajectory_representation.predicates.place_in_way
PlaceInWay
p1020
(dp1021
S'mc_path_to_entity'
p1022
(dp1023
(g30
g11
tp1024
(lp1025
g521
(g522
(I0
tp1026
g524
tp1027
Rp1028
(I1
(I3
tp1029
g557
I00
S'X\x02\xabE\x8f\xc1\xe5?\xf6\xa6\xc5gY\x12\x1f\xc0\\)%M\x96\x93\x08@'
p1030
tp1031
bag521
(g522
(I0
tp1032
g524
tp1033
Rp1034
(I1
(I3
tp1035
g568
I00
S'\xd23W\xd6\xdd\xe3\xe6?\xdc\xcai,~\xa9\x1c\xc0\xe4\x03\x93/\x16_\x04\xc0'
p1036
tp1037
bag521
(g522
(I0
tp1038
g524
tp1039
Rp1040
(I1
(I3
tp1041
g568
I00
S'\xf8\xfc\x1a\xd0\xc9l\xe8?\x8a\x897\x8e~\x98\x1a\xc0\xaf\xf7\xb87\xc6\xa7\x01\xc0'
p1042
tp1043
bag521
(g522
(I0
tp1044
g524
tp1045
Rp1046
(I1
(I3
tp1047
g568
I00
S"\xc6'8AN\xb0\xec?\xe0\x975>\x0f\x03\x19\xc0(\xe0e;\x85\x89\x05\xc0"
p1048
tp1049
bag521
(g522
(I0
tp1050
g524
tp1051
Rp1052
(I1
(I3
tp1053
g568
I00
S'\xd0\xcb\x13\x8f\xaa\x9d\xed?\x90\x01<]3\x06\x16\xc0F\xf1\xe7x32\x02\xc0'
p1054
tp1055
bag521
(g522
(I0
tp1056
g524
tp1057
Rp1058
(I1
(I3
tp1059
g568
I00
S'l[\xc4\x16<\xe6\xe9?\xa6\xa0\x90\x84X\x9f\x13\xc0\xc2\xd74Q\x00\xaf\xff\xbf'
p1060
tp1061
bag521
(g522
(I0
tp1062
g524
tp1063
Rp1064
(I1
(I3
tp1065
g568
I00
S"\xaeJ\xbd\x1936\xec?\x04\x13\xd4'\x9f\x88\x10\xc0\x805qo\xb6\xe6\xff\xbf"
p1066
tp1067
bag521
(g522
(I0
tp1068
g524
tp1069
Rp1070
(I1
(I3
tp1071
g568
I00
S'\xf09\xb6\x1c*\x86\xee?\xc4\n/\x96\xcb\xe3\n\xc0\xa0\xc9\xd6F6\x0f\x00\xc0'
p1072
tp1073
bag521
(g522
(I0
tp1074
g524
tp1075
Rp1076
(I1
(I3
tp1077
g568
I00
S'3\xe9\xaf\x05T\x89\xe7?+~\xcb\xd3\x15\xc7\x04\xc0x6(d5\xed\x07@'
p1078
tp1079
bas(g14
g11
tp1080
(lp1081
g521
(g522
(I0
tp1082
g524
tp1083
Rp1084
(I1
(I3
tp1085
g557
I00
S'\xbb\x9ct\x99Y\x93\x0e@\xa4\x82\x19\x7fa\xb4\x17\xc0\x0f\x07\x97\xeb\xfc\n\x00@'
p1086
tp1087
bag521
(g522
(I0
tp1088
g524
tp1089
Rp1090
(I1
(I3
tp1091
g568
I00
S'\xcb\x1a\x84\x1d\\\x9c\x08@\xec\xcbi\xc9#;\x18\xc0\xbf\xf24g\x02T\x05@'
p1092
tp1093
bag521
(g522
(I0
tp1094
g524
tp1095
Rp1096
(I1
(I3
tp1097
g568
I00
S'\xf8d\x877\x12\xfd\x04@h\xdbW\x9a\x83\x8e\x16\xc0\x87\xf16\xb9\x03k\x05@'
p1098
tp1099
bag521
(g522
(I0
tp1100
g524
tp1101
Rp1102
(I1
(I3
tp1103
g568
I00
S'\xc7\xc7\x06s\xd6\xa3\xff?3\x91\xe4\x97\xb5\x07\x16\xc0\x1bW\xbc\xbfY:\x06@'
p1104
tp1105
bag521
(g522
(I0
tp1106
g524
tp1107
Rp1108
(I1
(I3
tp1109
g568
I00
S'\x85\\2\xba\x0b5\xf5?I\r\x06\xd10\xfb\x15\xc0\x9e\x11\xee\xd8\xb9\xd7\xf5?'
p1110
tp1111
bag521
(g522
(I0
tp1112
g524
tp1113
Rp1114
(I1
(I3
tp1115
g568
I00
S'v\xb8^\x85\xa7[\xea?x\xbe\xff2t\x8d\x13\xc0\x88\x85\x8cCyH\xf6?'
p1116
tp1117
bag521
(g522
(I0
tp1118
g524
tp1119
Rp1120
(I1
(I3
tp1121
g568
I00
S'\xc2\xda(e\x83\x1a\xeb?\x8au\x8d3\xa6E\x11\xc0\xb4c\x1b\xed_\xfd\xfa?'
p1122
tp1123
bag521
(g522
(I0
tp1124
g524
tp1125
Rp1126
(I1
(I3
tp1127
g568
I00
S'\xe4u**\x0e5\xe9?\xaa\xfd\r\xed\xc4\xf6\r\xc0\x0fDE0\x1f\x0b\xfe?'
p1128
tp1129
bag521
(g522
(I0
tp1130
g524
tp1131
Rp1132
(I1
(I3
tp1133
g568
I00
S'\x06\x11,\xef\x98O\xe7??\x10\x01s=b\t\xc04\x92\xb79o\x8c\x00@'
p1134
tp1135
bag521
(g522
(I0
tp1136
g524
tp1137
Rp1138
(I1
(I3
tp1139
g568
I00
S'\x92\xaf\xf3P\x96O\xc2?(\xa1:\x8er}\x05\xc0\xd4_\x91\xb3\xffL\x02@'
p1140
tp1141
bas(g22
g11
tp1142
(lp1143
g521
(g522
(I0
tp1144
g524
tp1145
Rp1146
(I1
(I3
tp1147
g557
I00
S"\xf6\r\xc8\x17\xf8\xcb\x08@Oox\xd2\x0f\x8f\x19\xc0y=\x93/\xad'\xfb?"
p1148
tp1149
bag521
(g522
(I0
tp1150
g524
tp1151
Rp1152
(I1
(I3
tp1153
g568
I00
S'\x19\xdbXU\x9c\xa8\x04@\xe6\xf1\xeb\xae\xcb\x05\x18\xc0\xce\x9cp\x98\xaf*\xeb?'
p1154
tp1155
bag521
(g522
(I0
tp1156
g524
tp1157
Rp1158
(I1
(I3
tp1159
g568
I00
S'\xe0 ;\x819w\xfd?\xe7\xcc\xc2\xa0\xa5f\x17\xc04\xedq\x1c\x8eK\xfa?'
p1160
tp1161
bag521
(g522
(I0
tp1162
g524
tp1163
Rp1164
(I1
(I3
tp1165
g568
I00
S'\x85\\2\xba\x0b5\xf5?I\r\x06\xd10\xfb\x15\xc0\x9e\x11\xee\xd8\xb9\xd7\xf5?'
p1166
tp1167
bag521
(g522
(I0
tp1168
g524
tp1169
Rp1170
(I1
(I3
tp1171
g568
I00
S'v\xb8^\x85\xa7[\xea?x\xbe\xff2t\x8d\x13\xc0\x88\x85\x8cCyH\xf6?'
p1172
tp1173
bag521
(g522
(I0
tp1174
g524
tp1175
Rp1176
(I1
(I3
tp1177
g568
I00
S'\xc2\xda(e\x83\x1a\xeb?\x8au\x8d3\xa6E\x11\xc0\xb4c\x1b\xed_\xfd\xfa?'
p1178
tp1179
bag521
(g522
(I0
tp1180
g524
tp1181
Rp1182
(I1
(I3
tp1183
g568
I00
S'\xe4u**\x0e5\xe9?\xaa\xfd\r\xed\xc4\xf6\r\xc0\x0fDE0\x1f\x0b\xfe?'
p1184
tp1185
bag521
(g522
(I0
tp1186
g524
tp1187
Rp1188
(I1
(I3
tp1189
g568
I00
S'\x06\x11,\xef\x98O\xe7??\x10\x01s=b\t\xc04\x92\xb79o\x8c\x00@'
p1190
tp1191
bag521
(g522
(I0
tp1192
g524
tp1193
Rp1194
(I1
(I3
tp1195
g568
I00
S'\x92\xaf\xf3P\x96O\xc2?(\xa1:\x8er}\x05\xc0\xd4_\x91\xb3\xffL\x02@'
p1196
tp1197
bas(g19
g11
tp1198
(lp1199
g521
(g522
(I0
tp1200
g524
tp1201
Rp1202
(I1
(I3
tp1203
g557
I00
S'\xfc\xc9\xc0\xcf\xd9[\xf0?\x94/#\xddH6\x15\xc0F\xa4\xd4\xc0\xcb\x98\x14@'
p1204
tp1205
bag521
(g522
(I0
tp1206
g524
tp1207
Rp1208
(I1
(I3
tp1209
g568
I00
S'\xb0E\xbb;Cb\xeb?\x9e\xde\xa7\xdd\xbdd\x12\xc0\xc6\xee\xbd\x16\x8c\xaa\xf3\xbf'
p1210
tp1211
bag521
(g522
(I0
tp1212
g524
tp1213
Rp1214
(I1
(I3
tp1215
g568
I00
S'`\xc8Aw-\x81\xeb?/\xc3\xe6O\x04\xca\x10\xc0\x8a\xb7K)\x91{\xe4\xbf'
p1216
tp1217
bag521
(g522
(I0
tp1218
g524
tp1219
Rp1220
(I1
(I3
tp1221
g568
I00
S'\xe1\xc6\xc7\xa7\x12X\xe7?\x98\x99\xb0\x9a\xfb\xdb\x0b\xc0R\t\x1b)\xeae\xe0\xbf'
p1222
tp1223
bag521
(g522
(I0
tp1224
g524
tp1225
Rp1226
(I1
(I3
tp1227
g568
I00
S'p\xf1\xbdc^\x84\xf1?"\x88LL\xf9D\x06\xc0~w\r\xe9m\x0f\x19@'
p1228
tp1229
bas(g46
g11
tp1230
(lp1231
g521
(g522
(I0
tp1232
g524
tp1233
Rp1234
(I1
(I3
tp1235
g557
I00
S'<\xdb\xa1r\xd0\xee\x05@\n\x9f\xfa\xca\xa2\xc6\x1f\xc0w\x15\x1co\n\xac\xda?'
p1236
tp1237
bag521
(g522
(I0
tp1238
g524
tp1239
Rp1240
(I1
(I3
tp1241
g568
I00
S'\xf6\x9c\xbc\xd8\xea\x86\x05@\xc8\t,\x83\x04\xa9\x1c\xc0HA\x84\xf4\xe0S\xf1?'
p1242
tp1243
bag521
(g522
(I0
tp1244
g524
tp1245
Rp1246
(I1
(I3
tp1247
g568
I00
S'b\x95[\xf7r*\x00@:\x8f7a\xbf]\x1c\xc0\x98.\xce\xc6\x89M\xf2?'
p1248
tp1249
bag521
(g522
(I0
tp1250
g524
tp1251
Rp1252
(I1
(I3
tp1253
g568
I00
S'\xb9\x81\xdfb\xdf\x92\xfe?\x1a\xe3?2\xb6\xec\x1a\xc0B\x1b\x81\xfa\x93C\xfa?'
p1254
tp1255
bag521
(g522
(I0
tp1256
g524
tp1257
Rp1258
(I1
(I3
tp1259
g568
I00
S'{\xe7\xcc\xce\x02,\xf5?\xeb\x85\xf2\xb4\xc9\x08\x19\xc0\xcd\x97\xf6\xcc\xe4z\x00@'
p1260
tp1261
bag521
(g522
(I0
tp1262
g524
tp1263
Rp1264
(I1
(I3
tp1265
g568
I00
S'o\xd6\x82\xea\x7f\xb2\xed?9\xf2C\x0b?\xfd\x16\xc0(?d\xe9@\xb5\x02@'
p1266
tp1267
bag521
(g522
(I0
tp1268
g524
tp1269
Rp1270
(I1
(I3
tp1271
g568
I00
S'&>c9\x01,\xeb?\xb2\xc2\xf0\x02\xce\x8e\x14\xc0\xd8p\xbb2\x14\xd2\x03@'
p1272
tp1273
bag521
(g522
(I0
tp1274
g524
tp1275
Rp1276
(I1
(I3
tp1277
g568
I00
S'\xc6\x05\xbdtg\xd9\xe2?F\xdf\x9d@\\\xf3\x11\xc0\x1a\xc4.\xbb\xcc\x12\x02@'
p1278
tp1279
bag521
(g522
(I0
tp1280
g524
tp1281
Rp1282
(I1
(I3
tp1283
g568
I00
S'3z\xed\x8eN)\xe4?\x0c\x96\xd4\xa2\x0e\xd0\r\xc0\xbd%\xf5{\xe9\xf9\x03@'
p1284
tp1285
bag521
(g522
(I0
tp1286
g524
tp1287
Rp1288
(I1
(I3
tp1289
g568
I00
S'\xaf0\xe9h\xba~\xee?k\xbb\xd8\xd4\xd0g\t\xc09\x9ey\xed\xb06\x06@'
p1290
tp1291
bag521
(g522
(I0
tp1292
g524
tp1293
Rp1294
(I1
(I3
tp1295
g568
I00
S'\xf4\xfdJ\x1a(#\xec?H"\x9cD\x1aE\x05\xc0.\xa9\x0b\x87\xf8\xe1\x02@'
p1296
tp1297
bas(g10
g11
tp1298
(lp1299
g521
(g522
(I0
tp1300
g524
tp1301
Rp1302
(I1
(I3
tp1303
g557
I00
S'\\\xcb,\x86\xdc\x8b\x00@j\x82\xd4\xc5\xd4\x10\x18\xc0\x12\x95\xbf\x1a,G\x15@'
p1304
tp1305
bag521
(g522
(I0
tp1306
g524
tp1307
Rp1308
(I1
(I3
tp1309
g568
I00
S'\x9f5<Q\xb2\xb3\xf7?\xb3\xd6LI,\xe8\x16\xc0\xc2\x13\xbbtu\x87\x00\xc0'
p1310
tp1311
bag521
(g522
(I0
tp1312
g524
tp1313
Rp1314
(I1
(I3
tp1315
g568
I00
S'K\x19\xdd\x9a\xe6\xce\xe9?\xe1\x08\xb9\xe6+\xc9\x15\xc0\xeeN\x0e\xdd1/\x08\xc0'
p1316
tp1317
bag521
(g522
(I0
tp1318
g524
tp1319
Rp1320
(I1
(I3
tp1321
g568
I00
S'\x16nfXE \xf2?\x06\xf1|#c\xe6\x12\xc08\x98\x8f,\xc1@\x04\xc0'
p1322
tp1323
bag521
(g522
(I0
tp1324
g524
tp1325
Rp1326
(I1
(I3
tp1327
g568
I00
S'\xc1E\xbb\x1b\xed\x13\xf3?\xca\xdcw\xec\x1a\x18\x10\xc0j\xed\xec2j\x8c\x04\xc0'
p1328
tp1329
bag521
(g522
(I0
tp1330
g524
tp1331
Rp1332
(I1
(I3
tp1333
g568
I00
S'\xf09\xb6\x1c*\x86\xee?\xc4\n/\x96\xcb\xe3\n\xc0\xa0\xc9\xd6F6\x0f\x00\xc0'
p1334
tp1335
bag521
(g522
(I0
tp1336
g524
tp1337
Rp1338
(I1
(I3
tp1339
g568
I00
S'3\xe9\xaf\x05T\x89\xe7?+~\xcb\xd3\x15\xc7\x04\xc0x6(d5\xed\x07@'
p1340
tp1341
bassS'mc_to_entity'
p1342
(dp1343
(g30
g11
tp1344
(lp1345
Vrectangular_packing_box1
p1346
aVsquare_packing_box4
p1347
aVrectangular_packing_box4
p1348
as(g14
g11
tp1349
(lp1350
Vsquare_packing_box2
p1351
aVrectangular_packing_box1
p1352
aVsquare_packing_box4
p1353
as(g22
g11
tp1354
(lp1355
Vsquare_packing_box1
p1356
aVrectangular_packing_box1
p1357
aVsquare_packing_box4
p1358
as(g19
g11
tp1359
(lp1360
Vsquare_packing_box4
p1361
as(g46
g11
tp1362
(lp1363
Vrectangular_packing_box2
p1364
aVrectangular_packing_box1
p1365
aVsquare_packing_box4
p1366
as(g10
g11
tp1367
(lp1368
Vrectangular_packing_box1
p1369
aVsquare_packing_box4
p1370
assS'reachable_entities'
p1371
(lp1372
g585
ag741
ag821
asS'collides'
p1373
(dp1374
Vrectangular_packing_box4
p1375
g917
((lp1376
I107
aI132
aI517
aI6
aI137
aI138
aI139
aI276
aI152
aI153
aI154
aI157
aI417
aI34
aI547
aI165
aI166
aI424
aI553
aI456
aI521
aI196
aI198
aI584
aI518
aI459
aI338
aI84
aI349
aI350
aI351
aI362
aI491
aI108
aI503
aI249
aI252
aI383
atp1377
Rp1378
sVrectangular_packing_box2
p1379
g917
((lp1380
I256
aI65
aI268
aI66
aI145
aI538
aI413
aI91
aI36
aI37
aI422
aI92
aI561
aI178
aI179
aI54
aI443
aI188
aI63
aI64
aI577
aI194
aI69
aI435
aI205
aI79
aI80
aI595
aI215
aI89
aI90
aI219
aI220
aI444
aI114
aI115
aI376
aI511
atp1381
Rp1382
sVrectangular_packing_box3
p1383
g917
((lp1384
I384
aI257
aI134
aI265
aI394
aI532
aI452
aI158
aI159
aI164
aI433
aI564
aI575
aI580
aI583
aI328
aI589
aI83
aI478
aI356
aI229
aI366
aI502
atp1385
Rp1386
sVrectangular_packing_box1
p1387
g917
((lp1388
I132
aI5
aI137
aI4
aI416
aI161
aI34
aI35
aI554
aI43
aI301
aI456
aI309
aI310
aI55
aI56
aI570
aI187
aI449
aI70
aI327
aI584
aI201
aI202
aI203
aI162
aI595
aI84
aI597
aI93
aI94
aI607
aI484
aI233
aI106
aI107
aI108
aI497
aI252
atp1389
Rp1390
sVsquare_packing_box2
p1391
g917
((lp1392
I0
aI1
aI2
aI393
aI403
aI539
aI541
aI288
aI289
aI546
aI39
aI40
aI41
aI555
aI304
aI571
aI62
aI454
aI342
aI348
aI605
aI377
aI378
atp1393
Rp1394
sVsquare_packing_box3
p1395
g917
((lp1396
I513
aI386
aI260
aI269
aI270
aI405
aI280
aI436
aI565
aI440
aI573
aI193
aI68
aI210
aI339
aI340
aI213
aI479
aI354
aI613
aI614
aI111
aI112
aI113
aI211
aI245
aI375
aI212
aI381
aI254
aI255
atp1397
Rp1398
sVsquare_packing_box1
p1399
g917
((lp1400
I0
aI1
aI546
aI454
aI555
aI369
aI370
aI371
aI342
aI378
aI571
aI541
atp1401
Rp1402
sVsquare_packing_box4
p1403
g917
((lp1404
I107
aI132
aI517
aI8
aI416
aI33
aI34
aI554
aI43
aI44
aI301
aI456
aI56
aI186
aI187
aI459
aI196
aI71
aI584
aI203
aI162
aI95
aI84
aI93
aI94
aI607
aI327
aI484
aI233
aI234
aI235
aI108
aI497
aI252
aI106
atp1405
Rp1406
ssg2
g3
sg505
g506
sS'mc_paths'
p1407
(dp1408
sS'robot'
p1409
NsS'reachable_obj_region_pairs'
p1410
(lp1411
sS'sampled_pick_configs_for_objects'
p1412
(dp1413
sS'mc_calls'
p1414
I0
sS'pick_poses'
p1415
g506
sg7
NsS'evaluations'
p1416
(dp1417
(g22
g23
g11
tp1418
I01
s(g22
g46
g11
tp1419
I00
s(g22
g10
g11
tp1420
I00
s(g10
g22
g11
tp1421
I00
s(g22
g19
g11
tp1422
I01
s(g22
g30
g11
tp1423
I00
s(g22
g14
g11
tp1424
I01
s(g30
g22
g11
tp1425
I00
s(g22
g33
g11
tp1426
I00
s(g14
g22
g11
tp1427
I01
s(g46
g22
g11
tp1428
I00
s(g19
g22
g11
tp1429
I00
ssS'paths_to_reachable_entities'
p1430
NsS'use_shortest_path'
p1431
I01
sbsS'cached_pick_paths'
p1432
(dp1433
g507
g550
sg585
g616
sg635
g660
sg691
g722
sg741
g770
sg777
g802
sg821
g846
sg853
g878
ssg1373
(dp1434
(Vsquare_packing_box4
p1435
(cnumpy.core.multiarray
scalar
p1436
(g557
S'\x90\xc0\x1f~\xfe\xbb\xf0?'
p1437
tp1438
Rp1439
g1436
(g557
S'8\xdb\xdc\x98\x9e\xc0\x16\xc0'
p1440
tp1441
Rp1442
g1436
(g557
S'\xda\x8c\xd3\x10U\xf8\x13@'
p1443
tp1444
Rp1445
tp1446
tp1447
g1406
s(Vrectangular_packing_box2
p1448
(g1436
(g557
S'\xce\xe30\x98\xbfB\x02@'
p1449
tp1450
Rp1451
g1436
(g557
S'\xf9hq\xc60\xf7\x1a\xc0'
p1452
tp1453
Rp1454
g1436
(g557
S'V\xbc\x91y\xe4\x8f\xe0?'
p1455
tp1456
Rp1457
tp1458
tp1459
g1382
s(Vrectangular_packing_box3
p1460
(g1436
(g557
S'{\x9f\xaaB\x03\xb1\xb0?'
p1461
tp1462
Rp1463
g1436
(g557
S'\x0f\x0b\xb5\xa6y7\x1e\xc0'
p1464
tp1465
Rp1466
g1436
(g557
S'\xe5\xef\xdeQcb\x12@'
p1467
tp1468
Rp1469
tp1470
tp1471
g1386
s(Vrectangular_packing_box4
p1472
(g1436
(g557
S'}\xec.PR`\xd2?'
p1473
tp1474
Rp1475
g1436
(g557
S'\x8fT\xdf\xf9Ei\x18\xc0'
p1476
tp1477
Rp1478
g1436
(g557
S'\xe8\xf9\xd3Fu:\xe4?'
p1479
tp1480
Rp1481
tp1482
tp1483
g1378
s(Vsquare_packing_box3
p1484
(g1436
(g557
S'\xc7\xbc\x8e8d\xa3\n@'
p1485
tp1486
Rp1487
g1436
(g557
S'\xb8\xca\x13\x08;\x05\x1e\xc0'
p1488
tp1489
Rp1490
g1436
(g557
S'\xde\xc9\xa7\xc7\xb6\xac\x0f@'
p1491
tp1492
Rp1493
tp1494
tp1495
g1398
s(Vsquare_packing_box1
p1496
(g1436
(g557
S'N\xb4\xab\x90\xf23\x0c@'
p1497
tp1498
Rp1499
g1436
(g557
S'Q\xf5+\x9d\x0f?\x15\xc0'
p1500
tp1501
Rp1502
g1436
(g557
S'\xe2\x1f\xb6\xf4h\n\x13@'
p1503
tp1504
Rp1505
tp1506
tp1507
g1402
s(Vrectangular_packing_box1
p1508
(g1436
(g557
S'\xa8\xdf\x85\xad\xd9J\xf5?'
p1509
tp1510
Rp1511
g1436
(g557
S'\x14\x05\xfaD\x9e4\x18\xc0'
p1512
tp1513
Rp1514
g1436
(g557
S'\xb13\x85\xcek,\x0b@'
p1515
tp1516
Rp1517
tp1518
tp1519
g1390
s(Vsquare_packing_box2
p1520
(g1436
(g557
S'\xe8\xbe\x9c\xd9\xae0\x08@'
p1521
tp1522
Rp1523
g1436
(g557
S'\xa7\xca\xf7\x8cD(\x16\xc0'
p1524
tp1525
Rp1526
g1436
(g557
S'\x0b~\x1bb\xbc\xe6\xc1?'
p1527
tp1528
Rp1529
tp1530
tp1531
g1394
ssS'state_saver'
p1532
(igtamp_utils.utils
CustomStateSaver
p1533
(dp1534
S'robot_base_pose'
p1535
g521
(g522
(I0
tp1536
g524
tp1537
Rp1538
(I1
(I1
I3
tp1539
g557
I00
S'r\x89\xdc!\x1ey\t@o\xf5\xbaQ\xd2\xe4\x18\xc0\x10\xab-f\x05\x15\xf7?'
p1540
tp1541
bsS'held_object'
p1542
NsS'robot_name'
p1543
S'pr2'
p1544
sS'env_id'
p1545
I1
sg961
(dp1546
Vright_wall_1
p1547
g521
(g522
(I0
tp1548
g524
tp1549
Rp1550
(I1
(I4
tp1551
g557
I00
S'H\xe1z\x14\xaeG\x12@&\\\x8f\xc2\xf5(\xd4\xbf\xcc\x7fH\xbf}\x1d\xed?\x00\x00\x00\x00\x00\x00\x00\x00'
p1552
tp1553
bsVc_obst5
p1554
g521
(g522
(I0
tp1555
g524
tp1556
Rp1557
(I1
(I4
tp1558
g557
I00
S"\x98\xf1q\xbb~\xea\x11@48\xbb\xd6O\xb6\xd4?e\xaa`TR'\xed?\xd2\x93\xb1\x82\xa4\x94\x0b@"
p1559
tp1560
bsVentrance_right
p1561
g521
(g522
(I0
tp1562
g524
tp1563
Rp1564
(I1
(I4
tp1565
g557
I00
S'ffffff\n@H\xe1z\x14\xaeG\t\xc0\x9c\xc4 \xb0rh\xc1?\x00\x00\x00\x00\x00\x00\x00\x00'
p1566
tp1567
bsVcomputer_table
p1568
g521
(g522
(I0
tp1569
g524
tp1570
Rp1571
(I1
(I4
tp1572
g557
I00
S'\x00\x00\x00\x00\x00\x00\x13@\x00\x00\x00\x00\x00\x00\xf8\xbf\x96C\x8bl\xe7\xfb\xe7?\xd2!3\x7f|\xd9\x12@'
p1573
tp1574
bsVchair_6b56
p1575
g521
(g522
(I0
tp1576
g524
tp1577
Rp1578
(I1
(I4
tp1579
g557
I00
S'\x80=\n\xd7\xa3p\xf5?P\xe1z\x14\xaeG\xd1?\x00\x00\x00\x00\x00\x00\x00\x00\xd6$\xfaNBm\n@'
p1580
tp1581
bsVsquare_packing_box3
p1582
g521
(g522
(I0
tp1583
g524
tp1584
Rp1585
(I1
(I4
tp1586
g557
I00
S',\xc7\x84Ad\xa3\n@\xaa\xaf\xb2\x18;\x05\x1e\xc0L7\x89A`\xe5\xd8?j8\xf9\x85\xb6\xac\x0f@'
p1587
tp1588
bsVsquare_packing_box2
p1589
g521
(g522
(I0
tp1590
g524
tp1591
Rp1592
(I1
(I4
tp1593
g557
I00
S'\xf0/\x9e\xf3\xae0\x08@\x15\xca\xd4\x98D(\x16\xc0Z7\x89A`\xe5\xd8?\xc6sbz\xc0\xe6\xc1?'
p1594
tp1595
bsVtable
p1596
g521
(g522
(I0
tp1597
g524
tp1598
Rp1599
(I1
(I4
tp1600
g557
I00
S'\x7f\xf6#EdX\xed?\xac\xffs\x98//\xc0\xbf\x00\x00\x00\x00\x00\x00\x00\x00\x00\x00\x00\x00\x00\x00\x00\x00'
p1601
tp1602
bsVsquare_packing_box1
p1603
g521
(g522
(I0
tp1604
g524
tp1605
Rp1606
(I1
(I4
tp1607
g557
I00
S'\x16\xcf\x19\xc3\xf23\x0c@\x8e\xb5r\xad\x0f?\x15\xc0L7\x89A`\xe5\xd8?\xbf~a\xe9h\n\x13@'
p1608
tp1609
bsVback_wall_2
p1610
g521
(g522
(I0
tp1611
g524
tp1612
Rp1613
(I1
(I4
tp1614
g557
I00
S'\xaeG\xe1z\x14.\x13@\x80\x14\xaeG\xe1z\xc4?xX\xa85\xcd\xbb\xf2?\x00\x00\x00\x00\x00\x00\x00\x00'
p1615
tp1616
bsVchair_083c
p1617
g521
(g522
(I0
tp1618
g524
tp1619
Rp1620
(I1
(I4
tp1621
g557
I00
S'\xa4p=\n\xd7\xa3\xe0?333333\xe3\xbf\x00\x00\x00\x00\x00\x00\x00\x00\x00\x00\x00\x00\x00\x00\x00\x00'
p1622
tp1623
bsVback_wall_1
p1624
g521
(g522
(I0
tp1625
g524
tp1626
Rp1627
(I1
(I4
tp1628
g557
I00
S'\xaeG\xe1z\x14.\x13@\x80\x14\xaeG\xe1z\xc4?\xcc\x7fH\xbf}\x1d\xed?\x00\x00\x00\x00\x00\x00\x00\x00'
p1629
tp1630
bsVbottom_wall
p1631
g521
(g522
(I0
tp1632
g524
tp1633
Rp1634
(I1
(I4
tp1635
g557
I00
S'\x00\x00\x00\x00\x00\x00\xfc?\x00\x00\x00\x00\x00\x00\x00\x00\x00\x00\x00\x00\x00\x00\x00\x00\x00\x00\x00\x00\x00\x00\x00\x00'
p1636
tp1637
bsVcup_905a
p1638
g521
(g522
(I0
tp1639
g524
tp1640
Rp1641
(I1
(I4
tp1642
g557
I00
S'\x00\x00\x00\x00\x00\x00\xf0?\x83\xc0\xca\xa1E\xb6\xdb?\x1b/\xdd$\x06\x81\xed?\x00\x00\x00\x00\x00\x00\x00\x00'
p1643
tp1644
bsVplate_496f
p1645
g521
(g522
(I0
tp1646
g524
tp1647
Rp1648
(I1
(I4
tp1649
g557
I00
S"q=\n\xd7\xa3p\xe5?\x9dhW!\xe5'\xdd\xbf\x1b/\xdd$\x06\x81\xed?\x00\x00\x00\x00\x00\x00\x00\x00"
p1650
tp1651
bsVtoaster
p1652
g521
(g522
(I0
tp1653
g524
tp1654
Rp1655
(I1
(I4
tp1656
g557
I00
S')\\\x8f\xc2\xf5(\xf4\xbf\xe0z\x14\xaeG\xe1\xf2\xbf\xb8\x1e\x85\xebQ\xb8\xee?\x89/`\x9b\xf8\x8a\xe4?'
p1657
tp1658
bsVc_obst1
p1659
g521
(g522
(I0
tp1660
g524
tp1661
Rp1662
(I1
(I4
tp1663
g557
I00
S"\xef$\x95\xf6\x8a4\x12@\x07\xc3S\xe6\xc1\xef\xd7?e\xaa`TR'\xed?\xe0\xbaL\x80\x10\xb3\t@"
p1664
tp1665
bsVrectangular_packing_box4
p1666
g521
(g522
(I0
tp1667
g524
tp1668
Rp1669
(I1
(I4
tp1670
g557
I00
S'\x98\x1e]pS`\xd2?\x16\x1b\xb6\xe9Ei\x18\xc0L7\x89A`\xe5\xd8?\x82\x97\xe8\xa1t:\xe4?'
p1671
tp1672
bsVmicrowave
p1673
g521
(g522
(I0
tp1674
g524
tp1675
Rp1676
(I1
(I4
tp1677
g557
I00
S'\x9a\x99\x99\x99\x99\x99\xf1\xbf\x00\x00\x00\x00\x00\x00\x00@7\x89A`\xe5\xd0\xee?\x00\x00\x00\x00\x00\x00\x00\x00'
p1678
tp1679
bsVc_obst7
p1680
g521
(g522
(I0
tp1681
g524
tp1682
Rp1683
(I1
(I4
tp1684
g557
I00
S"\xfa\x81=\xfa]F\x12@Rf\x922\x8f\r\xdc?e\xaa`TR'\xed?\xa1F+\x03Yi}?"
p1685
tp1686
bsVc_obst6
p1687
g521
(g522
(I0
tp1688
g524
tp1689
Rp1690
(I1
(I4
tp1691
g557
I00
S"\xf8\x9a\x11\x01\x95\x83\x12@\xe8\xa7>?}-\xd2?e\xaa`TR'\xed?\xed\xedJ\xfa\x0b\x0c\x04@"
p1692
tp1693
bsVcup_b6af
p1694
g521
(g522
(I0
tp1695
g524
tp1696
Rp1697
(I1
(I4
tp1698
g557
I00
S'R\xb8\x1e\x85\xebQ\xe8?\x9a\x99\x99\x99\x99\x99\xe1?\x1b/\xdd$\x06\x81\xed?\x00\x00\x00\x00\x00\x00\x00\x00'
p1699
tp1700
bsVc_obst4
p1701
g521
(g522
(I0
tp1702
g524
tp1703
Rp1704
(I1
(I4
tp1705
g557
I00
S"n\x08(p\x9bi\x12@\xc0\x8f\x90\x84\x98\xd9\xc1?e\xaa`TR'\xed?\xae\x8f\xee\xf0\x1b\x97\x16@"
p1706
tp1707
bsVrectangular_packing_box2
p1708
g521
(g522
(I0
tp1709
g524
tp1710
Rp1711
(I1
(I4
tp1712
g557
I00
S'x#\x8a\xa8\xbfB\x02@]@\xdd\xaa0\xf7\x1a\xc0L7\x89A`\xe5\xd8?\xa2\x93\xe4\xf2\xe3\x8f\xe0?'
p1713
tp1714
bsVplate_fa76
p1715
g521
(g522
(I0
tp1716
g524
tp1717
Rp1718
(I1
(I4
tp1719
g557
I00
S'=\n\xd7\xa3p=\xf2?\x00\x00\x00\x00\x00\x00\x00\x00\x1b/\xdd$\x06\x81\xed?\x00\x00\x00\x00\x00\x00\x00\x00'
p1720
tp1721
bsVfloorwalls
p1722
g521
(g522
(I0
tp1723
g524
tp1724
Rp1725
(I1
(I4
tp1726
g557
I00
S'\xc7\xcc\xcc\xcc\xcc\xcc\xfc?\x00\x00\x00\x00\x00\x00\x18\xc0H\xe1z\x14\xaeG\xc1?\x16-DT\xfb!\xf9?'
p1727
tp1728
bsVpin_c671
p1729
g521
(g522
(I0
tp1730
g524
tp1731
Rp1732
(I1
(I4
tp1733
g557
I00
S'\xc3\xf5(\\\x8f\xc2\xf1\xbf}?5^\xbaI\x02@\xb8\x1e\x85\xebQ\xb8\xfa?\x00\x00\x00\x00\x00\x00\x00\x00'
p1734
tp1735
bsVc_obst3
p1736
g521
(g522
(I0
tp1737
g524
tp1738
Rp1739
(I1
(I4
tp1740
g557
I00
S"^\xdd\\<%\xa1\x12@\xac\x8b8\x90\xc6\xe6\xd8?e\xaa`TR'\xed?\x1c\x9e\xaarJ\xdd\x16@"
p1741
tp1742
bsVchair_2e39
p1743
g521
(g522
(I0
tp1744
g524
tp1745
Rp1746
(I1
(I4
tp1747
g557
I00
S'lfffff\xee?Yfffff\xf2\xbf\x00\x00\x00\x00\x00\x00\x00\x00\x07M\xe8QQF\xf3?'
p1748
tp1749
bsVentrance_left
p1750
g521
(g522
(I0
tp1751
g524
tp1752
Rp1753
(I1
(I4
tp1754
g557
I00
S'\x98\x99\x99\x99\x99\x99\xe9\xbfH\xe1z\x14\xaeG\t\xc0\x9c\xc4 \xb0rh\xc1?\x00\x00\x00\x00\x00\x00\x00\x00'
p1755
tp1756
bsVtop_wall_1
p1757
g521
(g522
(I0
tp1758
g524
tp1759
Rp1760
(I1
(I4
tp1761
g557
I00
S'H\xe1z\x14\xaeG\x12@\x80\x14\xaeG\xe1z\xc4?xX\xa85\xcd\xbb\xf2?\x00\x00\x00\x00\x00\x00\x00\x00'
p1762
tp1763
bsVrectangular_packing_box3
p1764
g521
(g522
(I0
tp1765
g524
tp1766
Rp1767
(I1
(I4
tp1768
g557
I00
S'\xac\xa7$/\t\xb1\xb0?y\xd9\xd7\x88y7\x1e\xc0L7\x89A`\xe5\xd8?\xa1\xa8\xa4gcb\x12@'
p1769
tp1770
bsVshaker
p1771
g521
(g522
(I0
tp1772
g524
tp1773
Rp1774
(I1
(I4
tp1775
g557
I00
S'\n\xd7\xa3p=\n\x01@\x14\xaeG\xe1z\x14\x02@\\\x8f\xc2\xf5(\\\xef?\x00\x00\x00\x00\x00\x00\x00\x00'
p1776
tp1777
bsVc_obst9
p1778
g521
(g522
(I0
tp1779
g524
tp1780
Rp1781
(I1
(I4
tp1782
g557
I00
S"\x84v\x82wVC\x12@\xa0n\xad8\xc7F\xc2\xbfe\xaa`TR'\xed?\xd9R5=\xef\x80\x10@"
p1783
tp1784
bsVplate_835a
p1785
g521
(g522
(I0
tp1786
g524
tp1787
Rp1788
(I1
(I4
tp1789
g557
I00
S'\xf6(\\\x8f\xc2\xf5\xf0?\\\x8f\xc2\xf5(\\\xe7\xbf\x1b/\xdd$\x06\x81\xed?\x00\x00\x00\x00\x00\x00\x00\x00'
p1790
tp1791
bsVcup_58a2
p1792
g521
(g522
(I0
tp1793
g524
tp1794
Rp1795
(I1
(I4
tp1796
g557
I00
S'\x85\xebQ\xb8\x1e\x85\xe3?\xcd\xcc\xcc\xcc\xcc\xcc\xdc?\x1b/\xdd$\x06\x81\xed?\x00\x00\x00\x00\x00\x00\x00\x00'
p1797
tp1798
bsVleft_wall_1
p1799
g521
(g522
(I0
tp1800
g524
tp1801
Rp1802
(I1
(I4
tp1803
g557
I00
S'H\xe1z\x14\xaeG\x12@S\xb8\x1e\x85\xebQ\xe4?\xcc\x7fH\xbf}\x1d\xed?\x00\x00\x00\x00\x00\x00\x00\x00'
p1804
tp1805
bsVc_obst2
p1806
g521
(g522
(I0
tp1807
g524
tp1808
Rp1809
(I1
(I4
tp1810
g557
I00
S"\x04\xf9\xf8\xe06C\x12@\x8ac\x9dS@k\xcc?e\xaa`TR'\xed?\x8e\xd1'\xc0\x08~\xfe?"
p1811
tp1812
bsVsquare_packing_box4
p1813
g521
(g522
(I0
tp1814
g524
tp1815
Rp1816
(I1
(I4
tp1817
g557
I00
S'S\xce\xcef\xfe\xbb\xf0?G@\xfc\xa1\x9e\xc0\x16\xc0L7\x89A`\xe5\xd8?\xaeKe\x14U\xf8\x13@'
p1818
tp1819
bsVrectangular_packing_box1
p1820
g521
(g522
(I0
tp1821
g524
tp1822
Rp1823
(I1
(I4
tp1824
g557
I00
S'\xf71, \xdaJ\xf5?\x8f\x94\xc7_\x9e4\x18\xc0L7\x89A`\xe5\xd8?\x88,&\x8ck,\x0b@'
p1825
tp1826
bsVpin_371e
p1827
g521
(g522
(I0
tp1828
g524
tp1829
Rp1830
(I1
(I4
tp1831
g557
I00
S'333333\xf3\xbfffffff\xf6?\xb8\x1e\x85\xebQ\xb8\xee?\x00\x00\x00\x00\x00\x00\x00\x00'
p1832
tp1833
bsVfridge
p1834
g521
(g522
(I0
tp1835
g524
tp1836
Rp1837
(I1
(I4
tp1838
g557
I00
S'\xd7\xa3p=\n\xd7\xeb\xbf\x00\x00\x00\x00\x00\x00\x00\xc0\xcd\xcc\xcc\xcc\xcc\xcc\xf8?\x00\x00\x00\x00\x00\x00\x00\x00'
p1839
tp1840
bsVcup_d441
p1841
g521
(g522
(I0
tp1842
g524
tp1843
Rp1844
(I1
(I4
tp1845
g557
I00
S'\n\xd7\xa3p=\n\xef?\x8f\xc2\xf5(\\\x8f\xe2?\x1b/\xdd$\x06\x81\xed?\x00\x00\x00\x00\x00\x00\x00\x00'
p1846
tp1847
bsVshelf2
p1848
g521
(g522
(I0
tp1849
g524
tp1850
Rp1851
(I1
(I4
tp1852
g557
I00
S'\x00\x00\x00\x00\x00\x00\x0e@\xaeG\xe1z\x14\xae\x07@\x9c\xc4 \xb0rh\xc1?\xd2!3\x7f|\xd9\x12@'
p1853
tp1854
bsVtop_wall_2
p1855
g521
(g522
(I0
tp1856
g524
tp1857
Rp1858
(I1
(I4
tp1859
g557
I00
S'H\xe1z\x14\xaeG\x12@\x80\x14\xaeG\xe1z\xc4?\x16HP\xfc\x18\xf3\xfd?\x00\x00\x00\x00\x00\x00\x00\x00'
p1860
tp1861
bsVc_obst0
p1862
g521
(g522
(I0
tp1863
g524
tp1864
Rp1865
(I1
(I4
tp1866
g557
I00
S"\xb8\x088t\x9c7\x12@\xb6H\xf1\x14\xed\x8f\x96\xbfe\xaa`TR'\xed?\xadtI0\xaa\x0c\x13@"
p1867
tp1868
bsVshelf1
p1869
g521
(g522
(I0
tp1870
g524
tp1871
Rp1872
(I1
(I4
tp1873
g557
I00
S'\x00\x00\x00\x00\x00\x00\x13@\xaeG\xe1z\x14\xae\x07@\x9c\xc4 \xb0rh\xc1?\xd2!3\x7f|\xd9\x12@'
p1874
tp1875
bsVsink
p1876
g521
(g522
(I0
tp1877
g524
tp1878
Rp1879
(I1
(I4
tp1880
g557
I00
S'ffffff\xd6?333333\x01@\x9a\x99\x99\x99\x99\x99\xb9\xbf\x00\x00\x00\x00\x00\x00\x00\x00'
p1881
tp1882
bsVpr2
p1883
g521
(g522
(I0
tp1884
g524
tp1885
Rp1886
(I1
(I4
tp1887
g557
I00
S'w\x89\xdc!\x1ey\t@s\xf5\xbaQ\xd2\xe4\x18\xc0\x9a_\x94\xa0\xbf\xd0\xc1?\x10\xab-f\x05\x15\xf7?'
p1888
tp1889
bsVchair_12d0
p1890
g521
(g522
(I0
tp1891
g524
tp1892
Rp1893
(I1
(I4
tp1894
g557
I00
S'^\xd2\x18\xad\xa3\xaa\xdb?Pf\x83L2r\xc6?\x00\x00\x00\x00\x00\x00\x00\x00\xf8\x81\r\x14M\xa6\x17@'
p1895
tp1896
bsVright_wall_2
p1897
g521
(g522
(I0
tp1898
g524
tp1899
Rp1900
(I1
(I4
tp1901
g557
I00
S'H\xe1z\x14\xaeG\x12@&\\\x8f\xc2\xf5(\xd4\xbfxX\xa85\xcd\xbb\xf2?\x00\x00\x00\x00\x00\x00\x00\x00'
p1902
tp1903
bsVknife_block
p1904
g521
(g522
(I0
tp1905
g524
tp1906
Rp1907
(I1
(I4
tp1908
g557
I00
S'R\xb8\x1e\x85\xebQ\xe0\xbfffffff\x02@`\xe5\xd0"\xdb\xf9\xee?\x00\x00\x00\x00\x00\x00\x00\x00'
p1909
tp1910
bsVleft_wall_2
p1911
g521
(g522
(I0
tp1912
g524
tp1913
Rp1914
(I1
(I4
tp1915
g557
I00
S'H\xe1z\x14\xaeG\x12@S\xb8\x1e\x85\xebQ\xe4?xX\xa85\xcd\xbb\xf2?\x00\x00\x00\x00\x00\x00\x00\x00'
p1916
tp1917
bsVleft_wall
p1918
g521
(g522
(I0
tp1919
g524
tp1920
Rp1921
(I1
(I4
tp1922
g557
I00
S'\x9a\x99\x99\x99\x99\x99\x07@H\xe1z\x14\xaeG\xff?\x9c\xc4 \xb0rh\xc1?\x00\x00\x00\x00\x00\x00\x00\x00'
p1923
tp1924
bsVkitchen
p1925
g521
(g522
(I0
tp1926
g524
tp1927
Rp1928
(I1
(I4
tp1929
g557
I00
S'\x00\x00\x00\x00\x00\x00\x00\x00\x00\x00\x00\x00\x00\x00\x00\x00\x00\x00\x00\x00\x00\x00\x00\x00\x00\x00\x00\x00\x00\x00\x00\x00'
p1930
tp1931
bsVtable2
p1932
g521
(g522
(I0
tp1933
g524
tp1934
Rp1935
(I1
(I4
tp1936
g557
I00
S'\x00\x00\x00\x00\x00\x00\x13@\x80\x14\xaeG\xe1z\xc4?S\x96!\x8euq\xec?\xd2!3\x7f|\xd9\x12@'
p1937
tp1938
bsVc_obst8
p1939
g521
(g522
(I0
tp1940
g524
tp1941
Rp1942
(I1
(I4
tp1943
g557
I00
S"\xa2\x86\xba\xbe\x0e\xfe\x11@\x10\x88\xaeAcX\xc9?e\xaa`TR'\xed?\xe7\xc6R\xf7\xd5q\x17@"
p1944
tp1945
bsVplate_b4e7
p1946
g521
(g522
(I0
tp1947
g524
tp1948
Rp1949
(I1
(I4
tp1950
g557
I00
S'\x14\xaeG\xe1z\x14\xf2\xbf\x14\xaeG\xe1z\x14\x00@=\n\xd7\xa3p=\xf2?\x00\x00\x00\x00\x00\x00\x00\x00'
p1951
tp1952
bsVcooker
p1953
g521
(g522
(I0
tp1954
g524
tp1955
Rp1956
(I1
(I4
tp1957
g557
I00
S'\xaeG\xe1z\x14\xae\xff?\x85\xebQ\xb8\x1e\x85\xfb?\x00\x00\x00\x00\x00\x00\xe8?\x00\x00\x00\x00\x00\x00\x00\x00'
p1958
tp1959
bsVpin_a091
p1960
g521
(g522
(I0
tp1961
g524
tp1962
Rp1963
(I1
(I4
tp1964
g557
I00
S'\xdb\xf9~j\xbct\xf7\xbf)\\\x8f\xc2\xf5(\x02@\xb8\x1e\x85\xebQ\xb8\xfa?\x00\x00\x00\x00\x00\x00\x00\x00'
p1965
tp1966
bsVside_wall_2
p1967
g521
(g522
(I0
tp1968
g524
tp1969
Rp1970
(I1
(I4
tp1971
g557
I00
S'\xf1\xff\xff\xff\xff\xff\x14@\xe4\xff\xff\xff\xff\x7f\xef<\x9c\xc4 \xb0rh\xc1?\x1c-DT\xfb!\xf9?'
p1972
tp1973
bsVside_wall_3
p1974
g521
(g522
(I0
tp1975
g524
tp1976
Rp1977
(I1
(I4
tp1978
g557
I00
S'\x00\x00\x00\x00\x00\x00\xfc?H\xe1z\x14\xaeG\t@\x9c\xc4 \xb0rh\xc1?\x00\x00\x00\x00\x00\x00\x00\x00'
p1979
tp1980
bsVmixer
p1981
g521
(g522
(I0
tp1982
g524
tp1983
Rp1984
(I1
(I4
tp1985
g557
I00
S'\n\xd7\xa3p=\n\xfb?ffffff\x02@d;\xdfO\x8d\x97\xee?\x00\x00\x00\x00\x00\x00\x00\x00'
p1986
tp1987
bsVside_wall_1
p1988
g521
(g522
(I0
tp1989
g524
tp1990
Rp1991
(I1
(I4
tp1992
g557
I00
S'\xe2\xff\xff\xff\xff\xff\xfb\xbf\xea\xff\xff\xff\xff\xff\xd4\xbc\x9c\xc4 \xb0rh\xc1?\x1c-DT\xfb!\xf9?'
p1993
tp1994
bsVbottom_wall_1
p1995
g521
(g522
(I0
tp1996
g524
tp1997
Rp1998
(I1
(I4
tp1999
g557
I00
S'H\xe1z\x14\xaeG\x12@\x80\x14\xaeG\xe1z\xc4?\xcc\x7fH\xbf}\x1d\xed?\x00\x00\x00\x00\x00\x00\x00\x00'
p2000
tp2001
bsVcan
p2002
g521
(g522
(I0
tp2003
g524
tp2004
Rp2005
(I1
(I4
tp2006
g557
I00
S'\x00\x00\x00\x00\x00\x00\xf4\xbfH\xe1z\x14\xaeG\xe1\xbf\n\xd7\xa3p=\n\xef?\x00\x00\x00\x00\x00\x00\x00\x00'
p2007
tp2008
bsVright_wall
p2009
g521
(g522
(I0
tp2010
g524
tp2011
Rp2012
(I1
(I4
tp2013
g557
I00
S'\x9a\x99\x99\x99\x99\x99\x07@H\xe1z\x14\xaeG\xff\xbf\x9c\xc4 \xb0rh\xc1?\x00\x00\x00\x00\x00\x00\x00\x00'
p2014
tp2015
bsVcoffe_machine
p2016
g521
(g522
(I0
tp2017
g524
tp2018
Rp2019
(I1
(I4
tp2020
g557
I00
S'\\\x8f\xc2\xf5(\\\xf5\xbf\xb8\x1e\x85\xebQ\xb8\xee?\n\xd7\xa3p=\n\xef?\x00\x00\x00\x00\x00\x00\x00\x00'
p2021
tp2022
bsVcomputer_chair
p2023
g521
(g522
(I0
tp2024
g524
tp2025
Rp2026
(I1
(I4
tp2027
g557
I00
S'\xcd\xcc\xcc\xcc\xcc\xcc\x10@\x00\x00\x00\x00\x00\x00\xf8\xbf\xa00\xb6\x10\xe4\xa9\x95\xbf\x00\x00\x00\x00\x00\x00\x00\x00'
p2028
tp2029
bssS'robot_dof_values'
p2030
g521
(g522
(I0
tp2031
g524
tp2032
Rp2033
(I1
(I39
tp2034
g557
I00
S'\x00\x00\x00\x00\x00\x00\x00\x00\x00\x00\x00\x00\x00\x00\x00\x00\x00\x00\x00\x00\x00\x00\x00\x00\x00\x00\x00\x00\x00\x00\x00\x00\x00\x00\x00\x00\x00\x00\x00\x00\x00\x00\x00\x00\x00\x00\x00\x00\x00\x00\x00\x00\x00\x00\x00\x00\x00\x00\x00\x00\x00\x00\x00\x00\x00\x00\x00\x00\x00\x00\x00\x00\x00\x00\x00\x00\x00\x00\x00\x00\x00\x00\x00\x00\x00\x00\x00\x00\x00\x00\x00\x00\x00\x00\x00\x00\xa0\xf1S&x\xf4\x97?\x00\x00\x00\x00\x00\x00\x00\x00\x00\x00\x00\x00\x00\x00\x00\x00\x00\x00\x00\x00\x00\x00\x00\x00\xec\xed\t\xf1\xcc\xa4\xf4?\x00\x00\x00\x00\x00\x00\xb0<N"\xd0^p\xf8\x00\xc0H#O3\xb2t\xa9\xbc\xa1\x03\r.\x04V\xe6\xbf\x00\x00\x00\x00\x00\x00\x00\x00\x00\x00\x00\x00\x00\x00\x00\x00\x00\x00\x00\x00\x00\xb8\x17\xbd\x00\x00\x00\x00\x00\x00\x00\x00\x00\x00\x00\x00\x00\x00\xe0<\x00\x00\x00\x00\x00\x00\x00\x00\x00\x00\x00\x00\x00\x00\x00\x00\xeb\xed\t\xf1\xcc\xa4\xf4?\x00\x00\x00\x00\x00\x00\xb0<N"\xd0^p\xf8\x00\xc0\x00\x00\x00\x00\x00\x00\x00\x00\xa0\x03\r.\x04V\xe6\xbf\x00\x00\x00\x00\x00\x00\x00\x00\xcb9\xe3\xc17\x89\xe1?\x00\x00\x00\x00\x00\x9c"\xbd\x121\x1a\x10g\xdd\xc7\xbc\x00\x00\x00\x00\x00\x00\xf0\xbc\x00\x00\x00\x00\x00\x00\x00\x00'
p2035
tp2036
bsS'is_holding'
p2037
I00
sbsS'holding_collides'
p2038
(dp2039
(Vsquare_packing_box4
p2040
(g1436
(g557
S'\x90\xc0\x1f~\xfe\xbb\xf0?'
p2041
tp2042
Rp2043
g1436
(g557
S'8\xdb\xdc\x98\x9e\xc0\x16\xc0'
p2044
tp2045
Rp2046
g1436
(g557
S'\xda\x8c\xd3\x10U\xf8\x13@'
p2047
tp2048
Rp2049
tp2050
tp2051
g948
s(Vrectangular_packing_box2
p2052
(g1436
(g557
S'\xce\xe30\x98\xbfB\x02@'
p2053
tp2054
Rp2055
g1436
(g557
S'\xf9hq\xc60\xf7\x1a\xc0'
p2056
tp2057
Rp2058
g1436
(g557
S'V\xbc\x91y\xe4\x8f\xe0?'
p2059
tp2060
Rp2061
tp2062
tp2063
g924
s(Vrectangular_packing_box3
p2064
(g1436
(g557
S'{\x9f\xaaB\x03\xb1\xb0?'
p2065
tp2066
Rp2067
g1436
(g557
S'\x0f\x0b\xb5\xa6y7\x1e\xc0'
p2068
tp2069
Rp2070
g1436
(g557
S'\xe5\xef\xdeQcb\x12@'
p2071
tp2072
Rp2073
tp2074
tp2075
g928
s(Vrectangular_packing_box4
p2076
(g1436
(g557
S'}\xec.PR`\xd2?'
p2077
tp2078
Rp2079
g1436
(g557
S'\x8fT\xdf\xf9Ei\x18\xc0'
p2080
tp2081
Rp2082
g1436
(g557
S'\xe8\xf9\xd3Fu:\xe4?'
p2083
tp2084
Rp2085
tp2086
tp2087
g920
s(Vsquare_packing_box3
p2088
(g1436
(g557
S'\xc7\xbc\x8e8d\xa3\n@'
p2089
tp2090
Rp2091
g1436
(g557
S'\xb8\xca\x13\x08;\x05\x1e\xc0'
p2092
tp2093
Rp2094
g1436
(g557
S'\xde\xc9\xa7\xc7\xb6\xac\x0f@'
p2095
tp2096
Rp2097
tp2098
tp2099
g940
s(Vsquare_packing_box1
p2100
(g1436
(g557
S'N\xb4\xab\x90\xf23\x0c@'
p2101
tp2102
Rp2103
g1436
(g557
S'Q\xf5+\x9d\x0f?\x15\xc0'
p2104
tp2105
Rp2106
g1436
(g557
S'\xe2\x1f\xb6\xf4h\n\x13@'
p2107
tp2108
Rp2109
tp2110
tp2111
g944
s(Vrectangular_packing_box1
p2112
(g1436
(g557
S'\xa8\xdf\x85\xad\xd9J\xf5?'
p2113
tp2114
Rp2115
g1436
(g557
S'\x14\x05\xfaD\x9e4\x18\xc0'
p2116
tp2117
Rp2118
g1436
(g557
S'\xb13\x85\xcek,\x0b@'
p2119
tp2120
Rp2121
tp2122
tp2123
g932
s(Vsquare_packing_box2
p2124
(g1436
(g557
S'\xe8\xbe\x9c\xd9\xae0\x08@'
p2125
tp2126
Rp2127
g1436
(g557
S'\xa7\xca\xf7\x8cD(\x16\xc0'
p2128
tp2129
Rp2130
g1436
(g557
S'\x0b~\x1bb\xbc\xe6\xc1?'
p2131
tp2132
Rp2133
tp2134
tp2135
g936
ssS'parent_ternary_predicates'
p2136
(dp2137
(Vrectangular_packing_box2
p2138
g2138
S'home_region'
p2139
tp2140
g13
s(Vsquare_packing_box1
p2141
S'loading_region'
p2142
g2142
tp2143
g17
s(S'entire_region'
p2144
Vrectangular_packing_box1
p2145
g2139
tp2146
g21
s(Vrectangular_packing_box3
p2147
Vsquare_packing_box3
p2148
g2142
tp2149
g172
s(g2139
g2139
g2139
tp2150
g27
s(Vsquare_packing_box4
p2151
g2138
g2142
tp2152
g29
s(g2141
g2147
g2139
tp2153
g32
s(g2139
Vrectangular_packing_box4
p2154
g2139
tp2155
g35
s(g2139
g2151
g2142
tp2156
g41
s(g2151
g2139
g2142
tp2157
g430
s(g2142
g2139
g2142
tp2158
g45
s(g2154
g2148
g2139
tp2159
g48
s(g2148
g2142
g2139
tp2160
g54
s(g2144
g2138
g2142
tp2161
g56
s(g2138
g2142
g2139
tp2162
g60
s(g2138
g2154
g2142
tp2163
g200
s(g2141
g2141
g2142
tp2164
g64
s(g2142
g2151
g2139
tp2165
g284
s(g2142
g2142
g2139
tp2166
g72
s(g2148
g2154
g2142
tp2167
g74
s(g2139
g2139
g2142
tp2168
g76
s(g2138
g2151
g2139
tp2169
g80
s(g2148
g2141
g2139
tp2170
g82
s(g2148
g2139
g2139
tp2171
g382
s(g2139
g2138
g2142
tp2172
g86
s(g2145
g2147
g2142
tp2173
g88
s(g2147
g2145
g2139
tp2174
g90
s(g2142
g2141
g2142
tp2175
g92
s(g2138
g2138
g2142
tp2176
g96
s(g2144
g2151
g2139
tp2177
g98
s(g2142
g2139
g2139
tp2178
g100
s(g2154
g2138
g2139
tp2179
g102
s(g2141
g2147
g2142
tp2180
g110
s(g2142
g2151
g2142
tp2181
g66
s(g2142
g2147
g2142
tp2182
g120
s(g2144
g2139
g2139
tp2183
g122
s(g2142
g2144
g2139
tp2184
g126
s(g2138
g2151
g2142
tp2185
g128
s(g2148
g2138
g2142
tp2186
g130
s(g2151
g2145
g2142
tp2187
g148
s(g2145
g2147
g2139
tp2188
g134
s(g2144
g2138
g2139
tp2189
g136
s(g2145
g2142
g2142
tp2190
g138
s(g2151
g2141
g2139
tp2191
g140
s(g2141
g2141
g2139
tp2192
g142
s(g2141
g2154
g2139
tp2193
g144
s(g2154
g2138
g2142
tp2194
g146
s(g2148
g2154
g2139
tp2195
g150
s(g2139
g2144
g2139
tp2196
g58
s(g2138
g2145
g2142
tp2197
g154
s(g2145
g2139
g2139
tp2198
g156
s(g2138
g2148
g2139
tp2199
g160
s(g2147
g2145
g2142
tp2200
g162
s(g2144
g2139
g2142
tp2201
g166
s(g2144
g2151
g2142
tp2202
g168
s(g2148
g2138
g2139
tp2203
g170
s(g2142
g2145
g2139
tp2204
g370
s(g2138
g2144
g2142
tp2205
g174
s(g2145
g2142
g2139
tp2206
g176
s(g2142
g2154
g2139
tp2207
g280
s(g2148
g2145
g2142
tp2208
g180
s(g2151
g2141
g2142
tp2209
g182
s(g2139
g2147
g2142
tp2210
g184
s(g2144
g2148
g2142
tp2211
g186
s(g2142
g2147
g2139
tp2212
g188
s(g2138
g2145
g2139
tp2213
g192
s(g2151
g2145
g2139
tp2214
g194
s(g2142
g2148
g2139
tp2215
g196
s(g2138
g2148
g2142
tp2216
g198
s(g2148
g2144
g2139
tp2217
g62
s(g2141
g2154
g2142
tp2218
g204
s(g2148
g2148
g2139
tp2219
g132
s(g2147
g2142
g2142
tp2220
g210
s(g2154
g2139
g2142
tp2221
g212
s(g2141
g2145
g2139
tp2222
g214
s(g2138
g2144
g2139
tp2223
g216
s(g2147
g2138
g2142
tp2224
g220
s(g2148
g2145
g2139
tp2225
g222
s(g2151
g2142
g2142
tp2226
g224
s(g2139
g2147
g2139
tp2227
g104
s(g2142
g2145
g2142
tp2228
g232
s(g2142
g2148
g2142
tp2229
g234
s(g2141
g2148
g2139
tp2230
g236
s(g2144
g2142
g2139
tp2231
g68
s(g2141
g2145
g2142
tp2232
g240
s(g2151
g2154
g2139
tp2233
g228
s(g2139
g2148
g2139
tp2234
g416
s(g2147
g2139
g2142
tp2235
g246
s(g2151
g2142
g2139
tp2236
g248
s(g2142
g2154
g2142
tp2237
g250
s(g2138
g2154
g2139
tp2238
g252
s(g2154
g2154
g2139
tp2239
g256
s(g2154
g2147
g2142
tp2240
g258
s(g2147
g2142
g2139
tp2241
g260
s(g2148
g2151
g2139
tp2242
g262
s(g2147
g2144
g2142
tp2243
g268
s(g2151
g2144
g2142
tp2244
g462
s(g2151
g2154
g2142
tp2245
g274
s(g2148
g2139
g2142
tp2246
g276
s(g2147
g2139
g2139
tp2247
g278
s(g2145
g2145
g2139
tp2248
g282
s(g2151
g2148
g2139
tp2249
g286
s(g2141
g2138
g2139
tp2250
g288
s(g2141
g2148
g2142
tp2251
g290
s(g2154
g2141
g2142
tp2252
g292
s(g2144
g2147
g2142
tp2253
g296
s(g2147
g2141
g2139
tp2254
g298
s(g2145
g2144
g2139
tp2255
g300
s(g2148
g2151
g2142
tp2256
g302
s(g2148
g2147
g2142
tp2257
g304
s(g2154
g2145
g2139
tp2258
g306
s(g2139
g2148
g2142
tp2259
g230
s(g2154
g2142
g2139
tp2260
g310
s(g2147
g2144
g2139
tp2261
g312
s(g2151
g2147
g2142
tp2262
g314
s(g2138
g2141
g2139
tp2263
g316
s(g2148
g2141
g2142
tp2264
g318
s(g2151
g2151
g2142
tp2265
g320
s(g2154
g2154
g2142
tp2266
g322
s(g2145
g2145
g2142
tp2267
g324
s(g2141
g2151
g2142
tp2268
g326
s(g2142
g2138
g2139
tp2269
g398
s(g2144
g2141
g2139
tp2270
g330
s(g2139
g2144
g2142
tp2271
g332
s(g2139
g2145
g2142
tp2272
g334
s(g2141
g2138
g2142
tp2273
g338
s(g2145
g2141
g2142
tp2274
g340
s(g2144
g2147
g2139
tp2275
g344
s(g2147
g2154
g2142
tp2276
g39
s(g2145
g2144
g2142
tp2277
g348
s(g2151
g2144
g2139
tp2278
g50
s(g2154
g2145
g2142
tp2279
g352
s(g2154
g2147
g2139
tp2280
g354
s(g2151
g2147
g2139
tp2281
g356
s(g2141
g2139
g2142
tp2282
g358
s(g2147
g2151
g2139
tp2283
g108
s(g2145
g2148
g2139
tp2284
g238
s(g2154
g2144
g2139
tp2285
g364
s(g2142
g2144
g2142
tp2286
g366
s(g2151
g2148
g2142
tp2287
g368
s(g2144
g2144
g2142
tp2288
g372
s(g2154
g2141
g2139
tp2289
g374
s(g2141
g2151
g2139
tp2290
g376
s(g2142
g2138
g2142
tp2291
g378
s(g2147
g2141
g2142
tp2292
g380
s(g2145
g2139
g2142
tp2293
g84
s(g2144
g2141
g2142
tp2294
g384
s(g2148
g2147
g2139
tp2295
g386
s(g2154
g2142
g2142
tp2296
g390
s(g2138
g2141
g2142
tp2297
g392
s(g2145
g2138
g2139
tp2298
g394
s(g2144
g2142
g2142
tp2299
g396
s(g2141
g2144
g2139
tp2300
g400
s(g2147
g2151
g2142
tp2301
g202
s(g2147
g2147
g2142
tp2302
g342
s(g2147
g2138
g2139
tp2303
g242
s(g2151
g2139
g2139
tp2304
g406
s(g2148
g2148
g2142
tp2305
g362
s(g2154
g2151
g2139
tp2306
g410
s(g2144
g2154
g2142
tp2307
g412
s(g2139
g2145
g2139
tp2308
g414
s(g2145
g2141
g2139
tp2309
g418
s(g2145
g2154
g2139
tp2310
g420
s(g2144
g2148
g2139
tp2311
g422
s(g2147
g2154
g2139
tp2312
g450
s(g2139
g2141
g2139
tp2313
g458
s(g2145
g2151
g2142
tp2314
g428
s(g2138
g2139
g2139
tp2315
g432
s(g2141
g2139
g2139
tp2316
g434
s(g2145
g2138
g2142
tp2317
g436
s(g2154
g2144
g2142
tp2318
g408
s(g2151
g2138
g2139
tp2319
g438
s(g2139
g2142
g2139
tp2320
g440
s(g2144
g2144
g2139
tp2321
g442
s(g2138
g2147
g2142
tp2322
g444
s(g2141
g2144
g2142
tp2323
g446
s(g2154
g2139
g2139
tp2324
g124
s(g2144
g2154
g2139
tp2325
g452
s(g2141
g2142
g2139
tp2326
g454
s(g2144
g2145
g2142
tp2327
g460
s(g2145
g2148
g2142
tp2328
g206
s(g2139
g2141
g2142
tp2329
g208
s(g2145
g2151
g2139
tp2330
g466
s(g2148
g2144
g2142
tp2331
g468
s(g2147
g2147
g2139
tp2332
g254
s(g2139
g2151
g2139
tp2333
g472
s(g2154
g2151
g2142
tp2334
g476
s(g2151
g2151
g2139
tp2335
g478
s(g2145
g2154
g2142
tp2336
g480
s(g2147
g2148
g2139
tp2337
g474
s(g2148
g2142
g2142
tp2338
g484
s(g2139
g2138
g2139
tp2339
g486
s(g2138
g2142
g2142
tp2340
g488
s(g2139
g2154
g2142
tp2341
g490
s(g2138
g2139
g2142
tp2342
g492
s(g2142
g2142
g2142
tp2343
g494
s(g2154
g2148
g2142
tp2344
g498
s(g2139
g2142
g2142
tp2345
g500
s(g2138
g2147
g2139
tp2346
g502
s(g2142
g2141
g2139
tp2347
g504
ssS'cached_place_paths'
p2348
(dp2349
(g691
g15
tp2350
(lp2351
g521
(g522
(I0
tp2352
g524
tp2353
Rp2354
(I1
(I3
tp2355
g557
I00
S'\xf7\xc9\xc0\xcf\xd9[\xf0?\x93/#\xddH6\x15\xc0F\xa4\xd4\xc0\xcb\x98\x14@'
p2356
tp2357
bas(g853
g11
tp2358
(lp2359
g521
(g522
(I0
tp2360
g524
tp2361
Rp2362
(I1
(I3
tp2363
g557
I00
S'\xa0\xdc\xa0]\xb4\xb3\xed?6\xb9\xcf\x1f\xa8Q\x13\xc07\x0eA\xb8^ \x13@'
p2364
tp2365
bag521
(g522
(I0
tp2366
g524
tp2367
Rp2368
(I1
(I3
tp2369
g568
I00
S"\xaeJ\xbd\x1936\xec?\x04\x13\xd4'\x9f\x88\x10\xc0\x805qo\xb6\xe6\xff\xbf"
p2370
tp2371
bag521
(g522
(I0
tp2372
g524
tp2373
Rp2374
(I1
(I3
tp2375
g568
I00
S'\xf09\xb6\x1c*\x86\xee?\xc4\n/\x96\xcb\xe3\n\xc0\xa0\xc9\xd6F6\x0f\x00\xc0'
p2376
tp2377
bag521
(g522
(I0
tp2378
g524
tp2379
Rp2380
(I1
(I3
tp2381
g568
I00
S'3\xe9\xaf\x05T\x89\xe7?+~\xcb\xd3\x15\xc7\x04\xc0x6(d5\xed\x07@'
p2382
tp2383
bas(g507
g11
tp2384
(lp2385
g521
(g522
(I0
tp2386
g524
tp2387
Rp2388
(I1
(I3
tp2389
g557
I00
S'\x80\xee\xbc7\x1c\xc9\xc2\xbf\x00{?`*X\x16\xc0\xc2\xcf\x15Rt\xb2\x14@'
p2390
tp2391
bag521
(g522
(I0
tp2392
g524
tp2393
Rp2394
(I1
(I3
tp2395
g568
I00
S'\xff\x1dX8\xbe\xd2\xc9?\x91h\xd1{\x1e(\x16\xc0\xee\xfeSI\xc3\xd4\x03\xc0'
p2396
tp2397
bag521
(g522
(I0
tp2398
g524
tp2399
Rp2400
(I1
(I3
tp2401
g568
I00
S'\xcc\x87!\x1f\xfb\x05\xe6?\x14;\x08\xf1<\xc6\x13\xc0V!\xac1j\x94\xc8?'
p2402
tp2403
bag521
(g522
(I0
tp2404
g524
tp2405
Rp2406
(I1
(I3
tp2407
g568
I00
S'`\xc8Aw-\x81\xeb?/\xc3\xe6O\x04\xca\x10\xc0\x8a\xb7K)\x91{\xe4\xbf'
p2408
tp2409
bag521
(g522
(I0
tp2410
g524
tp2411
Rp2412
(I1
(I3
tp2413
g568
I00
S'\xe1\xc6\xc7\xa7\x12X\xe7?\x98\x99\xb0\x9a\xfb\xdb\x0b\xc0R\t\x1b)\xeae\xe0\xbf'
p2414
tp2415
bag521
(g522
(I0
tp2416
g524
tp2417
Rp2418
(I1
(I3
tp2419
g568
I00
S'p\xf1\xbdc^\x84\xf1?"\x88LL\xf9D\x06\xc0~w\r\xe9m\x0f\x19@'
p2420
tp2421
bas(g777
g15
tp2422
(lp2423
g521
(g522
(I0
tp2424
g524
tp2425
Rp2426
(I1
(I3
tp2427
g557
I00
S'@\xdb\xa1r\xd0\xee\x05@\n\x9f\xfa\xca\xa2\xc6\x1f\xc0n\x15\x1co\n\xac\xda?'
p2428
tp2429
bas(g507
g15
tp2430
(lp2431
g521
(g522
(I0
tp2432
g524
tp2433
Rp2434
(I1
(I3
tp2435
g557
I00
S'\x96\xee\xbc7\x1c\xc9\xc2\xbf\x02{?`*X\x16\xc0\xc1\xcf\x15Rt\xb2\x14@'
p2436
tp2437
bas(g777
g11
tp2438
g1231
s(g741
g15
tp2439
(lp2440
g521
(g522
(I0
tp2441
g524
tp2442
Rp2443
(I1
(I3
tp2444
g557
I00
S"\xf6\r\xc8\x17\xf8\xcb\x08@Nox\xd2\x0f\x8f\x19\xc0{=\x93/\xad'\xfb?"
p2445
tp2446
bas(g741
g11
tp2447
g1143
s(g821
g11
tp2448
g1081
s(g635
g11
tp2449
g1025
s(g635
g15
tp2450
(lp2451
g521
(g522
(I0
tp2452
g524
tp2453
Rp2454
(I1
(I3
tp2455
g557
I00
S'g\x02\xabE\x8f\xc1\xe5?\xf4\xa6\xc5gY\x12\x1f\xc0\\)%M\x96\x93\x08@'
p2456
tp2457
bas(g853
g15
tp2458
(lp2459
g521
(g522
(I0
tp2460
g524
tp2461
Rp2462
(I1
(I3
tp2463
g557
I00
S'\x7f\xdc\xa0]\xb4\xb3\xed?6\xb9\xcf\x1f\xa8Q\x13\xc06\x0eA\xb8^ \x13@'
p2464
tp2465
bas(g821
g15
tp2466
(lp2467
g521
(g522
(I0
tp2468
g524
tp2469
Rp2470
(I1
(I3
tp2471
g557
I00
S'\xb5\x9ct\x99Y\x93\x0e@\xa2\x82\x19\x7fa\xb4\x17\xc0\x0e\x07\x97\xeb\xfc\n\x00@'
p2472
tp2473
bas(g585
g15
tp2474
(lp2475
g521
(g522
(I0
tp2476
g524
tp2477
Rp2478
(I1
(I3
tp2479
g557
I00
S'Z\xcb,\x86\xdc\x8b\x00@h\x82\xd4\xc5\xd4\x10\x18\xc0\x12\x95\xbf\x1a,G\x15@'
p2480
tp2481
bas(g585
g11
tp2482
g1299
s(g691
g11
tp2483
g1199
ssS'parent_binary_predicates'
p2484
(dp2485
(g2147
g2148
tp2486
(lp2487
I00
aI00
aI00
as(g2147
g2147
tp2488
(lp2489
I00
aI00
aI00
as(g2138
g2148
tp2490
(lp2491
I00
aI01
aI00
as(g2139
g2138
tp2492
(lp2493
I00
aI00
aI00
as(g2151
g2138
tp2494
(lp2495
I00
aI00
aI00
as(g2145
g2147
tp2496
(lp2497
I00
aI01
aI00
as(g2154
g2154
tp2498
(lp2499
I00
aI00
aI00
as(g2138
g2142
tp2500
(lp2501
g1436
(g528
(S'b1'
p2502
I0
I1
tp2503
Rp2504
(I3
S'|'
p2505
NNNI-1
I-1
I0
tp2506
bS'\x01'
p2507
tp2508
Rp2509
aI00
aI01
as(g2154
g2151
tp2510
(lp2511
I00
aI00
aI00
as(g2141
g2139
tp2512
(lp2513
I00
aI00
aI00
as(g2142
g2154
tp2514
(lp2515
I00
aI00
aI00
as(g2138
g2151
tp2516
(lp2517
I00
aI00
aI00
as(g2147
g2144
tp2518
(lp2519
g2509
aI00
aI00
as(g2148
g2138
tp2520
(lp2521
I00
aI00
aI00
as(g2138
g2139
tp2522
(lp2523
I00
aI00
aI00
as(g2144
g2142
tp2524
(lp2525
I00
aI00
aI00
as(g2154
g2145
tp2526
(lp2527
I00
aI00
aI00
as(g2141
g2141
tp2528
(lp2529
I00
aI00
aI00
as(g2138
g2144
tp2530
(lp2531
g2509
aI00
aI00
as(g2142
g2138
tp2532
(lp2533
I00
aI00
aI00
as(g2142
g2148
tp2534
(lp2535
I00
aI00
aI00
as(g2142
g2147
tp2536
(lp2537
I00
aI00
aI00
as(g2148
g2139
tp2538
(lp2539
I00
aI00
aI00
as(g2151
g2154
tp2540
(lp2541
I00
aI01
aI00
as(g2145
g2154
tp2542
(lp2543
I00
aI01
aI00
as(g2148
g2145
tp2544
(lp2545
I00
aI00
aI00
as(g2144
g2139
tp2546
(lp2547
I00
aI00
aI00
as(g2141
g2138
tp2548
(lp2549
I00
aI00
aI00
as(g2154
g2148
tp2550
(lp2551
I00
aI00
aI00
as(g2144
g2148
tp2552
(lp2553
I00
aI00
aI00
as(g2148
g2144
tp2554
(lp2555
g2509
aI00
aI00
as(g2151
g2141
tp2556
(lp2557
I00
aI00
aI00
as(g2147
g2138
tp2558
(lp2559
I00
aI00
aI00
as(g2151
g2139
tp2560
(lp2561
I00
aI00
aI01
as(g2144
g2144
tp2562
(lp2563
I00
aI00
aI00
as(g2138
g2147
tp2564
(lp2565
I00
aI00
aI00
as(g2148
g2154
tp2566
(lp2567
I00
aI00
aI00
as(g2139
g2141
tp2568
(lp2569
I00
aI00
aI00
as(g2145
g2142
tp2570
(lp2571
g2509
aI00
aI01
as(g2139
g2145
tp2572
(lp2573
I00
aI00
aI00
as(g2151
g2147
tp2574
(lp2575
I00
aI01
aI00
as(g2147
g2141
tp2576
(lp2577
I00
aI00
aI00
as(g2148
g2142
tp2578
(lp2579
g2509
aI00
aI01
as(g2147
g2145
tp2580
(lp2581
I00
aI00
aI00
as(g2148
g2148
tp2582
(lp2583
I00
aI00
aI00
as(g2145
g2138
tp2584
(lp2585
I00
aI00
aI00
as(g2142
g2139
tp2586
(lp2587
I00
aI00
aI00
as(g2154
g2139
tp2588
(lp2589
I00
aI00
aI01
as(g2144
g2145
tp2590
(lp2591
I00
aI00
aI00
as(g2139
g2151
tp2592
(lp2593
I00
aI00
aI00
as(g2147
g2151
tp2594
(lp2595
I00
aI00
aI00
as(g2145
g2144
tp2596
(lp2597
g2509
aI00
aI00
as(g2151
g2142
tp2598
(lp2599
g2509
aI00
aI01
as(g2154
g2138
tp2600
(lp2601
I00
aI00
aI00
as(g2154
g2142
tp2602
(lp2603
g2509
aI00
aI01
as(g2144
g2151
tp2604
(lp2605
I00
aI00
aI00
as(g2144
g2154
tp2606
(lp2607
I00
aI00
aI00
as(g2145
g2139
tp2608
(lp2609
I00
aI00
aI00
as(g2141
g2145
tp2610
(lp2611
I00
aI00
aI00
as(g2142
g2142
tp2612
(lp2613
I00
aI00
aI00
as(g2141
g2148
tp2614
(lp2615
I00
aI00
aI00
as(g2142
g2141
tp2616
(lp2617
I00
aI00
aI00
as(g2138
g2154
tp2618
(lp2619
I00
aI00
aI00
as(g2145
g2148
tp2620
(lp2621
I00
aI00
aI00
as(g2142
g2145
tp2622
(lp2623
I00
aI00
aI00
as(g2141
g2144
tp2624
(lp2625
g2509
aI00
aI00
as(g2139
g2147
tp2626
(lp2627
I00
aI00
aI00
as(g2141
g2154
tp2628
(lp2629
I00
aI00
aI00
as(g2154
g2141
tp2630
(lp2631
I00
aI00
aI00
as(g2138
g2141
tp2632
(lp2633
I00
aI00
aI00
as(g2142
g2151
tp2634
(lp2635
I00
aI00
aI00
as(g2138
g2145
tp2636
(lp2637
I00
aI01
aI00
as(g2145
g2145
tp2638
(lp2639
I00
aI00
aI00
as(g2148
g2141
tp2640
(lp2641
I00
aI00
aI00
as(g2141
g2151
tp2642
(lp2643
I00
aI00
aI00
as(g2139
g2148
tp2644
(lp2645
I00
aI00
aI00
as(g2138
g2138
tp2646
(lp2647
I00
aI00
aI00
as(g2151
g2145
tp2648
(lp2649
I00
aI00
aI00
as(g2147
g2139
tp2650
(lp2651
I00
aI00
aI00
as(g2147
g2142
tp2652
(lp2653
g2509
aI00
aI01
as(g2145
g2141
tp2654
(lp2655
I00
aI00
aI00
as(g2154
g2147
tp2656
(lp2657
I00
aI00
aI00
as(g2139
g2142
tp2658
(lp2659
I00
aI00
aI00
as(g2144
g2147
tp2660
(lp2661
I00
aI00
aI00
as(g2148
g2147
tp2662
(lp2663
I00
aI00
aI00
as(g2139
g2139
tp2664
(lp2665
I00
aI00
aI00
as(g2145
g2151
tp2666
(lp2667
I00
aI01
aI00
as(g2154
g2144
tp2668
(lp2669
g2509
aI00
aI00
as(g2151
g2144
tp2670
(lp2671
g2509
aI00
aI00
as(g2139
g2144
tp2672
(lp2673
I00
aI00
aI00
as(g2139
g2154
tp2674
(lp2675
I00
aI00
aI00
as(g2148
g2151
tp2676
(lp2677
I00
aI00
aI00
as(g2151
g2148
tp2678
(lp2679
I00
aI00
aI00
as(g2147
g2154
tp2680
(lp2681
I00
aI00
aI00
as(g2142
g2144
tp2682
(lp2683
I00
aI00
aI00
as(g2141
g2147
tp2684
(lp2685
I00
aI00
aI00
as(g2151
g2151
tp2686
(lp2687
I00
aI00
aI00
as(g2144
g2138
tp2688
(lp2689
I00
aI00
aI00
as(g2141
g2142
tp2690
(lp2691
g2509
aI00
aI01
as(g2144
g2141
tp2692
(lp2693
I00
aI00
aI00
assS'nodes'
p2694
(dp2695
g18
(lp2696
I0
aI0
aI0
aI0
aI0
aI0
aI00
aI01
aI00
aI01
aI00
asg15
(lp2697
I0
aI0
aI0
aI0
aI0
aI0
aI00
aI01
aI00
aI01
aI00
asg11
(lp2698
I0
aI0
aI0
aI0
aI0
aI0
aI00
aI01
aI01
aI01
aI00
asg33
(lp2699
I0
aI0
aI0
ag1436
(g557
S'|\x1e]pS`\xd2?'
p2700
tp2701
Rp2702
ag1436
(g557
S'\x0e\x1b\xb6\xe9Ei\x18\xc0'
p2703
tp2704
Rp2705
ag1436
(g557
S'\x82\x97\xe8\xa1t:\xe4?'
p2706
tp2707
Rp2708
aI01
aI00
aI00
aI00
aI00
asg10
(lp2709
I0
aI0
aI0
ag1436
(g557
S'{#\x8a\xa8\xbfB\x02@'
p2710
tp2711
Rp2712
ag1436
(g557
S']@\xdd\xaa0\xf7\x1a\xc0'
p2713
tp2714
Rp2715
ag1436
(g557
S'\xa2\x93\xe4\xf2\xe3\x8f\xe0?'
p2716
tp2717
Rp2718
aI01
aI00
aI00
aI01
aI00
asg30
(lp2719
I0
aI0
aI0
ag1436
(g557
S'D\xc1$/\t\xb1\xb0?'
p2720
tp2721
Rp2722
ag1436
(g557
S'\xb1\xd9\xd7\x88y7\x1e\xc0'
p2723
tp2724
Rp2725
ag1436
(g557
S'\xa1\xa8\xa4gcb\x12@'
p2726
tp2727
Rp2728
aI01
aI00
aI00
aI00
aI00
asg19
(lp2729
I0
aI0
aI0
ag1436
(g557
S'\xf71, \xdaJ\xf5?'
p2730
tp2731
Rp2732
ag1436
(g557
S'\x8f\x94\xc7_\x9e4\x18\xc0'
p2733
tp2734
Rp2735
ag1436
(g557
S'\x88,&\x8ck,\x0b@'
p2736
tp2737
Rp2738
aI01
aI00
aI00
aI00
aI00
asg22
(lp2739
I0
aI0
aI0
ag1436
(g557
S'\xdb/\x9e\xf3\xae0\x08@'
p2740
tp2741
Rp2742
ag1436
(g557
S'\x0e\xca\xd4\x98D(\x16\xc0'
p2743
tp2744
Rp2745
ag1436
(g557
S'\xc6sbz\xc0\xe6\xc1?'
p2746
tp2747
Rp2748
aI01
aI00
aI00
aI01
aI00
asg46
(lp2749
I0
aI0
aI0
ag1436
(g557
S'\xc7\xc6\x84Ad\xa3\n@'
p2750
tp2751
Rp2752
ag1436
(g557
S'J\xaf\xb2\x18;\x05\x1e\xc0'
p2753
tp2754
Rp2755
ag1436
(g557
S'j8\xf9\x85\xb6\xac\x0f@'
p2756
tp2757
Rp2758
aI01
aI00
aI00
aI00
aI00
asg14
(lp2759
I0
aI0
aI0
ag1436
(g557
S'Y\xcf\x19\xc3\xf23\x0c@'
p2760
tp2761
Rp2762
ag1436
(g557
S'\xac\xb5r\xad\x0f?\x15\xc0'
p2763
tp2764
Rp2765
ag1436
(g557
S'\xbf~a\xe9h\n\x13@'
p2766
tp2767
Rp2768
aI01
aI00
aI01
aI01
aI00
asg23
(lp2769
I0
aI0
aI0
ag1436
(g557
S'?\xce\xcef\xfe\xbb\xf0?'
p2770
tp2771
Rp2772
ag1436
(g557
S'!@\xfc\xa1\x9e\xc0\x16\xc0'
p2773
tp2774
Rp2775
ag1436
(g557
S'\xaeKe\x14U\xf8\x13@'
p2776
tp2777
Rp2778
aI01
aI00
aI00
aI00
aI00
assS'mc_place_path'
p2779
(dp2780
sS'parent_state'
p2781
(itrajectory_representation.shortest_path_pick_and_place_state
ShortestPathPaPState
p2782
(dp2783
g2
(dp2784
sg4
(itrajectory_representation.predicates.in_region
InRegion
p2785
(dp2786
g7
Nsbsg8
(dp2787
(g2138
g2138
g2139
tp2788
g13
s(g2141
g2142
g2142
tp2789
g17
s(g2144
g2145
g2139
tp2790
g21
s(Vsquare_packing_box2
p2791
g2151
g2142
tp2792
(lp2793
I00
as(g2148
g2139
g2139
tp2794
g382
s(g2139
g2139
g2139
tp2795
g27
s(g2151
g2138
g2142
tp2796
g29
s(g2141
g2147
g2139
tp2797
g32
s(g2139
g2154
g2139
tp2798
g35
s(g2791
g2141
g2139
tp2799
(lp2800
I00
as(g2791
g2147
g2142
tp2801
(lp2802
I00
as(g2144
g2154
g2139
tp2803
g452
s(g2139
g2151
g2142
tp2804
g41
s(g2791
g2144
g2139
tp2805
(lp2806
I00
as(g2142
g2139
g2142
tp2807
g45
s(g2154
g2148
g2139
tp2808
g48
s(g2151
g2144
g2139
tp2809
g50
s(g2791
g2145
g2142
tp2810
(lp2811
I00
as(g2148
g2142
g2139
tp2812
g54
s(g2144
g2138
g2142
tp2813
g56
s(g2138
g2142
g2139
tp2814
g60
s(g2138
g2154
g2142
tp2815
g200
s(g2141
g2141
g2142
tp2816
g64
s(g2142
g2151
g2142
tp2817
g66
s(g2144
g2791
g2139
tp2818
(lp2819
I00
as(g2142
g2142
g2139
tp2820
g72
s(g2148
g2154
g2142
tp2821
g74
s(g2139
g2139
g2142
tp2822
g76
s(g2151
g2138
g2139
tp2823
g438
s(g2145
g2791
g2142
tp2824
(lp2825
I00
as(g2138
g2151
g2139
tp2826
g80
s(g2147
g2148
g2142
tp2827
g172
s(g2145
g2139
g2142
tp2828
g84
s(g2138
g2147
g2142
tp2829
g444
s(g2145
g2147
g2142
tp2830
g88
s(g2147
g2145
g2139
tp2831
g90
s(g2142
g2141
g2142
tp2832
g92
s(g2141
g2144
g2142
tp2833
g446
s(g2138
g2138
g2142
tp2834
g96
s(g2144
g2151
g2139
tp2835
g98
s(g2142
g2139
g2139
tp2836
g100
s(g2154
g2138
g2139
tp2837
g102
s(g2791
g2145
g2139
tp2838
(lp2839
I01
as(g2791
g2148
g2139
tp2840
(lp2841
I00
as(g2141
g2147
g2142
tp2842
g110
s(g2148
g2791
g2139
tp2843
(lp2844
I00
as(g2791
g2141
g2142
tp2845
(lp2846
I00
as(g2791
g2138
g2142
tp2847
(lp2848
I00
as(g2144
g2791
g2142
tp2849
(lp2850
I00
as(g2142
g2147
g2142
tp2851
g120
s(g2144
g2139
g2139
tp2852
g122
s(g2142
g2144
g2139
tp2853
g126
s(g2138
g2151
g2142
tp2854
g128
s(g2148
g2138
g2142
tp2855
g130
s(g2151
g2145
g2142
tp2856
g148
s(g2145
g2147
g2139
tp2857
g134
s(g2144
g2138
g2139
tp2858
g136
s(g2144
g2148
g2142
tp2859
g186
s(g2148
g2141
g2139
tp2860
g82
s(g2151
g2141
g2139
tp2861
g140
s(g2141
g2141
g2139
tp2862
g142
s(g2141
g2154
g2139
tp2863
g144
s(g2154
g2138
g2142
tp2864
g146
s(g2148
g2154
g2139
tp2865
g150
s(g2145
g2791
g2139
tp2866
(lp2867
I00
as(g2138
g2145
g2142
tp2868
g154
s(g2145
g2139
g2139
tp2869
g156
s(g2791
g2138
g2139
tp2870
(lp2871
I01
as(g2138
g2148
g2139
tp2872
g160
s(g2147
g2145
g2142
tp2873
g162
s(g2144
g2139
g2142
tp2874
g166
s(g2144
g2151
g2142
tp2875
g168
s(g2148
g2138
g2139
tp2876
g170
s(g2142
g2145
g2139
tp2877
g370
s(g2138
g2144
g2142
tp2878
g174
s(g2791
g2148
g2142
tp2879
(lp2880
I00
as(g2145
g2142
g2139
tp2881
g176
s(g2148
g2791
g2142
tp2882
(lp2883
I00
as(g2148
g2145
g2142
tp2884
g180
s(g2151
g2141
g2142
tp2885
g182
s(g2141
g2791
g2139
tp2886
(lp2887
I01
as(g2145
g2142
g2142
tp2888
g138
s(g2142
g2147
g2139
tp2889
g188
s(g2138
g2145
g2139
tp2890
g192
s(g2151
g2145
g2139
tp2891
g194
s(g2142
g2148
g2139
tp2892
g196
s(g2139
g2791
g2142
tp2893
(lp2894
I00
as(g2148
g2144
g2139
tp2895
g62
s(g2141
g2154
g2142
tp2896
g204
s(g2148
g2148
g2139
tp2897
g132
s(g2791
g2791
g2139
tp2898
(lp2899
I00
as(g2147
g2142
g2142
tp2900
g210
s(g2141
g2145
g2139
tp2901
g214
s(g2138
g2144
g2139
tp2902
g216
s(g2154
g2791
g2142
tp2903
(lp2904
I00
as(g2147
g2138
g2142
tp2905
g220
s(g2148
g2145
g2139
tp2906
g222
s(g2151
g2142
g2142
tp2907
g224
s(g2791
g2139
g2139
tp2908
(lp2909
I00
as(g2139
g2147
g2139
tp2910
g104
s(g2142
g2145
g2142
tp2911
g232
s(g2142
g2148
g2142
tp2912
g234
s(g2141
g2148
g2139
tp2913
g236
s(g2144
g2142
g2139
tp2914
g68
s(g2141
g2145
g2142
tp2915
g240
s(g2151
g2154
g2139
tp2916
g228
s(g2138
g2791
g2139
tp2917
(lp2918
I00
as(g2147
g2139
g2142
tp2919
g246
s(g2151
g2142
g2139
tp2920
g248
s(g2142
g2154
g2142
tp2921
g250
s(g2138
g2154
g2139
tp2922
g252
s(g2791
g2154
g2139
tp2923
(lp2924
I00
as(g2154
g2154
g2139
tp2925
g256
s(g2154
g2147
g2142
tp2926
g258
s(g2147
g2142
g2139
tp2927
g260
s(g2791
g2151
g2139
tp2928
(lp2929
I01
as(g2148
g2151
g2139
tp2930
g262
s(g2154
g2791
g2139
tp2931
(lp2932
I00
as(g2791
g2142
g2142
tp2933
(lp2934
I00
as(g2147
g2144
g2142
tp2935
g268
s(g2791
g2139
g2142
tp2936
(lp2937
I00
as(g2141
g2791
g2142
tp2938
(lp2939
I00
as(g2151
g2154
g2142
tp2940
g274
s(g2148
g2139
g2142
tp2941
g276
s(g2147
g2139
g2139
tp2942
g278
s(g2142
g2154
g2139
tp2943
g280
s(g2145
g2145
g2139
tp2944
g282
s(g2141
g2148
g2142
tp2945
g290
s(g2151
g2148
g2139
tp2946
g286
s(g2141
g2138
g2139
tp2947
g288
s(g2139
g2144
g2139
tp2948
g58
s(g2154
g2141
g2142
tp2949
g292
s(g2139
g2791
g2139
tp2950
(lp2951
I00
as(g2144
g2147
g2142
tp2952
g296
s(g2147
g2141
g2139
tp2953
g298
s(g2145
g2144
g2139
tp2954
g300
s(g2148
g2151
g2142
tp2955
g302
s(g2148
g2147
g2142
tp2956
g304
s(g2142
g2151
g2139
tp2957
g284
s(g2139
g2148
g2142
tp2958
g230
s(g2154
g2142
g2139
tp2959
g310
s(g2147
g2144
g2139
tp2960
g312
s(g2151
g2147
g2142
tp2961
g314
s(g2138
g2791
g2142
tp2962
(lp2963
I00
as(g2147
g2148
g2139
tp2964
g474
s(g2151
g2151
g2142
tp2965
g320
s(g2154
g2154
g2142
tp2966
g322
s(g2145
g2145
g2142
tp2967
g324
s(g2141
g2151
g2142
tp2968
g326
s(g2141
g2144
g2139
tp2969
g400
s(g2144
g2141
g2139
tp2970
g330
s(g2139
g2144
g2142
tp2971
g332
s(g2139
g2145
g2142
tp2972
g334
s(g2791
g2142
g2139
tp2973
(lp2974
I00
as(g2141
g2138
g2142
tp2975
g338
s(g2145
g2141
g2142
tp2976
g340
s(g2791
g2154
g2142
tp2977
(lp2978
I00
as(g2144
g2147
g2139
tp2979
g344
s(g2138
g2141
g2139
tp2980
g316
s(g2147
g2154
g2142
tp2981
g39
s(g2145
g2144
g2142
tp2982
g348
s(g2142
g2791
g2142
tp2983
(lp2984
I00
as(g2154
g2145
g2142
tp2985
g352
s(g2138
g2142
g2142
tp2986
g488
s(g2151
g2147
g2139
tp2987
g356
s(g2141
g2139
g2142
tp2988
g358
s(g2147
g2151
g2139
tp2989
g108
s(g2145
g2148
g2139
tp2990
g238
s(g2154
g2144
g2139
tp2991
g364
s(g2142
g2144
g2142
tp2992
g366
s(g2151
g2148
g2142
tp2993
g368
s(g2144
g2144
g2142
tp2994
g372
s(g2154
g2141
g2139
tp2995
g374
s(g2141
g2151
g2139
tp2996
g376
s(g2144
g2154
g2142
tp2997
g412
s(g2147
g2141
g2142
tp2998
g380
s(g2154
g2139
g2142
tp2999
g212
s(g2144
g2141
g2142
tp3000
g384
s(g2148
g2147
g2139
tp3001
g386
s(g2147
g2791
g2139
tp3002
(lp3003
I00
as(g2154
g2142
g2142
tp3004
g390
s(g2138
g2141
g2142
tp3005
g392
s(g2145
g2138
g2139
tp3006
g394
s(g2144
g2142
g2142
tp3007
g396
s(g2151
g2791
g2139
tp3008
(lp3009
I00
as(g2147
g2151
g2142
tp3010
g202
s(g2147
g2147
g2142
tp3011
g342
s(g2147
g2138
g2139
tp3012
g242
s(g2151
g2139
g2139
tp3013
g406
s(g2148
g2148
g2142
tp3014
g362
s(g2154
g2151
g2139
tp3015
g410
s(g2142
g2138
g2142
tp3016
g378
s(g2139
g2145
g2139
tp3017
g414
s(g2139
g2148
g2139
tp3018
g416
s(g2145
g2154
g2139
tp3019
g420
s(g2145
g2141
g2139
tp3020
g418
s(g2138
g2148
g2142
tp3021
g198
s(g2144
g2148
g2139
tp3022
g422
s(g2791
g2147
g2139
tp3023
(lp3024
I00
as(g2791
g2791
g2142
tp3025
(lp3026
I00
as(g2145
g2151
g2142
tp3027
g428
s(g2151
g2139
g2142
tp3028
g430
s(g2138
g2139
g2139
tp3029
g432
s(g2141
g2139
g2139
tp3030
g434
s(g2145
g2138
g2142
tp3031
g436
s(g2154
g2144
g2142
tp3032
g408
s(g2139
g2147
g2142
tp3033
g184
s(g2139
g2142
g2139
tp3034
g440
s(g2144
g2144
g2139
tp3035
g442
s(g2139
g2138
g2142
tp3036
g86
s(g2151
g2791
g2142
tp3037
(lp3038
I00
as(g2142
g2791
g2139
tp3039
(lp3040
I00
as(g2154
g2139
g2139
tp3041
g124
s(g2142
g2138
g2139
tp3042
g398
s(g2141
g2142
g2139
tp3043
g454
s(g2154
g2145
g2139
tp3044
g306
s(g2139
g2141
g2139
tp3045
g458
s(g2144
g2145
g2142
tp3046
g460
s(g2145
g2148
g2142
tp3047
g206
s(g2151
g2144
g2142
tp3048
g462
s(g2147
g2154
g2139
tp3049
g450
s(g2139
g2141
g2142
tp3050
g208
s(g2145
g2151
g2139
tp3051
g466
s(g2148
g2144
g2142
tp3052
g468
s(g2147
g2147
g2139
tp3053
g254
s(g2139
g2151
g2139
tp3054
g472
s(g2154
g2151
g2142
tp3055
g476
s(g2151
g2151
g2139
tp3056
g478
s(g2145
g2154
g2142
tp3057
g480
s(g2148
g2141
g2142
tp3058
g318
s(g2148
g2142
g2142
tp3059
g484
s(g2138
g2147
g2139
tp3060
g502
s(g2154
g2147
g2139
tp3061
g354
s(g2139
g2154
g2142
tp3062
g490
s(g2138
g2139
g2142
tp3063
g492
s(g2142
g2142
g2142
tp3064
g494
s(g2791
g2144
g2142
tp3065
(lp3066
I00
as(g2154
g2148
g2142
tp3067
g498
s(g2139
g2142
g2142
tp3068
g500
s(g2139
g2138
g2139
tp3069
g486
s(g2142
g2141
g2139
tp3070
g504
s(g2147
g2791
g2142
tp3071
(lp3072
I00
assg505
(dp3073
Vrectangular_packing_box4
p3074
g508
sVrectangular_packing_box2
p3075
g586
sVrectangular_packing_box3
p3076
g636
sVrectangular_packing_box1
p3077
g692
sVsquare_packing_box2
p3078
(itrajectory_representation.operator
Operator
p3079
(dp3080
g510
I01
sg511
(dp3081
g513
Vsquare_packing_box2
p3082
ssg515
g516
sg517
(dp3083
g519
(lp3084
g521
(g522
(I0
tp3085
g524
tp3086
Rp3087
(I1
(I3
tp3088
g531
I00
S'\xd7\xf2\xfc\xf7\x04\xce\x07@\xc7Ffi\xc6\xf0\x16\xc0\xc5\xbd\xe5i\xab\xcd\xdf\xbf'
p3089
tp3090
bag521
(g522
(I0
tp3091
g524
tp3092
Rp3093
(I1
(I3
tp3094
g531
I00
S' \xd3\x8e\xcahk\x08@\xb6\xdbN\x1b\x86\x83\x16\xc06\xe8\xe4\xa8\x83\xc5\xcb\xbf'
p3095
tp3096
bag521
(g522
(I0
tp3097
g524
tp3098
Rp3099
(I1
(I3
tp3100
g531
I00
S'\xd1Ln\x97\x8eR\x0c@\xd9\xe0c\xed\xbf\xe1\x19\xc07v\xab\x11\x1f\xda\xf6?'
p3101
tp3102
basg548
I00
ssg549
(lp3103
g521
(g522
(I0
tp3104
g524
tp3105
Rp3106
(I1
(I3
tp3107
g531
I00
S'dR\xdd8\xd6\x8d\x00@\xc1C|\xd2X\x00\x16\xc0\xc0\xab\x9e\x0b\x900\xd2?'
p3108
tp3109
bag521
(g522
(I0
tp3110
g524
tp3111
Rp3112
(I1
(I3
tp3113
g528
(S'f8'
p3114
I0
I1
tp3115
Rp3116
(I3
S'<'
p3117
NNNI-1
I-1
I0
tp3118
bI00
S'\x16\x9e\xd06H\xd3\x04@\xe5\xe1\xfb\xc5\xb8\xd1\x16\xc0es\x86\x03\xdb\x8e\x17@'
p3119
tp3120
bag521
(g522
(I0
tp3121
g524
tp3122
Rp3123
(I1
(I3
tp3124
g3116
I00
S'\xe6rt0\xc6`\x05@\xe8\xf6\xaa\xc7\x03\x10\x17\xc0v\x9e\xc9\x80o\x15\xed\xbf'
p3125
tp3126
bag3087
asbsVsquare_packing_box3
p3127
g778
sVsquare_packing_box1
p3128
g822
sVsquare_packing_box4
p3129
g854
ssg903
I01
sg904
(lp3130
S'square_packing_box1'
p3131
aS'rectangular_packing_box1'
p3132
aS'square_packing_box2'
p3133
aS'rectangular_packing_box2'
p3134
aS'square_packing_box3'
p3135
aS'rectangular_packing_box3'
p3136
aS'square_packing_box4'
p3137
aS'rectangular_packing_box4'
p3138
asg7
Nsg914
(dp3139
Vrectangular_packing_box4
p3140
g920
sVrectangular_packing_box2
p3141
g924
sVrectangular_packing_box3
p3142
g928
sVrectangular_packing_box1
p3143
g932
sVsquare_packing_box2
p3144
g917
((lp3145
I0
aI1
aI393
aI144
aI403
aI541
aI545
aI546
aI555
aI571
aI454
aI342
aI473
aI474
aI367
aI368
aI369
aI370
aI371
aI247
aI248
aI377
aI378
atp3146
Rp3147
sVsquare_packing_box3
p3148
g940
sVsquare_packing_box1
p3149
g944
sVsquare_packing_box4
p3150
g948
ssg949
(lp3151
(g3074
g2142
tp3152
a(g3075
g2142
tp3153
a(g3076
g2142
tp3154
a(g3077
g2142
tp3155
a(g3078
g2142
tp3156
a(g3127
g2142
tp3157
a(g3128
g2142
tp3158
a(g3129
g2142
tp3159
a(g3074
g2139
tp3160
a(g3129
g2139
tp3161
asg961
(dp3162
Vrectangular_packing_box4
p3163
g521
(g522
(I0
tp3164
g524
tp3165
Rp3166
(I1
(I1
I3
tp3167
g531
I00
S'\x98\x1e]pS`\xd2?\x16\x1b\xb6\xe9Ei\x18\xc0\x82\x97\xe8\xa1t:\xe4?'
p3168
tp3169
bsVrectangular_packing_box2
p3170
g521
(g522
(I0
tp3171
g524
tp3172
Rp3173
(I1
(I1
I3
tp3174
g531
I00
S'x#\x8a\xa8\xbfB\x02@]@\xdd\xaa0\xf7\x1a\xc0\xa2\x93\xe4\xf2\xe3\x8f\xe0?'
p3175
tp3176
bsVrectangular_packing_box3
p3177
g521
(g522
(I0
tp3178
g524
tp3179
Rp3180
(I1
(I1
I3
tp3181
g531
I00
S'\xbc\xa2$/\t\xb1\xb0?p\xd9\xd7\x88y7\x1e\xc0\xa1\xa8\xa4gcb\x12@'
p3182
tp3183
bsVrectangular_packing_box1
p3184
g521
(g522
(I0
tp3185
g524
tp3186
Rp3187
(I1
(I1
I3
tp3188
g531
I00
S'\xf81, \xdaJ\xf5?\x90\x94\xc7_\x9e4\x18\xc0\x88,&\x8ck,\x0b@'
p3189
tp3190
bsVsquare_packing_box2
p3191
g521
(g522
(I0
tp3192
g524
tp3193
Rp3194
(I1
(I1
I3
tp3195
g531
I00
S'\xb3\x99\x7f<\xad\xb4\r@\xd8\xe5\x95\xe8\xfc\xf0\x16\xc0Y\x96n\x9e\xe7\t\x19@'
p3196
tp3197
bsVsquare_packing_box3
p3198
g521
(g522
(I0
tp3199
g524
tp3200
Rp3201
(I1
(I1
I3
tp3202
g531
I00
S'2\xc7\x84Ad\xa3\n@\xae\xaf\xb2\x18;\x05\x1e\xc0j8\xf9\x85\xb6\xac\x0f@'
p3203
tp3204
bsVsquare_packing_box1
p3205
g521
(g522
(I0
tp3206
g524
tp3207
Rp3208
(I1
(I1
I3
tp3209
g531
I00
S'\x15\xcf\x19\xc3\xf23\x0c@\x8b\xb5r\xad\x0f?\x15\xc0\xbf~a\xe9h\n\x13@'
p3210
tp3211
bsVsquare_packing_box4
p3212
g521
(g522
(I0
tp3213
g524
tp3214
Rp3215
(I1
(I1
I3
tp3216
g531
I00
S'V\xce\xcef\xfe\xbb\xf0?J@\xfc\xa1\x9e\xc0\x16\xc0\xaeKe\x14U\xf8\x13@'
p3217
tp3218
bssg1019
(itrajectory_representation.predicates.place_in_way
PlaceInWay
p3219
(dp3220
g1416
(dp3221
(g2145
g2138
g2139
tp3222
I00
s(g2791
g2138
g2139
tp3223
I01
s(g2138
g2148
g2139
tp3224
I00
s(g2148
g2141
g2139
tp3225
I00
s(g2141
g2147
g2139
tp3226
I00
s(g2148
g2138
g2139
tp3227
I01
s(g2791
g2141
g2139
tp3228
I00
s(g2145
g2141
g2139
tp3229
I00
s(g2145
g2154
g2139
tp3230
I01
s(g2147
g2154
g2139
tp3231
I01
s(g2141
g2138
g2139
tp3232
I00
s(g2148
g2151
g2139
tp3233
I01
s(g2138
g2145
g2139
tp3234
I01
s(g2147
g2141
g2139
tp3235
I00
s(g2138
g2141
g2139
tp3236
I00
s(g2791
g2147
g2139
tp3237
I00
s(g2138
g2151
g2139
tp3238
I01
s(g2138
g2147
g2139
tp3239
I00
s(g2141
g2145
g2139
tp3240
I01
s(g2791
g2151
g2139
tp3241
I01
s(g2147
g2145
g2139
tp3242
I01
s(g2148
g2145
g2139
tp3243
I01
s(g2145
g2151
g2139
tp3244
I01
s(g2791
g2145
g2139
tp3245
I01
s(g2791
g2148
g2139
tp3246
I00
s(g2791
g2154
g2139
tp3247
I00
s(g2148
g2791
g2139
tp3248
I00
s(g2141
g2791
g2139
tp3249
I01
s(g2138
g2154
g2139
tp3250
I00
s(g2147
g2148
g2139
tp3251
I00
s(g2141
g2148
g2139
tp3252
I00
s(g2147
g2151
g2139
tp3253
I01
s(g2145
g2148
g2139
tp3254
I00
s(g2145
g2147
g2139
tp3255
I00
s(g2147
g2138
g2139
tp3256
I00
s(g2138
g2791
g2139
tp3257
I00
s(g2141
g2151
g2139
tp3258
I01
s(g2141
g2154
g2139
tp3259
I00
s(g2148
g2147
g2139
tp3260
I00
s(g2147
g2791
g2139
tp3261
I00
s(g2148
g2154
g2139
tp3262
I00
s(g2145
g2791
g2139
tp3263
I00
ssg1022
(dp3264
(g2147
g2139
tp3265
(lp3266
g521
(g522
(I0
tp3267
g524
tp3268
Rp3269
(I1
(I3
tp3270
g531
I00
S'`\x02\xabE\x8f\xc1\xe5?\xf5\xa6\xc5gY\x12\x1f\xc0\\)%M\x96\x93\x08@'
p3271
tp3272
bag521
(g522
(I0
tp3273
g524
tp3274
Rp3275
(I1
(I3
tp3276
g3116
I00
S'\xd23W\xd6\xdd\xe3\xe6?\xdc\xcai,~\xa9\x1c\xc0\xe4\x03\x93/\x16_\x04\xc0'
p3277
tp3278
bag521
(g522
(I0
tp3279
g524
tp3280
Rp3281
(I1
(I3
tp3282
g3116
I00
S'\xf8\xfc\x1a\xd0\xc9l\xe8?\x8a\x897\x8e~\x98\x1a\xc0\xaf\xf7\xb87\xc6\xa7\x01\xc0'
p3283
tp3284
bag521
(g522
(I0
tp3285
g524
tp3286
Rp3287
(I1
(I3
tp3288
g3116
I00
S"\xc6'8AN\xb0\xec?\xe0\x975>\x0f\x03\x19\xc0(\xe0e;\x85\x89\x05\xc0"
p3289
tp3290
bag521
(g522
(I0
tp3291
g524
tp3292
Rp3293
(I1
(I3
tp3294
g3116
I00
S'\xd0\xcb\x13\x8f\xaa\x9d\xed?\x90\x01<]3\x06\x16\xc0F\xf1\xe7x32\x02\xc0'
p3295
tp3296
bag521
(g522
(I0
tp3297
g524
tp3298
Rp3299
(I1
(I3
tp3300
g3116
I00
S'l[\xc4\x16<\xe6\xe9?\xa6\xa0\x90\x84X\x9f\x13\xc0\xc2\xd74Q\x00\xaf\xff\xbf'
p3301
tp3302
bag521
(g522
(I0
tp3303
g524
tp3304
Rp3305
(I1
(I3
tp3306
g3116
I00
S"\xaeJ\xbd\x1936\xec?\x04\x13\xd4'\x9f\x88\x10\xc0\x805qo\xb6\xe6\xff\xbf"
p3307
tp3308
bag521
(g522
(I0
tp3309
g524
tp3310
Rp3311
(I1
(I3
tp3312
g3116
I00
S'\xf09\xb6\x1c*\x86\xee?\xc4\n/\x96\xcb\xe3\n\xc0\xa0\xc9\xd6F6\x0f\x00\xc0'
p3313
tp3314
bag521
(g522
(I0
tp3315
g524
tp3316
Rp3317
(I1
(I3
tp3318
g3116
I00
S'3\xe9\xaf\x05T\x89\xe7?+~\xcb\xd3\x15\xc7\x04\xc0x6(d5\xed\x07@'
p3319
tp3320
bas(g2141
g2139
tp3321
(lp3322
g521
(g522
(I0
tp3323
g524
tp3324
Rp3325
(I1
(I3
tp3326
g531
I00
S'\xbb\x9ct\x99Y\x93\x0e@\xa2\x82\x19\x7fa\xb4\x17\xc0\x0f\x07\x97\xeb\xfc\n\x00@'
p3327
tp3328
bag521
(g522
(I0
tp3329
g524
tp3330
Rp3331
(I1
(I3
tp3332
g3116
I00
S'\xcb\x1a\x84\x1d\\\x9c\x08@\xec\xcbi\xc9#;\x18\xc0\xbf\xf24g\x02T\x05@'
p3333
tp3334
bag521
(g522
(I0
tp3335
g524
tp3336
Rp3337
(I1
(I3
tp3338
g3116
I00
S'\xf8d\x877\x12\xfd\x04@h\xdbW\x9a\x83\x8e\x16\xc0\x87\xf16\xb9\x03k\x05@'
p3339
tp3340
bag521
(g522
(I0
tp3341
g524
tp3342
Rp3343
(I1
(I3
tp3344
g3116
I00
S'\xc7\xc7\x06s\xd6\xa3\xff?3\x91\xe4\x97\xb5\x07\x16\xc0\x1bW\xbc\xbfY:\x06@'
p3345
tp3346
bag521
(g522
(I0
tp3347
g524
tp3348
Rp3349
(I1
(I3
tp3350
g3116
I00
S'\x85\\2\xba\x0b5\xf5?I\r\x06\xd10\xfb\x15\xc0\x9e\x11\xee\xd8\xb9\xd7\xf5?'
p3351
tp3352
bag521
(g522
(I0
tp3353
g524
tp3354
Rp3355
(I1
(I3
tp3356
g3116
I00
S'v\xb8^\x85\xa7[\xea?x\xbe\xff2t\x8d\x13\xc0\x88\x85\x8cCyH\xf6?'
p3357
tp3358
bag521
(g522
(I0
tp3359
g524
tp3360
Rp3361
(I1
(I3
tp3362
g3116
I00
S'\xc2\xda(e\x83\x1a\xeb?\x8au\x8d3\xa6E\x11\xc0\xb4c\x1b\xed_\xfd\xfa?'
p3363
tp3364
bag521
(g522
(I0
tp3365
g524
tp3366
Rp3367
(I1
(I3
tp3368
g3116
I00
S'\xe4u**\x0e5\xe9?\xaa\xfd\r\xed\xc4\xf6\r\xc0\x0fDE0\x1f\x0b\xfe?'
p3369
tp3370
bag521
(g522
(I0
tp3371
g524
tp3372
Rp3373
(I1
(I3
tp3374
g3116
I00
S'\x06\x11,\xef\x98O\xe7??\x10\x01s=b\t\xc04\x92\xb79o\x8c\x00@'
p3375
tp3376
bag521
(g522
(I0
tp3377
g524
tp3378
Rp3379
(I1
(I3
tp3380
g3116
I00
S'\x92\xaf\xf3P\x96O\xc2?(\xa1:\x8er}\x05\xc0\xd4_\x91\xb3\xffL\x02@'
p3381
tp3382
bas(g2791
g2139
tp3383
(lp3384
g521
(g522
(I0
tp3385
g524
tp3386
Rp3387
(I1
(I3
tp3388
g531
I00
S'\xd6\xf2\xfc\xf7\x04\xce\x07@\xc7Ffi\xc6\xf0\x16\xc0<\xd1\xa5\x9d %\x17@'
p3389
tp3390
bag521
(g522
(I0
tp3391
g524
tp3392
Rp3393
(I1
(I3
tp3394
g3116
I00
S'\x02:\xde\x84?\xc0\x03@\x16\xfaJE\x8a\x0f\x19\xc0\x13\xc0\x8b\x01\x1d?\xf4\xbf'
p3395
tp3396
bag521
(g522
(I0
tp3397
g524
tp3398
Rp3399
(I1
(I3
tp3400
g3116
I00
S'!\x83\xc0\xf3W\x85\xff?\xed\x8f\x90/y\xfd\x16\xc06jP\xfe\x98\xf5\xf4\xbf'
p3401
tp3402
bag521
(g522
(I0
tp3403
g524
tp3404
Rp3405
(I1
(I3
tp3406
g3116
I00
S'2Z\xe1\xe97J\xf6?\\\x1e`@2v\x16\xc0\xc4\x0c\xcc\x14<\xf9\xf6\xbf'
p3407
tp3408
bag521
(g522
(I0
tp3409
g524
tp3410
Rp3411
(I1
(I3
tp3412
g3116
I00
S'tx\x8as\xa8b\xed?\x9ej\x15\xfa\xf0{\x15\xc0@\xed\x9a-\x9eD\xf2\xbf'
p3413
tp3414
bag521
(g522
(I0
tp3415
g524
tp3416
Rp3417
(I1
(I3
tp3418
g3116
I00
S"\xb2&6mg)\xe8?\x99\xe0G'\x16\xe0\x13\xc0\xc8oL\xf5\x17p\xe6\xbf"
p3419
tp3420
bag521
(g522
(I0
tp3421
g524
tp3422
Rp3423
(I1
(I3
tp3424
g3116
I00
S'`\xc8Aw-\x81\xeb?/\xc3\xe6O\x04\xca\x10\xc0\x8a\xb7K)\x91{\xe4\xbf'
p3425
tp3426
bag521
(g522
(I0
tp3427
g524
tp3428
Rp3429
(I1
(I3
tp3430
g3116
I00
S'\xe1\xc6\xc7\xa7\x12X\xe7?\x98\x99\xb0\x9a\xfb\xdb\x0b\xc0R\t\x1b)\xeae\xe0\xbf'
p3431
tp3432
bag521
(g522
(I0
tp3433
g524
tp3434
Rp3435
(I1
(I3
tp3436
g3116
I00
S'p\xf1\xbdc^\x84\xf1?"\x88LL\xf9D\x06\xc0~w\r\xe9m\x0f\x19@'
p3437
tp3438
bas(g2145
g2139
tp3439
(lp3440
g521
(g522
(I0
tp3441
g524
tp3442
Rp3443
(I1
(I3
tp3444
g531
I00
S'\x00\xca\xc0\xcf\xd9[\xf0?\x95/#\xddH6\x15\xc0F\xa4\xd4\xc0\xcb\x98\x14@'
p3445
tp3446
bag521
(g522
(I0
tp3447
g524
tp3448
Rp3449
(I1
(I3
tp3450
g3116
I00
S'l[\xc4\x16<\xe6\xe9?\xa6\xa0\x90\x84X\x9f\x13\xc0\xc2\xd74Q\x00\xaf\xff\xbf'
p3451
tp3452
bag521
(g522
(I0
tp3453
g524
tp3454
Rp3455
(I1
(I3
tp3456
g3116
I00
S"\xaeJ\xbd\x1936\xec?\x04\x13\xd4'\x9f\x88\x10\xc0\x805qo\xb6\xe6\xff\xbf"
p3457
tp3458
bag521
(g522
(I0
tp3459
g524
tp3460
Rp3461
(I1
(I3
tp3462
g3116
I00
S'\xf09\xb6\x1c*\x86\xee?\xc4\n/\x96\xcb\xe3\n\xc0\xa0\xc9\xd6F6\x0f\x00\xc0'
p3463
tp3464
bag521
(g522
(I0
tp3465
g524
tp3466
Rp3467
(I1
(I3
tp3468
g3116
I00
S'3\xe9\xaf\x05T\x89\xe7?+~\xcb\xd3\x15\xc7\x04\xc0x6(d5\xed\x07@'
p3469
tp3470
bas(g2148
g2139
tp3471
(lp3472
g521
(g522
(I0
tp3473
g524
tp3474
Rp3475
(I1
(I3
tp3476
g531
I00
S'@\xdb\xa1r\xd0\xee\x05@\x0b\x9f\xfa\xca\xa2\xc6\x1f\xc0v\x15\x1co\n\xac\xda?'
p3477
tp3478
bag521
(g522
(I0
tp3479
g524
tp3480
Rp3481
(I1
(I3
tp3482
g3116
I00
S'\xb9O\xa7Y\x02\x91\x00@\x96d\x95\x0e\xe6\xda\x1e\xc0l\xef\x8e\x11Rk\xeb?'
p3483
tp3484
bag521
(g522
(I0
tp3485
g524
tp3486
Rp3487
(I1
(I3
tp3488
g3116
I00
S'b\x95[\xf7r*\x00@:\x8f7a\xbf]\x1c\xc0\x98.\xce\xc6\x89M\xf2?'
p3489
tp3490
bag521
(g522
(I0
tp3491
g524
tp3492
Rp3493
(I1
(I3
tp3494
g3116
I00
S'\xb9\x81\xdfb\xdf\x92\xfe?\x1a\xe3?2\xb6\xec\x1a\xc0B\x1b\x81\xfa\x93C\xfa?'
p3495
tp3496
bag521
(g522
(I0
tp3497
g524
tp3498
Rp3499
(I1
(I3
tp3500
g3116
I00
S'{\xe7\xcc\xce\x02,\xf5?\xeb\x85\xf2\xb4\xc9\x08\x19\xc0\xcd\x97\xf6\xcc\xe4z\x00@'
p3501
tp3502
bag521
(g522
(I0
tp3503
g524
tp3504
Rp3505
(I1
(I3
tp3506
g3116
I00
S'o\xd6\x82\xea\x7f\xb2\xed?9\xf2C\x0b?\xfd\x16\xc0(?d\xe9@\xb5\x02@'
p3507
tp3508
bag521
(g522
(I0
tp3509
g524
tp3510
Rp3511
(I1
(I3
tp3512
g3116
I00
S'&>c9\x01,\xeb?\xb2\xc2\xf0\x02\xce\x8e\x14\xc0\xd8p\xbb2\x14\xd2\x03@'
p3513
tp3514
bag521
(g522
(I0
tp3515
g524
tp3516
Rp3517
(I1
(I3
tp3518
g3116
I00
S'\xc6\x05\xbdtg\xd9\xe2?F\xdf\x9d@\\\xf3\x11\xc0\x1a\xc4.\xbb\xcc\x12\x02@'
p3519
tp3520
bag521
(g522
(I0
tp3521
g524
tp3522
Rp3523
(I1
(I3
tp3524
g3116
I00
S'3z\xed\x8eN)\xe4?\x0c\x96\xd4\xa2\x0e\xd0\r\xc0\xbd%\xf5{\xe9\xf9\x03@'
p3525
tp3526
bag521
(g522
(I0
tp3527
g524
tp3528
Rp3529
(I1
(I3
tp3530
g3116
I00
S'\xaf0\xe9h\xba~\xee?k\xbb\xd8\xd4\xd0g\t\xc09\x9ey\xed\xb06\x06@'
p3531
tp3532
bag521
(g522
(I0
tp3533
g524
tp3534
Rp3535
(I1
(I3
tp3536
g3116
I00
S'\xf4\xfdJ\x1a(#\xec?H"\x9cD\x1aE\x05\xc0.\xa9\x0b\x87\xf8\xe1\x02@'
p3537
tp3538
bas(g2138
g2139
tp3539
(lp3540
g521
(g522
(I0
tp3541
g524
tp3542
Rp3543
(I1
(I3
tp3544
g531
I00
S'^\xcb,\x86\xdc\x8b\x00@k\x82\xd4\xc5\xd4\x10\x18\xc0\x12\x95\xbf\x1a,G\x15@'
p3545
tp3546
bag521
(g522
(I0
tp3547
g524
tp3548
Rp3549
(I1
(I3
tp3550
g3116
I00
S'\x12\xfe\xe1\x95\xb8\x19\xf8?\x8c#.~\xd7\xc6\x16\xc0\xfe\xd3A\xf0\xcat\xc0\xbf'
p3551
tp3552
bag521
(g522
(I0
tp3553
g524
tp3554
Rp3555
(I1
(I3
tp3556
g3116
I00
S'\xe4\x9e\xb7\xac\xe0!\xeb?\x8a\x83\x10\xb1\xa2\xad\x15\xc0\x9aS\xfbY\xaf\x8f\xd2\xbf'
p3557
tp3558
bag521
(g522
(I0
tp3559
g524
tp3560
Rp3561
(I1
(I3
tp3562
g3116
I00
S"\xb2&6mg)\xe8?\x99\xe0G'\x16\xe0\x13\xc0\xc8oL\xf5\x17p\xe6\xbf"
p3563
tp3564
bag521
(g522
(I0
tp3565
g524
tp3566
Rp3567
(I1
(I3
tp3568
g3116
I00
S'`\xc8Aw-\x81\xeb?/\xc3\xe6O\x04\xca\x10\xc0\x8a\xb7K)\x91{\xe4\xbf'
p3569
tp3570
bag521
(g522
(I0
tp3571
g524
tp3572
Rp3573
(I1
(I3
tp3574
g3116
I00
S'\xe1\xc6\xc7\xa7\x12X\xe7?\x98\x99\xb0\x9a\xfb\xdb\x0b\xc0R\t\x1b)\xeae\xe0\xbf'
p3575
tp3576
bag521
(g522
(I0
tp3577
g524
tp3578
Rp3579
(I1
(I3
tp3580
g3116
I00
S'p\xf1\xbdc^\x84\xf1?"\x88LL\xf9D\x06\xc0~w\r\xe9m\x0f\x19@'
p3581
tp3582
bassg1342
(dp3583
(g2147
g2139
tp3584
(lp3585
Vrectangular_packing_box1
p3586
aVsquare_packing_box4
p3587
aVrectangular_packing_box4
p3588
as(g2141
g2139
tp3589
(lp3590
Vsquare_packing_box2
p3591
aVrectangular_packing_box1
p3592
aVsquare_packing_box4
p3593
as(g2791
g2139
tp3594
(lp3595
Vrectangular_packing_box2
p3596
aVrectangular_packing_box1
p3597
aVsquare_packing_box4
p3598
as(g2145
g2139
tp3599
(lp3600
Vsquare_packing_box4
p3601
aVrectangular_packing_box4
p3602
as(g2148
g2139
tp3603
(lp3604
Vrectangular_packing_box2
p3605
aVrectangular_packing_box1
p3606
aVsquare_packing_box4
p3607
as(g2138
g2139
tp3608
(lp3609
Vrectangular_packing_box1
p3610
aVsquare_packing_box4
p3611
assg1371
(lp3612
g3075
ag3078
ag3128
asg1373
(dp3613
Vrectangular_packing_box4
p3614
g1378
sVrectangular_packing_box2
p3615
g1382
sVrectangular_packing_box3
p3616
g1386
sVrectangular_packing_box1
p3617
g1390
sVsquare_packing_box2
p3618
g917
((lp3619
I0
aI1
aI546
aI474
aI545
aI555
aI367
aI368
aI369
aI370
aI403
aI342
aI371
aI377
aI378
aI571
aI541
atp3620
Rp3621
sVsquare_packing_box3
p3622
g1398
sVsquare_packing_box1
p3623
g1402
sVsquare_packing_box4
p3624
g1406
ssg2
g2784
sg505
g3073
sg1407
(dp3625
sg1409
Nsg1410
(lp3626
sg1412
(dp3627
sg1415
g3073
sg1414
I0
sg7
Nsg1430
Nsg1431
I01
sbsg1432
(dp3628
g3074
(lp3629
g521
(g522
(I0
tp3630
g524
tp3631
Rp3632
(I1
(I3
tp3633
g531
I00
S'dR\xdd8\xd6\x8d\x00@\xc1C|\xd2X\x00\x16\xc0\xc0\xab\x9e\x0b\x900\xd2?'
p3634
tp3635
bag521
(g522
(I0
tp3636
g524
tp3637
Rp3638
(I1
(I3
tp3639
g3116
I00
S'/\xe1\x02^.|\x00@\xb8\xae\xc5\xcfF\x16\x17\xc0\xf8\x01)d\xc5\xf9\xe2?'
p3640
tp3641
bag521
(g522
(I0
tp3642
g524
tp3643
Rp3644
(I1
(I3
tp3645
g3116
I00
S'R\x12);\xaf\xa5\xf7?\xf3\xf9\xeb\x07c\xef\x15\xc0\xf0V^\xd6\x94\x96\x05\xc0'
p3646
tp3647
bag544
asg3075
(lp3648
g521
(g522
(I0
tp3649
g524
tp3650
Rp3651
(I1
(I3
tp3652
g531
I00
S'dR\xdd8\xd6\x8d\x00@\xc1C|\xd2X\x00\x16\xc0\xc0\xab\x9e\x0b\x900\xd2?'
p3653
tp3654
bag521
(g522
(I0
tp3655
g524
tp3656
Rp3657
(I1
(I3
tp3658
g3116
I00
S'\x16\x9e\xd06H\xd3\x04@\xe5\xe1\xfb\xc5\xb8\xd1\x16\xc0es\x86\x03\xdb\x8e\x17@'
p3659
tp3660
bag521
(g522
(I0
tp3661
g524
tp3662
Rp3663
(I1
(I3
tp3664
g3116
I00
S'\xe6rt0\xc6`\x05@\xe8\xf6\xaa\xc7\x03\x10\x17\xc0v\x9e\xc9\x80o\x15\xed\xbf'
p3665
tp3666
bag594
asg3076
(lp3667
g521
(g522
(I0
tp3668
g524
tp3669
Rp3670
(I1
(I3
tp3671
g531
I00
S'dR\xdd8\xd6\x8d\x00@\xc1C|\xd2X\x00\x16\xc0\xc0\xab\x9e\x0b\x900\xd2?'
p3672
tp3673
bag521
(g522
(I0
tp3674
g524
tp3675
Rp3676
(I1
(I3
tp3677
g3116
I00
S'\x0e]\xf2K\xc6E\xf7?\x06\x8c\xb9Ybt\x17\xc0%\xac6\x86\x93\xa8\xdd?'
p3678
tp3679
bag521
(g522
(I0
tp3680
g524
tp3681
Rp3682
(I1
(I3
tp3683
g3116
I00
S'Pa\x88\xb1[\x02\xf1?\x1e\x1c\xb3\x8d\x8c\xb7\x19\xc0t\xf6\xbb\xc4\x878\x11@'
p3684
tp3685
bag650
asg3077
(lp3686
g521
(g522
(I0
tp3687
g524
tp3688
Rp3689
(I1
(I3
tp3690
g531
I00
S'dR\xdd8\xd6\x8d\x00@\xc1C|\xd2X\x00\x16\xc0\xc0\xab\x9e\x0b\x900\xd2?'
p3691
tp3692
bag521
(g522
(I0
tp3693
g524
tp3694
Rp3695
(I1
(I3
tp3696
g3116
I00
S'\x00\xda\x1c<\xfd\xdc\x00@j"\x91\xe3 \x1a\x18\xc0i~!@)\xb0\xdc\xbf'
p3697
tp3698
bag521
(g522
(I0
tp3699
g524
tp3700
Rp3701
(I1
(I3
tp3702
g3116
I00
S'\xe0 ;\x819w\xfd?\xe7\xcc\xc2\xa0\xa5f\x17\xc04\xedq\x1c\x8eK\xfa?'
p3703
tp3704
bag706
asg3078
g3103
sg3127
(lp3705
g521
(g522
(I0
tp3706
g524
tp3707
Rp3708
(I1
(I3
tp3709
g531
I00
S'dR\xdd8\xd6\x8d\x00@\xc1C|\xd2X\x00\x16\xc0\xc0\xab\x9e\x0b\x900\xd2?'
p3710
tp3711
bag521
(g522
(I0
tp3712
g524
tp3713
Rp3714
(I1
(I3
tp3715
g3116
I00
S'A\xec\xb55+(\x03@v\x14\x1a\xc5J\xca\x18\xc0\xe9\rA\xa0%\xbe\xc7?'
p3716
tp3717
bag521
(g522
(I0
tp3718
g524
tp3719
Rp3720
(I1
(I3
tp3721
g3116
I00
S'P\x9d\xdf\x99\xa6e\x04@\x1c`\xb6c\x8e7\x19\xc0@\xf2\xef\xc5\xd3\xc8\x17@'
p3722
tp3723
bag792
asg3128
(lp3724
g521
(g522
(I0
tp3725
g524
tp3726
Rp3727
(I1
(I3
tp3728
g531
I00
S'dR\xdd8\xd6\x8d\x00@\xc1C|\xd2X\x00\x16\xc0\xc0\xab\x9e\x0b\x900\xd2?'
p3729
tp3730
bag842
asg3129
(lp3731
g521
(g522
(I0
tp3732
g524
tp3733
Rp3734
(I1
(I3
tp3735
g531
I00
S'dR\xdd8\xd6\x8d\x00@\xc1C|\xd2X\x00\x16\xc0\xc0\xab\x9e\x0b\x900\xd2?'
p3736
tp3737
bag521
(g522
(I0
tp3738
g524
tp3739
Rp3740
(I1
(I3
tp3741
g3116
I00
S'/\xe1\x02^.|\x00@\xb8\xae\xc5\xcfF\x16\x17\xc0\xf8\x01)d\xc5\xf9\xe2?'
p3742
tp3743
bag521
(g522
(I0
tp3744
g524
tp3745
Rp3746
(I1
(I3
tp3747
g3116
I00
S'j\xc7\xc0&\x8ag\xf6?h\x9cH4\x7f\xab\x18\xc0\xd8|\x1d\xfc\xcbV\xf2?'
p3748
tp3749
bag874
assg1373
(dp3750
(Vsquare_packing_box4
p3751
(g1436
(g557
S'\x90\xc0\x1f~\xfe\xbb\xf0?'
p3752
tp3753
Rp3754
g1436
(g557
S'8\xdb\xdc\x98\x9e\xc0\x16\xc0'
p3755
tp3756
Rp3757
g1436
(g557
S'\xda\x8c\xd3\x10U\xf8\x13@'
p3758
tp3759
Rp3760
tp3761
tp3762
g1406
s(Vrectangular_packing_box2
p3763
(g1436
(g557
S'\xce\xe30\x98\xbfB\x02@'
p3764
tp3765
Rp3766
g1436
(g557
S'\xf9hq\xc60\xf7\x1a\xc0'
p3767
tp3768
Rp3769
g1436
(g557
S'V\xbc\x91y\xe4\x8f\xe0?'
p3770
tp3771
Rp3772
tp3773
tp3774
g1382
s(Vrectangular_packing_box3
p3775
(g1436
(g557
S'{\x9f\xaaB\x03\xb1\xb0?'
p3776
tp3777
Rp3778
g1436
(g557
S'\x0f\x0b\xb5\xa6y7\x1e\xc0'
p3779
tp3780
Rp3781
g1436
(g557
S'\xe5\xef\xdeQcb\x12@'
p3782
tp3783
Rp3784
tp3785
tp3786
g1386
s(Vrectangular_packing_box4
p3787
(g1436
(g557
S'}\xec.PR`\xd2?'
p3788
tp3789
Rp3790
g1436
(g557
S'\x8fT\xdf\xf9Ei\x18\xc0'
p3791
tp3792
Rp3793
g1436
(g557
S'\xe8\xf9\xd3Fu:\xe4?'
p3794
tp3795
Rp3796
tp3797
tp3798
g1378
s(Vsquare_packing_box2
p3799
(g1436
(g557
S'6\x90.6\xad\xb4\r@'
p3800
tp3801
Rp3802
g1436
(g557
S'7\xc3\r\xf8\xfc\xf0\x16\xc0'
p3803
tp3804
Rp3805
g1436
(g557
S'\xe9\x9d\n\xb8\xe7\t\x19@'
p3806
tp3807
Rp3808
tp3809
tp3810
g3621
s(Vsquare_packing_box3
p3811
(g1436
(g557
S'\xc7\xbc\x8e8d\xa3\n@'
p3812
tp3813
Rp3814
g1436
(g557
S'\xb8\xca\x13\x08;\x05\x1e\xc0'
p3815
tp3816
Rp3817
g1436
(g557
S'\xde\xc9\xa7\xc7\xb6\xac\x0f@'
p3818
tp3819
Rp3820
tp3821
tp3822
g1398
s(Vsquare_packing_box1
p3823
(g1436
(g557
S'N\xb4\xab\x90\xf23\x0c@'
p3824
tp3825
Rp3826
g1436
(g557
S'Q\xf5+\x9d\x0f?\x15\xc0'
p3827
tp3828
Rp3829
g1436
(g557
S'\xe2\x1f\xb6\xf4h\n\x13@'
p3830
tp3831
Rp3832
tp3833
tp3834
g1402
s(Vrectangular_packing_box1
p3835
(g1436
(g557
S'\xa8\xdf\x85\xad\xd9J\xf5?'
p3836
tp3837
Rp3838
g1436
(g557
S'\x14\x05\xfaD\x9e4\x18\xc0'
p3839
tp3840
Rp3841
g1436
(g557
S'\xb13\x85\xcek,\x0b@'
p3842
tp3843
Rp3844
tp3845
tp3846
g1390
ssg1532
(igtamp_utils.utils
CustomStateSaver
p3847
(dp3848
g1535
g521
(g522
(I0
tp3849
g524
tp3850
Rp3851
(I1
(I1
I3
tp3852
g531
I00
S'fR\xdd8\xd6\x8d\x00@\xbfC|\xd2X\x00\x16\xc0\xc1\xab\x9e\x0b\x900\xd2?'
p3853
tp3854
bsg1542
Nsg1543
S'pr2'
p3855
sg1545
I1
sg961
(dp3856
Vc_obst5
p3857
g521
(g522
(I0
tp3858
g524
tp3859
Rp3860
(I1
(I4
tp3861
g531
I00
S"\x9a\xf1q\xbb~\xea\x11@\n8\xbb\xd6O\xb6\xd4?e\xaa`TR'\xed?\xd2\x93\xb1\x82\xa4\x94\x0b@"
p3862
tp3863
bsVcan
p3864
g521
(g522
(I0
tp3865
g524
tp3866
Rp3867
(I1
(I4
tp3868
g531
I00
S'\x00\x00\x00\x00\x00\x00\xf4\xbfH\xe1z\x14\xaeG\xe1\xbf\n\xd7\xa3p=\n\xef?\x00\x00\x00\x00\x00\x00\x00\x00'
p3869
tp3870
bsVside_wall_1
p3871
g521
(g522
(I0
tp3872
g524
tp3873
Rp3874
(I1
(I4
tp3875
g531
I00
S'\xec\xff\xff\xff\xff\xff\xfb\xbf\x00\x00\x00\x00\x00\x00\x00\x00\x9c\xc4 \xb0rh\xc1?\x18-DT\xfb!\xf9?'
p3876
tp3877
bsVkitchen
p3878
g521
(g522
(I0
tp3879
g524
tp3880
Rp3881
(I1
(I4
tp3882
g531
I00
S'\x00\x00\x00\x00\x00\x00\x00\x00\x00\x00\x00\x00\x00\x00\x00\x00\x00\x00\x00\x00\x00\x00\x00\x00\x00\x00\x00\x00\x00\x00\x00\x00'
p3883
tp3884
bsVcomputer_table
p3885
g521
(g522
(I0
tp3886
g524
tp3887
Rp3888
(I1
(I4
tp3889
g531
I00
S'\x00\x00\x00\x00\x00\x00\x13@\x00\x00\x00\x00\x00\x00\xf8\xbf\x96C\x8bl\xe7\xfb\xe7?\xd2!3\x7f|\xd9\x12@'
p3890
tp3891
bsVchair_6b56
p3892
g521
(g522
(I0
tp3893
g524
tp3894
Rp3895
(I1
(I4
tp3896
g531
I00
S'y=\n\xd7\xa3p\xf5?M\xe1z\x14\xaeG\xd1?\x00\x00\x00\x00\x00\x00\x00\x00\xd6$\xfaNBm\n@'
p3897
tp3898
bsVtable
p3899
g521
(g522
(I0
tp3900
g524
tp3901
Rp3902
(I1
(I4
tp3903
g531
I00
S'\x7f\xf6#EdX\xed?\xac\xffs\x98//\xc0\xbf\x00\x00\x00\x00\x00\x00\x00\x00\x00\x00\x00\x00\x00\x00\x00\x00'
p3904
tp3905
bsVsquare_packing_box2
p3906
g521
(g522
(I0
tp3907
g524
tp3908
Rp3909
(I1
(I4
tp3910
g531
I00
S'\xb3\x99\x7f<\xad\xb4\r@\xd8\xe5\x95\xe8\xfc\xf0\x16\xc0L7\x89A`\xe5\xd8?Y\x96n\x9e\xe7\t\x19@'
p3911
tp3912
bsVsquare_packing_box3
p3913
g521
(g522
(I0
tp3914
g524
tp3915
Rp3916
(I1
(I4
tp3917
g531
I00
S'8\xc7\x84Ad\xa3\n@\xb4\xaf\xb2\x18;\x05\x1e\xc0L7\x89A`\xe5\xd8?j8\xf9\x85\xb6\xac\x0f@'
p3918
tp3919
bsVsquare_packing_box1
p3920
g521
(g522
(I0
tp3921
g524
tp3922
Rp3923
(I1
(I4
tp3924
g531
I00
S'\x12\xcf\x19\xc3\xf23\x0c@\x89\xb5r\xad\x0f?\x15\xc0L7\x89A`\xe5\xd8?\xbf~a\xe9h\n\x13@'
p3925
tp3926
bsVback_wall_2
p3927
g521
(g522
(I0
tp3928
g524
tp3929
Rp3930
(I1
(I4
tp3931
g531
I00
S'\xaeG\xe1z\x14.\x13@\x80\x14\xaeG\xe1z\xc4?xX\xa85\xcd\xbb\xf2?\x00\x00\x00\x00\x00\x00\x00\x00'
p3932
tp3933
bsVchair_083c
p3934
g521
(g522
(I0
tp3935
g524
tp3936
Rp3937
(I1
(I4
tp3938
g531
I00
S'\xa4p=\n\xd7\xa3\xe0?333333\xe3\xbf\x00\x00\x00\x00\x00\x00\x00\x00\x00\x00\x00\x00\x00\x00\x00\x00'
p3939
tp3940
bsVback_wall_1
p3941
g521
(g522
(I0
tp3942
g524
tp3943
Rp3944
(I1
(I4
tp3945
g531
I00
S'\xaeG\xe1z\x14.\x13@\x80\x14\xaeG\xe1z\xc4?\xcc\x7fH\xbf}\x1d\xed?\x00\x00\x00\x00\x00\x00\x00\x00'
p3946
tp3947
bsVentrance_left
p3948
g521
(g522
(I0
tp3949
g524
tp3950
Rp3951
(I1
(I4
tp3952
g531
I00
S'\x98\x99\x99\x99\x99\x99\xe9\xbfH\xe1z\x14\xaeG\t\xc0\x9c\xc4 \xb0rh\xc1?\x00\x00\x00\x00\x00\x00\x00\x00'
p3953
tp3954
bsVcup_905a
p3955
g521
(g522
(I0
tp3956
g524
tp3957
Rp3958
(I1
(I4
tp3959
g531
I00
S'\x00\x00\x00\x00\x00\x00\xf0?\x83\xc0\xca\xa1E\xb6\xdb?\x1b/\xdd$\x06\x81\xed?\x00\x00\x00\x00\x00\x00\x00\x00'
p3960
tp3961
bsVbottom_wall_1
p3962
g521
(g522
(I0
tp3963
g524
tp3964
Rp3965
(I1
(I4
tp3966
g531
I00
S'H\xe1z\x14\xaeG\x12@\x80\x14\xaeG\xe1z\xc4?\xcc\x7fH\xbf}\x1d\xed?\x00\x00\x00\x00\x00\x00\x00\x00'
p3967
tp3968
bsVplate_496f
p3969
g521
(g522
(I0
tp3970
g524
tp3971
Rp3972
(I1
(I4
tp3973
g531
I00
S"q=\n\xd7\xa3p\xe5?\x9dhW!\xe5'\xdd\xbf\x1b/\xdd$\x06\x81\xed?\x00\x00\x00\x00\x00\x00\x00\x00"
p3974
tp3975
bsVtoaster
p3976
g521
(g522
(I0
tp3977
g524
tp3978
Rp3979
(I1
(I4
tp3980
g531
I00
S')\\\x8f\xc2\xf5(\xf4\xbf\xe0z\x14\xaeG\xe1\xf2\xbf\xb8\x1e\x85\xebQ\xb8\xee?\x89/`\x9b\xf8\x8a\xe4?'
p3981
tp3982
bsVrectangular_packing_box4
p3983
g521
(g522
(I0
tp3984
g524
tp3985
Rp3986
(I1
(I4
tp3987
g531
I00
S'\x98\x1e]pS`\xd2?\x16\x1b\xb6\xe9Ei\x18\xc0L7\x89A`\xe5\xd8?\x82\x97\xe8\xa1t:\xe4?'
p3988
tp3989
bsVmicrowave
p3990
g521
(g522
(I0
tp3991
g524
tp3992
Rp3993
(I1
(I4
tp3994
g531
I00
S'\x9a\x99\x99\x99\x99\x99\xf1\xbf\x00\x00\x00\x00\x00\x00\x00@7\x89A`\xe5\xd0\xee?\x00\x00\x00\x00\x00\x00\x00\x00'
p3995
tp3996
bsVc_obst7
p3997
g521
(g522
(I0
tp3998
g524
tp3999
Rp4000
(I1
(I4
tp4001
g531
I00
S"\xfe\x81=\xfa]F\x12@Rf\x922\x8f\r\xdc?e\xaa`TR'\xed?\xa1F+\x03Yi}?"
p4002
tp4003
bsVc_obst6
p4004
g521
(g522
(I0
tp4005
g524
tp4006
Rp4007
(I1
(I4
tp4008
g531
I00
S"\x00\x9b\x11\x01\x95\x83\x12@\xe8\xa7>?}-\xd2?e\xaa`TR'\xed?\xed\xedJ\xfa\x0b\x0c\x04@"
p4009
tp4010
bsVcup_b6af
p4011
g521
(g522
(I0
tp4012
g524
tp4013
Rp4014
(I1
(I4
tp4015
g531
I00
S'R\xb8\x1e\x85\xebQ\xe8?\x9a\x99\x99\x99\x99\x99\xe1?\x1b/\xdd$\x06\x81\xed?\x00\x00\x00\x00\x00\x00\x00\x00'
p4016
tp4017
bsVc_obst4
p4018
g521
(g522
(I0
tp4019
g524
tp4020
Rp4021
(I1
(I4
tp4022
g531
I00
S"n\x08(p\x9bi\x12@\xc0\x8f\x90\x84\x98\xd9\xc1?e\xaa`TR'\xed?\xae\x8f\xee\xf0\x1b\x97\x16@"
p4023
tp4024
bsVrectangular_packing_box2
p4025
g521
(g522
(I0
tp4026
g524
tp4027
Rp4028
(I1
(I4
tp4029
g531
I00
S'x#\x8a\xa8\xbfB\x02@]@\xdd\xaa0\xf7\x1a\xc0L7\x89A`\xe5\xd8?\xa2\x93\xe4\xf2\xe3\x8f\xe0?'
p4030
tp4031
bsVplate_fa76
p4032
g521
(g522
(I0
tp4033
g524
tp4034
Rp4035
(I1
(I4
tp4036
g531
I00
S'=\n\xd7\xa3p=\xf2?\x00\x00\x00\x00\x00\x00\x00\x00\x1b/\xdd$\x06\x81\xed?\x00\x00\x00\x00\x00\x00\x00\x00'
p4037
tp4038
bsVc_obst1
p4039
g521
(g522
(I0
tp4040
g524
tp4041
Rp4042
(I1
(I4
tp4043
g531
I00
S"\xff$\x95\xf6\x8a4\x12@\x1b\xc3S\xe6\xc1\xef\xd7?e\xaa`TR'\xed?\xe0\xbaL\x80\x10\xb3\t@"
p4044
tp4045
bsVpin_c671
p4046
g521
(g522
(I0
tp4047
g524
tp4048
Rp4049
(I1
(I4
tp4050
g531
I00
S'\xc3\xf5(\\\x8f\xc2\xf1\xbf}?5^\xbaI\x02@\xb8\x1e\x85\xebQ\xb8\xfa?\x00\x00\x00\x00\x00\x00\x00\x00'
p4051
tp4052
bsVc_obst3
p4053
g521
(g522
(I0
tp4054
g524
tp4055
Rp4056
(I1
(I4
tp4057
g531
I00
S"^\xdd\\<%\xa1\x12@\xac\x8b8\x90\xc6\xe6\xd8?e\xaa`TR'\xed?\x1c\x9e\xaarJ\xdd\x16@"
p4058
tp4059
bsVchair_2e39
p4060
g521
(g522
(I0
tp4061
g524
tp4062
Rp4063
(I1
(I4
tp4064
g531
I00
S'hfffff\xee?`fffff\xf2\xbf\x00\x00\x00\x00\x00\x00\x00\x00\x07M\xe8QQF\xf3?'
p4065
tp4066
bsVleft_wall_1
p4067
g521
(g522
(I0
tp4068
g524
tp4069
Rp4070
(I1
(I4
tp4071
g531
I00
S'H\xe1z\x14\xaeG\x12@S\xb8\x1e\x85\xebQ\xe4?\xcc\x7fH\xbf}\x1d\xed?\x00\x00\x00\x00\x00\x00\x00\x00'
p4072
tp4073
bsVtop_wall_1
p4074
g521
(g522
(I0
tp4075
g524
tp4076
Rp4077
(I1
(I4
tp4078
g531
I00
S'H\xe1z\x14\xaeG\x12@\x80\x14\xaeG\xe1z\xc4?xX\xa85\xcd\xbb\xf2?\x00\x00\x00\x00\x00\x00\x00\x00'
p4079
tp4080
bsVrectangular_packing_box3
p4081
g521
(g522
(I0
tp4082
g524
tp4083
Rp4084
(I1
(I4
tp4085
g531
I00
S',\xa3$/\t\xb1\xb0?p\xd9\xd7\x88y7\x1e\xc0L7\x89A`\xe5\xd8?\xa1\xa8\xa4gcb\x12@'
p4086
tp4087
bsVshaker
p4088
g521
(g522
(I0
tp4089
g524
tp4090
Rp4091
(I1
(I4
tp4092
g531
I00
S'\n\xd7\xa3p=\n\x01@\x14\xaeG\xe1z\x14\x02@\\\x8f\xc2\xf5(\\\xef?\x00\x00\x00\x00\x00\x00\x00\x00'
p4093
tp4094
bsVplate_b4e7
p4095
g521
(g522
(I0
tp4096
g524
tp4097
Rp4098
(I1
(I4
tp4099
g531
I00
S'\x14\xaeG\xe1z\x14\xf2\xbf\x14\xaeG\xe1z\x14\x00@=\n\xd7\xa3p=\xf2?\x00\x00\x00\x00\x00\x00\x00\x00'
p4100
tp4101
bsVplate_835a
p4102
g521
(g522
(I0
tp4103
g524
tp4104
Rp4105
(I1
(I4
tp4106
g531
I00
S'\xf6(\\\x8f\xc2\xf5\xf0?\\\x8f\xc2\xf5(\\\xe7\xbf\x1b/\xdd$\x06\x81\xed?\x00\x00\x00\x00\x00\x00\x00\x00'
p4107
tp4108
bsVcup_58a2
p4109
g521
(g522
(I0
tp4110
g524
tp4111
Rp4112
(I1
(I4
tp4113
g531
I00
S'\x85\xebQ\xb8\x1e\x85\xe3?\xcd\xcc\xcc\xcc\xcc\xcc\xdc?\x1b/\xdd$\x06\x81\xed?\x00\x00\x00\x00\x00\x00\x00\x00'
p4114
tp4115
bsVknife_block
p4116
g521
(g522
(I0
tp4117
g524
tp4118
Rp4119
(I1
(I4
tp4120
g531
I00
S'R\xb8\x1e\x85\xebQ\xe0\xbfffffff\x02@`\xe5\xd0"\xdb\xf9\xee?\x00\x00\x00\x00\x00\x00\x00\x00'
p4121
tp4122
bsVc_obst2
p4123
g521
(g522
(I0
tp4124
g524
tp4125
Rp4126
(I1
(I4
tp4127
g531
I00
S"\x01\xf9\xf8\xe06C\x12@\x02d\x9dS@k\xcc?e\xaa`TR'\xed?\x8e\xd1'\xc0\x08~\xfe?"
p4128
tp4129
bsVsquare_packing_box4
p4130
g521
(g522
(I0
tp4131
g524
tp4132
Rp4133
(I1
(I4
tp4134
g531
I00
S'X\xce\xcef\xfe\xbb\xf0?L@\xfc\xa1\x9e\xc0\x16\xc0L7\x89A`\xe5\xd8?\xaeKe\x14U\xf8\x13@'
p4135
tp4136
bsVrectangular_packing_box1
p4137
g521
(g522
(I0
tp4138
g524
tp4139
Rp4140
(I1
(I4
tp4141
g531
I00
S'\xf81, \xdaJ\xf5?\x90\x94\xc7_\x9e4\x18\xc0L7\x89A`\xe5\xd8?\x88,&\x8ck,\x0b@'
p4142
tp4143
bsVpin_371e
p4144
g521
(g522
(I0
tp4145
g524
tp4146
Rp4147
(I1
(I4
tp4148
g531
I00
S'333333\xf3\xbfffffff\xf6?\xb8\x1e\x85\xebQ\xb8\xee?\x00\x00\x00\x00\x00\x00\x00\x00'
p4149
tp4150
bsVfridge
p4151
g521
(g522
(I0
tp4152
g524
tp4153
Rp4154
(I1
(I4
tp4155
g531
I00
S'\xd7\xa3p=\n\xd7\xeb\xbf\x00\x00\x00\x00\x00\x00\x00\xc0\xcd\xcc\xcc\xcc\xcc\xcc\xf8?\x00\x00\x00\x00\x00\x00\x00\x00'
p4156
tp4157
bsVcup_d441
p4158
g521
(g522
(I0
tp4159
g524
tp4160
Rp4161
(I1
(I4
tp4162
g531
I00
S'\n\xd7\xa3p=\n\xef?\x8f\xc2\xf5(\\\x8f\xe2?\x1b/\xdd$\x06\x81\xed?\x00\x00\x00\x00\x00\x00\x00\x00'
p4163
tp4164
bsVright_wall
p4165
g521
(g522
(I0
tp4166
g524
tp4167
Rp4168
(I1
(I4
tp4169
g531
I00
S'\x9a\x99\x99\x99\x99\x99\x07@H\xe1z\x14\xaeG\xff\xbf\x9c\xc4 \xb0rh\xc1?\x00\x00\x00\x00\x00\x00\x00\x00'
p4170
tp4171
bsVshelf2
p4172
g521
(g522
(I0
tp4173
g524
tp4174
Rp4175
(I1
(I4
tp4176
g531
I00
S'\x00\x00\x00\x00\x00\x00\x0e@\xaeG\xe1z\x14\xae\x07@\x9c\xc4 \xb0rh\xc1?\xd2!3\x7f|\xd9\x12@'
p4177
tp4178
bsVshelf1
p4179
g521
(g522
(I0
tp4180
g524
tp4181
Rp4182
(I1
(I4
tp4183
g531
I00
S'\x00\x00\x00\x00\x00\x00\x13@\xaeG\xe1z\x14\xae\x07@\x9c\xc4 \xb0rh\xc1?\xd2!3\x7f|\xd9\x12@'
p4184
tp4185
bsVsink
p4186
g521
(g522
(I0
tp4187
g524
tp4188
Rp4189
(I1
(I4
tp4190
g531
I00
S'ffffff\xd6?333333\x01@\x9a\x99\x99\x99\x99\x99\xb9\xbf\x00\x00\x00\x00\x00\x00\x00\x00'
p4191
tp4192
bsVpr2
p4193
g521
(g522
(I0
tp4194
g524
tp4195
Rp4196
(I1
(I4
tp4197
g531
I00
S'fR\xdd8\xd6\x8d\x00@\xbfC|\xd2X\x00\x16\xc0\x9a_\x94\xa0\xbf\xd0\xc1?\xc1\xab\x9e\x0b\x900\xd2?'
p4198
tp4199
bsVright_wall_1
p4200
g521
(g522
(I0
tp4201
g524
tp4202
Rp4203
(I1
(I4
tp4204
g531
I00
S'H\xe1z\x14\xaeG\x12@&\\\x8f\xc2\xf5(\xd4\xbf\xcc\x7fH\xbf}\x1d\xed?\x00\x00\x00\x00\x00\x00\x00\x00'
p4205
tp4206
bsVright_wall_2
p4207
g521
(g522
(I0
tp4208
g524
tp4209
Rp4210
(I1
(I4
tp4211
g531
I00
S'H\xe1z\x14\xaeG\x12@&\\\x8f\xc2\xf5(\xd4\xbfxX\xa85\xcd\xbb\xf2?\x00\x00\x00\x00\x00\x00\x00\x00'
p4212
tp4213
bsVbottom_wall
p4214
g521
(g522
(I0
tp4215
g524
tp4216
Rp4217
(I1
(I4
tp4218
g531
I00
S'\x00\x00\x00\x00\x00\x00\xfc?\x00\x00\x00\x00\x00\x00\x00\x00\x00\x00\x00\x00\x00\x00\x00\x00\x00\x00\x00\x00\x00\x00\x00\x00'
p4219
tp4220
bsVleft_wall_2
p4221
g521
(g522
(I0
tp4222
g524
tp4223
Rp4224
(I1
(I4
tp4225
g531
I00
S'H\xe1z\x14\xaeG\x12@S\xb8\x1e\x85\xebQ\xe4?xX\xa85\xcd\xbb\xf2?\x00\x00\x00\x00\x00\x00\x00\x00'
p4226
tp4227
bsVleft_wall
p4228
g521
(g522
(I0
tp4229
g524
tp4230
Rp4231
(I1
(I4
tp4232
g531
I00
S'\x9a\x99\x99\x99\x99\x99\x07@H\xe1z\x14\xaeG\xff?\x9c\xc4 \xb0rh\xc1?\x00\x00\x00\x00\x00\x00\x00\x00'
p4233
tp4234
bsVfloorwalls
p4235
g521
(g522
(I0
tp4236
g524
tp4237
Rp4238
(I1
(I4
tp4239
g531
I00
S'\xc7\xcc\xcc\xcc\xcc\xcc\xfc?\x00\x00\x00\x00\x00\x00\x18\xc0H\xe1z\x14\xaeG\xc1?\x16-DT\xfb!\xf9?'
p4240
tp4241
bsVtable2
p4242
g521
(g522
(I0
tp4243
g524
tp4244
Rp4245
(I1
(I4
tp4246
g531
I00
S'\x00\x00\x00\x00\x00\x00\x13@\x80\x14\xaeG\xe1z\xc4?S\x96!\x8euq\xec?\xd2!3\x7f|\xd9\x12@'
p4247
tp4248
bsVentrance_right
p4249
g521
(g522
(I0
tp4250
g524
tp4251
Rp4252
(I1
(I4
tp4253
g531
I00
S'ffffff\n@H\xe1z\x14\xaeG\t\xc0\x9c\xc4 \xb0rh\xc1?\x00\x00\x00\x00\x00\x00\x00\x00'
p4254
tp4255
bsVcooker
p4256
g521
(g522
(I0
tp4257
g524
tp4258
Rp4259
(I1
(I4
tp4260
g531
I00
S'\xaeG\xe1z\x14\xae\xff?\x85\xebQ\xb8\x1e\x85\xfb?\x00\x00\x00\x00\x00\x00\xe8?\x00\x00\x00\x00\x00\x00\x00\x00'
p4261
tp4262
bsVpin_a091
p4263
g521
(g522
(I0
tp4264
g524
tp4265
Rp4266
(I1
(I4
tp4267
g531
I00
S'\xdb\xf9~j\xbct\xf7\xbf)\\\x8f\xc2\xf5(\x02@\xb8\x1e\x85\xebQ\xb8\xfa?\x00\x00\x00\x00\x00\x00\x00\x00'
p4268
tp4269
bsVside_wall_2
p4270
g521
(g522
(I0
tp4271
g524
tp4272
Rp4273
(I1
(I4
tp4274
g531
I00
S'\xf6\xff\xff\xff\xff\xff\x14@\x00\x00\x00\x00\x00\x00\x00\x00\x9c\xc4 \xb0rh\xc1?\x18-DT\xfb!\xf9?'
p4275
tp4276
bsVside_wall_3
p4277
g521
(g522
(I0
tp4278
g524
tp4279
Rp4280
(I1
(I4
tp4281
g531
I00
S'\x00\x00\x00\x00\x00\x00\xfc?H\xe1z\x14\xaeG\t@\x9c\xc4 \xb0rh\xc1?\x00\x00\x00\x00\x00\x00\x00\x00'
p4282
tp4283
bsVmixer
p4284
g521
(g522
(I0
tp4285
g524
tp4286
Rp4287
(I1
(I4
tp4288
g531
I00
S'\n\xd7\xa3p=\n\xfb?ffffff\x02@d;\xdfO\x8d\x97\xee?\x00\x00\x00\x00\x00\x00\x00\x00'
p4289
tp4290
bsVtop_wall_2
p4291
g521
(g522
(I0
tp4292
g524
tp4293
Rp4294
(I1
(I4
tp4295
g531
I00
S'H\xe1z\x14\xaeG\x12@\x80\x14\xaeG\xe1z\xc4?\x16HP\xfc\x18\xf3\xfd?\x00\x00\x00\x00\x00\x00\x00\x00'
p4296
tp4297
bsVc_obst0
p4298
g521
(g522
(I0
tp4299
g524
tp4300
Rp4301
(I1
(I4
tp4302
g531
I00
S"\xb8\x088t\x9c7\x12@\xbeE\xf1\x14\xed\x8f\x96\xbfe\xaa`TR'\xed?\xadtI0\xaa\x0c\x13@"
p4303
tp4304
bsVc_obst9
p4305
g521
(g522
(I0
tp4306
g524
tp4307
Rp4308
(I1
(I4
tp4309
g531
I00
S"\x91v\x82wVC\x12@0n\xad8\xc7F\xc2\xbfe\xaa`TR'\xed?\xd9R5=\xef\x80\x10@"
p4310
tp4311
bsVc_obst8
p4312
g521
(g522
(I0
tp4313
g524
tp4314
Rp4315
(I1
(I4
tp4316
g531
I00
S"\xa2\x86\xba\xbe\x0e\xfe\x11@\x1c\x88\xaeAcX\xc9?e\xaa`TR'\xed?\xe7\xc6R\xf7\xd5q\x17@"
p4317
tp4318
bsVcoffe_machine
p4319
g521
(g522
(I0
tp4320
g524
tp4321
Rp4322
(I1
(I4
tp4323
g531
I00
S'\\\x8f\xc2\xf5(\\\xf5\xbf\xb8\x1e\x85\xebQ\xb8\xee?\n\xd7\xa3p=\n\xef?\x00\x00\x00\x00\x00\x00\x00\x00'
p4324
tp4325
bsVchair_12d0
p4326
g521
(g522
(I0
tp4327
g524
tp4328
Rp4329
(I1
(I4
tp4330
g531
I00
S'^\xd2\x18\xad\xa3\xaa\xdb?Pf\x83L2r\xc6?\x00\x00\x00\x00\x00\x00\x00\x00\xf8\x81\r\x14M\xa6\x17@'
p4331
tp4332
bsVcomputer_chair
p4333
g521
(g522
(I0
tp4334
g524
tp4335
Rp4336
(I1
(I4
tp4337
g531
I00
S'\xcd\xcc\xcc\xcc\xcc\xcc\x10@\x00\x00\x00\x00\x00\x00\xf8\xbf\xa00\xb6\x10\xe4\xa9\x95\xbf\x00\x00\x00\x00\x00\x00\x00\x00'
p4338
tp4339
bssg2030
g521
(g522
(I0
tp4340
g524
tp4341
Rp4342
(I1
(I39
tp4343
g531
I00
S'\x00\x00\x00\x00\x00\x00\x00\x00\x00\x00\x00\x00\x00\x00\x00\x00\x00\x00\x00\x00\x00\x00\x00\x00\x00\x00\x00\x00\x00\x00\x00\x00\x00\x00\x00\x00\x00\x00\x00\x00\x00\x00\x00\x00\x00\x00\x00\x00\x00\x00\x00\x00\x00\x00\x00\x00\x00\x00\x00\x00\x00\x00\x00\x00\x00\x00\x00\x00\x00\x00\x00\x00\x00\x00\x00\x00\x00\x00\x00\x00\x00\x00\x00\x00\x00\x00\x00\x00\x00\x00\x00\x00\x00\x00\x00\x00@d;\xdfO\x8d\x87?\x00\x00\x00\x00\x00\x00\x00\x00\x00\x00\x00\x00\x00\x00\x00\x00\x00\x00\x00\x00\x00\x00\x00\x00\xec\xed\t\xf1\xcc\xa4\xf4?\x00\x00\x00\x00\x00\x00\xc0\xbcN"\xd0^p\xf8\x00\xc0\x00\x00\x00\x00\x00\x00\x00\x00\x9d\x03\r.\x04V\xe6\xbf\x00\x00\x00\x00\x00\x00\x00\x00\x00\x00\x00\x00\x00\x00\x00\x00\x00\x00\x00\x00\x00\x00\xb6\xbc\x00\x00\x00\x00\x00\x00\x00\x00\x00\x00\x00\x00\x00\x00\xd0\xbc\x00\x00\x00\x00\x00\x00\x00\x00\x00\x00\x00\x00\x00\x00\x00\x00\xec\xed\t\xf1\xcc\xa4\xf4?\x00\x00\x00\x00\x00\x00\xc0\xbcN"\xd0^p\xf8\x00\xc0\x00\x00\x00\x00\x00\x00\x00\x00\xa3\x03\r.\x04V\xe6\xbf\x00\x00\x00\x00\x00\x00\x00\x00\xce9\xe3\xc17\x89\xe1?\x00\x00\x00\x00\x00\x00\xb6\xbc\x00\x00\x00\x00\x00\x00\x00\x00\x00\x00\x00\x00\x00\x00\xe0<\x00\x00\x00\x00\x00\x00\x00\x00'
p4344
tp4345
bsg2037
I00
sbsg2038
(dp4346
(Vsquare_packing_box4
p4347
(g1436
(g557
S'\x90\xc0\x1f~\xfe\xbb\xf0?'
p4348
tp4349
Rp4350
g1436
(g557
S'8\xdb\xdc\x98\x9e\xc0\x16\xc0'
p4351
tp4352
Rp4353
g1436
(g557
S'\xda\x8c\xd3\x10U\xf8\x13@'
p4354
tp4355
Rp4356
tp4357
tp4358
g948
s(Vrectangular_packing_box2
p4359
(g1436
(g557
S'\xce\xe30\x98\xbfB\x02@'
p4360
tp4361
Rp4362
g1436
(g557
S'\xf9hq\xc60\xf7\x1a\xc0'
p4363
tp4364
Rp4365
g1436
(g557
S'V\xbc\x91y\xe4\x8f\xe0?'
p4366
tp4367
Rp4368
tp4369
tp4370
g924
s(Vrectangular_packing_box3
p4371
(g1436
(g557
S'{\x9f\xaaB\x03\xb1\xb0?'
p4372
tp4373
Rp4374
g1436
(g557
S'\x0f\x0b\xb5\xa6y7\x1e\xc0'
p4375
tp4376
Rp4377
g1436
(g557
S'\xe5\xef\xdeQcb\x12@'
p4378
tp4379
Rp4380
tp4381
tp4382
g928
s(Vrectangular_packing_box4
p4383
(g1436
(g557
S'}\xec.PR`\xd2?'
p4384
tp4385
Rp4386
g1436
(g557
S'\x8fT\xdf\xf9Ei\x18\xc0'
p4387
tp4388
Rp4389
g1436
(g557
S'\xe8\xf9\xd3Fu:\xe4?'
p4390
tp4391
Rp4392
tp4393
tp4394
g920
s(Vsquare_packing_box2
p4395
(g1436
(g557
S'6\x90.6\xad\xb4\r@'
p4396
tp4397
Rp4398
g1436
(g557
S'7\xc3\r\xf8\xfc\xf0\x16\xc0'
p4399
tp4400
Rp4401
g1436
(g557
S'\xe9\x9d\n\xb8\xe7\t\x19@'
p4402
tp4403
Rp4404
tp4405
tp4406
g3147
s(Vsquare_packing_box3
p4407
(g1436
(g557
S'\xc7\xbc\x8e8d\xa3\n@'
p4408
tp4409
Rp4410
g1436
(g557
S'\xb8\xca\x13\x08;\x05\x1e\xc0'
p4411
tp4412
Rp4413
g1436
(g557
S'\xde\xc9\xa7\xc7\xb6\xac\x0f@'
p4414
tp4415
Rp4416
tp4417
tp4418
g940
s(Vsquare_packing_box1
p4419
(g1436
(g557
S'N\xb4\xab\x90\xf23\x0c@'
p4420
tp4421
Rp4422
g1436
(g557
S'Q\xf5+\x9d\x0f?\x15\xc0'
p4423
tp4424
Rp4425
g1436
(g557
S'\xe2\x1f\xb6\xf4h\n\x13@'
p4426
tp4427
Rp4428
tp4429
tp4430
g944
s(Vrectangular_packing_box1
p4431
(g1436
(g557
S'\xa8\xdf\x85\xad\xd9J\xf5?'
p4432
tp4433
Rp4434
g1436
(g557
S'\x14\x05\xfaD\x9e4\x18\xc0'
p4435
tp4436
Rp4437
g1436
(g557
S'\xb13\x85\xcek,\x0b@'
p4438
tp4439
Rp4440
tp4441
tp4442
g932
ssg2136
(dp4443
sg2348
(dp4444
(g3077
g2142
tp4445
(lp4446
g521
(g522
(I0
tp4447
g524
tp4448
Rp4449
(I1
(I3
tp4450
g531
I00
S'\x00\xca\xc0\xcf\xd9[\xf0?\x95/#\xddH6\x15\xc0F\xa4\xd4\xc0\xcb\x98\x14@'
p4451
tp4452
bas(g3129
g2139
tp4453
(lp4454
g521
(g522
(I0
tp4455
g524
tp4456
Rp4457
(I1
(I3
tp4458
g531
I00
S'\xa0\xdc\xa0]\xb4\xb3\xed?7\xb9\xcf\x1f\xa8Q\x13\xc06\x0eA\xb8^ \x13@'
p4459
tp4460
bag521
(g522
(I0
tp4461
g524
tp4462
Rp4463
(I1
(I3
tp4464
g3116
I00
S"\xaeJ\xbd\x1936\xec?\x04\x13\xd4'\x9f\x88\x10\xc0\x805qo\xb6\xe6\xff\xbf"
p4465
tp4466
bag521
(g522
(I0
tp4467
g524
tp4468
Rp4469
(I1
(I3
tp4470
g3116
I00
S'\xf09\xb6\x1c*\x86\xee?\xc4\n/\x96\xcb\xe3\n\xc0\xa0\xc9\xd6F6\x0f\x00\xc0'
p4471
tp4472
bag521
(g522
(I0
tp4473
g524
tp4474
Rp4475
(I1
(I3
tp4476
g3116
I00
S'3\xe9\xaf\x05T\x89\xe7?+~\xcb\xd3\x15\xc7\x04\xc0x6(d5\xed\x07@'
p4477
tp4478
bas(g3129
g2142
tp4479
(lp4480
g521
(g522
(I0
tp4481
g524
tp4482
Rp4483
(I1
(I3
tp4484
g531
I00
S'\x99\xdc\xa0]\xb4\xb3\xed?7\xb9\xcf\x1f\xa8Q\x13\xc06\x0eA\xb8^ \x13@'
p4485
tp4486
bas(g3074
g2139
tp4487
(lp4488
g521
(g522
(I0
tp4489
g524
tp4490
Rp4491
(I1
(I3
tp4492
g531
I00
S'\x80\xee\xbc7\x1c\xc9\xc2\xbf\x03{?`*X\x16\xc0\xc2\xcf\x15Rt\xb2\x14@'
p4493
tp4494
bag521
(g522
(I0
tp4495
g524
tp4496
Rp4497
(I1
(I3
tp4498
g3116
I00
S'\xff\x1dX8\xbe\xd2\xc9?\x91h\xd1{\x1e(\x16\xc0\xee\xfeSI\xc3\xd4\x03\xc0'
p4499
tp4500
bag521
(g522
(I0
tp4501
g524
tp4502
Rp4503
(I1
(I3
tp4504
g3116
I00
S'\xcc\x87!\x1f\xfb\x05\xe6?\x14;\x08\xf1<\xc6\x13\xc0V!\xac1j\x94\xc8?'
p4505
tp4506
bag521
(g522
(I0
tp4507
g524
tp4508
Rp4509
(I1
(I3
tp4510
g3116
I00
S'`\xc8Aw-\x81\xeb?/\xc3\xe6O\x04\xca\x10\xc0\x8a\xb7K)\x91{\xe4\xbf'
p4511
tp4512
bag521
(g522
(I0
tp4513
g524
tp4514
Rp4515
(I1
(I3
tp4516
g3116
I00
S'\xe1\xc6\xc7\xa7\x12X\xe7?\x98\x99\xb0\x9a\xfb\xdb\x0b\xc0R\t\x1b)\xeae\xe0\xbf'
p4517
tp4518
bag521
(g522
(I0
tp4519
g524
tp4520
Rp4521
(I1
(I3
tp4522
g3116
I00
S'p\xf1\xbdc^\x84\xf1?"\x88LL\xf9D\x06\xc0~w\r\xe9m\x0f\x19@'
p4523
tp4524
bas(g3127
g2142
tp4525
(lp4526
g521
(g522
(I0
tp4527
g524
tp4528
Rp4529
(I1
(I3
tp4530
g531
I00
S'@\xdb\xa1r\xd0\xee\x05@\x0b\x9f\xfa\xca\xa2\xc6\x1f\xc0n\x15\x1co\n\xac\xda?'
p4531
tp4532
bas(g3074
g2142
tp4533
(lp4534
g521
(g522
(I0
tp4535
g524
tp4536
Rp4537
(I1
(I3
tp4538
g531
I00
S'\x9c\xee\xbc7\x1c\xc9\xc2\xbf\x02{?`*X\x16\xc0\xc1\xcf\x15Rt\xb2\x14@'
p4539
tp4540
bas(g3128
g2142
tp4541
(lp4542
g521
(g522
(I0
tp4543
g524
tp4544
Rp4545
(I1
(I3
tp4546
g531
I00
S'\xbc\x9ct\x99Y\x93\x0e@\xa1\x82\x19\x7fa\xb4\x17\xc0\x0e\x07\x97\xeb\xfc\n\x00@'
p4547
tp4548
bas(g3078
g2142
tp4549
(lp4550
g521
(g522
(I0
tp4551
g524
tp4552
Rp4553
(I1
(I3
tp4554
g531
I00
S'\xd4\xf2\xfc\xf7\x04\xce\x07@\xc5Ffi\xc6\xf0\x16\xc0;\xd1\xa5\x9d %\x17@'
p4555
tp4556
bas(g3078
g2139
tp4557
g3384
s(g3076
g2139
tp4558
g3266
s(g3076
g2142
tp4559
(lp4560
g521
(g522
(I0
tp4561
g524
tp4562
Rp4563
(I1
(I3
tp4564
g531
I00
S'd\x02\xabE\x8f\xc1\xe5?\xf6\xa6\xc5gY\x12\x1f\xc0\\)%M\x96\x93\x08@'
p4565
tp4566
bas(g3128
g2139
tp4567
g3322
s(g3127
g2139
tp4568
g3472
s(g3075
g2142
tp4569
(lp4570
g521
(g522
(I0
tp4571
g524
tp4572
Rp4573
(I1
(I3
tp4574
g531
I00
S'`\xcb,\x86\xdc\x8b\x00@k\x82\xd4\xc5\xd4\x10\x18\xc0\x12\x95\xbf\x1a,G\x15@'
p4575
tp4576
bas(g3075
g2139
tp4577
g3540
s(g3077
g2139
tp4578
g3440
ssg2484
(dp4579
sg2694
(dp4580
g2144
(lp4581
I0
aI0
aI0
aI0
aI0
aI0
aI00
aI01
aI00
aI01
aI00
asg2142
(lp4582
I0
aI0
aI0
aI0
aI0
aI0
aI00
aI01
aI00
aI01
aI00
asg2139
(lp4583
I0
aI0
aI0
aI0
aI0
aI0
aI00
aI01
aI01
aI01
aI00
asg2154
(lp4584
I0
aI0
aI0
ag1436
(g557
S'\xec\x1e]pS`\xd2?'
p4585
tp4586
Rp4587
ag1436
(g557
S'\x00\x1b\xb6\xe9Ei\x18\xc0'
p4588
tp4589
Rp4590
ag1436
(g557
S'\x82\x97\xe8\xa1t:\xe4?'
p4591
tp4592
Rp4593
aI01
aI00
aI00
aI00
aI00
asg2138
(lp4594
I0
aI0
aI0
ag1436
(g557
S'\x89#\x8a\xa8\xbfB\x02@'
p4595
tp4596
Rp4597
ag1436
(g557
S'`@\xdd\xaa0\xf7\x1a\xc0'
p4598
tp4599
Rp4600
ag1436
(g557
S'\x9a\x93\xe4\xf2\xe3\x8f\xe0?'
p4601
tp4602
Rp4603
aI01
aI00
aI00
aI01
aI00
asg2147
(lp4604
I0
aI0
aI0
ag1436
(g557
S'H\x82$/\t\xb1\xb0?'
p4605
tp4606
Rp4607
ag1436
(g557
S'\x18\xd9\xd7\x88y7\x1e\xc0'
p4608
tp4609
Rp4610
ag1436
(g557
S'\xa0\xa8\xa4gcb\x12@'
p4611
tp4612
Rp4613
aI01
aI00
aI00
aI00
aI00
asg2145
(lp4614
I0
aI0
aI0
ag1436
(g557
S'\xa10, \xdaJ\xf5?'
p4615
tp4616
Rp4617
ag1436
(g557
S'F\x93\xc7_\x9e4\x18\xc0'
p4618
tp4619
Rp4620
ag1436
(g557
S'\x89,&\x8ck,\x0b@'
p4621
tp4622
Rp4623
aI01
aI00
aI00
aI00
aI00
asg2791
(lp4624
I0
aI0
aI0
ag1436
(g557
S'\xb3\x99\x7f<\xad\xb4\r@'
p4625
tp4626
Rp4627
ag1436
(g557
S'\xdb\xe5\x95\xe8\xfc\xf0\x16\xc0'
p4628
tp4629
Rp4630
ag1436
(g557
S'Y\x96n\x9e\xe7\t\x19@'
p4631
tp4632
Rp4633
aI01
aI00
aI00
aI01
aI00
asg2148
(lp4634
I0
aI0
aI0
ag1436
(g557
S'!\xc6\x84Ad\xa3\n@'
p4635
tp4636
Rp4637
ag1436
(g557
S'\x17\xaf\xb2\x18;\x05\x1e\xc0'
p4638
tp4639
Rp4640
ag1436
(g557
S'j8\xf9\x85\xb6\xac\x0f@'
p4641
tp4642
Rp4643
aI01
aI00
aI00
aI00
aI00
asg2141
(lp4644
I0
aI0
aI0
ag1436
(g557
S'\xbe\xcf\x19\xc3\xf23\x0c@'
p4645
tp4646
Rp4647
ag1436
(g557
S'\xc5\xb5r\xad\x0f?\x15\xc0'
p4648
tp4649
Rp4650
ag1436
(g557
S'\xbf~a\xe9h\n\x13@'
p4651
tp4652
Rp4653
aI01
aI00
aI01
aI01
aI00
asg2151
(lp4654
I0
aI0
aI0
ag1436
(g557
S'"\xcf\xcef\xfe\xbb\xf0?'
p4655
tp4656
Rp4657
ag1436
(g557
S'\x08@\xfc\xa1\x9e\xc0\x16\xc0'
p4658
tp4659
Rp4660
ag1436
(g557
S'\xacKe\x14U\xf8\x13@'
p4661
tp4662
Rp4663
aI01
aI00
aI00
aI00
aI00
assg2779
(dp4664
sg2781
NsS'goal_entities'
p4665
(lp4666
Vsquare_packing_box1
p4667
ag2139
asS'binary_edges'
p4668
(dp4669
(g2791
g2151
tp4670
(lp4671
I00
aI00
aI00
as(g2147
g2147
tp4672
g2489
s(g2147
g2148
tp4673
g2487
s(g2138
g2138
tp4674
g2647
s(g2791
g2154
tp4675
(lp4676
I00
aI00
aI00
as(g2138
g2148
tp4677
g2491
s(g2138
g2147
tp4678
g2565
s(g2151
g2138
tp4679
g2495
s(g2791
g2141
tp4680
(lp4681
I00
aI00
aI00
as(g2145
g2147
tp4682
g2497
s(g2154
g2154
tp4683
g2499
s(g2138
g2142
tp4684
g2501
s(g2144
g2142
tp4685
g2525
s(g2154
g2151
tp4686
g2511
s(g2144
g2791
tp4687
(lp4688
I00
aI00
aI00
as(g2141
g2139
tp4689
g2513
s(g2142
g2154
tp4690
g2515
s(g2138
g2151
tp4691
g2517
s(g2147
g2144
tp4692
g2519
s(g2791
g2791
tp4693
(lp4694
I00
aI00
aI00
as(g2144
g2151
tp4695
g2605
s(g2148
g2138
tp4696
g2521
s(g2138
g2139
tp4697
g2523
s(g2145
g2148
tp4698
g2621
s(g2154
g2145
tp4699
g2527
s(g2141
g2141
tp4700
g2529
s(g2138
g2144
tp4701
g2531
s(g2144
g2154
tp4702
g2607
s(g2142
g2148
tp4703
g2535
s(g2138
g2791
tp4704
(lp4705
I00
aI00
aI00
as(g2142
g2147
tp4706
g2537
s(g2148
g2139
tp4707
g2539
s(g2151
g2154
tp4708
g2541
s(g2145
g2154
tp4709
g2543
s(g2148
g2145
tp4710
g2545
s(g2144
g2139
tp4711
g2547
s(g2141
g2138
tp4712
g2549
s(g2154
g2148
tp4713
g2551
s(g2144
g2148
tp4714
g2553
s(g2148
g2144
tp4715
g2555
s(g2147
g2791
tp4716
(lp4717
I00
aI00
aI00
as(g2151
g2141
tp4718
g2557
s(g2147
g2138
tp4719
g2559
s(g2151
g2139
tp4720
g2561
s(g2144
g2144
tp4721
g2563
s(g2148
g2154
tp4722
g2567
s(g2151
g2144
tp4723
g2671
s(g2139
g2144
tp4724
g2673
s(g2139
g2141
tp4725
g2569
s(g2145
g2142
tp4726
g2571
s(g2139
g2145
tp4727
g2573
s(g2151
g2147
tp4728
g2575
s(g2147
g2141
tp4729
g2577
s(g2148
g2142
tp4730
g2579
s(g2147
g2145
tp4731
g2581
s(g2148
g2148
tp4732
g2583
s(g2145
g2138
tp4733
g2585
s(g2142
g2139
tp4734
g2587
s(g2139
g2791
tp4735
(lp4736
I00
aI00
aI00
as(g2154
g2139
tp4737
g2589
s(g2144
g2145
tp4738
g2591
s(g2139
g2151
tp4739
g2593
s(g2147
g2151
tp4740
g2595
s(g2145
g2144
tp4741
g2597
s(g2151
g2142
tp4742
g2599
s(g2145
g2791
tp4743
(lp4744
I00
aI00
aI00
as(g2154
g2138
tp4745
g2601
s(g2154
g2142
tp4746
g2603
s(g2142
g2791
tp4747
(lp4748
I00
aI00
aI00
as(g2142
g2138
tp4749
g2533
s(g2145
g2139
tp4750
g2609
s(g2791
g2145
tp4751
(lp4752
I00
aI00
aI00
as(g2141
g2145
tp4753
g2611
s(g2142
g2142
tp4754
g2613
s(g2147
g2154
tp4755
g2681
s(g2141
g2148
tp4756
g2615
s(g2142
g2141
tp4757
g2617
s(g2138
g2154
tp4758
g2619
s(g2142
g2145
tp4759
g2623
s(g2141
g2144
tp4760
g2625
s(g2791
g2138
tp4761
(lp4762
I00
aI00
aI00
as(g2147
g2139
tp4763
g2651
s(g2141
g2154
tp4764
g2629
s(g2154
g2141
tp4765
g2631
s(g2138
g2141
tp4766
g2633
s(g2142
g2151
tp4767
g2635
s(g2138
g2145
tp4768
g2637
s(g2148
g2791
tp4769
(lp4770
I00
aI00
aI00
as(g2791
g2142
tp4771
(lp4772
g2509
aI00
aI01
as(g2145
g2145
tp4773
g2639
s(g2151
g2791
tp4774
(lp4775
I00
aI00
aI00
as(g2141
g2151
tp4776
g2643
s(g2139
g2148
tp4777
g2645
s(g2139
g2147
tp4778
g2627
s(g2151
g2145
tp4779
g2649
s(g2791
g2139
tp4780
(lp4781
I00
aI00
aI00
as(g2148
g2141
tp4782
g2641
s(g2147
g2142
tp4783
g2653
s(g2139
g2138
tp4784
g2493
s(g2145
g2141
tp4785
g2655
s(g2154
g2147
tp4786
g2657
s(g2139
g2142
tp4787
g2659
s(g2791
g2148
tp4788
(lp4789
I00
aI00
aI00
as(g2144
g2147
tp4790
g2661
s(g2791
g2144
tp4791
(lp4792
g2509
aI00
aI00
as(g2148
g2147
tp4793
g2663
s(g2139
g2139
tp4794
g2665
s(g2145
g2151
tp4795
g2667
s(g2154
g2144
tp4796
g2669
s(g2141
g2791
tp4797
(lp4798
I00
aI00
aI00
as(g2144
g2138
tp4799
g2689
s(g2139
g2154
tp4800
g2675
s(g2148
g2151
tp4801
g2677
s(g2151
g2148
tp4802
g2679
s(g2791
g2147
tp4803
(lp4804
I00
aI00
aI00
as(g2142
g2144
tp4805
g2683
s(g2141
g2147
tp4806
g2685
s(g2154
g2791
tp4807
(lp4808
I00
aI00
aI00
as(g2151
g2151
tp4809
g2687
s(g2141
g2142
tp4810
g2691
s(g2144
g2141
tp4811
g2693
ssg1371
g3612
sS'pick_in_way'
p4812
(itrajectory_representation.predicates.pick_in_way
PickInWay
p4813
(dp4814
g1416
(dp4815
(g2791
g2151
tp4816
I00
s(g2147
g2147
tp4817
I00
s(g2147
g2148
tp4818
I00
s(g2138
g2138
tp4819
I00
s(g2791
g2154
tp4820
I00
s(g2138
g2148
tp4821
I01
s(g2138
g2147
tp4822
I00
s(g2151
g2138
tp4823
I00
s(g2791
g2141
tp4824
I00
s(g2145
g2147
tp4825
I01
s(g2154
g2154
tp4826
I00
s(g2138
g2142
tp4827
I00
s(g2144
g2142
tp4828
I00
s(g2154
g2151
tp4829
I00
s(g2144
g2791
tp4830
I00
s(g2141
g2139
tp4831
I00
s(g2142
g2154
tp4832
I00
s(g2138
g2151
tp4833
I00
s(g2147
g2144
tp4834
I00
s(g2791
g2791
tp4835
I00
s(g2144
g2151
tp4836
I00
s(g2148
g2138
tp4837
I00
s(g2138
g2139
tp4838
I00
s(g2145
g2148
tp4839
I00
s(g2154
g2145
tp4840
I00
s(g2141
g2141
tp4841
I00
s(g2138
g2144
tp4842
I00
s(g2144
g2154
tp4843
I00
s(g2142
g2148
tp4844
I00
s(g2138
g2791
tp4845
I00
s(g2142
g2147
tp4846
I00
s(g2148
g2139
tp4847
I00
s(g2151
g2154
tp4848
I01
s(g2145
g2154
tp4849
I01
s(g2148
g2145
tp4850
I00
s(g2144
g2139
tp4851
I00
s(g2141
g2138
tp4852
I00
s(g2154
g2148
tp4853
I00
s(g2144
g2148
tp4854
I00
s(g2148
g2144
tp4855
I00
s(g2147
g2791
tp4856
I00
s(g2151
g2141
tp4857
I00
s(g2147
g2138
tp4858
I00
s(g2151
g2139
tp4859
I00
s(g2144
g2144
tp4860
I00
s(g2148
g2154
tp4861
I00
s(g2151
g2144
tp4862
I00
s(g2139
g2144
tp4863
I00
s(g2139
g2141
tp4864
I00
s(g2145
g2142
tp4865
I00
s(g2139
g2145
tp4866
I00
s(g2151
g2147
tp4867
I01
s(g2147
g2141
tp4868
I00
s(g2148
g2142
tp4869
I00
s(g2147
g2145
tp4870
I00
s(g2148
g2148
tp4871
I00
s(g2145
g2138
tp4872
I00
s(g2142
g2139
tp4873
I00
s(g2139
g2791
tp4874
I00
s(g2154
g2139
tp4875
I00
s(g2144
g2145
tp4876
I00
s(g2139
g2151
tp4877
I00
s(g2147
g2151
tp4878
I00
s(g2145
g2144
tp4879
I00
s(g2151
g2142
tp4880
I00
s(g2145
g2791
tp4881
I00
s(g2154
g2138
tp4882
I00
s(g2154
g2142
tp4883
I00
s(g2142
g2791
tp4884
I00
s(g2142
g2138
tp4885
I00
s(g2145
g2139
tp4886
I00
s(g2791
g2145
tp4887
I00
s(g2141
g2145
tp4888
I00
s(g2142
g2142
tp4889
I00
s(g2147
g2154
tp4890
I00
s(g2141
g2148
tp4891
I00
s(g2142
g2141
tp4892
I00
s(g2138
g2154
tp4893
I00
s(g2142
g2145
tp4894
I00
s(g2141
g2144
tp4895
I00
s(g2791
g2138
tp4896
I00
s(g2147
g2139
tp4897
I00
s(g2141
g2154
tp4898
I00
s(g2154
g2141
tp4899
I00
s(g2138
g2141
tp4900
I00
s(g2142
g2151
tp4901
I00
s(g2138
g2145
tp4902
I01
s(g2148
g2791
tp4903
I00
s(g2791
g2142
tp4904
I00
s(g2145
g2145
tp4905
I00
s(g2151
g2791
tp4906
I00
s(g2141
g2151
tp4907
I00
s(g2139
g2148
tp4908
I00
s(g2139
g2147
tp4909
I00
s(g2151
g2145
tp4910
I00
s(g2791
g2139
tp4911
I00
s(g2148
g2141
tp4912
I00
s(g2147
g2142
tp4913
I00
s(g2139
g2138
tp4914
I00
s(g2145
g2141
tp4915
I00
s(g2154
g2147
tp4916
I00
s(g2139
g2142
tp4917
I00
s(g2791
g2148
tp4918
I00
s(g2144
g2147
tp4919
I00
s(g2791
g2144
tp4920
I00
s(g2148
g2147
tp4921
I00
s(g2139
g2139
tp4922
I00
s(g2145
g2151
tp4923
I01
s(g2154
g2144
tp4924
I00
s(g2141
g2791
tp4925
I00
s(g2144
g2138
tp4926
I00
s(g2139
g2154
tp4927
I00
s(g2148
g2151
tp4928
I00
s(g2151
g2148
tp4929
I00
s(g2791
g2147
tp4930
I00
s(g2142
g2144
tp4931
I00
s(g2141
g2147
tp4932
I00
s(g2154
g2791
tp4933
I00
s(g2151
g2151
tp4934
I00
s(g2141
g2142
tp4935
I00
s(g2144
g2141
tp4936
I00
ssg1022
(dp4937
g2154
g3629
sg2138
g3648
sg2147
g3667
sg2145
g3686
sg2791
g3103
sg2148
g3705
sg2141
g3724
sg2151
g3731
ssg1342
(dp4938
g2154
(lp4939
Vrectangular_packing_box1
p4940
aVsquare_packing_box4
p4941
asg2138
(lp4942
sg2147
(lp4943
Vrectangular_packing_box1
p4944
aVsquare_packing_box4
p4945
asg2145
(lp4946
Vrectangular_packing_box1
p4947
aVrectangular_packing_box2
p4948
asg2791
(lp4949
sg2148
(lp4950
Vrectangular_packing_box2
p4951
asg2141
(lp4952
sg2151
(lp4953
Vrectangular_packing_box1
p4954
aVsquare_packing_box4
p4955
assg1371
(lp4956
g2791
ag2138
ag2144
ag2139
ag2142
ag2141
ag2144
ag2139
ag2142
ag2144
ag2139
ag2142
ag2144
ag2139
ag2142
ag2144
ag2139
ag2142
ag2144
ag2139
ag2142
ag2144
ag2139
ag2142
ag2144
ag2139
ag2142
asg1373
g3613
sg2
(dp4957
sg505
g3073
sg1409
Nsg1415
g3073
sg1412
(dp4958
sg1431
I01
sg1414
I8
sg7
Nsg1430
NsbsS'robot_pose'
p4959
g521
(g522
(I0
tp4960
g524
tp4961
Rp4962
(I1
(I1
I3
tp4963
g531
I00
S'fR\xdd8\xd6\x8d\x00@\xbfC|\xd2X\x00\x16\xc0\xc1\xab\x9e\x0b\x900\xd2?'
p4964
tp4965
bsS'is_holding_goal_entity'
p4966
(itrajectory_representation.predicates.is_holding_goal_entity
IsHoldingGoalEntity
p4967
(dp4968
g4665
g4666
sg7
NsbsS'mc_pick_path'
p4969
(dp4970
sS'current_collides'
p4971
g3613
sbsg4665
(lp4972
Vsquare_packing_box1
p4973
ag11
asg4668
(dp4974
(g22
g23
tp4975
(lp4976
I00
aI00
aI00
as(g22
g33
tp4977
(lp4978
I00
aI00
aI00
as(g30
g46
tp4979
(lp4980
I00
aI00
aI00
as(g30
g30
tp4981
(lp4982
I00
aI00
aI00
as(g10
g46
tp4983
(lp4984
I00
aI01
aI00
as(g10
g30
tp4985
(lp4986
I00
aI01
aI00
as(g23
g10
tp4987
(lp4988
I00
aI00
aI00
as(g22
g14
tp4989
(lp4990
I00
aI00
aI00
as(g19
g30
tp4991
(lp4992
I00
aI01
aI00
as(g33
g33
tp4993
(lp4994
I00
aI00
aI00
as(g10
g15
tp4995
(lp4996
g2509
aI00
aI01
as(g18
g15
tp4997
(lp4998
I00
aI00
aI00
as(g33
g23
tp4999
(lp5000
I00
aI00
aI00
as(g15
g23
tp5001
(lp5002
I00
aI00
aI00
as(g14
g11
tp5003
(lp5004
I00
aI00
aI00
as(g18
g10
tp5005
(lp5006
I00
aI00
aI00
as(g10
g23
tp5007
(lp5008
I00
aI01
aI00
as(g30
g18
tp5009
(lp5010
g2509
aI00
aI00
as(g22
g22
tp5011
(lp5012
I00
aI00
aI00
as(g15
g22
tp5013
(lp5014
I00
aI00
aI00
as(g46
g10
tp5015
(lp5016
I00
aI00
aI00
as(g10
g11
tp5017
(lp5018
I00
aI00
aI00
as(g19
g46
tp5019
(lp5020
I00
aI00
aI00
as(g33
g19
tp5021
(lp5022
I00
aI00
aI00
as(g14
g14
tp5023
(lp5024
I00
aI00
aI00
as(g10
g18
tp5025
(lp5026
g2509
aI00
aI00
as(g15
g10
tp5027
(lp5028
I00
aI00
aI00
as(g15
g46
tp5029
(lp5030
I00
aI00
aI00
as(g15
g30
tp5031
(lp5032
I00
aI00
aI00
as(g46
g11
tp5033
(lp5034
I00
aI00
aI00
as(g23
g33
tp5035
(lp5036
I00
aI01
aI00
as(g19
g33
tp5037
(lp5038
I00
aI01
aI00
as(g46
g19
tp5039
(lp5040
I00
aI00
aI00
as(g15
g33
tp5041
(lp5042
I00
aI00
aI00
as(g18
g11
tp5043
(lp5044
I00
aI00
aI00
as(g14
g10
tp5045
(lp5046
I00
aI00
aI00
as(g33
g46
tp5047
(lp5048
I00
aI00
aI00
as(g18
g46
tp5049
(lp5050
I00
aI00
aI00
as(g46
g18
tp5051
(lp5052
g2509
aI00
aI00
as(g30
g22
tp5053
(lp5054
I00
aI00
aI00
as(g23
g14
tp5055
(lp5056
I00
aI00
aI00
as(g30
g10
tp5057
(lp5058
I00
aI00
aI00
as(g23
g11
tp5059
(lp5060
I00
aI00
aI01
as(g18
g18
tp5061
(lp5062
I00
aI00
aI00
as(g46
g33
tp5063
(lp5064
I00
aI00
aI00
as(g14
g22
tp5065
(lp5066
I00
aI00
aI00
as(g11
g14
tp5067
(lp5068
I00
aI00
aI00
as(g19
g15
tp5069
(lp5070
g2509
aI00
aI01
as(g11
g19
tp5071
(lp5072
I00
aI00
aI00
as(g23
g30
tp5073
(lp5074
I00
aI01
aI00
as(g30
g14
tp5075
(lp5076
I00
aI00
aI00
as(g46
g15
tp5077
(lp5078
g2509
aI00
aI01
as(g30
g19
tp5079
(lp5080
I00
aI00
aI00
as(g46
g46
tp5081
(lp5082
I00
aI00
aI00
as(g19
g10
tp5083
(lp5084
I00
aI00
aI00
as(g15
g11
tp5085
(lp5086
I00
aI00
aI00
as(g11
g22
tp5087
(lp5088
I00
aI00
aI00
as(g33
g11
tp5089
(lp5090
I00
aI00
aI01
as(g18
g19
tp5091
(lp5092
I00
aI00
aI00
as(g11
g23
tp5093
(lp5094
I00
aI00
aI00
as(g30
g23
tp5095
(lp5096
I00
aI00
aI00
as(g19
g18
tp5097
(lp5098
g2509
aI00
aI00
as(g23
g15
tp5099
(lp5100
g2509
aI00
aI01
as(g19
g22
tp5101
(lp5102
I00
aI00
aI00
as(g33
g10
tp5103
(lp5104
I00
aI00
aI00
as(g33
g15
tp5105
(lp5106
g2509
aI00
aI01
as(g11
g30
tp5107
(lp5108
I00
aI00
aI00
as(g18
g23
tp5109
(lp5110
I00
aI00
aI00
as(g18
g33
tp5111
(lp5112
I00
aI00
aI00
as(g19
g11
tp5113
(lp5114
I00
aI00
aI00
as(g22
g19
tp5115
(lp5116
I00
aI00
aI00
as(g14
g19
tp5117
(lp5118
I00
aI00
aI00
as(g11
g46
tp5119
(lp5120
I00
aI00
aI00
as(g15
g15
tp5121
(lp5122
I00
aI00
aI00
as(g22
g30
tp5123
(lp5124
I00
aI00
aI00
as(g14
g46
tp5125
(lp5126
I00
aI00
aI00
as(g15
g14
tp5127
(lp5128
I00
aI00
aI00
as(g10
g33
tp5129
(lp5130
I00
aI00
aI00
as(g15
g19
tp5131
(lp5132
I00
aI00
aI00
as(g14
g18
tp5133
(lp5134
g2509
aI00
aI00
as(g22
g10
tp5135
(lp5136
I00
aI00
aI00
as(g30
g11
tp5137
(lp5138
I00
aI00
aI00
as(g14
g33
tp5139
(lp5140
I00
aI00
aI00
as(g33
g14
tp5141
(lp5142
I00
aI00
aI00
as(g10
g14
tp5143
(lp5144
I00
aI00
aI00
as(g18
g22
tp5145
(lp5146
I00
aI00
aI00
as(g10
g19
tp5147
(lp5148
I00
aI01
aI00
as(g46
g22
tp5149
(lp5150
I00
aI00
aI00
as(g22
g15
tp5151
(lp5152
g2509
aI00
aI01
as(g19
g19
tp5153
(lp5154
I00
aI00
aI00
as(g23
g22
tp5155
(lp5156
I00
aI00
aI00
as(g14
g23
tp5157
(lp5158
I00
aI00
aI00
as(g10
g22
tp5159
(lp5160
I00
aI00
aI00
as(g10
g10
tp5161
(lp5162
I00
aI00
aI00
as(g23
g19
tp5163
(lp5164
I00
aI00
aI00
as(g22
g11
tp5165
(lp5166
I00
aI00
aI00
as(g46
g14
tp5167
(lp5168
I00
aI00
aI00
as(g30
g15
tp5169
(lp5170
g2509
aI00
aI01
as(g11
g10
tp5171
(lp5172
I00
aI00
aI00
as(g19
g14
tp5173
(lp5174
I00
aI00
aI00
as(g33
g30
tp5175
(lp5176
I00
aI01
aI00
as(g11
g15
tp5177
(lp5178
I00
aI00
aI00
as(g22
g46
tp5179
(lp5180
I00
aI00
aI00
as(g18
g30
tp5181
(lp5182
I00
aI00
aI00
as(g22
g18
tp5183
(lp5184
g2509
aI00
aI00
as(g46
g30
tp5185
(lp5186
I00
aI00
aI00
as(g11
g11
tp5187
(lp5188
I00
aI00
aI00
as(g19
g23
tp5189
(lp5190
I00
aI01
aI00
as(g33
g18
tp5191
(lp5192
g2509
aI00
aI00
as(g23
g18
tp5193
(lp5194
g2509
aI00
aI00
as(g11
g18
tp5195
(lp5196
I00
aI00
aI00
as(g11
g33
tp5197
(lp5198
I00
aI00
aI00
as(g46
g23
tp5199
(lp5200
I00
aI00
aI00
as(g23
g46
tp5201
(lp5202
I00
aI00
aI00
as(g30
g33
tp5203
(lp5204
I00
aI00
aI00
as(g15
g18
tp5205
(lp5206
I00
aI00
aI00
as(g14
g30
tp5207
(lp5208
I00
aI00
aI00
as(g33
g22
tp5209
(lp5210
I00
aI00
aI00
as(g23
g23
tp5211
(lp5212
I00
aI00
aI00
as(g14
g15
tp5213
(lp5214
g2509
aI00
aI01
as(g18
g14
tp5215
(lp5216
I00
aI00
aI00
assg1371
g1372
sg4812
(itrajectory_representation.predicates.pick_in_way
PickInWay
p5217
(dp5218
g1022
(dp5219
g33
g550
sg10
g616
sg30
g660
sg19
g722
sg22
g770
sg46
g802
sg14
g846
sg23
g878
ssg1342
(dp5220
g33
(lp5221
Vrectangular_packing_box1
p5222
aVsquare_packing_box4
p5223
asg10
(lp5224
sg30
(lp5225
Vrectangular_packing_box2
p5226
aVrectangular_packing_box1
p5227
aVsquare_packing_box4
p5228
aVrectangular_packing_box4
p5229
asg19
(lp5230
Vrectangular_packing_box1
p5231
aVrectangular_packing_box2
p5232
asg22
(lp5233
sg46
(lp5234
Vrectangular_packing_box2
p5235
asg14
(lp5236
sg23
(lp5237
Vrectangular_packing_box2
p5238
aVrectangular_packing_box1
p5239
aVsquare_packing_box4
p5240
assg1371
(lp5241
g22
ag10
ag18
ag11
ag15
ag14
ag18
ag11
ag15
ag18
ag11
ag15
ag18
ag11
ag15
ag18
ag11
ag15
ag18
ag11
ag15
ag18
ag11
ag15
ag18
ag11
ag15
asg1373
g1374
sg2
(dp5242
sg505
g506
sg1409
Nsg1415
g506
sg1412
(dp5243
sg1414
I8
sg1431
I01
sg7
Nsg1416
(dp5244
(g22
g23
tp5245
I00
s(g22
g33
tp5246
I00
s(g30
g46
tp5247
I00
s(g30
g30
tp5248
I00
s(g10
g46
tp5249
I01
s(g10
g30
tp5250
I01
s(g23
g10
tp5251
I00
s(g22
g14
tp5252
I00
s(g19
g30
tp5253
I01
s(g33
g33
tp5254
I00
s(g10
g15
tp5255
I00
s(g18
g15
tp5256
I00
s(g33
g23
tp5257
I00
s(g15
g23
tp5258
I00
s(g14
g11
tp5259
I00
s(g18
g10
tp5260
I00
s(g10
g23
tp5261
I01
s(g30
g18
tp5262
I00
s(g22
g22
tp5263
I00
s(g15
g22
tp5264
I00
s(g46
g10
tp5265
I00
s(g10
g11
tp5266
I00
s(g19
g46
tp5267
I00
s(g33
g19
tp5268
I00
s(g14
g14
tp5269
I00
s(g10
g18
tp5270
I00
s(g15
g10
tp5271
I00
s(g15
g46
tp5272
I00
s(g15
g30
tp5273
I00
s(g46
g11
tp5274
I00
s(g23
g33
tp5275
I01
s(g19
g33
tp5276
I01
s(g46
g19
tp5277
I00
s(g15
g33
tp5278
I00
s(g18
g11
tp5279
I00
s(g14
g10
tp5280
I00
s(g33
g46
tp5281
I00
s(g18
g46
tp5282
I00
s(g46
g18
tp5283
I00
s(g30
g22
tp5284
I00
s(g23
g14
tp5285
I00
s(g30
g10
tp5286
I00
s(g23
g11
tp5287
I00
s(g18
g18
tp5288
I00
s(g46
g33
tp5289
I00
s(g14
g22
tp5290
I00
s(g11
g14
tp5291
I00
s(g19
g15
tp5292
I00
s(g11
g19
tp5293
I00
s(g23
g30
tp5294
I01
s(g30
g14
tp5295
I00
s(g46
g15
tp5296
I00
s(g30
g19
tp5297
I00
s(g46
g46
tp5298
I00
s(g19
g10
tp5299
I00
s(g15
g11
tp5300
I00
s(g11
g22
tp5301
I00
s(g33
g11
tp5302
I00
s(g18
g19
tp5303
I00
s(g11
g23
tp5304
I00
s(g30
g23
tp5305
I00
s(g19
g18
tp5306
I00
s(g23
g15
tp5307
I00
s(g19
g22
tp5308
I00
s(g33
g10
tp5309
I00
s(g33
g15
tp5310
I00
s(g11
g30
tp5311
I00
s(g18
g23
tp5312
I00
s(g18
g33
tp5313
I00
s(g19
g11
tp5314
I00
s(g22
g19
tp5315
I00
s(g14
g19
tp5316
I00
s(g11
g46
tp5317
I00
s(g15
g15
tp5318
I00
s(g22
g30
tp5319
I00
s(g14
g46
tp5320
I00
s(g15
g14
tp5321
I00
s(g10
g33
tp5322
I00
s(g15
g19
tp5323
I00
s(g14
g18
tp5324
I00
s(g22
g10
tp5325
I00
s(g30
g11
tp5326
I00
s(g14
g33
tp5327
I00
s(g33
g14
tp5328
I00
s(g10
g14
tp5329
I00
s(g18
g22
tp5330
I00
s(g10
g19
tp5331
I01
s(g46
g22
tp5332
I00
s(g22
g15
tp5333
I00
s(g19
g19
tp5334
I00
s(g23
g22
tp5335
I00
s(g14
g23
tp5336
I00
s(g10
g22
tp5337
I00
s(g10
g10
tp5338
I00
s(g23
g19
tp5339
I00
s(g22
g11
tp5340
I00
s(g46
g14
tp5341
I00
s(g30
g15
tp5342
I00
s(g11
g10
tp5343
I00
s(g19
g14
tp5344
I00
s(g33
g30
tp5345
I01
s(g11
g15
tp5346
I00
s(g22
g46
tp5347
I00
s(g18
g30
tp5348
I00
s(g22
g18
tp5349
I00
s(g46
g30
tp5350
I00
s(g11
g11
tp5351
I00
s(g19
g23
tp5352
I01
s(g33
g18
tp5353
I00
s(g23
g18
tp5354
I00
s(g11
g18
tp5355
I00
s(g11
g33
tp5356
I00
s(g46
g23
tp5357
I00
s(g23
g46
tp5358
I00
s(g30
g33
tp5359
I00
s(g15
g18
tp5360
I00
s(g14
g30
tp5361
I00
s(g33
g22
tp5362
I00
s(g23
g23
tp5363
I00
s(g14
g15
tp5364
I00
s(g18
g14
tp5365
I00
ssg1430
Nsbsg4959
g521
(g522
(I0
tp5366
g524
tp5367
Rp5368
(I1
(I1
I3
tp5369
g557
I00
S'p\x89\xdc!\x1ey\t@m\xf5\xbaQ\xd2\xe4\x18\xc0\x10\xab-f\x05\x15\xf7?'
p5370
tp5371
bsg4966
(itrajectory_representation.predicates.is_holding_goal_entity
IsHoldingGoalEntity
p5372
(dp5373
g4665
g4972
sg7
Nsbsg4969
(dp5374
sg4971
g1374
sb.