(itrajectory_representation.shortest_path_pick_and_place_state
ShortestPathPaPState
p0
(dp1
S'place_used'
p2
(dp3
sS'in_region'
p4
(itrajectory_representation.predicates.in_region
InRegion
p5
(dp6
S'problem_env'
p7
NsbsS'ternary_edges'
p8
(dp9
(Vrectangular_packing_box2
p10
g10
S'home_region'
p11
tp12
(lp13
I00
as(Vsquare_packing_box1
p14
S'loading_region'
p15
g15
tp16
(lp17
I00
as(S'entire_region'
p18
Vrectangular_packing_box1
p19
g11
tp20
(lp21
I00
as(Vsquare_packing_box2
p22
Vsquare_packing_box4
p23
g15
tp24
(lp25
I00
as(g11
g11
g11
tp26
(lp27
I00
as(g23
g10
g15
tp28
(lp29
I00
as(g14
Vrectangular_packing_box3
p30
g11
tp31
(lp32
I00
as(g11
Vrectangular_packing_box4
p33
g11
tp34
(lp35
I00
as(g22
g14
g11
tp36
(lp37
I00
as(g30
g33
g15
tp38
(lp39
I00
as(g11
g23
g15
tp40
(lp41
I00
as(g22
g18
g11
tp42
(lp43
I00
as(g15
g11
g15
tp44
(lp45
I00
as(g33
Vsquare_packing_box3
p46
g11
tp47
(lp48
I00
as(g23
g18
g11
tp49
(lp50
I00
as(g22
g19
g15
tp51
(lp52
I00
as(g46
g15
g11
tp53
(lp54
I00
as(g18
g10
g15
tp55
(lp56
I00
as(g11
g18
g11
tp57
(lp58
I00
as(g10
g15
g11
tp59
(lp60
I00
as(g46
g18
g11
tp61
(lp62
I00
as(g14
g14
g15
tp63
(lp64
I00
as(g15
g23
g15
tp65
(lp66
I00
as(g18
g15
g11
tp67
(lp68
I00
as(g18
g22
g11
tp69
(lp70
I00
as(g15
g15
g11
tp71
(lp72
I00
as(g46
g33
g15
tp73
(lp74
I00
as(g11
g11
g15
tp75
(lp76
I00
as(g19
g22
g15
tp77
(lp78
I00
as(g10
g23
g11
tp79
(lp80
I01
as(g46
g14
g11
tp81
(lp82
I00
as(g19
g11
g15
tp83
(lp84
I00
as(g11
g10
g15
tp85
(lp86
I00
as(g19
g30
g15
tp87
(lp88
I00
as(g30
g19
g11
tp89
(lp90
I01
as(g15
g14
g15
tp91
(lp92
I00
as(g23
g22
g15
tp93
(lp94
I00
as(g10
g10
g15
tp95
(lp96
I00
as(g18
g23
g11
tp97
(lp98
I00
as(g15
g11
g11
tp99
(lp100
I00
as(g33
g10
g11
tp101
(lp102
I00
as(g11
g30
g11
tp103
(lp104
I00
as(g22
g19
g11
tp105
(lp106
I01
as(g30
g23
g11
tp107
(lp108
I01
as(g14
g30
g15
tp109
(lp110
I00
as(g46
g22
g11
tp111
(lp112
I00
as(g22
g14
g15
tp113
(lp114
I00
as(g22
g10
g15
tp115
(lp116
I00
as(g18
g22
g15
tp117
(lp118
I00
as(g15
g30
g15
tp119
(lp120
I00
as(g18
g11
g11
tp121
(lp122
I00
as(g33
g11
g11
tp123
(lp124
I00
as(g15
g18
g11
tp125
(lp126
I00
as(g10
g23
g15
tp127
(lp128
I00
as(g46
g10
g15
tp129
(lp130
I00
as(g46
g46
g11
tp131
(lp132
I00
as(g19
g30
g11
tp133
(lp134
I00
as(g18
g10
g11
tp135
(lp136
I00
as(g19
g15
g15
tp137
(lp138
I00
as(g23
g14
g11
tp139
(lp140
I00
as(g14
g14
g11
tp141
(lp142
I00
as(g14
g33
g11
tp143
(lp144
I00
as(g33
g10
g15
tp145
(lp146
I00
as(g23
g19
g15
tp147
(lp148
I00
as(g46
g33
g11
tp149
(lp150
I00
as(g19
g22
g11
tp151
(lp152
I00
as(g10
g19
g15
tp153
(lp154
I00
as(g19
g11
g11
tp155
(lp156
I00
as(g22
g10
g11
tp157
(lp158
I01
as(g10
g46
g11
tp159
(lp160
I00
as(g30
g19
g15
tp161
(lp162
I00
as(g11
g22
g15
tp163
(lp164
I00
as(g18
g11
g15
tp165
(lp166
I00
as(g18
g23
g15
tp167
(lp168
I00
as(g46
g10
g11
tp169
(lp170
I00
as(g30
g46
g15
tp171
(lp172
I00
as(g10
g18
g15
tp173
(lp174
I00
as(g19
g15
g11
tp175
(lp176
I00
as(g46
g22
g15
tp177
(lp178
I00
as(g46
g19
g15
tp179
(lp180
I00
as(g23
g14
g15
tp181
(lp182
I00
as(g11
g30
g15
tp183
(lp184
I00
as(g18
g46
g15
tp185
(lp186
I00
as(g15
g30
g11
tp187
(lp188
I00
as(g15
g22
g15
tp189
(lp190
I00
as(g10
g19
g11
tp191
(lp192
I01
as(g23
g19
g11
tp193
(lp194
I00
as(g15
g46
g11
tp195
(lp196
I00
as(g10
g46
g15
tp197
(lp198
I00
as(g10
g33
g15
tp199
(lp200
I00
as(g30
g23
g15
tp201
(lp202
I00
as(g14
g33
g15
tp203
(lp204
I00
as(g19
g46
g15
tp205
(lp206
I00
as(g11
g14
g15
tp207
(lp208
I00
as(g30
g15
g15
tp209
(lp210
I00
as(g33
g11
g15
tp211
(lp212
I00
as(g14
g19
g11
tp213
(lp214
I01
as(g10
g18
g11
tp215
(lp216
I00
as(g33
g22
g15
tp217
(lp218
I00
as(g30
g10
g15
tp219
(lp220
I00
as(g46
g19
g11
tp221
(lp222
I00
as(g23
g15
g15
tp223
(lp224
I00
as(g22
g11
g11
tp225
(lp226
I00
as(g23
g33
g11
tp227
(lp228
I00
as(g11
g46
g15
tp229
(lp230
I00
as(g15
g19
g15
tp231
(lp232
I00
as(g15
g46
g15
tp233
(lp234
I00
as(g14
g46
g11
tp235
(lp236
I00
as(g19
g46
g11
tp237
(lp238
I00
as(g14
g19
g15
tp239
(lp240
I00
as(g30
g10
g11
tp241
(lp242
I00
as(g10
g22
g11
tp243
(lp244
I00
as(g30
g11
g15
tp245
(lp246
I00
as(g23
g15
g11
tp247
(lp248
I00
as(g15
g33
g15
tp249
(lp250
I00
as(g10
g33
g11
tp251
(lp252
I01
as(g30
g30
g11
tp253
(lp254
I00
as(g33
g33
g11
tp255
(lp256
I00
as(g33
g30
g15
tp257
(lp258
I00
as(g30
g15
g11
tp259
(lp260
I00
as(g46
g23
g11
tp261
(lp262
I00
as(g33
g22
g11
tp263
(lp264
I00
as(g22
g15
g15
tp265
(lp266
I00
as(g30
g18
g15
tp267
(lp268
I00
as(g22
g11
g15
tp269
(lp270
I00
as(g14
g22
g15
tp271
(lp272
I00
as(g23
g33
g15
tp273
(lp274
I00
as(g46
g11
g15
tp275
(lp276
I00
as(g30
g11
g11
tp277
(lp278
I00
as(g15
g33
g11
tp279
(lp280
I00
as(g19
g19
g11
tp281
(lp282
I00
as(g15
g23
g11
tp283
(lp284
I00
as(g23
g46
g11
tp285
(lp286
I00
as(g14
g10
g11
tp287
(lp288
I00
as(g14
g46
g15
tp289
(lp290
I00
as(g33
g14
g15
tp291
(lp292
I00
as(g11
g22
g11
tp293
(lp294
I00
as(g18
g30
g15
tp295
(lp296
I00
as(g30
g14
g11
tp297
(lp298
I00
as(g19
g18
g11
tp299
(lp300
I00
as(g46
g23
g15
tp301
(lp302
I00
as(g46
g30
g15
tp303
(lp304
I00
as(g33
g19
g11
tp305
(lp306
I00
as(g10
g22
g15
tp307
(lp308
I00
as(g33
g15
g11
tp309
(lp310
I00
as(g30
g18
g11
tp311
(lp312
I00
as(g23
g30
g15
tp313
(lp314
I00
as(g10
g14
g11
tp315
(lp316
I00
as(g46
g14
g15
tp317
(lp318
I00
as(g23
g23
g15
tp319
(lp320
I00
as(g33
g33
g15
tp321
(lp322
I00
as(g19
g19
g15
tp323
(lp324
I00
as(g14
g23
g15
tp325
(lp326
I00
as(g23
g22
g11
tp327
(lp328
I00
as(g18
g14
g11
tp329
(lp330
I00
as(g11
g18
g15
tp331
(lp332
I00
as(g11
g19
g15
tp333
(lp334
I00
as(g22
g15
g11
tp335
(lp336
I00
as(g14
g10
g15
tp337
(lp338
I00
as(g19
g14
g15
tp339
(lp340
I00
as(g30
g30
g15
tp341
(lp342
I00
as(g18
g30
g11
tp343
(lp344
I00
as(g22
g30
g15
tp345
(lp346
I00
as(g19
g18
g15
tp347
(lp348
I00
as(g14
g22
g11
tp349
(lp350
I01
as(g33
g19
g15
tp351
(lp352
I00
as(g33
g30
g11
tp353
(lp354
I00
as(g23
g30
g11
tp355
(lp356
I00
as(g14
g11
g15
tp357
(lp358
I00
as(g22
g46
g11
tp359
(lp360
I00
as(g46
g46
g15
tp361
(lp362
I00
as(g33
g18
g11
tp363
(lp364
I00
as(g15
g18
g15
tp365
(lp366
I00
as(g23
g46
g15
tp367
(lp368
I00
as(g15
g19
g11
tp369
(lp370
I00
as(g18
g18
g15
tp371
(lp372
I00
as(g33
g14
g11
tp373
(lp374
I00
as(g14
g23
g11
tp375
(lp376
I01
as(g15
g10
g15
tp377
(lp378
I00
as(g30
g14
g15
tp379
(lp380
I00
as(g46
g11
g11
tp381
(lp382
I00
as(g18
g14
g15
tp383
(lp384
I00
as(g46
g30
g11
tp385
(lp386
I00
as(g30
g22
g11
tp387
(lp388
I00
as(g33
g15
g15
tp389
(lp390
I00
as(g10
g14
g15
tp391
(lp392
I00
as(g19
g10
g11
tp393
(lp394
I00
as(g18
g15
g15
tp395
(lp396
I00
as(g15
g10
g11
tp397
(lp398
I00
as(g14
g18
g11
tp399
(lp400
I00
as(g22
g46
g15
tp401
(lp402
I00
as(g22
g33
g15
tp403
(lp404
I00
as(g23
g11
g11
tp405
(lp406
I00
as(g33
g18
g15
tp407
(lp408
I00
as(g33
g23
g11
tp409
(lp410
I00
as(g18
g33
g15
tp411
(lp412
I00
as(g11
g19
g11
tp413
(lp414
I00
as(g11
g46
g11
tp415
(lp416
I00
as(g19
g14
g11
tp417
(lp418
I00
as(g19
g33
g11
tp419
(lp420
I00
as(g18
g46
g11
tp421
(lp422
I00
as(g22
g30
g11
tp423
(lp424
I00
as(g22
g22
g15
tp425
(lp426
I00
as(g19
g23
g15
tp427
(lp428
I00
as(g23
g11
g15
tp429
(lp430
I00
as(g10
g11
g11
tp431
(lp432
I00
as(g14
g11
g11
tp433
(lp434
I00
as(g19
g10
g15
tp435
(lp436
I00
as(g23
g10
g11
tp437
(lp438
I00
as(g11
g15
g11
tp439
(lp440
I00
as(g18
g18
g11
tp441
(lp442
I00
as(g10
g30
g15
tp443
(lp444
I00
as(g14
g18
g15
tp445
(lp446
I00
as(g15
g22
g11
tp447
(lp448
I00
as(g30
g33
g11
tp449
(lp450
I01
as(g18
g33
g11
tp451
(lp452
I00
as(g14
g15
g11
tp453
(lp454
I00
as(g30
g22
g15
tp455
(lp456
I00
as(g11
g14
g11
tp457
(lp458
I00
as(g18
g19
g15
tp459
(lp460
I00
as(g23
g18
g15
tp461
(lp462
I00
as(g22
g22
g11
tp463
(lp464
I00
as(g19
g23
g11
tp465
(lp466
I01
as(g46
g18
g15
tp467
(lp468
I00
as(g22
g33
g11
tp469
(lp470
I00
as(g11
g23
g11
tp471
(lp472
I00
as(g30
g46
g11
tp473
(lp474
I00
as(g33
g23
g15
tp475
(lp476
I00
as(g23
g23
g11
tp477
(lp478
I00
as(g19
g33
g15
tp479
(lp480
I00
as(g22
g23
g11
tp481
(lp482
I01
as(g46
g15
g15
tp483
(lp484
I00
as(g11
g10
g11
tp485
(lp486
I00
as(g10
g15
g15
tp487
(lp488
I00
as(g11
g33
g15
tp489
(lp490
I00
as(g10
g11
g15
tp491
(lp492
I00
as(g15
g15
g15
tp493
(lp494
I00
as(g22
g18
g15
tp495
(lp496
I00
as(g33
g46
g15
tp497
(lp498
I00
as(g11
g15
g15
tp499
(lp500
I00
as(g10
g30
g11
tp501
(lp502
I00
as(g15
g14
g11
tp503
(lp504
I00
assS'pick_used'
p505
(dp506
Vrectangular_packing_box4
p507
(itrajectory_representation.operator
Operator
p508
(dp509
S'is_skeleton'
p510
I01
sS'discrete_parameters'
p511
(dp512
S'object'
p513
Vrectangular_packing_box4
p514
ssS'type'
p515
S'two_arm_pick'
p516
sS'continuous_parameters'
p517
(dp518
S'q_goal'
p519
(lp520
cnumpy.core.multiarray
_reconstruct
p521
(cnumpy
ndarray
p522
(I0
tp523
S'b'
p524
tp525
Rp526
(I1
(I3
tp527
cnumpy
dtype
p528
(S'f8'
p529
I0
I1
tp530
Rp531
(I3
S'<'
p532
NNNI-1
I-1
I0
tp533
bI00
S'\xe1\xee\xbc7\x1c\xc9\xc2\xbf\x06{?`*X\x16\xc0Tu\xb9\x08\x1c\xbe\xf1\xbf'
p534
tp535
bag521
(g522
(I0
tp536
g524
tp537
Rp538
(I1
(I3
tp539
g531
I00
S'\x17L\xf0\x92\x88\x80\xcb\xbf\xa9C4\x80H\xfd\x15\xc0\xb3\r\xd4\xcf\xe37\xe9\xbf'
p540
tp541
bag521
(g522
(I0
tp542
g524
tp543
Rp544
(I1
(I3
tp545
g531
I00
S'\xe8@\x96(\x83\n\xf0?=\x0b\xfe\xca\xdf\x01\x17\xc0\xa5b\xce\xdbM\x85\t\xc0'
p546
tp547
basS'is_feasible'
p548
I00
ssS'low_level_motion'
p549
(lp550
g521
(g522
(I0
tp551
g524
tp552
Rp553
(I1
(I3
tp554
g531
I00
S'\x1a\x1d\x99\xd7\xe3\x07\t@]\xb4\xd3U\xf5@\x18\xc0\xe3\xc1\x03\xc3\xc3\x1d\x17@'
p555
tp556
bag521
(g522
(I0
tp557
g524
tp558
Rp559
(I1
(I3
tp560
g528
(S'f8'
p561
I0
I1
tp562
Rp563
(I3
S'<'
p564
NNNI-1
I-1
I0
tp565
bI00
S'A\xec\xb55+(\x03@v\x14\x1a\xc5J\xca\x18\xc0\xe9\rA\xa0%\xbe\xc7?'
p566
tp567
bag521
(g522
(I0
tp568
g524
tp569
Rp570
(I1
(I3
tp571
g563
I00
S'\xeaT\xc2\xbf\xe4\x8d\xfb?L\xe4y~t"\x18\xc0\x0f\x12ob\\\x05\x0b@'
p572
tp573
bag544
asbsVrectangular_packing_box2
p574
(itrajectory_representation.operator
Operator
p575
(dp576
g510
I01
sg511
(dp577
g513
Vrectangular_packing_box2
p578
ssg515
g516
sg517
(dp579
g519
(lp580
g521
(g522
(I0
tp581
g524
tp582
Rp583
(I1
(I3
tp584
g531
I00
S'\x91\x07\xbd)b\xbe\xfb?\t\x85t\x92\x153\x18\xc0\x82\xc6\xaf\xc59L\xdb\xbf'
p585
tp586
bag521
(g522
(I0
tp587
g524
tp588
Rp589
(I1
(I3
tp590
g531
I00
S'Z%SSZ\x02\x05@E\xa1dRg \x1e\xc0\xdd2Yo\x08\x01\x00@'
p591
tp592
bag521
(g522
(I0
tp593
g524
tp594
Rp595
(I1
(I3
tp596
g531
I00
S'\\\xcb,\x86\xdc\x8b\x00@[\x82\xd4\xc5\xd4\x10\x18\xc02\xc0$\xccy\xd6\xee\xbf'
p597
tp598
basg548
I00
ssg549
(lp599
g521
(g522
(I0
tp600
g524
tp601
Rp602
(I1
(I3
tp603
g531
I00
S'\x1a\x1d\x99\xd7\xe3\x07\t@]\xb4\xd3U\xf5@\x18\xc0\xe3\xc1\x03\xc3\xc3\x1d\x17@'
p604
tp605
bag521
(g522
(I0
tp606
g524
tp607
Rp608
(I1
(I3
tp609
g563
I00
S'\x16\x9e\xd06H\xd3\x04@\xe5\xe1\xfb\xc5\xb8\xd1\x16\xc0es\x86\x03\xdb\x8e\x17@'
p610
tp611
bag521
(g522
(I0
tp612
g524
tp613
Rp614
(I1
(I3
tp615
g563
I00
S'\x00\xda\x1c<\xfd\xdc\x00@j"\x91\xe3 \x1a\x18\xc0i~!@)\xb0\xdc\xbf'
p616
tp617
bag595
asbsVrectangular_packing_box3
p618
(itrajectory_representation.operator
Operator
p619
(dp620
g510
I01
sg511
(dp621
g513
Vrectangular_packing_box3
p622
ssg515
g516
sg517
(dp623
g519
(lp624
g521
(g522
(I0
tp625
g524
tp626
Rp627
(I1
(I3
tp628
g531
I00
S'\xe5\xfb\xaaE\x8f\xc1\xe5?\xb9\xa6\xc5gY\x12\x1f\xc0])%M\x96\x93\x08@'
p629
tp630
bag521
(g522
(I0
tp631
g524
tp632
Rp633
(I1
(I3
tp634
g531
I00
S'\x94\xc3\xfbV\x05J\xdb?\xff{\xafnm5\x1b\xc0\xcb\xe3\xb3\xbaBQ\x00\xc0'
p635
tp636
bag521
(g522
(I0
tp637
g524
tp638
Rp639
(I1
(I3
tp640
g531
I00
S'\xca\xf0\x99by\xfe\xe7?\xa0"\xc5\xafi\x18\x1f\xc0\x80\x81\xfe\xc56\x0f\x07@'
p641
tp642
basg548
I00
ssg549
(lp643
g521
(g522
(I0
tp644
g524
tp645
Rp646
(I1
(I3
tp647
g531
I00
S'\x1a\x1d\x99\xd7\xe3\x07\t@]\xb4\xd3U\xf5@\x18\xc0\xe3\xc1\x03\xc3\xc3\x1d\x17@'
p648
tp649
bag521
(g522
(I0
tp650
g524
tp651
Rp652
(I1
(I3
tp653
g563
I00
S'0\xaf\xd4\xd6]V\x04@\xae\x11\x8b;Ad\x19\xc0\xe0\x95\x12l-L\x03\xc0'
p654
tp655
bag521
(g522
(I0
tp656
g524
tp657
Rp658
(I1
(I3
tp659
g563
I00
S'\xc2Fo\n7\x11\x03@\xb6=Ya.\xe0\x1a\xc0,\x0b\x04&"Y\x07\xc0'
p660
tp661
bag521
(g522
(I0
tp662
g524
tp663
Rp664
(I1
(I3
tp665
g563
I00
S'\xc4_\xf9\x03N\xba\x00@R\xfd8\x1fs\r\x1d\xc0\xa1\xe6w68\xd4\x03\xc0'
p666
tp667
bag521
(g522
(I0
tp668
g524
tp669
Rp670
(I1
(I3
tp671
g563
I00
S'S@\xf8l\x95\x08\xf8?\xef\x91If\xa4L\x1e\xc0\x8b\xc5pa\xf4C\x04\xc0'
p672
tp673
bag639
asbsVrectangular_packing_box1
p674
(itrajectory_representation.operator
Operator
p675
(dp676
g510
I01
sg511
(dp677
g513
Vrectangular_packing_box1
p678
ssg515
g516
sg517
(dp679
g519
(lp680
g521
(g522
(I0
tp681
g524
tp682
Rp683
(I1
(I3
tp684
g531
I00
S'Y\xca\xc0\xcf\xd9[\xf0?\xff/#\xddH6\x15\xc0J#\xbeM\xbe$\xf2\xbf'
p685
tp686
bag521
(g522
(I0
tp687
g524
tp688
Rp689
(I1
(I3
tp690
g531
I00
S'J\x87Zb\xfc\x0f\xfa?.\xb0\xcdN\xd7x\x1a\xc0\xb0\xf6\xaa+jH\xfd?'
p691
tp692
bag521
(g522
(I0
tp693
g524
tp694
Rp695
(I1
(I3
tp696
g531
I00
S'&1>0\x8a\x8c\xf9?\x93\x90>\x82\xfb\xec\x1a\xc0\xef\x9c\x19\x05S\xe5\xf8?'
p697
tp698
bag521
(g522
(I0
tp699
g524
tp700
Rp701
(I1
(I3
tp702
g531
I00
S'\x1d\x94\xe3j\xcc\x8c\xe2?\x88U\x1dv\xaaL\x19\xc0Ig\xce\xd5\x1f~\xd3?'
p703
tp704
bag521
(g522
(I0
tp705
g524
tp706
Rp707
(I1
(I3
tp708
g531
I00
S' \x9e1\xd4y}\xf7?\xc2\xaa\x00\x1e\xfa&\x1b\xc0Z\xa2\xbcma\xc2\x01@'
p709
tp710
basg548
I00
ssg549
(lp711
g521
(g522
(I0
tp712
g524
tp713
Rp714
(I1
(I3
tp715
g531
I00
S'\x1a\x1d\x99\xd7\xe3\x07\t@]\xb4\xd3U\xf5@\x18\xc0\xe3\xc1\x03\xc3\xc3\x1d\x17@'
p716
tp717
bag521
(g522
(I0
tp718
g524
tp719
Rp720
(I1
(I3
tp721
g563
I00
S'\xe5\x81\x88\x94\xfea\t@\xb6\xf7\xb8\xeb\xb6\x8a\x1a\xc0:+\xe8\xa7\xe2a\x16@'
p722
tp723
bag521
(g522
(I0
tp724
g524
tp725
Rp726
(I1
(I3
tp727
g563
I00
S'\xba\x8d\x1a\xa2f&\x03@$\xbc\xba{lE\x1a\xc0172\n\x8c\xab\x03@'
p728
tp729
bag689
asbsVsquare_packing_box2
p730
(itrajectory_representation.operator
Operator
p731
(dp732
g510
I01
sg511
(dp733
g513
Vsquare_packing_box2
p734
ssg515
g516
sg517
(dp735
g519
(lp736
g521
(g522
(I0
tp737
g524
tp738
Rp739
(I1
(I3
tp740
g531
I00
S'\x08<\xcb\x84%_\x0e@Fb\x19\xdf/\x0e\x1c\xc0\xd5\t\xc4E\xe0{\xf7?'
p741
tp742
bag521
(g522
(I0
tp743
g524
tp744
Rp745
(I1
(I3
tp746
g531
I00
S'-\x87r@\x1cO\x0c@L\x00\xe8\xa2\x9a\x0f\x1c\xc0j\xa3\x10Lc\xd9\xe7?'
p747
tp748
bag521
(g522
(I0
tp749
g524
tp750
Rp751
(I1
(I3
tp752
g531
I00
S'J\xe8\x10f\x817\x0c@\xb1\x16\x1a\xa4:}\x1c\xc0!\x0b\xdb\x84V\xf8\xf6?'
p753
tp754
bag521
(g522
(I0
tp755
g524
tp756
Rp757
(I1
(I3
tp758
g531
I00
S'\x1d\xdbLB!X\t@\x11\xc0\x0e\xbdw%\x18\xc0\x8f[n\x02\xe0w\xe0\xbf'
p759
tp760
bag521
(g522
(I0
tp761
g524
tp762
Rp763
(I1
(I3
tp764
g531
I00
S'\x07"~d\x9b\x04\n@\xcc)\xb1f\x13\x82\x1b\xc0\xbe\xe6\xb8\xab\x90\xb3\xf0?'
p765
tp766
basg548
I00
ssg549
(lp767
g521
(g522
(I0
tp768
g524
tp769
Rp770
(I1
(I3
tp771
g531
I00
S'\x1a\x1d\x99\xd7\xe3\x07\t@]\xb4\xd3U\xf5@\x18\xc0\xe3\xc1\x03\xc3\xc3\x1d\x17@'
p772
tp773
bag757
asbsVsquare_packing_box3
p774
(itrajectory_representation.operator
Operator
p775
(dp776
g510
I01
sg511
(dp777
g513
Vsquare_packing_box3
p778
ssg515
g516
sg517
(dp779
g519
(lp780
g521
(g522
(I0
tp781
g524
tp782
Rp783
(I1
(I3
tp784
g531
I00
S'a\xc8\xacwl\xa9\x05@\x8eL\xa6~\x15\xe6\x1c\xc0\xe1\xc6r\xb24H\xea\xbf'
p785
tp786
bag521
(g522
(I0
tp787
g524
tp788
Rp789
(I1
(I3
tp790
g531
I00
S'9\x1fG5\xaf\r\x0e@\x8c\x1fn\x15\x89\x17 \xc0l\xa7B\x95\x1f/\x01@'
p791
tp792
bag521
(g522
(I0
tp793
g524
tp794
Rp795
(I1
(I3
tp796
g531
I00
S')b<|\xd6D\x05@\xcd\x9b/\xe0\xab\x8c\x1c\xc0\xac-DkM\xdf\xe3\xbf'
p797
tp798
basg548
I00
ssg549
(lp799
g521
(g522
(I0
tp800
g524
tp801
Rp802
(I1
(I3
tp803
g531
I00
S'\x1a\x1d\x99\xd7\xe3\x07\t@]\xb4\xd3U\xf5@\x18\xc0\xe3\xc1\x03\xc3\xc3\x1d\x17@'
p804
tp805
bag521
(g522
(I0
tp806
g524
tp807
Rp808
(I1
(I3
tp809
g563
I00
S'A\xec\xb55+(\x03@v\x14\x1a\xc5J\xca\x18\xc0\xe9\rA\xa0%\xbe\xc7?'
p810
tp811
bag521
(g522
(I0
tp812
g524
tp813
Rp814
(I1
(I3
tp815
g563
I00
S'\xca\xbc\xd1\x14\xab\xdb\x03@\x1d\xe31\xd0\xab\xb7\x1a\xc0\xbe\x9cO\xe2\x184\x13@'
p816
tp817
bag795
asbsVsquare_packing_box1
p818
(itrajectory_representation.operator
Operator
p819
(dp820
g510
I01
sg511
(dp821
g513
Vsquare_packing_box1
p822
ssg515
g516
sg517
(dp823
g519
(lp824
g521
(g522
(I0
tp825
g524
tp826
Rp827
(I1
(I3
tp828
g531
I00
S'\xb8\x9ct\x99Y\x93\x0e@\xa6\x82\x19\x7fa\xb4\x17\xc0\x0c\x07\x97\xeb\xfc\n\x00@'
p829
tp830
bag521
(g522
(I0
tp831
g524
tp832
Rp833
(I1
(I3
tp834
g531
I00
S'\xf0^\xef\x9djg\x0b@\x07\x94\xb6\xd3\x8f~\x18\xc0Bx\x0c\xcbf\xe5\xfe?'
p835
tp836
bag521
(g522
(I0
tp837
g524
tp838
Rp839
(I1
(I3
tp840
g531
I00
S'\xc4\xdc\xf4\xda\x03v\x06@\x94\x18_H\xa8\xe9\x15\xc0D\xab\x1bg,\x98\xe0?'
p841
tp842
basg548
I00
ssg549
(lp843
g521
(g522
(I0
tp844
g524
tp845
Rp846
(I1
(I3
tp847
g531
I00
S'\x1a\x1d\x99\xd7\xe3\x07\t@]\xb4\xd3U\xf5@\x18\xc0\xe3\xc1\x03\xc3\xc3\x1d\x17@'
p848
tp849
bag521
(g522
(I0
tp850
g524
tp851
Rp852
(I1
(I3
tp853
g563
I00
S'\x9c\xd4w\x9c\x04/\t@\x8b\xccu\xcb^\x9d\x18\xc0*\x8aycbt\xf5\xbf'
p854
tp855
bag521
(g522
(I0
tp856
g524
tp857
Rp858
(I1
(I3
tp859
g563
I00
S'\x19\xdbXU\x9c\xa8\x04@\xe6\xf1\xeb\xae\xcb\x05\x18\xc0\xce\x9cp\x98\xaf*\xeb?'
p860
tp861
bag839
asbsVsquare_packing_box4
p862
(itrajectory_representation.operator
Operator
p863
(dp864
g510
I01
sg511
(dp865
g513
Vsquare_packing_box4
p866
ssg515
g516
sg517
(dp867
g519
(lp868
g521
(g522
(I0
tp869
g524
tp870
Rp871
(I1
(I3
tp872
g531
I00
S'\xb6\xdc\xa0]\xb4\xb3\xed?a\xb9\xcf\x1f\xa8Q\x13\xc0x{\x0cpr\x06\xf8\xbf'
p873
tp874
bag521
(g522
(I0
tp875
g524
tp876
Rp877
(I1
(I3
tp878
g531
I00
S"\xda\xbc\x08\xcd\xa0\xd3\xe8?\x95\xe8\x8e\x11\xcd\xc4\x13\xc0\xf7\xfe\xcd'\xcd\x89\xf6\xbf"
p879
tp880
bag521
(g522
(I0
tp881
g524
tp882
Rp883
(I1
(I3
tp884
g531
I00
S'\xdc4\xec\x12j\xa2\xf1?\x16X\x81\xf7\x02\xe8\x19\xc0\x19\x02n)J!\xf2?'
p885
tp886
basg548
I00
ssg549
(lp887
g521
(g522
(I0
tp888
g524
tp889
Rp890
(I1
(I3
tp891
g531
I00
S'\x1a\x1d\x99\xd7\xe3\x07\t@]\xb4\xd3U\xf5@\x18\xc0\xe3\xc1\x03\xc3\xc3\x1d\x17@'
p892
tp893
bag521
(g522
(I0
tp894
g524
tp895
Rp896
(I1
(I3
tp897
g563
I00
S'/\x08\xfbO\x0f\xe3\x04@j\xb9\xdeR\x8bv\x1a\xc0Nw\xbd\xbe\xd2\x01\xfd\xbf'
p898
tp899
bag521
(g522
(I0
tp900
g524
tp901
Rp902
(I1
(I3
tp903
g563
I00
S'd"x~\xf6\x99\x00@\xe4\xfe\xc6G\x1d\xfb\x1b\xc0\x98\xbd;g\xb8\x8f\xf5\xbf'
p904
tp905
bag521
(g522
(I0
tp906
g524
tp907
Rp908
(I1
(I3
tp909
g563
I00
S'JyH\x8ez\xd6\xfa?\xb3\xf7h\x83\xea\xba\x1a\xc0u\xf9Uf\xb7m\xe0?'
p910
tp911
bag883
asbssS'use_prm'
p912
I01
sS'object_names'
p913
(lp914
S'square_packing_box1'
p915
aS'rectangular_packing_box1'
p916
aS'square_packing_box2'
p917
aS'rectangular_packing_box2'
p918
aS'square_packing_box3'
p919
aS'rectangular_packing_box3'
p920
aS'square_packing_box4'
p921
aS'rectangular_packing_box4'
p922
asg7
NsS'current_holding_collides'
p923
(dp924
Vrectangular_packing_box4
p925
c__builtin__
set
p926
((lp927
tp928
Rp929
sVrectangular_packing_box2
p930
g926
((lp931
I256
aI514
aI449
aI268
aI194
aI219
aI145
aI146
aI538
aI413
aI35
aI36
aI37
aI422
aI220
aI556
aI302
aI303
aI561
aI178
aI179
aI54
aI55
aI443
aI188
aI62
aI63
aI64
aI65
aI66
aI67
aI68
aI69
aI435
aI577
aI205
aI79
aI80
aI210
aI595
aI215
aI89
aI90
aI91
aI92
aI605
aI611
aI550
aI438
aI444
aI114
aI115
aI372
aI376
aI511
atp932
Rp933
sVrectangular_packing_box3
p934
g926
((lp935
I384
aI257
aI133
aI134
aI135
aI136
aI265
aI394
aI580
aI532
aI153
aI154
aI157
aI158
aI159
aI164
aI433
aI564
aI521
aI575
aI452
aI197
aI583
aI328
aI589
aI83
aI346
aI478
aI356
aI229
aI366
aI502
aI121
aI122
atp936
Rp937
sVrectangular_packing_box1
p938
g926
((lp939
I554
aI4
aI5
aI137
aI132
aI517
aI416
aI161
aI34
aI35
aI42
aI43
aI301
aI584
aI178
aI309
aI310
aI55
aI56
aI570
aI187
aI449
aI459
aI70
aI71
aI456
aI201
aI202
aI203
aI162
aI82
aI163
aI84
aI597
aI89
aI92
aI93
aI94
aI607
aI327
aI484
aI233
aI106
aI107
aI108
aI497
aI595
aI379
aI252
aI362
atp940
Rp941
sVsquare_packing_box2
p942
g926
((lp943
I0
aI1
aI144
aI545
aI425
aI302
aI303
aI307
aI438
aI442
aI193
aI453
aI457
aI343
aI473
aI474
aI612
aI367
aI368
aI369
aI370
aI500
aI246
aI247
aI248
aI377
atp944
Rp945
sVsquare_packing_box3
p946
g926
((lp947
I513
aI386
aI387
aI260
aI269
aI270
aI515
aI405
aI280
aI436
aI565
aI440
aI442
aI573
aI193
aI68
aI210
aI339
aI340
aI213
aI220
aI479
aI354
aI613
aI614
aI111
aI112
aI113
aI211
aI245
aI375
aI212
aI381
aI254
aI255
atp948
Rp949
sVsquare_packing_box1
p950
g926
((lp951
I0
aI1
aI546
aI454
aI545
aI393
aI555
aI541
aI144
aI369
aI370
aI371
aI342
aI377
aI378
aI571
aI474
atp952
Rp953
sVsquare_packing_box4
p954
g926
((lp955
I235
aI132
aI517
aI6
aI8
aI301
aI554
aI404
aI416
aI33
aI34
aI607
aI584
aI42
aI43
aI44
aI45
aI456
aI309
aI56
aI186
aI187
aI189
aI459
aI196
aI71
aI72
aI203
aI162
aI595
aI84
aI93
aI94
aI95
aI327
aI484
aI233
aI106
aI107
aI108
aI445
aI497
aI503
aI252
aI234
aI383
atp956
Rp957
ssS'reachable_regions_while_holding'
p958
(lp959
(g507
g15
tp960
a(g574
g15
tp961
a(g618
g15
tp962
a(g674
g15
tp963
a(g730
g15
tp964
a(g774
g15
tp965
a(g818
g15
tp966
a(g862
g15
tp967
a(g507
g11
tp968
a(g774
g11
tp969
a(g862
g11
tp970
asS'object_poses'
p971
(dp972
Vrectangular_packing_box4
p973
g521
(g522
(I0
tp974
g524
tp975
Rp976
(I1
(I1
I3
tp977
g531
I00
S'x\x1e]pS`\xd2?\x12\x1b\xb6\xe9Ei\x18\xc0\x82\x97\xe8\xa1t:\xe4?'
p978
tp979
bsVrectangular_packing_box2
p980
g521
(g522
(I0
tp981
g524
tp982
Rp983
(I1
(I1
I3
tp984
g531
I00
S'x#\x8a\xa8\xbfB\x02@]@\xdd\xaa0\xf7\x1a\xc0\xa2\x93\xe4\xf2\xe3\x8f\xe0?'
p985
tp986
bsVrectangular_packing_box3
p987
g521
(g522
(I0
tp988
g524
tp989
Rp990
(I1
(I1
I3
tp991
g531
I00
S'h\xa3$/\t\xb1\xb0?r\xd9\xd7\x88y7\x1e\xc0\xa1\xa8\xa4gcb\x12@'
p992
tp993
bsVrectangular_packing_box1
p994
g521
(g522
(I0
tp995
g524
tp996
Rp997
(I1
(I1
I3
tp998
g531
I00
S'\xf71, \xdaJ\xf5?\x8f\x94\xc7_\x9e4\x18\xc0\x88,&\x8ck,\x0b@'
p999
tp1000
bsVsquare_packing_box2
p1001
g521
(g522
(I0
tp1002
g524
tp1003
Rp1004
(I1
(I1
I3
tp1005
g531
I00
S'\xd2g\x0f\x13:\xfe\r@5/H\xad\x96u\x19\xc0\xb94\xd4\xa7X\xae\x11@'
p1006
tp1007
bsVsquare_packing_box3
p1008
g521
(g522
(I0
tp1009
g524
tp1010
Rp1011
(I1
(I1
I3
tp1012
g531
I00
S'(\xc7\x84Ad\xa3\n@\xa5\xaf\xb2\x18;\x05\x1e\xc0j8\xf9\x85\xb6\xac\x0f@'
p1013
tp1014
bsVsquare_packing_box1
p1015
g521
(g522
(I0
tp1016
g524
tp1017
Rp1018
(I1
(I1
I3
tp1019
g531
I00
S'\x1a\xcf\x19\xc3\xf23\x0c@\x90\xb5r\xad\x0f?\x15\xc0\xbf~a\xe9h\n\x13@'
p1020
tp1021
bsVsquare_packing_box4
p1022
g521
(g522
(I0
tp1023
g524
tp1024
Rp1025
(I1
(I1
I3
tp1026
g531
I00
S'\x9c\xce\xcef\xfe\xbb\xf0?L@\xfc\xa1\x9e\xc0\x16\xc0\xaeKe\x14U\xf8\x13@'
p1027
tp1028
bssS'place_in_way'
p1029
(itrajectory_representation.predicates.place_in_way
PlaceInWay
p1030
(dp1031
S'mc_path_to_entity'
p1032
(dp1033
(g14
g11
tp1034
(lp1035
g521
(g522
(I0
tp1036
g524
tp1037
Rp1038
(I1
(I3
tp1039
g531
I00
S'\xb8\x9ct\x99Y\x93\x0e@\xa3\x82\x19\x7fa\xb4\x17\xc0\x0c\x07\x97\xeb\xfc\n\x00@'
p1040
tp1041
bag521
(g522
(I0
tp1042
g524
tp1043
Rp1044
(I1
(I3
tp1045
g563
I00
S'\xcb\x1a\x84\x1d\\\x9c\x08@\xec\xcbi\xc9#;\x18\xc0\xbf\xf24g\x02T\x05@'
p1046
tp1047
bag521
(g522
(I0
tp1048
g524
tp1049
Rp1050
(I1
(I3
tp1051
g563
I00
S'\xf8d\x877\x12\xfd\x04@h\xdbW\x9a\x83\x8e\x16\xc0\x87\xf16\xb9\x03k\x05@'
p1052
tp1053
bag521
(g522
(I0
tp1054
g524
tp1055
Rp1056
(I1
(I3
tp1057
g563
I00
S'\xc7\xc7\x06s\xd6\xa3\xff?3\x91\xe4\x97\xb5\x07\x16\xc0\x1bW\xbc\xbfY:\x06@'
p1058
tp1059
bag521
(g522
(I0
tp1060
g524
tp1061
Rp1062
(I1
(I3
tp1063
g563
I00
S'\x85\\2\xba\x0b5\xf5?I\r\x06\xd10\xfb\x15\xc0\x9e\x11\xee\xd8\xb9\xd7\xf5?'
p1064
tp1065
bag521
(g522
(I0
tp1066
g524
tp1067
Rp1068
(I1
(I3
tp1069
g563
I00
S'v\xb8^\x85\xa7[\xea?x\xbe\xff2t\x8d\x13\xc0\x88\x85\x8cCyH\xf6?'
p1070
tp1071
bag521
(g522
(I0
tp1072
g524
tp1073
Rp1074
(I1
(I3
tp1075
g563
I00
S'\xc2\xda(e\x83\x1a\xeb?\x8au\x8d3\xa6E\x11\xc0\xb4c\x1b\xed_\xfd\xfa?'
p1076
tp1077
bag521
(g522
(I0
tp1078
g524
tp1079
Rp1080
(I1
(I3
tp1081
g563
I00
S'\xe4u**\x0e5\xe9?\xaa\xfd\r\xed\xc4\xf6\r\xc0\x0fDE0\x1f\x0b\xfe?'
p1082
tp1083
bag521
(g522
(I0
tp1084
g524
tp1085
Rp1086
(I1
(I3
tp1087
g563
I00
S'\x06\x11,\xef\x98O\xe7??\x10\x01s=b\t\xc04\x92\xb79o\x8c\x00@'
p1088
tp1089
bag521
(g522
(I0
tp1090
g524
tp1091
Rp1092
(I1
(I3
tp1093
g563
I00
S'\x92\xaf\xf3P\x96O\xc2?(\xa1:\x8er}\x05\xc0\xd4_\x91\xb3\xffL\x02@'
p1094
tp1095
bas(g10
g11
tp1096
(lp1097
g521
(g522
(I0
tp1098
g524
tp1099
Rp1100
(I1
(I3
tp1101
g531
I00
S'\x8b\x07\xbd)b\xbe\xfb?\t\x85t\x92\x153\x18\xc0\xb00\xe9\xb77m\x17@'
p1102
tp1103
bag521
(g522
(I0
tp1104
g524
tp1105
Rp1106
(I1
(I3
tp1107
g563
I00
S'N\xcd\xaa\x1e;\x0f\xee?&\xa8j\x7f\xa2\xe5\x17\xc0\xc1rR\xf6\xd1Y\xe0\xbf'
p1108
tp1109
bag521
(g522
(I0
tp1110
g524
tp1111
Rp1112
(I1
(I3
tp1113
g563
I00
S'\xbc\xcaD\xb3\xa5\xd0\xda?5\x9e\xd8L\xbc\xff\x15\xc0\x86v/\xef\x06;\xe9\xbf'
p1114
tp1115
bag521
(g522
(I0
tp1116
g524
tp1117
Rp1118
(I1
(I3
tp1119
g563
I00
S"\xb2&6mg)\xe8?\x99\xe0G'\x16\xe0\x13\xc0\xc8oL\xf5\x17p\xe6\xbf"
p1120
tp1121
bag521
(g522
(I0
tp1122
g524
tp1123
Rp1124
(I1
(I3
tp1125
g563
I00
S'`\xc8Aw-\x81\xeb?/\xc3\xe6O\x04\xca\x10\xc0\x8a\xb7K)\x91{\xe4\xbf'
p1126
tp1127
bag521
(g522
(I0
tp1128
g524
tp1129
Rp1130
(I1
(I3
tp1131
g563
I00
S'\xe1\xc6\xc7\xa7\x12X\xe7?\x98\x99\xb0\x9a\xfb\xdb\x0b\xc0R\t\x1b)\xeae\xe0\xbf'
p1132
tp1133
bag521
(g522
(I0
tp1134
g524
tp1135
Rp1136
(I1
(I3
tp1137
g563
I00
S'p\xf1\xbdc^\x84\xf1?"\x88LL\xf9D\x06\xc0~w\r\xe9m\x0f\x19@'
p1138
tp1139
bas(g30
g11
tp1140
(lp1141
g521
(g522
(I0
tp1142
g524
tp1143
Rp1144
(I1
(I3
tp1145
g531
I00
S'\xe8\xfb\xaaE\x8f\xc1\xe5?\xba\xa6\xc5gY\x12\x1f\xc0])%M\x96\x93\x08@'
p1146
tp1147
bag521
(g522
(I0
tp1148
g524
tp1149
Rp1150
(I1
(I3
tp1151
g563
I00
S'\xd23W\xd6\xdd\xe3\xe6?\xdc\xcai,~\xa9\x1c\xc0\xe4\x03\x93/\x16_\x04\xc0'
p1152
tp1153
bag521
(g522
(I0
tp1154
g524
tp1155
Rp1156
(I1
(I3
tp1157
g563
I00
S'\xf8\xfc\x1a\xd0\xc9l\xe8?\x8a\x897\x8e~\x98\x1a\xc0\xaf\xf7\xb87\xc6\xa7\x01\xc0'
p1158
tp1159
bag521
(g522
(I0
tp1160
g524
tp1161
Rp1162
(I1
(I3
tp1163
g563
I00
S"\xc6'8AN\xb0\xec?\xe0\x975>\x0f\x03\x19\xc0(\xe0e;\x85\x89\x05\xc0"
p1164
tp1165
bag521
(g522
(I0
tp1166
g524
tp1167
Rp1168
(I1
(I3
tp1169
g563
I00
S'\xd0\xcb\x13\x8f\xaa\x9d\xed?\x90\x01<]3\x06\x16\xc0F\xf1\xe7x32\x02\xc0'
p1170
tp1171
bag521
(g522
(I0
tp1172
g524
tp1173
Rp1174
(I1
(I3
tp1175
g563
I00
S'l[\xc4\x16<\xe6\xe9?\xa6\xa0\x90\x84X\x9f\x13\xc0\xc2\xd74Q\x00\xaf\xff\xbf'
p1176
tp1177
bag521
(g522
(I0
tp1178
g524
tp1179
Rp1180
(I1
(I3
tp1181
g563
I00
S"\xaeJ\xbd\x1936\xec?\x04\x13\xd4'\x9f\x88\x10\xc0\x805qo\xb6\xe6\xff\xbf"
p1182
tp1183
bag521
(g522
(I0
tp1184
g524
tp1185
Rp1186
(I1
(I3
tp1187
g563
I00
S'\xf09\xb6\x1c*\x86\xee?\xc4\n/\x96\xcb\xe3\n\xc0\xa0\xc9\xd6F6\x0f\x00\xc0'
p1188
tp1189
bag521
(g522
(I0
tp1190
g524
tp1191
Rp1192
(I1
(I3
tp1193
g563
I00
S'3\xe9\xaf\x05T\x89\xe7?+~\xcb\xd3\x15\xc7\x04\xc0x6(d5\xed\x07@'
p1194
tp1195
bas(g19
g11
tp1196
(lp1197
g521
(g522
(I0
tp1198
g524
tp1199
Rp1200
(I1
(I3
tp1201
g531
I00
S'\\\xca\xc0\xcf\xd9[\xf0?\xff/#\xddH6\x15\xc0F\xa4\xd4\xc0\xcb\x98\x14@'
p1202
tp1203
bag521
(g522
(I0
tp1204
g524
tp1205
Rp1206
(I1
(I3
tp1207
g563
I00
S'\x16nfXE \xf2?\x06\xf1|#c\xe6\x12\xc08\x98\x8f,\xc1@\x04\xc0'
p1208
tp1209
bag521
(g522
(I0
tp1210
g524
tp1211
Rp1212
(I1
(I3
tp1213
g563
I00
S'\xc1E\xbb\x1b\xed\x13\xf3?\xca\xdcw\xec\x1a\x18\x10\xc0j\xed\xec2j\x8c\x04\xc0'
p1214
tp1215
bag521
(g522
(I0
tp1216
g524
tp1217
Rp1218
(I1
(I3
tp1219
g563
I00
S'\xf09\xb6\x1c*\x86\xee?\xc4\n/\x96\xcb\xe3\n\xc0\xa0\xc9\xd6F6\x0f\x00\xc0'
p1220
tp1221
bag521
(g522
(I0
tp1222
g524
tp1223
Rp1224
(I1
(I3
tp1225
g563
I00
S'3\xe9\xaf\x05T\x89\xe7?+~\xcb\xd3\x15\xc7\x04\xc0x6(d5\xed\x07@'
p1226
tp1227
bas(g22
g11
tp1228
(lp1229
g521
(g522
(I0
tp1230
g524
tp1231
Rp1232
(I1
(I3
tp1233
g531
I00
S'\x08<\xcb\x84%_\x0e@Fb\x19\xdf/\x0e\x1c\xc0\xd6\t\xc4E\xe0{\xf7?'
p1234
tp1235
bag521
(g522
(I0
tp1236
g524
tp1237
Rp1238
(I1
(I3
tp1239
g563
I00
S'\xd3s\x0b\xfa\xdf\xd9\x08@\xc52\xb7\xa7\x86L\x1b\xc0\xca\xe2\x95Rh\xea\xf6?'
p1240
tp1241
bag521
(g522
(I0
tp1242
g524
tp1243
Rp1244
(I1
(I3
tp1245
g563
I00
S'\x80e\xcc\t\x9a\xde\x04@<\x13[@\x0e\xa9\x19\xc0\xca\xb9\x9c\x08\r\xad\xf4?'
p1246
tp1247
bag521
(g522
(I0
tp1248
g524
tp1249
Rp1250
(I1
(I3
tp1251
g563
I00
S'\xb1\x91\x83\xd6J:\x00@X\xbf\x9b\xa3\xf7;\x19\xc0\xb4\xa9\x94\xff\xff\xd1\xec?'
p1252
tp1253
bag521
(g522
(I0
tp1254
g524
tp1255
Rp1256
(I1
(I3
tp1257
g563
I00
S'j\xc7\xc0&\x8ag\xf6?h\x9cH4\x7f\xab\x18\xc0\xd8|\x1d\xfc\xcbV\xf2?'
p1258
tp1259
bag521
(g522
(I0
tp1260
g524
tp1261
Rp1262
(I1
(I3
tp1263
g563
I00
S'\x85\\2\xba\x0b5\xf5?I\r\x06\xd10\xfb\x15\xc0\x9e\x11\xee\xd8\xb9\xd7\xf5?'
p1264
tp1265
bag521
(g522
(I0
tp1266
g524
tp1267
Rp1268
(I1
(I3
tp1269
g563
I00
S'v\xb8^\x85\xa7[\xea?x\xbe\xff2t\x8d\x13\xc0\x88\x85\x8cCyH\xf6?'
p1270
tp1271
bag521
(g522
(I0
tp1272
g524
tp1273
Rp1274
(I1
(I3
tp1275
g563
I00
S'\xc2\xda(e\x83\x1a\xeb?\x8au\x8d3\xa6E\x11\xc0\xb4c\x1b\xed_\xfd\xfa?'
p1276
tp1277
bag521
(g522
(I0
tp1278
g524
tp1279
Rp1280
(I1
(I3
tp1281
g563
I00
S'\xe4u**\x0e5\xe9?\xaa\xfd\r\xed\xc4\xf6\r\xc0\x0fDE0\x1f\x0b\xfe?'
p1282
tp1283
bag521
(g522
(I0
tp1284
g524
tp1285
Rp1286
(I1
(I3
tp1287
g563
I00
S'\x06\x11,\xef\x98O\xe7??\x10\x01s=b\t\xc04\x92\xb79o\x8c\x00@'
p1288
tp1289
bag521
(g522
(I0
tp1290
g524
tp1291
Rp1292
(I1
(I3
tp1293
g563
I00
S'\x92\xaf\xf3P\x96O\xc2?(\xa1:\x8er}\x05\xc0\xd4_\x91\xb3\xffL\x02@'
p1294
tp1295
bassS'mc_to_entity'
p1296
(dp1297
(g14
g11
tp1298
(lp1299
Vsquare_packing_box2
p1300
aVrectangular_packing_box1
p1301
aVsquare_packing_box4
p1302
as(g10
g11
tp1303
(lp1304
Vrectangular_packing_box1
p1305
aVsquare_packing_box4
p1306
aVrectangular_packing_box4
p1307
as(g30
g11
tp1308
(lp1309
Vrectangular_packing_box1
p1310
aVsquare_packing_box4
p1311
aVrectangular_packing_box4
p1312
as(g19
g11
tp1313
(lp1314
Vsquare_packing_box4
p1315
as(g22
g11
tp1316
(lp1317
Vrectangular_packing_box2
p1318
aVrectangular_packing_box1
p1319
aVsquare_packing_box4
p1320
assS'reachable_entities'
p1321
(lp1322
g574
ag730
ag818
asS'collides'
p1323
(dp1324
Vrectangular_packing_box4
p1325
g926
((lp1326
I491
aI132
aI517
aI6
aI137
aI138
aI139
aI276
aI152
aI153
aI154
aI157
aI417
aI34
aI547
aI165
aI166
aI424
aI553
aI584
aI521
aI196
aI198
aI456
aI518
aI459
aI338
aI84
aI349
aI350
aI351
aI362
aI107
aI108
aI503
aI249
aI252
aI383
atp1327
Rp1328
sVrectangular_packing_box2
p1329
g926
((lp1330
I256
aI577
aI268
aI194
aI145
aI538
aI413
aI219
aI36
aI37
aI422
aI220
aI561
aI178
aI179
aI54
aI443
aI188
aI63
aI64
aI65
aI66
aI69
aI435
aI205
aI79
aI80
aI595
aI215
aI89
aI90
aI91
aI92
aI444
aI114
aI115
aI376
aI511
atp1331
Rp1332
sVrectangular_packing_box3
p1333
g926
((lp1334
I384
aI257
aI134
aI265
aI394
aI532
aI580
aI158
aI159
aI164
aI433
aI564
aI575
aI452
aI583
aI328
aI589
aI83
aI478
aI356
aI229
aI366
aI502
atp1335
Rp1336
sVrectangular_packing_box1
p1337
g926
((lp1338
I4
aI5
aI137
aI132
aI416
aI161
aI34
aI35
aI554
aI43
aI301
aI584
aI309
aI310
aI55
aI56
aI570
aI187
aI449
aI70
aI327
aI456
aI201
aI202
aI203
aI162
aI595
aI84
aI597
aI93
aI94
aI607
aI484
aI233
aI106
aI107
aI108
aI497
aI252
atp1339
Rp1340
sVsquare_packing_box2
p1341
g926
((lp1342
I368
aI457
aI438
aI545
aI425
aI343
aI302
aI303
aI144
aI369
aI370
aI307
aI500
aI246
aI247
aI473
aI377
aI442
aI367
aI474
aI453
atp1343
Rp1344
sVsquare_packing_box3
p1345
g926
((lp1346
I513
aI386
aI260
aI269
aI270
aI405
aI280
aI436
aI565
aI440
aI573
aI193
aI68
aI210
aI339
aI340
aI213
aI479
aI354
aI613
aI614
aI111
aI112
aI113
aI211
aI245
aI375
aI212
aI381
aI254
aI255
atp1347
Rp1348
sVsquare_packing_box1
p1349
g926
((lp1350
I0
aI1
aI546
aI454
aI555
aI369
aI370
aI371
aI342
aI378
aI571
aI541
atp1351
Rp1352
sVsquare_packing_box4
p1353
g926
((lp1354
I235
aI132
aI517
aI8
aI416
aI33
aI34
aI607
aI554
aI43
aI44
aI301
aI584
aI56
aI186
aI187
aI459
aI196
aI71
aI456
aI203
aI162
aI84
aI93
aI94
aI95
aI327
aI484
aI233
aI234
aI107
aI108
aI497
aI252
aI106
atp1355
Rp1356
ssg2
g3
sg505
g506
sS'mc_paths'
p1357
(dp1358
sS'robot'
p1359
NsS'reachable_obj_region_pairs'
p1360
(lp1361
sS'sampled_pick_configs_for_objects'
p1362
(dp1363
sS'mc_calls'
p1364
I0
sS'pick_poses'
p1365
g506
sg7
NsS'evaluations'
p1366
(dp1367
(g22
g23
g11
tp1368
I01
s(g22
g46
g11
tp1369
I00
s(g22
g10
g11
tp1370
I01
s(g10
g22
g11
tp1371
I00
s(g22
g19
g11
tp1372
I01
s(g22
g30
g11
tp1373
I00
s(g22
g14
g11
tp1374
I00
s(g30
g22
g11
tp1375
I00
s(g22
g33
g11
tp1376
I00
s(g14
g22
g11
tp1377
I01
s(g19
g22
g11
tp1378
I00
ssS'paths_to_reachable_entities'
p1379
NsS'use_shortest_path'
p1380
I01
sbsS'cached_pick_paths'
p1381
(dp1382
g507
g550
sg574
g599
sg618
g643
sg674
g711
sg730
g767
sg774
g799
sg818
g843
sg862
g887
ssg1323
(dp1383
(Vsquare_packing_box4
p1384
(cnumpy.core.multiarray
scalar
p1385
(g531
S'\x90\xc0\x1f~\xfe\xbb\xf0?'
p1386
tp1387
Rp1388
g1385
(g531
S'8\xdb\xdc\x98\x9e\xc0\x16\xc0'
p1389
tp1390
Rp1391
g1385
(g531
S'\xda\x8c\xd3\x10U\xf8\x13@'
p1392
tp1393
Rp1394
tp1395
tp1396
g1356
s(Vrectangular_packing_box2
p1397
(g1385
(g531
S'\xce\xe30\x98\xbfB\x02@'
p1398
tp1399
Rp1400
g1385
(g531
S'\xf9hq\xc60\xf7\x1a\xc0'
p1401
tp1402
Rp1403
g1385
(g531
S'V\xbc\x91y\xe4\x8f\xe0?'
p1404
tp1405
Rp1406
tp1407
tp1408
g1332
s(Vrectangular_packing_box3
p1409
(g1385
(g531
S'{\x9f\xaaB\x03\xb1\xb0?'
p1410
tp1411
Rp1412
g1385
(g531
S'\x0f\x0b\xb5\xa6y7\x1e\xc0'
p1413
tp1414
Rp1415
g1385
(g531
S'\xe5\xef\xdeQcb\x12@'
p1416
tp1417
Rp1418
tp1419
tp1420
g1336
s(Vrectangular_packing_box4
p1421
(g1385
(g531
S'}\xec.PR`\xd2?'
p1422
tp1423
Rp1424
g1385
(g531
S'\x8fT\xdf\xf9Ei\x18\xc0'
p1425
tp1426
Rp1427
g1385
(g531
S'\xe8\xf9\xd3Fu:\xe4?'
p1428
tp1429
Rp1430
tp1431
tp1432
g1328
s(Vsquare_packing_box2
p1433
(g1385
(g531
S'\xc5\x92r\xf79\xfe\r@'
p1434
tp1435
Rp1436
g1385
(g531
S'\x9b\x01.\xc8\x96u\x19\xc0'
p1437
tp1438
Rp1439
g1385
(g531
S'\x91D/\xa3X\xae\x11@'
p1440
tp1441
Rp1442
tp1443
tp1444
g1344
s(Vsquare_packing_box3
p1445
(g1385
(g531
S'\xc7\xbc\x8e8d\xa3\n@'
p1446
tp1447
Rp1448
g1385
(g531
S'\xb8\xca\x13\x08;\x05\x1e\xc0'
p1449
tp1450
Rp1451
g1385
(g531
S'\xde\xc9\xa7\xc7\xb6\xac\x0f@'
p1452
tp1453
Rp1454
tp1455
tp1456
g1348
s(Vsquare_packing_box1
p1457
(g1385
(g531
S'N\xb4\xab\x90\xf23\x0c@'
p1458
tp1459
Rp1460
g1385
(g531
S'Q\xf5+\x9d\x0f?\x15\xc0'
p1461
tp1462
Rp1463
g1385
(g531
S'\xe2\x1f\xb6\xf4h\n\x13@'
p1464
tp1465
Rp1466
tp1467
tp1468
g1352
s(Vrectangular_packing_box1
p1469
(g1385
(g531
S'\xa8\xdf\x85\xad\xd9J\xf5?'
p1470
tp1471
Rp1472
g1385
(g531
S'\x14\x05\xfaD\x9e4\x18\xc0'
p1473
tp1474
Rp1475
g1385
(g531
S'\xb13\x85\xcek,\x0b@'
p1476
tp1477
Rp1478
tp1479
tp1480
g1340
ssS'state_saver'
p1481
(igtamp_utils.utils
CustomStateSaver
p1482
(dp1483
S'robot_base_pose'
p1484
g521
(g522
(I0
tp1485
g524
tp1486
Rp1487
(I1
(I1
I3
tp1488
g531
I00
S'"\x1d\x99\xd7\xe3\x07\t@^\xb4\xd3U\xf5@\x18\xc0\xe4\xc1\x03\xc3\xc3\x1d\x17@'
p1489
tp1490
bsS'held_object'
p1491
NsS'robot_name'
p1492
S'pr2'
p1493
sS'env_id'
p1494
I1
sg971
(dp1495
Vright_wall_1
p1496
g521
(g522
(I0
tp1497
g524
tp1498
Rp1499
(I1
(I4
tp1500
g531
I00
S'H\xe1z\x14\xaeG\x12@&\\\x8f\xc2\xf5(\xd4\xbf\xcc\x7fH\xbf}\x1d\xed?\x00\x00\x00\x00\x00\x00\x00\x00'
p1501
tp1502
bsVc_obst5
p1503
g521
(g522
(I0
tp1504
g524
tp1505
Rp1506
(I1
(I4
tp1507
g531
I00
S"\x98\xf1q\xbb~\xea\x11@\x1e8\xbb\xd6O\xb6\xd4?e\xaa`TR'\xed?\xd2\x93\xb1\x82\xa4\x94\x0b@"
p1508
tp1509
bsVentrance_right
p1510
g521
(g522
(I0
tp1511
g524
tp1512
Rp1513
(I1
(I4
tp1514
g531
I00
S'ffffff\n@H\xe1z\x14\xaeG\t\xc0\x9c\xc4 \xb0rh\xc1?\x00\x00\x00\x00\x00\x00\x00\x00'
p1515
tp1516
bsVcomputer_table
p1517
g521
(g522
(I0
tp1518
g524
tp1519
Rp1520
(I1
(I4
tp1521
g531
I00
S'\x00\x00\x00\x00\x00\x00\x13@\x00\x00\x00\x00\x00\x00\xf8\xbf\x96C\x8bl\xe7\xfb\xe7?\xd2!3\x7f|\xd9\x12@'
p1522
tp1523
bsVchair_6b56
p1524
g521
(g522
(I0
tp1525
g524
tp1526
Rp1527
(I1
(I4
tp1528
g531
I00
S'\x80=\n\xd7\xa3p\xf5?P\xe1z\x14\xaeG\xd1?\x00\x00\x00\x00\x00\x00\x00\x00\xd6$\xfaNBm\n@'
p1529
tp1530
bsVsquare_packing_box3
p1531
g521
(g522
(I0
tp1532
g524
tp1533
Rp1534
(I1
(I4
tp1535
g531
I00
S'.\xc7\x84Ad\xa3\n@\xab\xaf\xb2\x18;\x05\x1e\xc0L7\x89A`\xe5\xd8?j8\xf9\x85\xb6\xac\x0f@'
p1536
tp1537
bsVsquare_packing_box2
p1538
g521
(g522
(I0
tp1539
g524
tp1540
Rp1541
(I1
(I4
tp1542
g531
I00
S'\xc4g\x0f\x13:\xfe\r@3/H\xad\x96u\x19\xc0<7\x89A`\xe5\xd8?\xb94\xd4\xa7X\xae\x11@'
p1543
tp1544
bsVtable
p1545
g521
(g522
(I0
tp1546
g524
tp1547
Rp1548
(I1
(I4
tp1549
g531
I00
S'\x7f\xf6#EdX\xed?\xac\xffs\x98//\xc0\xbf\x00\x00\x00\x00\x00\x00\x00\x00\x00\x00\x00\x00\x00\x00\x00\x00'
p1550
tp1551
bsVsquare_packing_box1
p1552
g521
(g522
(I0
tp1553
g524
tp1554
Rp1555
(I1
(I4
tp1556
g531
I00
S'\x16\xcf\x19\xc3\xf23\x0c@\x8e\xb5r\xad\x0f?\x15\xc0L7\x89A`\xe5\xd8?\xbf~a\xe9h\n\x13@'
p1557
tp1558
bsVback_wall_2
p1559
g521
(g522
(I0
tp1560
g524
tp1561
Rp1562
(I1
(I4
tp1563
g531
I00
S'\xaeG\xe1z\x14.\x13@\x80\x14\xaeG\xe1z\xc4?xX\xa85\xcd\xbb\xf2?\x00\x00\x00\x00\x00\x00\x00\x00'
p1564
tp1565
bsVchair_083c
p1566
g521
(g522
(I0
tp1567
g524
tp1568
Rp1569
(I1
(I4
tp1570
g531
I00
S'\xa4p=\n\xd7\xa3\xe0?333333\xe3\xbf\x00\x00\x00\x00\x00\x00\x00\x00\x00\x00\x00\x00\x00\x00\x00\x00'
p1571
tp1572
bsVback_wall_1
p1573
g521
(g522
(I0
tp1574
g524
tp1575
Rp1576
(I1
(I4
tp1577
g531
I00
S'\xaeG\xe1z\x14.\x13@\x80\x14\xaeG\xe1z\xc4?\xcc\x7fH\xbf}\x1d\xed?\x00\x00\x00\x00\x00\x00\x00\x00'
p1578
tp1579
bsVbottom_wall
p1580
g521
(g522
(I0
tp1581
g524
tp1582
Rp1583
(I1
(I4
tp1584
g531
I00
S'\x00\x00\x00\x00\x00\x00\xfc?\x00\x00\x00\x00\x00\x00\x00\x00\x00\x00\x00\x00\x00\x00\x00\x00\x00\x00\x00\x00\x00\x00\x00\x00'
p1585
tp1586
bsVcup_905a
p1587
g521
(g522
(I0
tp1588
g524
tp1589
Rp1590
(I1
(I4
tp1591
g531
I00
S'\x00\x00\x00\x00\x00\x00\xf0?\x83\xc0\xca\xa1E\xb6\xdb?\x1b/\xdd$\x06\x81\xed?\x00\x00\x00\x00\x00\x00\x00\x00'
p1592
tp1593
bsVplate_496f
p1594
g521
(g522
(I0
tp1595
g524
tp1596
Rp1597
(I1
(I4
tp1598
g531
I00
S"q=\n\xd7\xa3p\xe5?\x9dhW!\xe5'\xdd\xbf\x1b/\xdd$\x06\x81\xed?\x00\x00\x00\x00\x00\x00\x00\x00"
p1599
tp1600
bsVtoaster
p1601
g521
(g522
(I0
tp1602
g524
tp1603
Rp1604
(I1
(I4
tp1605
g531
I00
S')\\\x8f\xc2\xf5(\xf4\xbf\xe0z\x14\xaeG\xe1\xf2\xbf\xb8\x1e\x85\xebQ\xb8\xee?\x89/`\x9b\xf8\x8a\xe4?'
p1606
tp1607
bsVc_obst1
p1608
g521
(g522
(I0
tp1609
g524
tp1610
Rp1611
(I1
(I4
tp1612
g531
I00
S"\xef$\x95\xf6\x8a4\x12@\x07\xc3S\xe6\xc1\xef\xd7?e\xaa`TR'\xed?\xe0\xbaL\x80\x10\xb3\t@"
p1613
tp1614
bsVrectangular_packing_box4
p1615
g521
(g522
(I0
tp1616
g524
tp1617
Rp1618
(I1
(I4
tp1619
g531
I00
S'x\x1e]pS`\xd2?\x12\x1b\xb6\xe9Ei\x18\xc0L7\x89A`\xe5\xd8?\x82\x97\xe8\xa1t:\xe4?'
p1620
tp1621
bsVmicrowave
p1622
g521
(g522
(I0
tp1623
g524
tp1624
Rp1625
(I1
(I4
tp1626
g531
I00
S'\x9a\x99\x99\x99\x99\x99\xf1\xbf\x00\x00\x00\x00\x00\x00\x00@7\x89A`\xe5\xd0\xee?\x00\x00\x00\x00\x00\x00\x00\x00'
p1627
tp1628
bsVc_obst7
p1629
g521
(g522
(I0
tp1630
g524
tp1631
Rp1632
(I1
(I4
tp1633
g531
I00
S"\xfa\x81=\xfa]F\x12@Rf\x922\x8f\r\xdc?e\xaa`TR'\xed?\xa1F+\x03Yi}?"
p1634
tp1635
bsVc_obst6
p1636
g521
(g522
(I0
tp1637
g524
tp1638
Rp1639
(I1
(I4
tp1640
g531
I00
S"\xf8\x9a\x11\x01\x95\x83\x12@\xe8\xa7>?}-\xd2?e\xaa`TR'\xed?\xed\xedJ\xfa\x0b\x0c\x04@"
p1641
tp1642
bsVcup_b6af
p1643
g521
(g522
(I0
tp1644
g524
tp1645
Rp1646
(I1
(I4
tp1647
g531
I00
S'R\xb8\x1e\x85\xebQ\xe8?\x9a\x99\x99\x99\x99\x99\xe1?\x1b/\xdd$\x06\x81\xed?\x00\x00\x00\x00\x00\x00\x00\x00'
p1648
tp1649
bsVc_obst4
p1650
g521
(g522
(I0
tp1651
g524
tp1652
Rp1653
(I1
(I4
tp1654
g531
I00
S"n\x08(p\x9bi\x12@\xc0\x8f\x90\x84\x98\xd9\xc1?e\xaa`TR'\xed?\xae\x8f\xee\xf0\x1b\x97\x16@"
p1655
tp1656
bsVrectangular_packing_box2
p1657
g521
(g522
(I0
tp1658
g524
tp1659
Rp1660
(I1
(I4
tp1661
g531
I00
S'x#\x8a\xa8\xbfB\x02@]@\xdd\xaa0\xf7\x1a\xc0L7\x89A`\xe5\xd8?\xa2\x93\xe4\xf2\xe3\x8f\xe0?'
p1662
tp1663
bsVplate_fa76
p1664
g521
(g522
(I0
tp1665
g524
tp1666
Rp1667
(I1
(I4
tp1668
g531
I00
S'=\n\xd7\xa3p=\xf2?\x00\x00\x00\x00\x00\x00\x00\x00\x1b/\xdd$\x06\x81\xed?\x00\x00\x00\x00\x00\x00\x00\x00'
p1669
tp1670
bsVfloorwalls
p1671
g521
(g522
(I0
tp1672
g524
tp1673
Rp1674
(I1
(I4
tp1675
g531
I00
S'\xc7\xcc\xcc\xcc\xcc\xcc\xfc?\x00\x00\x00\x00\x00\x00\x18\xc0H\xe1z\x14\xaeG\xc1?\x16-DT\xfb!\xf9?'
p1676
tp1677
bsVpin_c671
p1678
g521
(g522
(I0
tp1679
g524
tp1680
Rp1681
(I1
(I4
tp1682
g531
I00
S'\xc3\xf5(\\\x8f\xc2\xf1\xbf}?5^\xbaI\x02@\xb8\x1e\x85\xebQ\xb8\xfa?\x00\x00\x00\x00\x00\x00\x00\x00'
p1683
tp1684
bsVc_obst3
p1685
g521
(g522
(I0
tp1686
g524
tp1687
Rp1688
(I1
(I4
tp1689
g531
I00
S"^\xdd\\<%\xa1\x12@\xac\x8b8\x90\xc6\xe6\xd8?e\xaa`TR'\xed?\x1c\x9e\xaarJ\xdd\x16@"
p1690
tp1691
bsVchair_2e39
p1692
g521
(g522
(I0
tp1693
g524
tp1694
Rp1695
(I1
(I4
tp1696
g531
I00
S'jfffff\xee?Yfffff\xf2\xbf\x00\x00\x00\x00\x00\x00\x00\x00\x07M\xe8QQF\xf3?'
p1697
tp1698
bsVentrance_left
p1699
g521
(g522
(I0
tp1700
g524
tp1701
Rp1702
(I1
(I4
tp1703
g531
I00
S'\x98\x99\x99\x99\x99\x99\xe9\xbfH\xe1z\x14\xaeG\t\xc0\x9c\xc4 \xb0rh\xc1?\x00\x00\x00\x00\x00\x00\x00\x00'
p1704
tp1705
bsVtop_wall_1
p1706
g521
(g522
(I0
tp1707
g524
tp1708
Rp1709
(I1
(I4
tp1710
g531
I00
S'H\xe1z\x14\xaeG\x12@\x80\x14\xaeG\xe1z\xc4?xX\xa85\xcd\xbb\xf2?\x00\x00\x00\x00\x00\x00\x00\x00'
p1711
tp1712
bsVrectangular_packing_box3
p1713
g521
(g522
(I0
tp1714
g524
tp1715
Rp1716
(I1
(I4
tp1717
g531
I00
S'x\xa3$/\t\xb1\xb0?r\xd9\xd7\x88y7\x1e\xc0L7\x89A`\xe5\xd8?\xa1\xa8\xa4gcb\x12@'
p1718
tp1719
bsVshaker
p1720
g521
(g522
(I0
tp1721
g524
tp1722
Rp1723
(I1
(I4
tp1724
g531
I00
S'\n\xd7\xa3p=\n\x01@\x14\xaeG\xe1z\x14\x02@\\\x8f\xc2\xf5(\\\xef?\x00\x00\x00\x00\x00\x00\x00\x00'
p1725
tp1726
bsVc_obst9
p1727
g521
(g522
(I0
tp1728
g524
tp1729
Rp1730
(I1
(I4
tp1731
g531
I00
S"\x84v\x82wVC\x12@\xa0n\xad8\xc7F\xc2\xbfe\xaa`TR'\xed?\xd9R5=\xef\x80\x10@"
p1732
tp1733
bsVplate_835a
p1734
g521
(g522
(I0
tp1735
g524
tp1736
Rp1737
(I1
(I4
tp1738
g531
I00
S'\xf6(\\\x8f\xc2\xf5\xf0?\\\x8f\xc2\xf5(\\\xe7\xbf\x1b/\xdd$\x06\x81\xed?\x00\x00\x00\x00\x00\x00\x00\x00'
p1739
tp1740
bsVcup_58a2
p1741
g521
(g522
(I0
tp1742
g524
tp1743
Rp1744
(I1
(I4
tp1745
g531
I00
S'\x85\xebQ\xb8\x1e\x85\xe3?\xcd\xcc\xcc\xcc\xcc\xcc\xdc?\x1b/\xdd$\x06\x81\xed?\x00\x00\x00\x00\x00\x00\x00\x00'
p1746
tp1747
bsVleft_wall_1
p1748
g521
(g522
(I0
tp1749
g524
tp1750
Rp1751
(I1
(I4
tp1752
g531
I00
S'H\xe1z\x14\xaeG\x12@S\xb8\x1e\x85\xebQ\xe4?\xcc\x7fH\xbf}\x1d\xed?\x00\x00\x00\x00\x00\x00\x00\x00'
p1753
tp1754
bsVc_obst2
p1755
g521
(g522
(I0
tp1756
g524
tp1757
Rp1758
(I1
(I4
tp1759
g531
I00
S"\x05\xf9\xf8\xe06C\x12@\x82c\x9dS@k\xcc?e\xaa`TR'\xed?\x8e\xd1'\xc0\x08~\xfe?"
p1760
tp1761
bsVsquare_packing_box4
p1762
g521
(g522
(I0
tp1763
g524
tp1764
Rp1765
(I1
(I4
tp1766
g531
I00
S'\x8b\xce\xcef\xfe\xbb\xf0?L@\xfc\xa1\x9e\xc0\x16\xc0L7\x89A`\xe5\xd8?\xaeKe\x14U\xf8\x13@'
p1767
tp1768
bsVrectangular_packing_box1
p1769
g521
(g522
(I0
tp1770
g524
tp1771
Rp1772
(I1
(I4
tp1773
g531
I00
S'\xf71, \xdaJ\xf5?\x8f\x94\xc7_\x9e4\x18\xc0L7\x89A`\xe5\xd8?\x88,&\x8ck,\x0b@'
p1774
tp1775
bsVpin_371e
p1776
g521
(g522
(I0
tp1777
g524
tp1778
Rp1779
(I1
(I4
tp1780
g531
I00
S'333333\xf3\xbfffffff\xf6?\xb8\x1e\x85\xebQ\xb8\xee?\x00\x00\x00\x00\x00\x00\x00\x00'
p1781
tp1782
bsVfridge
p1783
g521
(g522
(I0
tp1784
g524
tp1785
Rp1786
(I1
(I4
tp1787
g531
I00
S'\xd7\xa3p=\n\xd7\xeb\xbf\x00\x00\x00\x00\x00\x00\x00\xc0\xcd\xcc\xcc\xcc\xcc\xcc\xf8?\x00\x00\x00\x00\x00\x00\x00\x00'
p1788
tp1789
bsVcup_d441
p1790
g521
(g522
(I0
tp1791
g524
tp1792
Rp1793
(I1
(I4
tp1794
g531
I00
S'\n\xd7\xa3p=\n\xef?\x8f\xc2\xf5(\\\x8f\xe2?\x1b/\xdd$\x06\x81\xed?\x00\x00\x00\x00\x00\x00\x00\x00'
p1795
tp1796
bsVshelf2
p1797
g521
(g522
(I0
tp1798
g524
tp1799
Rp1800
(I1
(I4
tp1801
g531
I00
S'\x00\x00\x00\x00\x00\x00\x0e@\xaeG\xe1z\x14\xae\x07@\x9c\xc4 \xb0rh\xc1?\xd2!3\x7f|\xd9\x12@'
p1802
tp1803
bsVtop_wall_2
p1804
g521
(g522
(I0
tp1805
g524
tp1806
Rp1807
(I1
(I4
tp1808
g531
I00
S'H\xe1z\x14\xaeG\x12@\x80\x14\xaeG\xe1z\xc4?\x16HP\xfc\x18\xf3\xfd?\x00\x00\x00\x00\x00\x00\x00\x00'
p1809
tp1810
bsVc_obst0
p1811
g521
(g522
(I0
tp1812
g524
tp1813
Rp1814
(I1
(I4
tp1815
g531
I00
S"\xb8\x088t\x9c7\x12@\x98D\xf1\x14\xed\x8f\x96\xbfe\xaa`TR'\xed?\xadtI0\xaa\x0c\x13@"
p1816
tp1817
bsVshelf1
p1818
g521
(g522
(I0
tp1819
g524
tp1820
Rp1821
(I1
(I4
tp1822
g531
I00
S'\x00\x00\x00\x00\x00\x00\x13@\xaeG\xe1z\x14\xae\x07@\x9c\xc4 \xb0rh\xc1?\xd2!3\x7f|\xd9\x12@'
p1823
tp1824
bsVsink
p1825
g521
(g522
(I0
tp1826
g524
tp1827
Rp1828
(I1
(I4
tp1829
g531
I00
S'ffffff\xd6?333333\x01@\x9a\x99\x99\x99\x99\x99\xb9\xbf\x00\x00\x00\x00\x00\x00\x00\x00'
p1830
tp1831
bsVpr2
p1832
g521
(g522
(I0
tp1833
g524
tp1834
Rp1835
(I1
(I4
tp1836
g531
I00
S'&\x1d\x99\xd7\xe3\x07\t@^\xb4\xd3U\xf5@\x18\xc0\x9a_\x94\xa0\xbf\xd0\xc1?\xe4\xc1\x03\xc3\xc3\x1d\x17@'
p1837
tp1838
bsVchair_12d0
p1839
g521
(g522
(I0
tp1840
g524
tp1841
Rp1842
(I1
(I4
tp1843
g531
I00
S'^\xd2\x18\xad\xa3\xaa\xdb?Pf\x83L2r\xc6?\x00\x00\x00\x00\x00\x00\x00\x00\xf8\x81\r\x14M\xa6\x17@'
p1844
tp1845
bsVright_wall_2
p1846
g521
(g522
(I0
tp1847
g524
tp1848
Rp1849
(I1
(I4
tp1850
g531
I00
S'H\xe1z\x14\xaeG\x12@&\\\x8f\xc2\xf5(\xd4\xbfxX\xa85\xcd\xbb\xf2?\x00\x00\x00\x00\x00\x00\x00\x00'
p1851
tp1852
bsVknife_block
p1853
g521
(g522
(I0
tp1854
g524
tp1855
Rp1856
(I1
(I4
tp1857
g531
I00
S'R\xb8\x1e\x85\xebQ\xe0\xbfffffff\x02@`\xe5\xd0"\xdb\xf9\xee?\x00\x00\x00\x00\x00\x00\x00\x00'
p1858
tp1859
bsVleft_wall_2
p1860
g521
(g522
(I0
tp1861
g524
tp1862
Rp1863
(I1
(I4
tp1864
g531
I00
S'H\xe1z\x14\xaeG\x12@S\xb8\x1e\x85\xebQ\xe4?xX\xa85\xcd\xbb\xf2?\x00\x00\x00\x00\x00\x00\x00\x00'
p1865
tp1866
bsVleft_wall
p1867
g521
(g522
(I0
tp1868
g524
tp1869
Rp1870
(I1
(I4
tp1871
g531
I00
S'\x9a\x99\x99\x99\x99\x99\x07@H\xe1z\x14\xaeG\xff?\x9c\xc4 \xb0rh\xc1?\x00\x00\x00\x00\x00\x00\x00\x00'
p1872
tp1873
bsVkitchen
p1874
g521
(g522
(I0
tp1875
g524
tp1876
Rp1877
(I1
(I4
tp1878
g531
I00
S'\x00\x00\x00\x00\x00\x00\x00\x00\x00\x00\x00\x00\x00\x00\x00\x00\x00\x00\x00\x00\x00\x00\x00\x00\x00\x00\x00\x00\x00\x00\x00\x00'
p1879
tp1880
bsVtable2
p1881
g521
(g522
(I0
tp1882
g524
tp1883
Rp1884
(I1
(I4
tp1885
g531
I00
S'\x00\x00\x00\x00\x00\x00\x13@\x80\x14\xaeG\xe1z\xc4?S\x96!\x8euq\xec?\xd2!3\x7f|\xd9\x12@'
p1886
tp1887
bsVc_obst8
p1888
g521
(g522
(I0
tp1889
g524
tp1890
Rp1891
(I1
(I4
tp1892
g531
I00
S"\xa2\x86\xba\xbe\x0e\xfe\x11@\x10\x88\xaeAcX\xc9?e\xaa`TR'\xed?\xe7\xc6R\xf7\xd5q\x17@"
p1893
tp1894
bsVplate_b4e7
p1895
g521
(g522
(I0
tp1896
g524
tp1897
Rp1898
(I1
(I4
tp1899
g531
I00
S'\x14\xaeG\xe1z\x14\xf2\xbf\x14\xaeG\xe1z\x14\x00@=\n\xd7\xa3p=\xf2?\x00\x00\x00\x00\x00\x00\x00\x00'
p1900
tp1901
bsVcooker
p1902
g521
(g522
(I0
tp1903
g524
tp1904
Rp1905
(I1
(I4
tp1906
g531
I00
S'\xaeG\xe1z\x14\xae\xff?\x85\xebQ\xb8\x1e\x85\xfb?\x00\x00\x00\x00\x00\x00\xe8?\x00\x00\x00\x00\x00\x00\x00\x00'
p1907
tp1908
bsVpin_a091
p1909
g521
(g522
(I0
tp1910
g524
tp1911
Rp1912
(I1
(I4
tp1913
g531
I00
S'\xdb\xf9~j\xbct\xf7\xbf)\\\x8f\xc2\xf5(\x02@\xb8\x1e\x85\xebQ\xb8\xfa?\x00\x00\x00\x00\x00\x00\x00\x00'
p1914
tp1915
bsVside_wall_2
p1916
g521
(g522
(I0
tp1917
g524
tp1918
Rp1919
(I1
(I4
tp1920
g531
I00
S'\xf1\xff\xff\xff\xff\xff\x14@\xe0\xff\xff\xff\xff\x7f\xef<\x9c\xc4 \xb0rh\xc1?\x1c-DT\xfb!\xf9?'
p1921
tp1922
bsVside_wall_3
p1923
g521
(g522
(I0
tp1924
g524
tp1925
Rp1926
(I1
(I4
tp1927
g531
I00
S'\x00\x00\x00\x00\x00\x00\xfc?H\xe1z\x14\xaeG\t@\x9c\xc4 \xb0rh\xc1?\x00\x00\x00\x00\x00\x00\x00\x00'
p1928
tp1929
bsVmixer
p1930
g521
(g522
(I0
tp1931
g524
tp1932
Rp1933
(I1
(I4
tp1934
g531
I00
S'\n\xd7\xa3p=\n\xfb?ffffff\x02@d;\xdfO\x8d\x97\xee?\x00\x00\x00\x00\x00\x00\x00\x00'
p1935
tp1936
bsVside_wall_1
p1937
g521
(g522
(I0
tp1938
g524
tp1939
Rp1940
(I1
(I4
tp1941
g531
I00
S'\xe2\xff\xff\xff\xff\xff\xfb\xbf\xe6\xff\xff\xff\xff\xff\xd4\xbc\x9c\xc4 \xb0rh\xc1?\x1c-DT\xfb!\xf9?'
p1942
tp1943
bsVbottom_wall_1
p1944
g521
(g522
(I0
tp1945
g524
tp1946
Rp1947
(I1
(I4
tp1948
g531
I00
S'H\xe1z\x14\xaeG\x12@\x80\x14\xaeG\xe1z\xc4?\xcc\x7fH\xbf}\x1d\xed?\x00\x00\x00\x00\x00\x00\x00\x00'
p1949
tp1950
bsVcan
p1951
g521
(g522
(I0
tp1952
g524
tp1953
Rp1954
(I1
(I4
tp1955
g531
I00
S'\x00\x00\x00\x00\x00\x00\xf4\xbfH\xe1z\x14\xaeG\xe1\xbf\n\xd7\xa3p=\n\xef?\x00\x00\x00\x00\x00\x00\x00\x00'
p1956
tp1957
bsVright_wall
p1958
g521
(g522
(I0
tp1959
g524
tp1960
Rp1961
(I1
(I4
tp1962
g531
I00
S'\x9a\x99\x99\x99\x99\x99\x07@H\xe1z\x14\xaeG\xff\xbf\x9c\xc4 \xb0rh\xc1?\x00\x00\x00\x00\x00\x00\x00\x00'
p1963
tp1964
bsVcoffe_machine
p1965
g521
(g522
(I0
tp1966
g524
tp1967
Rp1968
(I1
(I4
tp1969
g531
I00
S'\\\x8f\xc2\xf5(\\\xf5\xbf\xb8\x1e\x85\xebQ\xb8\xee?\n\xd7\xa3p=\n\xef?\x00\x00\x00\x00\x00\x00\x00\x00'
p1970
tp1971
bsVcomputer_chair
p1972
g521
(g522
(I0
tp1973
g524
tp1974
Rp1975
(I1
(I4
tp1976
g531
I00
S'\xcd\xcc\xcc\xcc\xcc\xcc\x10@\x00\x00\x00\x00\x00\x00\xf8\xbf\xa00\xb6\x10\xe4\xa9\x95\xbf\x00\x00\x00\x00\x00\x00\x00\x00'
p1977
tp1978
bssS'robot_dof_values'
p1979
g521
(g522
(I0
tp1980
g524
tp1981
Rp1982
(I1
(I39
tp1983
g531
I00
S'\x00\x00\x00\x00\x00\x00\x00\x00\x00\x00\x00\x00\x00\x00\x00\x00\x00\x00\x00\x00\x00\x00\x00\x00\x00\x00\x00\x00\x00\x00\x00\x00\x00\x00\x00\x00\x00\x00\x00\x00\x00\x00\x00\x00\x00\x00\x00\x00\x00\x00\x00\x00\x00\x00\x00\x00\x00\x00\x00\x00\x00\x00\x00\x00\x00\x00\x00\x00\x00\x00\x00\x00\x00\x00\x00\x00\x00\x00\x00\x00\x00\x00\x00\x00\x00\x00\x00\x00\x00\x00\x00\x00\x00\x00\x00\x00\xa0\xf1S&x\xf4\x97?\x00\x00\x00\x00\x00\x00\x00\x00\x00\x00\x00\x00\x00\x00\x00\x00\x00\x00\x00\x00\x00\x00\x00\x00\xeb\xed\t\xf1\xcc\xa4\xf4?\x00\x00\x00\x00\x00\x00\xb0<N"\xd0^p\xf8\x00\xc0\x00\x00\x00\x00\x00\x00\x00\x00\xa3\x03\r.\x04V\xe6\xbf\x00\x00\x00\x00\x00\x00\x00\x00\x00\x00\x00\x00\x00\x00\x00\x00\x00\x00\x00\x00\x00n3\xbdeW\x15 \x08r\xc3\xbc\x00\x00\x00\x00\x00\x00\xe8<\x00\x00\x00\x00\x00\x00\x00\x00\x00\x00\x00\x00\x00\x00\x00\x00\xeb\xed\t\xf1\xcc\xa4\xf4?\x00\x00\x00\x00\x00\x00\x00\x00N"\xd0^p\xf8\x00\xc0\x00\x00\x00\x00\x00\x00\x00\x00\xa1\x03\r.\x04V\xe6\xbf\x00\x00\x00\x00\x00\x00\x00\x00\xcc9\xe3\xc17\x89\xe1?\x00\x00\x00\x00\x00\xbc$\xbd\x00\x00\x00\x00\x00\x00\x00\x00\x00\x00\x00\x00\x00\x00!\xbd\x00\x00\x00\x00\x00\x00\x00\x00'
p1984
tp1985
bsS'is_holding'
p1986
I00
sbsS'holding_collides'
p1987
(dp1988
(Vsquare_packing_box4
p1989
(g1385
(g531
S'\x90\xc0\x1f~\xfe\xbb\xf0?'
p1990
tp1991
Rp1992
g1385
(g531
S'8\xdb\xdc\x98\x9e\xc0\x16\xc0'
p1993
tp1994
Rp1995
g1385
(g531
S'\xda\x8c\xd3\x10U\xf8\x13@'
p1996
tp1997
Rp1998
tp1999
tp2000
g957
s(Vrectangular_packing_box2
p2001
(g1385
(g531
S'\xce\xe30\x98\xbfB\x02@'
p2002
tp2003
Rp2004
g1385
(g531
S'\xf9hq\xc60\xf7\x1a\xc0'
p2005
tp2006
Rp2007
g1385
(g531
S'V\xbc\x91y\xe4\x8f\xe0?'
p2008
tp2009
Rp2010
tp2011
tp2012
g933
s(Vrectangular_packing_box3
p2013
(g1385
(g531
S'{\x9f\xaaB\x03\xb1\xb0?'
p2014
tp2015
Rp2016
g1385
(g531
S'\x0f\x0b\xb5\xa6y7\x1e\xc0'
p2017
tp2018
Rp2019
g1385
(g531
S'\xe5\xef\xdeQcb\x12@'
p2020
tp2021
Rp2022
tp2023
tp2024
g937
s(Vrectangular_packing_box4
p2025
(g1385
(g531
S'}\xec.PR`\xd2?'
p2026
tp2027
Rp2028
g1385
(g531
S'\x8fT\xdf\xf9Ei\x18\xc0'
p2029
tp2030
Rp2031
g1385
(g531
S'\xe8\xf9\xd3Fu:\xe4?'
p2032
tp2033
Rp2034
tp2035
tp2036
g929
s(Vsquare_packing_box2
p2037
(g1385
(g531
S'\xc5\x92r\xf79\xfe\r@'
p2038
tp2039
Rp2040
g1385
(g531
S'\x9b\x01.\xc8\x96u\x19\xc0'
p2041
tp2042
Rp2043
g1385
(g531
S'\x91D/\xa3X\xae\x11@'
p2044
tp2045
Rp2046
tp2047
tp2048
g945
s(Vsquare_packing_box3
p2049
(g1385
(g531
S'\xc7\xbc\x8e8d\xa3\n@'
p2050
tp2051
Rp2052
g1385
(g531
S'\xb8\xca\x13\x08;\x05\x1e\xc0'
p2053
tp2054
Rp2055
g1385
(g531
S'\xde\xc9\xa7\xc7\xb6\xac\x0f@'
p2056
tp2057
Rp2058
tp2059
tp2060
g949
s(Vsquare_packing_box1
p2061
(g1385
(g531
S'N\xb4\xab\x90\xf23\x0c@'
p2062
tp2063
Rp2064
g1385
(g531
S'Q\xf5+\x9d\x0f?\x15\xc0'
p2065
tp2066
Rp2067
g1385
(g531
S'\xe2\x1f\xb6\xf4h\n\x13@'
p2068
tp2069
Rp2070
tp2071
tp2072
g953
s(Vrectangular_packing_box1
p2073
(g1385
(g531
S'\xa8\xdf\x85\xad\xd9J\xf5?'
p2074
tp2075
Rp2076
g1385
(g531
S'\x14\x05\xfaD\x9e4\x18\xc0'
p2077
tp2078
Rp2079
g1385
(g531
S'\xb13\x85\xcek,\x0b@'
p2080
tp2081
Rp2082
tp2083
tp2084
g941
ssS'parent_ternary_predicates'
p2085
(dp2086
(g10
g10
g11
tp2087
g13
s(g14
g15
g15
tp2088
g17
s(g18
g19
g11
tp2089
g21
s(g46
g14
g11
tp2090
g82
s(g46
g11
g11
tp2091
g382
s(g11
g11
g11
tp2092
g27
s(g23
g10
g15
tp2093
g29
s(g14
g30
g11
tp2094
g32
s(g11
g33
g11
tp2095
g35
s(g18
g33
g11
tp2096
g452
s(g11
g23
g15
tp2097
g41
s(g23
g11
g15
tp2098
g430
s(g15
g11
g15
tp2099
g45
s(g33
g46
g11
tp2100
g48
s(g46
g15
g11
tp2101
g54
s(g18
g10
g15
tp2102
g56
s(g10
g15
g11
tp2103
g60
s(g10
g33
g15
tp2104
g200
s(g14
g14
g15
tp2105
g64
s(g15
g23
g11
tp2106
g284
s(g15
g15
g11
tp2107
g72
s(g46
g33
g15
tp2108
g74
s(g11
g11
g15
tp2109
g76
s(g23
g10
g11
tp2110
g438
s(g10
g23
g11
tp2111
g80
s(g30
g46
g15
tp2112
g172
s(g19
g11
g15
tp2113
g84
s(g10
g30
g15
tp2114
g444
s(g19
g30
g15
tp2115
g88
s(g30
g19
g11
tp2116
g90
s(g15
g14
g15
tp2117
g92
s(g10
g10
g15
tp2118
g96
s(g18
g23
g11
tp2119
g98
s(g15
g11
g11
tp2120
g100
s(g33
g10
g11
tp2121
g102
s(g14
g30
g15
tp2122
g110
s(g15
g23
g15
tp2123
g66
s(g15
g30
g15
tp2124
g120
s(g18
g11
g11
tp2125
g122
s(g15
g18
g11
tp2126
g126
s(g10
g23
g15
tp2127
g128
s(g46
g10
g15
tp2128
g130
s(g46
g46
g11
tp2129
g132
s(g19
g30
g11
tp2130
g134
s(g18
g10
g11
tp2131
g136
s(g18
g46
g15
tp2132
g186
s(g23
g14
g11
tp2133
g140
s(g14
g14
g11
tp2134
g142
s(g14
g33
g11
tp2135
g144
s(g33
g10
g15
tp2136
g146
s(g23
g19
g15
tp2137
g148
s(g46
g33
g11
tp2138
g150
s(g10
g19
g15
tp2139
g154
s(g19
g11
g11
tp2140
g156
s(g10
g46
g11
tp2141
g160
s(g30
g19
g15
tp2142
g162
s(g18
g11
g15
tp2143
g166
s(g18
g23
g15
tp2144
g168
s(g46
g10
g11
tp2145
g170
s(g15
g19
g11
tp2146
g370
s(g10
g18
g15
tp2147
g174
s(g19
g15
g11
tp2148
g176
s(g15
g33
g11
tp2149
g280
s(g46
g19
g15
tp2150
g180
s(g23
g14
g15
tp2151
g182
s(g19
g15
g15
tp2152
g138
s(g15
g30
g11
tp2153
g188
s(g10
g19
g11
tp2154
g192
s(g23
g19
g11
tp2155
g194
s(g15
g46
g11
tp2156
g196
s(g10
g46
g15
tp2157
g198
s(g46
g18
g11
tp2158
g62
s(g14
g33
g15
tp2159
g204
s(g19
g46
g15
tp2160
g206
s(g30
g15
g15
tp2161
g210
s(g14
g19
g11
tp2162
g214
s(g10
g18
g11
tp2163
g216
s(g30
g10
g15
tp2164
g220
s(g46
g19
g11
tp2165
g222
s(g23
g15
g15
tp2166
g224
s(g11
g30
g11
tp2167
g104
s(g15
g19
g15
tp2168
g232
s(g15
g46
g15
tp2169
g234
s(g14
g46
g11
tp2170
g236
s(g18
g15
g11
tp2171
g68
s(g14
g19
g15
tp2172
g240
s(g23
g33
g11
tp2173
g228
s(g11
g46
g11
tp2174
g416
s(g30
g11
g15
tp2175
g246
s(g23
g15
g11
tp2176
g248
s(g15
g33
g15
tp2177
g250
s(g10
g33
g11
tp2178
g252
s(g33
g33
g11
tp2179
g256
s(g33
g30
g15
tp2180
g258
s(g30
g15
g11
tp2181
g260
s(g46
g23
g11
tp2182
g262
s(g30
g18
g15
tp2183
g268
s(g23
g18
g15
tp2184
g462
s(g23
g33
g15
tp2185
g274
s(g46
g11
g15
tp2186
g276
s(g30
g11
g11
tp2187
g278
s(g19
g19
g11
tp2188
g282
s(g14
g46
g15
tp2189
g290
s(g23
g46
g11
tp2190
g286
s(g14
g10
g11
tp2191
g288
s(g11
g18
g11
tp2192
g58
s(g33
g14
g15
tp2193
g292
s(g18
g30
g15
tp2194
g296
s(g30
g14
g11
tp2195
g298
s(g19
g18
g11
tp2196
g300
s(g46
g23
g15
tp2197
g302
s(g46
g30
g15
tp2198
g304
s(g33
g19
g11
tp2199
g306
s(g11
g46
g15
tp2200
g230
s(g33
g15
g11
tp2201
g310
s(g30
g18
g11
tp2202
g312
s(g23
g30
g15
tp2203
g314
s(g10
g14
g11
tp2204
g316
s(g30
g46
g11
tp2205
g474
s(g23
g23
g15
tp2206
g320
s(g33
g33
g15
tp2207
g322
s(g19
g19
g15
tp2208
g324
s(g14
g23
g15
tp2209
g326
s(g18
g14
g11
tp2210
g330
s(g11
g18
g15
tp2211
g332
s(g11
g19
g15
tp2212
g334
s(g14
g10
g15
tp2213
g338
s(g19
g14
g15
tp2214
g340
s(g18
g30
g11
tp2215
g344
s(g30
g33
g15
tp2216
g39
s(g19
g18
g15
tp2217
g348
s(g23
g18
g11
tp2218
g50
s(g33
g19
g15
tp2219
g352
s(g10
g15
g15
tp2220
g488
s(g23
g30
g11
tp2221
g356
s(g14
g11
g15
tp2222
g358
s(g30
g23
g11
tp2223
g108
s(g19
g46
g11
tp2224
g238
s(g33
g18
g11
tp2225
g364
s(g15
g18
g15
tp2226
g366
s(g23
g46
g15
tp2227
g368
s(g18
g18
g15
tp2228
g372
s(g33
g14
g11
tp2229
g374
s(g14
g23
g11
tp2230
g376
s(g18
g33
g15
tp2231
g412
s(g30
g14
g15
tp2232
g380
s(g33
g11
g15
tp2233
g212
s(g18
g14
g15
tp2234
g384
s(g46
g30
g11
tp2235
g386
s(g33
g15
g15
tp2236
g390
s(g10
g14
g15
tp2237
g392
s(g19
g10
g11
tp2238
g394
s(g18
g15
g15
tp2239
g396
s(g14
g18
g11
tp2240
g400
s(g30
g23
g15
tp2241
g202
s(g30
g30
g15
tp2242
g342
s(g30
g10
g11
tp2243
g242
s(g23
g11
g11
tp2244
g406
s(g46
g46
g15
tp2245
g362
s(g33
g23
g11
tp2246
g410
s(g15
g10
g15
tp2247
g378
s(g11
g19
g11
tp2248
g414
s(g19
g14
g11
tp2249
g418
s(g19
g33
g11
tp2250
g420
s(g18
g46
g11
tp2251
g422
s(g30
g33
g11
tp2252
g450
s(g11
g14
g11
tp2253
g458
s(g19
g23
g15
tp2254
g428
s(g10
g11
g11
tp2255
g432
s(g14
g11
g11
tp2256
g434
s(g19
g10
g15
tp2257
g436
s(g33
g18
g15
tp2258
g408
s(g11
g30
g15
tp2259
g184
s(g11
g15
g11
tp2260
g440
s(g18
g18
g11
tp2261
g442
s(g11
g10
g15
tp2262
g86
s(g14
g18
g15
tp2263
g446
s(g33
g11
g11
tp2264
g124
s(g15
g10
g11
tp2265
g398
s(g14
g15
g11
tp2266
g454
s(g18
g19
g15
tp2267
g460
s(g11
g14
g15
tp2268
g208
s(g19
g23
g11
tp2269
g466
s(g46
g18
g15
tp2270
g468
s(g30
g30
g11
tp2271
g254
s(g11
g23
g11
tp2272
g472
s(g33
g23
g15
tp2273
g476
s(g23
g23
g11
tp2274
g478
s(g19
g33
g15
tp2275
g480
s(g46
g14
g15
tp2276
g318
s(g46
g15
g15
tp2277
g484
s(g10
g30
g11
tp2278
g502
s(g33
g30
g11
tp2279
g354
s(g11
g33
g15
tp2280
g490
s(g10
g11
g15
tp2281
g492
s(g15
g15
g15
tp2282
g494
s(g33
g46
g15
tp2283
g498
s(g11
g15
g15
tp2284
g500
s(g11
g10
g11
tp2285
g486
s(g15
g14
g11
tp2286
g504
ssS'cached_place_paths'
p2287
(dp2288
(g674
g15
tp2289
(lp2290
g521
(g522
(I0
tp2291
g524
tp2292
Rp2293
(I1
(I3
tp2294
g531
I00
S'\\\xca\xc0\xcf\xd9[\xf0?\xfe/#\xddH6\x15\xc0F\xa4\xd4\xc0\xcb\x98\x14@'
p2295
tp2296
bas(g862
g11
tp2297
(lp2298
g521
(g522
(I0
tp2299
g524
tp2300
Rp2301
(I1
(I3
tp2302
g531
I00
S'\xb8\xdc\xa0]\xb4\xb3\xed?`\xb9\xcf\x1f\xa8Q\x13\xc0:\x0eA\xb8^ \x13@'
p2303
tp2304
bag521
(g522
(I0
tp2305
g524
tp2306
Rp2307
(I1
(I3
tp2308
g563
I00
S"\xaeJ\xbd\x1936\xec?\x04\x13\xd4'\x9f\x88\x10\xc0\x805qo\xb6\xe6\xff\xbf"
p2309
tp2310
bag521
(g522
(I0
tp2311
g524
tp2312
Rp2313
(I1
(I3
tp2314
g563
I00
S'\xf09\xb6\x1c*\x86\xee?\xc4\n/\x96\xcb\xe3\n\xc0\xa0\xc9\xd6F6\x0f\x00\xc0'
p2315
tp2316
bag521
(g522
(I0
tp2317
g524
tp2318
Rp2319
(I1
(I3
tp2320
g563
I00
S'3\xe9\xaf\x05T\x89\xe7?+~\xcb\xd3\x15\xc7\x04\xc0x6(d5\xed\x07@'
p2321
tp2322
bas(g507
g11
tp2323
(lp2324
g521
(g522
(I0
tp2325
g524
tp2326
Rp2327
(I1
(I3
tp2328
g531
I00
S'\xe0\xee\xbc7\x1c\xc9\xc2\xbf\x05{?`*X\x16\xc0\xc3\xcf\x15Rt\xb2\x14@'
p2329
tp2330
bag521
(g522
(I0
tp2331
g524
tp2332
Rp2333
(I1
(I3
tp2334
g563
I00
S'\xff\x1dX8\xbe\xd2\xc9?\x91h\xd1{\x1e(\x16\xc0\xee\xfeSI\xc3\xd4\x03\xc0'
p2335
tp2336
bag521
(g522
(I0
tp2337
g524
tp2338
Rp2339
(I1
(I3
tp2340
g563
I00
S'\xcc\x87!\x1f\xfb\x05\xe6?\x14;\x08\xf1<\xc6\x13\xc0V!\xac1j\x94\xc8?'
p2341
tp2342
bag521
(g522
(I0
tp2343
g524
tp2344
Rp2345
(I1
(I3
tp2346
g563
I00
S'`\xc8Aw-\x81\xeb?/\xc3\xe6O\x04\xca\x10\xc0\x8a\xb7K)\x91{\xe4\xbf'
p2347
tp2348
bag521
(g522
(I0
tp2349
g524
tp2350
Rp2351
(I1
(I3
tp2352
g563
I00
S'\xe1\xc6\xc7\xa7\x12X\xe7?\x98\x99\xb0\x9a\xfb\xdb\x0b\xc0R\t\x1b)\xeae\xe0\xbf'
p2353
tp2354
bag521
(g522
(I0
tp2355
g524
tp2356
Rp2357
(I1
(I3
tp2358
g563
I00
S'p\xf1\xbdc^\x84\xf1?"\x88LL\xf9D\x06\xc0~w\r\xe9m\x0f\x19@'
p2359
tp2360
bas(g774
g15
tp2361
(lp2362
g521
(g522
(I0
tp2363
g524
tp2364
Rp2365
(I1
(I3
tp2366
g531
I00
S'_\xc8\xacwl\xa9\x05@\x8eL\xa6~\x15\xe6\x1c\xc0<\xd4\xf5\xbd\xf4\xd8\x15@'
p2367
tp2368
bas(g507
g15
tp2369
(lp2370
g521
(g522
(I0
tp2371
g524
tp2372
Rp2373
(I1
(I3
tp2374
g531
I00
S'\xe6\xee\xbc7\x1c\xc9\xc2\xbf\x05{?`*X\x16\xc0\xc3\xcf\x15Rt\xb2\x14@'
p2375
tp2376
bas(g774
g11
tp2377
(lp2378
g521
(g522
(I0
tp2379
g524
tp2380
Rp2381
(I1
(I3
tp2382
g531
I00
S'b\xc8\xacwl\xa9\x05@\x8dL\xa6~\x15\xe6\x1c\xc0<\xd4\xf5\xbd\xf4\xd8\x15@'
p2383
tp2384
bag521
(g522
(I0
tp2385
g524
tp2386
Rp2387
(I1
(I3
tp2388
g563
I00
S'\xd0F\nX\x99\x97\x00@\x820\x00\xd6\xafP\x1e\xc0V\x17\x0f\xa5\x97\r\xff\xbf'
p2389
tp2390
bag521
(g522
(I0
tp2391
g524
tp2392
Rp2393
(I1
(I3
tp2394
g563
I00
S'S@\xf8l\x95\x08\xf8?\xef\x91If\xa4L\x1e\xc0\x8b\xc5pa\xf4C\x04\xc0'
p2395
tp2396
bag521
(g522
(I0
tp2397
g524
tp2398
Rp2399
(I1
(I3
tp2400
g563
I00
S'X\xa4u\xbc=r\xf6?\x90\xee\xc4\x1eW\xf8\x1b\xc0\xcc: \xa4-\x95\x01\xc0'
p2401
tp2402
bag521
(g522
(I0
tp2403
g524
tp2404
Rp2405
(I1
(I3
tp2406
g563
I00
S'\xb0\xcfg\xd5._\xe8?\xd6\x8d\xba\x87\x91D\x1a\xc0\xea!\xf73\x0cB\xf7\xbf'
p2407
tp2408
bag521
(g522
(I0
tp2409
g524
tp2410
Rp2411
(I1
(I3
tp2412
g563
I00
S'\xb0\x11@i\x1f\x12\xb4?\x01\xb6C\x19\x0b\x9d\x1a\xc0\xda \xc5\xc8m8\xeb?'
p2413
tp2414
bag521
(g522
(I0
tp2415
g524
tp2416
Rp2417
(I1
(I3
tp2418
g563
I00
S'Dz\xddx\xe9\xf0\xb4?\x9c\xf2\xf6\xf0\xef \x18\xc0\x03\xe5\x88\xf0JN\xf3?'
p2419
tp2420
bag521
(g522
(I0
tp2421
g524
tp2422
Rp2423
(I1
(I3
tp2424
g563
I00
S'\xe4\x02R\xd9\x08\x8c\xc7?2\xc1\xd4;\xf6\xf3\x15\xc0>\x8c\x8fa?0\xd8?'
p2425
tp2426
bag521
(g522
(I0
tp2427
g524
tp2428
Rp2429
(I1
(I3
tp2430
g563
I00
S'\xcc\x87!\x1f\xfb\x05\xe6?\x14;\x08\xf1<\xc6\x13\xc0V!\xac1j\x94\xc8?'
p2431
tp2432
bag521
(g522
(I0
tp2433
g524
tp2434
Rp2435
(I1
(I3
tp2436
g563
I00
S'`\xc8Aw-\x81\xeb?/\xc3\xe6O\x04\xca\x10\xc0\x8a\xb7K)\x91{\xe4\xbf'
p2437
tp2438
bag521
(g522
(I0
tp2439
g524
tp2440
Rp2441
(I1
(I3
tp2442
g563
I00
S'\xe1\xc6\xc7\xa7\x12X\xe7?\x98\x99\xb0\x9a\xfb\xdb\x0b\xc0R\t\x1b)\xeae\xe0\xbf'
p2443
tp2444
bag521
(g522
(I0
tp2445
g524
tp2446
Rp2447
(I1
(I3
tp2448
g563
I00
S'p\xf1\xbdc^\x84\xf1?"\x88LL\xf9D\x06\xc0~w\r\xe9m\x0f\x19@'
p2449
tp2450
bas(g730
g15
tp2451
(lp2452
g521
(g522
(I0
tp2453
g524
tp2454
Rp2455
(I1
(I3
tp2456
g531
I00
S'\x07<\xcb\x84%_\x0e@Ib\x19\xdf/\x0e\x1c\xc0\xd7\t\xc4E\xe0{\xf7?'
p2457
tp2458
bas(g730
g11
tp2459
g1229
s(g818
g11
tp2460
g1035
s(g618
g11
tp2461
g1141
s(g618
g15
tp2462
(lp2463
g521
(g522
(I0
tp2464
g524
tp2465
Rp2466
(I1
(I3
tp2467
g531
I00
S'\xe7\xfb\xaaE\x8f\xc1\xe5?\xb9\xa6\xc5gY\x12\x1f\xc0])%M\x96\x93\x08@'
p2468
tp2469
bas(g862
g15
tp2470
(lp2471
g521
(g522
(I0
tp2472
g524
tp2473
Rp2474
(I1
(I3
tp2475
g531
I00
S'\xb0\xdc\xa0]\xb4\xb3\xed?_\xb9\xcf\x1f\xa8Q\x13\xc0:\x0eA\xb8^ \x13@'
p2476
tp2477
bas(g818
g15
tp2478
(lp2479
g521
(g522
(I0
tp2480
g524
tp2481
Rp2482
(I1
(I3
tp2483
g531
I00
S'\xbd\x9ct\x99Y\x93\x0e@\xa9\x82\x19\x7fa\xb4\x17\xc0\r\x07\x97\xeb\xfc\n\x00@'
p2484
tp2485
bas(g574
g15
tp2486
(lp2487
g521
(g522
(I0
tp2488
g524
tp2489
Rp2490
(I1
(I3
tp2491
g531
I00
S'\x89\x07\xbd)b\xbe\xfb?\t\x85t\x92\x153\x18\xc0\xb00\xe9\xb77m\x17@'
p2492
tp2493
bas(g574
g11
tp2494
g1097
s(g674
g11
tp2495
g1197
ssS'parent_binary_predicates'
p2496
(dp2497
(g30
g46
tp2498
(lp2499
I00
aI00
aI00
as(g30
g30
tp2500
(lp2501
I00
aI00
aI00
as(g10
g46
tp2502
(lp2503
I00
aI00
aI00
as(g11
g10
tp2504
(lp2505
I00
aI00
aI00
as(g23
g10
tp2506
(lp2507
I00
aI00
aI00
as(g19
g30
tp2508
(lp2509
I00
aI01
aI00
as(g33
g33
tp2510
(lp2511
I00
aI00
aI00
as(g10
g15
tp2512
(lp2513
g1385
(g528
(S'b1'
p2514
I0
I1
tp2515
Rp2516
(I3
S'|'
p2517
NNNI-1
I-1
I0
tp2518
bS'\x01'
p2519
tp2520
Rp2521
aI00
aI01
as(g33
g23
tp2522
(lp2523
I00
aI00
aI00
as(g14
g11
tp2524
(lp2525
I00
aI00
aI00
as(g15
g33
tp2526
(lp2527
I00
aI00
aI00
as(g10
g23
tp2528
(lp2529
I00
aI00
aI00
as(g30
g18
tp2530
(lp2531
g2521
aI00
aI00
as(g46
g10
tp2532
(lp2533
I00
aI00
aI00
as(g10
g11
tp2534
(lp2535
I00
aI00
aI00
as(g18
g15
tp2536
(lp2537
I00
aI00
aI00
as(g33
g19
tp2538
(lp2539
I00
aI00
aI00
as(g14
g14
tp2540
(lp2541
I00
aI00
aI00
as(g10
g18
tp2542
(lp2543
g2521
aI00
aI00
as(g18
g33
tp2544
(lp2545
I00
aI00
aI00
as(g15
g46
tp2546
(lp2547
I00
aI00
aI00
as(g15
g30
tp2548
(lp2549
I00
aI00
aI00
as(g46
g11
tp2550
(lp2551
I00
aI00
aI01
as(g23
g33
tp2552
(lp2553
I00
aI01
aI00
as(g19
g33
tp2554
(lp2555
I00
aI01
aI00
as(g46
g19
tp2556
(lp2557
I00
aI00
aI00
as(g18
g11
tp2558
(lp2559
I00
aI00
aI00
as(g14
g10
tp2560
(lp2561
I00
aI00
aI00
as(g33
g46
tp2562
(lp2563
I00
aI00
aI00
as(g18
g46
tp2564
(lp2565
I00
aI00
aI00
as(g46
g18
tp2566
(lp2567
g2521
aI00
aI00
as(g23
g14
tp2568
(lp2569
I00
aI00
aI00
as(g30
g10
tp2570
(lp2571
I00
aI00
aI00
as(g23
g11
tp2572
(lp2573
I00
aI00
aI01
as(g18
g18
tp2574
(lp2575
I00
aI00
aI00
as(g10
g30
tp2576
(lp2577
I00
aI00
aI00
as(g46
g33
tp2578
(lp2579
I00
aI00
aI00
as(g11
g18
tp2580
(lp2581
I00
aI00
aI00
as(g11
g14
tp2582
(lp2583
I00
aI00
aI00
as(g19
g15
tp2584
(lp2585
g2521
aI00
aI01
as(g11
g19
tp2586
(lp2587
I00
aI00
aI00
as(g23
g30
tp2588
(lp2589
I00
aI01
aI00
as(g30
g14
tp2590
(lp2591
I00
aI00
aI00
as(g46
g15
tp2592
(lp2593
g2521
aI00
aI01
as(g30
g19
tp2594
(lp2595
I00
aI00
aI00
as(g46
g46
tp2596
(lp2597
I00
aI00
aI00
as(g19
g10
tp2598
(lp2599
I00
aI00
aI00
as(g15
g11
tp2600
(lp2601
I00
aI00
aI00
as(g33
g11
tp2602
(lp2603
I00
aI00
aI01
as(g18
g19
tp2604
(lp2605
I00
aI00
aI00
as(g11
g23
tp2606
(lp2607
I00
aI00
aI00
as(g30
g23
tp2608
(lp2609
I00
aI00
aI00
as(g19
g18
tp2610
(lp2611
g2521
aI00
aI00
as(g23
g15
tp2612
(lp2613
g2521
aI00
aI01
as(g33
g10
tp2614
(lp2615
I00
aI00
aI00
as(g33
g15
tp2616
(lp2617
g2521
aI00
aI01
as(g18
g23
tp2618
(lp2619
I00
aI00
aI00
as(g15
g10
tp2620
(lp2621
I00
aI00
aI00
as(g19
g11
tp2622
(lp2623
I00
aI00
aI00
as(g14
g19
tp2624
(lp2625
I00
aI00
aI00
as(g15
g15
tp2626
(lp2627
I00
aI00
aI00
as(g14
g46
tp2628
(lp2629
I00
aI00
aI00
as(g15
g14
tp2630
(lp2631
I00
aI00
aI00
as(g10
g33
tp2632
(lp2633
I00
aI00
aI00
as(g19
g46
tp2634
(lp2635
I00
aI00
aI00
as(g15
g19
tp2636
(lp2637
I00
aI00
aI00
as(g14
g18
tp2638
(lp2639
g2521
aI00
aI00
as(g10
g10
tp2640
(lp2641
I00
aI00
aI00
as(g14
g33
tp2642
(lp2643
I00
aI00
aI00
as(g33
g14
tp2644
(lp2645
I00
aI00
aI00
as(g10
g14
tp2646
(lp2647
I00
aI00
aI00
as(g15
g23
tp2648
(lp2649
I00
aI00
aI00
as(g10
g19
tp2650
(lp2651
I00
aI01
aI00
as(g19
g19
tp2652
(lp2653
I00
aI00
aI00
as(g46
g14
tp2654
(lp2655
I00
aI00
aI00
as(g14
g23
tp2656
(lp2657
I00
aI00
aI00
as(g11
g46
tp2658
(lp2659
I00
aI00
aI00
as(g11
g30
tp2660
(lp2661
I00
aI00
aI00
as(g23
g19
tp2662
(lp2663
I00
aI00
aI00
as(g30
g11
tp2664
(lp2665
I00
aI00
aI00
as(g30
g15
tp2666
(lp2667
g2521
aI00
aI01
as(g19
g14
tp2668
(lp2669
I00
aI00
aI00
as(g33
g30
tp2670
(lp2671
I00
aI00
aI00
as(g11
g15
tp2672
(lp2673
I00
aI00
aI00
as(g18
g30
tp2674
(lp2675
I00
aI00
aI00
as(g46
g30
tp2676
(lp2677
I00
aI00
aI00
as(g11
g11
tp2678
(lp2679
I00
aI00
aI00
as(g19
g23
tp2680
(lp2681
I00
aI01
aI00
as(g33
g18
tp2682
(lp2683
g2521
aI00
aI00
as(g23
g18
tp2684
(lp2685
g2521
aI00
aI00
as(g18
g10
tp2686
(lp2687
I00
aI00
aI00
as(g11
g33
tp2688
(lp2689
I00
aI00
aI00
as(g46
g23
tp2690
(lp2691
I00
aI00
aI00
as(g23
g46
tp2692
(lp2693
I00
aI00
aI00
as(g30
g33
tp2694
(lp2695
I00
aI00
aI00
as(g15
g18
tp2696
(lp2697
I00
aI00
aI00
as(g14
g30
tp2698
(lp2699
I00
aI00
aI00
as(g23
g23
tp2700
(lp2701
I00
aI00
aI00
as(g14
g15
tp2702
(lp2703
g2521
aI00
aI01
as(g18
g14
tp2704
(lp2705
I00
aI00
aI00
assS'nodes'
p2706
(dp2707
g18
(lp2708
I0
aI0
aI0
aI0
aI0
aI0
aI00
aI01
aI00
aI01
aI00
asg15
(lp2709
I0
aI0
aI0
aI0
aI0
aI0
aI00
aI01
aI00
aI01
aI00
asg11
(lp2710
I0
aI0
aI0
aI0
aI0
aI0
aI00
aI01
aI01
aI01
aI00
asg33
(lp2711
I0
aI0
aI0
ag1385
(g531
S'l\x1e]pS`\xd2?'
p2712
tp2713
Rp2714
ag1385
(g531
S'\x06\x1b\xb6\xe9Ei\x18\xc0'
p2715
tp2716
Rp2717
ag1385
(g531
S'\x82\x97\xe8\xa1t:\xe4?'
p2718
tp2719
Rp2720
aI01
aI00
aI00
aI00
aI00
asg10
(lp2721
I0
aI0
aI0
ag1385
(g531
S'{#\x8a\xa8\xbfB\x02@'
p2722
tp2723
Rp2724
ag1385
(g531
S']@\xdd\xaa0\xf7\x1a\xc0'
p2725
tp2726
Rp2727
ag1385
(g531
S'\xa2\x93\xe4\xf2\xe3\x8f\xe0?'
p2728
tp2729
Rp2730
aI01
aI00
aI00
aI01
aI00
asg30
(lp2731
I0
aI0
aI0
ag1385
(g531
S'X\xa3$/\t\xb1\xb0?'
p2732
tp2733
Rp2734
ag1385
(g531
S'v\xd9\xd7\x88y7\x1e\xc0'
p2735
tp2736
Rp2737
ag1385
(g531
S'\xa1\xa8\xa4gcb\x12@'
p2738
tp2739
Rp2740
aI01
aI00
aI00
aI00
aI00
asg19
(lp2741
I0
aI0
aI0
ag1385
(g531
S'\xf71, \xdaJ\xf5?'
p2742
tp2743
Rp2744
ag1385
(g531
S'\x8f\x94\xc7_\x9e4\x18\xc0'
p2745
tp2746
Rp2747
ag1385
(g531
S'\x88,&\x8ck,\x0b@'
p2748
tp2749
Rp2750
aI01
aI00
aI00
aI00
aI00
asg22
(lp2751
I0
aI0
aI0
ag1385
(g531
S'\xc9e\x0f\x13:\xfe\r@'
p2752
tp2753
Rp2754
ag1385
(g531
S'Q/H\xad\x96u\x19\xc0'
p2755
tp2756
Rp2757
ag1385
(g531
S'\xb84\xd4\xa7X\xae\x11@'
p2758
tp2759
Rp2760
aI01
aI00
aI00
aI01
aI00
asg46
(lp2761
I0
aI0
aI0
ag1385
(g531
S'\xc4\xc6\x84Ad\xa3\n@'
p2762
tp2763
Rp2764
ag1385
(g531
S'>\xaf\xb2\x18;\x05\x1e\xc0'
p2765
tp2766
Rp2767
ag1385
(g531
S'j8\xf9\x85\xb6\xac\x0f@'
p2768
tp2769
Rp2770
aI01
aI00
aI00
aI00
aI00
asg14
(lp2771
I0
aI0
aI0
ag1385
(g531
S'Y\xcf\x19\xc3\xf23\x0c@'
p2772
tp2773
Rp2774
ag1385
(g531
S'\xac\xb5r\xad\x0f?\x15\xc0'
p2775
tp2776
Rp2777
ag1385
(g531
S'\xbf~a\xe9h\n\x13@'
p2778
tp2779
Rp2780
aI01
aI00
aI01
aI01
aI00
asg23
(lp2781
I0
aI0
aI0
ag1385
(g531
S'\xc2\xcf\xcef\xfe\xbb\xf0?'
p2782
tp2783
Rp2784
ag1385
(g531
S'L@\xfc\xa1\x9e\xc0\x16\xc0'
p2785
tp2786
Rp2787
ag1385
(g531
S'\xaeKe\x14U\xf8\x13@'
p2788
tp2789
Rp2790
aI01
aI00
aI00
aI00
aI00
assS'mc_place_path'
p2791
(dp2792
sS'parent_state'
p2793
(itrajectory_representation.shortest_path_pick_and_place_state
ShortestPathPaPState
p2794
(dp2795
g2
(dp2796
sg4
(itrajectory_representation.predicates.in_region
InRegion
p2797
(dp2798
g7
Nsbsg8
(dp2799
(g10
g10
g11
tp2800
g13
s(g14
g15
g15
tp2801
g17
s(g18
g19
g11
tp2802
g21
s(g22
g23
g15
tp2803
(lp2804
I00
as(g11
g11
g11
tp2805
g27
s(g23
g10
g15
tp2806
g29
s(g14
g30
g11
tp2807
g32
s(g11
g33
g11
tp2808
g35
s(g22
g14
g11
tp2809
(lp2810
I00
as(g30
g33
g15
tp2811
g39
s(g11
g23
g15
tp2812
g41
s(g22
g18
g11
tp2813
(lp2814
I00
as(g15
g11
g15
tp2815
g45
s(g33
g46
g11
tp2816
g48
s(g23
g18
g11
tp2817
g50
s(g22
g19
g15
tp2818
(lp2819
I00
as(g46
g15
g11
tp2820
g54
s(g18
g10
g15
tp2821
g56
s(g11
g18
g11
tp2822
g58
s(g10
g15
g11
tp2823
g60
s(g46
g18
g11
tp2824
g62
s(g14
g14
g15
tp2825
g64
s(g15
g23
g15
tp2826
g66
s(g18
g15
g11
tp2827
g68
s(g18
g22
g11
tp2828
(lp2829
I00
as(g15
g15
g11
tp2830
g72
s(g46
g33
g15
tp2831
g74
s(g11
g11
g15
tp2832
g76
s(g19
g22
g15
tp2833
(lp2834
I00
as(g10
g23
g11
tp2835
g80
s(g46
g14
g11
tp2836
g82
s(g19
g11
g15
tp2837
g84
s(g11
g10
g15
tp2838
g86
s(g19
g30
g15
tp2839
g88
s(g30
g19
g11
tp2840
g90
s(g15
g14
g15
tp2841
g92
s(g23
g22
g15
tp2842
(lp2843
I00
as(g10
g10
g15
tp2844
g96
s(g18
g23
g11
tp2845
g98
s(g15
g11
g11
tp2846
g100
s(g33
g10
g11
tp2847
g102
s(g11
g30
g11
tp2848
g104
s(g22
g19
g11
tp2849
(lp2850
I01
as(g30
g23
g11
tp2851
g108
s(g14
g30
g15
tp2852
g110
s(g46
g22
g11
tp2853
(lp2854
I00
as(g22
g14
g15
tp2855
(lp2856
I00
as(g22
g10
g15
tp2857
(lp2858
I00
as(g18
g22
g15
tp2859
(lp2860
I00
as(g15
g30
g15
tp2861
g120
s(g18
g11
g11
tp2862
g122
s(g33
g11
g11
tp2863
g124
s(g15
g18
g11
tp2864
g126
s(g10
g23
g15
tp2865
g128
s(g46
g10
g15
tp2866
g130
s(g46
g46
g11
tp2867
g132
s(g19
g30
g11
tp2868
g134
s(g18
g10
g11
tp2869
g136
s(g19
g15
g15
tp2870
g138
s(g23
g14
g11
tp2871
g140
s(g14
g14
g11
tp2872
g142
s(g14
g33
g11
tp2873
g144
s(g33
g10
g15
tp2874
g146
s(g23
g19
g15
tp2875
g148
s(g46
g33
g11
tp2876
g150
s(g19
g22
g11
tp2877
(lp2878
I00
as(g10
g19
g15
tp2879
g154
s(g19
g11
g11
tp2880
g156
s(g22
g10
g11
tp2881
(lp2882
I01
as(g10
g46
g11
tp2883
g160
s(g30
g19
g15
tp2884
g162
s(g11
g22
g15
tp2885
(lp2886
I00
as(g18
g11
g15
tp2887
g166
s(g18
g23
g15
tp2888
g168
s(g46
g10
g11
tp2889
g170
s(g30
g46
g15
tp2890
g172
s(g10
g18
g15
tp2891
g174
s(g19
g15
g11
tp2892
g176
s(g46
g22
g15
tp2893
(lp2894
I00
as(g46
g19
g15
tp2895
g180
s(g23
g14
g15
tp2896
g182
s(g11
g30
g15
tp2897
g184
s(g18
g46
g15
tp2898
g186
s(g15
g30
g11
tp2899
g188
s(g15
g22
g15
tp2900
(lp2901
I00
as(g10
g19
g11
tp2902
g192
s(g23
g19
g11
tp2903
g194
s(g15
g46
g11
tp2904
g196
s(g10
g46
g15
tp2905
g198
s(g10
g33
g15
tp2906
g200
s(g30
g23
g15
tp2907
g202
s(g14
g33
g15
tp2908
g204
s(g19
g46
g15
tp2909
g206
s(g11
g14
g15
tp2910
g208
s(g30
g15
g15
tp2911
g210
s(g33
g11
g15
tp2912
g212
s(g14
g19
g11
tp2913
g214
s(g10
g18
g11
tp2914
g216
s(g33
g22
g15
tp2915
(lp2916
I00
as(g30
g10
g15
tp2917
g220
s(g46
g19
g11
tp2918
g222
s(g23
g15
g15
tp2919
g224
s(g22
g11
g11
tp2920
(lp2921
I00
as(g23
g33
g11
tp2922
g228
s(g11
g46
g15
tp2923
g230
s(g15
g19
g15
tp2924
g232
s(g15
g46
g15
tp2925
g234
s(g14
g46
g11
tp2926
g236
s(g19
g46
g11
tp2927
g238
s(g14
g19
g15
tp2928
g240
s(g30
g10
g11
tp2929
g242
s(g10
g22
g11
tp2930
(lp2931
I00
as(g30
g11
g15
tp2932
g246
s(g23
g15
g11
tp2933
g248
s(g15
g33
g15
tp2934
g250
s(g10
g33
g11
tp2935
g252
s(g30
g30
g11
tp2936
g254
s(g33
g33
g11
tp2937
g256
s(g33
g30
g15
tp2938
g258
s(g30
g15
g11
tp2939
g260
s(g46
g23
g11
tp2940
g262
s(g33
g22
g11
tp2941
(lp2942
I00
as(g22
g15
g15
tp2943
(lp2944
I00
as(g30
g18
g15
tp2945
g268
s(g22
g11
g15
tp2946
(lp2947
I00
as(g14
g22
g15
tp2948
(lp2949
I00
as(g23
g33
g15
tp2950
g274
s(g46
g11
g15
tp2951
g276
s(g30
g11
g11
tp2952
g278
s(g15
g33
g11
tp2953
g280
s(g19
g19
g11
tp2954
g282
s(g15
g23
g11
tp2955
g284
s(g23
g46
g11
tp2956
g286
s(g14
g10
g11
tp2957
g288
s(g14
g46
g15
tp2958
g290
s(g33
g14
g15
tp2959
g292
s(g11
g22
g11
tp2960
(lp2961
I00
as(g18
g30
g15
tp2962
g296
s(g30
g14
g11
tp2963
g298
s(g19
g18
g11
tp2964
g300
s(g46
g23
g15
tp2965
g302
s(g46
g30
g15
tp2966
g304
s(g33
g19
g11
tp2967
g306
s(g10
g22
g15
tp2968
(lp2969
I00
as(g33
g15
g11
tp2970
g310
s(g30
g18
g11
tp2971
g312
s(g23
g30
g15
tp2972
g314
s(g10
g14
g11
tp2973
g316
s(g46
g14
g15
tp2974
g318
s(g23
g23
g15
tp2975
g320
s(g33
g33
g15
tp2976
g322
s(g19
g19
g15
tp2977
g324
s(g14
g23
g15
tp2978
g326
s(g23
g22
g11
tp2979
(lp2980
I00
as(g18
g14
g11
tp2981
g330
s(g11
g18
g15
tp2982
g332
s(g11
g19
g15
tp2983
g334
s(g22
g15
g11
tp2984
(lp2985
I00
as(g14
g10
g15
tp2986
g338
s(g19
g14
g15
tp2987
g340
s(g30
g30
g15
tp2988
g342
s(g18
g30
g11
tp2989
g344
s(g22
g30
g15
tp2990
(lp2991
I00
as(g19
g18
g15
tp2992
g348
s(g14
g22
g11
tp2993
(lp2994
I01
as(g33
g19
g15
tp2995
g352
s(g33
g30
g11
tp2996
g354
s(g23
g30
g11
tp2997
g356
s(g14
g11
g15
tp2998
g358
s(g22
g46
g11
tp2999
(lp3000
I00
as(g46
g46
g15
tp3001
g362
s(g33
g18
g11
tp3002
g364
s(g15
g18
g15
tp3003
g366
s(g23
g46
g15
tp3004
g368
s(g15
g19
g11
tp3005
g370
s(g18
g18
g15
tp3006
g372
s(g33
g14
g11
tp3007
g374
s(g14
g23
g11
tp3008
g376
s(g15
g10
g15
tp3009
g378
s(g30
g14
g15
tp3010
g380
s(g46
g11
g11
tp3011
g382
s(g18
g14
g15
tp3012
g384
s(g46
g30
g11
tp3013
g386
s(g30
g22
g11
tp3014
(lp3015
I00
as(g33
g15
g15
tp3016
g390
s(g10
g14
g15
tp3017
g392
s(g19
g10
g11
tp3018
g394
s(g18
g15
g15
tp3019
g396
s(g15
g10
g11
tp3020
g398
s(g14
g18
g11
tp3021
g400
s(g22
g46
g15
tp3022
(lp3023
I00
as(g22
g33
g15
tp3024
(lp3025
I00
as(g23
g11
g11
tp3026
g406
s(g33
g18
g15
tp3027
g408
s(g33
g23
g11
tp3028
g410
s(g18
g33
g15
tp3029
g412
s(g11
g19
g11
tp3030
g414
s(g11
g46
g11
tp3031
g416
s(g19
g14
g11
tp3032
g418
s(g19
g33
g11
tp3033
g420
s(g18
g46
g11
tp3034
g422
s(g22
g30
g11
tp3035
(lp3036
I00
as(g22
g22
g15
tp3037
(lp3038
I00
as(g19
g23
g15
tp3039
g428
s(g23
g11
g15
tp3040
g430
s(g10
g11
g11
tp3041
g432
s(g14
g11
g11
tp3042
g434
s(g19
g10
g15
tp3043
g436
s(g23
g10
g11
tp3044
g438
s(g11
g15
g11
tp3045
g440
s(g18
g18
g11
tp3046
g442
s(g10
g30
g15
tp3047
g444
s(g14
g18
g15
tp3048
g446
s(g15
g22
g11
tp3049
(lp3050
I00
as(g30
g33
g11
tp3051
g450
s(g18
g33
g11
tp3052
g452
s(g14
g15
g11
tp3053
g454
s(g30
g22
g15
tp3054
(lp3055
I00
as(g11
g14
g11
tp3056
g458
s(g18
g19
g15
tp3057
g460
s(g23
g18
g15
tp3058
g462
s(g22
g22
g11
tp3059
(lp3060
I00
as(g19
g23
g11
tp3061
g466
s(g46
g18
g15
tp3062
g468
s(g22
g33
g11
tp3063
(lp3064
I00
as(g11
g23
g11
tp3065
g472
s(g30
g46
g11
tp3066
g474
s(g33
g23
g15
tp3067
g476
s(g23
g23
g11
tp3068
g478
s(g19
g33
g15
tp3069
g480
s(g22
g23
g11
tp3070
(lp3071
I01
as(g46
g15
g15
tp3072
g484
s(g11
g10
g11
tp3073
g486
s(g10
g15
g15
tp3074
g488
s(g11
g33
g15
tp3075
g490
s(g10
g11
g15
tp3076
g492
s(g15
g15
g15
tp3077
g494
s(g22
g18
g15
tp3078
(lp3079
I00
as(g33
g46
g15
tp3080
g498
s(g11
g15
g15
tp3081
g500
s(g10
g30
g11
tp3082
g502
s(g15
g14
g11
tp3083
g504
ssg505
(dp3084
Vrectangular_packing_box4
p3085
g508
sVrectangular_packing_box2
p3086
g575
sVrectangular_packing_box3
p3087
g619
sVrectangular_packing_box1
p3088
g675
sVsquare_packing_box2
p3089
(itrajectory_representation.operator
Operator
p3090
(dp3091
g510
I01
sg511
(dp3092
g513
Vsquare_packing_box2
p3093
ssg515
g516
sg517
(dp3094
g519
(lp3095
g521
(g522
(I0
tp3096
g524
tp3097
Rp3098
(I1
(I3
tp3099
g531
I00
S'\xd7\xf2\xfc\xf7\x04\xce\x07@\xc7Ffi\xc6\xf0\x16\xc0\xc5\xbd\xe5i\xab\xcd\xdf\xbf'
p3100
tp3101
bag521
(g522
(I0
tp3102
g524
tp3103
Rp3104
(I1
(I3
tp3105
g531
I00
S'\x1e\xd3\x8e\xcahk\x08@\xb7\xdbN\x1b\x86\x83\x16\xc06\xe8\xe4\xa8\x83\xc5\xcb\xbf'
p3106
tp3107
bag521
(g522
(I0
tp3108
g524
tp3109
Rp3110
(I1
(I3
tp3111
g531
I00
S'\xd3Ln\x97\x8eR\x0c@\xdc\xe0c\xed\xbf\xe1\x19\xc07v\xab\x11\x1f\xda\xf6?'
p3112
tp3113
basg548
I00
ssg549
(lp3114
g521
(g522
(I0
tp3115
g524
tp3116
Rp3117
(I1
(I3
tp3118
g531
I00
S'cR\xdd8\xd6\x8d\x00@\xc1C|\xd2X\x00\x16\xc0\xc1\xab\x9e\x0b\x900\xd2?'
p3119
tp3120
bag521
(g522
(I0
tp3121
g524
tp3122
Rp3123
(I1
(I3
tp3124
g563
I00
S'\x00\xda\x1c<\xfd\xdc\x00@j"\x91\xe3 \x1a\x18\xc0i~!@)\xb0\xdc\xbf'
p3125
tp3126
bag521
(g522
(I0
tp3127
g524
tp3128
Rp3129
(I1
(I3
tp3130
g563
I00
S'\xe6rt0\xc6`\x05@\xe8\xf6\xaa\xc7\x03\x10\x17\xc0v\x9e\xc9\x80o\x15\xed\xbf'
p3131
tp3132
bag3098
asbsVsquare_packing_box3
p3133
g775
sVsquare_packing_box1
p3134
g819
sVsquare_packing_box4
p3135
g863
ssg912
I01
sg913
(lp3136
S'square_packing_box1'
p3137
aS'rectangular_packing_box1'
p3138
aS'square_packing_box2'
p3139
aS'rectangular_packing_box2'
p3140
aS'square_packing_box3'
p3141
aS'rectangular_packing_box3'
p3142
aS'square_packing_box4'
p3143
aS'rectangular_packing_box4'
p3144
asg7
Nsg923
(dp3145
Vrectangular_packing_box4
p3146
g929
sVrectangular_packing_box2
p3147
g933
sVrectangular_packing_box3
p3148
g937
sVrectangular_packing_box1
p3149
g941
sVsquare_packing_box2
p3150
g926
((lp3151
I0
aI1
aI393
aI144
aI403
aI541
aI545
aI546
aI555
aI571
aI454
aI342
aI473
aI474
aI367
aI368
aI369
aI370
aI371
aI247
aI248
aI377
aI378
atp3152
Rp3153
sVsquare_packing_box3
p3154
g949
sVsquare_packing_box1
p3155
g953
sVsquare_packing_box4
p3156
g957
ssg958
(lp3157
(g3085
g15
tp3158
a(g3086
g15
tp3159
a(g3087
g15
tp3160
a(g3088
g15
tp3161
a(g3089
g15
tp3162
a(g3133
g15
tp3163
a(g3134
g15
tp3164
a(g3135
g15
tp3165
a(g3085
g11
tp3166
a(g3133
g11
tp3167
a(g3135
g11
tp3168
asg971
(dp3169
Vrectangular_packing_box4
p3170
g521
(g522
(I0
tp3171
g524
tp3172
Rp3173
(I1
(I1
I3
tp3174
g531
I00
S'\x98\x1e]pS`\xd2?\x16\x1b\xb6\xe9Ei\x18\xc0\x82\x97\xe8\xa1t:\xe4?'
p3175
tp3176
bsVrectangular_packing_box2
p3177
g521
(g522
(I0
tp3178
g524
tp3179
Rp3180
(I1
(I1
I3
tp3181
g531
I00
S'x#\x8a\xa8\xbfB\x02@]@\xdd\xaa0\xf7\x1a\xc0\xa2\x93\xe4\xf2\xe3\x8f\xe0?'
p3182
tp3183
bsVrectangular_packing_box3
p3184
g521
(g522
(I0
tp3185
g524
tp3186
Rp3187
(I1
(I1
I3
tp3188
g531
I00
S'\xbc\xa2$/\t\xb1\xb0?p\xd9\xd7\x88y7\x1e\xc0\xa1\xa8\xa4gcb\x12@'
p3189
tp3190
bsVrectangular_packing_box1
p3191
g521
(g522
(I0
tp3192
g524
tp3193
Rp3194
(I1
(I1
I3
tp3195
g531
I00
S'\xf81, \xdaJ\xf5?\x90\x94\xc7_\x9e4\x18\xc0\x88,&\x8ck,\x0b@'
p3196
tp3197
bsVsquare_packing_box2
p3198
g521
(g522
(I0
tp3199
g524
tp3200
Rp3201
(I1
(I1
I3
tp3202
g531
I00
S'\xb3\x99\x7f<\xad\xb4\r@\xd8\xe5\x95\xe8\xfc\xf0\x16\xc0Y\x96n\x9e\xe7\t\x19@'
p3203
tp3204
bsVsquare_packing_box3
p3205
g521
(g522
(I0
tp3206
g524
tp3207
Rp3208
(I1
(I1
I3
tp3209
g531
I00
S'2\xc7\x84Ad\xa3\n@\xae\xaf\xb2\x18;\x05\x1e\xc0j8\xf9\x85\xb6\xac\x0f@'
p3210
tp3211
bsVsquare_packing_box1
p3212
g521
(g522
(I0
tp3213
g524
tp3214
Rp3215
(I1
(I1
I3
tp3216
g531
I00
S'\x15\xcf\x19\xc3\xf23\x0c@\x8b\xb5r\xad\x0f?\x15\xc0\xbf~a\xe9h\n\x13@'
p3217
tp3218
bsVsquare_packing_box4
p3219
g521
(g522
(I0
tp3220
g524
tp3221
Rp3222
(I1
(I1
I3
tp3223
g531
I00
S'V\xce\xcef\xfe\xbb\xf0?J@\xfc\xa1\x9e\xc0\x16\xc0\xaeKe\x14U\xf8\x13@'
p3224
tp3225
bssg1029
(itrajectory_representation.predicates.place_in_way
PlaceInWay
p3226
(dp3227
g1032
(dp3228
(g14
g11
tp3229
(lp3230
g521
(g522
(I0
tp3231
g524
tp3232
Rp3233
(I1
(I3
tp3234
g531
I00
S'\xba\x9ct\x99Y\x93\x0e@\xa6\x82\x19\x7fa\xb4\x17\xc0\x0c\x07\x97\xeb\xfc\n\x00@'
p3235
tp3236
bag521
(g522
(I0
tp3237
g524
tp3238
Rp3239
(I1
(I3
tp3240
g563
I00
S'\xcb\x1a\x84\x1d\\\x9c\x08@\xec\xcbi\xc9#;\x18\xc0\xbf\xf24g\x02T\x05@'
p3241
tp3242
bag521
(g522
(I0
tp3243
g524
tp3244
Rp3245
(I1
(I3
tp3246
g563
I00
S'\xf8d\x877\x12\xfd\x04@h\xdbW\x9a\x83\x8e\x16\xc0\x87\xf16\xb9\x03k\x05@'
p3247
tp3248
bag521
(g522
(I0
tp3249
g524
tp3250
Rp3251
(I1
(I3
tp3252
g563
I00
S'\xc7\xc7\x06s\xd6\xa3\xff?3\x91\xe4\x97\xb5\x07\x16\xc0\x1bW\xbc\xbfY:\x06@'
p3253
tp3254
bag521
(g522
(I0
tp3255
g524
tp3256
Rp3257
(I1
(I3
tp3258
g563
I00
S'\x85\\2\xba\x0b5\xf5?I\r\x06\xd10\xfb\x15\xc0\x9e\x11\xee\xd8\xb9\xd7\xf5?'
p3259
tp3260
bag521
(g522
(I0
tp3261
g524
tp3262
Rp3263
(I1
(I3
tp3264
g563
I00
S'v\xb8^\x85\xa7[\xea?x\xbe\xff2t\x8d\x13\xc0\x88\x85\x8cCyH\xf6?'
p3265
tp3266
bag521
(g522
(I0
tp3267
g524
tp3268
Rp3269
(I1
(I3
tp3270
g563
I00
S'\xc2\xda(e\x83\x1a\xeb?\x8au\x8d3\xa6E\x11\xc0\xb4c\x1b\xed_\xfd\xfa?'
p3271
tp3272
bag521
(g522
(I0
tp3273
g524
tp3274
Rp3275
(I1
(I3
tp3276
g563
I00
S'\xe4u**\x0e5\xe9?\xaa\xfd\r\xed\xc4\xf6\r\xc0\x0fDE0\x1f\x0b\xfe?'
p3277
tp3278
bag521
(g522
(I0
tp3279
g524
tp3280
Rp3281
(I1
(I3
tp3282
g563
I00
S'\x06\x11,\xef\x98O\xe7??\x10\x01s=b\t\xc04\x92\xb79o\x8c\x00@'
p3283
tp3284
bag521
(g522
(I0
tp3285
g524
tp3286
Rp3287
(I1
(I3
tp3288
g563
I00
S'\x92\xaf\xf3P\x96O\xc2?(\xa1:\x8er}\x05\xc0\xd4_\x91\xb3\xffL\x02@'
p3289
tp3290
bas(g10
g11
tp3291
(lp3292
g521
(g522
(I0
tp3293
g524
tp3294
Rp3295
(I1
(I3
tp3296
g531
I00
S'\x98\x07\xbd)b\xbe\xfb?\t\x85t\x92\x153\x18\xc0\xb00\xe9\xb77m\x17@'
p3297
tp3298
bag521
(g522
(I0
tp3299
g524
tp3300
Rp3301
(I1
(I3
tp3302
g563
I00
S'N\xcd\xaa\x1e;\x0f\xee?&\xa8j\x7f\xa2\xe5\x17\xc0\xc1rR\xf6\xd1Y\xe0\xbf'
p3303
tp3304
bag521
(g522
(I0
tp3305
g524
tp3306
Rp3307
(I1
(I3
tp3308
g563
I00
S'\xe4\x9e\xb7\xac\xe0!\xeb?\x8a\x83\x10\xb1\xa2\xad\x15\xc0\x9aS\xfbY\xaf\x8f\xd2\xbf'
p3309
tp3310
bag521
(g522
(I0
tp3311
g524
tp3312
Rp3313
(I1
(I3
tp3314
g563
I00
S"\xb2&6mg)\xe8?\x99\xe0G'\x16\xe0\x13\xc0\xc8oL\xf5\x17p\xe6\xbf"
p3315
tp3316
bag521
(g522
(I0
tp3317
g524
tp3318
Rp3319
(I1
(I3
tp3320
g563
I00
S'`\xc8Aw-\x81\xeb?/\xc3\xe6O\x04\xca\x10\xc0\x8a\xb7K)\x91{\xe4\xbf'
p3321
tp3322
bag521
(g522
(I0
tp3323
g524
tp3324
Rp3325
(I1
(I3
tp3326
g563
I00
S'\xe1\xc6\xc7\xa7\x12X\xe7?\x98\x99\xb0\x9a\xfb\xdb\x0b\xc0R\t\x1b)\xeae\xe0\xbf'
p3327
tp3328
bag521
(g522
(I0
tp3329
g524
tp3330
Rp3331
(I1
(I3
tp3332
g563
I00
S'p\xf1\xbdc^\x84\xf1?"\x88LL\xf9D\x06\xc0~w\r\xe9m\x0f\x19@'
p3333
tp3334
bas(g30
g11
tp3335
(lp3336
g521
(g522
(I0
tp3337
g524
tp3338
Rp3339
(I1
(I3
tp3340
g531
I00
S'\xe4\xfb\xaaE\x8f\xc1\xe5?\xb7\xa6\xc5gY\x12\x1f\xc0])%M\x96\x93\x08@'
p3341
tp3342
bag521
(g522
(I0
tp3343
g524
tp3344
Rp3345
(I1
(I3
tp3346
g563
I00
S'\xd23W\xd6\xdd\xe3\xe6?\xdc\xcai,~\xa9\x1c\xc0\xe4\x03\x93/\x16_\x04\xc0'
p3347
tp3348
bag521
(g522
(I0
tp3349
g524
tp3350
Rp3351
(I1
(I3
tp3352
g563
I00
S'\xf8\xfc\x1a\xd0\xc9l\xe8?\x8a\x897\x8e~\x98\x1a\xc0\xaf\xf7\xb87\xc6\xa7\x01\xc0'
p3353
tp3354
bag521
(g522
(I0
tp3355
g524
tp3356
Rp3357
(I1
(I3
tp3358
g563
I00
S'\xf8C*\xbe\x14\xcf\xe8?\x81d\xab\xeb\xa8<\x18\xc0\xc8\\\xf4\x8c\xc3\xfa\xfe\xbf'
p3359
tp3360
bag521
(g522
(I0
tp3361
g524
tp3362
Rp3363
(I1
(I3
tp3364
g563
I00
S'\xd0\xcb\x13\x8f\xaa\x9d\xed?\x90\x01<]3\x06\x16\xc0F\xf1\xe7x32\x02\xc0'
p3365
tp3366
bag521
(g522
(I0
tp3367
g524
tp3368
Rp3369
(I1
(I3
tp3370
g563
I00
S'l[\xc4\x16<\xe6\xe9?\xa6\xa0\x90\x84X\x9f\x13\xc0\xc2\xd74Q\x00\xaf\xff\xbf'
p3371
tp3372
bag521
(g522
(I0
tp3373
g524
tp3374
Rp3375
(I1
(I3
tp3376
g563
I00
S"\xaeJ\xbd\x1936\xec?\x04\x13\xd4'\x9f\x88\x10\xc0\x805qo\xb6\xe6\xff\xbf"
p3377
tp3378
bag521
(g522
(I0
tp3379
g524
tp3380
Rp3381
(I1
(I3
tp3382
g563
I00
S'\xf09\xb6\x1c*\x86\xee?\xc4\n/\x96\xcb\xe3\n\xc0\xa0\xc9\xd6F6\x0f\x00\xc0'
p3383
tp3384
bag521
(g522
(I0
tp3385
g524
tp3386
Rp3387
(I1
(I3
tp3388
g563
I00
S'3\xe9\xaf\x05T\x89\xe7?+~\xcb\xd3\x15\xc7\x04\xc0x6(d5\xed\x07@'
p3389
tp3390
bas(g19
g11
tp3391
(lp3392
g521
(g522
(I0
tp3393
g524
tp3394
Rp3395
(I1
(I3
tp3396
g531
I00
S'X\xca\xc0\xcf\xd9[\xf0?\xff/#\xddH6\x15\xc0F\xa4\xd4\xc0\xcb\x98\x14@'
p3397
tp3398
bag521
(g522
(I0
tp3399
g524
tp3400
Rp3401
(I1
(I3
tp3402
g563
I00
S'A\x17\xef\x80|\x96\xed?\xac\xb9\xac\x81\xb2M\x12\xc0 -\xe6\\\xe0\x1a\t\xc0'
p3403
tp3404
bag521
(g522
(I0
tp3405
g524
tp3406
Rp3407
(I1
(I3
tp3408
g563
I00
S'N\nd\xc1\xac\x11\xe6?\xa7\xb8"u\xaf\xb8\x0e\xc0\xfeK\xd2\xea\x9eB\x08\xc0'
p3409
tp3410
bag521
(g522
(I0
tp3411
g524
tp3412
Rp3413
(I1
(I3
tp3414
g563
I00
S'\xf09\xb6\x1c*\x86\xee?\xc4\n/\x96\xcb\xe3\n\xc0\xa0\xc9\xd6F6\x0f\x00\xc0'
p3415
tp3416
bag521
(g522
(I0
tp3417
g524
tp3418
Rp3419
(I1
(I3
tp3420
g563
I00
S'\xf4\xfdJ\x1a(#\xec?H"\x9cD\x1aE\x05\xc0.\xa9\x0b\x87\xf8\xe1\x02@'
p3421
tp3422
bas(g22
g11
tp3423
(lp3424
g521
(g522
(I0
tp3425
g524
tp3426
Rp3427
(I1
(I3
tp3428
g531
I00
S'\xd8\xf2\xfc\xf7\x04\xce\x07@\xc7Ffi\xc6\xf0\x16\xc0<\xd1\xa5\x9d %\x17@'
p3429
tp3430
bag521
(g522
(I0
tp3431
g524
tp3432
Rp3433
(I1
(I3
tp3434
g563
I00
S'\x93\xe8\x9a\xb2\xd1\xfa\x03@\x8aHE%\xee\xed\x15\xc0\xf8hW\x99?x\xfa\xbf'
p3435
tp3436
bag521
(g522
(I0
tp3437
g524
tp3438
Rp3439
(I1
(I3
tp3440
g563
I00
S'!\x83\xc0\xf3W\x85\xff?\xed\x8f\x90/y\xfd\x16\xc06jP\xfe\x98\xf5\xf4\xbf'
p3441
tp3442
bag521
(g522
(I0
tp3443
g524
tp3444
Rp3445
(I1
(I3
tp3446
g563
I00
S'2Z\xe1\xe97J\xf6?\\\x1e`@2v\x16\xc0\xc4\x0c\xcc\x14<\xf9\xf6\xbf'
p3447
tp3448
bag521
(g522
(I0
tp3449
g524
tp3450
Rp3451
(I1
(I3
tp3452
g563
I00
S'tx\x8as\xa8b\xed?\x9ej\x15\xfa\xf0{\x15\xc0@\xed\x9a-\x9eD\xf2\xbf'
p3453
tp3454
bag521
(g522
(I0
tp3455
g524
tp3456
Rp3457
(I1
(I3
tp3458
g563
I00
S"\xb2&6mg)\xe8?\x99\xe0G'\x16\xe0\x13\xc0\xc8oL\xf5\x17p\xe6\xbf"
p3459
tp3460
bag521
(g522
(I0
tp3461
g524
tp3462
Rp3463
(I1
(I3
tp3464
g563
I00
S'`\xc8Aw-\x81\xeb?/\xc3\xe6O\x04\xca\x10\xc0\x8a\xb7K)\x91{\xe4\xbf'
p3465
tp3466
bag521
(g522
(I0
tp3467
g524
tp3468
Rp3469
(I1
(I3
tp3470
g563
I00
S'\xe1\xc6\xc7\xa7\x12X\xe7?\x98\x99\xb0\x9a\xfb\xdb\x0b\xc0R\t\x1b)\xeae\xe0\xbf'
p3471
tp3472
bag521
(g522
(I0
tp3473
g524
tp3474
Rp3475
(I1
(I3
tp3476
g563
I00
S'p\xf1\xbdc^\x84\xf1?"\x88LL\xf9D\x06\xc0~w\r\xe9m\x0f\x19@'
p3477
tp3478
bassg1296
(dp3479
(g14
g11
tp3480
(lp3481
Vsquare_packing_box2
p3482
aVrectangular_packing_box1
p3483
aVsquare_packing_box4
p3484
as(g10
g11
tp3485
(lp3486
Vrectangular_packing_box1
p3487
aVsquare_packing_box4
p3488
aVrectangular_packing_box4
p3489
as(g30
g11
tp3490
(lp3491
Vrectangular_packing_box1
p3492
aVsquare_packing_box4
p3493
aVrectangular_packing_box4
p3494
as(g19
g11
tp3495
(lp3496
Vsquare_packing_box4
p3497
as(g22
g11
tp3498
(lp3499
Vrectangular_packing_box2
p3500
aVrectangular_packing_box1
p3501
aVsquare_packing_box4
p3502
assg1321
(lp3503
g3086
ag3089
ag3133
ag3134
asg1323
(dp3504
Vrectangular_packing_box4
p3505
g1328
sVrectangular_packing_box2
p3506
g1332
sVrectangular_packing_box3
p3507
g1336
sVrectangular_packing_box1
p3508
g1340
sVsquare_packing_box2
p3509
g926
((lp3510
I0
aI1
aI546
aI545
aI555
aI403
aI367
aI368
aI369
aI370
aI371
aI342
aI377
aI378
aI571
aI541
aI474
atp3511
Rp3512
sVsquare_packing_box3
p3513
g1348
sVsquare_packing_box1
p3514
g1352
sVsquare_packing_box4
p3515
g1356
ssg2
g2796
sg505
g3084
sg1357
(dp3516
sg1359
Nsg1360
(lp3517
sg1362
(dp3518
sg1364
I0
sg1365
g3084
sg7
Nsg1366
(dp3519
(g19
g10
g11
tp3520
I00
s(g22
g10
g11
tp3521
I01
s(g10
g46
g11
tp3522
I00
s(g14
g30
g11
tp3523
I00
s(g22
g14
g11
tp3524
I00
s(g19
g14
g11
tp3525
I00
s(g19
g33
g11
tp3526
I00
s(g22
g30
g11
tp3527
I00
s(g14
g10
g11
tp3528
I00
s(g10
g19
g11
tp3529
I01
s(g30
g14
g11
tp3530
I00
s(g10
g14
g11
tp3531
I00
s(g30
g33
g11
tp3532
I01
s(g10
g23
g11
tp3533
I01
s(g14
g19
g11
tp3534
I01
s(g30
g46
g11
tp3535
I00
s(g30
g19
g11
tp3536
I01
s(g19
g23
g11
tp3537
I01
s(g22
g19
g11
tp3538
I01
s(g30
g23
g11
tp3539
I01
s(g22
g33
g11
tp3540
I00
s(g14
g22
g11
tp3541
I01
s(g22
g23
g11
tp3542
I01
s(g14
g46
g11
tp3543
I00
s(g22
g46
g11
tp3544
I00
s(g19
g46
g11
tp3545
I00
s(g19
g30
g11
tp3546
I00
s(g30
g10
g11
tp3547
I00
s(g10
g22
g11
tp3548
I00
s(g14
g23
g11
tp3549
I01
s(g14
g33
g11
tp3550
I00
s(g10
g33
g11
tp3551
I01
s(g30
g22
g11
tp3552
I00
s(g10
g30
g11
tp3553
I00
s(g19
g22
g11
tp3554
I00
ssg1379
Nsg1380
I01
sbsg1381
(dp3555
g3085
(lp3556
g521
(g522
(I0
tp3557
g524
tp3558
Rp3559
(I1
(I3
tp3560
g531
I00
S'cR\xdd8\xd6\x8d\x00@\xc1C|\xd2X\x00\x16\xc0\xc1\xab\x9e\x0b\x900\xd2?'
p3561
tp3562
bag521
(g522
(I0
tp3563
g524
tp3564
Rp3565
(I1
(I3
tp3566
g563
I00
S'\xf5I-\xc1\xee\x1f\xfa?Zc\rx\x9c\n\x18\xc0?_z:D*\x17@'
p3567
tp3568
bag521
(g522
(I0
tp3569
g524
tp3570
Rp3571
(I1
(I3
tp3572
g563
I00
S'-%/\xa8h{\xf9?\x98fM\xb1\x8f\x0e\x16\xc0\x8f\x17\x96\x89\xffQ\x10@'
p3573
tp3574
bag544
asg3086
(lp3575
g521
(g522
(I0
tp3576
g524
tp3577
Rp3578
(I1
(I3
tp3579
g531
I00
S'cR\xdd8\xd6\x8d\x00@\xc1C|\xd2X\x00\x16\xc0\xc1\xab\x9e\x0b\x900\xd2?'
p3580
tp3581
bag521
(g522
(I0
tp3582
g524
tp3583
Rp3584
(I1
(I3
tp3585
g563
I00
S'\x16\x9e\xd06H\xd3\x04@\xe5\xe1\xfb\xc5\xb8\xd1\x16\xc0es\x86\x03\xdb\x8e\x17@'
p3586
tp3587
bag521
(g522
(I0
tp3588
g524
tp3589
Rp3590
(I1
(I3
tp3591
g563
I00
S'\xe6rt0\xc6`\x05@\xe8\xf6\xaa\xc7\x03\x10\x17\xc0v\x9e\xc9\x80o\x15\xed\xbf'
p3592
tp3593
bag595
asg3087
(lp3594
g521
(g522
(I0
tp3595
g524
tp3596
Rp3597
(I1
(I3
tp3598
g531
I00
S'cR\xdd8\xd6\x8d\x00@\xc1C|\xd2X\x00\x16\xc0\xc1\xab\x9e\x0b\x900\xd2?'
p3599
tp3600
bag521
(g522
(I0
tp3601
g524
tp3602
Rp3603
(I1
(I3
tp3604
g563
I00
S'\x0e]\xf2K\xc6E\xf7?\x06\x8c\xb9Ybt\x17\xc0%\xac6\x86\x93\xa8\xdd?'
p3605
tp3606
bag521
(g522
(I0
tp3607
g524
tp3608
Rp3609
(I1
(I3
tp3610
g563
I00
S'Pa\x88\xb1[\x02\xf1?\x1e\x1c\xb3\x8d\x8c\xb7\x19\xc0t\xf6\xbb\xc4\x878\x11@'
p3611
tp3612
bag633
asg3088
(lp3613
g521
(g522
(I0
tp3614
g524
tp3615
Rp3616
(I1
(I3
tp3617
g531
I00
S'cR\xdd8\xd6\x8d\x00@\xc1C|\xd2X\x00\x16\xc0\xc1\xab\x9e\x0b\x900\xd2?'
p3618
tp3619
bag521
(g522
(I0
tp3620
g524
tp3621
Rp3622
(I1
(I3
tp3623
g563
I00
S'/\xe1\x02^.|\x00@\xb8\xae\xc5\xcfF\x16\x17\xc0\xf8\x01)d\xc5\xf9\xe2?'
p3624
tp3625
bag521
(g522
(I0
tp3626
g524
tp3627
Rp3628
(I1
(I3
tp3629
g563
I00
S'\xe0 ;\x819w\xfd?\xe7\xcc\xc2\xa0\xa5f\x17\xc04\xedq\x1c\x8eK\xfa?'
p3630
tp3631
bag689
asg3089
g3114
sg3133
(lp3632
g521
(g522
(I0
tp3633
g524
tp3634
Rp3635
(I1
(I3
tp3636
g531
I00
S'cR\xdd8\xd6\x8d\x00@\xc1C|\xd2X\x00\x16\xc0\xc1\xab\x9e\x0b\x900\xd2?'
p3637
tp3638
bag521
(g522
(I0
tp3639
g524
tp3640
Rp3641
(I1
(I3
tp3642
g563
I00
S'\x19\xdbXU\x9c\xa8\x04@\xe6\xf1\xeb\xae\xcb\x05\x18\xc0\xce\x9cp\x98\xaf*\xeb?'
p3643
tp3644
bag521
(g522
(I0
tp3645
g524
tp3646
Rp3647
(I1
(I3
tp3648
g563
I00
S'g\x886\x82\xe7\x9e\t@\x81\x00+\xe8\xfe$\x19\xc0m@m\xfd\x93\x06\xf2?'
p3649
tp3650
bag521
(g522
(I0
tp3651
g524
tp3652
Rp3653
(I1
(I3
tp3654
g563
I00
S'\x9a\x9e\xdc\x13\r\n\n@\xf1\xbcp\x07u\xf1\x1a\xc0\xd2JG\xa3\xec%\xd4\xbf'
p3655
tp3656
bag783
asg3134
(lp3657
g521
(g522
(I0
tp3658
g524
tp3659
Rp3660
(I1
(I3
tp3661
g531
I00
S'cR\xdd8\xd6\x8d\x00@\xc1C|\xd2X\x00\x16\xc0\xc1\xab\x9e\x0b\x900\xd2?'
p3662
tp3663
bag839
asg3135
(lp3664
g521
(g522
(I0
tp3665
g524
tp3666
Rp3667
(I1
(I3
tp3668
g531
I00
S'cR\xdd8\xd6\x8d\x00@\xc1C|\xd2X\x00\x16\xc0\xc1\xab\x9e\x0b\x900\xd2?'
p3669
tp3670
bag521
(g522
(I0
tp3671
g524
tp3672
Rp3673
(I1
(I3
tp3674
g563
I00
S'/\xe1\x02^.|\x00@\xb8\xae\xc5\xcfF\x16\x17\xc0\xf8\x01)d\xc5\xf9\xe2?'
p3675
tp3676
bag521
(g522
(I0
tp3677
g524
tp3678
Rp3679
(I1
(I3
tp3680
g563
I00
S'j\xc7\xc0&\x8ag\xf6?h\x9cH4\x7f\xab\x18\xc0\xd8|\x1d\xfc\xcbV\xf2?'
p3681
tp3682
bag883
assg1323
(dp3683
(Vsquare_packing_box4
p3684
(g1385
(g531
S'\x90\xc0\x1f~\xfe\xbb\xf0?'
p3685
tp3686
Rp3687
g1385
(g531
S'8\xdb\xdc\x98\x9e\xc0\x16\xc0'
p3688
tp3689
Rp3690
g1385
(g531
S'\xda\x8c\xd3\x10U\xf8\x13@'
p3691
tp3692
Rp3693
tp3694
tp3695
g1356
s(Vrectangular_packing_box2
p3696
(g1385
(g531
S'\xce\xe30\x98\xbfB\x02@'
p3697
tp3698
Rp3699
g1385
(g531
S'\xf9hq\xc60\xf7\x1a\xc0'
p3700
tp3701
Rp3702
g1385
(g531
S'V\xbc\x91y\xe4\x8f\xe0?'
p3703
tp3704
Rp3705
tp3706
tp3707
g1332
s(Vrectangular_packing_box3
p3708
(g1385
(g531
S'{\x9f\xaaB\x03\xb1\xb0?'
p3709
tp3710
Rp3711
g1385
(g531
S'\x0f\x0b\xb5\xa6y7\x1e\xc0'
p3712
tp3713
Rp3714
g1385
(g531
S'\xe5\xef\xdeQcb\x12@'
p3715
tp3716
Rp3717
tp3718
tp3719
g1336
s(Vrectangular_packing_box4
p3720
(g1385
(g531
S'}\xec.PR`\xd2?'
p3721
tp3722
Rp3723
g1385
(g531
S'\x8fT\xdf\xf9Ei\x18\xc0'
p3724
tp3725
Rp3726
g1385
(g531
S'\xe8\xf9\xd3Fu:\xe4?'
p3727
tp3728
Rp3729
tp3730
tp3731
g1328
s(Vsquare_packing_box2
p3732
(g1385
(g531
S'6\x90.6\xad\xb4\r@'
p3733
tp3734
Rp3735
g1385
(g531
S'7\xc3\r\xf8\xfc\xf0\x16\xc0'
p3736
tp3737
Rp3738
g1385
(g531
S'\xe9\x9d\n\xb8\xe7\t\x19@'
p3739
tp3740
Rp3741
tp3742
tp3743
g3512
s(Vsquare_packing_box3
p3744
(g1385
(g531
S'\xc7\xbc\x8e8d\xa3\n@'
p3745
tp3746
Rp3747
g1385
(g531
S'\xb8\xca\x13\x08;\x05\x1e\xc0'
p3748
tp3749
Rp3750
g1385
(g531
S'\xde\xc9\xa7\xc7\xb6\xac\x0f@'
p3751
tp3752
Rp3753
tp3754
tp3755
g1348
s(Vsquare_packing_box1
p3756
(g1385
(g531
S'N\xb4\xab\x90\xf23\x0c@'
p3757
tp3758
Rp3759
g1385
(g531
S'Q\xf5+\x9d\x0f?\x15\xc0'
p3760
tp3761
Rp3762
g1385
(g531
S'\xe2\x1f\xb6\xf4h\n\x13@'
p3763
tp3764
Rp3765
tp3766
tp3767
g1352
s(Vrectangular_packing_box1
p3768
(g1385
(g531
S'\xa8\xdf\x85\xad\xd9J\xf5?'
p3769
tp3770
Rp3771
g1385
(g531
S'\x14\x05\xfaD\x9e4\x18\xc0'
p3772
tp3773
Rp3774
g1385
(g531
S'\xb13\x85\xcek,\x0b@'
p3775
tp3776
Rp3777
tp3778
tp3779
g1340
ssg1481
(igtamp_utils.utils
CustomStateSaver
p3780
(dp3781
g1484
g521
(g522
(I0
tp3782
g524
tp3783
Rp3784
(I1
(I1
I3
tp3785
g531
I00
S'fR\xdd8\xd6\x8d\x00@\xbfC|\xd2X\x00\x16\xc0\xc1\xab\x9e\x0b\x900\xd2?'
p3786
tp3787
bsg1491
Nsg1492
g1493
sg1494
I1
sg971
(dp3788
Vright_wall_1
p3789
g521
(g522
(I0
tp3790
g524
tp3791
Rp3792
(I1
(I4
tp3793
g531
I00
S'H\xe1z\x14\xaeG\x12@&\\\x8f\xc2\xf5(\xd4\xbf\xcc\x7fH\xbf}\x1d\xed?\x00\x00\x00\x00\x00\x00\x00\x00'
p3794
tp3795
bsVc_obst5
p3796
g521
(g522
(I0
tp3797
g524
tp3798
Rp3799
(I1
(I4
tp3800
g531
I00
S"\x9a\xf1q\xbb~\xea\x11@\n8\xbb\xd6O\xb6\xd4?e\xaa`TR'\xed?\xd2\x93\xb1\x82\xa4\x94\x0b@"
p3801
tp3802
bsVentrance_right
p3803
g521
(g522
(I0
tp3804
g524
tp3805
Rp3806
(I1
(I4
tp3807
g531
I00
S'ffffff\n@H\xe1z\x14\xaeG\t\xc0\x9c\xc4 \xb0rh\xc1?\x00\x00\x00\x00\x00\x00\x00\x00'
p3808
tp3809
bsVcomputer_table
p3810
g521
(g522
(I0
tp3811
g524
tp3812
Rp3813
(I1
(I4
tp3814
g531
I00
S'\x00\x00\x00\x00\x00\x00\x13@\x00\x00\x00\x00\x00\x00\xf8\xbf\x96C\x8bl\xe7\xfb\xe7?\xd2!3\x7f|\xd9\x12@'
p3815
tp3816
bsVchair_6b56
p3817
g521
(g522
(I0
tp3818
g524
tp3819
Rp3820
(I1
(I4
tp3821
g531
I00
S'y=\n\xd7\xa3p\xf5?M\xe1z\x14\xaeG\xd1?\x00\x00\x00\x00\x00\x00\x00\x00\xd6$\xfaNBm\n@'
p3822
tp3823
bsVsquare_packing_box3
p3824
g521
(g522
(I0
tp3825
g524
tp3826
Rp3827
(I1
(I4
tp3828
g531
I00
S'8\xc7\x84Ad\xa3\n@\xb4\xaf\xb2\x18;\x05\x1e\xc0L7\x89A`\xe5\xd8?j8\xf9\x85\xb6\xac\x0f@'
p3829
tp3830
bsVsquare_packing_box2
p3831
g521
(g522
(I0
tp3832
g524
tp3833
Rp3834
(I1
(I4
tp3835
g531
I00
S'\xb3\x99\x7f<\xad\xb4\r@\xd8\xe5\x95\xe8\xfc\xf0\x16\xc0L7\x89A`\xe5\xd8?Y\x96n\x9e\xe7\t\x19@'
p3836
tp3837
bsVtable
p3838
g521
(g522
(I0
tp3839
g524
tp3840
Rp3841
(I1
(I4
tp3842
g531
I00
S'\x7f\xf6#EdX\xed?\xac\xffs\x98//\xc0\xbf\x00\x00\x00\x00\x00\x00\x00\x00\x00\x00\x00\x00\x00\x00\x00\x00'
p3843
tp3844
bsVsquare_packing_box1
p3845
g521
(g522
(I0
tp3846
g524
tp3847
Rp3848
(I1
(I4
tp3849
g531
I00
S'\x12\xcf\x19\xc3\xf23\x0c@\x89\xb5r\xad\x0f?\x15\xc0L7\x89A`\xe5\xd8?\xbf~a\xe9h\n\x13@'
p3850
tp3851
bsVback_wall_2
p3852
g521
(g522
(I0
tp3853
g524
tp3854
Rp3855
(I1
(I4
tp3856
g531
I00
S'\xaeG\xe1z\x14.\x13@\x80\x14\xaeG\xe1z\xc4?xX\xa85\xcd\xbb\xf2?\x00\x00\x00\x00\x00\x00\x00\x00'
p3857
tp3858
bsVchair_083c
p3859
g521
(g522
(I0
tp3860
g524
tp3861
Rp3862
(I1
(I4
tp3863
g531
I00
S'\xa4p=\n\xd7\xa3\xe0?333333\xe3\xbf\x00\x00\x00\x00\x00\x00\x00\x00\x00\x00\x00\x00\x00\x00\x00\x00'
p3864
tp3865
bsVback_wall_1
p3866
g521
(g522
(I0
tp3867
g524
tp3868
Rp3869
(I1
(I4
tp3870
g531
I00
S'\xaeG\xe1z\x14.\x13@\x80\x14\xaeG\xe1z\xc4?\xcc\x7fH\xbf}\x1d\xed?\x00\x00\x00\x00\x00\x00\x00\x00'
p3871
tp3872
bsVbottom_wall
p3873
g521
(g522
(I0
tp3874
g524
tp3875
Rp3876
(I1
(I4
tp3877
g531
I00
S'\x00\x00\x00\x00\x00\x00\xfc?\x00\x00\x00\x00\x00\x00\x00\x00\x00\x00\x00\x00\x00\x00\x00\x00\x00\x00\x00\x00\x00\x00\x00\x00'
p3878
tp3879
bsVcup_905a
p3880
g521
(g522
(I0
tp3881
g524
tp3882
Rp3883
(I1
(I4
tp3884
g531
I00
S'\x00\x00\x00\x00\x00\x00\xf0?\x83\xc0\xca\xa1E\xb6\xdb?\x1b/\xdd$\x06\x81\xed?\x00\x00\x00\x00\x00\x00\x00\x00'
p3885
tp3886
bsVplate_496f
p3887
g521
(g522
(I0
tp3888
g524
tp3889
Rp3890
(I1
(I4
tp3891
g531
I00
S"q=\n\xd7\xa3p\xe5?\x9dhW!\xe5'\xdd\xbf\x1b/\xdd$\x06\x81\xed?\x00\x00\x00\x00\x00\x00\x00\x00"
p3892
tp3893
bsVtoaster
p3894
g521
(g522
(I0
tp3895
g524
tp3896
Rp3897
(I1
(I4
tp3898
g531
I00
S')\\\x8f\xc2\xf5(\xf4\xbf\xe0z\x14\xaeG\xe1\xf2\xbf\xb8\x1e\x85\xebQ\xb8\xee?\x89/`\x9b\xf8\x8a\xe4?'
p3899
tp3900
bsVc_obst1
p3901
g521
(g522
(I0
tp3902
g524
tp3903
Rp3904
(I1
(I4
tp3905
g531
I00
S"\xff$\x95\xf6\x8a4\x12@\x1b\xc3S\xe6\xc1\xef\xd7?e\xaa`TR'\xed?\xe0\xbaL\x80\x10\xb3\t@"
p3906
tp3907
bsVrectangular_packing_box4
p3908
g521
(g522
(I0
tp3909
g524
tp3910
Rp3911
(I1
(I4
tp3912
g531
I00
S'\x98\x1e]pS`\xd2?\x16\x1b\xb6\xe9Ei\x18\xc0L7\x89A`\xe5\xd8?\x82\x97\xe8\xa1t:\xe4?'
p3913
tp3914
bsVmicrowave
p3915
g521
(g522
(I0
tp3916
g524
tp3917
Rp3918
(I1
(I4
tp3919
g531
I00
S'\x9a\x99\x99\x99\x99\x99\xf1\xbf\x00\x00\x00\x00\x00\x00\x00@7\x89A`\xe5\xd0\xee?\x00\x00\x00\x00\x00\x00\x00\x00'
p3920
tp3921
bsVc_obst7
p3922
g521
(g522
(I0
tp3923
g524
tp3924
Rp3925
(I1
(I4
tp3926
g531
I00
S"\xfe\x81=\xfa]F\x12@Rf\x922\x8f\r\xdc?e\xaa`TR'\xed?\xa1F+\x03Yi}?"
p3927
tp3928
bsVc_obst6
p3929
g521
(g522
(I0
tp3930
g524
tp3931
Rp3932
(I1
(I4
tp3933
g531
I00
S"\x00\x9b\x11\x01\x95\x83\x12@\xe8\xa7>?}-\xd2?e\xaa`TR'\xed?\xed\xedJ\xfa\x0b\x0c\x04@"
p3934
tp3935
bsVcup_b6af
p3936
g521
(g522
(I0
tp3937
g524
tp3938
Rp3939
(I1
(I4
tp3940
g531
I00
S'R\xb8\x1e\x85\xebQ\xe8?\x9a\x99\x99\x99\x99\x99\xe1?\x1b/\xdd$\x06\x81\xed?\x00\x00\x00\x00\x00\x00\x00\x00'
p3941
tp3942
bsVc_obst4
p3943
g521
(g522
(I0
tp3944
g524
tp3945
Rp3946
(I1
(I4
tp3947
g531
I00
S"n\x08(p\x9bi\x12@\xc0\x8f\x90\x84\x98\xd9\xc1?e\xaa`TR'\xed?\xae\x8f\xee\xf0\x1b\x97\x16@"
p3948
tp3949
bsVrectangular_packing_box2
p3950
g521
(g522
(I0
tp3951
g524
tp3952
Rp3953
(I1
(I4
tp3954
g531
I00
S'x#\x8a\xa8\xbfB\x02@]@\xdd\xaa0\xf7\x1a\xc0L7\x89A`\xe5\xd8?\xa2\x93\xe4\xf2\xe3\x8f\xe0?'
p3955
tp3956
bsVplate_fa76
p3957
g521
(g522
(I0
tp3958
g524
tp3959
Rp3960
(I1
(I4
tp3961
g531
I00
S'=\n\xd7\xa3p=\xf2?\x00\x00\x00\x00\x00\x00\x00\x00\x1b/\xdd$\x06\x81\xed?\x00\x00\x00\x00\x00\x00\x00\x00'
p3962
tp3963
bsVfloorwalls
p3964
g521
(g522
(I0
tp3965
g524
tp3966
Rp3967
(I1
(I4
tp3968
g531
I00
S'\xc7\xcc\xcc\xcc\xcc\xcc\xfc?\x00\x00\x00\x00\x00\x00\x18\xc0H\xe1z\x14\xaeG\xc1?\x16-DT\xfb!\xf9?'
p3969
tp3970
bsVpin_c671
p3971
g521
(g522
(I0
tp3972
g524
tp3973
Rp3974
(I1
(I4
tp3975
g531
I00
S'\xc3\xf5(\\\x8f\xc2\xf1\xbf}?5^\xbaI\x02@\xb8\x1e\x85\xebQ\xb8\xfa?\x00\x00\x00\x00\x00\x00\x00\x00'
p3976
tp3977
bsVc_obst3
p3978
g521
(g522
(I0
tp3979
g524
tp3980
Rp3981
(I1
(I4
tp3982
g531
I00
S"^\xdd\\<%\xa1\x12@\xac\x8b8\x90\xc6\xe6\xd8?e\xaa`TR'\xed?\x1c\x9e\xaarJ\xdd\x16@"
p3983
tp3984
bsVchair_2e39
p3985
g521
(g522
(I0
tp3986
g524
tp3987
Rp3988
(I1
(I4
tp3989
g531
I00
S'hfffff\xee?`fffff\xf2\xbf\x00\x00\x00\x00\x00\x00\x00\x00\x07M\xe8QQF\xf3?'
p3990
tp3991
bsVentrance_left
p3992
g521
(g522
(I0
tp3993
g524
tp3994
Rp3995
(I1
(I4
tp3996
g531
I00
S'\x98\x99\x99\x99\x99\x99\xe9\xbfH\xe1z\x14\xaeG\t\xc0\x9c\xc4 \xb0rh\xc1?\x00\x00\x00\x00\x00\x00\x00\x00'
p3997
tp3998
bsVtop_wall_1
p3999
g521
(g522
(I0
tp4000
g524
tp4001
Rp4002
(I1
(I4
tp4003
g531
I00
S'H\xe1z\x14\xaeG\x12@\x80\x14\xaeG\xe1z\xc4?xX\xa85\xcd\xbb\xf2?\x00\x00\x00\x00\x00\x00\x00\x00'
p4004
tp4005
bsVrectangular_packing_box3
p4006
g521
(g522
(I0
tp4007
g524
tp4008
Rp4009
(I1
(I4
tp4010
g531
I00
S',\xa3$/\t\xb1\xb0?p\xd9\xd7\x88y7\x1e\xc0L7\x89A`\xe5\xd8?\xa1\xa8\xa4gcb\x12@'
p4011
tp4012
bsVshaker
p4013
g521
(g522
(I0
tp4014
g524
tp4015
Rp4016
(I1
(I4
tp4017
g531
I00
S'\n\xd7\xa3p=\n\x01@\x14\xaeG\xe1z\x14\x02@\\\x8f\xc2\xf5(\\\xef?\x00\x00\x00\x00\x00\x00\x00\x00'
p4018
tp4019
bsVc_obst9
p4020
g521
(g522
(I0
tp4021
g524
tp4022
Rp4023
(I1
(I4
tp4024
g531
I00
S"\x91v\x82wVC\x12@0n\xad8\xc7F\xc2\xbfe\xaa`TR'\xed?\xd9R5=\xef\x80\x10@"
p4025
tp4026
bsVplate_835a
p4027
g521
(g522
(I0
tp4028
g524
tp4029
Rp4030
(I1
(I4
tp4031
g531
I00
S'\xf6(\\\x8f\xc2\xf5\xf0?\\\x8f\xc2\xf5(\\\xe7\xbf\x1b/\xdd$\x06\x81\xed?\x00\x00\x00\x00\x00\x00\x00\x00'
p4032
tp4033
bsVcup_58a2
p4034
g521
(g522
(I0
tp4035
g524
tp4036
Rp4037
(I1
(I4
tp4038
g531
I00
S'\x85\xebQ\xb8\x1e\x85\xe3?\xcd\xcc\xcc\xcc\xcc\xcc\xdc?\x1b/\xdd$\x06\x81\xed?\x00\x00\x00\x00\x00\x00\x00\x00'
p4039
tp4040
bsVleft_wall_1
p4041
g521
(g522
(I0
tp4042
g524
tp4043
Rp4044
(I1
(I4
tp4045
g531
I00
S'H\xe1z\x14\xaeG\x12@S\xb8\x1e\x85\xebQ\xe4?\xcc\x7fH\xbf}\x1d\xed?\x00\x00\x00\x00\x00\x00\x00\x00'
p4046
tp4047
bsVc_obst2
p4048
g521
(g522
(I0
tp4049
g524
tp4050
Rp4051
(I1
(I4
tp4052
g531
I00
S"\x01\xf9\xf8\xe06C\x12@\x02d\x9dS@k\xcc?e\xaa`TR'\xed?\x8e\xd1'\xc0\x08~\xfe?"
p4053
tp4054
bsVsquare_packing_box4
p4055
g521
(g522
(I0
tp4056
g524
tp4057
Rp4058
(I1
(I4
tp4059
g531
I00
S'X\xce\xcef\xfe\xbb\xf0?L@\xfc\xa1\x9e\xc0\x16\xc0L7\x89A`\xe5\xd8?\xaeKe\x14U\xf8\x13@'
p4060
tp4061
bsVrectangular_packing_box1
p4062
g521
(g522
(I0
tp4063
g524
tp4064
Rp4065
(I1
(I4
tp4066
g531
I00
S'\xf81, \xdaJ\xf5?\x90\x94\xc7_\x9e4\x18\xc0L7\x89A`\xe5\xd8?\x88,&\x8ck,\x0b@'
p4067
tp4068
bsVpin_371e
p4069
g521
(g522
(I0
tp4070
g524
tp4071
Rp4072
(I1
(I4
tp4073
g531
I00
S'333333\xf3\xbfffffff\xf6?\xb8\x1e\x85\xebQ\xb8\xee?\x00\x00\x00\x00\x00\x00\x00\x00'
p4074
tp4075
bsVfridge
p4076
g521
(g522
(I0
tp4077
g524
tp4078
Rp4079
(I1
(I4
tp4080
g531
I00
S'\xd7\xa3p=\n\xd7\xeb\xbf\x00\x00\x00\x00\x00\x00\x00\xc0\xcd\xcc\xcc\xcc\xcc\xcc\xf8?\x00\x00\x00\x00\x00\x00\x00\x00'
p4081
tp4082
bsVcup_d441
p4083
g521
(g522
(I0
tp4084
g524
tp4085
Rp4086
(I1
(I4
tp4087
g531
I00
S'\n\xd7\xa3p=\n\xef?\x8f\xc2\xf5(\\\x8f\xe2?\x1b/\xdd$\x06\x81\xed?\x00\x00\x00\x00\x00\x00\x00\x00'
p4088
tp4089
bsVshelf2
p4090
g521
(g522
(I0
tp4091
g524
tp4092
Rp4093
(I1
(I4
tp4094
g531
I00
S'\x00\x00\x00\x00\x00\x00\x0e@\xaeG\xe1z\x14\xae\x07@\x9c\xc4 \xb0rh\xc1?\xd2!3\x7f|\xd9\x12@'
p4095
tp4096
bsVtop_wall_2
p4097
g521
(g522
(I0
tp4098
g524
tp4099
Rp4100
(I1
(I4
tp4101
g531
I00
S'H\xe1z\x14\xaeG\x12@\x80\x14\xaeG\xe1z\xc4?\x16HP\xfc\x18\xf3\xfd?\x00\x00\x00\x00\x00\x00\x00\x00'
p4102
tp4103
bsVc_obst0
p4104
g521
(g522
(I0
tp4105
g524
tp4106
Rp4107
(I1
(I4
tp4108
g531
I00
S"\xb8\x088t\x9c7\x12@\xbeE\xf1\x14\xed\x8f\x96\xbfe\xaa`TR'\xed?\xadtI0\xaa\x0c\x13@"
p4109
tp4110
bsVshelf1
p4111
g521
(g522
(I0
tp4112
g524
tp4113
Rp4114
(I1
(I4
tp4115
g531
I00
S'\x00\x00\x00\x00\x00\x00\x13@\xaeG\xe1z\x14\xae\x07@\x9c\xc4 \xb0rh\xc1?\xd2!3\x7f|\xd9\x12@'
p4116
tp4117
bsVsink
p4118
g521
(g522
(I0
tp4119
g524
tp4120
Rp4121
(I1
(I4
tp4122
g531
I00
S'ffffff\xd6?333333\x01@\x9a\x99\x99\x99\x99\x99\xb9\xbf\x00\x00\x00\x00\x00\x00\x00\x00'
p4123
tp4124
bsVpr2
p4125
g521
(g522
(I0
tp4126
g524
tp4127
Rp4128
(I1
(I4
tp4129
g531
I00
S'fR\xdd8\xd6\x8d\x00@\xbfC|\xd2X\x00\x16\xc0\x9a_\x94\xa0\xbf\xd0\xc1?\xc1\xab\x9e\x0b\x900\xd2?'
p4130
tp4131
bsVchair_12d0
p4132
g521
(g522
(I0
tp4133
g524
tp4134
Rp4135
(I1
(I4
tp4136
g531
I00
S'^\xd2\x18\xad\xa3\xaa\xdb?Pf\x83L2r\xc6?\x00\x00\x00\x00\x00\x00\x00\x00\xf8\x81\r\x14M\xa6\x17@'
p4137
tp4138
bsVright_wall_2
p4139
g521
(g522
(I0
tp4140
g524
tp4141
Rp4142
(I1
(I4
tp4143
g531
I00
S'H\xe1z\x14\xaeG\x12@&\\\x8f\xc2\xf5(\xd4\xbfxX\xa85\xcd\xbb\xf2?\x00\x00\x00\x00\x00\x00\x00\x00'
p4144
tp4145
bsVknife_block
p4146
g521
(g522
(I0
tp4147
g524
tp4148
Rp4149
(I1
(I4
tp4150
g531
I00
S'R\xb8\x1e\x85\xebQ\xe0\xbfffffff\x02@`\xe5\xd0"\xdb\xf9\xee?\x00\x00\x00\x00\x00\x00\x00\x00'
p4151
tp4152
bsVleft_wall_2
p4153
g521
(g522
(I0
tp4154
g524
tp4155
Rp4156
(I1
(I4
tp4157
g531
I00
S'H\xe1z\x14\xaeG\x12@S\xb8\x1e\x85\xebQ\xe4?xX\xa85\xcd\xbb\xf2?\x00\x00\x00\x00\x00\x00\x00\x00'
p4158
tp4159
bsVleft_wall
p4160
g521
(g522
(I0
tp4161
g524
tp4162
Rp4163
(I1
(I4
tp4164
g531
I00
S'\x9a\x99\x99\x99\x99\x99\x07@H\xe1z\x14\xaeG\xff?\x9c\xc4 \xb0rh\xc1?\x00\x00\x00\x00\x00\x00\x00\x00'
p4165
tp4166
bsVkitchen
p4167
g521
(g522
(I0
tp4168
g524
tp4169
Rp4170
(I1
(I4
tp4171
g531
I00
S'\x00\x00\x00\x00\x00\x00\x00\x00\x00\x00\x00\x00\x00\x00\x00\x00\x00\x00\x00\x00\x00\x00\x00\x00\x00\x00\x00\x00\x00\x00\x00\x00'
p4172
tp4173
bsVtable2
p4174
g521
(g522
(I0
tp4175
g524
tp4176
Rp4177
(I1
(I4
tp4178
g531
I00
S'\x00\x00\x00\x00\x00\x00\x13@\x80\x14\xaeG\xe1z\xc4?S\x96!\x8euq\xec?\xd2!3\x7f|\xd9\x12@'
p4179
tp4180
bsVc_obst8
p4181
g521
(g522
(I0
tp4182
g524
tp4183
Rp4184
(I1
(I4
tp4185
g531
I00
S"\xa2\x86\xba\xbe\x0e\xfe\x11@\x1c\x88\xaeAcX\xc9?e\xaa`TR'\xed?\xe7\xc6R\xf7\xd5q\x17@"
p4186
tp4187
bsVplate_b4e7
p4188
g521
(g522
(I0
tp4189
g524
tp4190
Rp4191
(I1
(I4
tp4192
g531
I00
S'\x14\xaeG\xe1z\x14\xf2\xbf\x14\xaeG\xe1z\x14\x00@=\n\xd7\xa3p=\xf2?\x00\x00\x00\x00\x00\x00\x00\x00'
p4193
tp4194
bsVcooker
p4195
g521
(g522
(I0
tp4196
g524
tp4197
Rp4198
(I1
(I4
tp4199
g531
I00
S'\xaeG\xe1z\x14\xae\xff?\x85\xebQ\xb8\x1e\x85\xfb?\x00\x00\x00\x00\x00\x00\xe8?\x00\x00\x00\x00\x00\x00\x00\x00'
p4200
tp4201
bsVpin_a091
p4202
g521
(g522
(I0
tp4203
g524
tp4204
Rp4205
(I1
(I4
tp4206
g531
I00
S'\xdb\xf9~j\xbct\xf7\xbf)\\\x8f\xc2\xf5(\x02@\xb8\x1e\x85\xebQ\xb8\xfa?\x00\x00\x00\x00\x00\x00\x00\x00'
p4207
tp4208
bsVside_wall_2
p4209
g521
(g522
(I0
tp4210
g524
tp4211
Rp4212
(I1
(I4
tp4213
g531
I00
S'\xf6\xff\xff\xff\xff\xff\x14@\x00\x00\x00\x00\x00\x00\x00\x00\x9c\xc4 \xb0rh\xc1?\x18-DT\xfb!\xf9?'
p4214
tp4215
bsVside_wall_3
p4216
g521
(g522
(I0
tp4217
g524
tp4218
Rp4219
(I1
(I4
tp4220
g531
I00
S'\x00\x00\x00\x00\x00\x00\xfc?H\xe1z\x14\xaeG\t@\x9c\xc4 \xb0rh\xc1?\x00\x00\x00\x00\x00\x00\x00\x00'
p4221
tp4222
bsVmixer
p4223
g521
(g522
(I0
tp4224
g524
tp4225
Rp4226
(I1
(I4
tp4227
g531
I00
S'\n\xd7\xa3p=\n\xfb?ffffff\x02@d;\xdfO\x8d\x97\xee?\x00\x00\x00\x00\x00\x00\x00\x00'
p4228
tp4229
bsVside_wall_1
p4230
g521
(g522
(I0
tp4231
g524
tp4232
Rp4233
(I1
(I4
tp4234
g531
I00
S'\xec\xff\xff\xff\xff\xff\xfb\xbf\x00\x00\x00\x00\x00\x00\x00\x00\x9c\xc4 \xb0rh\xc1?\x18-DT\xfb!\xf9?'
p4235
tp4236
bsVbottom_wall_1
p4237
g521
(g522
(I0
tp4238
g524
tp4239
Rp4240
(I1
(I4
tp4241
g531
I00
S'H\xe1z\x14\xaeG\x12@\x80\x14\xaeG\xe1z\xc4?\xcc\x7fH\xbf}\x1d\xed?\x00\x00\x00\x00\x00\x00\x00\x00'
p4242
tp4243
bsVcan
p4244
g521
(g522
(I0
tp4245
g524
tp4246
Rp4247
(I1
(I4
tp4248
g531
I00
S'\x00\x00\x00\x00\x00\x00\xf4\xbfH\xe1z\x14\xaeG\xe1\xbf\n\xd7\xa3p=\n\xef?\x00\x00\x00\x00\x00\x00\x00\x00'
p4249
tp4250
bsVright_wall
p4251
g521
(g522
(I0
tp4252
g524
tp4253
Rp4254
(I1
(I4
tp4255
g531
I00
S'\x9a\x99\x99\x99\x99\x99\x07@H\xe1z\x14\xaeG\xff\xbf\x9c\xc4 \xb0rh\xc1?\x00\x00\x00\x00\x00\x00\x00\x00'
p4256
tp4257
bsVcoffe_machine
p4258
g521
(g522
(I0
tp4259
g524
tp4260
Rp4261
(I1
(I4
tp4262
g531
I00
S'\\\x8f\xc2\xf5(\\\xf5\xbf\xb8\x1e\x85\xebQ\xb8\xee?\n\xd7\xa3p=\n\xef?\x00\x00\x00\x00\x00\x00\x00\x00'
p4263
tp4264
bsVcomputer_chair
p4265
g521
(g522
(I0
tp4266
g524
tp4267
Rp4268
(I1
(I4
tp4269
g531
I00
S'\xcd\xcc\xcc\xcc\xcc\xcc\x10@\x00\x00\x00\x00\x00\x00\xf8\xbf\xa00\xb6\x10\xe4\xa9\x95\xbf\x00\x00\x00\x00\x00\x00\x00\x00'
p4270
tp4271
bssg1979
g521
(g522
(I0
tp4272
g524
tp4273
Rp4274
(I1
(I39
tp4275
g531
I00
S'\x00\x00\x00\x00\x00\x00\x00\x00\x00\x00\x00\x00\x00\x00\x00\x00\x00\x00\x00\x00\x00\x00\x00\x00\x00\x00\x00\x00\x00\x00\x00\x00\x00\x00\x00\x00\x00\x00\x00\x00\x00\x00\x00\x00\x00\x00\x00\x00\x00\x00\x00\x00\x00\x00\x00\x00\x00\x00\x00\x00\x00\x00\x00\x00\x00\x00\x00\x00\x00\x00\x00\x00\x00\x00\x00\x00\x00\x00\x00\x00\x00\x00\x00\x00\x00\x00\x00\x00\x00\x00\x00\x00\x00\x00\x00\x00@d;\xdfO\x8d\x87?\x00\x00\x00\x00\x00\x00\x00\x00\x00\x00\x00\x00\x00\x00\x00\x00\x00\x00\x00\x00\x00\x00\x00\x00\xec\xed\t\xf1\xcc\xa4\xf4?\x00\x00\x00\x00\x00\x00\xc0\xbcN"\xd0^p\xf8\x00\xc0\x00\x00\x00\x00\x00\x00\x00\x00\x9d\x03\r.\x04V\xe6\xbf\x00\x00\x00\x00\x00\x00\x00\x00\x00\x00\x00\x00\x00\x00\x00\x00\x00\x00\x00\x00\x00\x00\xb6\xbc\x00\x00\x00\x00\x00\x00\x00\x00\x00\x00\x00\x00\x00\x00\xd0\xbc\x00\x00\x00\x00\x00\x00\x00\x00\x00\x00\x00\x00\x00\x00\x00\x00\xec\xed\t\xf1\xcc\xa4\xf4?\x00\x00\x00\x00\x00\x00\xc0\xbcN"\xd0^p\xf8\x00\xc0\x00\x00\x00\x00\x00\x00\x00\x00\xa3\x03\r.\x04V\xe6\xbf\x00\x00\x00\x00\x00\x00\x00\x00\xce9\xe3\xc17\x89\xe1?\x00\x00\x00\x00\x00\x00\xb6\xbc\x00\x00\x00\x00\x00\x00\x00\x00\x00\x00\x00\x00\x00\x00\xe0<\x00\x00\x00\x00\x00\x00\x00\x00'
p4276
tp4277
bsg1986
I00
sbsg1987
(dp4278
(Vsquare_packing_box4
p4279
(g1385
(g531
S'\x90\xc0\x1f~\xfe\xbb\xf0?'
p4280
tp4281
Rp4282
g1385
(g531
S'8\xdb\xdc\x98\x9e\xc0\x16\xc0'
p4283
tp4284
Rp4285
g1385
(g531
S'\xda\x8c\xd3\x10U\xf8\x13@'
p4286
tp4287
Rp4288
tp4289
tp4290
g957
s(Vrectangular_packing_box2
p4291
(g1385
(g531
S'\xce\xe30\x98\xbfB\x02@'
p4292
tp4293
Rp4294
g1385
(g531
S'\xf9hq\xc60\xf7\x1a\xc0'
p4295
tp4296
Rp4297
g1385
(g531
S'V\xbc\x91y\xe4\x8f\xe0?'
p4298
tp4299
Rp4300
tp4301
tp4302
g933
s(Vrectangular_packing_box3
p4303
(g1385
(g531
S'{\x9f\xaaB\x03\xb1\xb0?'
p4304
tp4305
Rp4306
g1385
(g531
S'\x0f\x0b\xb5\xa6y7\x1e\xc0'
p4307
tp4308
Rp4309
g1385
(g531
S'\xe5\xef\xdeQcb\x12@'
p4310
tp4311
Rp4312
tp4313
tp4314
g937
s(Vrectangular_packing_box4
p4315
(g1385
(g531
S'}\xec.PR`\xd2?'
p4316
tp4317
Rp4318
g1385
(g531
S'\x8fT\xdf\xf9Ei\x18\xc0'
p4319
tp4320
Rp4321
g1385
(g531
S'\xe8\xf9\xd3Fu:\xe4?'
p4322
tp4323
Rp4324
tp4325
tp4326
g929
s(Vsquare_packing_box2
p4327
(g1385
(g531
S'6\x90.6\xad\xb4\r@'
p4328
tp4329
Rp4330
g1385
(g531
S'7\xc3\r\xf8\xfc\xf0\x16\xc0'
p4331
tp4332
Rp4333
g1385
(g531
S'\xe9\x9d\n\xb8\xe7\t\x19@'
p4334
tp4335
Rp4336
tp4337
tp4338
g3153
s(Vsquare_packing_box3
p4339
(g1385
(g531
S'\xc7\xbc\x8e8d\xa3\n@'
p4340
tp4341
Rp4342
g1385
(g531
S'\xb8\xca\x13\x08;\x05\x1e\xc0'
p4343
tp4344
Rp4345
g1385
(g531
S'\xde\xc9\xa7\xc7\xb6\xac\x0f@'
p4346
tp4347
Rp4348
tp4349
tp4350
g949
s(Vsquare_packing_box1
p4351
(g1385
(g531
S'N\xb4\xab\x90\xf23\x0c@'
p4352
tp4353
Rp4354
g1385
(g531
S'Q\xf5+\x9d\x0f?\x15\xc0'
p4355
tp4356
Rp4357
g1385
(g531
S'\xe2\x1f\xb6\xf4h\n\x13@'
p4358
tp4359
Rp4360
tp4361
tp4362
g953
s(Vrectangular_packing_box1
p4363
(g1385
(g531
S'\xa8\xdf\x85\xad\xd9J\xf5?'
p4364
tp4365
Rp4366
g1385
(g531
S'\x14\x05\xfaD\x9e4\x18\xc0'
p4367
tp4368
Rp4369
g1385
(g531
S'\xb13\x85\xcek,\x0b@'
p4370
tp4371
Rp4372
tp4373
tp4374
g941
ssg2085
(dp4375
sg2287
(dp4376
(g3088
g15
tp4377
(lp4378
g521
(g522
(I0
tp4379
g524
tp4380
Rp4381
(I1
(I3
tp4382
g531
I00
S'[\xca\xc0\xcf\xd9[\xf0?\xff/#\xddH6\x15\xc0F\xa4\xd4\xc0\xcb\x98\x14@'
p4383
tp4384
bas(g3135
g11
tp4385
(lp4386
g521
(g522
(I0
tp4387
g524
tp4388
Rp4389
(I1
(I3
tp4390
g531
I00
S'\xc0\xdc\xa0]\xb4\xb3\xed?c\xb9\xcf\x1f\xa8Q\x13\xc0:\x0eA\xb8^ \x13@'
p4391
tp4392
bag521
(g522
(I0
tp4393
g524
tp4394
Rp4395
(I1
(I3
tp4396
g563
I00
S"\xaeJ\xbd\x1936\xec?\x04\x13\xd4'\x9f\x88\x10\xc0\x805qo\xb6\xe6\xff\xbf"
p4397
tp4398
bag521
(g522
(I0
tp4399
g524
tp4400
Rp4401
(I1
(I3
tp4402
g563
I00
S'\xf09\xb6\x1c*\x86\xee?\xc4\n/\x96\xcb\xe3\n\xc0\xa0\xc9\xd6F6\x0f\x00\xc0'
p4403
tp4404
bag521
(g522
(I0
tp4405
g524
tp4406
Rp4407
(I1
(I3
tp4408
g563
I00
S'\xf4\xfdJ\x1a(#\xec?H"\x9cD\x1aE\x05\xc0.\xa9\x0b\x87\xf8\xe1\x02@'
p4409
tp4410
bas(g3085
g11
tp4411
(lp4412
g521
(g522
(I0
tp4413
g524
tp4414
Rp4415
(I1
(I3
tp4416
g531
I00
S' \xef\xbc7\x1c\xc9\xc2\xbf\x06{?`*X\x16\xc0\xc3\xcf\x15Rt\xb2\x14@'
p4417
tp4418
bag521
(g522
(I0
tp4419
g524
tp4420
Rp4421
(I1
(I3
tp4422
g563
I00
S'\xff\x1dX8\xbe\xd2\xc9?\x91h\xd1{\x1e(\x16\xc0\xee\xfeSI\xc3\xd4\x03\xc0'
p4423
tp4424
bag521
(g522
(I0
tp4425
g524
tp4426
Rp4427
(I1
(I3
tp4428
g563
I00
S'\xcc\x87!\x1f\xfb\x05\xe6?\x14;\x08\xf1<\xc6\x13\xc0V!\xac1j\x94\xc8?'
p4429
tp4430
bag521
(g522
(I0
tp4431
g524
tp4432
Rp4433
(I1
(I3
tp4434
g563
I00
S'`\xc8Aw-\x81\xeb?/\xc3\xe6O\x04\xca\x10\xc0\x8a\xb7K)\x91{\xe4\xbf'
p4435
tp4436
bag521
(g522
(I0
tp4437
g524
tp4438
Rp4439
(I1
(I3
tp4440
g563
I00
S'\xe1\xc6\xc7\xa7\x12X\xe7?\x98\x99\xb0\x9a\xfb\xdb\x0b\xc0R\t\x1b)\xeae\xe0\xbf'
p4441
tp4442
bag521
(g522
(I0
tp4443
g524
tp4444
Rp4445
(I1
(I3
tp4446
g563
I00
S'p\xf1\xbdc^\x84\xf1?"\x88LL\xf9D\x06\xc0~w\r\xe9m\x0f\x19@'
p4447
tp4448
bas(g3133
g15
tp4449
(lp4450
g521
(g522
(I0
tp4451
g524
tp4452
Rp4453
(I1
(I3
tp4454
g531
I00
S'b\xc8\xacwl\xa9\x05@\x8fL\xa6~\x15\xe6\x1c\xc0<\xd4\xf5\xbd\xf4\xd8\x15@'
p4455
tp4456
bas(g3085
g15
tp4457
(lp4458
g521
(g522
(I0
tp4459
g524
tp4460
Rp4461
(I1
(I3
tp4462
g531
I00
S'\xcd\xee\xbc7\x1c\xc9\xc2\xbf\x08{?`*X\x16\xc0\xc3\xcf\x15Rt\xb2\x14@'
p4463
tp4464
bas(g3133
g11
tp4465
(lp4466
g521
(g522
(I0
tp4467
g524
tp4468
Rp4469
(I1
(I3
tp4470
g531
I00
S'e\xc8\xacwl\xa9\x05@\x8fL\xa6~\x15\xe6\x1c\xc0<\xd4\xf5\xbd\xf4\xd8\x15@'
p4471
tp4472
bag521
(g522
(I0
tp4473
g524
tp4474
Rp4475
(I1
(I3
tp4476
g563
I00
S';\x8f\xd5Y\xee\xd5\x01@\x96Vuf4l\x1f\xc0\x08\xe6\xe9\x98\x9f0\xf6\xbf'
p4477
tp4478
bag521
(g522
(I0
tp4479
g524
tp4480
Rp4481
(I1
(I3
tp4482
g563
I00
S'\x06\xbc\xc2\x02\xe5\t\xfa?\x13\x91\xe2\xd9\xb5B\x1e\xc0\xce\xd4\xdb\xc4\xdf\xb1\xf6\xbf'
p4483
tp4484
bag521
(g522
(I0
tp4485
g524
tp4486
Rp4487
(I1
(I3
tp4488
g563
I00
S'\xba)c\x05l\x93\xf4?\x8f\x0f\xa1<\xee\x05\x1c\xc0\xf9-\x16\x17\xc6`\xf8\xbf'
p4489
tp4490
bag521
(g522
(I0
tp4491
g524
tp4492
Rp4493
(I1
(I3
tp4494
g563
I00
S'\xb0\xcfg\xd5._\xe8?\xd6\x8d\xba\x87\x91D\x1a\xc0\xea!\xf73\x0cB\xf7\xbf'
p4495
tp4496
bag521
(g522
(I0
tp4497
g524
tp4498
Rp4499
(I1
(I3
tp4500
g563
I00
S'\xb0\x11@i\x1f\x12\xb4?\x01\xb6C\x19\x0b\x9d\x1a\xc0\xda \xc5\xc8m8\xeb?'
p4501
tp4502
bag521
(g522
(I0
tp4503
g524
tp4504
Rp4505
(I1
(I3
tp4506
g563
I00
S'Dz\xddx\xe9\xf0\xb4?\x9c\xf2\xf6\xf0\xef \x18\xc0\x03\xe5\x88\xf0JN\xf3?'
p4507
tp4508
bag521
(g522
(I0
tp4509
g524
tp4510
Rp4511
(I1
(I3
tp4512
g563
I00
S'\xe4\x02R\xd9\x08\x8c\xc7?2\xc1\xd4;\xf6\xf3\x15\xc0>\x8c\x8fa?0\xd8?'
p4513
tp4514
bag521
(g522
(I0
tp4515
g524
tp4516
Rp4517
(I1
(I3
tp4518
g563
I00
S'\xcc\x87!\x1f\xfb\x05\xe6?\x14;\x08\xf1<\xc6\x13\xc0V!\xac1j\x94\xc8?'
p4519
tp4520
bag521
(g522
(I0
tp4521
g524
tp4522
Rp4523
(I1
(I3
tp4524
g563
I00
S'`\xc8Aw-\x81\xeb?/\xc3\xe6O\x04\xca\x10\xc0\x8a\xb7K)\x91{\xe4\xbf'
p4525
tp4526
bag521
(g522
(I0
tp4527
g524
tp4528
Rp4529
(I1
(I3
tp4530
g563
I00
S'\xe1\xc6\xc7\xa7\x12X\xe7?\x98\x99\xb0\x9a\xfb\xdb\x0b\xc0R\t\x1b)\xeae\xe0\xbf'
p4531
tp4532
bag521
(g522
(I0
tp4533
g524
tp4534
Rp4535
(I1
(I3
tp4536
g563
I00
S'p\xf1\xbdc^\x84\xf1?"\x88LL\xf9D\x06\xc0~w\r\xe9m\x0f\x19@'
p4537
tp4538
bas(g3089
g15
tp4539
(lp4540
g521
(g522
(I0
tp4541
g524
tp4542
Rp4543
(I1
(I3
tp4544
g531
I00
S'\xd4\xf2\xfc\xf7\x04\xce\x07@\xc6Ffi\xc6\xf0\x16\xc0;\xd1\xa5\x9d %\x17@'
p4545
tp4546
bas(g3089
g11
tp4547
g3424
s(g3134
g11
tp4548
g3230
s(g3087
g11
tp4549
g3336
s(g3087
g15
tp4550
(lp4551
g521
(g522
(I0
tp4552
g524
tp4553
Rp4554
(I1
(I3
tp4555
g531
I00
S'\xe2\xfb\xaaE\x8f\xc1\xe5?\xb2\xa6\xc5gY\x12\x1f\xc0])%M\x96\x93\x08@'
p4556
tp4557
bas(g3135
g15
tp4558
(lp4559
g521
(g522
(I0
tp4560
g524
tp4561
Rp4562
(I1
(I3
tp4563
g531
I00
S'\xc8\xdc\xa0]\xb4\xb3\xed?b\xb9\xcf\x1f\xa8Q\x13\xc0:\x0eA\xb8^ \x13@'
p4564
tp4565
bas(g3134
g15
tp4566
(lp4567
g521
(g522
(I0
tp4568
g524
tp4569
Rp4570
(I1
(I3
tp4571
g531
I00
S'\xbe\x9ct\x99Y\x93\x0e@\xa3\x82\x19\x7fa\xb4\x17\xc0\x0b\x07\x97\xeb\xfc\n\x00@'
p4572
tp4573
bas(g3086
g15
tp4574
(lp4575
g521
(g522
(I0
tp4576
g524
tp4577
Rp4578
(I1
(I3
tp4579
g531
I00
S'\x92\x07\xbd)b\xbe\xfb?\n\x85t\x92\x153\x18\xc0\xb00\xe9\xb77m\x17@'
p4580
tp4581
bas(g3086
g11
tp4582
g3292
s(g3088
g11
tp4583
g3392
ssg2496
(dp4584
sg2706
(dp4585
g18
(lp4586
I0
aI0
aI0
aI0
aI0
aI0
aI00
aI01
aI00
aI01
aI00
asg15
(lp4587
I0
aI0
aI0
aI0
aI0
aI0
aI00
aI01
aI00
aI01
aI00
asg11
(lp4588
I0
aI0
aI0
aI0
aI0
aI0
aI00
aI01
aI01
aI01
aI00
asg33
(lp4589
I0
aI0
aI0
ag1385
(g531
S'\\\x1e]pS`\xd2?'
p4590
tp4591
Rp4592
ag1385
(g531
S'\xf8\x1a\xb6\xe9Ei\x18\xc0'
p4593
tp4594
Rp4595
ag1385
(g531
S'\x82\x97\xe8\xa1t:\xe4?'
p4596
tp4597
Rp4598
aI01
aI00
aI00
aI00
aI00
asg10
(lp4599
I0
aI0
aI0
ag1385
(g531
S'x#\x8a\xa8\xbfB\x02@'
p4600
tp4601
Rp4602
ag1385
(g531
S'T@\xdd\xaa0\xf7\x1a\xc0'
p4603
tp4604
Rp4605
ag1385
(g531
S'\x9a\x93\xe4\xf2\xe3\x8f\xe0?'
p4606
tp4607
Rp4608
aI01
aI00
aI00
aI01
aI00
asg30
(lp4609
I0
aI0
aI0
ag1385
(g531
S'h;$/\t\xb1\xb0?'
p4610
tp4611
Rp4612
ag1385
(g531
S'\xd6\xd8\xd7\x88y7\x1e\xc0'
p4613
tp4614
Rp4615
ag1385
(g531
S'\xa1\xa8\xa4gcb\x12@'
p4616
tp4617
Rp4618
aI01
aI00
aI00
aI00
aI00
asg19
(lp4619
I0
aI0
aI0
ag1385
(g531
S'\x991, \xdaJ\xf5?'
p4620
tp4621
Rp4622
ag1385
(g531
S'5\x94\xc7_\x9e4\x18\xc0'
p4623
tp4624
Rp4625
ag1385
(g531
S'\x88,&\x8ck,\x0b@'
p4626
tp4627
Rp4628
aI01
aI00
aI00
aI00
aI00
asg22
(lp4629
I0
aI0
aI0
ag1385
(g531
S'\xb8\x99\x7f<\xad\xb4\r@'
p4630
tp4631
Rp4632
ag1385
(g531
S'\xde\xe5\x95\xe8\xfc\xf0\x16\xc0'
p4633
tp4634
Rp4635
ag1385
(g531
S'Y\x96n\x9e\xe7\t\x19@'
p4636
tp4637
Rp4638
aI01
aI00
aI00
aI01
aI00
asg46
(lp4639
I0
aI0
aI0
ag1385
(g531
S'1\xc6\x84Ad\xa3\n@'
p4640
tp4641
Rp4642
ag1385
(g531
S'\x98\xae\xb2\x18;\x05\x1e\xc0'
p4643
tp4644
Rp4645
ag1385
(g531
S'j8\xf9\x85\xb6\xac\x0f@'
p4646
tp4647
Rp4648
aI01
aI00
aI00
aI01
aI00
asg14
(lp4649
I0
aI0
aI0
ag1385
(g531
S'\xc6\xcf\x19\xc3\xf23\x0c@'
p4650
tp4651
Rp4652
ag1385
(g531
S'\xd4\xb5r\xad\x0f?\x15\xc0'
p4653
tp4654
Rp4655
ag1385
(g531
S'\xbf~a\xe9h\n\x13@'
p4656
tp4657
Rp4658
aI01
aI00
aI01
aI01
aI00
asg23
(lp4659
I0
aI0
aI0
ag1385
(g531
S'\xcc\xcd\xcef\xfe\xbb\xf0?'
p4660
tp4661
Rp4662
ag1385
(g531
S'\xe6?\xfc\xa1\x9e\xc0\x16\xc0'
p4663
tp4664
Rp4665
ag1385
(g531
S'\xacKe\x14U\xf8\x13@'
p4666
tp4667
Rp4668
aI01
aI00
aI00
aI00
aI00
assg2791
(dp4669
sg2793
NsS'goal_entities'
p4670
(lp4671
Vsquare_packing_box1
p4672
ag11
asS'binary_edges'
p4673
(dp4674
(g22
g23
tp4675
(lp4676
I00
aI00
aI00
as(g22
g33
tp4677
(lp4678
I00
aI00
aI00
as(g30
g46
tp4679
g2499
s(g30
g30
tp4680
g2501
s(g10
g46
tp4681
g2503
s(g10
g30
tp4682
g2577
s(g23
g10
tp4683
g2507
s(g22
g14
tp4684
(lp4685
I00
aI00
aI00
as(g19
g30
tp4686
g2509
s(g33
g33
tp4687
g2511
s(g10
g15
tp4688
g2513
s(g18
g15
tp4689
g2537
s(g33
g23
tp4690
g2523
s(g15
g23
tp4691
g2649
s(g14
g11
tp4692
g2525
s(g18
g10
tp4693
g2687
s(g10
g23
tp4694
g2529
s(g30
g18
tp4695
g2531
s(g22
g22
tp4696
(lp4697
I00
aI00
aI00
as(g15
g22
tp4698
(lp4699
I00
aI00
aI00
as(g46
g10
tp4700
g2533
s(g10
g11
tp4701
g2535
s(g19
g46
tp4702
g2635
s(g33
g19
tp4703
g2539
s(g14
g14
tp4704
g2541
s(g10
g18
tp4705
g2543
s(g15
g10
tp4706
g2621
s(g15
g46
tp4707
g2547
s(g15
g30
tp4708
g2549
s(g46
g11
tp4709
g2551
s(g23
g33
tp4710
g2553
s(g19
g33
tp4711
g2555
s(g46
g19
tp4712
g2557
s(g15
g33
tp4713
g2527
s(g18
g11
tp4714
g2559
s(g14
g10
tp4715
g2561
s(g33
g46
tp4716
g2563
s(g18
g46
tp4717
g2565
s(g46
g18
tp4718
g2567
s(g30
g22
tp4719
(lp4720
I00
aI00
aI00
as(g23
g14
tp4721
g2569
s(g30
g10
tp4722
g2571
s(g23
g11
tp4723
g2573
s(g18
g18
tp4724
g2575
s(g46
g33
tp4725
g2579
s(g14
g22
tp4726
(lp4727
I00
aI00
aI00
as(g11
g14
tp4728
g2583
s(g19
g15
tp4729
g2585
s(g11
g19
tp4730
g2587
s(g23
g30
tp4731
g2589
s(g30
g14
tp4732
g2591
s(g46
g15
tp4733
g2593
s(g30
g19
tp4734
g2595
s(g46
g46
tp4735
g2597
s(g19
g10
tp4736
g2599
s(g15
g11
tp4737
g2601
s(g11
g22
tp4738
(lp4739
I00
aI00
aI00
as(g33
g11
tp4740
g2603
s(g18
g19
tp4741
g2605
s(g11
g23
tp4742
g2607
s(g30
g23
tp4743
g2609
s(g19
g18
tp4744
g2611
s(g23
g15
tp4745
g2613
s(g19
g22
tp4746
(lp4747
I00
aI00
aI00
as(g33
g10
tp4748
g2615
s(g33
g15
tp4749
g2617
s(g11
g30
tp4750
g2661
s(g18
g23
tp4751
g2619
s(g18
g33
tp4752
g2545
s(g19
g11
tp4753
g2623
s(g22
g19
tp4754
(lp4755
I00
aI00
aI00
as(g14
g19
tp4756
g2625
s(g11
g46
tp4757
g2659
s(g15
g15
tp4758
g2627
s(g22
g30
tp4759
(lp4760
I00
aI00
aI00
as(g14
g46
tp4761
g2629
s(g15
g14
tp4762
g2631
s(g10
g33
tp4763
g2633
s(g15
g19
tp4764
g2637
s(g14
g18
tp4765
g2639
s(g22
g10
tp4766
(lp4767
I00
aI00
aI00
as(g30
g11
tp4768
g2665
s(g14
g33
tp4769
g2643
s(g33
g14
tp4770
g2645
s(g10
g14
tp4771
g2647
s(g18
g22
tp4772
(lp4773
I00
aI00
aI00
as(g10
g19
tp4774
g2651
s(g46
g22
tp4775
(lp4776
I00
aI00
aI00
as(g22
g15
tp4777
(lp4778
g2521
aI00
aI01
as(g19
g19
tp4779
g2653
s(g23
g22
tp4780
(lp4781
I00
aI00
aI00
as(g14
g23
tp4782
g2657
s(g10
g22
tp4783
(lp4784
I00
aI00
aI00
as(g10
g10
tp4785
g2641
s(g23
g19
tp4786
g2663
s(g22
g11
tp4787
(lp4788
I00
aI00
aI00
as(g46
g14
tp4789
g2655
s(g30
g15
tp4790
g2667
s(g11
g10
tp4791
g2505
s(g19
g14
tp4792
g2669
s(g33
g30
tp4793
g2671
s(g11
g15
tp4794
g2673
s(g22
g46
tp4795
(lp4796
I00
aI00
aI00
as(g18
g30
tp4797
g2675
s(g22
g18
tp4798
(lp4799
g2521
aI00
aI00
as(g46
g30
tp4800
g2677
s(g11
g11
tp4801
g2679
s(g19
g23
tp4802
g2681
s(g33
g18
tp4803
g2683
s(g23
g18
tp4804
g2685
s(g11
g18
tp4805
g2581
s(g11
g33
tp4806
g2689
s(g46
g23
tp4807
g2691
s(g23
g46
tp4808
g2693
s(g30
g33
tp4809
g2695
s(g15
g18
tp4810
g2697
s(g14
g30
tp4811
g2699
s(g33
g22
tp4812
(lp4813
I00
aI00
aI00
as(g23
g23
tp4814
g2701
s(g14
g15
tp4815
g2703
s(g18
g14
tp4816
g2705
ssg1321
g3503
sS'pick_in_way'
p4817
(itrajectory_representation.predicates.pick_in_way
PickInWay
p4818
(dp4819
g1032
(dp4820
g33
g3556
sg10
g3575
sg30
g3594
sg19
g3613
sg22
g3114
sg46
g3632
sg14
g3657
sg23
g3664
ssg1296
(dp4821
g33
(lp4822
Vrectangular_packing_box1
p4823
aVsquare_packing_box4
p4824
asg10
(lp4825
sg30
(lp4826
Vrectangular_packing_box1
p4827
aVsquare_packing_box4
p4828
asg19
(lp4829
Vrectangular_packing_box1
p4830
aVrectangular_packing_box2
p4831
asg22
(lp4832
sg46
(lp4833
sg14
(lp4834
sg23
(lp4835
Vrectangular_packing_box1
p4836
aVsquare_packing_box4
p4837
assg1321
(lp4838
g22
ag10
ag46
ag18
ag11
ag15
ag14
ag18
ag11
ag15
ag18
ag11
ag15
ag18
ag11
ag15
ag18
ag11
ag15
ag18
ag11
ag15
ag18
ag11
ag15
ag18
ag11
ag15
asg1323
g3504
sg2
(dp4839
sg505
g3084
sg1359
Nsg1365
g3084
sg1362
(dp4840
sg1364
I8
sg1380
I01
sg7
Nsg1366
(dp4841
(g22
g23
tp4842
I00
s(g22
g33
tp4843
I00
s(g30
g46
tp4844
I00
s(g30
g30
tp4845
I00
s(g10
g46
tp4846
I00
s(g10
g30
tp4847
I00
s(g23
g10
tp4848
I00
s(g22
g14
tp4849
I00
s(g19
g30
tp4850
I01
s(g33
g33
tp4851
I00
s(g10
g15
tp4852
I00
s(g18
g15
tp4853
I00
s(g33
g23
tp4854
I00
s(g15
g23
tp4855
I00
s(g14
g11
tp4856
I00
s(g18
g10
tp4857
I00
s(g10
g23
tp4858
I00
s(g30
g18
tp4859
I00
s(g22
g22
tp4860
I00
s(g15
g22
tp4861
I00
s(g46
g10
tp4862
I00
s(g10
g11
tp4863
I00
s(g19
g46
tp4864
I00
s(g33
g19
tp4865
I00
s(g14
g14
tp4866
I00
s(g10
g18
tp4867
I00
s(g15
g10
tp4868
I00
s(g15
g46
tp4869
I00
s(g15
g30
tp4870
I00
s(g46
g11
tp4871
I00
s(g23
g33
tp4872
I01
s(g19
g33
tp4873
I01
s(g46
g19
tp4874
I00
s(g15
g33
tp4875
I00
s(g18
g11
tp4876
I00
s(g14
g10
tp4877
I00
s(g33
g46
tp4878
I00
s(g18
g46
tp4879
I00
s(g46
g18
tp4880
I00
s(g30
g22
tp4881
I00
s(g23
g14
tp4882
I00
s(g30
g10
tp4883
I00
s(g23
g11
tp4884
I00
s(g18
g18
tp4885
I00
s(g46
g33
tp4886
I00
s(g14
g22
tp4887
I00
s(g11
g14
tp4888
I00
s(g19
g15
tp4889
I00
s(g11
g19
tp4890
I00
s(g23
g30
tp4891
I01
s(g30
g14
tp4892
I00
s(g46
g15
tp4893
I00
s(g30
g19
tp4894
I00
s(g46
g46
tp4895
I00
s(g19
g10
tp4896
I00
s(g15
g11
tp4897
I00
s(g11
g22
tp4898
I00
s(g33
g11
tp4899
I00
s(g18
g19
tp4900
I00
s(g11
g23
tp4901
I00
s(g30
g23
tp4902
I00
s(g19
g18
tp4903
I00
s(g23
g15
tp4904
I00
s(g19
g22
tp4905
I00
s(g33
g10
tp4906
I00
s(g33
g15
tp4907
I00
s(g11
g30
tp4908
I00
s(g18
g23
tp4909
I00
s(g18
g33
tp4910
I00
s(g19
g11
tp4911
I00
s(g22
g19
tp4912
I00
s(g14
g19
tp4913
I00
s(g11
g46
tp4914
I00
s(g15
g15
tp4915
I00
s(g22
g30
tp4916
I00
s(g14
g46
tp4917
I00
s(g15
g14
tp4918
I00
s(g10
g33
tp4919
I00
s(g15
g19
tp4920
I00
s(g14
g18
tp4921
I00
s(g22
g10
tp4922
I00
s(g30
g11
tp4923
I00
s(g14
g33
tp4924
I00
s(g33
g14
tp4925
I00
s(g10
g14
tp4926
I00
s(g18
g22
tp4927
I00
s(g10
g19
tp4928
I01
s(g46
g22
tp4929
I00
s(g22
g15
tp4930
I00
s(g19
g19
tp4931
I00
s(g23
g22
tp4932
I00
s(g14
g23
tp4933
I00
s(g10
g22
tp4934
I00
s(g10
g10
tp4935
I00
s(g23
g19
tp4936
I00
s(g22
g11
tp4937
I00
s(g46
g14
tp4938
I00
s(g30
g15
tp4939
I00
s(g11
g10
tp4940
I00
s(g19
g14
tp4941
I00
s(g33
g30
tp4942
I00
s(g11
g15
tp4943
I00
s(g22
g46
tp4944
I00
s(g18
g30
tp4945
I00
s(g22
g18
tp4946
I00
s(g46
g30
tp4947
I00
s(g11
g11
tp4948
I00
s(g19
g23
tp4949
I01
s(g33
g18
tp4950
I00
s(g23
g18
tp4951
I00
s(g11
g18
tp4952
I00
s(g11
g33
tp4953
I00
s(g46
g23
tp4954
I00
s(g23
g46
tp4955
I00
s(g30
g33
tp4956
I00
s(g15
g18
tp4957
I00
s(g14
g30
tp4958
I00
s(g33
g22
tp4959
I00
s(g23
g23
tp4960
I00
s(g14
g15
tp4961
I00
s(g18
g14
tp4962
I00
ssg1379
NsbsS'robot_pose'
p4963
g521
(g522
(I0
tp4964
g524
tp4965
Rp4966
(I1
(I1
I3
tp4967
g531
I00
S'fR\xdd8\xd6\x8d\x00@\xbfC|\xd2X\x00\x16\xc0\xc1\xab\x9e\x0b\x900\xd2?'
p4968
tp4969
bsS'is_holding_goal_entity'
p4970
(itrajectory_representation.predicates.is_holding_goal_entity
IsHoldingGoalEntity
p4971
(dp4972
g4670
g4671
sg7
NsbsS'mc_pick_path'
p4973
(dp4974
sS'current_collides'
p4975
g3504
sbsg4670
g4671
sg4673
(dp4976
(g22
g23
tp4977
(lp4978
I00
aI00
aI00
as(g22
g33
tp4979
(lp4980
I00
aI00
aI00
as(g30
g46
tp4981
(lp4982
I00
aI00
aI00
as(g30
g30
tp4983
(lp4984
I00
aI00
aI00
as(g10
g46
tp4985
(lp4986
I00
aI01
aI00
as(g10
g30
tp4987
(lp4988
I00
aI01
aI00
as(g23
g10
tp4989
(lp4990
I00
aI00
aI00
as(g22
g14
tp4991
(lp4992
I00
aI00
aI00
as(g19
g30
tp4993
(lp4994
I00
aI00
aI00
as(g33
g33
tp4995
(lp4996
I00
aI00
aI00
as(g10
g15
tp4997
(lp4998
g2521
aI00
aI01
as(g18
g15
tp4999
(lp5000
I00
aI00
aI00
as(g33
g23
tp5001
(lp5002
I00
aI00
aI00
as(g15
g23
tp5003
(lp5004
I00
aI00
aI00
as(g14
g11
tp5005
(lp5006
I00
aI00
aI00
as(g18
g10
tp5007
(lp5008
I00
aI00
aI00
as(g10
g23
tp5009
(lp5010
I00
aI01
aI00
as(g30
g18
tp5011
(lp5012
g2521
aI00
aI00
as(g22
g22
tp5013
(lp5014
I00
aI00
aI00
as(g15
g22
tp5015
(lp5016
I00
aI00
aI00
as(g46
g10
tp5017
(lp5018
I00
aI00
aI00
as(g10
g11
tp5019
(lp5020
I00
aI00
aI00
as(g19
g46
tp5021
(lp5022
I00
aI00
aI00
as(g33
g19
tp5023
(lp5024
I00
aI00
aI00
as(g14
g14
tp5025
(lp5026
I00
aI00
aI00
as(g10
g18
tp5027
(lp5028
g2521
aI00
aI00
as(g15
g10
tp5029
(lp5030
I00
aI00
aI00
as(g15
g46
tp5031
(lp5032
I00
aI00
aI00
as(g15
g30
tp5033
(lp5034
I00
aI00
aI00
as(g46
g11
tp5035
(lp5036
I00
aI00
aI01
as(g23
g33
tp5037
(lp5038
I00
aI01
aI00
as(g19
g33
tp5039
(lp5040
I00
aI01
aI00
as(g46
g19
tp5041
(lp5042
I00
aI00
aI00
as(g15
g33
tp5043
(lp5044
I00
aI00
aI00
as(g18
g11
tp5045
(lp5046
I00
aI00
aI00
as(g14
g10
tp5047
(lp5048
I00
aI00
aI00
as(g33
g46
tp5049
(lp5050
I00
aI00
aI00
as(g18
g46
tp5051
(lp5052
I00
aI00
aI00
as(g46
g18
tp5053
(lp5054
g2521
aI00
aI00
as(g30
g22
tp5055
(lp5056
I00
aI00
aI00
as(g23
g14
tp5057
(lp5058
I00
aI00
aI00
as(g30
g10
tp5059
(lp5060
I00
aI00
aI00
as(g23
g11
tp5061
(lp5062
I00
aI00
aI01
as(g18
g18
tp5063
(lp5064
I00
aI00
aI00
as(g46
g33
tp5065
(lp5066
I00
aI00
aI00
as(g14
g22
tp5067
(lp5068
I00
aI00
aI00
as(g11
g14
tp5069
(lp5070
I00
aI00
aI00
as(g19
g15
tp5071
(lp5072
g2521
aI00
aI01
as(g11
g19
tp5073
(lp5074
I00
aI00
aI00
as(g23
g30
tp5075
(lp5076
I00
aI00
aI00
as(g30
g14
tp5077
(lp5078
I00
aI00
aI00
as(g46
g15
tp5079
(lp5080
g2521
aI00
aI01
as(g30
g19
tp5081
(lp5082
I00
aI00
aI00
as(g46
g46
tp5083
(lp5084
I00
aI00
aI00
as(g19
g10
tp5085
(lp5086
I00
aI00
aI00
as(g15
g11
tp5087
(lp5088
I00
aI00
aI00
as(g11
g22
tp5089
(lp5090
I00
aI00
aI00
as(g33
g11
tp5091
(lp5092
I00
aI00
aI01
as(g18
g19
tp5093
(lp5094
I00
aI00
aI00
as(g11
g23
tp5095
(lp5096
I00
aI00
aI00
as(g30
g23
tp5097
(lp5098
I00
aI00
aI00
as(g19
g18
tp5099
(lp5100
g2521
aI00
aI00
as(g23
g15
tp5101
(lp5102
g2521
aI00
aI01
as(g19
g22
tp5103
(lp5104
I00
aI00
aI00
as(g33
g10
tp5105
(lp5106
I00
aI00
aI00
as(g33
g15
tp5107
(lp5108
g2521
aI00
aI01
as(g11
g30
tp5109
(lp5110
I00
aI00
aI00
as(g18
g23
tp5111
(lp5112
I00
aI00
aI00
as(g18
g33
tp5113
(lp5114
I00
aI00
aI00
as(g19
g11
tp5115
(lp5116
I00
aI00
aI00
as(g22
g19
tp5117
(lp5118
I00
aI01
aI00
as(g14
g19
tp5119
(lp5120
I00
aI00
aI00
as(g11
g46
tp5121
(lp5122
I00
aI00
aI00
as(g15
g15
tp5123
(lp5124
I00
aI00
aI00
as(g22
g30
tp5125
(lp5126
I00
aI00
aI00
as(g14
g46
tp5127
(lp5128
I00
aI00
aI00
as(g15
g14
tp5129
(lp5130
I00
aI00
aI00
as(g10
g33
tp5131
(lp5132
I00
aI01
aI00
as(g15
g19
tp5133
(lp5134
I00
aI00
aI00
as(g14
g18
tp5135
(lp5136
g2521
aI00
aI00
as(g22
g10
tp5137
(lp5138
I00
aI00
aI00
as(g30
g11
tp5139
(lp5140
I00
aI00
aI00
as(g14
g33
tp5141
(lp5142
I00
aI00
aI00
as(g33
g14
tp5143
(lp5144
I00
aI00
aI00
as(g10
g14
tp5145
(lp5146
I00
aI00
aI00
as(g18
g22
tp5147
(lp5148
I00
aI00
aI00
as(g10
g19
tp5149
(lp5150
I00
aI01
aI00
as(g46
g22
tp5151
(lp5152
I00
aI00
aI00
as(g22
g15
tp5153
(lp5154
g2521
aI00
aI01
as(g19
g19
tp5155
(lp5156
I00
aI00
aI00
as(g23
g22
tp5157
(lp5158
I00
aI00
aI00
as(g14
g23
tp5159
(lp5160
I00
aI00
aI00
as(g10
g22
tp5161
(lp5162
I00
aI00
aI00
as(g10
g10
tp5163
(lp5164
I00
aI00
aI00
as(g23
g19
tp5165
(lp5166
I00
aI00
aI00
as(g22
g11
tp5167
(lp5168
I00
aI00
aI00
as(g46
g14
tp5169
(lp5170
I00
aI00
aI00
as(g30
g15
tp5171
(lp5172
g2521
aI00
aI01
as(g11
g10
tp5173
(lp5174
I00
aI00
aI00
as(g19
g14
tp5175
(lp5176
I00
aI00
aI00
as(g33
g30
tp5177
(lp5178
I00
aI00
aI00
as(g11
g15
tp5179
(lp5180
I00
aI00
aI00
as(g22
g46
tp5181
(lp5182
I00
aI00
aI00
as(g18
g30
tp5183
(lp5184
I00
aI00
aI00
as(g22
g18
tp5185
(lp5186
g2521
aI00
aI00
as(g46
g30
tp5187
(lp5188
I00
aI00
aI00
as(g11
g11
tp5189
(lp5190
I00
aI00
aI00
as(g19
g23
tp5191
(lp5192
I00
aI01
aI00
as(g33
g18
tp5193
(lp5194
g2521
aI00
aI00
as(g23
g18
tp5195
(lp5196
g2521
aI00
aI00
as(g11
g18
tp5197
(lp5198
I00
aI00
aI00
as(g11
g33
tp5199
(lp5200
I00
aI00
aI00
as(g46
g23
tp5201
(lp5202
I00
aI00
aI00
as(g23
g46
tp5203
(lp5204
I00
aI00
aI00
as(g30
g33
tp5205
(lp5206
I00
aI00
aI00
as(g15
g18
tp5207
(lp5208
I00
aI00
aI00
as(g14
g30
tp5209
(lp5210
I00
aI00
aI00
as(g33
g22
tp5211
(lp5212
I00
aI00
aI00
as(g23
g23
tp5213
(lp5214
I00
aI00
aI00
as(g14
g15
tp5215
(lp5216
g2521
aI00
aI01
as(g18
g14
tp5217
(lp5218
I00
aI00
aI00
assg1321
g1322
sg4817
(itrajectory_representation.predicates.pick_in_way
PickInWay
p5219
(dp5220
g1032
(dp5221
g33
g550
sg10
g599
sg30
g643
sg19
g711
sg22
g767
sg46
g799
sg14
g843
sg23
g887
ssg1296
(dp5222
g33
(lp5223
Vrectangular_packing_box2
p5224
aVrectangular_packing_box1
p5225
aVsquare_packing_box4
p5226
asg10
(lp5227
sg30
(lp5228
Vrectangular_packing_box2
p5229
asg19
(lp5230
Vsquare_packing_box2
p5231
aVrectangular_packing_box2
p5232
asg22
(lp5233
sg46
(lp5234
Vrectangular_packing_box2
p5235
asg14
(lp5236
sg23
(lp5237
Vrectangular_packing_box2
p5238
aVrectangular_packing_box1
p5239
assg1321
(lp5240
g22
ag10
ag18
ag11
ag15
ag14
ag18
ag11
ag15
ag18
ag11
ag15
ag18
ag11
ag15
ag18
ag11
ag15
ag18
ag11
ag15
ag18
ag11
ag15
ag18
ag11
ag15
asg1323
g1324
sg2
(dp5241
sg505
g506
sg1359
Nsg1365
g506
sg1362
(dp5242
sg1364
I8
sg1380
I01
sg7
Nsg1366
(dp5243
(g22
g23
tp5244
I00
s(g22
g33
tp5245
I00
s(g30
g46
tp5246
I00
s(g30
g30
tp5247
I00
s(g10
g46
tp5248
I01
s(g10
g30
tp5249
I01
s(g23
g10
tp5250
I00
s(g22
g14
tp5251
I00
s(g19
g30
tp5252
I00
s(g33
g33
tp5253
I00
s(g10
g15
tp5254
I00
s(g18
g15
tp5255
I00
s(g33
g23
tp5256
I00
s(g15
g23
tp5257
I00
s(g14
g11
tp5258
I00
s(g18
g10
tp5259
I00
s(g10
g23
tp5260
I01
s(g30
g18
tp5261
I00
s(g22
g22
tp5262
I00
s(g15
g22
tp5263
I00
s(g46
g10
tp5264
I00
s(g10
g11
tp5265
I00
s(g19
g46
tp5266
I00
s(g33
g19
tp5267
I00
s(g14
g14
tp5268
I00
s(g10
g18
tp5269
I00
s(g15
g10
tp5270
I00
s(g15
g46
tp5271
I00
s(g15
g30
tp5272
I00
s(g46
g11
tp5273
I00
s(g23
g33
tp5274
I01
s(g19
g33
tp5275
I01
s(g46
g19
tp5276
I00
s(g15
g33
tp5277
I00
s(g18
g11
tp5278
I00
s(g14
g10
tp5279
I00
s(g33
g46
tp5280
I00
s(g18
g46
tp5281
I00
s(g46
g18
tp5282
I00
s(g30
g22
tp5283
I00
s(g23
g14
tp5284
I00
s(g30
g10
tp5285
I00
s(g23
g11
tp5286
I00
s(g18
g18
tp5287
I00
s(g46
g33
tp5288
I00
s(g14
g22
tp5289
I00
s(g11
g14
tp5290
I00
s(g19
g15
tp5291
I00
s(g11
g19
tp5292
I00
s(g23
g30
tp5293
I00
s(g30
g14
tp5294
I00
s(g46
g15
tp5295
I00
s(g30
g19
tp5296
I00
s(g46
g46
tp5297
I00
s(g19
g10
tp5298
I00
s(g15
g11
tp5299
I00
s(g11
g22
tp5300
I00
s(g33
g11
tp5301
I00
s(g18
g19
tp5302
I00
s(g11
g23
tp5303
I00
s(g30
g23
tp5304
I00
s(g19
g18
tp5305
I00
s(g23
g15
tp5306
I00
s(g19
g22
tp5307
I00
s(g33
g10
tp5308
I00
s(g33
g15
tp5309
I00
s(g11
g30
tp5310
I00
s(g18
g23
tp5311
I00
s(g18
g33
tp5312
I00
s(g19
g11
tp5313
I00
s(g22
g19
tp5314
I01
s(g14
g19
tp5315
I00
s(g11
g46
tp5316
I00
s(g15
g15
tp5317
I00
s(g22
g30
tp5318
I00
s(g14
g46
tp5319
I00
s(g15
g14
tp5320
I00
s(g10
g33
tp5321
I01
s(g15
g19
tp5322
I00
s(g14
g18
tp5323
I00
s(g22
g10
tp5324
I00
s(g30
g11
tp5325
I00
s(g14
g33
tp5326
I00
s(g33
g14
tp5327
I00
s(g10
g14
tp5328
I00
s(g18
g22
tp5329
I00
s(g10
g19
tp5330
I01
s(g46
g22
tp5331
I00
s(g22
g15
tp5332
I00
s(g19
g19
tp5333
I00
s(g23
g22
tp5334
I00
s(g14
g23
tp5335
I00
s(g10
g22
tp5336
I00
s(g10
g10
tp5337
I00
s(g23
g19
tp5338
I00
s(g22
g11
tp5339
I00
s(g46
g14
tp5340
I00
s(g30
g15
tp5341
I00
s(g11
g10
tp5342
I00
s(g19
g14
tp5343
I00
s(g33
g30
tp5344
I00
s(g11
g15
tp5345
I00
s(g22
g46
tp5346
I00
s(g18
g30
tp5347
I00
s(g22
g18
tp5348
I00
s(g46
g30
tp5349
I00
s(g11
g11
tp5350
I00
s(g19
g23
tp5351
I01
s(g33
g18
tp5352
I00
s(g23
g18
tp5353
I00
s(g11
g18
tp5354
I00
s(g11
g33
tp5355
I00
s(g46
g23
tp5356
I00
s(g23
g46
tp5357
I00
s(g30
g33
tp5358
I00
s(g15
g18
tp5359
I00
s(g14
g30
tp5360
I00
s(g33
g22
tp5361
I00
s(g23
g23
tp5362
I00
s(g14
g15
tp5363
I00
s(g18
g14
tp5364
I00
ssg1379
Nsbsg4963
g521
(g522
(I0
tp5365
g524
tp5366
Rp5367
(I1
(I1
I3
tp5368
g531
I00
S'!\x1d\x99\xd7\xe3\x07\t@^\xb4\xd3U\xf5@\x18\xc0\xe4\xc1\x03\xc3\xc3\x1d\x17@'
p5369
tp5370
bsg4970
(itrajectory_representation.predicates.is_holding_goal_entity
IsHoldingGoalEntity
p5371
(dp5372
g4670
g4671
sg7
Nsbsg4973
(dp5373
sg4975
g1324
sb.