(itrajectory_representation.shortest_path_pick_and_place_state
ShortestPathPaPState
p0
(dp1
S'place_used'
p2
(dp3
sS'in_region'
p4
(itrajectory_representation.predicates.in_region
InRegion
p5
(dp6
S'problem_env'
p7
NsbsS'ternary_edges'
p8
(dp9
(Vrectangular_packing_box2
p10
g10
S'home_region'
p11
tp12
(lp13
I00
as(Vsquare_packing_box1
p14
S'loading_region'
p15
g15
tp16
(lp17
I00
as(S'entire_region'
p18
Vrectangular_packing_box1
p19
g11
tp20
(lp21
I00
as(Vsquare_packing_box2
p22
Vsquare_packing_box4
p23
g15
tp24
(lp25
I00
as(g11
g11
g11
tp26
(lp27
I00
as(g23
g10
g15
tp28
(lp29
I00
as(g14
Vrectangular_packing_box3
p30
g11
tp31
(lp32
I00
as(g11
Vrectangular_packing_box4
p33
g11
tp34
(lp35
I00
as(g22
g14
g11
tp36
(lp37
I00
as(g30
g33
g15
tp38
(lp39
I00
as(g11
g23
g15
tp40
(lp41
I00
as(g22
g18
g11
tp42
(lp43
I00
as(g15
g11
g15
tp44
(lp45
I00
as(g33
Vsquare_packing_box3
p46
g11
tp47
(lp48
I00
as(g23
g18
g11
tp49
(lp50
I00
as(g22
g19
g15
tp51
(lp52
I00
as(g46
g15
g11
tp53
(lp54
I00
as(g18
g10
g15
tp55
(lp56
I00
as(g11
g18
g11
tp57
(lp58
I00
as(g10
g15
g11
tp59
(lp60
I00
as(g46
g18
g11
tp61
(lp62
I00
as(g14
g14
g15
tp63
(lp64
I00
as(g15
g23
g15
tp65
(lp66
I00
as(g18
g15
g11
tp67
(lp68
I00
as(g18
g22
g11
tp69
(lp70
I00
as(g15
g15
g11
tp71
(lp72
I00
as(g46
g33
g15
tp73
(lp74
I00
as(g11
g11
g15
tp75
(lp76
I00
as(g19
g22
g15
tp77
(lp78
I00
as(g10
g23
g11
tp79
(lp80
I01
as(g46
g14
g11
tp81
(lp82
I00
as(g19
g11
g15
tp83
(lp84
I00
as(g11
g10
g15
tp85
(lp86
I00
as(g19
g30
g15
tp87
(lp88
I00
as(g30
g19
g11
tp89
(lp90
I01
as(g15
g14
g15
tp91
(lp92
I00
as(g23
g22
g15
tp93
(lp94
I00
as(g10
g10
g15
tp95
(lp96
I00
as(g18
g23
g11
tp97
(lp98
I00
as(g15
g11
g11
tp99
(lp100
I00
as(g33
g10
g11
tp101
(lp102
I00
as(g11
g30
g11
tp103
(lp104
I00
as(g22
g19
g11
tp105
(lp106
I01
as(g30
g23
g11
tp107
(lp108
I01
as(g14
g30
g15
tp109
(lp110
I00
as(g46
g22
g11
tp111
(lp112
I00
as(g22
g14
g15
tp113
(lp114
I00
as(g22
g10
g15
tp115
(lp116
I00
as(g18
g22
g15
tp117
(lp118
I00
as(g15
g30
g15
tp119
(lp120
I00
as(g18
g11
g11
tp121
(lp122
I00
as(g33
g11
g11
tp123
(lp124
I00
as(g15
g18
g11
tp125
(lp126
I00
as(g10
g23
g15
tp127
(lp128
I00
as(g46
g10
g15
tp129
(lp130
I00
as(g46
g46
g11
tp131
(lp132
I00
as(g19
g30
g11
tp133
(lp134
I00
as(g18
g10
g11
tp135
(lp136
I00
as(g19
g15
g15
tp137
(lp138
I00
as(g23
g14
g11
tp139
(lp140
I00
as(g14
g14
g11
tp141
(lp142
I00
as(g14
g33
g11
tp143
(lp144
I00
as(g33
g10
g15
tp145
(lp146
I00
as(g23
g19
g15
tp147
(lp148
I00
as(g46
g33
g11
tp149
(lp150
I00
as(g19
g22
g11
tp151
(lp152
I00
as(g10
g19
g15
tp153
(lp154
I00
as(g19
g11
g11
tp155
(lp156
I00
as(g22
g10
g11
tp157
(lp158
I01
as(g10
g46
g11
tp159
(lp160
I00
as(g30
g19
g15
tp161
(lp162
I00
as(g11
g22
g15
tp163
(lp164
I00
as(g18
g11
g15
tp165
(lp166
I00
as(g18
g23
g15
tp167
(lp168
I00
as(g46
g10
g11
tp169
(lp170
I00
as(g30
g46
g15
tp171
(lp172
I00
as(g10
g18
g15
tp173
(lp174
I00
as(g19
g15
g11
tp175
(lp176
I00
as(g46
g22
g15
tp177
(lp178
I00
as(g46
g19
g15
tp179
(lp180
I00
as(g23
g14
g15
tp181
(lp182
I00
as(g11
g30
g15
tp183
(lp184
I00
as(g18
g46
g15
tp185
(lp186
I00
as(g15
g30
g11
tp187
(lp188
I00
as(g15
g22
g15
tp189
(lp190
I00
as(g10
g19
g11
tp191
(lp192
I01
as(g23
g19
g11
tp193
(lp194
I00
as(g15
g46
g11
tp195
(lp196
I00
as(g10
g46
g15
tp197
(lp198
I00
as(g10
g33
g15
tp199
(lp200
I00
as(g30
g23
g15
tp201
(lp202
I00
as(g14
g33
g15
tp203
(lp204
I00
as(g19
g46
g15
tp205
(lp206
I00
as(g11
g14
g15
tp207
(lp208
I00
as(g30
g15
g15
tp209
(lp210
I00
as(g33
g11
g15
tp211
(lp212
I00
as(g14
g19
g11
tp213
(lp214
I01
as(g10
g18
g11
tp215
(lp216
I00
as(g33
g22
g15
tp217
(lp218
I00
as(g30
g10
g15
tp219
(lp220
I00
as(g46
g19
g11
tp221
(lp222
I00
as(g23
g15
g15
tp223
(lp224
I00
as(g22
g11
g11
tp225
(lp226
I00
as(g23
g33
g11
tp227
(lp228
I00
as(g11
g46
g15
tp229
(lp230
I00
as(g15
g19
g15
tp231
(lp232
I00
as(g15
g46
g15
tp233
(lp234
I00
as(g14
g46
g11
tp235
(lp236
I00
as(g19
g46
g11
tp237
(lp238
I00
as(g14
g19
g15
tp239
(lp240
I00
as(g30
g10
g11
tp241
(lp242
I00
as(g10
g22
g11
tp243
(lp244
I00
as(g30
g11
g15
tp245
(lp246
I00
as(g23
g15
g11
tp247
(lp248
I00
as(g15
g33
g15
tp249
(lp250
I00
as(g10
g33
g11
tp251
(lp252
I01
as(g30
g30
g11
tp253
(lp254
I00
as(g33
g33
g11
tp255
(lp256
I00
as(g33
g30
g15
tp257
(lp258
I00
as(g30
g15
g11
tp259
(lp260
I00
as(g46
g23
g11
tp261
(lp262
I00
as(g33
g22
g11
tp263
(lp264
I00
as(g22
g15
g15
tp265
(lp266
I00
as(g30
g18
g15
tp267
(lp268
I00
as(g22
g11
g15
tp269
(lp270
I00
as(g14
g22
g15
tp271
(lp272
I00
as(g23
g33
g15
tp273
(lp274
I00
as(g46
g11
g15
tp275
(lp276
I00
as(g30
g11
g11
tp277
(lp278
I00
as(g15
g33
g11
tp279
(lp280
I00
as(g19
g19
g11
tp281
(lp282
I00
as(g15
g23
g11
tp283
(lp284
I00
as(g23
g46
g11
tp285
(lp286
I00
as(g14
g10
g11
tp287
(lp288
I00
as(g14
g46
g15
tp289
(lp290
I00
as(g33
g14
g15
tp291
(lp292
I00
as(g11
g22
g11
tp293
(lp294
I00
as(g18
g30
g15
tp295
(lp296
I00
as(g30
g14
g11
tp297
(lp298
I00
as(g19
g18
g11
tp299
(lp300
I00
as(g46
g23
g15
tp301
(lp302
I00
as(g46
g30
g15
tp303
(lp304
I00
as(g33
g19
g11
tp305
(lp306
I00
as(g10
g22
g15
tp307
(lp308
I00
as(g33
g15
g11
tp309
(lp310
I00
as(g30
g18
g11
tp311
(lp312
I00
as(g23
g30
g15
tp313
(lp314
I00
as(g10
g14
g11
tp315
(lp316
I00
as(g46
g14
g15
tp317
(lp318
I00
as(g23
g23
g15
tp319
(lp320
I00
as(g33
g33
g15
tp321
(lp322
I00
as(g19
g19
g15
tp323
(lp324
I00
as(g14
g23
g15
tp325
(lp326
I00
as(g23
g22
g11
tp327
(lp328
I00
as(g18
g14
g11
tp329
(lp330
I00
as(g11
g18
g15
tp331
(lp332
I00
as(g11
g19
g15
tp333
(lp334
I00
as(g22
g15
g11
tp335
(lp336
I00
as(g14
g10
g15
tp337
(lp338
I00
as(g19
g14
g15
tp339
(lp340
I00
as(g30
g30
g15
tp341
(lp342
I00
as(g18
g30
g11
tp343
(lp344
I00
as(g22
g30
g15
tp345
(lp346
I00
as(g19
g18
g15
tp347
(lp348
I00
as(g14
g22
g11
tp349
(lp350
I01
as(g33
g19
g15
tp351
(lp352
I00
as(g33
g30
g11
tp353
(lp354
I00
as(g23
g30
g11
tp355
(lp356
I00
as(g14
g11
g15
tp357
(lp358
I00
as(g22
g46
g11
tp359
(lp360
I00
as(g46
g46
g15
tp361
(lp362
I00
as(g33
g18
g11
tp363
(lp364
I00
as(g15
g18
g15
tp365
(lp366
I00
as(g23
g46
g15
tp367
(lp368
I00
as(g15
g19
g11
tp369
(lp370
I00
as(g18
g18
g15
tp371
(lp372
I00
as(g33
g14
g11
tp373
(lp374
I00
as(g14
g23
g11
tp375
(lp376
I01
as(g15
g10
g15
tp377
(lp378
I00
as(g30
g14
g15
tp379
(lp380
I00
as(g46
g11
g11
tp381
(lp382
I00
as(g18
g14
g15
tp383
(lp384
I00
as(g46
g30
g11
tp385
(lp386
I00
as(g30
g22
g11
tp387
(lp388
I00
as(g33
g15
g15
tp389
(lp390
I00
as(g10
g14
g15
tp391
(lp392
I00
as(g19
g10
g11
tp393
(lp394
I00
as(g18
g15
g15
tp395
(lp396
I00
as(g15
g10
g11
tp397
(lp398
I00
as(g14
g18
g11
tp399
(lp400
I00
as(g22
g46
g15
tp401
(lp402
I00
as(g22
g33
g15
tp403
(lp404
I00
as(g23
g11
g11
tp405
(lp406
I00
as(g33
g18
g15
tp407
(lp408
I00
as(g33
g23
g11
tp409
(lp410
I00
as(g18
g33
g15
tp411
(lp412
I00
as(g11
g19
g11
tp413
(lp414
I00
as(g11
g46
g11
tp415
(lp416
I00
as(g19
g14
g11
tp417
(lp418
I00
as(g19
g33
g11
tp419
(lp420
I00
as(g18
g46
g11
tp421
(lp422
I00
as(g22
g30
g11
tp423
(lp424
I00
as(g22
g22
g15
tp425
(lp426
I00
as(g19
g23
g15
tp427
(lp428
I00
as(g23
g11
g15
tp429
(lp430
I00
as(g10
g11
g11
tp431
(lp432
I00
as(g14
g11
g11
tp433
(lp434
I00
as(g19
g10
g15
tp435
(lp436
I00
as(g23
g10
g11
tp437
(lp438
I00
as(g11
g15
g11
tp439
(lp440
I00
as(g18
g18
g11
tp441
(lp442
I00
as(g10
g30
g15
tp443
(lp444
I00
as(g14
g18
g15
tp445
(lp446
I00
as(g15
g22
g11
tp447
(lp448
I00
as(g30
g33
g11
tp449
(lp450
I01
as(g18
g33
g11
tp451
(lp452
I00
as(g14
g15
g11
tp453
(lp454
I00
as(g30
g22
g15
tp455
(lp456
I00
as(g11
g14
g11
tp457
(lp458
I00
as(g18
g19
g15
tp459
(lp460
I00
as(g23
g18
g15
tp461
(lp462
I00
as(g22
g22
g11
tp463
(lp464
I00
as(g19
g23
g11
tp465
(lp466
I01
as(g46
g18
g15
tp467
(lp468
I00
as(g22
g33
g11
tp469
(lp470
I00
as(g11
g23
g11
tp471
(lp472
I00
as(g30
g46
g11
tp473
(lp474
I00
as(g33
g23
g15
tp475
(lp476
I00
as(g23
g23
g11
tp477
(lp478
I00
as(g19
g33
g15
tp479
(lp480
I00
as(g22
g23
g11
tp481
(lp482
I01
as(g46
g15
g15
tp483
(lp484
I00
as(g11
g10
g11
tp485
(lp486
I00
as(g10
g15
g15
tp487
(lp488
I00
as(g11
g33
g15
tp489
(lp490
I00
as(g10
g11
g15
tp491
(lp492
I00
as(g15
g15
g15
tp493
(lp494
I00
as(g22
g18
g15
tp495
(lp496
I00
as(g33
g46
g15
tp497
(lp498
I00
as(g11
g15
g15
tp499
(lp500
I00
as(g10
g30
g11
tp501
(lp502
I00
as(g15
g14
g11
tp503
(lp504
I00
assS'pick_used'
p505
(dp506
Vrectangular_packing_box4
p507
(itrajectory_representation.operator
Operator
p508
(dp509
S'is_skeleton'
p510
I01
sS'discrete_parameters'
p511
(dp512
S'object'
p513
Vrectangular_packing_box4
p514
ssS'type'
p515
S'two_arm_pick'
p516
sS'continuous_parameters'
p517
(dp518
S'q_goal'
p519
(lp520
cnumpy.core.multiarray
_reconstruct
p521
(cnumpy
ndarray
p522
(I0
tp523
S'b'
p524
tp525
Rp526
(I1
(I3
tp527
cnumpy
dtype
p528
(S'f8'
p529
I0
I1
tp530
Rp531
(I3
S'<'
p532
NNNI-1
I-1
I0
tp533
bI00
S'R\xee\xbc7\x1c\xc9\xc2\xbf\x03{?`*X\x16\xc0Wu\xb9\x08\x1c\xbe\xf1\xbf'
p534
tp535
bag521
(g522
(I0
tp536
g524
tp537
Rp538
(I1
(I3
tp539
g531
I00
S'\x96K\xf0\x92\x88\x80\xcb\xbf\xa7C4\x80H\xfd\x15\xc0\xba\r\xd4\xcf\xe37\xe9\xbf'
p540
tp541
bag521
(g522
(I0
tp542
g524
tp543
Rp544
(I1
(I3
tp545
g531
I00
S'\xfa@\x96(\x83\n\xf0?:\x0b\xfe\xca\xdf\x01\x17\xc0\xa1b\xce\xdbM\x85\t\xc0'
p546
tp547
basS'is_feasible'
p548
I00
ssS'low_level_motion'
p549
(lp550
g521
(g522
(I0
tp551
g524
tp552
Rp553
(I1
(I3
tp554
g531
I00
S'dR\xdd8\xd6\x8d\x00@\xc1C|\xd2X\x00\x16\xc0\xc0\xab\x9e\x0b\x900\xd2?'
p555
tp556
bag521
(g522
(I0
tp557
g524
tp558
Rp559
(I1
(I3
tp560
g528
(S'f8'
p561
I0
I1
tp562
Rp563
(I3
S'<'
p564
NNNI-1
I-1
I0
tp565
bI00
S'\xf5I-\xc1\xee\x1f\xfa?Zc\rx\x9c\n\x18\xc0?_z:D*\x17@'
p566
tp567
bag521
(g522
(I0
tp568
g524
tp569
Rp570
(I1
(I3
tp571
g563
I00
S'-%/\xa8h{\xf9?\x98fM\xb1\x8f\x0e\x16\xc0\x8f\x17\x96\x89\xffQ\x10@'
p572
tp573
bag544
asbsVrectangular_packing_box2
p574
(itrajectory_representation.operator
Operator
p575
(dp576
g510
I01
sg511
(dp577
g513
Vrectangular_packing_box2
p578
ssg515
g516
sg517
(dp579
g519
(lp580
g521
(g522
(I0
tp581
g524
tp582
Rp583
(I1
(I3
tp584
g531
I00
S'\x91\x07\xbd)b\xbe\xfb?\x0f\x85t\x92\x153\x18\xc0\x8e\xc6\xaf\xc59L\xdb\xbf'
p585
tp586
bag521
(g522
(I0
tp587
g524
tp588
Rp589
(I1
(I3
tp590
g531
I00
S'Y%SSZ\x02\x05@J\xa1dRg \x1e\xc0\xde2Yo\x08\x01\x00@'
p591
tp592
bag521
(g522
(I0
tp593
g524
tp594
Rp595
(I1
(I3
tp596
g531
I00
S'\\\xcb,\x86\xdc\x8b\x00@k\x82\xd4\xc5\xd4\x10\x18\xc00\xc0$\xccy\xd6\xee\xbf'
p597
tp598
basg548
I00
ssg549
(lp599
g521
(g522
(I0
tp600
g524
tp601
Rp602
(I1
(I3
tp603
g531
I00
S'dR\xdd8\xd6\x8d\x00@\xc1C|\xd2X\x00\x16\xc0\xc0\xab\x9e\x0b\x900\xd2?'
p604
tp605
bag521
(g522
(I0
tp606
g524
tp607
Rp608
(I1
(I3
tp609
g563
I00
S'\x16\x9e\xd06H\xd3\x04@\xe5\xe1\xfb\xc5\xb8\xd1\x16\xc0es\x86\x03\xdb\x8e\x17@'
p610
tp611
bag521
(g522
(I0
tp612
g524
tp613
Rp614
(I1
(I3
tp615
g563
I00
S'\xe6rt0\xc6`\x05@\xe8\xf6\xaa\xc7\x03\x10\x17\xc0v\x9e\xc9\x80o\x15\xed\xbf'
p616
tp617
bag595
asbsVrectangular_packing_box3
p618
(itrajectory_representation.operator
Operator
p619
(dp620
g510
I01
sg511
(dp621
g513
Vrectangular_packing_box3
p622
ssg515
g516
sg517
(dp623
g519
(lp624
g521
(g522
(I0
tp625
g524
tp626
Rp627
(I1
(I3
tp628
g531
I00
S'\x95\xfd\xaaE\x8f\xc1\xe5?\xba\xa6\xc5gY\x12\x1f\xc0\\)%M\x96\x93\x08@'
p629
tp630
bag521
(g522
(I0
tp631
g524
tp632
Rp633
(I1
(I3
tp634
g531
I00
S'\x8f\xc7\xfbV\x05J\xdb?\x02|\xafnm5\x1b\xc0\xcc\xe3\xb3\xbaBQ\x00\xc0'
p635
tp636
bag521
(g522
(I0
tp637
g524
tp638
Rp639
(I1
(I3
tp640
g531
I00
S'\t\xf3\x99by\xfe\xe7?\xb5"\xc5\xafi\x18\x1f\xc0x\x81\xfe\xc56\x0f\x07@'
p641
tp642
basg548
I00
ssg549
(lp643
g521
(g522
(I0
tp644
g524
tp645
Rp646
(I1
(I3
tp647
g531
I00
S'dR\xdd8\xd6\x8d\x00@\xc1C|\xd2X\x00\x16\xc0\xc0\xab\x9e\x0b\x900\xd2?'
p648
tp649
bag521
(g522
(I0
tp650
g524
tp651
Rp652
(I1
(I3
tp653
g563
I00
S'\x0e]\xf2K\xc6E\xf7?\x06\x8c\xb9Ybt\x17\xc0%\xac6\x86\x93\xa8\xdd?'
p654
tp655
bag521
(g522
(I0
tp656
g524
tp657
Rp658
(I1
(I3
tp659
g563
I00
S'Pa\x88\xb1[\x02\xf1?\x1e\x1c\xb3\x8d\x8c\xb7\x19\xc0t\xf6\xbb\xc4\x878\x11@'
p660
tp661
bag633
asbsVrectangular_packing_box1
p662
(itrajectory_representation.operator
Operator
p663
(dp664
g510
I01
sg511
(dp665
g513
Vrectangular_packing_box1
p666
ssg515
g516
sg517
(dp667
g519
(lp668
g521
(g522
(I0
tp669
g524
tp670
Rp671
(I1
(I3
tp672
g531
I00
S'\xfd\xc9\xc0\xcf\xd9[\xf0?\x96/#\xddH6\x15\xc0F#\xbeM\xbe$\xf2\xbf'
p673
tp674
bag521
(g522
(I0
tp675
g524
tp676
Rp677
(I1
(I3
tp678
g531
I00
S'\xcc\x86Zb\xfc\x0f\xfa?\xa7\xaf\xcdN\xd7x\x1a\xc0\xb2\xf6\xaa+jH\xfd?'
p679
tp680
bag521
(g522
(I0
tp681
g524
tp682
Rp683
(I1
(I3
tp684
g531
I00
S'\xa30>0\x8a\x8c\xf9?\x0c\x90>\x82\xfb\xec\x1a\xc0\xef\x9c\x19\x05S\xe5\xf8?'
p685
tp686
bag521
(g522
(I0
tp687
g524
tp688
Rp689
(I1
(I3
tp690
g531
I00
S'\x11\x93\xe3j\xcc\x8c\xe2?\xffT\x1dv\xaaL\x19\xc0rg\xce\xd5\x1f~\xd3?'
p691
tp692
bag521
(g522
(I0
tp693
g524
tp694
Rp695
(I1
(I3
tp696
g531
I00
S'w\x9d1\xd4y}\xf7?\x11\xaa\x00\x1e\xfa&\x1b\xc0Z\xa2\xbcma\xc2\x01@'
p697
tp698
basg548
I00
ssg549
(lp699
g521
(g522
(I0
tp700
g524
tp701
Rp702
(I1
(I3
tp703
g531
I00
S'dR\xdd8\xd6\x8d\x00@\xc1C|\xd2X\x00\x16\xc0\xc0\xab\x9e\x0b\x900\xd2?'
p704
tp705
bag521
(g522
(I0
tp706
g524
tp707
Rp708
(I1
(I3
tp709
g563
I00
S'/\xe1\x02^.|\x00@\xb8\xae\xc5\xcfF\x16\x17\xc0\xf8\x01)d\xc5\xf9\xe2?'
p710
tp711
bag521
(g522
(I0
tp712
g524
tp713
Rp714
(I1
(I3
tp715
g563
I00
S'\xe0 ;\x819w\xfd?\xe7\xcc\xc2\xa0\xa5f\x17\xc04\xedq\x1c\x8eK\xfa?'
p716
tp717
bag677
asbsVsquare_packing_box2
p718
(itrajectory_representation.operator
Operator
p719
(dp720
g510
I01
sg511
(dp721
g513
Vsquare_packing_box2
p722
ssg515
g516
sg517
(dp723
g519
(lp724
g521
(g522
(I0
tp725
g524
tp726
Rp727
(I1
(I3
tp728
g531
I00
S'\xd7\xf2\xfc\xf7\x04\xce\x07@\xc7Ffi\xc6\xf0\x16\xc0\xc5\xbd\xe5i\xab\xcd\xdf\xbf'
p729
tp730
bag521
(g522
(I0
tp731
g524
tp732
Rp733
(I1
(I3
tp734
g531
I00
S' \xd3\x8e\xcahk\x08@\xb6\xdbN\x1b\x86\x83\x16\xc06\xe8\xe4\xa8\x83\xc5\xcb\xbf'
p735
tp736
bag521
(g522
(I0
tp737
g524
tp738
Rp739
(I1
(I3
tp740
g531
I00
S'\xd1Ln\x97\x8eR\x0c@\xd9\xe0c\xed\xbf\xe1\x19\xc07v\xab\x11\x1f\xda\xf6?'
p741
tp742
basg548
I00
ssg549
(lp743
g521
(g522
(I0
tp744
g524
tp745
Rp746
(I1
(I3
tp747
g531
I00
S'dR\xdd8\xd6\x8d\x00@\xc1C|\xd2X\x00\x16\xc0\xc0\xab\x9e\x0b\x900\xd2?'
p748
tp749
bag521
(g522
(I0
tp750
g524
tp751
Rp752
(I1
(I3
tp753
g563
I00
S'\x00\xda\x1c<\xfd\xdc\x00@j"\x91\xe3 \x1a\x18\xc0i~!@)\xb0\xdc\xbf'
p754
tp755
bag521
(g522
(I0
tp756
g524
tp757
Rp758
(I1
(I3
tp759
g563
I00
S'\xe6rt0\xc6`\x05@\xe8\xf6\xaa\xc7\x03\x10\x17\xc0v\x9e\xc9\x80o\x15\xed\xbf'
p760
tp761
bag727
asbsVsquare_packing_box3
p762
(itrajectory_representation.operator
Operator
p763
(dp764
g510
I01
sg511
(dp765
g513
Vsquare_packing_box3
p766
ssg515
g516
sg517
(dp767
g519
(lp768
g521
(g522
(I0
tp769
g524
tp770
Rp771
(I1
(I3
tp772
g531
I00
S'a\xc8\xacwl\xa9\x05@\x8eL\xa6~\x15\xe6\x1c\xc0\xe1\xc6r\xb24H\xea\xbf'
p773
tp774
bag521
(g522
(I0
tp775
g524
tp776
Rp777
(I1
(I3
tp778
g531
I00
S'9\x1fG5\xaf\r\x0e@\x8c\x1fn\x15\x89\x17 \xc0l\xa7B\x95\x1f/\x01@'
p779
tp780
bag521
(g522
(I0
tp781
g524
tp782
Rp783
(I1
(I3
tp784
g531
I00
S')b<|\xd6D\x05@\xcc\x9b/\xe0\xab\x8c\x1c\xc0\xb0-DkM\xdf\xe3\xbf'
p785
tp786
basg548
I00
ssg549
(lp787
g521
(g522
(I0
tp788
g524
tp789
Rp790
(I1
(I3
tp791
g531
I00
S'dR\xdd8\xd6\x8d\x00@\xc1C|\xd2X\x00\x16\xc0\xc0\xab\x9e\x0b\x900\xd2?'
p792
tp793
bag521
(g522
(I0
tp794
g524
tp795
Rp796
(I1
(I3
tp797
g563
I00
S'\x19\xdbXU\x9c\xa8\x04@\xe6\xf1\xeb\xae\xcb\x05\x18\xc0\xce\x9cp\x98\xaf*\xeb?'
p798
tp799
bag521
(g522
(I0
tp800
g524
tp801
Rp802
(I1
(I3
tp803
g563
I00
S'g\x886\x82\xe7\x9e\t@\x81\x00+\xe8\xfe$\x19\xc0m@m\xfd\x93\x06\xf2?'
p804
tp805
bag521
(g522
(I0
tp806
g524
tp807
Rp808
(I1
(I3
tp809
g563
I00
S'\x9a\x9e\xdc\x13\r\n\n@\xf1\xbcp\x07u\xf1\x1a\xc0\xd2JG\xa3\xec%\xd4\xbf'
p810
tp811
bag771
asbsVsquare_packing_box1
p812
(itrajectory_representation.operator
Operator
p813
(dp814
g510
I01
sg511
(dp815
g513
Vsquare_packing_box1
p816
ssg515
g516
sg517
(dp817
g519
(lp818
g521
(g522
(I0
tp819
g524
tp820
Rp821
(I1
(I3
tp822
g531
I00
S'\xb8\x9ct\x99Y\x93\x0e@\xa6\x82\x19\x7fa\xb4\x17\xc0\x0c\x07\x97\xeb\xfc\n\x00@'
p823
tp824
bag521
(g522
(I0
tp825
g524
tp826
Rp827
(I1
(I3
tp828
g531
I00
S'\xef^\xef\x9djg\x0b@\n\x94\xb6\xd3\x8f~\x18\xc0Bx\x0c\xcbf\xe5\xfe?'
p829
tp830
bag521
(g522
(I0
tp831
g524
tp832
Rp833
(I1
(I3
tp834
g531
I00
S'\xc2\xdc\xf4\xda\x03v\x06@\x93\x18_H\xa8\xe9\x15\xc0.\xab\x1bg,\x98\xe0?'
p835
tp836
basg548
I00
ssg549
(lp837
g521
(g522
(I0
tp838
g524
tp839
Rp840
(I1
(I3
tp841
g531
I00
S'dR\xdd8\xd6\x8d\x00@\xc1C|\xd2X\x00\x16\xc0\xc0\xab\x9e\x0b\x900\xd2?'
p842
tp843
bag833
asbsVsquare_packing_box4
p844
(itrajectory_representation.operator
Operator
p845
(dp846
g510
I01
sg511
(dp847
g513
Vsquare_packing_box4
p848
ssg515
g516
sg517
(dp849
g519
(lp850
g521
(g522
(I0
tp851
g524
tp852
Rp853
(I1
(I3
tp854
g531
I00
S'\xba\xdc\xa0]\xb4\xb3\xed?a\xb9\xcf\x1f\xa8Q\x13\xc0y{\x0cpr\x06\xf8\xbf'
p855
tp856
bag521
(g522
(I0
tp857
g524
tp858
Rp859
(I1
(I3
tp860
g531
I00
S"\xce\xbc\x08\xcd\xa0\xd3\xe8?\x96\xe8\x8e\x11\xcd\xc4\x13\xc0\xf7\xfe\xcd'\xcd\x89\xf6\xbf"
p861
tp862
bag521
(g522
(I0
tp863
g524
tp864
Rp865
(I1
(I3
tp866
g531
I00
S'\xda4\xec\x12j\xa2\xf1?\x1aX\x81\xf7\x02\xe8\x19\xc0 \x02n)J!\xf2?'
p867
tp868
basg548
I00
ssg549
(lp869
g521
(g522
(I0
tp870
g524
tp871
Rp872
(I1
(I3
tp873
g531
I00
S'dR\xdd8\xd6\x8d\x00@\xc1C|\xd2X\x00\x16\xc0\xc0\xab\x9e\x0b\x900\xd2?'
p874
tp875
bag521
(g522
(I0
tp876
g524
tp877
Rp878
(I1
(I3
tp879
g563
I00
S'/\xe1\x02^.|\x00@\xb8\xae\xc5\xcfF\x16\x17\xc0\xf8\x01)d\xc5\xf9\xe2?'
p880
tp881
bag521
(g522
(I0
tp882
g524
tp883
Rp884
(I1
(I3
tp885
g563
I00
S'j\xc7\xc0&\x8ag\xf6?h\x9cH4\x7f\xab\x18\xc0\xd8|\x1d\xfc\xcbV\xf2?'
p886
tp887
bag865
asbssS'use_prm'
p888
I01
sS'object_names'
p889
(lp890
S'square_packing_box1'
p891
aS'rectangular_packing_box1'
p892
aS'square_packing_box2'
p893
aS'rectangular_packing_box2'
p894
aS'square_packing_box3'
p895
aS'rectangular_packing_box3'
p896
aS'square_packing_box4'
p897
aS'rectangular_packing_box4'
p898
asg7
NsS'current_holding_collides'
p899
(dp900
Vrectangular_packing_box4
p901
c__builtin__
set
p902
((lp903
tp904
Rp905
sVrectangular_packing_box2
p906
g902
((lp907
I256
aI514
aI449
aI268
aI194
aI219
aI145
aI146
aI538
aI413
aI35
aI36
aI37
aI422
aI220
aI556
aI302
aI303
aI561
aI178
aI179
aI54
aI55
aI443
aI188
aI62
aI63
aI64
aI65
aI66
aI67
aI68
aI69
aI435
aI577
aI205
aI79
aI80
aI210
aI595
aI215
aI89
aI90
aI91
aI92
aI605
aI611
aI550
aI438
aI444
aI114
aI115
aI372
aI376
aI511
atp908
Rp909
sVrectangular_packing_box3
p910
g902
((lp911
I384
aI257
aI133
aI134
aI135
aI136
aI265
aI394
aI580
aI532
aI153
aI154
aI157
aI158
aI159
aI164
aI433
aI564
aI521
aI575
aI452
aI197
aI583
aI328
aI589
aI83
aI346
aI478
aI356
aI229
aI366
aI502
aI121
aI122
atp912
Rp913
sVrectangular_packing_box1
p914
g902
((lp915
I554
aI4
aI5
aI137
aI132
aI517
aI416
aI161
aI34
aI35
aI42
aI43
aI301
aI584
aI178
aI309
aI310
aI55
aI56
aI570
aI187
aI449
aI459
aI70
aI71
aI456
aI201
aI202
aI203
aI162
aI82
aI163
aI84
aI597
aI89
aI92
aI93
aI94
aI607
aI327
aI484
aI233
aI106
aI107
aI108
aI497
aI595
aI379
aI252
aI362
atp916
Rp917
sVsquare_packing_box2
p918
g902
((lp919
I0
aI1
aI393
aI144
aI403
aI541
aI545
aI546
aI555
aI571
aI454
aI342
aI473
aI474
aI367
aI368
aI369
aI370
aI371
aI247
aI248
aI377
aI378
atp920
Rp921
sVsquare_packing_box3
p922
g902
((lp923
I513
aI386
aI387
aI260
aI269
aI270
aI515
aI405
aI280
aI436
aI565
aI440
aI442
aI573
aI193
aI68
aI210
aI339
aI340
aI213
aI220
aI479
aI354
aI613
aI614
aI111
aI112
aI113
aI211
aI245
aI375
aI212
aI381
aI254
aI255
atp924
Rp925
sVsquare_packing_box1
p926
g902
((lp927
I0
aI1
aI546
aI454
aI545
aI393
aI555
aI541
aI144
aI369
aI370
aI371
aI342
aI377
aI378
aI571
aI474
atp928
Rp929
sVsquare_packing_box4
p930
g902
((lp931
I235
aI132
aI517
aI6
aI8
aI301
aI554
aI404
aI416
aI33
aI34
aI607
aI584
aI42
aI43
aI44
aI45
aI456
aI309
aI56
aI186
aI187
aI189
aI459
aI196
aI71
aI72
aI203
aI162
aI595
aI84
aI93
aI94
aI95
aI327
aI484
aI233
aI106
aI107
aI108
aI445
aI497
aI503
aI252
aI234
aI383
atp932
Rp933
ssS'reachable_regions_while_holding'
p934
(lp935
(g507
g15
tp936
a(g574
g15
tp937
a(g618
g15
tp938
a(g662
g15
tp939
a(g718
g15
tp940
a(g762
g15
tp941
a(g812
g15
tp942
a(g844
g15
tp943
a(g507
g11
tp944
a(g762
g11
tp945
a(g844
g11
tp946
asS'object_poses'
p947
(dp948
Vrectangular_packing_box4
p949
g521
(g522
(I0
tp950
g524
tp951
Rp952
(I1
(I1
I3
tp953
g531
I00
S'\x98\x1e]pS`\xd2?\x16\x1b\xb6\xe9Ei\x18\xc0\x82\x97\xe8\xa1t:\xe4?'
p954
tp955
bsVrectangular_packing_box2
p956
g521
(g522
(I0
tp957
g524
tp958
Rp959
(I1
(I1
I3
tp960
g531
I00
S'x#\x8a\xa8\xbfB\x02@]@\xdd\xaa0\xf7\x1a\xc0\xa2\x93\xe4\xf2\xe3\x8f\xe0?'
p961
tp962
bsVrectangular_packing_box3
p963
g521
(g522
(I0
tp964
g524
tp965
Rp966
(I1
(I1
I3
tp967
g531
I00
S'\xbc\xa2$/\t\xb1\xb0?p\xd9\xd7\x88y7\x1e\xc0\xa1\xa8\xa4gcb\x12@'
p968
tp969
bsVrectangular_packing_box1
p970
g521
(g522
(I0
tp971
g524
tp972
Rp973
(I1
(I1
I3
tp974
g531
I00
S'\xf81, \xdaJ\xf5?\x90\x94\xc7_\x9e4\x18\xc0\x88,&\x8ck,\x0b@'
p975
tp976
bsVsquare_packing_box2
p977
g521
(g522
(I0
tp978
g524
tp979
Rp980
(I1
(I1
I3
tp981
g531
I00
S'\xb3\x99\x7f<\xad\xb4\r@\xd8\xe5\x95\xe8\xfc\xf0\x16\xc0Y\x96n\x9e\xe7\t\x19@'
p982
tp983
bsVsquare_packing_box3
p984
g521
(g522
(I0
tp985
g524
tp986
Rp987
(I1
(I1
I3
tp988
g531
I00
S'2\xc7\x84Ad\xa3\n@\xae\xaf\xb2\x18;\x05\x1e\xc0j8\xf9\x85\xb6\xac\x0f@'
p989
tp990
bsVsquare_packing_box1
p991
g521
(g522
(I0
tp992
g524
tp993
Rp994
(I1
(I1
I3
tp995
g531
I00
S'\x15\xcf\x19\xc3\xf23\x0c@\x8b\xb5r\xad\x0f?\x15\xc0\xbf~a\xe9h\n\x13@'
p996
tp997
bsVsquare_packing_box4
p998
g521
(g522
(I0
tp999
g524
tp1000
Rp1001
(I1
(I1
I3
tp1002
g531
I00
S'V\xce\xcef\xfe\xbb\xf0?J@\xfc\xa1\x9e\xc0\x16\xc0\xaeKe\x14U\xf8\x13@'
p1003
tp1004
bssS'place_in_way'
p1005
(itrajectory_representation.predicates.place_in_way
PlaceInWay
p1006
(dp1007
S'mc_path_to_entity'
p1008
(dp1009
(g14
g11
tp1010
(lp1011
g521
(g522
(I0
tp1012
g524
tp1013
Rp1014
(I1
(I3
tp1015
g531
I00
S'\xba\x9ct\x99Y\x93\x0e@\xa6\x82\x19\x7fa\xb4\x17\xc0\x0c\x07\x97\xeb\xfc\n\x00@'
p1016
tp1017
bag521
(g522
(I0
tp1018
g524
tp1019
Rp1020
(I1
(I3
tp1021
g563
I00
S'\xcb\x1a\x84\x1d\\\x9c\x08@\xec\xcbi\xc9#;\x18\xc0\xbf\xf24g\x02T\x05@'
p1022
tp1023
bag521
(g522
(I0
tp1024
g524
tp1025
Rp1026
(I1
(I3
tp1027
g563
I00
S'\xf8d\x877\x12\xfd\x04@h\xdbW\x9a\x83\x8e\x16\xc0\x87\xf16\xb9\x03k\x05@'
p1028
tp1029
bag521
(g522
(I0
tp1030
g524
tp1031
Rp1032
(I1
(I3
tp1033
g563
I00
S'\xc7\xc7\x06s\xd6\xa3\xff?3\x91\xe4\x97\xb5\x07\x16\xc0\x1bW\xbc\xbfY:\x06@'
p1034
tp1035
bag521
(g522
(I0
tp1036
g524
tp1037
Rp1038
(I1
(I3
tp1039
g563
I00
S'\x85\\2\xba\x0b5\xf5?I\r\x06\xd10\xfb\x15\xc0\x9e\x11\xee\xd8\xb9\xd7\xf5?'
p1040
tp1041
bag521
(g522
(I0
tp1042
g524
tp1043
Rp1044
(I1
(I3
tp1045
g563
I00
S'v\xb8^\x85\xa7[\xea?x\xbe\xff2t\x8d\x13\xc0\x88\x85\x8cCyH\xf6?'
p1046
tp1047
bag521
(g522
(I0
tp1048
g524
tp1049
Rp1050
(I1
(I3
tp1051
g563
I00
S'\xc2\xda(e\x83\x1a\xeb?\x8au\x8d3\xa6E\x11\xc0\xb4c\x1b\xed_\xfd\xfa?'
p1052
tp1053
bag521
(g522
(I0
tp1054
g524
tp1055
Rp1056
(I1
(I3
tp1057
g563
I00
S'\xe4u**\x0e5\xe9?\xaa\xfd\r\xed\xc4\xf6\r\xc0\x0fDE0\x1f\x0b\xfe?'
p1058
tp1059
bag521
(g522
(I0
tp1060
g524
tp1061
Rp1062
(I1
(I3
tp1063
g563
I00
S'\x06\x11,\xef\x98O\xe7??\x10\x01s=b\t\xc04\x92\xb79o\x8c\x00@'
p1064
tp1065
bag521
(g522
(I0
tp1066
g524
tp1067
Rp1068
(I1
(I3
tp1069
g563
I00
S'\x92\xaf\xf3P\x96O\xc2?(\xa1:\x8er}\x05\xc0\xd4_\x91\xb3\xffL\x02@'
p1070
tp1071
bas(g10
g11
tp1072
(lp1073
g521
(g522
(I0
tp1074
g524
tp1075
Rp1076
(I1
(I3
tp1077
g531
I00
S'\x90\x07\xbd)b\xbe\xfb?\x0f\x85t\x92\x153\x18\xc0\xaf0\xe9\xb77m\x17@'
p1078
tp1079
bag521
(g522
(I0
tp1080
g524
tp1081
Rp1082
(I1
(I3
tp1083
g563
I00
S'N\xcd\xaa\x1e;\x0f\xee?&\xa8j\x7f\xa2\xe5\x17\xc0\xc1rR\xf6\xd1Y\xe0\xbf'
p1084
tp1085
bag521
(g522
(I0
tp1086
g524
tp1087
Rp1088
(I1
(I3
tp1089
g563
I00
S'\xe4\x9e\xb7\xac\xe0!\xeb?\x8a\x83\x10\xb1\xa2\xad\x15\xc0\x9aS\xfbY\xaf\x8f\xd2\xbf'
p1090
tp1091
bag521
(g522
(I0
tp1092
g524
tp1093
Rp1094
(I1
(I3
tp1095
g563
I00
S"\xb2&6mg)\xe8?\x99\xe0G'\x16\xe0\x13\xc0\xc8oL\xf5\x17p\xe6\xbf"
p1096
tp1097
bag521
(g522
(I0
tp1098
g524
tp1099
Rp1100
(I1
(I3
tp1101
g563
I00
S'`\xc8Aw-\x81\xeb?/\xc3\xe6O\x04\xca\x10\xc0\x8a\xb7K)\x91{\xe4\xbf'
p1102
tp1103
bag521
(g522
(I0
tp1104
g524
tp1105
Rp1106
(I1
(I3
tp1107
g563
I00
S'\xe1\xc6\xc7\xa7\x12X\xe7?\x98\x99\xb0\x9a\xfb\xdb\x0b\xc0R\t\x1b)\xeae\xe0\xbf'
p1108
tp1109
bag521
(g522
(I0
tp1110
g524
tp1111
Rp1112
(I1
(I3
tp1113
g563
I00
S'p\xf1\xbdc^\x84\xf1?"\x88LL\xf9D\x06\xc0~w\r\xe9m\x0f\x19@'
p1114
tp1115
bas(g30
g11
tp1116
(lp1117
g521
(g522
(I0
tp1118
g524
tp1119
Rp1120
(I1
(I3
tp1121
g531
I00
S'\x99\xfd\xaaE\x8f\xc1\xe5?\xbb\xa6\xc5gY\x12\x1f\xc0\\)%M\x96\x93\x08@'
p1122
tp1123
bag521
(g522
(I0
tp1124
g524
tp1125
Rp1126
(I1
(I3
tp1127
g563
I00
S'\xd23W\xd6\xdd\xe3\xe6?\xdc\xcai,~\xa9\x1c\xc0\xe4\x03\x93/\x16_\x04\xc0'
p1128
tp1129
bag521
(g522
(I0
tp1130
g524
tp1131
Rp1132
(I1
(I3
tp1133
g563
I00
S'\xf8\xfc\x1a\xd0\xc9l\xe8?\x8a\x897\x8e~\x98\x1a\xc0\xaf\xf7\xb87\xc6\xa7\x01\xc0'
p1134
tp1135
bag521
(g522
(I0
tp1136
g524
tp1137
Rp1138
(I1
(I3
tp1139
g563
I00
S'\xf8C*\xbe\x14\xcf\xe8?\x81d\xab\xeb\xa8<\x18\xc0\xc8\\\xf4\x8c\xc3\xfa\xfe\xbf'
p1140
tp1141
bag521
(g522
(I0
tp1142
g524
tp1143
Rp1144
(I1
(I3
tp1145
g563
I00
S'\xd0\xcb\x13\x8f\xaa\x9d\xed?\x90\x01<]3\x06\x16\xc0F\xf1\xe7x32\x02\xc0'
p1146
tp1147
bag521
(g522
(I0
tp1148
g524
tp1149
Rp1150
(I1
(I3
tp1151
g563
I00
S'l[\xc4\x16<\xe6\xe9?\xa6\xa0\x90\x84X\x9f\x13\xc0\xc2\xd74Q\x00\xaf\xff\xbf'
p1152
tp1153
bag521
(g522
(I0
tp1154
g524
tp1155
Rp1156
(I1
(I3
tp1157
g563
I00
S"\xaeJ\xbd\x1936\xec?\x04\x13\xd4'\x9f\x88\x10\xc0\x805qo\xb6\xe6\xff\xbf"
p1158
tp1159
bag521
(g522
(I0
tp1160
g524
tp1161
Rp1162
(I1
(I3
tp1163
g563
I00
S'\xf09\xb6\x1c*\x86\xee?\xc4\n/\x96\xcb\xe3\n\xc0\xa0\xc9\xd6F6\x0f\x00\xc0'
p1164
tp1165
bag521
(g522
(I0
tp1166
g524
tp1167
Rp1168
(I1
(I3
tp1169
g563
I00
S'3\xe9\xaf\x05T\x89\xe7?+~\xcb\xd3\x15\xc7\x04\xc0x6(d5\xed\x07@'
p1170
tp1171
bas(g19
g11
tp1172
(lp1173
g521
(g522
(I0
tp1174
g524
tp1175
Rp1176
(I1
(I3
tp1177
g531
I00
S'\x00\xca\xc0\xcf\xd9[\xf0?\x96/#\xddH6\x15\xc0F\xa4\xd4\xc0\xcb\x98\x14@'
p1178
tp1179
bag521
(g522
(I0
tp1180
g524
tp1181
Rp1182
(I1
(I3
tp1183
g563
I00
S'A\x17\xef\x80|\x96\xed?\xac\xb9\xac\x81\xb2M\x12\xc0 -\xe6\\\xe0\x1a\t\xc0'
p1184
tp1185
bag521
(g522
(I0
tp1186
g524
tp1187
Rp1188
(I1
(I3
tp1189
g563
I00
S'N\nd\xc1\xac\x11\xe6?\xa7\xb8"u\xaf\xb8\x0e\xc0\xfeK\xd2\xea\x9eB\x08\xc0'
p1190
tp1191
bag521
(g522
(I0
tp1192
g524
tp1193
Rp1194
(I1
(I3
tp1195
g563
I00
S'\xf09\xb6\x1c*\x86\xee?\xc4\n/\x96\xcb\xe3\n\xc0\xa0\xc9\xd6F6\x0f\x00\xc0'
p1196
tp1197
bag521
(g522
(I0
tp1198
g524
tp1199
Rp1200
(I1
(I3
tp1201
g563
I00
S'\xf4\xfdJ\x1a(#\xec?H"\x9cD\x1aE\x05\xc0.\xa9\x0b\x87\xf8\xe1\x02@'
p1202
tp1203
bas(g22
g11
tp1204
(lp1205
g521
(g522
(I0
tp1206
g524
tp1207
Rp1208
(I1
(I3
tp1209
g531
I00
S'\xd8\xf2\xfc\xf7\x04\xce\x07@\xc6Ffi\xc6\xf0\x16\xc0<\xd1\xa5\x9d %\x17@'
p1210
tp1211
bag521
(g522
(I0
tp1212
g524
tp1213
Rp1214
(I1
(I3
tp1215
g563
I00
S'\x93\xe8\x9a\xb2\xd1\xfa\x03@\x8aHE%\xee\xed\x15\xc0\xf8hW\x99?x\xfa\xbf'
p1216
tp1217
bag521
(g522
(I0
tp1218
g524
tp1219
Rp1220
(I1
(I3
tp1221
g563
I00
S'!\x83\xc0\xf3W\x85\xff?\xed\x8f\x90/y\xfd\x16\xc06jP\xfe\x98\xf5\xf4\xbf'
p1222
tp1223
bag521
(g522
(I0
tp1224
g524
tp1225
Rp1226
(I1
(I3
tp1227
g563
I00
S'2Z\xe1\xe97J\xf6?\\\x1e`@2v\x16\xc0\xc4\x0c\xcc\x14<\xf9\xf6\xbf'
p1228
tp1229
bag521
(g522
(I0
tp1230
g524
tp1231
Rp1232
(I1
(I3
tp1233
g563
I00
S'tx\x8as\xa8b\xed?\x9ej\x15\xfa\xf0{\x15\xc0@\xed\x9a-\x9eD\xf2\xbf'
p1234
tp1235
bag521
(g522
(I0
tp1236
g524
tp1237
Rp1238
(I1
(I3
tp1239
g563
I00
S"\xb2&6mg)\xe8?\x99\xe0G'\x16\xe0\x13\xc0\xc8oL\xf5\x17p\xe6\xbf"
p1240
tp1241
bag521
(g522
(I0
tp1242
g524
tp1243
Rp1244
(I1
(I3
tp1245
g563
I00
S'`\xc8Aw-\x81\xeb?/\xc3\xe6O\x04\xca\x10\xc0\x8a\xb7K)\x91{\xe4\xbf'
p1246
tp1247
bag521
(g522
(I0
tp1248
g524
tp1249
Rp1250
(I1
(I3
tp1251
g563
I00
S'\xe1\xc6\xc7\xa7\x12X\xe7?\x98\x99\xb0\x9a\xfb\xdb\x0b\xc0R\t\x1b)\xeae\xe0\xbf'
p1252
tp1253
bag521
(g522
(I0
tp1254
g524
tp1255
Rp1256
(I1
(I3
tp1257
g563
I00
S'p\xf1\xbdc^\x84\xf1?"\x88LL\xf9D\x06\xc0~w\r\xe9m\x0f\x19@'
p1258
tp1259
bassS'mc_to_entity'
p1260
(dp1261
(g14
g11
tp1262
(lp1263
Vsquare_packing_box2
p1264
aVrectangular_packing_box1
p1265
aVsquare_packing_box4
p1266
as(g10
g11
tp1267
(lp1268
Vrectangular_packing_box1
p1269
aVsquare_packing_box4
p1270
aVrectangular_packing_box4
p1271
as(g30
g11
tp1272
(lp1273
Vrectangular_packing_box1
p1274
aVsquare_packing_box4
p1275
aVrectangular_packing_box4
p1276
as(g19
g11
tp1277
(lp1278
Vsquare_packing_box4
p1279
as(g22
g11
tp1280
(lp1281
Vrectangular_packing_box2
p1282
aVrectangular_packing_box1
p1283
aVsquare_packing_box4
p1284
assS'reachable_entities'
p1285
(lp1286
g574
ag718
ag762
ag812
asS'collides'
p1287
(dp1288
Vrectangular_packing_box4
p1289
g902
((lp1290
I491
aI132
aI517
aI6
aI137
aI138
aI139
aI276
aI152
aI153
aI154
aI157
aI417
aI34
aI547
aI165
aI166
aI424
aI553
aI584
aI521
aI196
aI198
aI456
aI518
aI459
aI338
aI84
aI349
aI350
aI351
aI362
aI107
aI108
aI503
aI249
aI252
aI383
atp1291
Rp1292
sVrectangular_packing_box2
p1293
g902
((lp1294
I256
aI577
aI268
aI194
aI145
aI538
aI413
aI219
aI36
aI37
aI422
aI220
aI561
aI178
aI179
aI54
aI443
aI188
aI63
aI64
aI65
aI66
aI69
aI435
aI205
aI79
aI80
aI595
aI215
aI89
aI90
aI91
aI92
aI444
aI114
aI115
aI376
aI511
atp1295
Rp1296
sVrectangular_packing_box3
p1297
g902
((lp1298
I384
aI257
aI134
aI265
aI394
aI532
aI580
aI158
aI159
aI164
aI433
aI564
aI575
aI452
aI583
aI328
aI589
aI83
aI478
aI356
aI229
aI366
aI502
atp1299
Rp1300
sVrectangular_packing_box1
p1301
g902
((lp1302
I4
aI5
aI137
aI132
aI416
aI161
aI34
aI35
aI554
aI43
aI301
aI584
aI309
aI310
aI55
aI56
aI570
aI187
aI449
aI70
aI327
aI456
aI201
aI202
aI203
aI162
aI595
aI84
aI597
aI93
aI94
aI607
aI484
aI233
aI106
aI107
aI108
aI497
aI252
atp1303
Rp1304
sVsquare_packing_box2
p1305
g902
((lp1306
I0
aI1
aI546
aI545
aI555
aI403
aI367
aI368
aI369
aI370
aI371
aI342
aI377
aI378
aI571
aI541
aI474
atp1307
Rp1308
sVsquare_packing_box3
p1309
g902
((lp1310
I513
aI386
aI260
aI269
aI270
aI405
aI280
aI436
aI565
aI440
aI573
aI193
aI68
aI210
aI339
aI340
aI213
aI479
aI354
aI613
aI614
aI111
aI112
aI113
aI211
aI245
aI375
aI212
aI381
aI254
aI255
atp1311
Rp1312
sVsquare_packing_box1
p1313
g902
((lp1314
I0
aI1
aI546
aI454
aI555
aI369
aI370
aI371
aI342
aI378
aI571
aI541
atp1315
Rp1316
sVsquare_packing_box4
p1317
g902
((lp1318
I235
aI132
aI517
aI8
aI416
aI33
aI34
aI607
aI554
aI43
aI44
aI301
aI584
aI56
aI186
aI187
aI459
aI196
aI71
aI456
aI203
aI162
aI84
aI93
aI94
aI95
aI327
aI484
aI233
aI234
aI107
aI108
aI497
aI252
aI106
atp1319
Rp1320
ssg2
g3
sg505
g506
sS'mc_paths'
p1321
(dp1322
sS'robot'
p1323
NsS'reachable_obj_region_pairs'
p1324
(lp1325
sS'sampled_pick_configs_for_objects'
p1326
(dp1327
sS'mc_calls'
p1328
I0
sS'pick_poses'
p1329
g506
sg7
NsS'evaluations'
p1330
(dp1331
(g19
g10
g11
tp1332
I00
s(g22
g10
g11
tp1333
I01
s(g10
g46
g11
tp1334
I00
s(g14
g30
g11
tp1335
I00
s(g22
g14
g11
tp1336
I00
s(g19
g14
g11
tp1337
I00
s(g19
g33
g11
tp1338
I00
s(g22
g30
g11
tp1339
I00
s(g14
g10
g11
tp1340
I00
s(g10
g19
g11
tp1341
I01
s(g30
g14
g11
tp1342
I00
s(g10
g14
g11
tp1343
I00
s(g30
g33
g11
tp1344
I01
s(g10
g23
g11
tp1345
I01
s(g14
g19
g11
tp1346
I01
s(g30
g46
g11
tp1347
I00
s(g30
g19
g11
tp1348
I01
s(g19
g23
g11
tp1349
I01
s(g22
g19
g11
tp1350
I01
s(g30
g23
g11
tp1351
I01
s(g22
g33
g11
tp1352
I00
s(g14
g22
g11
tp1353
I01
s(g22
g23
g11
tp1354
I01
s(g14
g46
g11
tp1355
I00
s(g22
g46
g11
tp1356
I00
s(g19
g46
g11
tp1357
I00
s(g19
g30
g11
tp1358
I00
s(g30
g10
g11
tp1359
I00
s(g10
g22
g11
tp1360
I00
s(g14
g23
g11
tp1361
I01
s(g14
g33
g11
tp1362
I00
s(g10
g33
g11
tp1363
I01
s(g30
g22
g11
tp1364
I00
s(g10
g30
g11
tp1365
I00
s(g19
g22
g11
tp1366
I00
ssS'paths_to_reachable_entities'
p1367
NsS'use_shortest_path'
p1368
I01
sbsS'cached_pick_paths'
p1369
(dp1370
g507
g550
sg574
g599
sg618
g643
sg662
g699
sg718
g743
sg762
g787
sg812
g837
sg844
g869
ssg1287
(dp1371
(Vsquare_packing_box4
p1372
(cnumpy.core.multiarray
scalar
p1373
(g531
S'\x90\xc0\x1f~\xfe\xbb\xf0?'
p1374
tp1375
Rp1376
g1373
(g531
S'8\xdb\xdc\x98\x9e\xc0\x16\xc0'
p1377
tp1378
Rp1379
g1373
(g531
S'\xda\x8c\xd3\x10U\xf8\x13@'
p1380
tp1381
Rp1382
tp1383
tp1384
g1320
s(Vrectangular_packing_box2
p1385
(g1373
(g531
S'\xce\xe30\x98\xbfB\x02@'
p1386
tp1387
Rp1388
g1373
(g531
S'\xf9hq\xc60\xf7\x1a\xc0'
p1389
tp1390
Rp1391
g1373
(g531
S'V\xbc\x91y\xe4\x8f\xe0?'
p1392
tp1393
Rp1394
tp1395
tp1396
g1296
s(Vrectangular_packing_box3
p1397
(g1373
(g531
S'{\x9f\xaaB\x03\xb1\xb0?'
p1398
tp1399
Rp1400
g1373
(g531
S'\x0f\x0b\xb5\xa6y7\x1e\xc0'
p1401
tp1402
Rp1403
g1373
(g531
S'\xe5\xef\xdeQcb\x12@'
p1404
tp1405
Rp1406
tp1407
tp1408
g1300
s(Vrectangular_packing_box4
p1409
(g1373
(g531
S'}\xec.PR`\xd2?'
p1410
tp1411
Rp1412
g1373
(g531
S'\x8fT\xdf\xf9Ei\x18\xc0'
p1413
tp1414
Rp1415
g1373
(g531
S'\xe8\xf9\xd3Fu:\xe4?'
p1416
tp1417
Rp1418
tp1419
tp1420
g1292
s(Vsquare_packing_box2
p1421
(g1373
(g531
S'6\x90.6\xad\xb4\r@'
p1422
tp1423
Rp1424
g1373
(g531
S'7\xc3\r\xf8\xfc\xf0\x16\xc0'
p1425
tp1426
Rp1427
g1373
(g531
S'\xe9\x9d\n\xb8\xe7\t\x19@'
p1428
tp1429
Rp1430
tp1431
tp1432
g1308
s(Vsquare_packing_box3
p1433
(g1373
(g531
S'\xc7\xbc\x8e8d\xa3\n@'
p1434
tp1435
Rp1436
g1373
(g531
S'\xb8\xca\x13\x08;\x05\x1e\xc0'
p1437
tp1438
Rp1439
g1373
(g531
S'\xde\xc9\xa7\xc7\xb6\xac\x0f@'
p1440
tp1441
Rp1442
tp1443
tp1444
g1312
s(Vsquare_packing_box1
p1445
(g1373
(g531
S'N\xb4\xab\x90\xf23\x0c@'
p1446
tp1447
Rp1448
g1373
(g531
S'Q\xf5+\x9d\x0f?\x15\xc0'
p1449
tp1450
Rp1451
g1373
(g531
S'\xe2\x1f\xb6\xf4h\n\x13@'
p1452
tp1453
Rp1454
tp1455
tp1456
g1316
s(Vrectangular_packing_box1
p1457
(g1373
(g531
S'\xa8\xdf\x85\xad\xd9J\xf5?'
p1458
tp1459
Rp1460
g1373
(g531
S'\x14\x05\xfaD\x9e4\x18\xc0'
p1461
tp1462
Rp1463
g1373
(g531
S'\xb13\x85\xcek,\x0b@'
p1464
tp1465
Rp1466
tp1467
tp1468
g1304
ssS'state_saver'
p1469
(igtamp_utils.utils
CustomStateSaver
p1470
(dp1471
S'robot_base_pose'
p1472
g521
(g522
(I0
tp1473
g524
tp1474
Rp1475
(I1
(I1
I3
tp1476
g531
I00
S'fR\xdd8\xd6\x8d\x00@\xbfC|\xd2X\x00\x16\xc0\xc1\xab\x9e\x0b\x900\xd2?'
p1477
tp1478
bsS'held_object'
p1479
NsS'robot_name'
p1480
S'pr2'
p1481
sS'env_id'
p1482
I1
sg947
(dp1483
Vright_wall_1
p1484
g521
(g522
(I0
tp1485
g524
tp1486
Rp1487
(I1
(I4
tp1488
g531
I00
S'H\xe1z\x14\xaeG\x12@&\\\x8f\xc2\xf5(\xd4\xbf\xcc\x7fH\xbf}\x1d\xed?\x00\x00\x00\x00\x00\x00\x00\x00'
p1489
tp1490
bsVc_obst5
p1491
g521
(g522
(I0
tp1492
g524
tp1493
Rp1494
(I1
(I4
tp1495
g531
I00
S"\x9a\xf1q\xbb~\xea\x11@\n8\xbb\xd6O\xb6\xd4?e\xaa`TR'\xed?\xd2\x93\xb1\x82\xa4\x94\x0b@"
p1496
tp1497
bsVentrance_right
p1498
g521
(g522
(I0
tp1499
g524
tp1500
Rp1501
(I1
(I4
tp1502
g531
I00
S'ffffff\n@H\xe1z\x14\xaeG\t\xc0\x9c\xc4 \xb0rh\xc1?\x00\x00\x00\x00\x00\x00\x00\x00'
p1503
tp1504
bsVcomputer_table
p1505
g521
(g522
(I0
tp1506
g524
tp1507
Rp1508
(I1
(I4
tp1509
g531
I00
S'\x00\x00\x00\x00\x00\x00\x13@\x00\x00\x00\x00\x00\x00\xf8\xbf\x96C\x8bl\xe7\xfb\xe7?\xd2!3\x7f|\xd9\x12@'
p1510
tp1511
bsVchair_6b56
p1512
g521
(g522
(I0
tp1513
g524
tp1514
Rp1515
(I1
(I4
tp1516
g531
I00
S'y=\n\xd7\xa3p\xf5?M\xe1z\x14\xaeG\xd1?\x00\x00\x00\x00\x00\x00\x00\x00\xd6$\xfaNBm\n@'
p1517
tp1518
bsVsquare_packing_box3
p1519
g521
(g522
(I0
tp1520
g524
tp1521
Rp1522
(I1
(I4
tp1523
g531
I00
S'8\xc7\x84Ad\xa3\n@\xb4\xaf\xb2\x18;\x05\x1e\xc0L7\x89A`\xe5\xd8?j8\xf9\x85\xb6\xac\x0f@'
p1524
tp1525
bsVsquare_packing_box2
p1526
g521
(g522
(I0
tp1527
g524
tp1528
Rp1529
(I1
(I4
tp1530
g531
I00
S'\xb3\x99\x7f<\xad\xb4\r@\xd8\xe5\x95\xe8\xfc\xf0\x16\xc0L7\x89A`\xe5\xd8?Y\x96n\x9e\xe7\t\x19@'
p1531
tp1532
bsVtable
p1533
g521
(g522
(I0
tp1534
g524
tp1535
Rp1536
(I1
(I4
tp1537
g531
I00
S'\x7f\xf6#EdX\xed?\xac\xffs\x98//\xc0\xbf\x00\x00\x00\x00\x00\x00\x00\x00\x00\x00\x00\x00\x00\x00\x00\x00'
p1538
tp1539
bsVsquare_packing_box1
p1540
g521
(g522
(I0
tp1541
g524
tp1542
Rp1543
(I1
(I4
tp1544
g531
I00
S'\x12\xcf\x19\xc3\xf23\x0c@\x89\xb5r\xad\x0f?\x15\xc0L7\x89A`\xe5\xd8?\xbf~a\xe9h\n\x13@'
p1545
tp1546
bsVback_wall_2
p1547
g521
(g522
(I0
tp1548
g524
tp1549
Rp1550
(I1
(I4
tp1551
g531
I00
S'\xaeG\xe1z\x14.\x13@\x80\x14\xaeG\xe1z\xc4?xX\xa85\xcd\xbb\xf2?\x00\x00\x00\x00\x00\x00\x00\x00'
p1552
tp1553
bsVchair_083c
p1554
g521
(g522
(I0
tp1555
g524
tp1556
Rp1557
(I1
(I4
tp1558
g531
I00
S'\xa4p=\n\xd7\xa3\xe0?333333\xe3\xbf\x00\x00\x00\x00\x00\x00\x00\x00\x00\x00\x00\x00\x00\x00\x00\x00'
p1559
tp1560
bsVback_wall_1
p1561
g521
(g522
(I0
tp1562
g524
tp1563
Rp1564
(I1
(I4
tp1565
g531
I00
S'\xaeG\xe1z\x14.\x13@\x80\x14\xaeG\xe1z\xc4?\xcc\x7fH\xbf}\x1d\xed?\x00\x00\x00\x00\x00\x00\x00\x00'
p1566
tp1567
bsVbottom_wall
p1568
g521
(g522
(I0
tp1569
g524
tp1570
Rp1571
(I1
(I4
tp1572
g531
I00
S'\x00\x00\x00\x00\x00\x00\xfc?\x00\x00\x00\x00\x00\x00\x00\x00\x00\x00\x00\x00\x00\x00\x00\x00\x00\x00\x00\x00\x00\x00\x00\x00'
p1573
tp1574
bsVcup_905a
p1575
g521
(g522
(I0
tp1576
g524
tp1577
Rp1578
(I1
(I4
tp1579
g531
I00
S'\x00\x00\x00\x00\x00\x00\xf0?\x83\xc0\xca\xa1E\xb6\xdb?\x1b/\xdd$\x06\x81\xed?\x00\x00\x00\x00\x00\x00\x00\x00'
p1580
tp1581
bsVplate_496f
p1582
g521
(g522
(I0
tp1583
g524
tp1584
Rp1585
(I1
(I4
tp1586
g531
I00
S"q=\n\xd7\xa3p\xe5?\x9dhW!\xe5'\xdd\xbf\x1b/\xdd$\x06\x81\xed?\x00\x00\x00\x00\x00\x00\x00\x00"
p1587
tp1588
bsVtoaster
p1589
g521
(g522
(I0
tp1590
g524
tp1591
Rp1592
(I1
(I4
tp1593
g531
I00
S')\\\x8f\xc2\xf5(\xf4\xbf\xe0z\x14\xaeG\xe1\xf2\xbf\xb8\x1e\x85\xebQ\xb8\xee?\x89/`\x9b\xf8\x8a\xe4?'
p1594
tp1595
bsVc_obst1
p1596
g521
(g522
(I0
tp1597
g524
tp1598
Rp1599
(I1
(I4
tp1600
g531
I00
S"\xff$\x95\xf6\x8a4\x12@\x1b\xc3S\xe6\xc1\xef\xd7?e\xaa`TR'\xed?\xe0\xbaL\x80\x10\xb3\t@"
p1601
tp1602
bsVrectangular_packing_box4
p1603
g521
(g522
(I0
tp1604
g524
tp1605
Rp1606
(I1
(I4
tp1607
g531
I00
S'\x98\x1e]pS`\xd2?\x16\x1b\xb6\xe9Ei\x18\xc0L7\x89A`\xe5\xd8?\x82\x97\xe8\xa1t:\xe4?'
p1608
tp1609
bsVmicrowave
p1610
g521
(g522
(I0
tp1611
g524
tp1612
Rp1613
(I1
(I4
tp1614
g531
I00
S'\x9a\x99\x99\x99\x99\x99\xf1\xbf\x00\x00\x00\x00\x00\x00\x00@7\x89A`\xe5\xd0\xee?\x00\x00\x00\x00\x00\x00\x00\x00'
p1615
tp1616
bsVc_obst7
p1617
g521
(g522
(I0
tp1618
g524
tp1619
Rp1620
(I1
(I4
tp1621
g531
I00
S"\xfe\x81=\xfa]F\x12@Rf\x922\x8f\r\xdc?e\xaa`TR'\xed?\xa1F+\x03Yi}?"
p1622
tp1623
bsVc_obst6
p1624
g521
(g522
(I0
tp1625
g524
tp1626
Rp1627
(I1
(I4
tp1628
g531
I00
S"\x00\x9b\x11\x01\x95\x83\x12@\xe8\xa7>?}-\xd2?e\xaa`TR'\xed?\xed\xedJ\xfa\x0b\x0c\x04@"
p1629
tp1630
bsVcup_b6af
p1631
g521
(g522
(I0
tp1632
g524
tp1633
Rp1634
(I1
(I4
tp1635
g531
I00
S'R\xb8\x1e\x85\xebQ\xe8?\x9a\x99\x99\x99\x99\x99\xe1?\x1b/\xdd$\x06\x81\xed?\x00\x00\x00\x00\x00\x00\x00\x00'
p1636
tp1637
bsVc_obst4
p1638
g521
(g522
(I0
tp1639
g524
tp1640
Rp1641
(I1
(I4
tp1642
g531
I00
S"n\x08(p\x9bi\x12@\xc0\x8f\x90\x84\x98\xd9\xc1?e\xaa`TR'\xed?\xae\x8f\xee\xf0\x1b\x97\x16@"
p1643
tp1644
bsVrectangular_packing_box2
p1645
g521
(g522
(I0
tp1646
g524
tp1647
Rp1648
(I1
(I4
tp1649
g531
I00
S'x#\x8a\xa8\xbfB\x02@]@\xdd\xaa0\xf7\x1a\xc0L7\x89A`\xe5\xd8?\xa2\x93\xe4\xf2\xe3\x8f\xe0?'
p1650
tp1651
bsVplate_fa76
p1652
g521
(g522
(I0
tp1653
g524
tp1654
Rp1655
(I1
(I4
tp1656
g531
I00
S'=\n\xd7\xa3p=\xf2?\x00\x00\x00\x00\x00\x00\x00\x00\x1b/\xdd$\x06\x81\xed?\x00\x00\x00\x00\x00\x00\x00\x00'
p1657
tp1658
bsVfloorwalls
p1659
g521
(g522
(I0
tp1660
g524
tp1661
Rp1662
(I1
(I4
tp1663
g531
I00
S'\xc7\xcc\xcc\xcc\xcc\xcc\xfc?\x00\x00\x00\x00\x00\x00\x18\xc0H\xe1z\x14\xaeG\xc1?\x16-DT\xfb!\xf9?'
p1664
tp1665
bsVpin_c671
p1666
g521
(g522
(I0
tp1667
g524
tp1668
Rp1669
(I1
(I4
tp1670
g531
I00
S'\xc3\xf5(\\\x8f\xc2\xf1\xbf}?5^\xbaI\x02@\xb8\x1e\x85\xebQ\xb8\xfa?\x00\x00\x00\x00\x00\x00\x00\x00'
p1671
tp1672
bsVc_obst3
p1673
g521
(g522
(I0
tp1674
g524
tp1675
Rp1676
(I1
(I4
tp1677
g531
I00
S"^\xdd\\<%\xa1\x12@\xac\x8b8\x90\xc6\xe6\xd8?e\xaa`TR'\xed?\x1c\x9e\xaarJ\xdd\x16@"
p1678
tp1679
bsVchair_2e39
p1680
g521
(g522
(I0
tp1681
g524
tp1682
Rp1683
(I1
(I4
tp1684
g531
I00
S'hfffff\xee?`fffff\xf2\xbf\x00\x00\x00\x00\x00\x00\x00\x00\x07M\xe8QQF\xf3?'
p1685
tp1686
bsVentrance_left
p1687
g521
(g522
(I0
tp1688
g524
tp1689
Rp1690
(I1
(I4
tp1691
g531
I00
S'\x98\x99\x99\x99\x99\x99\xe9\xbfH\xe1z\x14\xaeG\t\xc0\x9c\xc4 \xb0rh\xc1?\x00\x00\x00\x00\x00\x00\x00\x00'
p1692
tp1693
bsVtop_wall_1
p1694
g521
(g522
(I0
tp1695
g524
tp1696
Rp1697
(I1
(I4
tp1698
g531
I00
S'H\xe1z\x14\xaeG\x12@\x80\x14\xaeG\xe1z\xc4?xX\xa85\xcd\xbb\xf2?\x00\x00\x00\x00\x00\x00\x00\x00'
p1699
tp1700
bsVrectangular_packing_box3
p1701
g521
(g522
(I0
tp1702
g524
tp1703
Rp1704
(I1
(I4
tp1705
g531
I00
S',\xa3$/\t\xb1\xb0?p\xd9\xd7\x88y7\x1e\xc0L7\x89A`\xe5\xd8?\xa1\xa8\xa4gcb\x12@'
p1706
tp1707
bsVshaker
p1708
g521
(g522
(I0
tp1709
g524
tp1710
Rp1711
(I1
(I4
tp1712
g531
I00
S'\n\xd7\xa3p=\n\x01@\x14\xaeG\xe1z\x14\x02@\\\x8f\xc2\xf5(\\\xef?\x00\x00\x00\x00\x00\x00\x00\x00'
p1713
tp1714
bsVc_obst9
p1715
g521
(g522
(I0
tp1716
g524
tp1717
Rp1718
(I1
(I4
tp1719
g531
I00
S"\x91v\x82wVC\x12@0n\xad8\xc7F\xc2\xbfe\xaa`TR'\xed?\xd9R5=\xef\x80\x10@"
p1720
tp1721
bsVplate_835a
p1722
g521
(g522
(I0
tp1723
g524
tp1724
Rp1725
(I1
(I4
tp1726
g531
I00
S'\xf6(\\\x8f\xc2\xf5\xf0?\\\x8f\xc2\xf5(\\\xe7\xbf\x1b/\xdd$\x06\x81\xed?\x00\x00\x00\x00\x00\x00\x00\x00'
p1727
tp1728
bsVcup_58a2
p1729
g521
(g522
(I0
tp1730
g524
tp1731
Rp1732
(I1
(I4
tp1733
g531
I00
S'\x85\xebQ\xb8\x1e\x85\xe3?\xcd\xcc\xcc\xcc\xcc\xcc\xdc?\x1b/\xdd$\x06\x81\xed?\x00\x00\x00\x00\x00\x00\x00\x00'
p1734
tp1735
bsVleft_wall_1
p1736
g521
(g522
(I0
tp1737
g524
tp1738
Rp1739
(I1
(I4
tp1740
g531
I00
S'H\xe1z\x14\xaeG\x12@S\xb8\x1e\x85\xebQ\xe4?\xcc\x7fH\xbf}\x1d\xed?\x00\x00\x00\x00\x00\x00\x00\x00'
p1741
tp1742
bsVc_obst2
p1743
g521
(g522
(I0
tp1744
g524
tp1745
Rp1746
(I1
(I4
tp1747
g531
I00
S"\x01\xf9\xf8\xe06C\x12@\x02d\x9dS@k\xcc?e\xaa`TR'\xed?\x8e\xd1'\xc0\x08~\xfe?"
p1748
tp1749
bsVsquare_packing_box4
p1750
g521
(g522
(I0
tp1751
g524
tp1752
Rp1753
(I1
(I4
tp1754
g531
I00
S'X\xce\xcef\xfe\xbb\xf0?L@\xfc\xa1\x9e\xc0\x16\xc0L7\x89A`\xe5\xd8?\xaeKe\x14U\xf8\x13@'
p1755
tp1756
bsVrectangular_packing_box1
p1757
g521
(g522
(I0
tp1758
g524
tp1759
Rp1760
(I1
(I4
tp1761
g531
I00
S'\xf81, \xdaJ\xf5?\x90\x94\xc7_\x9e4\x18\xc0L7\x89A`\xe5\xd8?\x88,&\x8ck,\x0b@'
p1762
tp1763
bsVpin_371e
p1764
g521
(g522
(I0
tp1765
g524
tp1766
Rp1767
(I1
(I4
tp1768
g531
I00
S'333333\xf3\xbfffffff\xf6?\xb8\x1e\x85\xebQ\xb8\xee?\x00\x00\x00\x00\x00\x00\x00\x00'
p1769
tp1770
bsVfridge
p1771
g521
(g522
(I0
tp1772
g524
tp1773
Rp1774
(I1
(I4
tp1775
g531
I00
S'\xd7\xa3p=\n\xd7\xeb\xbf\x00\x00\x00\x00\x00\x00\x00\xc0\xcd\xcc\xcc\xcc\xcc\xcc\xf8?\x00\x00\x00\x00\x00\x00\x00\x00'
p1776
tp1777
bsVcup_d441
p1778
g521
(g522
(I0
tp1779
g524
tp1780
Rp1781
(I1
(I4
tp1782
g531
I00
S'\n\xd7\xa3p=\n\xef?\x8f\xc2\xf5(\\\x8f\xe2?\x1b/\xdd$\x06\x81\xed?\x00\x00\x00\x00\x00\x00\x00\x00'
p1783
tp1784
bsVshelf2
p1785
g521
(g522
(I0
tp1786
g524
tp1787
Rp1788
(I1
(I4
tp1789
g531
I00
S'\x00\x00\x00\x00\x00\x00\x0e@\xaeG\xe1z\x14\xae\x07@\x9c\xc4 \xb0rh\xc1?\xd2!3\x7f|\xd9\x12@'
p1790
tp1791
bsVtop_wall_2
p1792
g521
(g522
(I0
tp1793
g524
tp1794
Rp1795
(I1
(I4
tp1796
g531
I00
S'H\xe1z\x14\xaeG\x12@\x80\x14\xaeG\xe1z\xc4?\x16HP\xfc\x18\xf3\xfd?\x00\x00\x00\x00\x00\x00\x00\x00'
p1797
tp1798
bsVc_obst0
p1799
g521
(g522
(I0
tp1800
g524
tp1801
Rp1802
(I1
(I4
tp1803
g531
I00
S"\xb8\x088t\x9c7\x12@\xbeE\xf1\x14\xed\x8f\x96\xbfe\xaa`TR'\xed?\xadtI0\xaa\x0c\x13@"
p1804
tp1805
bsVshelf1
p1806
g521
(g522
(I0
tp1807
g524
tp1808
Rp1809
(I1
(I4
tp1810
g531
I00
S'\x00\x00\x00\x00\x00\x00\x13@\xaeG\xe1z\x14\xae\x07@\x9c\xc4 \xb0rh\xc1?\xd2!3\x7f|\xd9\x12@'
p1811
tp1812
bsVsink
p1813
g521
(g522
(I0
tp1814
g524
tp1815
Rp1816
(I1
(I4
tp1817
g531
I00
S'ffffff\xd6?333333\x01@\x9a\x99\x99\x99\x99\x99\xb9\xbf\x00\x00\x00\x00\x00\x00\x00\x00'
p1818
tp1819
bsVpr2
p1820
g521
(g522
(I0
tp1821
g524
tp1822
Rp1823
(I1
(I4
tp1824
g531
I00
S'fR\xdd8\xd6\x8d\x00@\xbfC|\xd2X\x00\x16\xc0\x9a_\x94\xa0\xbf\xd0\xc1?\xc1\xab\x9e\x0b\x900\xd2?'
p1825
tp1826
bsVchair_12d0
p1827
g521
(g522
(I0
tp1828
g524
tp1829
Rp1830
(I1
(I4
tp1831
g531
I00
S'^\xd2\x18\xad\xa3\xaa\xdb?Pf\x83L2r\xc6?\x00\x00\x00\x00\x00\x00\x00\x00\xf8\x81\r\x14M\xa6\x17@'
p1832
tp1833
bsVright_wall_2
p1834
g521
(g522
(I0
tp1835
g524
tp1836
Rp1837
(I1
(I4
tp1838
g531
I00
S'H\xe1z\x14\xaeG\x12@&\\\x8f\xc2\xf5(\xd4\xbfxX\xa85\xcd\xbb\xf2?\x00\x00\x00\x00\x00\x00\x00\x00'
p1839
tp1840
bsVknife_block
p1841
g521
(g522
(I0
tp1842
g524
tp1843
Rp1844
(I1
(I4
tp1845
g531
I00
S'R\xb8\x1e\x85\xebQ\xe0\xbfffffff\x02@`\xe5\xd0"\xdb\xf9\xee?\x00\x00\x00\x00\x00\x00\x00\x00'
p1846
tp1847
bsVleft_wall_2
p1848
g521
(g522
(I0
tp1849
g524
tp1850
Rp1851
(I1
(I4
tp1852
g531
I00
S'H\xe1z\x14\xaeG\x12@S\xb8\x1e\x85\xebQ\xe4?xX\xa85\xcd\xbb\xf2?\x00\x00\x00\x00\x00\x00\x00\x00'
p1853
tp1854
bsVleft_wall
p1855
g521
(g522
(I0
tp1856
g524
tp1857
Rp1858
(I1
(I4
tp1859
g531
I00
S'\x9a\x99\x99\x99\x99\x99\x07@H\xe1z\x14\xaeG\xff?\x9c\xc4 \xb0rh\xc1?\x00\x00\x00\x00\x00\x00\x00\x00'
p1860
tp1861
bsVkitchen
p1862
g521
(g522
(I0
tp1863
g524
tp1864
Rp1865
(I1
(I4
tp1866
g531
I00
S'\x00\x00\x00\x00\x00\x00\x00\x00\x00\x00\x00\x00\x00\x00\x00\x00\x00\x00\x00\x00\x00\x00\x00\x00\x00\x00\x00\x00\x00\x00\x00\x00'
p1867
tp1868
bsVtable2
p1869
g521
(g522
(I0
tp1870
g524
tp1871
Rp1872
(I1
(I4
tp1873
g531
I00
S'\x00\x00\x00\x00\x00\x00\x13@\x80\x14\xaeG\xe1z\xc4?S\x96!\x8euq\xec?\xd2!3\x7f|\xd9\x12@'
p1874
tp1875
bsVc_obst8
p1876
g521
(g522
(I0
tp1877
g524
tp1878
Rp1879
(I1
(I4
tp1880
g531
I00
S"\xa2\x86\xba\xbe\x0e\xfe\x11@\x1c\x88\xaeAcX\xc9?e\xaa`TR'\xed?\xe7\xc6R\xf7\xd5q\x17@"
p1881
tp1882
bsVplate_b4e7
p1883
g521
(g522
(I0
tp1884
g524
tp1885
Rp1886
(I1
(I4
tp1887
g531
I00
S'\x14\xaeG\xe1z\x14\xf2\xbf\x14\xaeG\xe1z\x14\x00@=\n\xd7\xa3p=\xf2?\x00\x00\x00\x00\x00\x00\x00\x00'
p1888
tp1889
bsVcooker
p1890
g521
(g522
(I0
tp1891
g524
tp1892
Rp1893
(I1
(I4
tp1894
g531
I00
S'\xaeG\xe1z\x14\xae\xff?\x85\xebQ\xb8\x1e\x85\xfb?\x00\x00\x00\x00\x00\x00\xe8?\x00\x00\x00\x00\x00\x00\x00\x00'
p1895
tp1896
bsVpin_a091
p1897
g521
(g522
(I0
tp1898
g524
tp1899
Rp1900
(I1
(I4
tp1901
g531
I00
S'\xdb\xf9~j\xbct\xf7\xbf)\\\x8f\xc2\xf5(\x02@\xb8\x1e\x85\xebQ\xb8\xfa?\x00\x00\x00\x00\x00\x00\x00\x00'
p1902
tp1903
bsVside_wall_2
p1904
g521
(g522
(I0
tp1905
g524
tp1906
Rp1907
(I1
(I4
tp1908
g531
I00
S'\xf6\xff\xff\xff\xff\xff\x14@\x00\x00\x00\x00\x00\x00\x00\x00\x9c\xc4 \xb0rh\xc1?\x18-DT\xfb!\xf9?'
p1909
tp1910
bsVside_wall_3
p1911
g521
(g522
(I0
tp1912
g524
tp1913
Rp1914
(I1
(I4
tp1915
g531
I00
S'\x00\x00\x00\x00\x00\x00\xfc?H\xe1z\x14\xaeG\t@\x9c\xc4 \xb0rh\xc1?\x00\x00\x00\x00\x00\x00\x00\x00'
p1916
tp1917
bsVmixer
p1918
g521
(g522
(I0
tp1919
g524
tp1920
Rp1921
(I1
(I4
tp1922
g531
I00
S'\n\xd7\xa3p=\n\xfb?ffffff\x02@d;\xdfO\x8d\x97\xee?\x00\x00\x00\x00\x00\x00\x00\x00'
p1923
tp1924
bsVside_wall_1
p1925
g521
(g522
(I0
tp1926
g524
tp1927
Rp1928
(I1
(I4
tp1929
g531
I00
S'\xec\xff\xff\xff\xff\xff\xfb\xbf\x00\x00\x00\x00\x00\x00\x00\x00\x9c\xc4 \xb0rh\xc1?\x18-DT\xfb!\xf9?'
p1930
tp1931
bsVbottom_wall_1
p1932
g521
(g522
(I0
tp1933
g524
tp1934
Rp1935
(I1
(I4
tp1936
g531
I00
S'H\xe1z\x14\xaeG\x12@\x80\x14\xaeG\xe1z\xc4?\xcc\x7fH\xbf}\x1d\xed?\x00\x00\x00\x00\x00\x00\x00\x00'
p1937
tp1938
bsVcan
p1939
g521
(g522
(I0
tp1940
g524
tp1941
Rp1942
(I1
(I4
tp1943
g531
I00
S'\x00\x00\x00\x00\x00\x00\xf4\xbfH\xe1z\x14\xaeG\xe1\xbf\n\xd7\xa3p=\n\xef?\x00\x00\x00\x00\x00\x00\x00\x00'
p1944
tp1945
bsVright_wall
p1946
g521
(g522
(I0
tp1947
g524
tp1948
Rp1949
(I1
(I4
tp1950
g531
I00
S'\x9a\x99\x99\x99\x99\x99\x07@H\xe1z\x14\xaeG\xff\xbf\x9c\xc4 \xb0rh\xc1?\x00\x00\x00\x00\x00\x00\x00\x00'
p1951
tp1952
bsVcoffe_machine
p1953
g521
(g522
(I0
tp1954
g524
tp1955
Rp1956
(I1
(I4
tp1957
g531
I00
S'\\\x8f\xc2\xf5(\\\xf5\xbf\xb8\x1e\x85\xebQ\xb8\xee?\n\xd7\xa3p=\n\xef?\x00\x00\x00\x00\x00\x00\x00\x00'
p1958
tp1959
bsVcomputer_chair
p1960
g521
(g522
(I0
tp1961
g524
tp1962
Rp1963
(I1
(I4
tp1964
g531
I00
S'\xcd\xcc\xcc\xcc\xcc\xcc\x10@\x00\x00\x00\x00\x00\x00\xf8\xbf\xa00\xb6\x10\xe4\xa9\x95\xbf\x00\x00\x00\x00\x00\x00\x00\x00'
p1965
tp1966
bssS'robot_dof_values'
p1967
g521
(g522
(I0
tp1968
g524
tp1969
Rp1970
(I1
(I39
tp1971
g531
I00
S'\x00\x00\x00\x00\x00\x00\x00\x00\x00\x00\x00\x00\x00\x00\x00\x00\x00\x00\x00\x00\x00\x00\x00\x00\x00\x00\x00\x00\x00\x00\x00\x00\x00\x00\x00\x00\x00\x00\x00\x00\x00\x00\x00\x00\x00\x00\x00\x00\x00\x00\x00\x00\x00\x00\x00\x00\x00\x00\x00\x00\x00\x00\x00\x00\x00\x00\x00\x00\x00\x00\x00\x00\x00\x00\x00\x00\x00\x00\x00\x00\x00\x00\x00\x00\x00\x00\x00\x00\x00\x00\x00\x00\x00\x00\x00\x00@d;\xdfO\x8d\x87?\x00\x00\x00\x00\x00\x00\x00\x00\x00\x00\x00\x00\x00\x00\x00\x00\x00\x00\x00\x00\x00\x00\x00\x00\xec\xed\t\xf1\xcc\xa4\xf4?\x00\x00\x00\x00\x00\x00\xc0\xbcN"\xd0^p\xf8\x00\xc0\x00\x00\x00\x00\x00\x00\x00\x00\x9d\x03\r.\x04V\xe6\xbf\x00\x00\x00\x00\x00\x00\x00\x00\x00\x00\x00\x00\x00\x00\x00\x00\x00\x00\x00\x00\x00\x00\xb6\xbc\x00\x00\x00\x00\x00\x00\x00\x00\x00\x00\x00\x00\x00\x00\xd0\xbc\x00\x00\x00\x00\x00\x00\x00\x00\x00\x00\x00\x00\x00\x00\x00\x00\xec\xed\t\xf1\xcc\xa4\xf4?\x00\x00\x00\x00\x00\x00\xc0\xbcN"\xd0^p\xf8\x00\xc0\x00\x00\x00\x00\x00\x00\x00\x00\xa3\x03\r.\x04V\xe6\xbf\x00\x00\x00\x00\x00\x00\x00\x00\xce9\xe3\xc17\x89\xe1?\x00\x00\x00\x00\x00\x00\xb6\xbc\x00\x00\x00\x00\x00\x00\x00\x00\x00\x00\x00\x00\x00\x00\xe0<\x00\x00\x00\x00\x00\x00\x00\x00'
p1972
tp1973
bsS'is_holding'
p1974
I00
sbsS'holding_collides'
p1975
(dp1976
(Vsquare_packing_box4
p1977
(g1373
(g531
S'\x90\xc0\x1f~\xfe\xbb\xf0?'
p1978
tp1979
Rp1980
g1373
(g531
S'8\xdb\xdc\x98\x9e\xc0\x16\xc0'
p1981
tp1982
Rp1983
g1373
(g531
S'\xda\x8c\xd3\x10U\xf8\x13@'
p1984
tp1985
Rp1986
tp1987
tp1988
g933
s(Vrectangular_packing_box2
p1989
(g1373
(g531
S'\xce\xe30\x98\xbfB\x02@'
p1990
tp1991
Rp1992
g1373
(g531
S'\xf9hq\xc60\xf7\x1a\xc0'
p1993
tp1994
Rp1995
g1373
(g531
S'V\xbc\x91y\xe4\x8f\xe0?'
p1996
tp1997
Rp1998
tp1999
tp2000
g909
s(Vrectangular_packing_box3
p2001
(g1373
(g531
S'{\x9f\xaaB\x03\xb1\xb0?'
p2002
tp2003
Rp2004
g1373
(g531
S'\x0f\x0b\xb5\xa6y7\x1e\xc0'
p2005
tp2006
Rp2007
g1373
(g531
S'\xe5\xef\xdeQcb\x12@'
p2008
tp2009
Rp2010
tp2011
tp2012
g913
s(Vrectangular_packing_box4
p2013
(g1373
(g531
S'}\xec.PR`\xd2?'
p2014
tp2015
Rp2016
g1373
(g531
S'\x8fT\xdf\xf9Ei\x18\xc0'
p2017
tp2018
Rp2019
g1373
(g531
S'\xe8\xf9\xd3Fu:\xe4?'
p2020
tp2021
Rp2022
tp2023
tp2024
g905
s(Vsquare_packing_box2
p2025
(g1373
(g531
S'6\x90.6\xad\xb4\r@'
p2026
tp2027
Rp2028
g1373
(g531
S'7\xc3\r\xf8\xfc\xf0\x16\xc0'
p2029
tp2030
Rp2031
g1373
(g531
S'\xe9\x9d\n\xb8\xe7\t\x19@'
p2032
tp2033
Rp2034
tp2035
tp2036
g921
s(Vsquare_packing_box3
p2037
(g1373
(g531
S'\xc7\xbc\x8e8d\xa3\n@'
p2038
tp2039
Rp2040
g1373
(g531
S'\xb8\xca\x13\x08;\x05\x1e\xc0'
p2041
tp2042
Rp2043
g1373
(g531
S'\xde\xc9\xa7\xc7\xb6\xac\x0f@'
p2044
tp2045
Rp2046
tp2047
tp2048
g925
s(Vsquare_packing_box1
p2049
(g1373
(g531
S'N\xb4\xab\x90\xf23\x0c@'
p2050
tp2051
Rp2052
g1373
(g531
S'Q\xf5+\x9d\x0f?\x15\xc0'
p2053
tp2054
Rp2055
g1373
(g531
S'\xe2\x1f\xb6\xf4h\n\x13@'
p2056
tp2057
Rp2058
tp2059
tp2060
g929
s(Vrectangular_packing_box1
p2061
(g1373
(g531
S'\xa8\xdf\x85\xad\xd9J\xf5?'
p2062
tp2063
Rp2064
g1373
(g531
S'\x14\x05\xfaD\x9e4\x18\xc0'
p2065
tp2066
Rp2067
g1373
(g531
S'\xb13\x85\xcek,\x0b@'
p2068
tp2069
Rp2070
tp2071
tp2072
g917
ssS'parent_ternary_predicates'
p2073
(dp2074
sS'cached_place_paths'
p2075
(dp2076
(g662
g15
tp2077
(lp2078
g521
(g522
(I0
tp2079
g524
tp2080
Rp2081
(I1
(I3
tp2082
g531
I00
S'\xfb\xc9\xc0\xcf\xd9[\xf0?\x96/#\xddH6\x15\xc0F\xa4\xd4\xc0\xcb\x98\x14@'
p2083
tp2084
bas(g844
g11
tp2085
(lp2086
g521
(g522
(I0
tp2087
g524
tp2088
Rp2089
(I1
(I3
tp2090
g531
I00
S'\xc0\xdc\xa0]\xb4\xb3\xed?d\xb9\xcf\x1f\xa8Q\x13\xc0:\x0eA\xb8^ \x13@'
p2091
tp2092
bag521
(g522
(I0
tp2093
g524
tp2094
Rp2095
(I1
(I3
tp2096
g563
I00
S"\xaeJ\xbd\x1936\xec?\x04\x13\xd4'\x9f\x88\x10\xc0\x805qo\xb6\xe6\xff\xbf"
p2097
tp2098
bag521
(g522
(I0
tp2099
g524
tp2100
Rp2101
(I1
(I3
tp2102
g563
I00
S'\xf09\xb6\x1c*\x86\xee?\xc4\n/\x96\xcb\xe3\n\xc0\xa0\xc9\xd6F6\x0f\x00\xc0'
p2103
tp2104
bag521
(g522
(I0
tp2105
g524
tp2106
Rp2107
(I1
(I3
tp2108
g563
I00
S'\xf4\xfdJ\x1a(#\xec?H"\x9cD\x1aE\x05\xc0.\xa9\x0b\x87\xf8\xe1\x02@'
p2109
tp2110
bas(g507
g11
tp2111
(lp2112
g521
(g522
(I0
tp2113
g524
tp2114
Rp2115
(I1
(I3
tp2116
g531
I00
S'\xa0\xee\xbc7\x1c\xc9\xc2\xbf\x02{?`*X\x16\xc0\xc2\xcf\x15Rt\xb2\x14@'
p2117
tp2118
bag521
(g522
(I0
tp2119
g524
tp2120
Rp2121
(I1
(I3
tp2122
g563
I00
S'\xff\x1dX8\xbe\xd2\xc9?\x91h\xd1{\x1e(\x16\xc0\xee\xfeSI\xc3\xd4\x03\xc0'
p2123
tp2124
bag521
(g522
(I0
tp2125
g524
tp2126
Rp2127
(I1
(I3
tp2128
g563
I00
S'\xcc\x87!\x1f\xfb\x05\xe6?\x14;\x08\xf1<\xc6\x13\xc0V!\xac1j\x94\xc8?'
p2129
tp2130
bag521
(g522
(I0
tp2131
g524
tp2132
Rp2133
(I1
(I3
tp2134
g563
I00
S'`\xc8Aw-\x81\xeb?/\xc3\xe6O\x04\xca\x10\xc0\x8a\xb7K)\x91{\xe4\xbf'
p2135
tp2136
bag521
(g522
(I0
tp2137
g524
tp2138
Rp2139
(I1
(I3
tp2140
g563
I00
S'\xe1\xc6\xc7\xa7\x12X\xe7?\x98\x99\xb0\x9a\xfb\xdb\x0b\xc0R\t\x1b)\xeae\xe0\xbf'
p2141
tp2142
bag521
(g522
(I0
tp2143
g524
tp2144
Rp2145
(I1
(I3
tp2146
g563
I00
S'p\xf1\xbdc^\x84\xf1?"\x88LL\xf9D\x06\xc0~w\r\xe9m\x0f\x19@'
p2147
tp2148
bas(g762
g15
tp2149
(lp2150
g521
(g522
(I0
tp2151
g524
tp2152
Rp2153
(I1
(I3
tp2154
g531
I00
S'_\xc8\xacwl\xa9\x05@\x8eL\xa6~\x15\xe6\x1c\xc0<\xd4\xf5\xbd\xf4\xd8\x15@'
p2155
tp2156
bas(g507
g15
tp2157
(lp2158
g521
(g522
(I0
tp2159
g524
tp2160
Rp2161
(I1
(I3
tp2162
g531
I00
S'\x9c\xee\xbc7\x1c\xc9\xc2\xbf\x02{?`*X\x16\xc0\xc1\xcf\x15Rt\xb2\x14@'
p2163
tp2164
bas(g762
g11
tp2165
(lp2166
g521
(g522
(I0
tp2167
g524
tp2168
Rp2169
(I1
(I3
tp2170
g531
I00
S'f\xc8\xacwl\xa9\x05@\x8fL\xa6~\x15\xe6\x1c\xc0<\xd4\xf5\xbd\xf4\xd8\x15@'
p2171
tp2172
bag521
(g522
(I0
tp2173
g524
tp2174
Rp2175
(I1
(I3
tp2176
g563
I00
S';\x8f\xd5Y\xee\xd5\x01@\x96Vuf4l\x1f\xc0\x08\xe6\xe9\x98\x9f0\xf6\xbf'
p2177
tp2178
bag521
(g522
(I0
tp2179
g524
tp2180
Rp2181
(I1
(I3
tp2182
g563
I00
S'\x06\xbc\xc2\x02\xe5\t\xfa?\x13\x91\xe2\xd9\xb5B\x1e\xc0\xce\xd4\xdb\xc4\xdf\xb1\xf6\xbf'
p2183
tp2184
bag521
(g522
(I0
tp2185
g524
tp2186
Rp2187
(I1
(I3
tp2188
g563
I00
S'\xba)c\x05l\x93\xf4?\x8f\x0f\xa1<\xee\x05\x1c\xc0\xf9-\x16\x17\xc6`\xf8\xbf'
p2189
tp2190
bag521
(g522
(I0
tp2191
g524
tp2192
Rp2193
(I1
(I3
tp2194
g563
I00
S'\xb0\xcfg\xd5._\xe8?\xd6\x8d\xba\x87\x91D\x1a\xc0\xea!\xf73\x0cB\xf7\xbf'
p2195
tp2196
bag521
(g522
(I0
tp2197
g524
tp2198
Rp2199
(I1
(I3
tp2200
g563
I00
S'\xb0\x11@i\x1f\x12\xb4?\x01\xb6C\x19\x0b\x9d\x1a\xc0\xda \xc5\xc8m8\xeb?'
p2201
tp2202
bag521
(g522
(I0
tp2203
g524
tp2204
Rp2205
(I1
(I3
tp2206
g563
I00
S'Dz\xddx\xe9\xf0\xb4?\x9c\xf2\xf6\xf0\xef \x18\xc0\x03\xe5\x88\xf0JN\xf3?'
p2207
tp2208
bag521
(g522
(I0
tp2209
g524
tp2210
Rp2211
(I1
(I3
tp2212
g563
I00
S'\xe4\x02R\xd9\x08\x8c\xc7?2\xc1\xd4;\xf6\xf3\x15\xc0>\x8c\x8fa?0\xd8?'
p2213
tp2214
bag521
(g522
(I0
tp2215
g524
tp2216
Rp2217
(I1
(I3
tp2218
g563
I00
S'\xcc\x87!\x1f\xfb\x05\xe6?\x14;\x08\xf1<\xc6\x13\xc0V!\xac1j\x94\xc8?'
p2219
tp2220
bag521
(g522
(I0
tp2221
g524
tp2222
Rp2223
(I1
(I3
tp2224
g563
I00
S'`\xc8Aw-\x81\xeb?/\xc3\xe6O\x04\xca\x10\xc0\x8a\xb7K)\x91{\xe4\xbf'
p2225
tp2226
bag521
(g522
(I0
tp2227
g524
tp2228
Rp2229
(I1
(I3
tp2230
g563
I00
S'\xe1\xc6\xc7\xa7\x12X\xe7?\x98\x99\xb0\x9a\xfb\xdb\x0b\xc0R\t\x1b)\xeae\xe0\xbf'
p2231
tp2232
bag521
(g522
(I0
tp2233
g524
tp2234
Rp2235
(I1
(I3
tp2236
g563
I00
S'p\xf1\xbdc^\x84\xf1?"\x88LL\xf9D\x06\xc0~w\r\xe9m\x0f\x19@'
p2237
tp2238
bas(g718
g15
tp2239
(lp2240
g521
(g522
(I0
tp2241
g524
tp2242
Rp2243
(I1
(I3
tp2244
g531
I00
S'\xd6\xf2\xfc\xf7\x04\xce\x07@\xc6Ffi\xc6\xf0\x16\xc0;\xd1\xa5\x9d %\x17@'
p2245
tp2246
bas(g718
g11
tp2247
g1205
s(g812
g11
tp2248
g1011
s(g618
g11
tp2249
g1117
s(g618
g15
tp2250
(lp2251
g521
(g522
(I0
tp2252
g524
tp2253
Rp2254
(I1
(I3
tp2255
g531
I00
S'\x97\xfd\xaaE\x8f\xc1\xe5?\xbb\xa6\xc5gY\x12\x1f\xc0\\)%M\x96\x93\x08@'
p2256
tp2257
bas(g844
g15
tp2258
(lp2259
g521
(g522
(I0
tp2260
g524
tp2261
Rp2262
(I1
(I3
tp2263
g531
I00
S'\xc8\xdc\xa0]\xb4\xb3\xed?b\xb9\xcf\x1f\xa8Q\x13\xc0:\x0eA\xb8^ \x13@'
p2264
tp2265
bas(g812
g15
tp2266
(lp2267
g521
(g522
(I0
tp2268
g524
tp2269
Rp2270
(I1
(I3
tp2271
g531
I00
S'\xbd\x9ct\x99Y\x93\x0e@\xa4\x82\x19\x7fa\xb4\x17\xc0\x0b\x07\x97\xeb\xfc\n\x00@'
p2272
tp2273
bas(g574
g15
tp2274
(lp2275
g521
(g522
(I0
tp2276
g524
tp2277
Rp2278
(I1
(I3
tp2279
g531
I00
S'\x8e\x07\xbd)b\xbe\xfb?\x0e\x85t\x92\x153\x18\xc0\xae0\xe9\xb77m\x17@'
p2280
tp2281
bas(g574
g11
tp2282
g1073
s(g662
g11
tp2283
g1173
ssS'parent_binary_predicates'
p2284
(dp2285
sS'nodes'
p2286
(dp2287
g18
(lp2288
I0
aI0
aI0
aI0
aI0
aI0
aI00
aI01
aI00
aI01
aI00
asg15
(lp2289
I0
aI0
aI0
aI0
aI0
aI0
aI00
aI01
aI00
aI01
aI00
asg11
(lp2290
I0
aI0
aI0
aI0
aI0
aI0
aI00
aI01
aI01
aI01
aI00
asg33
(lp2291
I0
aI0
aI0
ag1373
(g531
S'\xec\x1e]pS`\xd2?'
p2292
tp2293
Rp2294
ag1373
(g531
S'\x06\x1b\xb6\xe9Ei\x18\xc0'
p2295
tp2296
Rp2297
ag1373
(g531
S'\x82\x97\xe8\xa1t:\xe4?'
p2298
tp2299
Rp2300
aI01
aI00
aI00
aI00
aI00
asg10
(lp2301
I0
aI0
aI0
ag1373
(g531
S'\x85#\x8a\xa8\xbfB\x02@'
p2302
tp2303
Rp2304
ag1373
(g531
S'C@\xdd\xaa0\xf7\x1a\xc0'
p2305
tp2306
Rp2307
ag1373
(g531
S'\x9a\x93\xe4\xf2\xe3\x8f\xe0?'
p2308
tp2309
Rp2310
aI01
aI00
aI00
aI01
aI00
asg30
(lp2311
I0
aI0
aI0
ag1373
(g531
S'\xa8[$/\t\xb1\xb0?'
p2312
tp2313
Rp2314
ag1373
(g531
S':\xd9\xd7\x88y7\x1e\xc0'
p2315
tp2316
Rp2317
ag1373
(g531
S'\x9e\xa8\xa4gcb\x12@'
p2318
tp2319
Rp2320
aI01
aI00
aI00
aI00
aI00
asg19
(lp2321
I0
aI0
aI0
ag1373
(g531
S'\x960, \xdaJ\xf5?'
p2322
tp2323
Rp2324
ag1373
(g531
S'@\x93\xc7_\x9e4\x18\xc0'
p2325
tp2326
Rp2327
ag1373
(g531
S'\x89,&\x8ck,\x0b@'
p2328
tp2329
Rp2330
aI01
aI00
aI00
aI00
aI00
asg22
(lp2331
I0
aI0
aI0
ag1373
(g531
S'\xb3\x99\x7f<\xad\xb4\r@'
p2332
tp2333
Rp2334
ag1373
(g531
S'\xdb\xe5\x95\xe8\xfc\xf0\x16\xc0'
p2335
tp2336
Rp2337
ag1373
(g531
S'Y\x96n\x9e\xe7\t\x19@'
p2338
tp2339
Rp2340
aI01
aI00
aI00
aI01
aI00
asg46
(lp2341
I0
aI0
aI0
ag1373
(g531
S'<\xc6\x84Ad\xa3\n@'
p2342
tp2343
Rp2344
ag1373
(g531
S'\x92\xae\xb2\x18;\x05\x1e\xc0'
p2345
tp2346
Rp2347
ag1373
(g531
S'j8\xf9\x85\xb6\xac\x0f@'
p2348
tp2349
Rp2350
aI01
aI00
aI00
aI01
aI00
asg14
(lp2351
I0
aI0
aI0
ag1373
(g531
S'\xc0\xcf\x19\xc3\xf23\x0c@'
p2352
tp2353
Rp2354
ag1373
(g531
S'\xd0\xb5r\xad\x0f?\x15\xc0'
p2355
tp2356
Rp2357
ag1373
(g531
S'\xbf~a\xe9h\n\x13@'
p2358
tp2359
Rp2360
aI01
aI00
aI01
aI01
aI00
asg23
(lp2361
I0
aI0
aI0
ag1373
(g531
S'\x14\xce\xcef\xfe\xbb\xf0?'
p2362
tp2363
Rp2364
ag1373
(g531
S'\xf6?\xfc\xa1\x9e\xc0\x16\xc0'
p2365
tp2366
Rp2367
ag1373
(g531
S'\xaeKe\x14U\xf8\x13@'
p2368
tp2369
Rp2370
aI01
aI00
aI00
aI00
aI00
assS'mc_place_path'
p2371
(dp2372
sS'parent_state'
p2373
NsS'goal_entities'
p2374
(lp2375
Vsquare_packing_box1
p2376
ag11
asS'binary_edges'
p2377
(dp2378
(g22
g23
tp2379
(lp2380
I00
aI00
aI00
as(g22
g33
tp2381
(lp2382
I00
aI00
aI00
as(g30
g46
tp2383
(lp2384
I00
aI00
aI00
as(g30
g30
tp2385
(lp2386
I00
aI00
aI00
as(g10
g46
tp2387
(lp2388
I00
aI00
aI00
as(g10
g30
tp2389
(lp2390
I00
aI00
aI00
as(g23
g10
tp2391
(lp2392
I00
aI00
aI00
as(g22
g14
tp2393
(lp2394
I00
aI00
aI00
as(g19
g30
tp2395
(lp2396
I00
aI01
aI00
as(g33
g33
tp2397
(lp2398
I00
aI00
aI00
as(g10
g15
tp2399
(lp2400
g1373
(g528
(S'b1'
p2401
I0
I1
tp2402
Rp2403
(I3
S'|'
p2404
NNNI-1
I-1
I0
tp2405
bS'\x01'
p2406
tp2407
Rp2408
aI00
aI01
as(g18
g15
tp2409
(lp2410
I00
aI00
aI00
as(g33
g23
tp2411
(lp2412
I00
aI00
aI00
as(g15
g23
tp2413
(lp2414
I00
aI00
aI00
as(g14
g11
tp2415
(lp2416
I00
aI00
aI00
as(g18
g10
tp2417
(lp2418
I00
aI00
aI00
as(g10
g23
tp2419
(lp2420
I00
aI00
aI00
as(g30
g18
tp2421
(lp2422
g2408
aI00
aI00
as(g22
g22
tp2423
(lp2424
I00
aI00
aI00
as(g15
g22
tp2425
(lp2426
I00
aI00
aI00
as(g46
g10
tp2427
(lp2428
I00
aI00
aI00
as(g10
g11
tp2429
(lp2430
I00
aI00
aI00
as(g19
g46
tp2431
(lp2432
I00
aI00
aI00
as(g33
g19
tp2433
(lp2434
I00
aI00
aI00
as(g14
g14
tp2435
(lp2436
I00
aI00
aI00
as(g10
g18
tp2437
(lp2438
g2408
aI00
aI00
as(g15
g10
tp2439
(lp2440
I00
aI00
aI00
as(g15
g46
tp2441
(lp2442
I00
aI00
aI00
as(g15
g30
tp2443
(lp2444
I00
aI00
aI00
as(g46
g11
tp2445
(lp2446
I00
aI00
aI01
as(g23
g33
tp2447
(lp2448
I00
aI01
aI00
as(g19
g33
tp2449
(lp2450
I00
aI01
aI00
as(g46
g19
tp2451
(lp2452
I00
aI00
aI00
as(g15
g33
tp2453
(lp2454
I00
aI00
aI00
as(g18
g11
tp2455
(lp2456
I00
aI00
aI00
as(g14
g10
tp2457
(lp2458
I00
aI00
aI00
as(g33
g46
tp2459
(lp2460
I00
aI00
aI00
as(g18
g46
tp2461
(lp2462
I00
aI00
aI00
as(g46
g18
tp2463
(lp2464
g2408
aI00
aI00
as(g30
g22
tp2465
(lp2466
I00
aI00
aI00
as(g23
g14
tp2467
(lp2468
I00
aI00
aI00
as(g30
g10
tp2469
(lp2470
I00
aI00
aI00
as(g23
g11
tp2471
(lp2472
I00
aI00
aI01
as(g18
g18
tp2473
(lp2474
I00
aI00
aI00
as(g46
g33
tp2475
(lp2476
I00
aI00
aI00
as(g14
g22
tp2477
(lp2478
I00
aI00
aI00
as(g11
g14
tp2479
(lp2480
I00
aI00
aI00
as(g19
g15
tp2481
(lp2482
g2408
aI00
aI01
as(g11
g19
tp2483
(lp2484
I00
aI00
aI00
as(g23
g30
tp2485
(lp2486
I00
aI01
aI00
as(g30
g14
tp2487
(lp2488
I00
aI00
aI00
as(g46
g15
tp2489
(lp2490
g2408
aI00
aI01
as(g30
g19
tp2491
(lp2492
I00
aI00
aI00
as(g46
g46
tp2493
(lp2494
I00
aI00
aI00
as(g19
g10
tp2495
(lp2496
I00
aI00
aI00
as(g15
g11
tp2497
(lp2498
I00
aI00
aI00
as(g11
g22
tp2499
(lp2500
I00
aI00
aI00
as(g33
g11
tp2501
(lp2502
I00
aI00
aI01
as(g18
g19
tp2503
(lp2504
I00
aI00
aI00
as(g11
g23
tp2505
(lp2506
I00
aI00
aI00
as(g30
g23
tp2507
(lp2508
I00
aI00
aI00
as(g19
g18
tp2509
(lp2510
g2408
aI00
aI00
as(g23
g15
tp2511
(lp2512
g2408
aI00
aI01
as(g19
g22
tp2513
(lp2514
I00
aI00
aI00
as(g33
g10
tp2515
(lp2516
I00
aI00
aI00
as(g33
g15
tp2517
(lp2518
g2408
aI00
aI01
as(g11
g30
tp2519
(lp2520
I00
aI00
aI00
as(g18
g23
tp2521
(lp2522
I00
aI00
aI00
as(g18
g33
tp2523
(lp2524
I00
aI00
aI00
as(g19
g11
tp2525
(lp2526
I00
aI00
aI00
as(g22
g19
tp2527
(lp2528
I00
aI00
aI00
as(g14
g19
tp2529
(lp2530
I00
aI00
aI00
as(g11
g46
tp2531
(lp2532
I00
aI00
aI00
as(g15
g15
tp2533
(lp2534
I00
aI00
aI00
as(g22
g30
tp2535
(lp2536
I00
aI00
aI00
as(g14
g46
tp2537
(lp2538
I00
aI00
aI00
as(g15
g14
tp2539
(lp2540
I00
aI00
aI00
as(g10
g33
tp2541
(lp2542
I00
aI00
aI00
as(g15
g19
tp2543
(lp2544
I00
aI00
aI00
as(g14
g18
tp2545
(lp2546
g2408
aI00
aI00
as(g22
g10
tp2547
(lp2548
I00
aI00
aI00
as(g30
g11
tp2549
(lp2550
I00
aI00
aI00
as(g14
g33
tp2551
(lp2552
I00
aI00
aI00
as(g33
g14
tp2553
(lp2554
I00
aI00
aI00
as(g10
g14
tp2555
(lp2556
I00
aI00
aI00
as(g18
g22
tp2557
(lp2558
I00
aI00
aI00
as(g10
g19
tp2559
(lp2560
I00
aI01
aI00
as(g46
g22
tp2561
(lp2562
I00
aI00
aI00
as(g22
g15
tp2563
(lp2564
g2408
aI00
aI01
as(g19
g19
tp2565
(lp2566
I00
aI00
aI00
as(g23
g22
tp2567
(lp2568
I00
aI00
aI00
as(g14
g23
tp2569
(lp2570
I00
aI00
aI00
as(g10
g22
tp2571
(lp2572
I00
aI00
aI00
as(g10
g10
tp2573
(lp2574
I00
aI00
aI00
as(g23
g19
tp2575
(lp2576
I00
aI00
aI00
as(g22
g11
tp2577
(lp2578
I00
aI00
aI00
as(g46
g14
tp2579
(lp2580
I00
aI00
aI00
as(g30
g15
tp2581
(lp2582
g2408
aI00
aI01
as(g11
g10
tp2583
(lp2584
I00
aI00
aI00
as(g19
g14
tp2585
(lp2586
I00
aI00
aI00
as(g33
g30
tp2587
(lp2588
I00
aI00
aI00
as(g11
g15
tp2589
(lp2590
I00
aI00
aI00
as(g22
g46
tp2591
(lp2592
I00
aI00
aI00
as(g18
g30
tp2593
(lp2594
I00
aI00
aI00
as(g22
g18
tp2595
(lp2596
g2408
aI00
aI00
as(g46
g30
tp2597
(lp2598
I00
aI00
aI00
as(g11
g11
tp2599
(lp2600
I00
aI00
aI00
as(g19
g23
tp2601
(lp2602
I00
aI01
aI00
as(g33
g18
tp2603
(lp2604
g2408
aI00
aI00
as(g23
g18
tp2605
(lp2606
g2408
aI00
aI00
as(g11
g18
tp2607
(lp2608
I00
aI00
aI00
as(g11
g33
tp2609
(lp2610
I00
aI00
aI00
as(g46
g23
tp2611
(lp2612
I00
aI00
aI00
as(g23
g46
tp2613
(lp2614
I00
aI00
aI00
as(g30
g33
tp2615
(lp2616
I00
aI00
aI00
as(g15
g18
tp2617
(lp2618
I00
aI00
aI00
as(g14
g30
tp2619
(lp2620
I00
aI00
aI00
as(g33
g22
tp2621
(lp2622
I00
aI00
aI00
as(g23
g23
tp2623
(lp2624
I00
aI00
aI00
as(g14
g15
tp2625
(lp2626
g2408
aI00
aI01
as(g18
g14
tp2627
(lp2628
I00
aI00
aI00
assg1285
g1286
sS'pick_in_way'
p2629
(itrajectory_representation.predicates.pick_in_way
PickInWay
p2630
(dp2631
g1008
(dp2632
g33
g550
sg10
g599
sg30
g643
sg19
g699
sg22
g743
sg46
g787
sg14
g837
sg23
g869
ssg1260
(dp2633
g33
(lp2634
Vrectangular_packing_box1
p2635
aVsquare_packing_box4
p2636
asg10
(lp2637
sg30
(lp2638
Vrectangular_packing_box1
p2639
aVsquare_packing_box4
p2640
asg19
(lp2641
Vrectangular_packing_box1
p2642
aVrectangular_packing_box2
p2643
asg22
(lp2644
sg46
(lp2645
sg14
(lp2646
sg23
(lp2647
Vrectangular_packing_box1
p2648
aVsquare_packing_box4
p2649
assg1285
(lp2650
g22
ag10
ag46
ag18
ag11
ag15
ag14
ag18
ag11
ag15
ag18
ag11
ag15
ag18
ag11
ag15
ag18
ag11
ag15
ag18
ag11
ag15
ag18
ag11
ag15
ag18
ag11
ag15
asg1287
g1288
sg2
(dp2651
sg505
g506
sg1323
Nsg1329
g506
sg1326
(dp2652
sg1328
I8
sg1368
I01
sg7
Nsg1330
(dp2653
(g22
g23
tp2654
I00
s(g22
g33
tp2655
I00
s(g30
g46
tp2656
I00
s(g30
g30
tp2657
I00
s(g10
g46
tp2658
I00
s(g10
g30
tp2659
I00
s(g23
g10
tp2660
I00
s(g22
g14
tp2661
I00
s(g19
g30
tp2662
I01
s(g33
g33
tp2663
I00
s(g10
g15
tp2664
I00
s(g18
g15
tp2665
I00
s(g33
g23
tp2666
I00
s(g15
g23
tp2667
I00
s(g14
g11
tp2668
I00
s(g18
g10
tp2669
I00
s(g10
g23
tp2670
I00
s(g30
g18
tp2671
I00
s(g22
g22
tp2672
I00
s(g15
g22
tp2673
I00
s(g46
g10
tp2674
I00
s(g10
g11
tp2675
I00
s(g19
g46
tp2676
I00
s(g33
g19
tp2677
I00
s(g14
g14
tp2678
I00
s(g10
g18
tp2679
I00
s(g15
g10
tp2680
I00
s(g15
g46
tp2681
I00
s(g15
g30
tp2682
I00
s(g46
g11
tp2683
I00
s(g23
g33
tp2684
I01
s(g19
g33
tp2685
I01
s(g46
g19
tp2686
I00
s(g15
g33
tp2687
I00
s(g18
g11
tp2688
I00
s(g14
g10
tp2689
I00
s(g33
g46
tp2690
I00
s(g18
g46
tp2691
I00
s(g46
g18
tp2692
I00
s(g30
g22
tp2693
I00
s(g23
g14
tp2694
I00
s(g30
g10
tp2695
I00
s(g23
g11
tp2696
I00
s(g18
g18
tp2697
I00
s(g46
g33
tp2698
I00
s(g14
g22
tp2699
I00
s(g11
g14
tp2700
I00
s(g19
g15
tp2701
I00
s(g11
g19
tp2702
I00
s(g23
g30
tp2703
I01
s(g30
g14
tp2704
I00
s(g46
g15
tp2705
I00
s(g30
g19
tp2706
I00
s(g46
g46
tp2707
I00
s(g19
g10
tp2708
I00
s(g15
g11
tp2709
I00
s(g11
g22
tp2710
I00
s(g33
g11
tp2711
I00
s(g18
g19
tp2712
I00
s(g11
g23
tp2713
I00
s(g30
g23
tp2714
I00
s(g19
g18
tp2715
I00
s(g23
g15
tp2716
I00
s(g19
g22
tp2717
I00
s(g33
g10
tp2718
I00
s(g33
g15
tp2719
I00
s(g11
g30
tp2720
I00
s(g18
g23
tp2721
I00
s(g18
g33
tp2722
I00
s(g19
g11
tp2723
I00
s(g22
g19
tp2724
I00
s(g14
g19
tp2725
I00
s(g11
g46
tp2726
I00
s(g15
g15
tp2727
I00
s(g22
g30
tp2728
I00
s(g14
g46
tp2729
I00
s(g15
g14
tp2730
I00
s(g10
g33
tp2731
I00
s(g15
g19
tp2732
I00
s(g14
g18
tp2733
I00
s(g22
g10
tp2734
I00
s(g30
g11
tp2735
I00
s(g14
g33
tp2736
I00
s(g33
g14
tp2737
I00
s(g10
g14
tp2738
I00
s(g18
g22
tp2739
I00
s(g10
g19
tp2740
I01
s(g46
g22
tp2741
I00
s(g22
g15
tp2742
I00
s(g19
g19
tp2743
I00
s(g23
g22
tp2744
I00
s(g14
g23
tp2745
I00
s(g10
g22
tp2746
I00
s(g10
g10
tp2747
I00
s(g23
g19
tp2748
I00
s(g22
g11
tp2749
I00
s(g46
g14
tp2750
I00
s(g30
g15
tp2751
I00
s(g11
g10
tp2752
I00
s(g19
g14
tp2753
I00
s(g33
g30
tp2754
I00
s(g11
g15
tp2755
I00
s(g22
g46
tp2756
I00
s(g18
g30
tp2757
I00
s(g22
g18
tp2758
I00
s(g46
g30
tp2759
I00
s(g11
g11
tp2760
I00
s(g19
g23
tp2761
I01
s(g33
g18
tp2762
I00
s(g23
g18
tp2763
I00
s(g11
g18
tp2764
I00
s(g11
g33
tp2765
I00
s(g46
g23
tp2766
I00
s(g23
g46
tp2767
I00
s(g30
g33
tp2768
I00
s(g15
g18
tp2769
I00
s(g14
g30
tp2770
I00
s(g33
g22
tp2771
I00
s(g23
g23
tp2772
I00
s(g14
g15
tp2773
I00
s(g18
g14
tp2774
I00
ssg1367
NsbsS'robot_pose'
p2775
g521
(g522
(I0
tp2776
g524
tp2777
Rp2778
(I1
(I1
I3
tp2779
g531
I00
S'fR\xdd8\xd6\x8d\x00@\xbfC|\xd2X\x00\x16\xc0\xc1\xab\x9e\x0b\x900\xd2?'
p2780
tp2781
bsS'is_holding_goal_entity'
p2782
(itrajectory_representation.predicates.is_holding_goal_entity
IsHoldingGoalEntity
p2783
(dp2784
g2374
g2375
sg7
NsbsS'mc_pick_path'
p2785
(dp2786
sS'current_collides'
p2787
g1288
sb.