(itrajectory_representation.shortest_path_pick_and_place_state
ShortestPathPaPState
p0
(dp1
S'place_used'
p2
(dp3
sS'in_region'
p4
(itrajectory_representation.predicates.in_region
InRegion
p5
(dp6
S'problem_env'
p7
NsbsS'ternary_edges'
p8
(dp9
(Vrectangular_packing_box2
p10
g10
S'home_region'
p11
tp12
(lp13
I00
as(Vsquare_packing_box1
p14
S'loading_region'
p15
g15
tp16
(lp17
I00
as(S'entire_region'
p18
Vrectangular_packing_box1
p19
g11
tp20
(lp21
I00
as(Vsquare_packing_box2
p22
Vsquare_packing_box4
p23
g15
tp24
(lp25
I00
as(g11
g11
g11
tp26
(lp27
I00
as(g23
g10
g15
tp28
(lp29
I00
as(g14
Vrectangular_packing_box3
p30
g11
tp31
(lp32
I00
as(g11
Vrectangular_packing_box4
p33
g11
tp34
(lp35
I00
as(g22
g14
g11
tp36
(lp37
I01
as(g30
g33
g15
tp38
(lp39
I00
as(g11
g23
g15
tp40
(lp41
I00
as(g22
g18
g11
tp42
(lp43
I00
as(g15
g11
g15
tp44
(lp45
I00
as(g33
Vsquare_packing_box3
p46
g11
tp47
(lp48
I00
as(g23
g18
g11
tp49
(lp50
I00
as(g22
g19
g15
tp51
(lp52
I00
as(g46
g15
g11
tp53
(lp54
I00
as(g18
g10
g15
tp55
(lp56
I00
as(g11
g18
g11
tp57
(lp58
I00
as(g10
g15
g11
tp59
(lp60
I00
as(g46
g18
g11
tp61
(lp62
I00
as(g14
g14
g15
tp63
(lp64
I00
as(g15
g23
g15
tp65
(lp66
I00
as(g18
g15
g11
tp67
(lp68
I00
as(g18
g22
g11
tp69
(lp70
I00
as(g15
g15
g11
tp71
(lp72
I00
as(g46
g33
g15
tp73
(lp74
I00
as(g11
g11
g15
tp75
(lp76
I00
as(g19
g22
g15
tp77
(lp78
I00
as(g10
g23
g11
tp79
(lp80
I01
as(g46
g14
g11
tp81
(lp82
I00
as(g19
g11
g15
tp83
(lp84
I00
as(g11
g10
g15
tp85
(lp86
I00
as(g19
g30
g15
tp87
(lp88
I00
as(g30
g19
g11
tp89
(lp90
I01
as(g15
g14
g15
tp91
(lp92
I00
as(g23
g22
g15
tp93
(lp94
I00
as(g10
g10
g15
tp95
(lp96
I00
as(g18
g23
g11
tp97
(lp98
I00
as(g15
g11
g11
tp99
(lp100
I00
as(g33
g10
g11
tp101
(lp102
I00
as(g11
g30
g11
tp103
(lp104
I00
as(g22
g19
g11
tp105
(lp106
I01
as(g30
g23
g11
tp107
(lp108
I01
as(g14
g30
g15
tp109
(lp110
I00
as(g46
g22
g11
tp111
(lp112
I00
as(g22
g14
g15
tp113
(lp114
I00
as(g22
g10
g15
tp115
(lp116
I00
as(g18
g22
g15
tp117
(lp118
I00
as(g15
g30
g15
tp119
(lp120
I00
as(g18
g11
g11
tp121
(lp122
I00
as(g33
g11
g11
tp123
(lp124
I00
as(g15
g18
g11
tp125
(lp126
I00
as(g10
g23
g15
tp127
(lp128
I00
as(g46
g10
g15
tp129
(lp130
I00
as(g46
g46
g11
tp131
(lp132
I00
as(g19
g30
g11
tp133
(lp134
I00
as(g18
g10
g11
tp135
(lp136
I00
as(g19
g15
g15
tp137
(lp138
I00
as(g23
g14
g11
tp139
(lp140
I00
as(g14
g14
g11
tp141
(lp142
I00
as(g14
g33
g11
tp143
(lp144
I00
as(g33
g10
g15
tp145
(lp146
I00
as(g23
g19
g15
tp147
(lp148
I00
as(g46
g33
g11
tp149
(lp150
I00
as(g19
g22
g11
tp151
(lp152
I00
as(g10
g19
g15
tp153
(lp154
I00
as(g19
g11
g11
tp155
(lp156
I00
as(g22
g10
g11
tp157
(lp158
I00
as(g10
g46
g11
tp159
(lp160
I00
as(g30
g19
g15
tp161
(lp162
I00
as(g11
g22
g15
tp163
(lp164
I00
as(g18
g11
g15
tp165
(lp166
I00
as(g18
g23
g15
tp167
(lp168
I00
as(g46
g10
g11
tp169
(lp170
I00
as(g30
g46
g15
tp171
(lp172
I00
as(g10
g18
g15
tp173
(lp174
I00
as(g19
g15
g11
tp175
(lp176
I00
as(g46
g22
g15
tp177
(lp178
I00
as(g46
g19
g15
tp179
(lp180
I00
as(g23
g14
g15
tp181
(lp182
I00
as(g11
g30
g15
tp183
(lp184
I00
as(g18
g46
g15
tp185
(lp186
I00
as(g15
g30
g11
tp187
(lp188
I00
as(g15
g22
g15
tp189
(lp190
I00
as(g10
g19
g11
tp191
(lp192
I01
as(g23
g19
g11
tp193
(lp194
I00
as(g15
g46
g11
tp195
(lp196
I00
as(g10
g46
g15
tp197
(lp198
I00
as(g10
g33
g15
tp199
(lp200
I00
as(g30
g23
g15
tp201
(lp202
I00
as(g14
g33
g15
tp203
(lp204
I00
as(g19
g46
g15
tp205
(lp206
I00
as(g11
g14
g15
tp207
(lp208
I00
as(g30
g15
g15
tp209
(lp210
I00
as(g33
g11
g15
tp211
(lp212
I00
as(g14
g19
g11
tp213
(lp214
I01
as(g10
g18
g11
tp215
(lp216
I00
as(g33
g22
g15
tp217
(lp218
I00
as(g30
g10
g15
tp219
(lp220
I00
as(g46
g19
g11
tp221
(lp222
I00
as(g23
g15
g15
tp223
(lp224
I00
as(g22
g11
g11
tp225
(lp226
I00
as(g23
g33
g11
tp227
(lp228
I00
as(g11
g46
g15
tp229
(lp230
I00
as(g15
g19
g15
tp231
(lp232
I00
as(g15
g46
g15
tp233
(lp234
I00
as(g14
g46
g11
tp235
(lp236
I00
as(g19
g46
g11
tp237
(lp238
I00
as(g14
g19
g15
tp239
(lp240
I00
as(g30
g10
g11
tp241
(lp242
I00
as(g10
g22
g11
tp243
(lp244
I00
as(g30
g11
g15
tp245
(lp246
I00
as(g23
g15
g11
tp247
(lp248
I00
as(g15
g33
g15
tp249
(lp250
I00
as(g10
g33
g11
tp251
(lp252
I01
as(g30
g30
g11
tp253
(lp254
I00
as(g33
g33
g11
tp255
(lp256
I00
as(g33
g30
g15
tp257
(lp258
I00
as(g30
g15
g11
tp259
(lp260
I00
as(g46
g23
g11
tp261
(lp262
I00
as(g33
g22
g11
tp263
(lp264
I00
as(g22
g15
g15
tp265
(lp266
I00
as(g30
g18
g15
tp267
(lp268
I00
as(g22
g11
g15
tp269
(lp270
I00
as(g14
g22
g15
tp271
(lp272
I00
as(g23
g33
g15
tp273
(lp274
I00
as(g46
g11
g15
tp275
(lp276
I00
as(g30
g11
g11
tp277
(lp278
I00
as(g15
g33
g11
tp279
(lp280
I00
as(g19
g19
g11
tp281
(lp282
I00
as(g15
g23
g11
tp283
(lp284
I00
as(g23
g46
g11
tp285
(lp286
I00
as(g14
g10
g11
tp287
(lp288
I00
as(g14
g46
g15
tp289
(lp290
I00
as(g33
g14
g15
tp291
(lp292
I00
as(g11
g22
g11
tp293
(lp294
I00
as(g18
g30
g15
tp295
(lp296
I00
as(g30
g14
g11
tp297
(lp298
I00
as(g19
g18
g11
tp299
(lp300
I00
as(g46
g23
g15
tp301
(lp302
I00
as(g46
g30
g15
tp303
(lp304
I00
as(g33
g19
g11
tp305
(lp306
I00
as(g10
g22
g15
tp307
(lp308
I00
as(g33
g15
g11
tp309
(lp310
I00
as(g30
g18
g11
tp311
(lp312
I00
as(g23
g30
g15
tp313
(lp314
I00
as(g10
g14
g11
tp315
(lp316
I00
as(g46
g14
g15
tp317
(lp318
I00
as(g23
g23
g15
tp319
(lp320
I00
as(g33
g33
g15
tp321
(lp322
I00
as(g19
g19
g15
tp323
(lp324
I00
as(g14
g23
g15
tp325
(lp326
I00
as(g23
g22
g11
tp327
(lp328
I00
as(g18
g14
g11
tp329
(lp330
I00
as(g11
g18
g15
tp331
(lp332
I00
as(g11
g19
g15
tp333
(lp334
I00
as(g22
g15
g11
tp335
(lp336
I00
as(g14
g10
g15
tp337
(lp338
I00
as(g19
g14
g15
tp339
(lp340
I00
as(g30
g30
g15
tp341
(lp342
I00
as(g18
g30
g11
tp343
(lp344
I00
as(g22
g30
g15
tp345
(lp346
I00
as(g19
g18
g15
tp347
(lp348
I00
as(g14
g22
g11
tp349
(lp350
I01
as(g33
g19
g15
tp351
(lp352
I00
as(g33
g30
g11
tp353
(lp354
I00
as(g23
g30
g11
tp355
(lp356
I00
as(g14
g11
g15
tp357
(lp358
I00
as(g22
g46
g11
tp359
(lp360
I00
as(g46
g46
g15
tp361
(lp362
I00
as(g33
g18
g11
tp363
(lp364
I00
as(g15
g18
g15
tp365
(lp366
I00
as(g23
g46
g15
tp367
(lp368
I00
as(g15
g19
g11
tp369
(lp370
I00
as(g18
g18
g15
tp371
(lp372
I00
as(g33
g14
g11
tp373
(lp374
I00
as(g14
g23
g11
tp375
(lp376
I01
as(g15
g10
g15
tp377
(lp378
I00
as(g30
g14
g15
tp379
(lp380
I00
as(g46
g11
g11
tp381
(lp382
I00
as(g18
g14
g15
tp383
(lp384
I00
as(g46
g30
g11
tp385
(lp386
I00
as(g30
g22
g11
tp387
(lp388
I00
as(g33
g15
g15
tp389
(lp390
I00
as(g10
g14
g15
tp391
(lp392
I00
as(g19
g10
g11
tp393
(lp394
I00
as(g18
g15
g15
tp395
(lp396
I00
as(g15
g10
g11
tp397
(lp398
I00
as(g14
g18
g11
tp399
(lp400
I00
as(g22
g46
g15
tp401
(lp402
I00
as(g22
g33
g15
tp403
(lp404
I00
as(g23
g11
g11
tp405
(lp406
I00
as(g33
g18
g15
tp407
(lp408
I00
as(g33
g23
g11
tp409
(lp410
I00
as(g18
g33
g15
tp411
(lp412
I00
as(g11
g19
g11
tp413
(lp414
I00
as(g11
g46
g11
tp415
(lp416
I00
as(g19
g14
g11
tp417
(lp418
I00
as(g19
g33
g11
tp419
(lp420
I00
as(g18
g46
g11
tp421
(lp422
I00
as(g22
g30
g11
tp423
(lp424
I00
as(g22
g22
g15
tp425
(lp426
I00
as(g19
g23
g15
tp427
(lp428
I00
as(g23
g11
g15
tp429
(lp430
I00
as(g10
g11
g11
tp431
(lp432
I00
as(g14
g11
g11
tp433
(lp434
I00
as(g19
g10
g15
tp435
(lp436
I00
as(g23
g10
g11
tp437
(lp438
I00
as(g11
g15
g11
tp439
(lp440
I00
as(g18
g18
g11
tp441
(lp442
I00
as(g10
g30
g15
tp443
(lp444
I00
as(g14
g18
g15
tp445
(lp446
I00
as(g15
g22
g11
tp447
(lp448
I00
as(g30
g33
g11
tp449
(lp450
I01
as(g18
g33
g11
tp451
(lp452
I00
as(g14
g15
g11
tp453
(lp454
I00
as(g30
g22
g15
tp455
(lp456
I00
as(g11
g14
g11
tp457
(lp458
I00
as(g18
g19
g15
tp459
(lp460
I00
as(g23
g18
g15
tp461
(lp462
I00
as(g22
g22
g11
tp463
(lp464
I00
as(g19
g23
g11
tp465
(lp466
I01
as(g46
g18
g15
tp467
(lp468
I00
as(g22
g33
g11
tp469
(lp470
I01
as(g11
g23
g11
tp471
(lp472
I00
as(g30
g46
g11
tp473
(lp474
I00
as(g33
g23
g15
tp475
(lp476
I00
as(g23
g23
g11
tp477
(lp478
I00
as(g19
g33
g15
tp479
(lp480
I00
as(g22
g23
g11
tp481
(lp482
I01
as(g46
g15
g15
tp483
(lp484
I00
as(g11
g10
g11
tp485
(lp486
I00
as(g10
g15
g15
tp487
(lp488
I00
as(g11
g33
g15
tp489
(lp490
I00
as(g10
g11
g15
tp491
(lp492
I00
as(g15
g15
g15
tp493
(lp494
I00
as(g22
g18
g15
tp495
(lp496
I00
as(g33
g46
g15
tp497
(lp498
I00
as(g11
g15
g15
tp499
(lp500
I00
as(g10
g30
g11
tp501
(lp502
I00
as(g15
g14
g11
tp503
(lp504
I00
assS'pick_used'
p505
(dp506
Vrectangular_packing_box4
p507
(itrajectory_representation.operator
Operator
p508
(dp509
S'is_skeleton'
p510
I01
sS'discrete_parameters'
p511
(dp512
S'object'
p513
Vrectangular_packing_box4
p514
ssS'type'
p515
S'two_arm_pick'
p516
sS'continuous_parameters'
p517
(dp518
S'q_goal'
p519
(lp520
cnumpy.core.multiarray
_reconstruct
p521
(cnumpy
ndarray
p522
(I0
tp523
S'b'
p524
tp525
Rp526
(I1
(I3
tp527
cnumpy
dtype
p528
(S'f8'
p529
I0
I1
tp530
Rp531
(I3
S'<'
p532
NNNI-1
I-1
I0
tp533
bI00
S'\xe1\xee\xbc7\x1c\xc9\xc2\xbf\x06{?`*X\x16\xc0Tu\xb9\x08\x1c\xbe\xf1\xbf'
p534
tp535
bag521
(g522
(I0
tp536
g524
tp537
Rp538
(I1
(I3
tp539
g531
I00
S'\x17L\xf0\x92\x88\x80\xcb\xbf\xa9C4\x80H\xfd\x15\xc0\xb3\r\xd4\xcf\xe37\xe9\xbf'
p540
tp541
bag521
(g522
(I0
tp542
g524
tp543
Rp544
(I1
(I3
tp545
g531
I00
S'\xe8@\x96(\x83\n\xf0?=\x0b\xfe\xca\xdf\x01\x17\xc0\xa5b\xce\xdbM\x85\t\xc0'
p546
tp547
basS'is_feasible'
p548
I00
ssS'low_level_motion'
p549
(lp550
g521
(g522
(I0
tp551
g524
tp552
Rp553
(I1
(I3
tp554
g531
I00
S'\xef\xb88\xa1!D\r@D\x85\xe3\xea\x1bo\x1a\xc0\xbf8e8\xeaT\x06@'
p555
tp556
bag521
(g522
(I0
tp557
g524
tp558
Rp559
(I1
(I3
tp560
g528
(S'f8'
p561
I0
I1
tp562
Rp563
(I3
S'<'
p564
NNNI-1
I-1
I0
tp565
bI00
S'\xe8\x81y:#O\t@W\xfe\xf6\x1e\x16\xa2\x1a\xc0\x92%c\x11\x9c\x0e\x06@'
p566
tp567
bag521
(g522
(I0
tp568
g524
tp569
Rp570
(I1
(I3
tp571
g563
I00
S'\xba\x8d\x1a\xa2f&\x03@$\xbc\xba{lE\x1a\xc0172\n\x8c\xab\x03@'
p572
tp573
bag521
(g522
(I0
tp574
g524
tp575
Rp576
(I1
(I3
tp577
g563
I00
S'\xf60LV\xe8\x96\x00@\x9aEw{a\xe2\x18\xc0^\xa8\x8a,\xa3\x98\x00@'
p578
tp579
bag521
(g522
(I0
tp580
g524
tp581
Rp582
(I1
(I3
tp583
g563
I00
S'\xf5I-\xc1\xee\x1f\xfa?Zc\rx\x9c\n\x18\xc0?_z:D*\x17@'
p584
tp585
bag544
asbsVrectangular_packing_box2
p586
(itrajectory_representation.operator
Operator
p587
(dp588
g510
I01
sg511
(dp589
g513
Vrectangular_packing_box2
p590
ssg515
g516
sg517
(dp591
g519
(lp592
g521
(g522
(I0
tp593
g524
tp594
Rp595
(I1
(I3
tp596
g531
I00
S'\x91\x07\xbd)b\xbe\xfb?\t\x85t\x92\x153\x18\xc0\x82\xc6\xaf\xc59L\xdb\xbf'
p597
tp598
bag521
(g522
(I0
tp599
g524
tp600
Rp601
(I1
(I3
tp602
g531
I00
S'Z%SSZ\x02\x05@E\xa1dRg \x1e\xc0\xdd2Yo\x08\x01\x00@'
p603
tp604
bag521
(g522
(I0
tp605
g524
tp606
Rp607
(I1
(I3
tp608
g531
I00
S'\\\xcb,\x86\xdc\x8b\x00@[\x82\xd4\xc5\xd4\x10\x18\xc02\xc0$\xccy\xd6\xee\xbf'
p609
tp610
basg548
I00
ssg549
(lp611
g521
(g522
(I0
tp612
g524
tp613
Rp614
(I1
(I3
tp615
g531
I00
S'\xef\xb88\xa1!D\r@D\x85\xe3\xea\x1bo\x1a\xc0\xbf8e8\xeaT\x06@'
p616
tp617
bag521
(g522
(I0
tp618
g524
tp619
Rp620
(I1
(I3
tp621
g563
I00
S'\xe5\xb8@X\xe8=\x0e@\\)$S\xc1\xc0\x1c\xc0aK\x8aV`/\x08@'
p622
tp623
bag521
(g522
(I0
tp624
g524
tp625
Rp626
(I1
(I3
tp627
g563
I00
S'\xa3\xe7\xb4\x16R\xf0\x07@\xbc\n8\xab\xe3x\x1c\xc0=\x94\xaf\xa7P\t\x01@'
p628
tp629
bag601
asbsVrectangular_packing_box3
p630
(itrajectory_representation.operator
Operator
p631
(dp632
g510
I01
sg511
(dp633
g513
Vrectangular_packing_box3
p634
ssg515
g516
sg517
(dp635
g519
(lp636
g521
(g522
(I0
tp637
g524
tp638
Rp639
(I1
(I3
tp640
g531
I00
S'\xe5\xfb\xaaE\x8f\xc1\xe5?\xb9\xa6\xc5gY\x12\x1f\xc0])%M\x96\x93\x08@'
p641
tp642
bag521
(g522
(I0
tp643
g524
tp644
Rp645
(I1
(I3
tp646
g531
I00
S'\x94\xc3\xfbV\x05J\xdb?\xff{\xafnm5\x1b\xc0\xcb\xe3\xb3\xbaBQ\x00\xc0'
p647
tp648
bag521
(g522
(I0
tp649
g524
tp650
Rp651
(I1
(I3
tp652
g531
I00
S'\xca\xf0\x99by\xfe\xe7?\xa0"\xc5\xafi\x18\x1f\xc0\x80\x81\xfe\xc56\x0f\x07@'
p653
tp654
basg548
I00
ssg549
(lp655
g521
(g522
(I0
tp656
g524
tp657
Rp658
(I1
(I3
tp659
g531
I00
S'\xef\xb88\xa1!D\r@D\x85\xe3\xea\x1bo\x1a\xc0\xbf8e8\xeaT\x06@'
p660
tp661
bag521
(g522
(I0
tp662
g524
tp663
Rp664
(I1
(I3
tp665
g563
I00
S'py\xe7\x92\x10\x1c\x08@_z\xb4M\xdc\xbc\x1b\xc0\xe2\x81s\x12\x81\x12\x08\xc0'
p666
tp667
bag521
(g522
(I0
tp668
g524
tp669
Rp670
(I1
(I3
tp671
g563
I00
S'\xc2Fo\n7\x11\x03@\xb6=Ya.\xe0\x1a\xc0,\x0b\x04&"Y\x07\xc0'
p672
tp673
bag521
(g522
(I0
tp674
g524
tp675
Rp676
(I1
(I3
tp677
g563
I00
S'\xc4_\xf9\x03N\xba\x00@R\xfd8\x1fs\r\x1d\xc0\xa1\xe6w68\xd4\x03\xc0'
p678
tp679
bag521
(g522
(I0
tp680
g524
tp681
Rp682
(I1
(I3
tp683
g563
I00
S'S@\xf8l\x95\x08\xf8?\xef\x91If\xa4L\x1e\xc0\x8b\xc5pa\xf4C\x04\xc0'
p684
tp685
bag651
asbsVrectangular_packing_box1
p686
(itrajectory_representation.operator
Operator
p687
(dp688
g510
I01
sg511
(dp689
g513
Vrectangular_packing_box1
p690
ssg515
g516
sg517
(dp691
g519
(lp692
g521
(g522
(I0
tp693
g524
tp694
Rp695
(I1
(I3
tp696
g531
I00
S'Y\xca\xc0\xcf\xd9[\xf0?\xff/#\xddH6\x15\xc0J#\xbeM\xbe$\xf2\xbf'
p697
tp698
bag521
(g522
(I0
tp699
g524
tp700
Rp701
(I1
(I3
tp702
g531
I00
S'J\x87Zb\xfc\x0f\xfa?.\xb0\xcdN\xd7x\x1a\xc0\xb0\xf6\xaa+jH\xfd?'
p703
tp704
bag521
(g522
(I0
tp705
g524
tp706
Rp707
(I1
(I3
tp708
g531
I00
S'&1>0\x8a\x8c\xf9?\x93\x90>\x82\xfb\xec\x1a\xc0\xef\x9c\x19\x05S\xe5\xf8?'
p709
tp710
bag521
(g522
(I0
tp711
g524
tp712
Rp713
(I1
(I3
tp714
g531
I00
S'\x1d\x94\xe3j\xcc\x8c\xe2?\x88U\x1dv\xaaL\x19\xc0Ig\xce\xd5\x1f~\xd3?'
p715
tp716
bag521
(g522
(I0
tp717
g524
tp718
Rp719
(I1
(I3
tp720
g531
I00
S' \x9e1\xd4y}\xf7?\xc2\xaa\x00\x1e\xfa&\x1b\xc0Z\xa2\xbcma\xc2\x01@'
p721
tp722
basg548
I00
ssg549
(lp723
g521
(g522
(I0
tp724
g524
tp725
Rp726
(I1
(I3
tp727
g531
I00
S'\xef\xb88\xa1!D\r@D\x85\xe3\xea\x1bo\x1a\xc0\xbf8e8\xeaT\x06@'
p728
tp729
bag521
(g522
(I0
tp730
g524
tp731
Rp732
(I1
(I3
tp733
g563
I00
S'py\xe7\x92\x10\x1c\x08@_z\xb4M\xdc\xbc\x1b\xc0\xe2\x81s\x12\x81\x12\x08\xc0'
p734
tp735
bag521
(g522
(I0
tp736
g524
tp737
Rp738
(I1
(I3
tp739
g563
I00
S'\xba\x8d\x1a\xa2f&\x03@$\xbc\xba{lE\x1a\xc0172\n\x8c\xab\x03@'
p740
tp741
bag701
asbsVsquare_packing_box2
p742
(itrajectory_representation.operator
Operator
p743
(dp744
g510
I01
sg511
(dp745
g513
Vsquare_packing_box2
p746
ssg515
g516
sg517
(dp747
g519
(lp748
g521
(g522
(I0
tp749
g524
tp750
Rp751
(I1
(I3
tp752
g531
I00
S'1\t\x92\xa7\xc9m\n@S7\x972%\xc9\x16\xc0\xf8\x9b\xdc*{\x0b\x00\xc0'
p753
tp754
bag521
(g522
(I0
tp755
g524
tp756
Rp757
(I1
(I3
tp758
g531
I00
S'\xa5X\x00-\xb8.\x0c@\x9b\x7fr\xb4-Q\x17\xc0\xfc\x89\xd9\xcfC\x19\xfd\xbf'
p759
tp760
bag521
(g522
(I0
tp761
g524
tp762
Rp763
(I1
(I3
tp764
g531
I00
S'\xba\x11\xa9\x12\xb1\xe2\t@\xb7|\xcd.\xab\xeb\x16\xc0\xba\xe3\xa5\xacAJ\x00\xc0'
p765
tp766
bag521
(g522
(I0
tp767
g524
tp768
Rp769
(I1
(I3
tp770
g531
I00
S'\xf6&\xfc\xfe\xab\xf9\x04@ \xcc\xc1_:\n\x1c\xc0\x1a\t\xbfW-\xd7\xee?'
p771
tp772
bag521
(g522
(I0
tp773
g524
tp774
Rp775
(I1
(I3
tp776
g531
I00
S'\x0e\xd3\xad\xc7\x1a}\x02@\x02k&\xf9&\x85\x18\xc0\x88+\x8f\xd2Qq\xe7\xbf'
p777
tp778
basg548
I00
ssg549
(lp779
g521
(g522
(I0
tp780
g524
tp781
Rp782
(I1
(I3
tp783
g531
I00
S'\xef\xb88\xa1!D\r@D\x85\xe3\xea\x1bo\x1a\xc0\xbf8e8\xeaT\x06@'
p784
tp785
bag521
(g522
(I0
tp786
g524
tp787
Rp788
(I1
(I3
tp789
g563
I00
S'\xe5\xb8@X\xe8=\x0e@\\)$S\xc1\xc0\x1c\xc0aK\x8aV`/\x08@'
p790
tp791
bag521
(g522
(I0
tp792
g524
tp793
Rp794
(I1
(I3
tp795
g563
I00
S'\xd3s\x0b\xfa\xdf\xd9\x08@\xc52\xb7\xa7\x86L\x1b\xc0\xca\xe2\x95Rh\xea\xf6?'
p796
tp797
bag769
asbsVsquare_packing_box3
p798
(itrajectory_representation.operator
Operator
p799
(dp800
g510
I01
sg511
(dp801
g513
Vsquare_packing_box3
p802
ssg515
g516
sg517
(dp803
g519
(lp804
g521
(g522
(I0
tp805
g524
tp806
Rp807
(I1
(I3
tp808
g531
I00
S'a\xc8\xacwl\xa9\x05@\x8eL\xa6~\x15\xe6\x1c\xc0\xe1\xc6r\xb24H\xea\xbf'
p809
tp810
bag521
(g522
(I0
tp811
g524
tp812
Rp813
(I1
(I3
tp814
g531
I00
S'9\x1fG5\xaf\r\x0e@\x8c\x1fn\x15\x89\x17 \xc0l\xa7B\x95\x1f/\x01@'
p815
tp816
bag521
(g522
(I0
tp817
g524
tp818
Rp819
(I1
(I3
tp820
g531
I00
S')b<|\xd6D\x05@\xcd\x9b/\xe0\xab\x8c\x1c\xc0\xac-DkM\xdf\xe3\xbf'
p821
tp822
basg548
I00
ssg549
(lp823
g521
(g522
(I0
tp824
g524
tp825
Rp826
(I1
(I3
tp827
g531
I00
S'\xef\xb88\xa1!D\r@D\x85\xe3\xea\x1bo\x1a\xc0\xbf8e8\xeaT\x06@'
p828
tp829
bag521
(g522
(I0
tp830
g524
tp831
Rp832
(I1
(I3
tp833
g563
I00
S'\xe5\xb8@X\xe8=\x0e@\\)$S\xc1\xc0\x1c\xc0aK\x8aV`/\x08@'
p834
tp835
bag521
(g522
(I0
tp836
g524
tp837
Rp838
(I1
(I3
tp839
g563
I00
S'\x80\xa1h\xe4;\xe7\x0c@.&v\x81m7\x1d\xc0C\x06:M\rW\xf8?'
p840
tp841
bag813
asbsVsquare_packing_box1
p842
(itrajectory_representation.operator
Operator
p843
(dp844
g510
I01
sg511
(dp845
g513
Vsquare_packing_box1
p846
ssg515
g516
sg517
(dp847
g519
(lp848
g521
(g522
(I0
tp849
g524
tp850
Rp851
(I1
(I3
tp852
g531
I00
S'\xb8\x9ct\x99Y\x93\x0e@\xa6\x82\x19\x7fa\xb4\x17\xc0\x0c\x07\x97\xeb\xfc\n\x00@'
p853
tp854
bag521
(g522
(I0
tp855
g524
tp856
Rp857
(I1
(I3
tp858
g531
I00
S'\xf0^\xef\x9djg\x0b@\x07\x94\xb6\xd3\x8f~\x18\xc0Bx\x0c\xcbf\xe5\xfe?'
p859
tp860
bag521
(g522
(I0
tp861
g524
tp862
Rp863
(I1
(I3
tp864
g531
I00
S'\xc4\xdc\xf4\xda\x03v\x06@\x94\x18_H\xa8\xe9\x15\xc0D\xab\x1bg,\x98\xe0?'
p865
tp866
basg548
I00
ssg549
(lp867
g521
(g522
(I0
tp868
g524
tp869
Rp870
(I1
(I3
tp871
g531
I00
S'\xef\xb88\xa1!D\r@D\x85\xe3\xea\x1bo\x1a\xc0\xbf8e8\xeaT\x06@'
p872
tp873
bag851
asbsVsquare_packing_box4
p874
(itrajectory_representation.operator
Operator
p875
(dp876
g510
I01
sg511
(dp877
g513
Vsquare_packing_box4
p878
ssg515
g516
sg517
(dp879
g519
(lp880
g521
(g522
(I0
tp881
g524
tp882
Rp883
(I1
(I3
tp884
g531
I00
S'\xb6\xdc\xa0]\xb4\xb3\xed?a\xb9\xcf\x1f\xa8Q\x13\xc0x{\x0cpr\x06\xf8\xbf'
p885
tp886
bag521
(g522
(I0
tp887
g524
tp888
Rp889
(I1
(I3
tp890
g531
I00
S"\xda\xbc\x08\xcd\xa0\xd3\xe8?\x95\xe8\x8e\x11\xcd\xc4\x13\xc0\xf7\xfe\xcd'\xcd\x89\xf6\xbf"
p891
tp892
bag521
(g522
(I0
tp893
g524
tp894
Rp895
(I1
(I3
tp896
g531
I00
S'\xdc4\xec\x12j\xa2\xf1?\x16X\x81\xf7\x02\xe8\x19\xc0\x19\x02n)J!\xf2?'
p897
tp898
basg548
I00
ssg549
(lp899
g521
(g522
(I0
tp900
g524
tp901
Rp902
(I1
(I3
tp903
g531
I00
S'\xef\xb88\xa1!D\r@D\x85\xe3\xea\x1bo\x1a\xc0\xbf8e8\xeaT\x06@'
p904
tp905
bag521
(g522
(I0
tp906
g524
tp907
Rp908
(I1
(I3
tp909
g563
I00
S'py\xe7\x92\x10\x1c\x08@_z\xb4M\xdc\xbc\x1b\xc0\xe2\x81s\x12\x81\x12\x08\xc0'
p910
tp911
bag521
(g522
(I0
tp912
g524
tp913
Rp914
(I1
(I3
tp915
g563
I00
S'\xc2Fo\n7\x11\x03@\xb6=Ya.\xe0\x1a\xc0,\x0b\x04&"Y\x07\xc0'
p916
tp917
bag521
(g522
(I0
tp918
g524
tp919
Rp920
(I1
(I3
tp921
g563
I00
S'JyH\x8ez\xd6\xfa?\xb3\xf7h\x83\xea\xba\x1a\xc0u\xf9Uf\xb7m\xe0?'
p922
tp923
bag895
asbssS'use_prm'
p924
I01
sS'object_names'
p925
(lp926
S'square_packing_box1'
p927
aS'rectangular_packing_box1'
p928
aS'square_packing_box2'
p929
aS'rectangular_packing_box2'
p930
aS'square_packing_box3'
p931
aS'rectangular_packing_box3'
p932
aS'square_packing_box4'
p933
aS'rectangular_packing_box4'
p934
asg7
NsS'current_holding_collides'
p935
(dp936
Vrectangular_packing_box4
p937
c__builtin__
set
p938
((lp939
tp940
Rp941
sVrectangular_packing_box2
p942
g938
((lp943
I256
aI514
aI449
aI268
aI194
aI219
aI145
aI146
aI538
aI413
aI35
aI36
aI37
aI422
aI220
aI556
aI302
aI303
aI561
aI178
aI179
aI54
aI55
aI443
aI188
aI62
aI63
aI64
aI65
aI66
aI67
aI68
aI69
aI435
aI577
aI205
aI79
aI80
aI210
aI595
aI215
aI89
aI90
aI91
aI92
aI605
aI611
aI550
aI438
aI444
aI114
aI115
aI372
aI376
aI511
atp944
Rp945
sVrectangular_packing_box3
p946
g938
((lp947
I384
aI257
aI133
aI134
aI135
aI136
aI265
aI394
aI580
aI532
aI153
aI154
aI157
aI158
aI159
aI164
aI433
aI564
aI521
aI575
aI452
aI197
aI583
aI328
aI589
aI83
aI346
aI478
aI356
aI229
aI366
aI502
aI121
aI122
atp948
Rp949
sVrectangular_packing_box1
p950
g938
((lp951
I554
aI4
aI5
aI137
aI132
aI517
aI416
aI161
aI34
aI35
aI42
aI43
aI301
aI584
aI178
aI309
aI310
aI55
aI56
aI570
aI187
aI449
aI459
aI70
aI71
aI456
aI201
aI202
aI203
aI162
aI82
aI163
aI84
aI597
aI89
aI92
aI93
aI94
aI607
aI327
aI484
aI233
aI106
aI107
aI108
aI497
aI595
aI379
aI252
aI362
atp952
Rp953
sVsquare_packing_box2
p954
g938
((lp955
I2
aI3
aI577
aI268
aI435
aI144
aI403
aI453
aI91
aI548
aI37
aI550
aI39
aI348
aI555
aI370
aI302
aI303
aI304
aI561
aI178
aI307
aI54
aI442
aI62
aI63
aI193
aI194
aI438
aI457
aI376
aI210
aI342
aI343
aI89
aI90
aI219
aI220
aI605
aI425
aI612
aI367
aI114
aI500
aI247
aI248
aI377
aI378
aI381
aI511
atp956
Rp957
sVsquare_packing_box3
p958
g938
((lp959
I513
aI386
aI387
aI260
aI269
aI270
aI515
aI405
aI280
aI436
aI565
aI440
aI442
aI573
aI193
aI68
aI210
aI339
aI340
aI213
aI220
aI479
aI354
aI613
aI614
aI111
aI112
aI113
aI211
aI245
aI375
aI212
aI381
aI254
aI255
atp960
Rp961
sVsquare_packing_box1
p962
g938
((lp963
I0
aI1
aI546
aI454
aI545
aI393
aI555
aI541
aI144
aI369
aI370
aI371
aI342
aI377
aI378
aI571
aI474
atp964
Rp965
sVsquare_packing_box4
p966
g938
((lp967
I235
aI132
aI517
aI6
aI8
aI301
aI554
aI404
aI416
aI33
aI34
aI607
aI584
aI42
aI43
aI44
aI45
aI456
aI309
aI56
aI186
aI187
aI189
aI459
aI196
aI71
aI72
aI203
aI162
aI595
aI84
aI93
aI94
aI95
aI327
aI484
aI233
aI106
aI107
aI108
aI445
aI497
aI503
aI252
aI234
aI383
atp968
Rp969
ssS'reachable_regions_while_holding'
p970
(lp971
(g507
g15
tp972
a(g586
g15
tp973
a(g630
g15
tp974
a(g686
g15
tp975
a(g742
g15
tp976
a(g798
g15
tp977
a(g842
g15
tp978
a(g874
g15
tp979
a(g507
g11
tp980
a(g798
g11
tp981
a(g874
g11
tp982
asS'object_poses'
p983
(dp984
Vrectangular_packing_box4
p985
g521
(g522
(I0
tp986
g524
tp987
Rp988
(I1
(I1
I3
tp989
g531
I00
S'x\x1e]pS`\xd2?\x12\x1b\xb6\xe9Ei\x18\xc0\x82\x97\xe8\xa1t:\xe4?'
p990
tp991
bsVrectangular_packing_box2
p992
g521
(g522
(I0
tp993
g524
tp994
Rp995
(I1
(I1
I3
tp996
g531
I00
S'x#\x8a\xa8\xbfB\x02@]@\xdd\xaa0\xf7\x1a\xc0\xa2\x93\xe4\xf2\xe3\x8f\xe0?'
p997
tp998
bsVrectangular_packing_box3
p999
g521
(g522
(I0
tp1000
g524
tp1001
Rp1002
(I1
(I1
I3
tp1003
g531
I00
S'\xac\xa7$/\t\xb1\xb0?y\xd9\xd7\x88y7\x1e\xc0\xa1\xa8\xa4gcb\x12@'
p1004
tp1005
bsVrectangular_packing_box1
p1006
g521
(g522
(I0
tp1007
g524
tp1008
Rp1009
(I1
(I1
I3
tp1010
g531
I00
S'\xf71, \xdaJ\xf5?\x8f\x94\xc7_\x9e4\x18\xc0\x88,&\x8ck,\x0b@'
p1011
tp1012
bsVsquare_packing_box2
p1013
g521
(g522
(I0
tp1014
g524
tp1015
Rp1016
(I1
(I1
I3
tp1017
g531
I00
S'4\xfb\xe1r\xc9\x03\x08@\xceTI\xe01\x8e\x19\xc05\xb7(\x17?\xde\xef?'
p1018
tp1019
bsVsquare_packing_box3
p1020
g521
(g522
(I0
tp1021
g524
tp1022
Rp1023
(I1
(I1
I3
tp1024
g531
I00
S',\xc7\x84Ad\xa3\n@\xaa\xaf\xb2\x18;\x05\x1e\xc0j8\xf9\x85\xb6\xac\x0f@'
p1025
tp1026
bsVsquare_packing_box1
p1027
g521
(g522
(I0
tp1028
g524
tp1029
Rp1030
(I1
(I1
I3
tp1031
g531
I00
S'\x05\xcf\x19\xc3\xf23\x0c@\x8b\xb5r\xad\x0f?\x15\xc0\xbe~a\xe9h\n\x13@'
p1032
tp1033
bsVsquare_packing_box4
p1034
g521
(g522
(I0
tp1035
g524
tp1036
Rp1037
(I1
(I1
I3
tp1038
g531
I00
S'\x8b\xce\xcef\xfe\xbb\xf0?L@\xfc\xa1\x9e\xc0\x16\xc0\xaeKe\x14U\xf8\x13@'
p1039
tp1040
bssS'place_in_way'
p1041
(itrajectory_representation.predicates.place_in_way
PlaceInWay
p1042
(dp1043
S'mc_path_to_entity'
p1044
(dp1045
(g14
g11
tp1046
(lp1047
g521
(g522
(I0
tp1048
g524
tp1049
Rp1050
(I1
(I3
tp1051
g531
I00
S'\xb7\x9ct\x99Y\x93\x0e@\xa2\x82\x19\x7fa\xb4\x17\xc0\x0c\x07\x97\xeb\xfc\n\x00@'
p1052
tp1053
bag521
(g522
(I0
tp1054
g524
tp1055
Rp1056
(I1
(I3
tp1057
g563
I00
S'\xcb\x1a\x84\x1d\\\x9c\x08@\xec\xcbi\xc9#;\x18\xc0\xbf\xf24g\x02T\x05@'
p1058
tp1059
bag521
(g522
(I0
tp1060
g524
tp1061
Rp1062
(I1
(I3
tp1063
g563
I00
S'\xf8d\x877\x12\xfd\x04@h\xdbW\x9a\x83\x8e\x16\xc0\x87\xf16\xb9\x03k\x05@'
p1064
tp1065
bag521
(g522
(I0
tp1066
g524
tp1067
Rp1068
(I1
(I3
tp1069
g563
I00
S'\xc7\xc7\x06s\xd6\xa3\xff?3\x91\xe4\x97\xb5\x07\x16\xc0\x1bW\xbc\xbfY:\x06@'
p1070
tp1071
bag521
(g522
(I0
tp1072
g524
tp1073
Rp1074
(I1
(I3
tp1075
g563
I00
S'\x85\\2\xba\x0b5\xf5?I\r\x06\xd10\xfb\x15\xc0\x9e\x11\xee\xd8\xb9\xd7\xf5?'
p1076
tp1077
bag521
(g522
(I0
tp1078
g524
tp1079
Rp1080
(I1
(I3
tp1081
g563
I00
S'v\xb8^\x85\xa7[\xea?x\xbe\xff2t\x8d\x13\xc0\x88\x85\x8cCyH\xf6?'
p1082
tp1083
bag521
(g522
(I0
tp1084
g524
tp1085
Rp1086
(I1
(I3
tp1087
g563
I00
S'\xc2\xda(e\x83\x1a\xeb?\x8au\x8d3\xa6E\x11\xc0\xb4c\x1b\xed_\xfd\xfa?'
p1088
tp1089
bag521
(g522
(I0
tp1090
g524
tp1091
Rp1092
(I1
(I3
tp1093
g563
I00
S'\xe4u**\x0e5\xe9?\xaa\xfd\r\xed\xc4\xf6\r\xc0\x0fDE0\x1f\x0b\xfe?'
p1094
tp1095
bag521
(g522
(I0
tp1096
g524
tp1097
Rp1098
(I1
(I3
tp1099
g563
I00
S'\x06\x11,\xef\x98O\xe7??\x10\x01s=b\t\xc04\x92\xb79o\x8c\x00@'
p1100
tp1101
bag521
(g522
(I0
tp1102
g524
tp1103
Rp1104
(I1
(I3
tp1105
g563
I00
S'\x92\xaf\xf3P\x96O\xc2?(\xa1:\x8er}\x05\xc0\xd4_\x91\xb3\xffL\x02@'
p1106
tp1107
bas(g10
g11
tp1108
(lp1109
g521
(g522
(I0
tp1110
g524
tp1111
Rp1112
(I1
(I3
tp1113
g531
I00
S'\x8e\x07\xbd)b\xbe\xfb?\n\x85t\x92\x153\x18\xc0\xb00\xe9\xb77m\x17@'
p1114
tp1115
bag521
(g522
(I0
tp1116
g524
tp1117
Rp1118
(I1
(I3
tp1119
g563
I00
S'2Z\xe1\xe97J\xf6?\\\x1e`@2v\x16\xc0\xc4\x0c\xcc\x14<\xf9\xf6\xbf'
p1120
tp1121
bag521
(g522
(I0
tp1122
g524
tp1123
Rp1124
(I1
(I3
tp1125
g563
I00
S'tx\x8as\xa8b\xed?\x9ej\x15\xfa\xf0{\x15\xc0@\xed\x9a-\x9eD\xf2\xbf'
p1126
tp1127
bag521
(g522
(I0
tp1128
g524
tp1129
Rp1130
(I1
(I3
tp1131
g563
I00
S"\xb2&6mg)\xe8?\x99\xe0G'\x16\xe0\x13\xc0\xc8oL\xf5\x17p\xe6\xbf"
p1132
tp1133
bag521
(g522
(I0
tp1134
g524
tp1135
Rp1136
(I1
(I3
tp1137
g563
I00
S'`\xc8Aw-\x81\xeb?/\xc3\xe6O\x04\xca\x10\xc0\x8a\xb7K)\x91{\xe4\xbf'
p1138
tp1139
bag521
(g522
(I0
tp1140
g524
tp1141
Rp1142
(I1
(I3
tp1143
g563
I00
S'\xe1\xc6\xc7\xa7\x12X\xe7?\x98\x99\xb0\x9a\xfb\xdb\x0b\xc0R\t\x1b)\xeae\xe0\xbf'
p1144
tp1145
bag521
(g522
(I0
tp1146
g524
tp1147
Rp1148
(I1
(I3
tp1149
g563
I00
S'p\xf1\xbdc^\x84\xf1?"\x88LL\xf9D\x06\xc0~w\r\xe9m\x0f\x19@'
p1150
tp1151
bas(g30
g11
tp1152
(lp1153
g521
(g522
(I0
tp1154
g524
tp1155
Rp1156
(I1
(I3
tp1157
g531
I00
S'\xe0\xfb\xaaE\x8f\xc1\xe5?\xb9\xa6\xc5gY\x12\x1f\xc0])%M\x96\x93\x08@'
p1158
tp1159
bag521
(g522
(I0
tp1160
g524
tp1161
Rp1162
(I1
(I3
tp1163
g563
I00
S'\xd23W\xd6\xdd\xe3\xe6?\xdc\xcai,~\xa9\x1c\xc0\xe4\x03\x93/\x16_\x04\xc0'
p1164
tp1165
bag521
(g522
(I0
tp1166
g524
tp1167
Rp1168
(I1
(I3
tp1169
g563
I00
S'\xf8\xfc\x1a\xd0\xc9l\xe8?\x8a\x897\x8e~\x98\x1a\xc0\xaf\xf7\xb87\xc6\xa7\x01\xc0'
p1170
tp1171
bag521
(g522
(I0
tp1172
g524
tp1173
Rp1174
(I1
(I3
tp1175
g563
I00
S"\xc6'8AN\xb0\xec?\xe0\x975>\x0f\x03\x19\xc0(\xe0e;\x85\x89\x05\xc0"
p1176
tp1177
bag521
(g522
(I0
tp1178
g524
tp1179
Rp1180
(I1
(I3
tp1181
g563
I00
S'\xd0\xcb\x13\x8f\xaa\x9d\xed?\x90\x01<]3\x06\x16\xc0F\xf1\xe7x32\x02\xc0'
p1182
tp1183
bag521
(g522
(I0
tp1184
g524
tp1185
Rp1186
(I1
(I3
tp1187
g563
I00
S'l[\xc4\x16<\xe6\xe9?\xa6\xa0\x90\x84X\x9f\x13\xc0\xc2\xd74Q\x00\xaf\xff\xbf'
p1188
tp1189
bag521
(g522
(I0
tp1190
g524
tp1191
Rp1192
(I1
(I3
tp1193
g563
I00
S"\xaeJ\xbd\x1936\xec?\x04\x13\xd4'\x9f\x88\x10\xc0\x805qo\xb6\xe6\xff\xbf"
p1194
tp1195
bag521
(g522
(I0
tp1196
g524
tp1197
Rp1198
(I1
(I3
tp1199
g563
I00
S'\xf09\xb6\x1c*\x86\xee?\xc4\n/\x96\xcb\xe3\n\xc0\xa0\xc9\xd6F6\x0f\x00\xc0'
p1200
tp1201
bag521
(g522
(I0
tp1202
g524
tp1203
Rp1204
(I1
(I3
tp1205
g563
I00
S'3\xe9\xaf\x05T\x89\xe7?+~\xcb\xd3\x15\xc7\x04\xc0x6(d5\xed\x07@'
p1206
tp1207
bas(g19
g11
tp1208
(lp1209
g521
(g522
(I0
tp1210
g524
tp1211
Rp1212
(I1
(I3
tp1213
g531
I00
S'U\xca\xc0\xcf\xd9[\xf0?\xfa/#\xddH6\x15\xc0F\xa4\xd4\xc0\xcb\x98\x14@'
p1214
tp1215
bag521
(g522
(I0
tp1216
g524
tp1217
Rp1218
(I1
(I3
tp1219
g563
I00
S'\xb0E\xbb;Cb\xeb?\x9e\xde\xa7\xdd\xbdd\x12\xc0\xc6\xee\xbd\x16\x8c\xaa\xf3\xbf'
p1220
tp1221
bag521
(g522
(I0
tp1222
g524
tp1223
Rp1224
(I1
(I3
tp1225
g563
I00
S'`\xc8Aw-\x81\xeb?/\xc3\xe6O\x04\xca\x10\xc0\x8a\xb7K)\x91{\xe4\xbf'
p1226
tp1227
bag521
(g522
(I0
tp1228
g524
tp1229
Rp1230
(I1
(I3
tp1231
g563
I00
S'\xe1\xc6\xc7\xa7\x12X\xe7?\x98\x99\xb0\x9a\xfb\xdb\x0b\xc0R\t\x1b)\xeae\xe0\xbf'
p1232
tp1233
bag521
(g522
(I0
tp1234
g524
tp1235
Rp1236
(I1
(I3
tp1237
g563
I00
S'p\xf1\xbdc^\x84\xf1?"\x88LL\xf9D\x06\xc0~w\r\xe9m\x0f\x19@'
p1238
tp1239
bas(g22
g11
tp1240
(lp1241
g521
(g522
(I0
tp1242
g524
tp1243
Rp1244
(I1
(I3
tp1245
g531
I00
S'-\t\x92\xa7\xc9m\n@S7\x972%\xc9\x16\xc0\x1c\xdf\xd5\xbe=\x1c\x11@'
p1246
tp1247
bag521
(g522
(I0
tp1248
g524
tp1249
Rp1250
(I1
(I3
tp1251
g563
I00
S'nv\xf9k\xe2Y\x05@\xbf\xa3\xf80pj\x16\xc0\x85\x14\xd6\xdd\x83\x18\x04\xc0'
p1252
tp1253
bag521
(g522
(I0
tp1254
g524
tp1255
Rp1256
(I1
(I3
tp1257
g563
I00
S'_\x1fd\x97D>\x00@W\xf2\x9b\xb2\x92\xd8\x15\xc0\x99\xbc\xd43\xf6\xfa\x08\xc0'
p1258
tp1259
bag521
(g522
(I0
tp1260
g524
tp1261
Rp1262
(I1
(I3
tp1263
g563
I00
S'R\x12);\xaf\xa5\xf7?\xf3\xf9\xeb\x07c\xef\x15\xc0\xf0V^\xd6\x94\x96\x05\xc0'
p1264
tp1265
bag521
(g522
(I0
tp1266
g524
tp1267
Rp1268
(I1
(I3
tp1269
g563
I00
S'\xd0\xcb\x13\x8f\xaa\x9d\xed?\x90\x01<]3\x06\x16\xc0F\xf1\xe7x32\x02\xc0'
p1270
tp1271
bag521
(g522
(I0
tp1272
g524
tp1273
Rp1274
(I1
(I3
tp1275
g563
I00
S'l[\xc4\x16<\xe6\xe9?\xa6\xa0\x90\x84X\x9f\x13\xc0\xc2\xd74Q\x00\xaf\xff\xbf'
p1276
tp1277
bag521
(g522
(I0
tp1278
g524
tp1279
Rp1280
(I1
(I3
tp1281
g563
I00
S"\xaeJ\xbd\x1936\xec?\x04\x13\xd4'\x9f\x88\x10\xc0\x805qo\xb6\xe6\xff\xbf"
p1282
tp1283
bag521
(g522
(I0
tp1284
g524
tp1285
Rp1286
(I1
(I3
tp1287
g563
I00
S'\xf09\xb6\x1c*\x86\xee?\xc4\n/\x96\xcb\xe3\n\xc0\xa0\xc9\xd6F6\x0f\x00\xc0'
p1288
tp1289
bag521
(g522
(I0
tp1290
g524
tp1291
Rp1292
(I1
(I3
tp1293
g563
I00
S'3\xe9\xaf\x05T\x89\xe7?+~\xcb\xd3\x15\xc7\x04\xc0x6(d5\xed\x07@'
p1294
tp1295
bassS'mc_to_entity'
p1296
(dp1297
(g14
g11
tp1298
(lp1299
Vsquare_packing_box2
p1300
aVrectangular_packing_box1
p1301
aVsquare_packing_box4
p1302
as(g10
g11
tp1303
(lp1304
Vrectangular_packing_box1
p1305
aVsquare_packing_box4
p1306
aVrectangular_packing_box4
p1307
as(g30
g11
tp1308
(lp1309
Vrectangular_packing_box1
p1310
aVsquare_packing_box4
p1311
aVrectangular_packing_box4
p1312
as(g19
g11
tp1313
(lp1314
Vsquare_packing_box4
p1315
as(g22
g11
tp1316
(lp1317
Vsquare_packing_box1
p1318
aVsquare_packing_box4
p1319
aVrectangular_packing_box1
p1320
aVrectangular_packing_box4
p1321
assS'reachable_entities'
p1322
(lp1323
g842
asS'collides'
p1324
(dp1325
Vrectangular_packing_box4
p1326
g938
((lp1327
I491
aI132
aI517
aI6
aI137
aI138
aI139
aI276
aI152
aI153
aI154
aI157
aI417
aI34
aI547
aI165
aI166
aI424
aI553
aI584
aI521
aI196
aI198
aI456
aI518
aI459
aI338
aI84
aI349
aI350
aI351
aI362
aI107
aI108
aI503
aI249
aI252
aI383
atp1328
Rp1329
sVrectangular_packing_box2
p1330
g938
((lp1331
I256
aI577
aI268
aI194
aI145
aI538
aI413
aI219
aI36
aI37
aI422
aI220
aI561
aI178
aI179
aI54
aI443
aI188
aI63
aI64
aI65
aI66
aI69
aI435
aI205
aI79
aI80
aI595
aI215
aI89
aI90
aI91
aI92
aI444
aI114
aI115
aI376
aI511
atp1332
Rp1333
sVrectangular_packing_box3
p1334
g938
((lp1335
I384
aI257
aI134
aI265
aI394
aI532
aI580
aI158
aI159
aI164
aI433
aI564
aI575
aI452
aI583
aI328
aI589
aI83
aI478
aI356
aI229
aI366
aI502
atp1336
Rp1337
sVrectangular_packing_box1
p1338
g938
((lp1339
I4
aI5
aI137
aI132
aI416
aI161
aI34
aI35
aI554
aI43
aI301
aI584
aI309
aI310
aI55
aI56
aI570
aI187
aI449
aI70
aI327
aI456
aI201
aI202
aI203
aI162
aI595
aI84
aI597
aI93
aI94
aI607
aI484
aI233
aI106
aI107
aI108
aI497
aI252
atp1340
Rp1341
sVsquare_packing_box2
p1342
g938
((lp1343
I268
aI435
aI144
aI403
aI548
aI37
aI550
aI39
aI220
aI302
aI303
aI561
aI178
aI307
aI54
aI442
aI62
aI63
aI577
aI194
aI438
aI376
aI210
aI342
aI343
aI89
aI90
aI348
aI605
aI425
aI612
aI367
aI114
aI500
aI247
aI248
aI377
aI511
atp1344
Rp1345
sVsquare_packing_box3
p1346
g938
((lp1347
I513
aI386
aI260
aI269
aI270
aI405
aI280
aI436
aI565
aI440
aI573
aI193
aI68
aI210
aI339
aI340
aI213
aI479
aI354
aI613
aI614
aI111
aI112
aI113
aI211
aI245
aI375
aI212
aI381
aI254
aI255
atp1348
Rp1349
sVsquare_packing_box1
p1350
g938
((lp1351
I0
aI1
aI546
aI454
aI555
aI369
aI370
aI371
aI342
aI378
aI571
aI541
atp1352
Rp1353
sVsquare_packing_box4
p1354
g938
((lp1355
I235
aI132
aI517
aI8
aI416
aI33
aI34
aI607
aI554
aI43
aI44
aI301
aI584
aI56
aI186
aI187
aI459
aI196
aI71
aI456
aI203
aI162
aI84
aI93
aI94
aI95
aI327
aI484
aI233
aI234
aI107
aI108
aI497
aI252
aI106
atp1356
Rp1357
ssg2
g3
sg505
g506
sS'mc_paths'
p1358
(dp1359
sS'robot'
p1360
NsS'reachable_obj_region_pairs'
p1361
(lp1362
sS'sampled_pick_configs_for_objects'
p1363
(dp1364
sS'mc_calls'
p1365
I0
sS'pick_poses'
p1366
g506
sg7
NsS'evaluations'
p1367
(dp1368
(g22
g23
g11
tp1369
I01
s(g22
g46
g11
tp1370
I00
s(g22
g10
g11
tp1371
I00
s(g10
g22
g11
tp1372
I00
s(g22
g19
g11
tp1373
I01
s(g22
g30
g11
tp1374
I00
s(g22
g14
g11
tp1375
I01
s(g30
g22
g11
tp1376
I00
s(g22
g33
g11
tp1377
I01
s(g14
g22
g11
tp1378
I01
s(g19
g22
g11
tp1379
I00
ssS'paths_to_reachable_entities'
p1380
NsS'use_shortest_path'
p1381
I01
sbsS'cached_pick_paths'
p1382
(dp1383
g507
g550
sg586
g611
sg630
g655
sg686
g723
sg742
g779
sg798
g823
sg842
g867
sg874
g899
ssg1324
(dp1384
(Vsquare_packing_box4
p1385
(cnumpy.core.multiarray
scalar
p1386
(g531
S'\x90\xc0\x1f~\xfe\xbb\xf0?'
p1387
tp1388
Rp1389
g1386
(g531
S'8\xdb\xdc\x98\x9e\xc0\x16\xc0'
p1390
tp1391
Rp1392
g1386
(g531
S'\xda\x8c\xd3\x10U\xf8\x13@'
p1393
tp1394
Rp1395
tp1396
tp1397
g1357
s(Vrectangular_packing_box2
p1398
(g1386
(g531
S'\xce\xe30\x98\xbfB\x02@'
p1399
tp1400
Rp1401
g1386
(g531
S'\xf9hq\xc60\xf7\x1a\xc0'
p1402
tp1403
Rp1404
g1386
(g531
S'V\xbc\x91y\xe4\x8f\xe0?'
p1405
tp1406
Rp1407
tp1408
tp1409
g1333
s(Vrectangular_packing_box3
p1410
(g1386
(g531
S'{\x9f\xaaB\x03\xb1\xb0?'
p1411
tp1412
Rp1413
g1386
(g531
S'\x0f\x0b\xb5\xa6y7\x1e\xc0'
p1414
tp1415
Rp1416
g1386
(g531
S'\xe5\xef\xdeQcb\x12@'
p1417
tp1418
Rp1419
tp1420
tp1421
g1337
s(Vrectangular_packing_box4
p1422
(g1386
(g531
S'}\xec.PR`\xd2?'
p1423
tp1424
Rp1425
g1386
(g531
S'\x8fT\xdf\xf9Ei\x18\xc0'
p1426
tp1427
Rp1428
g1386
(g531
S'\xe8\xf9\xd3Fu:\xe4?'
p1429
tp1430
Rp1431
tp1432
tp1433
g1329
s(Vsquare_packing_box3
p1434
(g1386
(g531
S'\xc7\xbc\x8e8d\xa3\n@'
p1435
tp1436
Rp1437
g1386
(g531
S'\xb8\xca\x13\x08;\x05\x1e\xc0'
p1438
tp1439
Rp1440
g1386
(g531
S'\xde\xc9\xa7\xc7\xb6\xac\x0f@'
p1441
tp1442
Rp1443
tp1444
tp1445
g1349
s(Vsquare_packing_box1
p1446
(g1386
(g531
S'N\xb4\xab\x90\xf23\x0c@'
p1447
tp1448
Rp1449
g1386
(g531
S'Q\xf5+\x9d\x0f?\x15\xc0'
p1450
tp1451
Rp1452
g1386
(g531
S'\xe2\x1f\xb6\xf4h\n\x13@'
p1453
tp1454
Rp1455
tp1456
tp1457
g1353
s(Vsquare_packing_box2
p1458
(g1386
(g531
S'\x10>\x94h\xc9\x03\x08@'
p1459
tp1460
Rp1461
g1386
(g531
S'\xec\xa0\x12\xd71\x8e\x19\xc0'
p1462
tp1463
Rp1464
g1386
(g531
S'\x03\xb2\xd7\xbb?\xde\xef?'
p1465
tp1466
Rp1467
tp1468
tp1469
g1345
s(Vrectangular_packing_box1
p1470
(g1386
(g531
S'\xa8\xdf\x85\xad\xd9J\xf5?'
p1471
tp1472
Rp1473
g1386
(g531
S'\x14\x05\xfaD\x9e4\x18\xc0'
p1474
tp1475
Rp1476
g1386
(g531
S'\xb13\x85\xcek,\x0b@'
p1477
tp1478
Rp1479
tp1480
tp1481
g1341
ssS'state_saver'
p1482
(igtamp_utils.utils
CustomStateSaver
p1483
(dp1484
S'robot_base_pose'
p1485
g521
(g522
(I0
tp1486
g524
tp1487
Rp1488
(I1
(I1
I3
tp1489
g531
I00
S'\xec\xb88\xa1!D\r@@\x85\xe3\xea\x1bo\x1a\xc0\xbf8e8\xeaT\x06@'
p1490
tp1491
bsS'held_object'
p1492
NsS'robot_name'
p1493
S'pr2'
p1494
sS'env_id'
p1495
I1
sg983
(dp1496
Vright_wall_1
p1497
g521
(g522
(I0
tp1498
g524
tp1499
Rp1500
(I1
(I4
tp1501
g531
I00
S'H\xe1z\x14\xaeG\x12@&\\\x8f\xc2\xf5(\xd4\xbf\xcc\x7fH\xbf}\x1d\xed?\x00\x00\x00\x00\x00\x00\x00\x00'
p1502
tp1503
bsVc_obst5
p1504
g521
(g522
(I0
tp1505
g524
tp1506
Rp1507
(I1
(I4
tp1508
g531
I00
S"\x9a\xf1q\xbb~\xea\x11@\x1a8\xbb\xd6O\xb6\xd4?e\xaa`TR'\xed?\xd2\x93\xb1\x82\xa4\x94\x0b@"
p1509
tp1510
bsVentrance_right
p1511
g521
(g522
(I0
tp1512
g524
tp1513
Rp1514
(I1
(I4
tp1515
g531
I00
S'ffffff\n@H\xe1z\x14\xaeG\t\xc0\x9c\xc4 \xb0rh\xc1?\x00\x00\x00\x00\x00\x00\x00\x00'
p1516
tp1517
bsVcomputer_table
p1518
g521
(g522
(I0
tp1519
g524
tp1520
Rp1521
(I1
(I4
tp1522
g531
I00
S'\x00\x00\x00\x00\x00\x00\x13@\x00\x00\x00\x00\x00\x00\xf8\xbf\x96C\x8bl\xe7\xfb\xe7?\xd2!3\x7f|\xd9\x12@'
p1523
tp1524
bsVchair_6b56
p1525
g521
(g522
(I0
tp1526
g524
tp1527
Rp1528
(I1
(I4
tp1529
g531
I00
S'}=\n\xd7\xa3p\xf5?O\xe1z\x14\xaeG\xd1?\x00\x00\x00\x00\x00\x00\x00\x00\xd6$\xfaNBm\n@'
p1530
tp1531
bsVsquare_packing_box3
p1532
g521
(g522
(I0
tp1533
g524
tp1534
Rp1535
(I1
(I4
tp1536
g531
I00
S'1\xc7\x84Ad\xa3\n@\xb1\xaf\xb2\x18;\x05\x1e\xc0L7\x89A`\xe5\xd8?j8\xf9\x85\xb6\xac\x0f@'
p1537
tp1538
bsVsquare_packing_box2
p1539
g521
(g522
(I0
tp1540
g524
tp1541
Rp1542
(I1
(I4
tp1543
g531
I00
S'3\xfb\xe1r\xc9\x03\x08@\xd0TI\xe01\x8e\x19\xc0O7\x89A`\xe5\xd8?5\xb7(\x17?\xde\xef?'
p1544
tp1545
bsVtable
p1546
g521
(g522
(I0
tp1547
g524
tp1548
Rp1549
(I1
(I4
tp1550
g531
I00
S'\x7f\xf6#EdX\xed?\xac\xffs\x98//\xc0\xbf\x00\x00\x00\x00\x00\x00\x00\x00\x00\x00\x00\x00\x00\x00\x00\x00'
p1551
tp1552
bsVsquare_packing_box1
p1553
g521
(g522
(I0
tp1554
g524
tp1555
Rp1556
(I1
(I4
tp1557
g531
I00
S'\x08\xcf\x19\xc3\xf23\x0c@\x8a\xb5r\xad\x0f?\x15\xc0L7\x89A`\xe5\xd8?\xbf~a\xe9h\n\x13@'
p1558
tp1559
bsVback_wall_2
p1560
g521
(g522
(I0
tp1561
g524
tp1562
Rp1563
(I1
(I4
tp1564
g531
I00
S'\xaeG\xe1z\x14.\x13@\x80\x14\xaeG\xe1z\xc4?xX\xa85\xcd\xbb\xf2?\x00\x00\x00\x00\x00\x00\x00\x00'
p1565
tp1566
bsVchair_083c
p1567
g521
(g522
(I0
tp1568
g524
tp1569
Rp1570
(I1
(I4
tp1571
g531
I00
S'\xa4p=\n\xd7\xa3\xe0?333333\xe3\xbf\x00\x00\x00\x00\x00\x00\x00\x00\x00\x00\x00\x00\x00\x00\x00\x00'
p1572
tp1573
bsVback_wall_1
p1574
g521
(g522
(I0
tp1575
g524
tp1576
Rp1577
(I1
(I4
tp1578
g531
I00
S'\xaeG\xe1z\x14.\x13@\x80\x14\xaeG\xe1z\xc4?\xcc\x7fH\xbf}\x1d\xed?\x00\x00\x00\x00\x00\x00\x00\x00'
p1579
tp1580
bsVbottom_wall
p1581
g521
(g522
(I0
tp1582
g524
tp1583
Rp1584
(I1
(I4
tp1585
g531
I00
S'\x00\x00\x00\x00\x00\x00\xfc?\x00\x00\x00\x00\x00\x00\x00\x00\x00\x00\x00\x00\x00\x00\x00\x00\x00\x00\x00\x00\x00\x00\x00\x00'
p1586
tp1587
bsVcup_905a
p1588
g521
(g522
(I0
tp1589
g524
tp1590
Rp1591
(I1
(I4
tp1592
g531
I00
S'\x00\x00\x00\x00\x00\x00\xf0?\x83\xc0\xca\xa1E\xb6\xdb?\x1b/\xdd$\x06\x81\xed?\x00\x00\x00\x00\x00\x00\x00\x00'
p1593
tp1594
bsVplate_496f
p1595
g521
(g522
(I0
tp1596
g524
tp1597
Rp1598
(I1
(I4
tp1599
g531
I00
S"q=\n\xd7\xa3p\xe5?\x9dhW!\xe5'\xdd\xbf\x1b/\xdd$\x06\x81\xed?\x00\x00\x00\x00\x00\x00\x00\x00"
p1600
tp1601
bsVtoaster
p1602
g521
(g522
(I0
tp1603
g524
tp1604
Rp1605
(I1
(I4
tp1606
g531
I00
S')\\\x8f\xc2\xf5(\xf4\xbf\xe0z\x14\xaeG\xe1\xf2\xbf\xb8\x1e\x85\xebQ\xb8\xee?\x89/`\x9b\xf8\x8a\xe4?'
p1607
tp1608
bsVc_obst1
p1609
g521
(g522
(I0
tp1610
g524
tp1611
Rp1612
(I1
(I4
tp1613
g531
I00
S"\xf7$\x95\xf6\x8a4\x12@\x11\xc3S\xe6\xc1\xef\xd7?e\xaa`TR'\xed?\xe0\xbaL\x80\x10\xb3\t@"
p1614
tp1615
bsVrectangular_packing_box4
p1616
g521
(g522
(I0
tp1617
g524
tp1618
Rp1619
(I1
(I4
tp1620
g531
I00
S'\x88\x1e]pS`\xd2?\x14\x1b\xb6\xe9Ei\x18\xc0L7\x89A`\xe5\xd8?\x82\x97\xe8\xa1t:\xe4?'
p1621
tp1622
bsVmicrowave
p1623
g521
(g522
(I0
tp1624
g524
tp1625
Rp1626
(I1
(I4
tp1627
g531
I00
S'\x9a\x99\x99\x99\x99\x99\xf1\xbf\x00\x00\x00\x00\x00\x00\x00@7\x89A`\xe5\xd0\xee?\x00\x00\x00\x00\x00\x00\x00\x00'
p1628
tp1629
bsVc_obst7
p1630
g521
(g522
(I0
tp1631
g524
tp1632
Rp1633
(I1
(I4
tp1634
g531
I00
S"\xfc\x81=\xfa]F\x12@Rf\x922\x8f\r\xdc?e\xaa`TR'\xed?\xa1F+\x03Yi}?"
p1635
tp1636
bsVc_obst6
p1637
g521
(g522
(I0
tp1638
g524
tp1639
Rp1640
(I1
(I4
tp1641
g531
I00
S"\xfc\x9a\x11\x01\x95\x83\x12@\xe8\xa7>?}-\xd2?e\xaa`TR'\xed?\xed\xedJ\xfa\x0b\x0c\x04@"
p1642
tp1643
bsVcup_b6af
p1644
g521
(g522
(I0
tp1645
g524
tp1646
Rp1647
(I1
(I4
tp1648
g531
I00
S'R\xb8\x1e\x85\xebQ\xe8?\x9a\x99\x99\x99\x99\x99\xe1?\x1b/\xdd$\x06\x81\xed?\x00\x00\x00\x00\x00\x00\x00\x00'
p1649
tp1650
bsVc_obst4
p1651
g521
(g522
(I0
tp1652
g524
tp1653
Rp1654
(I1
(I4
tp1655
g531
I00
S"n\x08(p\x9bi\x12@\xc0\x8f\x90\x84\x98\xd9\xc1?e\xaa`TR'\xed?\xae\x8f\xee\xf0\x1b\x97\x16@"
p1656
tp1657
bsVrectangular_packing_box2
p1658
g521
(g522
(I0
tp1659
g524
tp1660
Rp1661
(I1
(I4
tp1662
g531
I00
S'x#\x8a\xa8\xbfB\x02@]@\xdd\xaa0\xf7\x1a\xc0L7\x89A`\xe5\xd8?\xa2\x93\xe4\xf2\xe3\x8f\xe0?'
p1663
tp1664
bsVplate_fa76
p1665
g521
(g522
(I0
tp1666
g524
tp1667
Rp1668
(I1
(I4
tp1669
g531
I00
S'=\n\xd7\xa3p=\xf2?\x00\x00\x00\x00\x00\x00\x00\x00\x1b/\xdd$\x06\x81\xed?\x00\x00\x00\x00\x00\x00\x00\x00'
p1670
tp1671
bsVfloorwalls
p1672
g521
(g522
(I0
tp1673
g524
tp1674
Rp1675
(I1
(I4
tp1676
g531
I00
S'\xc7\xcc\xcc\xcc\xcc\xcc\xfc?\x00\x00\x00\x00\x00\x00\x18\xc0H\xe1z\x14\xaeG\xc1?\x16-DT\xfb!\xf9?'
p1677
tp1678
bsVpin_c671
p1679
g521
(g522
(I0
tp1680
g524
tp1681
Rp1682
(I1
(I4
tp1683
g531
I00
S'\xc3\xf5(\\\x8f\xc2\xf1\xbf}?5^\xbaI\x02@\xb8\x1e\x85\xebQ\xb8\xfa?\x00\x00\x00\x00\x00\x00\x00\x00'
p1684
tp1685
bsVc_obst3
p1686
g521
(g522
(I0
tp1687
g524
tp1688
Rp1689
(I1
(I4
tp1690
g531
I00
S"^\xdd\\<%\xa1\x12@\xac\x8b8\x90\xc6\xe6\xd8?e\xaa`TR'\xed?\x1c\x9e\xaarJ\xdd\x16@"
p1691
tp1692
bsVchair_2e39
p1693
g521
(g522
(I0
tp1694
g524
tp1695
Rp1696
(I1
(I4
tp1697
g531
I00
S'jfffff\xee?]fffff\xf2\xbf\x00\x00\x00\x00\x00\x00\x00\x00\x07M\xe8QQF\xf3?'
p1698
tp1699
bsVentrance_left
p1700
g521
(g522
(I0
tp1701
g524
tp1702
Rp1703
(I1
(I4
tp1704
g531
I00
S'\x98\x99\x99\x99\x99\x99\xe9\xbfH\xe1z\x14\xaeG\t\xc0\x9c\xc4 \xb0rh\xc1?\x00\x00\x00\x00\x00\x00\x00\x00'
p1705
tp1706
bsVtop_wall_1
p1707
g521
(g522
(I0
tp1708
g524
tp1709
Rp1710
(I1
(I4
tp1711
g531
I00
S'H\xe1z\x14\xaeG\x12@\x80\x14\xaeG\xe1z\xc4?xX\xa85\xcd\xbb\xf2?\x00\x00\x00\x00\x00\x00\x00\x00'
p1712
tp1713
bsVrectangular_packing_box3
p1714
g521
(g522
(I0
tp1715
g524
tp1716
Rp1717
(I1
(I4
tp1718
g531
I00
S'T\xa6$/\t\xb1\xb0?w\xd9\xd7\x88y7\x1e\xc0L7\x89A`\xe5\xd8?\xa1\xa8\xa4gcb\x12@'
p1719
tp1720
bsVshaker
p1721
g521
(g522
(I0
tp1722
g524
tp1723
Rp1724
(I1
(I4
tp1725
g531
I00
S'\n\xd7\xa3p=\n\x01@\x14\xaeG\xe1z\x14\x02@\\\x8f\xc2\xf5(\\\xef?\x00\x00\x00\x00\x00\x00\x00\x00'
p1726
tp1727
bsVc_obst9
p1728
g521
(g522
(I0
tp1729
g524
tp1730
Rp1731
(I1
(I4
tp1732
g531
I00
S"\x8av\x82wVC\x12@`n\xad8\xc7F\xc2\xbfe\xaa`TR'\xed?\xd9R5=\xef\x80\x10@"
p1733
tp1734
bsVplate_835a
p1735
g521
(g522
(I0
tp1736
g524
tp1737
Rp1738
(I1
(I4
tp1739
g531
I00
S'\xf6(\\\x8f\xc2\xf5\xf0?\\\x8f\xc2\xf5(\\\xe7\xbf\x1b/\xdd$\x06\x81\xed?\x00\x00\x00\x00\x00\x00\x00\x00'
p1740
tp1741
bsVcup_58a2
p1742
g521
(g522
(I0
tp1743
g524
tp1744
Rp1745
(I1
(I4
tp1746
g531
I00
S'\x85\xebQ\xb8\x1e\x85\xe3?\xcd\xcc\xcc\xcc\xcc\xcc\xdc?\x1b/\xdd$\x06\x81\xed?\x00\x00\x00\x00\x00\x00\x00\x00'
p1747
tp1748
bsVleft_wall_1
p1749
g521
(g522
(I0
tp1750
g524
tp1751
Rp1752
(I1
(I4
tp1753
g531
I00
S'H\xe1z\x14\xaeG\x12@S\xb8\x1e\x85\xebQ\xe4?\xcc\x7fH\xbf}\x1d\xed?\x00\x00\x00\x00\x00\x00\x00\x00'
p1754
tp1755
bsVc_obst2
p1756
g521
(g522
(I0
tp1757
g524
tp1758
Rp1759
(I1
(I4
tp1760
g531
I00
S"\x03\xf9\xf8\xe06C\x12@\xdac\x9dS@k\xcc?e\xaa`TR'\xed?\x8e\xd1'\xc0\x08~\xfe?"
p1761
tp1762
bsVsquare_packing_box4
p1763
g521
(g522
(I0
tp1764
g524
tp1765
Rp1766
(I1
(I4
tp1767
g531
I00
S'{\xce\xcef\xfe\xbb\xf0?M@\xfc\xa1\x9e\xc0\x16\xc0L7\x89A`\xe5\xd8?\xaeKe\x14U\xf8\x13@'
p1768
tp1769
bsVrectangular_packing_box1
p1770
g521
(g522
(I0
tp1771
g524
tp1772
Rp1773
(I1
(I4
tp1774
g531
I00
S'\xf71, \xdaJ\xf5?\x8f\x94\xc7_\x9e4\x18\xc0L7\x89A`\xe5\xd8?\x88,&\x8ck,\x0b@'
p1775
tp1776
bsVpin_371e
p1777
g521
(g522
(I0
tp1778
g524
tp1779
Rp1780
(I1
(I4
tp1781
g531
I00
S'333333\xf3\xbfffffff\xf6?\xb8\x1e\x85\xebQ\xb8\xee?\x00\x00\x00\x00\x00\x00\x00\x00'
p1782
tp1783
bsVfridge
p1784
g521
(g522
(I0
tp1785
g524
tp1786
Rp1787
(I1
(I4
tp1788
g531
I00
S'\xd7\xa3p=\n\xd7\xeb\xbf\x00\x00\x00\x00\x00\x00\x00\xc0\xcd\xcc\xcc\xcc\xcc\xcc\xf8?\x00\x00\x00\x00\x00\x00\x00\x00'
p1789
tp1790
bsVcup_d441
p1791
g521
(g522
(I0
tp1792
g524
tp1793
Rp1794
(I1
(I4
tp1795
g531
I00
S'\n\xd7\xa3p=\n\xef?\x8f\xc2\xf5(\\\x8f\xe2?\x1b/\xdd$\x06\x81\xed?\x00\x00\x00\x00\x00\x00\x00\x00'
p1796
tp1797
bsVshelf2
p1798
g521
(g522
(I0
tp1799
g524
tp1800
Rp1801
(I1
(I4
tp1802
g531
I00
S'\x00\x00\x00\x00\x00\x00\x0e@\xaeG\xe1z\x14\xae\x07@\x9c\xc4 \xb0rh\xc1?\xd2!3\x7f|\xd9\x12@'
p1803
tp1804
bsVtop_wall_2
p1805
g521
(g522
(I0
tp1806
g524
tp1807
Rp1808
(I1
(I4
tp1809
g531
I00
S'H\xe1z\x14\xaeG\x12@\x80\x14\xaeG\xe1z\xc4?\x16HP\xfc\x18\xf3\xfd?\x00\x00\x00\x00\x00\x00\x00\x00'
p1810
tp1811
bsVc_obst0
p1812
g521
(g522
(I0
tp1813
g524
tp1814
Rp1815
(I1
(I4
tp1816
g531
I00
S"\xb8\x088t\x9c7\x12@\x90D\xf1\x14\xed\x8f\x96\xbfe\xaa`TR'\xed?\xadtI0\xaa\x0c\x13@"
p1817
tp1818
bsVshelf1
p1819
g521
(g522
(I0
tp1820
g524
tp1821
Rp1822
(I1
(I4
tp1823
g531
I00
S'\x00\x00\x00\x00\x00\x00\x13@\xaeG\xe1z\x14\xae\x07@\x9c\xc4 \xb0rh\xc1?\xd2!3\x7f|\xd9\x12@'
p1824
tp1825
bsVsink
p1826
g521
(g522
(I0
tp1827
g524
tp1828
Rp1829
(I1
(I4
tp1830
g531
I00
S'ffffff\xd6?333333\x01@\x9a\x99\x99\x99\x99\x99\xb9\xbf\x00\x00\x00\x00\x00\x00\x00\x00'
p1831
tp1832
bsVpr2
p1833
g521
(g522
(I0
tp1834
g524
tp1835
Rp1836
(I1
(I4
tp1837
g531
I00
S'\xec\xb88\xa1!D\r@@\x85\xe3\xea\x1bo\x1a\xc0\x9a_\x94\xa0\xbf\xd0\xc1?\xbf8e8\xeaT\x06@'
p1838
tp1839
bsVchair_12d0
p1840
g521
(g522
(I0
tp1841
g524
tp1842
Rp1843
(I1
(I4
tp1844
g531
I00
S'^\xd2\x18\xad\xa3\xaa\xdb?Pf\x83L2r\xc6?\x00\x00\x00\x00\x00\x00\x00\x00\xf8\x81\r\x14M\xa6\x17@'
p1845
tp1846
bsVright_wall_2
p1847
g521
(g522
(I0
tp1848
g524
tp1849
Rp1850
(I1
(I4
tp1851
g531
I00
S'H\xe1z\x14\xaeG\x12@&\\\x8f\xc2\xf5(\xd4\xbfxX\xa85\xcd\xbb\xf2?\x00\x00\x00\x00\x00\x00\x00\x00'
p1852
tp1853
bsVknife_block
p1854
g521
(g522
(I0
tp1855
g524
tp1856
Rp1857
(I1
(I4
tp1858
g531
I00
S'R\xb8\x1e\x85\xebQ\xe0\xbfffffff\x02@`\xe5\xd0"\xdb\xf9\xee?\x00\x00\x00\x00\x00\x00\x00\x00'
p1859
tp1860
bsVleft_wall_2
p1861
g521
(g522
(I0
tp1862
g524
tp1863
Rp1864
(I1
(I4
tp1865
g531
I00
S'H\xe1z\x14\xaeG\x12@S\xb8\x1e\x85\xebQ\xe4?xX\xa85\xcd\xbb\xf2?\x00\x00\x00\x00\x00\x00\x00\x00'
p1866
tp1867
bsVleft_wall
p1868
g521
(g522
(I0
tp1869
g524
tp1870
Rp1871
(I1
(I4
tp1872
g531
I00
S'\x9a\x99\x99\x99\x99\x99\x07@H\xe1z\x14\xaeG\xff?\x9c\xc4 \xb0rh\xc1?\x00\x00\x00\x00\x00\x00\x00\x00'
p1873
tp1874
bsVkitchen
p1875
g521
(g522
(I0
tp1876
g524
tp1877
Rp1878
(I1
(I4
tp1879
g531
I00
S'\x00\x00\x00\x00\x00\x00\x00\x00\x00\x00\x00\x00\x00\x00\x00\x00\x00\x00\x00\x00\x00\x00\x00\x00\x00\x00\x00\x00\x00\x00\x00\x00'
p1880
tp1881
bsVtable2
p1882
g521
(g522
(I0
tp1883
g524
tp1884
Rp1885
(I1
(I4
tp1886
g531
I00
S'\x00\x00\x00\x00\x00\x00\x13@\x80\x14\xaeG\xe1z\xc4?S\x96!\x8euq\xec?\xd2!3\x7f|\xd9\x12@'
p1887
tp1888
bsVc_obst8
p1889
g521
(g522
(I0
tp1890
g524
tp1891
Rp1892
(I1
(I4
tp1893
g531
I00
S"\xa2\x86\xba\xbe\x0e\xfe\x11@\x08\x88\xaeAcX\xc9?e\xaa`TR'\xed?\xe7\xc6R\xf7\xd5q\x17@"
p1894
tp1895
bsVplate_b4e7
p1896
g521
(g522
(I0
tp1897
g524
tp1898
Rp1899
(I1
(I4
tp1900
g531
I00
S'\x14\xaeG\xe1z\x14\xf2\xbf\x14\xaeG\xe1z\x14\x00@=\n\xd7\xa3p=\xf2?\x00\x00\x00\x00\x00\x00\x00\x00'
p1901
tp1902
bsVcooker
p1903
g521
(g522
(I0
tp1904
g524
tp1905
Rp1906
(I1
(I4
tp1907
g531
I00
S'\xaeG\xe1z\x14\xae\xff?\x85\xebQ\xb8\x1e\x85\xfb?\x00\x00\x00\x00\x00\x00\xe8?\x00\x00\x00\x00\x00\x00\x00\x00'
p1908
tp1909
bsVpin_a091
p1910
g521
(g522
(I0
tp1911
g524
tp1912
Rp1913
(I1
(I4
tp1914
g531
I00
S'\xdb\xf9~j\xbct\xf7\xbf)\\\x8f\xc2\xf5(\x02@\xb8\x1e\x85\xebQ\xb8\xfa?\x00\x00\x00\x00\x00\x00\x00\x00'
p1915
tp1916
bsVside_wall_2
p1917
g521
(g522
(I0
tp1918
g524
tp1919
Rp1920
(I1
(I4
tp1921
g531
I00
S'\xf5\xff\xff\xff\xff\xff\x14@\xe7\xff\xff\xff\xff\x7f\xef<\x9c\xc4 \xb0rh\xc1?\x1c-DT\xfb!\xf9?'
p1922
tp1923
bsVside_wall_3
p1924
g521
(g522
(I0
tp1925
g524
tp1926
Rp1927
(I1
(I4
tp1928
g531
I00
S'\x00\x00\x00\x00\x00\x00\xfc?H\xe1z\x14\xaeG\t@\x9c\xc4 \xb0rh\xc1?\x00\x00\x00\x00\x00\x00\x00\x00'
p1929
tp1930
bsVmixer
p1931
g521
(g522
(I0
tp1932
g524
tp1933
Rp1934
(I1
(I4
tp1935
g531
I00
S'\n\xd7\xa3p=\n\xfb?ffffff\x02@d;\xdfO\x8d\x97\xee?\x00\x00\x00\x00\x00\x00\x00\x00'
p1936
tp1937
bsVside_wall_1
p1938
g521
(g522
(I0
tp1939
g524
tp1940
Rp1941
(I1
(I4
tp1942
g531
I00
S'\xea\xff\xff\xff\xff\xff\xfb\xbf\xeb\xff\xff\xff\xff\xff\xd4\xbc\x9c\xc4 \xb0rh\xc1?\x1c-DT\xfb!\xf9?'
p1943
tp1944
bsVbottom_wall_1
p1945
g521
(g522
(I0
tp1946
g524
tp1947
Rp1948
(I1
(I4
tp1949
g531
I00
S'H\xe1z\x14\xaeG\x12@\x80\x14\xaeG\xe1z\xc4?\xcc\x7fH\xbf}\x1d\xed?\x00\x00\x00\x00\x00\x00\x00\x00'
p1950
tp1951
bsVcan
p1952
g521
(g522
(I0
tp1953
g524
tp1954
Rp1955
(I1
(I4
tp1956
g531
I00
S'\x00\x00\x00\x00\x00\x00\xf4\xbfH\xe1z\x14\xaeG\xe1\xbf\n\xd7\xa3p=\n\xef?\x00\x00\x00\x00\x00\x00\x00\x00'
p1957
tp1958
bsVright_wall
p1959
g521
(g522
(I0
tp1960
g524
tp1961
Rp1962
(I1
(I4
tp1963
g531
I00
S'\x9a\x99\x99\x99\x99\x99\x07@H\xe1z\x14\xaeG\xff\xbf\x9c\xc4 \xb0rh\xc1?\x00\x00\x00\x00\x00\x00\x00\x00'
p1964
tp1965
bsVcoffe_machine
p1966
g521
(g522
(I0
tp1967
g524
tp1968
Rp1969
(I1
(I4
tp1970
g531
I00
S'\\\x8f\xc2\xf5(\\\xf5\xbf\xb8\x1e\x85\xebQ\xb8\xee?\n\xd7\xa3p=\n\xef?\x00\x00\x00\x00\x00\x00\x00\x00'
p1971
tp1972
bsVcomputer_chair
p1973
g521
(g522
(I0
tp1974
g524
tp1975
Rp1976
(I1
(I4
tp1977
g531
I00
S'\xcd\xcc\xcc\xcc\xcc\xcc\x10@\x00\x00\x00\x00\x00\x00\xf8\xbf\xa00\xb6\x10\xe4\xa9\x95\xbf\x00\x00\x00\x00\x00\x00\x00\x00'
p1978
tp1979
bssS'robot_dof_values'
p1980
g521
(g522
(I0
tp1981
g524
tp1982
Rp1983
(I1
(I39
tp1984
g531
I00
S'\x00\x00\x00\x00\x00\x00\x00\x00\x00\x00\x00\x00\x00\x00\x00\x00\x00\x00\x00\x00\x00\x00\x00\x00\x00\x00\x00\x00\x00\x00\x00\x00\x00\x00\x00\x00\x00\x00\x00\x00\x00\x00\x00\x00\x00\x00\x00\x00\x00\x00\x00\x00\x00\x00\x00\x00\x00\x00\x00\x00\x00\x00\x00\x00\x00\x00\x00\x00\x00\x00\x00\x00\x00\x00\x00\x00\x00\x00\x00\x00\x00\x00\x00\x00\x00\x00\x00\x00\x00\x00\x00\x00\x00\x00\x00\x00\xa0\xf1S&x\xf4\x97?\x00\x00\x00\x00\x00\x00\x00\x00\x00\x00\x00\x00\x00\x00\x00\x00\x00\x00\x00\x00\x00\x00\x00\x00\xee\xed\t\xf1\xcc\xa4\xf4?\x00\x00\x00\x00\x00\x00\xb0<N"\xd0^p\xf8\x00\xc0\x00\x00\x00\x00\x00\x00\x00\x00\xa1\x03\r.\x04V\xe6\xbf\x00\x00\x00\x00\x00\x00\x00\x00\x00\x00\x00\x00\x00\x00\x00\x00\x00\x00\x00\x00\x00\x00\xc5<\xcd;\x7ff\x9e\xa0\xa6\xbc\x00\x00\x00\x00\x00\x00\x06\xbd\x00\x00\x00\x00\x00\x00\x00\x00\x00\x00\x00\x00\x00\x00\x00\x00\xec\xed\t\xf1\xcc\xa4\xf4?\x00\x00\x00\x00\x00\x00\x00\x00N"\xd0^p\xf8\x00\xc0\x00\x00\x00\x00\x00\x00\x00\x00\x9f\x03\r.\x04V\xe6\xbf\x00\x00\x00\x00\x00\x00\x00\x00\xcf9\xe3\xc17\x89\xe1?\x00\x00\x00\x00\x00\xa0\xfa<\xcc;\x7ff\x9e\xa0\xc6\xbc\x00\x00\x00\x00\x00\x00\x00\xbd\x00\x00\x00\x00\x00\x00\x00\x00'
p1985
tp1986
bsS'is_holding'
p1987
I00
sbsS'holding_collides'
p1988
(dp1989
(Vsquare_packing_box4
p1990
(g1386
(g531
S'\x90\xc0\x1f~\xfe\xbb\xf0?'
p1991
tp1992
Rp1993
g1386
(g531
S'8\xdb\xdc\x98\x9e\xc0\x16\xc0'
p1994
tp1995
Rp1996
g1386
(g531
S'\xda\x8c\xd3\x10U\xf8\x13@'
p1997
tp1998
Rp1999
tp2000
tp2001
g969
s(Vrectangular_packing_box2
p2002
(g1386
(g531
S'\xce\xe30\x98\xbfB\x02@'
p2003
tp2004
Rp2005
g1386
(g531
S'\xf9hq\xc60\xf7\x1a\xc0'
p2006
tp2007
Rp2008
g1386
(g531
S'V\xbc\x91y\xe4\x8f\xe0?'
p2009
tp2010
Rp2011
tp2012
tp2013
g945
s(Vrectangular_packing_box3
p2014
(g1386
(g531
S'{\x9f\xaaB\x03\xb1\xb0?'
p2015
tp2016
Rp2017
g1386
(g531
S'\x0f\x0b\xb5\xa6y7\x1e\xc0'
p2018
tp2019
Rp2020
g1386
(g531
S'\xe5\xef\xdeQcb\x12@'
p2021
tp2022
Rp2023
tp2024
tp2025
g949
s(Vrectangular_packing_box4
p2026
(g1386
(g531
S'}\xec.PR`\xd2?'
p2027
tp2028
Rp2029
g1386
(g531
S'\x8fT\xdf\xf9Ei\x18\xc0'
p2030
tp2031
Rp2032
g1386
(g531
S'\xe8\xf9\xd3Fu:\xe4?'
p2033
tp2034
Rp2035
tp2036
tp2037
g941
s(Vsquare_packing_box3
p2038
(g1386
(g531
S'\xc7\xbc\x8e8d\xa3\n@'
p2039
tp2040
Rp2041
g1386
(g531
S'\xb8\xca\x13\x08;\x05\x1e\xc0'
p2042
tp2043
Rp2044
g1386
(g531
S'\xde\xc9\xa7\xc7\xb6\xac\x0f@'
p2045
tp2046
Rp2047
tp2048
tp2049
g961
s(Vsquare_packing_box1
p2050
(g1386
(g531
S'N\xb4\xab\x90\xf23\x0c@'
p2051
tp2052
Rp2053
g1386
(g531
S'Q\xf5+\x9d\x0f?\x15\xc0'
p2054
tp2055
Rp2056
g1386
(g531
S'\xe2\x1f\xb6\xf4h\n\x13@'
p2057
tp2058
Rp2059
tp2060
tp2061
g965
s(Vsquare_packing_box2
p2062
(g1386
(g531
S'\x10>\x94h\xc9\x03\x08@'
p2063
tp2064
Rp2065
g1386
(g531
S'\xec\xa0\x12\xd71\x8e\x19\xc0'
p2066
tp2067
Rp2068
g1386
(g531
S'\x03\xb2\xd7\xbb?\xde\xef?'
p2069
tp2070
Rp2071
tp2072
tp2073
g957
s(Vrectangular_packing_box1
p2074
(g1386
(g531
S'\xa8\xdf\x85\xad\xd9J\xf5?'
p2075
tp2076
Rp2077
g1386
(g531
S'\x14\x05\xfaD\x9e4\x18\xc0'
p2078
tp2079
Rp2080
g1386
(g531
S'\xb13\x85\xcek,\x0b@'
p2081
tp2082
Rp2083
tp2084
tp2085
g953
ssS'parent_ternary_predicates'
p2086
(dp2087
(g10
g10
g11
tp2088
g13
s(g14
g15
g15
tp2089
g17
s(g18
g19
g11
tp2090
g21
s(g46
g14
g11
tp2091
g82
s(g46
g11
g11
tp2092
g382
s(g11
g11
g11
tp2093
g27
s(g23
g10
g15
tp2094
g29
s(g14
g30
g11
tp2095
g32
s(g11
g33
g11
tp2096
g35
s(g18
g33
g11
tp2097
g452
s(g11
g23
g15
tp2098
g41
s(g23
g11
g15
tp2099
g430
s(g15
g11
g15
tp2100
g45
s(g33
g46
g11
tp2101
g48
s(g46
g15
g11
tp2102
g54
s(g18
g10
g15
tp2103
g56
s(g10
g15
g11
tp2104
g60
s(g10
g33
g15
tp2105
g200
s(g14
g14
g15
tp2106
g64
s(g15
g23
g11
tp2107
g284
s(g15
g15
g11
tp2108
g72
s(g46
g33
g15
tp2109
g74
s(g11
g11
g15
tp2110
g76
s(g23
g10
g11
tp2111
g438
s(g10
g23
g11
tp2112
g80
s(g30
g46
g15
tp2113
g172
s(g19
g11
g15
tp2114
g84
s(g10
g30
g15
tp2115
g444
s(g19
g30
g15
tp2116
g88
s(g30
g19
g11
tp2117
g90
s(g15
g14
g15
tp2118
g92
s(g10
g10
g15
tp2119
g96
s(g18
g23
g11
tp2120
g98
s(g15
g11
g11
tp2121
g100
s(g33
g10
g11
tp2122
g102
s(g14
g30
g15
tp2123
g110
s(g15
g23
g15
tp2124
g66
s(g15
g30
g15
tp2125
g120
s(g18
g11
g11
tp2126
g122
s(g15
g18
g11
tp2127
g126
s(g10
g23
g15
tp2128
g128
s(g46
g10
g15
tp2129
g130
s(g46
g46
g11
tp2130
g132
s(g19
g30
g11
tp2131
g134
s(g18
g10
g11
tp2132
g136
s(g18
g46
g15
tp2133
g186
s(g23
g14
g11
tp2134
g140
s(g14
g14
g11
tp2135
g142
s(g14
g33
g11
tp2136
g144
s(g33
g10
g15
tp2137
g146
s(g23
g19
g15
tp2138
g148
s(g46
g33
g11
tp2139
g150
s(g10
g19
g15
tp2140
g154
s(g19
g11
g11
tp2141
g156
s(g10
g46
g11
tp2142
g160
s(g30
g19
g15
tp2143
g162
s(g18
g11
g15
tp2144
g166
s(g18
g23
g15
tp2145
g168
s(g46
g10
g11
tp2146
g170
s(g15
g19
g11
tp2147
g370
s(g10
g18
g15
tp2148
g174
s(g19
g15
g11
tp2149
g176
s(g15
g33
g11
tp2150
g280
s(g46
g19
g15
tp2151
g180
s(g23
g14
g15
tp2152
g182
s(g19
g15
g15
tp2153
g138
s(g15
g30
g11
tp2154
g188
s(g10
g19
g11
tp2155
g192
s(g23
g19
g11
tp2156
g194
s(g15
g46
g11
tp2157
g196
s(g10
g46
g15
tp2158
g198
s(g46
g18
g11
tp2159
g62
s(g14
g33
g15
tp2160
g204
s(g19
g46
g15
tp2161
g206
s(g30
g15
g15
tp2162
g210
s(g14
g19
g11
tp2163
g214
s(g10
g18
g11
tp2164
g216
s(g30
g10
g15
tp2165
g220
s(g46
g19
g11
tp2166
g222
s(g23
g15
g15
tp2167
g224
s(g11
g30
g11
tp2168
g104
s(g15
g19
g15
tp2169
g232
s(g15
g46
g15
tp2170
g234
s(g14
g46
g11
tp2171
g236
s(g18
g15
g11
tp2172
g68
s(g14
g19
g15
tp2173
g240
s(g23
g33
g11
tp2174
g228
s(g11
g46
g11
tp2175
g416
s(g30
g11
g15
tp2176
g246
s(g23
g15
g11
tp2177
g248
s(g15
g33
g15
tp2178
g250
s(g10
g33
g11
tp2179
g252
s(g33
g33
g11
tp2180
g256
s(g33
g30
g15
tp2181
g258
s(g30
g15
g11
tp2182
g260
s(g46
g23
g11
tp2183
g262
s(g30
g18
g15
tp2184
g268
s(g23
g18
g15
tp2185
g462
s(g23
g33
g15
tp2186
g274
s(g46
g11
g15
tp2187
g276
s(g30
g11
g11
tp2188
g278
s(g19
g19
g11
tp2189
g282
s(g14
g46
g15
tp2190
g290
s(g23
g46
g11
tp2191
g286
s(g14
g10
g11
tp2192
g288
s(g11
g18
g11
tp2193
g58
s(g33
g14
g15
tp2194
g292
s(g18
g30
g15
tp2195
g296
s(g30
g14
g11
tp2196
g298
s(g19
g18
g11
tp2197
g300
s(g46
g23
g15
tp2198
g302
s(g46
g30
g15
tp2199
g304
s(g33
g19
g11
tp2200
g306
s(g11
g46
g15
tp2201
g230
s(g33
g15
g11
tp2202
g310
s(g30
g18
g11
tp2203
g312
s(g23
g30
g15
tp2204
g314
s(g10
g14
g11
tp2205
g316
s(g30
g46
g11
tp2206
g474
s(g23
g23
g15
tp2207
g320
s(g33
g33
g15
tp2208
g322
s(g19
g19
g15
tp2209
g324
s(g14
g23
g15
tp2210
g326
s(g18
g14
g11
tp2211
g330
s(g11
g18
g15
tp2212
g332
s(g11
g19
g15
tp2213
g334
s(g14
g10
g15
tp2214
g338
s(g19
g14
g15
tp2215
g340
s(g18
g30
g11
tp2216
g344
s(g30
g33
g15
tp2217
g39
s(g19
g18
g15
tp2218
g348
s(g23
g18
g11
tp2219
g50
s(g33
g19
g15
tp2220
g352
s(g10
g15
g15
tp2221
g488
s(g23
g30
g11
tp2222
g356
s(g14
g11
g15
tp2223
g358
s(g30
g23
g11
tp2224
g108
s(g19
g46
g11
tp2225
g238
s(g33
g18
g11
tp2226
g364
s(g15
g18
g15
tp2227
g366
s(g23
g46
g15
tp2228
g368
s(g18
g18
g15
tp2229
g372
s(g33
g14
g11
tp2230
g374
s(g14
g23
g11
tp2231
g376
s(g18
g33
g15
tp2232
g412
s(g30
g14
g15
tp2233
g380
s(g33
g11
g15
tp2234
g212
s(g18
g14
g15
tp2235
g384
s(g46
g30
g11
tp2236
g386
s(g33
g15
g15
tp2237
g390
s(g10
g14
g15
tp2238
g392
s(g19
g10
g11
tp2239
g394
s(g18
g15
g15
tp2240
g396
s(g14
g18
g11
tp2241
g400
s(g30
g23
g15
tp2242
g202
s(g30
g30
g15
tp2243
g342
s(g30
g10
g11
tp2244
g242
s(g23
g11
g11
tp2245
g406
s(g46
g46
g15
tp2246
g362
s(g33
g23
g11
tp2247
g410
s(g15
g10
g15
tp2248
g378
s(g11
g19
g11
tp2249
g414
s(g19
g14
g11
tp2250
g418
s(g19
g33
g11
tp2251
g420
s(g18
g46
g11
tp2252
g422
s(g30
g33
g11
tp2253
g450
s(g11
g14
g11
tp2254
g458
s(g19
g23
g15
tp2255
g428
s(g10
g11
g11
tp2256
g432
s(g14
g11
g11
tp2257
g434
s(g19
g10
g15
tp2258
g436
s(g33
g18
g15
tp2259
g408
s(g11
g30
g15
tp2260
g184
s(g11
g15
g11
tp2261
g440
s(g18
g18
g11
tp2262
g442
s(g11
g10
g15
tp2263
g86
s(g14
g18
g15
tp2264
g446
s(g33
g11
g11
tp2265
g124
s(g15
g10
g11
tp2266
g398
s(g14
g15
g11
tp2267
g454
s(g18
g19
g15
tp2268
g460
s(g11
g14
g15
tp2269
g208
s(g19
g23
g11
tp2270
g466
s(g46
g18
g15
tp2271
g468
s(g30
g30
g11
tp2272
g254
s(g11
g23
g11
tp2273
g472
s(g33
g23
g15
tp2274
g476
s(g23
g23
g11
tp2275
g478
s(g19
g33
g15
tp2276
g480
s(g46
g14
g15
tp2277
g318
s(g46
g15
g15
tp2278
g484
s(g10
g30
g11
tp2279
g502
s(g33
g30
g11
tp2280
g354
s(g11
g33
g15
tp2281
g490
s(g10
g11
g15
tp2282
g492
s(g15
g15
g15
tp2283
g494
s(g33
g46
g15
tp2284
g498
s(g11
g15
g15
tp2285
g500
s(g11
g10
g11
tp2286
g486
s(g15
g14
g11
tp2287
g504
ssS'cached_place_paths'
p2288
(dp2289
(g686
g15
tp2290
(lp2291
g521
(g522
(I0
tp2292
g524
tp2293
Rp2294
(I1
(I3
tp2295
g531
I00
S'R\xca\xc0\xcf\xd9[\xf0?\xf8/#\xddH6\x15\xc0F\xa4\xd4\xc0\xcb\x98\x14@'
p2296
tp2297
bas(g874
g11
tp2298
(lp2299
g521
(g522
(I0
tp2300
g524
tp2301
Rp2302
(I1
(I3
tp2303
g531
I00
S'\x98\xdc\xa0]\xb4\xb3\xed?d\xb9\xcf\x1f\xa8Q\x13\xc0:\x0eA\xb8^ \x13@'
p2304
tp2305
bag521
(g522
(I0
tp2306
g524
tp2307
Rp2308
(I1
(I3
tp2309
g563
I00
S"\xaeJ\xbd\x1936\xec?\x04\x13\xd4'\x9f\x88\x10\xc0\x805qo\xb6\xe6\xff\xbf"
p2310
tp2311
bag521
(g522
(I0
tp2312
g524
tp2313
Rp2314
(I1
(I3
tp2315
g563
I00
S'\xf09\xb6\x1c*\x86\xee?\xc4\n/\x96\xcb\xe3\n\xc0\xa0\xc9\xd6F6\x0f\x00\xc0'
p2316
tp2317
bag521
(g522
(I0
tp2318
g524
tp2319
Rp2320
(I1
(I3
tp2321
g563
I00
S'\xf4\xfdJ\x1a(#\xec?H"\x9cD\x1aE\x05\xc0.\xa9\x0b\x87\xf8\xe1\x02@'
p2322
tp2323
bas(g507
g11
tp2324
(lp2325
g521
(g522
(I0
tp2326
g524
tp2327
Rp2328
(I1
(I3
tp2329
g531
I00
S'\xf0\xee\xbc7\x1c\xc9\xc2\xbf\x08{?`*X\x16\xc0\xc3\xcf\x15Rt\xb2\x14@'
p2330
tp2331
bag521
(g522
(I0
tp2332
g524
tp2333
Rp2334
(I1
(I3
tp2335
g563
I00
S'\xff\x1dX8\xbe\xd2\xc9?\x91h\xd1{\x1e(\x16\xc0\xee\xfeSI\xc3\xd4\x03\xc0'
p2336
tp2337
bag521
(g522
(I0
tp2338
g524
tp2339
Rp2340
(I1
(I3
tp2341
g563
I00
S'\xcc\x87!\x1f\xfb\x05\xe6?\x14;\x08\xf1<\xc6\x13\xc0V!\xac1j\x94\xc8?'
p2342
tp2343
bag521
(g522
(I0
tp2344
g524
tp2345
Rp2346
(I1
(I3
tp2347
g563
I00
S'`\xc8Aw-\x81\xeb?/\xc3\xe6O\x04\xca\x10\xc0\x8a\xb7K)\x91{\xe4\xbf'
p2348
tp2349
bag521
(g522
(I0
tp2350
g524
tp2351
Rp2352
(I1
(I3
tp2353
g563
I00
S'\xe1\xc6\xc7\xa7\x12X\xe7?\x98\x99\xb0\x9a\xfb\xdb\x0b\xc0R\t\x1b)\xeae\xe0\xbf'
p2354
tp2355
bag521
(g522
(I0
tp2356
g524
tp2357
Rp2358
(I1
(I3
tp2359
g563
I00
S'p\xf1\xbdc^\x84\xf1?"\x88LL\xf9D\x06\xc0~w\r\xe9m\x0f\x19@'
p2360
tp2361
bas(g798
g15
tp2362
(lp2363
g521
(g522
(I0
tp2364
g524
tp2365
Rp2366
(I1
(I3
tp2367
g531
I00
S'_\xc8\xacwl\xa9\x05@\x8eL\xa6~\x15\xe6\x1c\xc0<\xd4\xf5\xbd\xf4\xd8\x15@'
p2368
tp2369
bas(g507
g15
tp2370
(lp2371
g521
(g522
(I0
tp2372
g524
tp2373
Rp2374
(I1
(I3
tp2375
g531
I00
S'\xe0\xee\xbc7\x1c\xc9\xc2\xbf\x06{?`*X\x16\xc0\xc3\xcf\x15Rt\xb2\x14@'
p2376
tp2377
bas(g798
g11
tp2378
(lp2379
g521
(g522
(I0
tp2380
g524
tp2381
Rp2382
(I1
(I3
tp2383
g531
I00
S'a\xc8\xacwl\xa9\x05@\x8eL\xa6~\x15\xe6\x1c\xc0<\xd4\xf5\xbd\xf4\xd8\x15@'
p2384
tp2385
bag521
(g522
(I0
tp2386
g524
tp2387
Rp2388
(I1
(I3
tp2389
g563
I00
S'\xd0F\nX\x99\x97\x00@\x820\x00\xd6\xafP\x1e\xc0V\x17\x0f\xa5\x97\r\xff\xbf'
p2390
tp2391
bag521
(g522
(I0
tp2392
g524
tp2393
Rp2394
(I1
(I3
tp2395
g563
I00
S'\x06\xbc\xc2\x02\xe5\t\xfa?\x13\x91\xe2\xd9\xb5B\x1e\xc0\xce\xd4\xdb\xc4\xdf\xb1\xf6\xbf'
p2396
tp2397
bag521
(g522
(I0
tp2398
g524
tp2399
Rp2400
(I1
(I3
tp2401
g563
I00
S'\xba)c\x05l\x93\xf4?\x8f\x0f\xa1<\xee\x05\x1c\xc0\xf9-\x16\x17\xc6`\xf8\xbf'
p2402
tp2403
bag521
(g522
(I0
tp2404
g524
tp2405
Rp2406
(I1
(I3
tp2407
g563
I00
S'\xb0\xcfg\xd5._\xe8?\xd6\x8d\xba\x87\x91D\x1a\xc0\xea!\xf73\x0cB\xf7\xbf'
p2408
tp2409
bag521
(g522
(I0
tp2410
g524
tp2411
Rp2412
(I1
(I3
tp2413
g563
I00
S'\xb0\x11@i\x1f\x12\xb4?\x01\xb6C\x19\x0b\x9d\x1a\xc0\xda \xc5\xc8m8\xeb?'
p2414
tp2415
bag521
(g522
(I0
tp2416
g524
tp2417
Rp2418
(I1
(I3
tp2419
g563
I00
S'Dz\xddx\xe9\xf0\xb4?\x9c\xf2\xf6\xf0\xef \x18\xc0\x03\xe5\x88\xf0JN\xf3?'
p2420
tp2421
bag521
(g522
(I0
tp2422
g524
tp2423
Rp2424
(I1
(I3
tp2425
g563
I00
S'\xe4\x02R\xd9\x08\x8c\xc7?2\xc1\xd4;\xf6\xf3\x15\xc0>\x8c\x8fa?0\xd8?'
p2426
tp2427
bag521
(g522
(I0
tp2428
g524
tp2429
Rp2430
(I1
(I3
tp2431
g563
I00
S'\xcc\x87!\x1f\xfb\x05\xe6?\x14;\x08\xf1<\xc6\x13\xc0V!\xac1j\x94\xc8?'
p2432
tp2433
bag521
(g522
(I0
tp2434
g524
tp2435
Rp2436
(I1
(I3
tp2437
g563
I00
S'`\xc8Aw-\x81\xeb?/\xc3\xe6O\x04\xca\x10\xc0\x8a\xb7K)\x91{\xe4\xbf'
p2438
tp2439
bag521
(g522
(I0
tp2440
g524
tp2441
Rp2442
(I1
(I3
tp2443
g563
I00
S'\xe1\xc6\xc7\xa7\x12X\xe7?\x98\x99\xb0\x9a\xfb\xdb\x0b\xc0R\t\x1b)\xeae\xe0\xbf'
p2444
tp2445
bag521
(g522
(I0
tp2446
g524
tp2447
Rp2448
(I1
(I3
tp2449
g563
I00
S'p\xf1\xbdc^\x84\xf1?"\x88LL\xf9D\x06\xc0~w\r\xe9m\x0f\x19@'
p2450
tp2451
bas(g742
g15
tp2452
(lp2453
g521
(g522
(I0
tp2454
g524
tp2455
Rp2456
(I1
(I3
tp2457
g531
I00
S',\t\x92\xa7\xc9m\n@R7\x972%\xc9\x16\xc0\x1c\xdf\xd5\xbe=\x1c\x11@'
p2458
tp2459
bas(g742
g11
tp2460
g1241
s(g842
g11
tp2461
g1047
s(g630
g11
tp2462
g1153
s(g630
g15
tp2463
(lp2464
g521
(g522
(I0
tp2465
g524
tp2466
Rp2467
(I1
(I3
tp2468
g531
I00
S'\xe7\xfb\xaaE\x8f\xc1\xe5?\xb9\xa6\xc5gY\x12\x1f\xc0])%M\x96\x93\x08@'
p2469
tp2470
bas(g874
g15
tp2471
(lp2472
g521
(g522
(I0
tp2473
g524
tp2474
Rp2475
(I1
(I3
tp2476
g531
I00
S'\xa3\xdc\xa0]\xb4\xb3\xed?`\xb9\xcf\x1f\xa8Q\x13\xc09\x0eA\xb8^ \x13@'
p2477
tp2478
bas(g842
g15
tp2479
(lp2480
g521
(g522
(I0
tp2481
g524
tp2482
Rp2483
(I1
(I3
tp2484
g531
I00
S'\xba\x9ct\x99Y\x93\x0e@\xa3\x82\x19\x7fa\xb4\x17\xc0\r\x07\x97\xeb\xfc\n\x00@'
p2485
tp2486
bas(g586
g15
tp2487
(lp2488
g521
(g522
(I0
tp2489
g524
tp2490
Rp2491
(I1
(I3
tp2492
g531
I00
S'\x8f\x07\xbd)b\xbe\xfb?\n\x85t\x92\x153\x18\xc0\xb00\xe9\xb77m\x17@'
p2493
tp2494
bas(g586
g11
tp2495
g1109
s(g686
g11
tp2496
g1209
ssS'parent_binary_predicates'
p2497
(dp2498
(g30
g46
tp2499
(lp2500
I00
aI00
aI00
as(g30
g30
tp2501
(lp2502
I00
aI00
aI00
as(g10
g46
tp2503
(lp2504
I00
aI01
aI00
as(g11
g10
tp2505
(lp2506
I00
aI00
aI00
as(g23
g10
tp2507
(lp2508
I00
aI00
aI00
as(g19
g30
tp2509
(lp2510
I00
aI00
aI00
as(g33
g33
tp2511
(lp2512
I00
aI00
aI00
as(g10
g15
tp2513
(lp2514
g1386
(g528
(S'b1'
p2515
I0
I1
tp2516
Rp2517
(I3
S'|'
p2518
NNNI-1
I-1
I0
tp2519
bS'\x01'
p2520
tp2521
Rp2522
aI00
aI01
as(g33
g23
tp2523
(lp2524
I00
aI00
aI00
as(g14
g11
tp2525
(lp2526
I00
aI00
aI00
as(g15
g33
tp2527
(lp2528
I00
aI00
aI00
as(g10
g23
tp2529
(lp2530
I00
aI01
aI00
as(g30
g18
tp2531
(lp2532
g2522
aI00
aI00
as(g46
g10
tp2533
(lp2534
I00
aI00
aI00
as(g10
g11
tp2535
(lp2536
I00
aI00
aI00
as(g18
g15
tp2537
(lp2538
I00
aI00
aI00
as(g33
g19
tp2539
(lp2540
I00
aI00
aI00
as(g14
g14
tp2541
(lp2542
I00
aI00
aI00
as(g10
g18
tp2543
(lp2544
g2522
aI00
aI00
as(g18
g33
tp2545
(lp2546
I00
aI00
aI00
as(g15
g46
tp2547
(lp2548
I00
aI00
aI00
as(g15
g30
tp2549
(lp2550
I00
aI00
aI00
as(g46
g11
tp2551
(lp2552
I00
aI00
aI01
as(g23
g33
tp2553
(lp2554
I00
aI01
aI00
as(g19
g33
tp2555
(lp2556
I00
aI01
aI00
as(g46
g19
tp2557
(lp2558
I00
aI00
aI00
as(g18
g11
tp2559
(lp2560
I00
aI00
aI00
as(g14
g10
tp2561
(lp2562
I00
aI00
aI00
as(g33
g46
tp2563
(lp2564
I00
aI00
aI00
as(g18
g46
tp2565
(lp2566
I00
aI00
aI00
as(g46
g18
tp2567
(lp2568
g2522
aI00
aI00
as(g23
g14
tp2569
(lp2570
I00
aI00
aI00
as(g30
g10
tp2571
(lp2572
I00
aI00
aI00
as(g23
g11
tp2573
(lp2574
I00
aI00
aI01
as(g18
g18
tp2575
(lp2576
I00
aI00
aI00
as(g10
g30
tp2577
(lp2578
I00
aI01
aI00
as(g46
g33
tp2579
(lp2580
I00
aI00
aI00
as(g11
g18
tp2581
(lp2582
I00
aI00
aI00
as(g11
g14
tp2583
(lp2584
I00
aI00
aI00
as(g19
g15
tp2585
(lp2586
g2522
aI00
aI01
as(g11
g19
tp2587
(lp2588
I00
aI00
aI00
as(g23
g30
tp2589
(lp2590
I00
aI00
aI00
as(g30
g14
tp2591
(lp2592
I00
aI00
aI00
as(g46
g15
tp2593
(lp2594
g2522
aI00
aI01
as(g30
g19
tp2595
(lp2596
I00
aI00
aI00
as(g46
g46
tp2597
(lp2598
I00
aI00
aI00
as(g19
g10
tp2599
(lp2600
I00
aI00
aI00
as(g15
g11
tp2601
(lp2602
I00
aI00
aI00
as(g33
g11
tp2603
(lp2604
I00
aI00
aI01
as(g18
g19
tp2605
(lp2606
I00
aI00
aI00
as(g11
g23
tp2607
(lp2608
I00
aI00
aI00
as(g30
g23
tp2609
(lp2610
I00
aI00
aI00
as(g19
g18
tp2611
(lp2612
g2522
aI00
aI00
as(g23
g15
tp2613
(lp2614
g2522
aI00
aI01
as(g33
g10
tp2615
(lp2616
I00
aI00
aI00
as(g33
g15
tp2617
(lp2618
g2522
aI00
aI01
as(g18
g23
tp2619
(lp2620
I00
aI00
aI00
as(g15
g10
tp2621
(lp2622
I00
aI00
aI00
as(g19
g11
tp2623
(lp2624
I00
aI00
aI00
as(g14
g19
tp2625
(lp2626
I00
aI00
aI00
as(g15
g15
tp2627
(lp2628
I00
aI00
aI00
as(g14
g46
tp2629
(lp2630
I00
aI00
aI00
as(g15
g14
tp2631
(lp2632
I00
aI00
aI00
as(g10
g33
tp2633
(lp2634
I00
aI01
aI00
as(g19
g46
tp2635
(lp2636
I00
aI00
aI00
as(g15
g19
tp2637
(lp2638
I00
aI00
aI00
as(g14
g18
tp2639
(lp2640
g2522
aI00
aI00
as(g10
g10
tp2641
(lp2642
I00
aI00
aI00
as(g14
g33
tp2643
(lp2644
I00
aI00
aI00
as(g33
g14
tp2645
(lp2646
I00
aI00
aI00
as(g10
g14
tp2647
(lp2648
I00
aI00
aI00
as(g15
g23
tp2649
(lp2650
I00
aI00
aI00
as(g10
g19
tp2651
(lp2652
I00
aI01
aI00
as(g19
g19
tp2653
(lp2654
I00
aI00
aI00
as(g46
g14
tp2655
(lp2656
I00
aI00
aI00
as(g14
g23
tp2657
(lp2658
I00
aI00
aI00
as(g11
g46
tp2659
(lp2660
I00
aI00
aI00
as(g11
g30
tp2661
(lp2662
I00
aI00
aI00
as(g23
g19
tp2663
(lp2664
I00
aI00
aI00
as(g30
g11
tp2665
(lp2666
I00
aI00
aI00
as(g30
g15
tp2667
(lp2668
g2522
aI00
aI01
as(g19
g14
tp2669
(lp2670
I00
aI00
aI00
as(g33
g30
tp2671
(lp2672
I00
aI00
aI00
as(g11
g15
tp2673
(lp2674
I00
aI00
aI00
as(g18
g30
tp2675
(lp2676
I00
aI00
aI00
as(g46
g30
tp2677
(lp2678
I00
aI00
aI00
as(g11
g11
tp2679
(lp2680
I00
aI00
aI00
as(g19
g23
tp2681
(lp2682
I00
aI01
aI00
as(g33
g18
tp2683
(lp2684
g2522
aI00
aI00
as(g23
g18
tp2685
(lp2686
g2522
aI00
aI00
as(g18
g10
tp2687
(lp2688
I00
aI00
aI00
as(g11
g33
tp2689
(lp2690
I00
aI00
aI00
as(g46
g23
tp2691
(lp2692
I00
aI00
aI00
as(g23
g46
tp2693
(lp2694
I00
aI00
aI00
as(g30
g33
tp2695
(lp2696
I00
aI00
aI00
as(g15
g18
tp2697
(lp2698
I00
aI00
aI00
as(g14
g30
tp2699
(lp2700
I00
aI00
aI00
as(g23
g23
tp2701
(lp2702
I00
aI00
aI00
as(g14
g15
tp2703
(lp2704
g2522
aI00
aI01
as(g18
g14
tp2705
(lp2706
I00
aI00
aI00
assS'nodes'
p2707
(dp2708
g18
(lp2709
I0
aI0
aI0
aI0
aI0
aI0
aI00
aI01
aI00
aI01
aI00
asg15
(lp2710
I0
aI0
aI0
aI0
aI0
aI0
aI00
aI01
aI00
aI01
aI00
asg11
(lp2711
I0
aI0
aI0
aI0
aI0
aI0
aI00
aI01
aI01
aI01
aI00
asg33
(lp2712
I0
aI0
aI0
ag1386
(g531
S'\\\x1e]pS`\xd2?'
p2713
tp2714
Rp2715
ag1386
(g531
S'\x10\x1b\xb6\xe9Ei\x18\xc0'
p2716
tp2717
Rp2718
ag1386
(g531
S'\x82\x97\xe8\xa1t:\xe4?'
p2719
tp2720
Rp2721
aI01
aI00
aI00
aI00
aI00
asg10
(lp2722
I0
aI0
aI0
ag1386
(g531
S'{#\x8a\xa8\xbfB\x02@'
p2723
tp2724
Rp2725
ag1386
(g531
S']@\xdd\xaa0\xf7\x1a\xc0'
p2726
tp2727
Rp2728
ag1386
(g531
S'\xa2\x93\xe4\xf2\xe3\x8f\xe0?'
p2729
tp2730
Rp2731
aI01
aI00
aI00
aI00
aI00
asg30
(lp2732
I0
aI0
aI0
ag1386
(g531
S'\x04\xc0$/\t\xb1\xb0?'
p2733
tp2734
Rp2735
ag1386
(g531
S'\xb0\xd9\xd7\x88y7\x1e\xc0'
p2736
tp2737
Rp2738
ag1386
(g531
S'\xa1\xa8\xa4gcb\x12@'
p2739
tp2740
Rp2741
aI01
aI00
aI00
aI00
aI00
asg19
(lp2742
I0
aI0
aI0
ag1386
(g531
S'\xf71, \xdaJ\xf5?'
p2743
tp2744
Rp2745
ag1386
(g531
S'\x8f\x94\xc7_\x9e4\x18\xc0'
p2746
tp2747
Rp2748
ag1386
(g531
S'\x88,&\x8ck,\x0b@'
p2749
tp2750
Rp2751
aI01
aI00
aI00
aI00
aI00
asg22
(lp2752
I0
aI0
aI0
ag1386
(g531
S'3\xfc\xe1r\xc9\x03\x08@'
p2753
tp2754
Rp2755
ag1386
(g531
S'\xe2SI\xe01\x8e\x19\xc0'
p2756
tp2757
Rp2758
ag1386
(g531
S'5\xb7(\x17?\xde\xef?'
p2759
tp2760
Rp2761
aI01
aI00
aI00
aI00
aI00
asg46
(lp2762
I0
aI0
aI0
ag1386
(g531
S'\xf7\xc6\x84Ad\xa3\n@'
p2763
tp2764
Rp2765
ag1386
(g531
S'Z\xaf\xb2\x18;\x05\x1e\xc0'
p2766
tp2767
Rp2768
ag1386
(g531
S'j8\xf9\x85\xb6\xac\x0f@'
p2769
tp2770
Rp2771
aI01
aI00
aI00
aI00
aI00
asg14
(lp2772
I0
aI0
aI0
ag1386
(g531
S'\xe2\xce\x19\xc3\xf23\x0c@'
p2773
tp2774
Rp2775
ag1386
(g531
S'\x98\xb5r\xad\x0f?\x15\xc0'
p2776
tp2777
Rp2778
ag1386
(g531
S'\xbe~a\xe9h\n\x13@'
p2779
tp2780
Rp2781
aI01
aI00
aI01
aI01
aI00
asg23
(lp2782
I0
aI0
aI0
ag1386
(g531
S'\xb1\xcf\xcef\xfe\xbb\xf0?'
p2783
tp2784
Rp2785
ag1386
(g531
S'L@\xfc\xa1\x9e\xc0\x16\xc0'
p2786
tp2787
Rp2788
ag1386
(g531
S'\xaeKe\x14U\xf8\x13@'
p2789
tp2790
Rp2791
aI01
aI00
aI00
aI00
aI00
assS'mc_place_path'
p2792
(dp2793
sS'parent_state'
p2794
(itrajectory_representation.shortest_path_pick_and_place_state
ShortestPathPaPState
p2795
(dp2796
g2
(dp2797
sg4
(itrajectory_representation.predicates.in_region
InRegion
p2798
(dp2799
g7
Nsbsg8
(dp2800
(g10
g10
g11
tp2801
g13
s(g14
g15
g15
tp2802
g17
s(g18
g19
g11
tp2803
g21
s(g22
g23
g15
tp2804
(lp2805
I00
as(g11
g11
g11
tp2806
g27
s(g23
g10
g15
tp2807
g29
s(g14
g30
g11
tp2808
g32
s(g11
g33
g11
tp2809
g35
s(g22
g14
g11
tp2810
(lp2811
I00
as(g30
g33
g15
tp2812
g39
s(g11
g23
g15
tp2813
g41
s(g22
g18
g11
tp2814
(lp2815
I00
as(g15
g11
g15
tp2816
g45
s(g33
g46
g11
tp2817
g48
s(g23
g18
g11
tp2818
g50
s(g22
g19
g15
tp2819
(lp2820
I00
as(g46
g15
g11
tp2821
g54
s(g18
g10
g15
tp2822
g56
s(g11
g18
g11
tp2823
g58
s(g10
g15
g11
tp2824
g60
s(g46
g18
g11
tp2825
g62
s(g14
g14
g15
tp2826
g64
s(g15
g23
g15
tp2827
g66
s(g18
g15
g11
tp2828
g68
s(g18
g22
g11
tp2829
(lp2830
I00
as(g15
g15
g11
tp2831
g72
s(g46
g33
g15
tp2832
g74
s(g11
g11
g15
tp2833
g76
s(g19
g22
g15
tp2834
(lp2835
I00
as(g10
g23
g11
tp2836
g80
s(g46
g14
g11
tp2837
g82
s(g19
g11
g15
tp2838
g84
s(g11
g10
g15
tp2839
g86
s(g19
g30
g15
tp2840
g88
s(g30
g19
g11
tp2841
g90
s(g15
g14
g15
tp2842
g92
s(g23
g22
g15
tp2843
(lp2844
I00
as(g10
g10
g15
tp2845
g96
s(g18
g23
g11
tp2846
g98
s(g15
g11
g11
tp2847
g100
s(g33
g10
g11
tp2848
g102
s(g11
g30
g11
tp2849
g104
s(g22
g19
g11
tp2850
(lp2851
I01
as(g30
g23
g11
tp2852
g108
s(g14
g30
g15
tp2853
g110
s(g46
g22
g11
tp2854
(lp2855
I00
as(g22
g14
g15
tp2856
(lp2857
I00
as(g22
g10
g15
tp2858
(lp2859
I00
as(g18
g22
g15
tp2860
(lp2861
I00
as(g15
g30
g15
tp2862
g120
s(g18
g11
g11
tp2863
g122
s(g33
g11
g11
tp2864
g124
s(g15
g18
g11
tp2865
g126
s(g10
g23
g15
tp2866
g128
s(g46
g10
g15
tp2867
g130
s(g46
g46
g11
tp2868
g132
s(g19
g30
g11
tp2869
g134
s(g18
g10
g11
tp2870
g136
s(g19
g15
g15
tp2871
g138
s(g23
g14
g11
tp2872
g140
s(g14
g14
g11
tp2873
g142
s(g14
g33
g11
tp2874
g144
s(g33
g10
g15
tp2875
g146
s(g23
g19
g15
tp2876
g148
s(g46
g33
g11
tp2877
g150
s(g19
g22
g11
tp2878
(lp2879
I00
as(g10
g19
g15
tp2880
g154
s(g19
g11
g11
tp2881
g156
s(g22
g10
g11
tp2882
(lp2883
I01
as(g10
g46
g11
tp2884
g160
s(g30
g19
g15
tp2885
g162
s(g11
g22
g15
tp2886
(lp2887
I00
as(g18
g11
g15
tp2888
g166
s(g18
g23
g15
tp2889
g168
s(g46
g10
g11
tp2890
g170
s(g30
g46
g15
tp2891
g172
s(g10
g18
g15
tp2892
g174
s(g19
g15
g11
tp2893
g176
s(g46
g22
g15
tp2894
(lp2895
I00
as(g46
g19
g15
tp2896
g180
s(g23
g14
g15
tp2897
g182
s(g11
g30
g15
tp2898
g184
s(g18
g46
g15
tp2899
g186
s(g15
g30
g11
tp2900
g188
s(g15
g22
g15
tp2901
(lp2902
I00
as(g10
g19
g11
tp2903
g192
s(g23
g19
g11
tp2904
g194
s(g15
g46
g11
tp2905
g196
s(g10
g46
g15
tp2906
g198
s(g10
g33
g15
tp2907
g200
s(g30
g23
g15
tp2908
g202
s(g14
g33
g15
tp2909
g204
s(g19
g46
g15
tp2910
g206
s(g11
g14
g15
tp2911
g208
s(g30
g15
g15
tp2912
g210
s(g33
g11
g15
tp2913
g212
s(g14
g19
g11
tp2914
g214
s(g10
g18
g11
tp2915
g216
s(g33
g22
g15
tp2916
(lp2917
I00
as(g30
g10
g15
tp2918
g220
s(g46
g19
g11
tp2919
g222
s(g23
g15
g15
tp2920
g224
s(g22
g11
g11
tp2921
(lp2922
I00
as(g23
g33
g11
tp2923
g228
s(g11
g46
g15
tp2924
g230
s(g15
g19
g15
tp2925
g232
s(g15
g46
g15
tp2926
g234
s(g14
g46
g11
tp2927
g236
s(g19
g46
g11
tp2928
g238
s(g14
g19
g15
tp2929
g240
s(g30
g10
g11
tp2930
g242
s(g10
g22
g11
tp2931
(lp2932
I00
as(g30
g11
g15
tp2933
g246
s(g23
g15
g11
tp2934
g248
s(g15
g33
g15
tp2935
g250
s(g10
g33
g11
tp2936
g252
s(g30
g30
g11
tp2937
g254
s(g33
g33
g11
tp2938
g256
s(g33
g30
g15
tp2939
g258
s(g30
g15
g11
tp2940
g260
s(g46
g23
g11
tp2941
g262
s(g33
g22
g11
tp2942
(lp2943
I00
as(g22
g15
g15
tp2944
(lp2945
I00
as(g30
g18
g15
tp2946
g268
s(g22
g11
g15
tp2947
(lp2948
I00
as(g14
g22
g15
tp2949
(lp2950
I00
as(g23
g33
g15
tp2951
g274
s(g46
g11
g15
tp2952
g276
s(g30
g11
g11
tp2953
g278
s(g15
g33
g11
tp2954
g280
s(g19
g19
g11
tp2955
g282
s(g15
g23
g11
tp2956
g284
s(g23
g46
g11
tp2957
g286
s(g14
g10
g11
tp2958
g288
s(g14
g46
g15
tp2959
g290
s(g33
g14
g15
tp2960
g292
s(g11
g22
g11
tp2961
(lp2962
I00
as(g18
g30
g15
tp2963
g296
s(g30
g14
g11
tp2964
g298
s(g19
g18
g11
tp2965
g300
s(g46
g23
g15
tp2966
g302
s(g46
g30
g15
tp2967
g304
s(g33
g19
g11
tp2968
g306
s(g10
g22
g15
tp2969
(lp2970
I00
as(g33
g15
g11
tp2971
g310
s(g30
g18
g11
tp2972
g312
s(g23
g30
g15
tp2973
g314
s(g10
g14
g11
tp2974
g316
s(g46
g14
g15
tp2975
g318
s(g23
g23
g15
tp2976
g320
s(g33
g33
g15
tp2977
g322
s(g19
g19
g15
tp2978
g324
s(g14
g23
g15
tp2979
g326
s(g23
g22
g11
tp2980
(lp2981
I00
as(g18
g14
g11
tp2982
g330
s(g11
g18
g15
tp2983
g332
s(g11
g19
g15
tp2984
g334
s(g22
g15
g11
tp2985
(lp2986
I00
as(g14
g10
g15
tp2987
g338
s(g19
g14
g15
tp2988
g340
s(g30
g30
g15
tp2989
g342
s(g18
g30
g11
tp2990
g344
s(g22
g30
g15
tp2991
(lp2992
I00
as(g19
g18
g15
tp2993
g348
s(g14
g22
g11
tp2994
(lp2995
I01
as(g33
g19
g15
tp2996
g352
s(g33
g30
g11
tp2997
g354
s(g23
g30
g11
tp2998
g356
s(g14
g11
g15
tp2999
g358
s(g22
g46
g11
tp3000
(lp3001
I00
as(g46
g46
g15
tp3002
g362
s(g33
g18
g11
tp3003
g364
s(g15
g18
g15
tp3004
g366
s(g23
g46
g15
tp3005
g368
s(g15
g19
g11
tp3006
g370
s(g18
g18
g15
tp3007
g372
s(g33
g14
g11
tp3008
g374
s(g14
g23
g11
tp3009
g376
s(g15
g10
g15
tp3010
g378
s(g30
g14
g15
tp3011
g380
s(g46
g11
g11
tp3012
g382
s(g18
g14
g15
tp3013
g384
s(g46
g30
g11
tp3014
g386
s(g30
g22
g11
tp3015
(lp3016
I00
as(g33
g15
g15
tp3017
g390
s(g10
g14
g15
tp3018
g392
s(g19
g10
g11
tp3019
g394
s(g18
g15
g15
tp3020
g396
s(g15
g10
g11
tp3021
g398
s(g14
g18
g11
tp3022
g400
s(g22
g46
g15
tp3023
(lp3024
I00
as(g22
g33
g15
tp3025
(lp3026
I00
as(g23
g11
g11
tp3027
g406
s(g33
g18
g15
tp3028
g408
s(g33
g23
g11
tp3029
g410
s(g18
g33
g15
tp3030
g412
s(g11
g19
g11
tp3031
g414
s(g11
g46
g11
tp3032
g416
s(g19
g14
g11
tp3033
g418
s(g19
g33
g11
tp3034
g420
s(g18
g46
g11
tp3035
g422
s(g22
g30
g11
tp3036
(lp3037
I00
as(g22
g22
g15
tp3038
(lp3039
I00
as(g19
g23
g15
tp3040
g428
s(g23
g11
g15
tp3041
g430
s(g10
g11
g11
tp3042
g432
s(g14
g11
g11
tp3043
g434
s(g19
g10
g15
tp3044
g436
s(g23
g10
g11
tp3045
g438
s(g11
g15
g11
tp3046
g440
s(g18
g18
g11
tp3047
g442
s(g10
g30
g15
tp3048
g444
s(g14
g18
g15
tp3049
g446
s(g15
g22
g11
tp3050
(lp3051
I00
as(g30
g33
g11
tp3052
g450
s(g18
g33
g11
tp3053
g452
s(g14
g15
g11
tp3054
g454
s(g30
g22
g15
tp3055
(lp3056
I00
as(g11
g14
g11
tp3057
g458
s(g18
g19
g15
tp3058
g460
s(g23
g18
g15
tp3059
g462
s(g22
g22
g11
tp3060
(lp3061
I00
as(g19
g23
g11
tp3062
g466
s(g46
g18
g15
tp3063
g468
s(g22
g33
g11
tp3064
(lp3065
I00
as(g11
g23
g11
tp3066
g472
s(g30
g46
g11
tp3067
g474
s(g33
g23
g15
tp3068
g476
s(g23
g23
g11
tp3069
g478
s(g19
g33
g15
tp3070
g480
s(g22
g23
g11
tp3071
(lp3072
I01
as(g46
g15
g15
tp3073
g484
s(g11
g10
g11
tp3074
g486
s(g10
g15
g15
tp3075
g488
s(g11
g33
g15
tp3076
g490
s(g10
g11
g15
tp3077
g492
s(g15
g15
g15
tp3078
g494
s(g22
g18
g15
tp3079
(lp3080
I00
as(g33
g46
g15
tp3081
g498
s(g11
g15
g15
tp3082
g500
s(g10
g30
g11
tp3083
g502
s(g15
g14
g11
tp3084
g504
ssg505
(dp3085
Vrectangular_packing_box4
p3086
g508
sVrectangular_packing_box2
p3087
g587
sVrectangular_packing_box3
p3088
g631
sVrectangular_packing_box1
p3089
g687
sVsquare_packing_box2
p3090
(itrajectory_representation.operator
Operator
p3091
(dp3092
g510
I01
sg511
(dp3093
g513
Vsquare_packing_box2
p3094
ssg515
g516
sg517
(dp3095
g519
(lp3096
g521
(g522
(I0
tp3097
g524
tp3098
Rp3099
(I1
(I3
tp3100
g531
I00
S'\x08<\xcb\x84%_\x0e@Fb\x19\xdf/\x0e\x1c\xc0\xd5\t\xc4E\xe0{\xf7?'
p3101
tp3102
bag521
(g522
(I0
tp3103
g524
tp3104
Rp3105
(I1
(I3
tp3106
g531
I00
S'-\x87r@\x1cO\x0c@L\x00\xe8\xa2\x9a\x0f\x1c\xc0j\xa3\x10Lc\xd9\xe7?'
p3107
tp3108
bag521
(g522
(I0
tp3109
g524
tp3110
Rp3111
(I1
(I3
tp3112
g531
I00
S'J\xe8\x10f\x817\x0c@\xb1\x16\x1a\xa4:}\x1c\xc0!\x0b\xdb\x84V\xf8\xf6?'
p3113
tp3114
bag521
(g522
(I0
tp3115
g524
tp3116
Rp3117
(I1
(I3
tp3118
g531
I00
S'\x1d\xdbLB!X\t@\x11\xc0\x0e\xbdw%\x18\xc0\x8f[n\x02\xe0w\xe0\xbf'
p3119
tp3120
bag521
(g522
(I0
tp3121
g524
tp3122
Rp3123
(I1
(I3
tp3124
g531
I00
S'\x07"~d\x9b\x04\n@\xcc)\xb1f\x13\x82\x1b\xc0\xbe\xe6\xb8\xab\x90\xb3\xf0?'
p3125
tp3126
basg548
I00
ssg549
(lp3127
g521
(g522
(I0
tp3128
g524
tp3129
Rp3130
(I1
(I3
tp3131
g531
I00
S'\x1a\x1d\x99\xd7\xe3\x07\t@]\xb4\xd3U\xf5@\x18\xc0\xe3\xc1\x03\xc3\xc3\x1d\x17@'
p3132
tp3133
bag3117
asbsVsquare_packing_box3
p3134
g799
sVsquare_packing_box1
p3135
g843
sVsquare_packing_box4
p3136
g875
ssg924
I01
sg925
(lp3137
S'square_packing_box1'
p3138
aS'rectangular_packing_box1'
p3139
aS'square_packing_box2'
p3140
aS'rectangular_packing_box2'
p3141
aS'square_packing_box3'
p3142
aS'rectangular_packing_box3'
p3143
aS'square_packing_box4'
p3144
aS'rectangular_packing_box4'
p3145
asg7
Nsg935
(dp3146
Vrectangular_packing_box4
p3147
g941
sVrectangular_packing_box2
p3148
g945
sVrectangular_packing_box3
p3149
g949
sVrectangular_packing_box1
p3150
g953
sVsquare_packing_box2
p3151
g938
((lp3152
I0
aI1
aI144
aI545
aI425
aI302
aI303
aI307
aI438
aI442
aI193
aI453
aI457
aI343
aI473
aI474
aI612
aI367
aI368
aI369
aI370
aI500
aI246
aI247
aI248
aI377
atp3153
Rp3154
sVsquare_packing_box3
p3155
g961
sVsquare_packing_box1
p3156
g965
sVsquare_packing_box4
p3157
g969
ssg970
(lp3158
(g3086
g15
tp3159
a(g3087
g15
tp3160
a(g3088
g15
tp3161
a(g3089
g15
tp3162
a(g3090
g15
tp3163
a(g3134
g15
tp3164
a(g3135
g15
tp3165
a(g3136
g15
tp3166
a(g3086
g11
tp3167
a(g3134
g11
tp3168
a(g3136
g11
tp3169
asg983
(dp3170
Vrectangular_packing_box4
p3171
g521
(g522
(I0
tp3172
g524
tp3173
Rp3174
(I1
(I1
I3
tp3175
g531
I00
S'x\x1e]pS`\xd2?\x12\x1b\xb6\xe9Ei\x18\xc0\x82\x97\xe8\xa1t:\xe4?'
p3176
tp3177
bsVrectangular_packing_box2
p3178
g521
(g522
(I0
tp3179
g524
tp3180
Rp3181
(I1
(I1
I3
tp3182
g531
I00
S'x#\x8a\xa8\xbfB\x02@]@\xdd\xaa0\xf7\x1a\xc0\xa2\x93\xe4\xf2\xe3\x8f\xe0?'
p3183
tp3184
bsVrectangular_packing_box3
p3185
g521
(g522
(I0
tp3186
g524
tp3187
Rp3188
(I1
(I1
I3
tp3189
g531
I00
S'h\xa3$/\t\xb1\xb0?r\xd9\xd7\x88y7\x1e\xc0\xa1\xa8\xa4gcb\x12@'
p3190
tp3191
bsVrectangular_packing_box1
p3192
g521
(g522
(I0
tp3193
g524
tp3194
Rp3195
(I1
(I1
I3
tp3196
g531
I00
S'\xf71, \xdaJ\xf5?\x8f\x94\xc7_\x9e4\x18\xc0\x88,&\x8ck,\x0b@'
p3197
tp3198
bsVsquare_packing_box2
p3199
g521
(g522
(I0
tp3200
g524
tp3201
Rp3202
(I1
(I1
I3
tp3203
g531
I00
S'\xd2g\x0f\x13:\xfe\r@5/H\xad\x96u\x19\xc0\xb94\xd4\xa7X\xae\x11@'
p3204
tp3205
bsVsquare_packing_box3
p3206
g521
(g522
(I0
tp3207
g524
tp3208
Rp3209
(I1
(I1
I3
tp3210
g531
I00
S'(\xc7\x84Ad\xa3\n@\xa5\xaf\xb2\x18;\x05\x1e\xc0j8\xf9\x85\xb6\xac\x0f@'
p3211
tp3212
bsVsquare_packing_box1
p3213
g521
(g522
(I0
tp3214
g524
tp3215
Rp3216
(I1
(I1
I3
tp3217
g531
I00
S'\x1a\xcf\x19\xc3\xf23\x0c@\x90\xb5r\xad\x0f?\x15\xc0\xbf~a\xe9h\n\x13@'
p3218
tp3219
bsVsquare_packing_box4
p3220
g521
(g522
(I0
tp3221
g524
tp3222
Rp3223
(I1
(I1
I3
tp3224
g531
I00
S'\x9c\xce\xcef\xfe\xbb\xf0?L@\xfc\xa1\x9e\xc0\x16\xc0\xaeKe\x14U\xf8\x13@'
p3225
tp3226
bssg1041
(itrajectory_representation.predicates.place_in_way
PlaceInWay
p3227
(dp3228
g1044
(dp3229
(g14
g11
tp3230
(lp3231
g521
(g522
(I0
tp3232
g524
tp3233
Rp3234
(I1
(I3
tp3235
g531
I00
S'\xb8\x9ct\x99Y\x93\x0e@\xa3\x82\x19\x7fa\xb4\x17\xc0\x0c\x07\x97\xeb\xfc\n\x00@'
p3236
tp3237
bag521
(g522
(I0
tp3238
g524
tp3239
Rp3240
(I1
(I3
tp3241
g563
I00
S'\xcb\x1a\x84\x1d\\\x9c\x08@\xec\xcbi\xc9#;\x18\xc0\xbf\xf24g\x02T\x05@'
p3242
tp3243
bag521
(g522
(I0
tp3244
g524
tp3245
Rp3246
(I1
(I3
tp3247
g563
I00
S'\xf8d\x877\x12\xfd\x04@h\xdbW\x9a\x83\x8e\x16\xc0\x87\xf16\xb9\x03k\x05@'
p3248
tp3249
bag521
(g522
(I0
tp3250
g524
tp3251
Rp3252
(I1
(I3
tp3253
g563
I00
S'\xc7\xc7\x06s\xd6\xa3\xff?3\x91\xe4\x97\xb5\x07\x16\xc0\x1bW\xbc\xbfY:\x06@'
p3254
tp3255
bag521
(g522
(I0
tp3256
g524
tp3257
Rp3258
(I1
(I3
tp3259
g563
I00
S'\x85\\2\xba\x0b5\xf5?I\r\x06\xd10\xfb\x15\xc0\x9e\x11\xee\xd8\xb9\xd7\xf5?'
p3260
tp3261
bag521
(g522
(I0
tp3262
g524
tp3263
Rp3264
(I1
(I3
tp3265
g563
I00
S'v\xb8^\x85\xa7[\xea?x\xbe\xff2t\x8d\x13\xc0\x88\x85\x8cCyH\xf6?'
p3266
tp3267
bag521
(g522
(I0
tp3268
g524
tp3269
Rp3270
(I1
(I3
tp3271
g563
I00
S'\xc2\xda(e\x83\x1a\xeb?\x8au\x8d3\xa6E\x11\xc0\xb4c\x1b\xed_\xfd\xfa?'
p3272
tp3273
bag521
(g522
(I0
tp3274
g524
tp3275
Rp3276
(I1
(I3
tp3277
g563
I00
S'\xe4u**\x0e5\xe9?\xaa\xfd\r\xed\xc4\xf6\r\xc0\x0fDE0\x1f\x0b\xfe?'
p3278
tp3279
bag521
(g522
(I0
tp3280
g524
tp3281
Rp3282
(I1
(I3
tp3283
g563
I00
S'\x06\x11,\xef\x98O\xe7??\x10\x01s=b\t\xc04\x92\xb79o\x8c\x00@'
p3284
tp3285
bag521
(g522
(I0
tp3286
g524
tp3287
Rp3288
(I1
(I3
tp3289
g563
I00
S'\x92\xaf\xf3P\x96O\xc2?(\xa1:\x8er}\x05\xc0\xd4_\x91\xb3\xffL\x02@'
p3290
tp3291
bas(g10
g11
tp3292
(lp3293
g521
(g522
(I0
tp3294
g524
tp3295
Rp3296
(I1
(I3
tp3297
g531
I00
S'\x8b\x07\xbd)b\xbe\xfb?\t\x85t\x92\x153\x18\xc0\xb00\xe9\xb77m\x17@'
p3298
tp3299
bag521
(g522
(I0
tp3300
g524
tp3301
Rp3302
(I1
(I3
tp3303
g563
I00
S'N\xcd\xaa\x1e;\x0f\xee?&\xa8j\x7f\xa2\xe5\x17\xc0\xc1rR\xf6\xd1Y\xe0\xbf'
p3304
tp3305
bag521
(g522
(I0
tp3306
g524
tp3307
Rp3308
(I1
(I3
tp3309
g563
I00
S'\xbc\xcaD\xb3\xa5\xd0\xda?5\x9e\xd8L\xbc\xff\x15\xc0\x86v/\xef\x06;\xe9\xbf'
p3310
tp3311
bag521
(g522
(I0
tp3312
g524
tp3313
Rp3314
(I1
(I3
tp3315
g563
I00
S"\xb2&6mg)\xe8?\x99\xe0G'\x16\xe0\x13\xc0\xc8oL\xf5\x17p\xe6\xbf"
p3316
tp3317
bag521
(g522
(I0
tp3318
g524
tp3319
Rp3320
(I1
(I3
tp3321
g563
I00
S'`\xc8Aw-\x81\xeb?/\xc3\xe6O\x04\xca\x10\xc0\x8a\xb7K)\x91{\xe4\xbf'
p3322
tp3323
bag521
(g522
(I0
tp3324
g524
tp3325
Rp3326
(I1
(I3
tp3327
g563
I00
S'\xe1\xc6\xc7\xa7\x12X\xe7?\x98\x99\xb0\x9a\xfb\xdb\x0b\xc0R\t\x1b)\xeae\xe0\xbf'
p3328
tp3329
bag521
(g522
(I0
tp3330
g524
tp3331
Rp3332
(I1
(I3
tp3333
g563
I00
S'p\xf1\xbdc^\x84\xf1?"\x88LL\xf9D\x06\xc0~w\r\xe9m\x0f\x19@'
p3334
tp3335
bas(g30
g11
tp3336
(lp3337
g521
(g522
(I0
tp3338
g524
tp3339
Rp3340
(I1
(I3
tp3341
g531
I00
S'\xe8\xfb\xaaE\x8f\xc1\xe5?\xba\xa6\xc5gY\x12\x1f\xc0])%M\x96\x93\x08@'
p3342
tp3343
bag521
(g522
(I0
tp3344
g524
tp3345
Rp3346
(I1
(I3
tp3347
g563
I00
S'\xd23W\xd6\xdd\xe3\xe6?\xdc\xcai,~\xa9\x1c\xc0\xe4\x03\x93/\x16_\x04\xc0'
p3348
tp3349
bag521
(g522
(I0
tp3350
g524
tp3351
Rp3352
(I1
(I3
tp3353
g563
I00
S'\xf8\xfc\x1a\xd0\xc9l\xe8?\x8a\x897\x8e~\x98\x1a\xc0\xaf\xf7\xb87\xc6\xa7\x01\xc0'
p3354
tp3355
bag521
(g522
(I0
tp3356
g524
tp3357
Rp3358
(I1
(I3
tp3359
g563
I00
S"\xc6'8AN\xb0\xec?\xe0\x975>\x0f\x03\x19\xc0(\xe0e;\x85\x89\x05\xc0"
p3360
tp3361
bag521
(g522
(I0
tp3362
g524
tp3363
Rp3364
(I1
(I3
tp3365
g563
I00
S'\xd0\xcb\x13\x8f\xaa\x9d\xed?\x90\x01<]3\x06\x16\xc0F\xf1\xe7x32\x02\xc0'
p3366
tp3367
bag521
(g522
(I0
tp3368
g524
tp3369
Rp3370
(I1
(I3
tp3371
g563
I00
S'l[\xc4\x16<\xe6\xe9?\xa6\xa0\x90\x84X\x9f\x13\xc0\xc2\xd74Q\x00\xaf\xff\xbf'
p3372
tp3373
bag521
(g522
(I0
tp3374
g524
tp3375
Rp3376
(I1
(I3
tp3377
g563
I00
S"\xaeJ\xbd\x1936\xec?\x04\x13\xd4'\x9f\x88\x10\xc0\x805qo\xb6\xe6\xff\xbf"
p3378
tp3379
bag521
(g522
(I0
tp3380
g524
tp3381
Rp3382
(I1
(I3
tp3383
g563
I00
S'\xf09\xb6\x1c*\x86\xee?\xc4\n/\x96\xcb\xe3\n\xc0\xa0\xc9\xd6F6\x0f\x00\xc0'
p3384
tp3385
bag521
(g522
(I0
tp3386
g524
tp3387
Rp3388
(I1
(I3
tp3389
g563
I00
S'3\xe9\xaf\x05T\x89\xe7?+~\xcb\xd3\x15\xc7\x04\xc0x6(d5\xed\x07@'
p3390
tp3391
bas(g19
g11
tp3392
(lp3393
g521
(g522
(I0
tp3394
g524
tp3395
Rp3396
(I1
(I3
tp3397
g531
I00
S'\\\xca\xc0\xcf\xd9[\xf0?\xff/#\xddH6\x15\xc0F\xa4\xd4\xc0\xcb\x98\x14@'
p3398
tp3399
bag521
(g522
(I0
tp3400
g524
tp3401
Rp3402
(I1
(I3
tp3403
g563
I00
S'\x16nfXE \xf2?\x06\xf1|#c\xe6\x12\xc08\x98\x8f,\xc1@\x04\xc0'
p3404
tp3405
bag521
(g522
(I0
tp3406
g524
tp3407
Rp3408
(I1
(I3
tp3409
g563
I00
S'\xc1E\xbb\x1b\xed\x13\xf3?\xca\xdcw\xec\x1a\x18\x10\xc0j\xed\xec2j\x8c\x04\xc0'
p3410
tp3411
bag521
(g522
(I0
tp3412
g524
tp3413
Rp3414
(I1
(I3
tp3415
g563
I00
S'\xf09\xb6\x1c*\x86\xee?\xc4\n/\x96\xcb\xe3\n\xc0\xa0\xc9\xd6F6\x0f\x00\xc0'
p3416
tp3417
bag521
(g522
(I0
tp3418
g524
tp3419
Rp3420
(I1
(I3
tp3421
g563
I00
S'3\xe9\xaf\x05T\x89\xe7?+~\xcb\xd3\x15\xc7\x04\xc0x6(d5\xed\x07@'
p3422
tp3423
bas(g22
g11
tp3424
(lp3425
g521
(g522
(I0
tp3426
g524
tp3427
Rp3428
(I1
(I3
tp3429
g531
I00
S'\x08<\xcb\x84%_\x0e@Fb\x19\xdf/\x0e\x1c\xc0\xd6\t\xc4E\xe0{\xf7?'
p3430
tp3431
bag521
(g522
(I0
tp3432
g524
tp3433
Rp3434
(I1
(I3
tp3435
g563
I00
S'\xd3s\x0b\xfa\xdf\xd9\x08@\xc52\xb7\xa7\x86L\x1b\xc0\xca\xe2\x95Rh\xea\xf6?'
p3436
tp3437
bag521
(g522
(I0
tp3438
g524
tp3439
Rp3440
(I1
(I3
tp3441
g563
I00
S'\x80e\xcc\t\x9a\xde\x04@<\x13[@\x0e\xa9\x19\xc0\xca\xb9\x9c\x08\r\xad\xf4?'
p3442
tp3443
bag521
(g522
(I0
tp3444
g524
tp3445
Rp3446
(I1
(I3
tp3447
g563
I00
S'\xb1\x91\x83\xd6J:\x00@X\xbf\x9b\xa3\xf7;\x19\xc0\xb4\xa9\x94\xff\xff\xd1\xec?'
p3448
tp3449
bag521
(g522
(I0
tp3450
g524
tp3451
Rp3452
(I1
(I3
tp3453
g563
I00
S'j\xc7\xc0&\x8ag\xf6?h\x9cH4\x7f\xab\x18\xc0\xd8|\x1d\xfc\xcbV\xf2?'
p3454
tp3455
bag521
(g522
(I0
tp3456
g524
tp3457
Rp3458
(I1
(I3
tp3459
g563
I00
S'\x85\\2\xba\x0b5\xf5?I\r\x06\xd10\xfb\x15\xc0\x9e\x11\xee\xd8\xb9\xd7\xf5?'
p3460
tp3461
bag521
(g522
(I0
tp3462
g524
tp3463
Rp3464
(I1
(I3
tp3465
g563
I00
S'v\xb8^\x85\xa7[\xea?x\xbe\xff2t\x8d\x13\xc0\x88\x85\x8cCyH\xf6?'
p3466
tp3467
bag521
(g522
(I0
tp3468
g524
tp3469
Rp3470
(I1
(I3
tp3471
g563
I00
S'\xc2\xda(e\x83\x1a\xeb?\x8au\x8d3\xa6E\x11\xc0\xb4c\x1b\xed_\xfd\xfa?'
p3472
tp3473
bag521
(g522
(I0
tp3474
g524
tp3475
Rp3476
(I1
(I3
tp3477
g563
I00
S'\xe4u**\x0e5\xe9?\xaa\xfd\r\xed\xc4\xf6\r\xc0\x0fDE0\x1f\x0b\xfe?'
p3478
tp3479
bag521
(g522
(I0
tp3480
g524
tp3481
Rp3482
(I1
(I3
tp3483
g563
I00
S'\x06\x11,\xef\x98O\xe7??\x10\x01s=b\t\xc04\x92\xb79o\x8c\x00@'
p3484
tp3485
bag521
(g522
(I0
tp3486
g524
tp3487
Rp3488
(I1
(I3
tp3489
g563
I00
S'\x92\xaf\xf3P\x96O\xc2?(\xa1:\x8er}\x05\xc0\xd4_\x91\xb3\xffL\x02@'
p3490
tp3491
bassg1296
(dp3492
(g14
g11
tp3493
(lp3494
Vsquare_packing_box2
p3495
aVrectangular_packing_box1
p3496
aVsquare_packing_box4
p3497
as(g10
g11
tp3498
(lp3499
Vrectangular_packing_box1
p3500
aVsquare_packing_box4
p3501
aVrectangular_packing_box4
p3502
as(g30
g11
tp3503
(lp3504
Vrectangular_packing_box1
p3505
aVsquare_packing_box4
p3506
aVrectangular_packing_box4
p3507
as(g19
g11
tp3508
(lp3509
Vsquare_packing_box4
p3510
as(g22
g11
tp3511
(lp3512
Vrectangular_packing_box2
p3513
aVrectangular_packing_box1
p3514
aVsquare_packing_box4
p3515
assg1322
(lp3516
g3087
ag3090
ag3135
asg1324
(dp3517
Vrectangular_packing_box4
p3518
g1329
sVrectangular_packing_box2
p3519
g1333
sVrectangular_packing_box3
p3520
g1337
sVrectangular_packing_box1
p3521
g1341
sVsquare_packing_box2
p3522
g938
((lp3523
I368
aI457
aI438
aI545
aI425
aI343
aI302
aI303
aI144
aI369
aI370
aI307
aI500
aI246
aI247
aI473
aI377
aI442
aI367
aI474
aI453
atp3524
Rp3525
sVsquare_packing_box3
p3526
g1349
sVsquare_packing_box1
p3527
g1353
sVsquare_packing_box4
p3528
g1357
ssg2
g2797
sg505
g3085
sg1358
(dp3529
sg1360
Nsg1361
(lp3530
sg1363
(dp3531
sg1365
I0
sg1366
g3085
sg7
Nsg1367
(dp3532
(g22
g23
g11
tp3533
I01
s(g22
g46
g11
tp3534
I00
s(g22
g10
g11
tp3535
I01
s(g10
g22
g11
tp3536
I00
s(g22
g19
g11
tp3537
I01
s(g22
g30
g11
tp3538
I00
s(g22
g14
g11
tp3539
I00
s(g30
g22
g11
tp3540
I00
s(g22
g33
g11
tp3541
I00
s(g14
g22
g11
tp3542
I01
s(g19
g22
g11
tp3543
I00
ssg1380
Nsg1381
I01
sbsg1382
(dp3544
g3086
(lp3545
g521
(g522
(I0
tp3546
g524
tp3547
Rp3548
(I1
(I3
tp3549
g531
I00
S'\x1a\x1d\x99\xd7\xe3\x07\t@]\xb4\xd3U\xf5@\x18\xc0\xe3\xc1\x03\xc3\xc3\x1d\x17@'
p3550
tp3551
bag521
(g522
(I0
tp3552
g524
tp3553
Rp3554
(I1
(I3
tp3555
g563
I00
S'A\xec\xb55+(\x03@v\x14\x1a\xc5J\xca\x18\xc0\xe9\rA\xa0%\xbe\xc7?'
p3556
tp3557
bag521
(g522
(I0
tp3558
g524
tp3559
Rp3560
(I1
(I3
tp3561
g563
I00
S'\xeaT\xc2\xbf\xe4\x8d\xfb?L\xe4y~t"\x18\xc0\x0f\x12ob\\\x05\x0b@'
p3562
tp3563
bag544
asg3087
(lp3564
g521
(g522
(I0
tp3565
g524
tp3566
Rp3567
(I1
(I3
tp3568
g531
I00
S'\x1a\x1d\x99\xd7\xe3\x07\t@]\xb4\xd3U\xf5@\x18\xc0\xe3\xc1\x03\xc3\xc3\x1d\x17@'
p3569
tp3570
bag521
(g522
(I0
tp3571
g524
tp3572
Rp3573
(I1
(I3
tp3574
g563
I00
S'\x16\x9e\xd06H\xd3\x04@\xe5\xe1\xfb\xc5\xb8\xd1\x16\xc0es\x86\x03\xdb\x8e\x17@'
p3575
tp3576
bag521
(g522
(I0
tp3577
g524
tp3578
Rp3579
(I1
(I3
tp3580
g563
I00
S'\x00\xda\x1c<\xfd\xdc\x00@j"\x91\xe3 \x1a\x18\xc0i~!@)\xb0\xdc\xbf'
p3581
tp3582
bag607
asg3088
(lp3583
g521
(g522
(I0
tp3584
g524
tp3585
Rp3586
(I1
(I3
tp3587
g531
I00
S'\x1a\x1d\x99\xd7\xe3\x07\t@]\xb4\xd3U\xf5@\x18\xc0\xe3\xc1\x03\xc3\xc3\x1d\x17@'
p3588
tp3589
bag521
(g522
(I0
tp3590
g524
tp3591
Rp3592
(I1
(I3
tp3593
g563
I00
S'0\xaf\xd4\xd6]V\x04@\xae\x11\x8b;Ad\x19\xc0\xe0\x95\x12l-L\x03\xc0'
p3594
tp3595
bag521
(g522
(I0
tp3596
g524
tp3597
Rp3598
(I1
(I3
tp3599
g563
I00
S'\xc2Fo\n7\x11\x03@\xb6=Ya.\xe0\x1a\xc0,\x0b\x04&"Y\x07\xc0'
p3600
tp3601
bag521
(g522
(I0
tp3602
g524
tp3603
Rp3604
(I1
(I3
tp3605
g563
I00
S'\xc4_\xf9\x03N\xba\x00@R\xfd8\x1fs\r\x1d\xc0\xa1\xe6w68\xd4\x03\xc0'
p3606
tp3607
bag521
(g522
(I0
tp3608
g524
tp3609
Rp3610
(I1
(I3
tp3611
g563
I00
S'S@\xf8l\x95\x08\xf8?\xef\x91If\xa4L\x1e\xc0\x8b\xc5pa\xf4C\x04\xc0'
p3612
tp3613
bag651
asg3089
(lp3614
g521
(g522
(I0
tp3615
g524
tp3616
Rp3617
(I1
(I3
tp3618
g531
I00
S'\x1a\x1d\x99\xd7\xe3\x07\t@]\xb4\xd3U\xf5@\x18\xc0\xe3\xc1\x03\xc3\xc3\x1d\x17@'
p3619
tp3620
bag521
(g522
(I0
tp3621
g524
tp3622
Rp3623
(I1
(I3
tp3624
g563
I00
S'\xe5\x81\x88\x94\xfea\t@\xb6\xf7\xb8\xeb\xb6\x8a\x1a\xc0:+\xe8\xa7\xe2a\x16@'
p3625
tp3626
bag521
(g522
(I0
tp3627
g524
tp3628
Rp3629
(I1
(I3
tp3630
g563
I00
S'\xba\x8d\x1a\xa2f&\x03@$\xbc\xba{lE\x1a\xc0172\n\x8c\xab\x03@'
p3631
tp3632
bag701
asg3090
g3127
sg3134
(lp3633
g521
(g522
(I0
tp3634
g524
tp3635
Rp3636
(I1
(I3
tp3637
g531
I00
S'\x1a\x1d\x99\xd7\xe3\x07\t@]\xb4\xd3U\xf5@\x18\xc0\xe3\xc1\x03\xc3\xc3\x1d\x17@'
p3638
tp3639
bag521
(g522
(I0
tp3640
g524
tp3641
Rp3642
(I1
(I3
tp3643
g563
I00
S'A\xec\xb55+(\x03@v\x14\x1a\xc5J\xca\x18\xc0\xe9\rA\xa0%\xbe\xc7?'
p3644
tp3645
bag521
(g522
(I0
tp3646
g524
tp3647
Rp3648
(I1
(I3
tp3649
g563
I00
S'\xca\xbc\xd1\x14\xab\xdb\x03@\x1d\xe31\xd0\xab\xb7\x1a\xc0\xbe\x9cO\xe2\x184\x13@'
p3650
tp3651
bag819
asg3135
(lp3652
g521
(g522
(I0
tp3653
g524
tp3654
Rp3655
(I1
(I3
tp3656
g531
I00
S'\x1a\x1d\x99\xd7\xe3\x07\t@]\xb4\xd3U\xf5@\x18\xc0\xe3\xc1\x03\xc3\xc3\x1d\x17@'
p3657
tp3658
bag521
(g522
(I0
tp3659
g524
tp3660
Rp3661
(I1
(I3
tp3662
g563
I00
S'\x9c\xd4w\x9c\x04/\t@\x8b\xccu\xcb^\x9d\x18\xc0*\x8aycbt\xf5\xbf'
p3663
tp3664
bag521
(g522
(I0
tp3665
g524
tp3666
Rp3667
(I1
(I3
tp3668
g563
I00
S'\x19\xdbXU\x9c\xa8\x04@\xe6\xf1\xeb\xae\xcb\x05\x18\xc0\xce\x9cp\x98\xaf*\xeb?'
p3669
tp3670
bag863
asg3136
(lp3671
g521
(g522
(I0
tp3672
g524
tp3673
Rp3674
(I1
(I3
tp3675
g531
I00
S'\x1a\x1d\x99\xd7\xe3\x07\t@]\xb4\xd3U\xf5@\x18\xc0\xe3\xc1\x03\xc3\xc3\x1d\x17@'
p3676
tp3677
bag521
(g522
(I0
tp3678
g524
tp3679
Rp3680
(I1
(I3
tp3681
g563
I00
S'/\x08\xfbO\x0f\xe3\x04@j\xb9\xdeR\x8bv\x1a\xc0Nw\xbd\xbe\xd2\x01\xfd\xbf'
p3682
tp3683
bag521
(g522
(I0
tp3684
g524
tp3685
Rp3686
(I1
(I3
tp3687
g563
I00
S'd"x~\xf6\x99\x00@\xe4\xfe\xc6G\x1d\xfb\x1b\xc0\x98\xbd;g\xb8\x8f\xf5\xbf'
p3688
tp3689
bag521
(g522
(I0
tp3690
g524
tp3691
Rp3692
(I1
(I3
tp3693
g563
I00
S'JyH\x8ez\xd6\xfa?\xb3\xf7h\x83\xea\xba\x1a\xc0u\xf9Uf\xb7m\xe0?'
p3694
tp3695
bag895
assg1324
(dp3696
(Vsquare_packing_box4
p3697
(g1386
(g531
S'\x90\xc0\x1f~\xfe\xbb\xf0?'
p3698
tp3699
Rp3700
g1386
(g531
S'8\xdb\xdc\x98\x9e\xc0\x16\xc0'
p3701
tp3702
Rp3703
g1386
(g531
S'\xda\x8c\xd3\x10U\xf8\x13@'
p3704
tp3705
Rp3706
tp3707
tp3708
g1357
s(Vrectangular_packing_box2
p3709
(g1386
(g531
S'\xce\xe30\x98\xbfB\x02@'
p3710
tp3711
Rp3712
g1386
(g531
S'\xf9hq\xc60\xf7\x1a\xc0'
p3713
tp3714
Rp3715
g1386
(g531
S'V\xbc\x91y\xe4\x8f\xe0?'
p3716
tp3717
Rp3718
tp3719
tp3720
g1333
s(Vrectangular_packing_box3
p3721
(g1386
(g531
S'{\x9f\xaaB\x03\xb1\xb0?'
p3722
tp3723
Rp3724
g1386
(g531
S'\x0f\x0b\xb5\xa6y7\x1e\xc0'
p3725
tp3726
Rp3727
g1386
(g531
S'\xe5\xef\xdeQcb\x12@'
p3728
tp3729
Rp3730
tp3731
tp3732
g1337
s(Vrectangular_packing_box4
p3733
(g1386
(g531
S'}\xec.PR`\xd2?'
p3734
tp3735
Rp3736
g1386
(g531
S'\x8fT\xdf\xf9Ei\x18\xc0'
p3737
tp3738
Rp3739
g1386
(g531
S'\xe8\xf9\xd3Fu:\xe4?'
p3740
tp3741
Rp3742
tp3743
tp3744
g1329
s(Vsquare_packing_box2
p3745
(g1386
(g531
S'\xc5\x92r\xf79\xfe\r@'
p3746
tp3747
Rp3748
g1386
(g531
S'\x9b\x01.\xc8\x96u\x19\xc0'
p3749
tp3750
Rp3751
g1386
(g531
S'\x91D/\xa3X\xae\x11@'
p3752
tp3753
Rp3754
tp3755
tp3756
g3525
s(Vsquare_packing_box3
p3757
(g1386
(g531
S'\xc7\xbc\x8e8d\xa3\n@'
p3758
tp3759
Rp3760
g1386
(g531
S'\xb8\xca\x13\x08;\x05\x1e\xc0'
p3761
tp3762
Rp3763
g1386
(g531
S'\xde\xc9\xa7\xc7\xb6\xac\x0f@'
p3764
tp3765
Rp3766
tp3767
tp3768
g1349
s(Vsquare_packing_box1
p3769
(g1386
(g531
S'N\xb4\xab\x90\xf23\x0c@'
p3770
tp3771
Rp3772
g1386
(g531
S'Q\xf5+\x9d\x0f?\x15\xc0'
p3773
tp3774
Rp3775
g1386
(g531
S'\xe2\x1f\xb6\xf4h\n\x13@'
p3776
tp3777
Rp3778
tp3779
tp3780
g1353
s(Vrectangular_packing_box1
p3781
(g1386
(g531
S'\xa8\xdf\x85\xad\xd9J\xf5?'
p3782
tp3783
Rp3784
g1386
(g531
S'\x14\x05\xfaD\x9e4\x18\xc0'
p3785
tp3786
Rp3787
g1386
(g531
S'\xb13\x85\xcek,\x0b@'
p3788
tp3789
Rp3790
tp3791
tp3792
g1341
ssg1482
(igtamp_utils.utils
CustomStateSaver
p3793
(dp3794
g1485
g521
(g522
(I0
tp3795
g524
tp3796
Rp3797
(I1
(I1
I3
tp3798
g531
I00
S'"\x1d\x99\xd7\xe3\x07\t@^\xb4\xd3U\xf5@\x18\xc0\xe4\xc1\x03\xc3\xc3\x1d\x17@'
p3799
tp3800
bsg1492
Nsg1493
g1494
sg1495
I1
sg983
(dp3801
Vright_wall_1
p3802
g521
(g522
(I0
tp3803
g524
tp3804
Rp3805
(I1
(I4
tp3806
g531
I00
S'H\xe1z\x14\xaeG\x12@&\\\x8f\xc2\xf5(\xd4\xbf\xcc\x7fH\xbf}\x1d\xed?\x00\x00\x00\x00\x00\x00\x00\x00'
p3807
tp3808
bsVc_obst5
p3809
g521
(g522
(I0
tp3810
g524
tp3811
Rp3812
(I1
(I4
tp3813
g531
I00
S"\x98\xf1q\xbb~\xea\x11@\x1e8\xbb\xd6O\xb6\xd4?e\xaa`TR'\xed?\xd2\x93\xb1\x82\xa4\x94\x0b@"
p3814
tp3815
bsVentrance_right
p3816
g521
(g522
(I0
tp3817
g524
tp3818
Rp3819
(I1
(I4
tp3820
g531
I00
S'ffffff\n@H\xe1z\x14\xaeG\t\xc0\x9c\xc4 \xb0rh\xc1?\x00\x00\x00\x00\x00\x00\x00\x00'
p3821
tp3822
bsVcomputer_table
p3823
g521
(g522
(I0
tp3824
g524
tp3825
Rp3826
(I1
(I4
tp3827
g531
I00
S'\x00\x00\x00\x00\x00\x00\x13@\x00\x00\x00\x00\x00\x00\xf8\xbf\x96C\x8bl\xe7\xfb\xe7?\xd2!3\x7f|\xd9\x12@'
p3828
tp3829
bsVchair_6b56
p3830
g521
(g522
(I0
tp3831
g524
tp3832
Rp3833
(I1
(I4
tp3834
g531
I00
S'\x80=\n\xd7\xa3p\xf5?P\xe1z\x14\xaeG\xd1?\x00\x00\x00\x00\x00\x00\x00\x00\xd6$\xfaNBm\n@'
p3835
tp3836
bsVsquare_packing_box3
p3837
g521
(g522
(I0
tp3838
g524
tp3839
Rp3840
(I1
(I4
tp3841
g531
I00
S'.\xc7\x84Ad\xa3\n@\xab\xaf\xb2\x18;\x05\x1e\xc0L7\x89A`\xe5\xd8?j8\xf9\x85\xb6\xac\x0f@'
p3842
tp3843
bsVsquare_packing_box2
p3844
g521
(g522
(I0
tp3845
g524
tp3846
Rp3847
(I1
(I4
tp3848
g531
I00
S'\xc4g\x0f\x13:\xfe\r@3/H\xad\x96u\x19\xc0<7\x89A`\xe5\xd8?\xb94\xd4\xa7X\xae\x11@'
p3849
tp3850
bsVtable
p3851
g521
(g522
(I0
tp3852
g524
tp3853
Rp3854
(I1
(I4
tp3855
g531
I00
S'\x7f\xf6#EdX\xed?\xac\xffs\x98//\xc0\xbf\x00\x00\x00\x00\x00\x00\x00\x00\x00\x00\x00\x00\x00\x00\x00\x00'
p3856
tp3857
bsVsquare_packing_box1
p3858
g521
(g522
(I0
tp3859
g524
tp3860
Rp3861
(I1
(I4
tp3862
g531
I00
S'\x16\xcf\x19\xc3\xf23\x0c@\x8e\xb5r\xad\x0f?\x15\xc0L7\x89A`\xe5\xd8?\xbf~a\xe9h\n\x13@'
p3863
tp3864
bsVback_wall_2
p3865
g521
(g522
(I0
tp3866
g524
tp3867
Rp3868
(I1
(I4
tp3869
g531
I00
S'\xaeG\xe1z\x14.\x13@\x80\x14\xaeG\xe1z\xc4?xX\xa85\xcd\xbb\xf2?\x00\x00\x00\x00\x00\x00\x00\x00'
p3870
tp3871
bsVchair_083c
p3872
g521
(g522
(I0
tp3873
g524
tp3874
Rp3875
(I1
(I4
tp3876
g531
I00
S'\xa4p=\n\xd7\xa3\xe0?333333\xe3\xbf\x00\x00\x00\x00\x00\x00\x00\x00\x00\x00\x00\x00\x00\x00\x00\x00'
p3877
tp3878
bsVback_wall_1
p3879
g521
(g522
(I0
tp3880
g524
tp3881
Rp3882
(I1
(I4
tp3883
g531
I00
S'\xaeG\xe1z\x14.\x13@\x80\x14\xaeG\xe1z\xc4?\xcc\x7fH\xbf}\x1d\xed?\x00\x00\x00\x00\x00\x00\x00\x00'
p3884
tp3885
bsVbottom_wall
p3886
g521
(g522
(I0
tp3887
g524
tp3888
Rp3889
(I1
(I4
tp3890
g531
I00
S'\x00\x00\x00\x00\x00\x00\xfc?\x00\x00\x00\x00\x00\x00\x00\x00\x00\x00\x00\x00\x00\x00\x00\x00\x00\x00\x00\x00\x00\x00\x00\x00'
p3891
tp3892
bsVcup_905a
p3893
g521
(g522
(I0
tp3894
g524
tp3895
Rp3896
(I1
(I4
tp3897
g531
I00
S'\x00\x00\x00\x00\x00\x00\xf0?\x83\xc0\xca\xa1E\xb6\xdb?\x1b/\xdd$\x06\x81\xed?\x00\x00\x00\x00\x00\x00\x00\x00'
p3898
tp3899
bsVplate_496f
p3900
g521
(g522
(I0
tp3901
g524
tp3902
Rp3903
(I1
(I4
tp3904
g531
I00
S"q=\n\xd7\xa3p\xe5?\x9dhW!\xe5'\xdd\xbf\x1b/\xdd$\x06\x81\xed?\x00\x00\x00\x00\x00\x00\x00\x00"
p3905
tp3906
bsVtoaster
p3907
g521
(g522
(I0
tp3908
g524
tp3909
Rp3910
(I1
(I4
tp3911
g531
I00
S')\\\x8f\xc2\xf5(\xf4\xbf\xe0z\x14\xaeG\xe1\xf2\xbf\xb8\x1e\x85\xebQ\xb8\xee?\x89/`\x9b\xf8\x8a\xe4?'
p3912
tp3913
bsVc_obst1
p3914
g521
(g522
(I0
tp3915
g524
tp3916
Rp3917
(I1
(I4
tp3918
g531
I00
S"\xef$\x95\xf6\x8a4\x12@\x07\xc3S\xe6\xc1\xef\xd7?e\xaa`TR'\xed?\xe0\xbaL\x80\x10\xb3\t@"
p3919
tp3920
bsVrectangular_packing_box4
p3921
g521
(g522
(I0
tp3922
g524
tp3923
Rp3924
(I1
(I4
tp3925
g531
I00
S'x\x1e]pS`\xd2?\x12\x1b\xb6\xe9Ei\x18\xc0L7\x89A`\xe5\xd8?\x82\x97\xe8\xa1t:\xe4?'
p3926
tp3927
bsVmicrowave
p3928
g521
(g522
(I0
tp3929
g524
tp3930
Rp3931
(I1
(I4
tp3932
g531
I00
S'\x9a\x99\x99\x99\x99\x99\xf1\xbf\x00\x00\x00\x00\x00\x00\x00@7\x89A`\xe5\xd0\xee?\x00\x00\x00\x00\x00\x00\x00\x00'
p3933
tp3934
bsVc_obst7
p3935
g521
(g522
(I0
tp3936
g524
tp3937
Rp3938
(I1
(I4
tp3939
g531
I00
S"\xfa\x81=\xfa]F\x12@Rf\x922\x8f\r\xdc?e\xaa`TR'\xed?\xa1F+\x03Yi}?"
p3940
tp3941
bsVc_obst6
p3942
g521
(g522
(I0
tp3943
g524
tp3944
Rp3945
(I1
(I4
tp3946
g531
I00
S"\xf8\x9a\x11\x01\x95\x83\x12@\xe8\xa7>?}-\xd2?e\xaa`TR'\xed?\xed\xedJ\xfa\x0b\x0c\x04@"
p3947
tp3948
bsVcup_b6af
p3949
g521
(g522
(I0
tp3950
g524
tp3951
Rp3952
(I1
(I4
tp3953
g531
I00
S'R\xb8\x1e\x85\xebQ\xe8?\x9a\x99\x99\x99\x99\x99\xe1?\x1b/\xdd$\x06\x81\xed?\x00\x00\x00\x00\x00\x00\x00\x00'
p3954
tp3955
bsVc_obst4
p3956
g521
(g522
(I0
tp3957
g524
tp3958
Rp3959
(I1
(I4
tp3960
g531
I00
S"n\x08(p\x9bi\x12@\xc0\x8f\x90\x84\x98\xd9\xc1?e\xaa`TR'\xed?\xae\x8f\xee\xf0\x1b\x97\x16@"
p3961
tp3962
bsVrectangular_packing_box2
p3963
g521
(g522
(I0
tp3964
g524
tp3965
Rp3966
(I1
(I4
tp3967
g531
I00
S'x#\x8a\xa8\xbfB\x02@]@\xdd\xaa0\xf7\x1a\xc0L7\x89A`\xe5\xd8?\xa2\x93\xe4\xf2\xe3\x8f\xe0?'
p3968
tp3969
bsVplate_fa76
p3970
g521
(g522
(I0
tp3971
g524
tp3972
Rp3973
(I1
(I4
tp3974
g531
I00
S'=\n\xd7\xa3p=\xf2?\x00\x00\x00\x00\x00\x00\x00\x00\x1b/\xdd$\x06\x81\xed?\x00\x00\x00\x00\x00\x00\x00\x00'
p3975
tp3976
bsVfloorwalls
p3977
g521
(g522
(I0
tp3978
g524
tp3979
Rp3980
(I1
(I4
tp3981
g531
I00
S'\xc7\xcc\xcc\xcc\xcc\xcc\xfc?\x00\x00\x00\x00\x00\x00\x18\xc0H\xe1z\x14\xaeG\xc1?\x16-DT\xfb!\xf9?'
p3982
tp3983
bsVpin_c671
p3984
g521
(g522
(I0
tp3985
g524
tp3986
Rp3987
(I1
(I4
tp3988
g531
I00
S'\xc3\xf5(\\\x8f\xc2\xf1\xbf}?5^\xbaI\x02@\xb8\x1e\x85\xebQ\xb8\xfa?\x00\x00\x00\x00\x00\x00\x00\x00'
p3989
tp3990
bsVc_obst3
p3991
g521
(g522
(I0
tp3992
g524
tp3993
Rp3994
(I1
(I4
tp3995
g531
I00
S"^\xdd\\<%\xa1\x12@\xac\x8b8\x90\xc6\xe6\xd8?e\xaa`TR'\xed?\x1c\x9e\xaarJ\xdd\x16@"
p3996
tp3997
bsVchair_2e39
p3998
g521
(g522
(I0
tp3999
g524
tp4000
Rp4001
(I1
(I4
tp4002
g531
I00
S'jfffff\xee?Yfffff\xf2\xbf\x00\x00\x00\x00\x00\x00\x00\x00\x07M\xe8QQF\xf3?'
p4003
tp4004
bsVentrance_left
p4005
g521
(g522
(I0
tp4006
g524
tp4007
Rp4008
(I1
(I4
tp4009
g531
I00
S'\x98\x99\x99\x99\x99\x99\xe9\xbfH\xe1z\x14\xaeG\t\xc0\x9c\xc4 \xb0rh\xc1?\x00\x00\x00\x00\x00\x00\x00\x00'
p4010
tp4011
bsVtop_wall_1
p4012
g521
(g522
(I0
tp4013
g524
tp4014
Rp4015
(I1
(I4
tp4016
g531
I00
S'H\xe1z\x14\xaeG\x12@\x80\x14\xaeG\xe1z\xc4?xX\xa85\xcd\xbb\xf2?\x00\x00\x00\x00\x00\x00\x00\x00'
p4017
tp4018
bsVrectangular_packing_box3
p4019
g521
(g522
(I0
tp4020
g524
tp4021
Rp4022
(I1
(I4
tp4023
g531
I00
S'x\xa3$/\t\xb1\xb0?r\xd9\xd7\x88y7\x1e\xc0L7\x89A`\xe5\xd8?\xa1\xa8\xa4gcb\x12@'
p4024
tp4025
bsVshaker
p4026
g521
(g522
(I0
tp4027
g524
tp4028
Rp4029
(I1
(I4
tp4030
g531
I00
S'\n\xd7\xa3p=\n\x01@\x14\xaeG\xe1z\x14\x02@\\\x8f\xc2\xf5(\\\xef?\x00\x00\x00\x00\x00\x00\x00\x00'
p4031
tp4032
bsVc_obst9
p4033
g521
(g522
(I0
tp4034
g524
tp4035
Rp4036
(I1
(I4
tp4037
g531
I00
S"\x84v\x82wVC\x12@\xa0n\xad8\xc7F\xc2\xbfe\xaa`TR'\xed?\xd9R5=\xef\x80\x10@"
p4038
tp4039
bsVplate_835a
p4040
g521
(g522
(I0
tp4041
g524
tp4042
Rp4043
(I1
(I4
tp4044
g531
I00
S'\xf6(\\\x8f\xc2\xf5\xf0?\\\x8f\xc2\xf5(\\\xe7\xbf\x1b/\xdd$\x06\x81\xed?\x00\x00\x00\x00\x00\x00\x00\x00'
p4045
tp4046
bsVcup_58a2
p4047
g521
(g522
(I0
tp4048
g524
tp4049
Rp4050
(I1
(I4
tp4051
g531
I00
S'\x85\xebQ\xb8\x1e\x85\xe3?\xcd\xcc\xcc\xcc\xcc\xcc\xdc?\x1b/\xdd$\x06\x81\xed?\x00\x00\x00\x00\x00\x00\x00\x00'
p4052
tp4053
bsVleft_wall_1
p4054
g521
(g522
(I0
tp4055
g524
tp4056
Rp4057
(I1
(I4
tp4058
g531
I00
S'H\xe1z\x14\xaeG\x12@S\xb8\x1e\x85\xebQ\xe4?\xcc\x7fH\xbf}\x1d\xed?\x00\x00\x00\x00\x00\x00\x00\x00'
p4059
tp4060
bsVc_obst2
p4061
g521
(g522
(I0
tp4062
g524
tp4063
Rp4064
(I1
(I4
tp4065
g531
I00
S"\x05\xf9\xf8\xe06C\x12@\x82c\x9dS@k\xcc?e\xaa`TR'\xed?\x8e\xd1'\xc0\x08~\xfe?"
p4066
tp4067
bsVsquare_packing_box4
p4068
g521
(g522
(I0
tp4069
g524
tp4070
Rp4071
(I1
(I4
tp4072
g531
I00
S'\x8b\xce\xcef\xfe\xbb\xf0?L@\xfc\xa1\x9e\xc0\x16\xc0L7\x89A`\xe5\xd8?\xaeKe\x14U\xf8\x13@'
p4073
tp4074
bsVrectangular_packing_box1
p4075
g521
(g522
(I0
tp4076
g524
tp4077
Rp4078
(I1
(I4
tp4079
g531
I00
S'\xf71, \xdaJ\xf5?\x8f\x94\xc7_\x9e4\x18\xc0L7\x89A`\xe5\xd8?\x88,&\x8ck,\x0b@'
p4080
tp4081
bsVpin_371e
p4082
g521
(g522
(I0
tp4083
g524
tp4084
Rp4085
(I1
(I4
tp4086
g531
I00
S'333333\xf3\xbfffffff\xf6?\xb8\x1e\x85\xebQ\xb8\xee?\x00\x00\x00\x00\x00\x00\x00\x00'
p4087
tp4088
bsVfridge
p4089
g521
(g522
(I0
tp4090
g524
tp4091
Rp4092
(I1
(I4
tp4093
g531
I00
S'\xd7\xa3p=\n\xd7\xeb\xbf\x00\x00\x00\x00\x00\x00\x00\xc0\xcd\xcc\xcc\xcc\xcc\xcc\xf8?\x00\x00\x00\x00\x00\x00\x00\x00'
p4094
tp4095
bsVcup_d441
p4096
g521
(g522
(I0
tp4097
g524
tp4098
Rp4099
(I1
(I4
tp4100
g531
I00
S'\n\xd7\xa3p=\n\xef?\x8f\xc2\xf5(\\\x8f\xe2?\x1b/\xdd$\x06\x81\xed?\x00\x00\x00\x00\x00\x00\x00\x00'
p4101
tp4102
bsVshelf2
p4103
g521
(g522
(I0
tp4104
g524
tp4105
Rp4106
(I1
(I4
tp4107
g531
I00
S'\x00\x00\x00\x00\x00\x00\x0e@\xaeG\xe1z\x14\xae\x07@\x9c\xc4 \xb0rh\xc1?\xd2!3\x7f|\xd9\x12@'
p4108
tp4109
bsVtop_wall_2
p4110
g521
(g522
(I0
tp4111
g524
tp4112
Rp4113
(I1
(I4
tp4114
g531
I00
S'H\xe1z\x14\xaeG\x12@\x80\x14\xaeG\xe1z\xc4?\x16HP\xfc\x18\xf3\xfd?\x00\x00\x00\x00\x00\x00\x00\x00'
p4115
tp4116
bsVc_obst0
p4117
g521
(g522
(I0
tp4118
g524
tp4119
Rp4120
(I1
(I4
tp4121
g531
I00
S"\xb8\x088t\x9c7\x12@\x98D\xf1\x14\xed\x8f\x96\xbfe\xaa`TR'\xed?\xadtI0\xaa\x0c\x13@"
p4122
tp4123
bsVshelf1
p4124
g521
(g522
(I0
tp4125
g524
tp4126
Rp4127
(I1
(I4
tp4128
g531
I00
S'\x00\x00\x00\x00\x00\x00\x13@\xaeG\xe1z\x14\xae\x07@\x9c\xc4 \xb0rh\xc1?\xd2!3\x7f|\xd9\x12@'
p4129
tp4130
bsVsink
p4131
g521
(g522
(I0
tp4132
g524
tp4133
Rp4134
(I1
(I4
tp4135
g531
I00
S'ffffff\xd6?333333\x01@\x9a\x99\x99\x99\x99\x99\xb9\xbf\x00\x00\x00\x00\x00\x00\x00\x00'
p4136
tp4137
bsVpr2
p4138
g521
(g522
(I0
tp4139
g524
tp4140
Rp4141
(I1
(I4
tp4142
g531
I00
S'&\x1d\x99\xd7\xe3\x07\t@^\xb4\xd3U\xf5@\x18\xc0\x9a_\x94\xa0\xbf\xd0\xc1?\xe4\xc1\x03\xc3\xc3\x1d\x17@'
p4143
tp4144
bsVchair_12d0
p4145
g521
(g522
(I0
tp4146
g524
tp4147
Rp4148
(I1
(I4
tp4149
g531
I00
S'^\xd2\x18\xad\xa3\xaa\xdb?Pf\x83L2r\xc6?\x00\x00\x00\x00\x00\x00\x00\x00\xf8\x81\r\x14M\xa6\x17@'
p4150
tp4151
bsVright_wall_2
p4152
g521
(g522
(I0
tp4153
g524
tp4154
Rp4155
(I1
(I4
tp4156
g531
I00
S'H\xe1z\x14\xaeG\x12@&\\\x8f\xc2\xf5(\xd4\xbfxX\xa85\xcd\xbb\xf2?\x00\x00\x00\x00\x00\x00\x00\x00'
p4157
tp4158
bsVknife_block
p4159
g521
(g522
(I0
tp4160
g524
tp4161
Rp4162
(I1
(I4
tp4163
g531
I00
S'R\xb8\x1e\x85\xebQ\xe0\xbfffffff\x02@`\xe5\xd0"\xdb\xf9\xee?\x00\x00\x00\x00\x00\x00\x00\x00'
p4164
tp4165
bsVleft_wall_2
p4166
g521
(g522
(I0
tp4167
g524
tp4168
Rp4169
(I1
(I4
tp4170
g531
I00
S'H\xe1z\x14\xaeG\x12@S\xb8\x1e\x85\xebQ\xe4?xX\xa85\xcd\xbb\xf2?\x00\x00\x00\x00\x00\x00\x00\x00'
p4171
tp4172
bsVleft_wall
p4173
g521
(g522
(I0
tp4174
g524
tp4175
Rp4176
(I1
(I4
tp4177
g531
I00
S'\x9a\x99\x99\x99\x99\x99\x07@H\xe1z\x14\xaeG\xff?\x9c\xc4 \xb0rh\xc1?\x00\x00\x00\x00\x00\x00\x00\x00'
p4178
tp4179
bsVkitchen
p4180
g521
(g522
(I0
tp4181
g524
tp4182
Rp4183
(I1
(I4
tp4184
g531
I00
S'\x00\x00\x00\x00\x00\x00\x00\x00\x00\x00\x00\x00\x00\x00\x00\x00\x00\x00\x00\x00\x00\x00\x00\x00\x00\x00\x00\x00\x00\x00\x00\x00'
p4185
tp4186
bsVtable2
p4187
g521
(g522
(I0
tp4188
g524
tp4189
Rp4190
(I1
(I4
tp4191
g531
I00
S'\x00\x00\x00\x00\x00\x00\x13@\x80\x14\xaeG\xe1z\xc4?S\x96!\x8euq\xec?\xd2!3\x7f|\xd9\x12@'
p4192
tp4193
bsVc_obst8
p4194
g521
(g522
(I0
tp4195
g524
tp4196
Rp4197
(I1
(I4
tp4198
g531
I00
S"\xa2\x86\xba\xbe\x0e\xfe\x11@\x10\x88\xaeAcX\xc9?e\xaa`TR'\xed?\xe7\xc6R\xf7\xd5q\x17@"
p4199
tp4200
bsVplate_b4e7
p4201
g521
(g522
(I0
tp4202
g524
tp4203
Rp4204
(I1
(I4
tp4205
g531
I00
S'\x14\xaeG\xe1z\x14\xf2\xbf\x14\xaeG\xe1z\x14\x00@=\n\xd7\xa3p=\xf2?\x00\x00\x00\x00\x00\x00\x00\x00'
p4206
tp4207
bsVcooker
p4208
g521
(g522
(I0
tp4209
g524
tp4210
Rp4211
(I1
(I4
tp4212
g531
I00
S'\xaeG\xe1z\x14\xae\xff?\x85\xebQ\xb8\x1e\x85\xfb?\x00\x00\x00\x00\x00\x00\xe8?\x00\x00\x00\x00\x00\x00\x00\x00'
p4213
tp4214
bsVpin_a091
p4215
g521
(g522
(I0
tp4216
g524
tp4217
Rp4218
(I1
(I4
tp4219
g531
I00
S'\xdb\xf9~j\xbct\xf7\xbf)\\\x8f\xc2\xf5(\x02@\xb8\x1e\x85\xebQ\xb8\xfa?\x00\x00\x00\x00\x00\x00\x00\x00'
p4220
tp4221
bsVside_wall_2
p4222
g521
(g522
(I0
tp4223
g524
tp4224
Rp4225
(I1
(I4
tp4226
g531
I00
S'\xf1\xff\xff\xff\xff\xff\x14@\xe0\xff\xff\xff\xff\x7f\xef<\x9c\xc4 \xb0rh\xc1?\x1c-DT\xfb!\xf9?'
p4227
tp4228
bsVside_wall_3
p4229
g521
(g522
(I0
tp4230
g524
tp4231
Rp4232
(I1
(I4
tp4233
g531
I00
S'\x00\x00\x00\x00\x00\x00\xfc?H\xe1z\x14\xaeG\t@\x9c\xc4 \xb0rh\xc1?\x00\x00\x00\x00\x00\x00\x00\x00'
p4234
tp4235
bsVmixer
p4236
g521
(g522
(I0
tp4237
g524
tp4238
Rp4239
(I1
(I4
tp4240
g531
I00
S'\n\xd7\xa3p=\n\xfb?ffffff\x02@d;\xdfO\x8d\x97\xee?\x00\x00\x00\x00\x00\x00\x00\x00'
p4241
tp4242
bsVside_wall_1
p4243
g521
(g522
(I0
tp4244
g524
tp4245
Rp4246
(I1
(I4
tp4247
g531
I00
S'\xe2\xff\xff\xff\xff\xff\xfb\xbf\xe6\xff\xff\xff\xff\xff\xd4\xbc\x9c\xc4 \xb0rh\xc1?\x1c-DT\xfb!\xf9?'
p4248
tp4249
bsVbottom_wall_1
p4250
g521
(g522
(I0
tp4251
g524
tp4252
Rp4253
(I1
(I4
tp4254
g531
I00
S'H\xe1z\x14\xaeG\x12@\x80\x14\xaeG\xe1z\xc4?\xcc\x7fH\xbf}\x1d\xed?\x00\x00\x00\x00\x00\x00\x00\x00'
p4255
tp4256
bsVcan
p4257
g521
(g522
(I0
tp4258
g524
tp4259
Rp4260
(I1
(I4
tp4261
g531
I00
S'\x00\x00\x00\x00\x00\x00\xf4\xbfH\xe1z\x14\xaeG\xe1\xbf\n\xd7\xa3p=\n\xef?\x00\x00\x00\x00\x00\x00\x00\x00'
p4262
tp4263
bsVright_wall
p4264
g521
(g522
(I0
tp4265
g524
tp4266
Rp4267
(I1
(I4
tp4268
g531
I00
S'\x9a\x99\x99\x99\x99\x99\x07@H\xe1z\x14\xaeG\xff\xbf\x9c\xc4 \xb0rh\xc1?\x00\x00\x00\x00\x00\x00\x00\x00'
p4269
tp4270
bsVcoffe_machine
p4271
g521
(g522
(I0
tp4272
g524
tp4273
Rp4274
(I1
(I4
tp4275
g531
I00
S'\\\x8f\xc2\xf5(\\\xf5\xbf\xb8\x1e\x85\xebQ\xb8\xee?\n\xd7\xa3p=\n\xef?\x00\x00\x00\x00\x00\x00\x00\x00'
p4276
tp4277
bsVcomputer_chair
p4278
g521
(g522
(I0
tp4279
g524
tp4280
Rp4281
(I1
(I4
tp4282
g531
I00
S'\xcd\xcc\xcc\xcc\xcc\xcc\x10@\x00\x00\x00\x00\x00\x00\xf8\xbf\xa00\xb6\x10\xe4\xa9\x95\xbf\x00\x00\x00\x00\x00\x00\x00\x00'
p4283
tp4284
bssg1980
g521
(g522
(I0
tp4285
g524
tp4286
Rp4287
(I1
(I39
tp4288
g531
I00
S'\x00\x00\x00\x00\x00\x00\x00\x00\x00\x00\x00\x00\x00\x00\x00\x00\x00\x00\x00\x00\x00\x00\x00\x00\x00\x00\x00\x00\x00\x00\x00\x00\x00\x00\x00\x00\x00\x00\x00\x00\x00\x00\x00\x00\x00\x00\x00\x00\x00\x00\x00\x00\x00\x00\x00\x00\x00\x00\x00\x00\x00\x00\x00\x00\x00\x00\x00\x00\x00\x00\x00\x00\x00\x00\x00\x00\x00\x00\x00\x00\x00\x00\x00\x00\x00\x00\x00\x00\x00\x00\x00\x00\x00\x00\x00\x00\xa0\xf1S&x\xf4\x97?\x00\x00\x00\x00\x00\x00\x00\x00\x00\x00\x00\x00\x00\x00\x00\x00\x00\x00\x00\x00\x00\x00\x00\x00\xeb\xed\t\xf1\xcc\xa4\xf4?\x00\x00\x00\x00\x00\x00\xb0<N"\xd0^p\xf8\x00\xc0\x00\x00\x00\x00\x00\x00\x00\x00\xa3\x03\r.\x04V\xe6\xbf\x00\x00\x00\x00\x00\x00\x00\x00\x00\x00\x00\x00\x00\x00\x00\x00\x00\x00\x00\x00\x00n3\xbdeW\x15 \x08r\xc3\xbc\x00\x00\x00\x00\x00\x00\xe8<\x00\x00\x00\x00\x00\x00\x00\x00\x00\x00\x00\x00\x00\x00\x00\x00\xeb\xed\t\xf1\xcc\xa4\xf4?\x00\x00\x00\x00\x00\x00\x00\x00N"\xd0^p\xf8\x00\xc0\x00\x00\x00\x00\x00\x00\x00\x00\xa1\x03\r.\x04V\xe6\xbf\x00\x00\x00\x00\x00\x00\x00\x00\xcc9\xe3\xc17\x89\xe1?\x00\x00\x00\x00\x00\xbc$\xbd\x00\x00\x00\x00\x00\x00\x00\x00\x00\x00\x00\x00\x00\x00!\xbd\x00\x00\x00\x00\x00\x00\x00\x00'
p4289
tp4290
bsg1987
I00
sbsg1988
(dp4291
(Vsquare_packing_box4
p4292
(g1386
(g531
S'\x90\xc0\x1f~\xfe\xbb\xf0?'
p4293
tp4294
Rp4295
g1386
(g531
S'8\xdb\xdc\x98\x9e\xc0\x16\xc0'
p4296
tp4297
Rp4298
g1386
(g531
S'\xda\x8c\xd3\x10U\xf8\x13@'
p4299
tp4300
Rp4301
tp4302
tp4303
g969
s(Vrectangular_packing_box2
p4304
(g1386
(g531
S'\xce\xe30\x98\xbfB\x02@'
p4305
tp4306
Rp4307
g1386
(g531
S'\xf9hq\xc60\xf7\x1a\xc0'
p4308
tp4309
Rp4310
g1386
(g531
S'V\xbc\x91y\xe4\x8f\xe0?'
p4311
tp4312
Rp4313
tp4314
tp4315
g945
s(Vrectangular_packing_box3
p4316
(g1386
(g531
S'{\x9f\xaaB\x03\xb1\xb0?'
p4317
tp4318
Rp4319
g1386
(g531
S'\x0f\x0b\xb5\xa6y7\x1e\xc0'
p4320
tp4321
Rp4322
g1386
(g531
S'\xe5\xef\xdeQcb\x12@'
p4323
tp4324
Rp4325
tp4326
tp4327
g949
s(Vrectangular_packing_box4
p4328
(g1386
(g531
S'}\xec.PR`\xd2?'
p4329
tp4330
Rp4331
g1386
(g531
S'\x8fT\xdf\xf9Ei\x18\xc0'
p4332
tp4333
Rp4334
g1386
(g531
S'\xe8\xf9\xd3Fu:\xe4?'
p4335
tp4336
Rp4337
tp4338
tp4339
g941
s(Vsquare_packing_box2
p4340
(g1386
(g531
S'\xc5\x92r\xf79\xfe\r@'
p4341
tp4342
Rp4343
g1386
(g531
S'\x9b\x01.\xc8\x96u\x19\xc0'
p4344
tp4345
Rp4346
g1386
(g531
S'\x91D/\xa3X\xae\x11@'
p4347
tp4348
Rp4349
tp4350
tp4351
g3154
s(Vsquare_packing_box3
p4352
(g1386
(g531
S'\xc7\xbc\x8e8d\xa3\n@'
p4353
tp4354
Rp4355
g1386
(g531
S'\xb8\xca\x13\x08;\x05\x1e\xc0'
p4356
tp4357
Rp4358
g1386
(g531
S'\xde\xc9\xa7\xc7\xb6\xac\x0f@'
p4359
tp4360
Rp4361
tp4362
tp4363
g961
s(Vsquare_packing_box1
p4364
(g1386
(g531
S'N\xb4\xab\x90\xf23\x0c@'
p4365
tp4366
Rp4367
g1386
(g531
S'Q\xf5+\x9d\x0f?\x15\xc0'
p4368
tp4369
Rp4370
g1386
(g531
S'\xe2\x1f\xb6\xf4h\n\x13@'
p4371
tp4372
Rp4373
tp4374
tp4375
g965
s(Vrectangular_packing_box1
p4376
(g1386
(g531
S'\xa8\xdf\x85\xad\xd9J\xf5?'
p4377
tp4378
Rp4379
g1386
(g531
S'\x14\x05\xfaD\x9e4\x18\xc0'
p4380
tp4381
Rp4382
g1386
(g531
S'\xb13\x85\xcek,\x0b@'
p4383
tp4384
Rp4385
tp4386
tp4387
g953
ssg2086
(dp4388
(g10
g10
g11
tp4389
g13
s(g14
g15
g15
tp4390
g17
s(g18
g19
g11
tp4391
g21
s(g46
g14
g11
tp4392
g82
s(g46
g11
g11
tp4393
g382
s(g11
g11
g11
tp4394
g27
s(g23
g10
g15
tp4395
g29
s(g14
g30
g11
tp4396
g32
s(g11
g33
g11
tp4397
g35
s(g18
g33
g11
tp4398
g452
s(g11
g23
g15
tp4399
g41
s(g23
g11
g15
tp4400
g430
s(g15
g11
g15
tp4401
g45
s(g33
g46
g11
tp4402
g48
s(g46
g15
g11
tp4403
g54
s(g18
g10
g15
tp4404
g56
s(g10
g15
g11
tp4405
g60
s(g10
g33
g15
tp4406
g200
s(g14
g14
g15
tp4407
g64
s(g15
g23
g11
tp4408
g284
s(g15
g15
g11
tp4409
g72
s(g46
g33
g15
tp4410
g74
s(g11
g11
g15
tp4411
g76
s(g23
g10
g11
tp4412
g438
s(g10
g23
g11
tp4413
g80
s(g30
g46
g15
tp4414
g172
s(g19
g11
g15
tp4415
g84
s(g10
g30
g15
tp4416
g444
s(g19
g30
g15
tp4417
g88
s(g30
g19
g11
tp4418
g90
s(g15
g14
g15
tp4419
g92
s(g10
g10
g15
tp4420
g96
s(g18
g23
g11
tp4421
g98
s(g15
g11
g11
tp4422
g100
s(g33
g10
g11
tp4423
g102
s(g14
g30
g15
tp4424
g110
s(g15
g23
g15
tp4425
g66
s(g15
g30
g15
tp4426
g120
s(g18
g11
g11
tp4427
g122
s(g15
g18
g11
tp4428
g126
s(g10
g23
g15
tp4429
g128
s(g46
g10
g15
tp4430
g130
s(g46
g46
g11
tp4431
g132
s(g19
g30
g11
tp4432
g134
s(g18
g10
g11
tp4433
g136
s(g18
g46
g15
tp4434
g186
s(g23
g14
g11
tp4435
g140
s(g14
g14
g11
tp4436
g142
s(g14
g33
g11
tp4437
g144
s(g33
g10
g15
tp4438
g146
s(g23
g19
g15
tp4439
g148
s(g46
g33
g11
tp4440
g150
s(g10
g19
g15
tp4441
g154
s(g19
g11
g11
tp4442
g156
s(g10
g46
g11
tp4443
g160
s(g30
g19
g15
tp4444
g162
s(g18
g11
g15
tp4445
g166
s(g18
g23
g15
tp4446
g168
s(g46
g10
g11
tp4447
g170
s(g15
g19
g11
tp4448
g370
s(g10
g18
g15
tp4449
g174
s(g19
g15
g11
tp4450
g176
s(g15
g33
g11
tp4451
g280
s(g46
g19
g15
tp4452
g180
s(g23
g14
g15
tp4453
g182
s(g19
g15
g15
tp4454
g138
s(g15
g30
g11
tp4455
g188
s(g10
g19
g11
tp4456
g192
s(g23
g19
g11
tp4457
g194
s(g15
g46
g11
tp4458
g196
s(g10
g46
g15
tp4459
g198
s(g46
g18
g11
tp4460
g62
s(g14
g33
g15
tp4461
g204
s(g19
g46
g15
tp4462
g206
s(g30
g15
g15
tp4463
g210
s(g14
g19
g11
tp4464
g214
s(g10
g18
g11
tp4465
g216
s(g30
g10
g15
tp4466
g220
s(g46
g19
g11
tp4467
g222
s(g23
g15
g15
tp4468
g224
s(g11
g30
g11
tp4469
g104
s(g15
g19
g15
tp4470
g232
s(g15
g46
g15
tp4471
g234
s(g14
g46
g11
tp4472
g236
s(g18
g15
g11
tp4473
g68
s(g14
g19
g15
tp4474
g240
s(g23
g33
g11
tp4475
g228
s(g11
g46
g11
tp4476
g416
s(g30
g11
g15
tp4477
g246
s(g23
g15
g11
tp4478
g248
s(g15
g33
g15
tp4479
g250
s(g10
g33
g11
tp4480
g252
s(g33
g33
g11
tp4481
g256
s(g33
g30
g15
tp4482
g258
s(g30
g15
g11
tp4483
g260
s(g46
g23
g11
tp4484
g262
s(g30
g18
g15
tp4485
g268
s(g23
g18
g15
tp4486
g462
s(g23
g33
g15
tp4487
g274
s(g46
g11
g15
tp4488
g276
s(g30
g11
g11
tp4489
g278
s(g19
g19
g11
tp4490
g282
s(g14
g46
g15
tp4491
g290
s(g23
g46
g11
tp4492
g286
s(g14
g10
g11
tp4493
g288
s(g11
g18
g11
tp4494
g58
s(g33
g14
g15
tp4495
g292
s(g18
g30
g15
tp4496
g296
s(g30
g14
g11
tp4497
g298
s(g19
g18
g11
tp4498
g300
s(g46
g23
g15
tp4499
g302
s(g46
g30
g15
tp4500
g304
s(g33
g19
g11
tp4501
g306
s(g11
g46
g15
tp4502
g230
s(g33
g15
g11
tp4503
g310
s(g30
g18
g11
tp4504
g312
s(g23
g30
g15
tp4505
g314
s(g10
g14
g11
tp4506
g316
s(g30
g46
g11
tp4507
g474
s(g23
g23
g15
tp4508
g320
s(g33
g33
g15
tp4509
g322
s(g19
g19
g15
tp4510
g324
s(g14
g23
g15
tp4511
g326
s(g18
g14
g11
tp4512
g330
s(g11
g18
g15
tp4513
g332
s(g11
g19
g15
tp4514
g334
s(g14
g10
g15
tp4515
g338
s(g19
g14
g15
tp4516
g340
s(g18
g30
g11
tp4517
g344
s(g30
g33
g15
tp4518
g39
s(g19
g18
g15
tp4519
g348
s(g23
g18
g11
tp4520
g50
s(g33
g19
g15
tp4521
g352
s(g10
g15
g15
tp4522
g488
s(g23
g30
g11
tp4523
g356
s(g14
g11
g15
tp4524
g358
s(g30
g23
g11
tp4525
g108
s(g19
g46
g11
tp4526
g238
s(g33
g18
g11
tp4527
g364
s(g15
g18
g15
tp4528
g366
s(g23
g46
g15
tp4529
g368
s(g18
g18
g15
tp4530
g372
s(g33
g14
g11
tp4531
g374
s(g14
g23
g11
tp4532
g376
s(g18
g33
g15
tp4533
g412
s(g30
g14
g15
tp4534
g380
s(g33
g11
g15
tp4535
g212
s(g18
g14
g15
tp4536
g384
s(g46
g30
g11
tp4537
g386
s(g33
g15
g15
tp4538
g390
s(g10
g14
g15
tp4539
g392
s(g19
g10
g11
tp4540
g394
s(g18
g15
g15
tp4541
g396
s(g14
g18
g11
tp4542
g400
s(g30
g23
g15
tp4543
g202
s(g30
g30
g15
tp4544
g342
s(g30
g10
g11
tp4545
g242
s(g23
g11
g11
tp4546
g406
s(g46
g46
g15
tp4547
g362
s(g33
g23
g11
tp4548
g410
s(g15
g10
g15
tp4549
g378
s(g11
g19
g11
tp4550
g414
s(g19
g14
g11
tp4551
g418
s(g19
g33
g11
tp4552
g420
s(g18
g46
g11
tp4553
g422
s(g30
g33
g11
tp4554
g450
s(g11
g14
g11
tp4555
g458
s(g19
g23
g15
tp4556
g428
s(g10
g11
g11
tp4557
g432
s(g14
g11
g11
tp4558
g434
s(g19
g10
g15
tp4559
g436
s(g33
g18
g15
tp4560
g408
s(g11
g30
g15
tp4561
g184
s(g11
g15
g11
tp4562
g440
s(g18
g18
g11
tp4563
g442
s(g11
g10
g15
tp4564
g86
s(g14
g18
g15
tp4565
g446
s(g33
g11
g11
tp4566
g124
s(g15
g10
g11
tp4567
g398
s(g14
g15
g11
tp4568
g454
s(g18
g19
g15
tp4569
g460
s(g11
g14
g15
tp4570
g208
s(g19
g23
g11
tp4571
g466
s(g46
g18
g15
tp4572
g468
s(g30
g30
g11
tp4573
g254
s(g11
g23
g11
tp4574
g472
s(g33
g23
g15
tp4575
g476
s(g23
g23
g11
tp4576
g478
s(g19
g33
g15
tp4577
g480
s(g46
g14
g15
tp4578
g318
s(g46
g15
g15
tp4579
g484
s(g10
g30
g11
tp4580
g502
s(g33
g30
g11
tp4581
g354
s(g11
g33
g15
tp4582
g490
s(g10
g11
g15
tp4583
g492
s(g15
g15
g15
tp4584
g494
s(g33
g46
g15
tp4585
g498
s(g11
g15
g15
tp4586
g500
s(g11
g10
g11
tp4587
g486
s(g15
g14
g11
tp4588
g504
ssg2288
(dp4589
(g3089
g15
tp4590
(lp4591
g521
(g522
(I0
tp4592
g524
tp4593
Rp4594
(I1
(I3
tp4595
g531
I00
S'\\\xca\xc0\xcf\xd9[\xf0?\xfe/#\xddH6\x15\xc0F\xa4\xd4\xc0\xcb\x98\x14@'
p4596
tp4597
bas(g3136
g11
tp4598
(lp4599
g521
(g522
(I0
tp4600
g524
tp4601
Rp4602
(I1
(I3
tp4603
g531
I00
S'\xb8\xdc\xa0]\xb4\xb3\xed?`\xb9\xcf\x1f\xa8Q\x13\xc0:\x0eA\xb8^ \x13@'
p4604
tp4605
bag521
(g522
(I0
tp4606
g524
tp4607
Rp4608
(I1
(I3
tp4609
g563
I00
S"\xaeJ\xbd\x1936\xec?\x04\x13\xd4'\x9f\x88\x10\xc0\x805qo\xb6\xe6\xff\xbf"
p4610
tp4611
bag521
(g522
(I0
tp4612
g524
tp4613
Rp4614
(I1
(I3
tp4615
g563
I00
S'\xf09\xb6\x1c*\x86\xee?\xc4\n/\x96\xcb\xe3\n\xc0\xa0\xc9\xd6F6\x0f\x00\xc0'
p4616
tp4617
bag521
(g522
(I0
tp4618
g524
tp4619
Rp4620
(I1
(I3
tp4621
g563
I00
S'3\xe9\xaf\x05T\x89\xe7?+~\xcb\xd3\x15\xc7\x04\xc0x6(d5\xed\x07@'
p4622
tp4623
bas(g3086
g11
tp4624
(lp4625
g521
(g522
(I0
tp4626
g524
tp4627
Rp4628
(I1
(I3
tp4629
g531
I00
S'\xe0\xee\xbc7\x1c\xc9\xc2\xbf\x05{?`*X\x16\xc0\xc3\xcf\x15Rt\xb2\x14@'
p4630
tp4631
bag521
(g522
(I0
tp4632
g524
tp4633
Rp4634
(I1
(I3
tp4635
g563
I00
S'\xff\x1dX8\xbe\xd2\xc9?\x91h\xd1{\x1e(\x16\xc0\xee\xfeSI\xc3\xd4\x03\xc0'
p4636
tp4637
bag521
(g522
(I0
tp4638
g524
tp4639
Rp4640
(I1
(I3
tp4641
g563
I00
S'\xcc\x87!\x1f\xfb\x05\xe6?\x14;\x08\xf1<\xc6\x13\xc0V!\xac1j\x94\xc8?'
p4642
tp4643
bag521
(g522
(I0
tp4644
g524
tp4645
Rp4646
(I1
(I3
tp4647
g563
I00
S'`\xc8Aw-\x81\xeb?/\xc3\xe6O\x04\xca\x10\xc0\x8a\xb7K)\x91{\xe4\xbf'
p4648
tp4649
bag521
(g522
(I0
tp4650
g524
tp4651
Rp4652
(I1
(I3
tp4653
g563
I00
S'\xe1\xc6\xc7\xa7\x12X\xe7?\x98\x99\xb0\x9a\xfb\xdb\x0b\xc0R\t\x1b)\xeae\xe0\xbf'
p4654
tp4655
bag521
(g522
(I0
tp4656
g524
tp4657
Rp4658
(I1
(I3
tp4659
g563
I00
S'p\xf1\xbdc^\x84\xf1?"\x88LL\xf9D\x06\xc0~w\r\xe9m\x0f\x19@'
p4660
tp4661
bas(g3134
g15
tp4662
(lp4663
g521
(g522
(I0
tp4664
g524
tp4665
Rp4666
(I1
(I3
tp4667
g531
I00
S'_\xc8\xacwl\xa9\x05@\x8eL\xa6~\x15\xe6\x1c\xc0<\xd4\xf5\xbd\xf4\xd8\x15@'
p4668
tp4669
bas(g3086
g15
tp4670
(lp4671
g521
(g522
(I0
tp4672
g524
tp4673
Rp4674
(I1
(I3
tp4675
g531
I00
S'\xe6\xee\xbc7\x1c\xc9\xc2\xbf\x05{?`*X\x16\xc0\xc3\xcf\x15Rt\xb2\x14@'
p4676
tp4677
bas(g3134
g11
tp4678
(lp4679
g521
(g522
(I0
tp4680
g524
tp4681
Rp4682
(I1
(I3
tp4683
g531
I00
S'b\xc8\xacwl\xa9\x05@\x8dL\xa6~\x15\xe6\x1c\xc0<\xd4\xf5\xbd\xf4\xd8\x15@'
p4684
tp4685
bag521
(g522
(I0
tp4686
g524
tp4687
Rp4688
(I1
(I3
tp4689
g563
I00
S'\xd0F\nX\x99\x97\x00@\x820\x00\xd6\xafP\x1e\xc0V\x17\x0f\xa5\x97\r\xff\xbf'
p4690
tp4691
bag521
(g522
(I0
tp4692
g524
tp4693
Rp4694
(I1
(I3
tp4695
g563
I00
S'S@\xf8l\x95\x08\xf8?\xef\x91If\xa4L\x1e\xc0\x8b\xc5pa\xf4C\x04\xc0'
p4696
tp4697
bag521
(g522
(I0
tp4698
g524
tp4699
Rp4700
(I1
(I3
tp4701
g563
I00
S'X\xa4u\xbc=r\xf6?\x90\xee\xc4\x1eW\xf8\x1b\xc0\xcc: \xa4-\x95\x01\xc0'
p4702
tp4703
bag521
(g522
(I0
tp4704
g524
tp4705
Rp4706
(I1
(I3
tp4707
g563
I00
S'\xb0\xcfg\xd5._\xe8?\xd6\x8d\xba\x87\x91D\x1a\xc0\xea!\xf73\x0cB\xf7\xbf'
p4708
tp4709
bag521
(g522
(I0
tp4710
g524
tp4711
Rp4712
(I1
(I3
tp4713
g563
I00
S'\xb0\x11@i\x1f\x12\xb4?\x01\xb6C\x19\x0b\x9d\x1a\xc0\xda \xc5\xc8m8\xeb?'
p4714
tp4715
bag521
(g522
(I0
tp4716
g524
tp4717
Rp4718
(I1
(I3
tp4719
g563
I00
S'Dz\xddx\xe9\xf0\xb4?\x9c\xf2\xf6\xf0\xef \x18\xc0\x03\xe5\x88\xf0JN\xf3?'
p4720
tp4721
bag521
(g522
(I0
tp4722
g524
tp4723
Rp4724
(I1
(I3
tp4725
g563
I00
S'\xe4\x02R\xd9\x08\x8c\xc7?2\xc1\xd4;\xf6\xf3\x15\xc0>\x8c\x8fa?0\xd8?'
p4726
tp4727
bag521
(g522
(I0
tp4728
g524
tp4729
Rp4730
(I1
(I3
tp4731
g563
I00
S'\xcc\x87!\x1f\xfb\x05\xe6?\x14;\x08\xf1<\xc6\x13\xc0V!\xac1j\x94\xc8?'
p4732
tp4733
bag521
(g522
(I0
tp4734
g524
tp4735
Rp4736
(I1
(I3
tp4737
g563
I00
S'`\xc8Aw-\x81\xeb?/\xc3\xe6O\x04\xca\x10\xc0\x8a\xb7K)\x91{\xe4\xbf'
p4738
tp4739
bag521
(g522
(I0
tp4740
g524
tp4741
Rp4742
(I1
(I3
tp4743
g563
I00
S'\xe1\xc6\xc7\xa7\x12X\xe7?\x98\x99\xb0\x9a\xfb\xdb\x0b\xc0R\t\x1b)\xeae\xe0\xbf'
p4744
tp4745
bag521
(g522
(I0
tp4746
g524
tp4747
Rp4748
(I1
(I3
tp4749
g563
I00
S'p\xf1\xbdc^\x84\xf1?"\x88LL\xf9D\x06\xc0~w\r\xe9m\x0f\x19@'
p4750
tp4751
bas(g3090
g15
tp4752
(lp4753
g521
(g522
(I0
tp4754
g524
tp4755
Rp4756
(I1
(I3
tp4757
g531
I00
S'\x07<\xcb\x84%_\x0e@Ib\x19\xdf/\x0e\x1c\xc0\xd7\t\xc4E\xe0{\xf7?'
p4758
tp4759
bas(g3090
g11
tp4760
g3425
s(g3135
g11
tp4761
g3231
s(g3088
g11
tp4762
g3337
s(g3088
g15
tp4763
(lp4764
g521
(g522
(I0
tp4765
g524
tp4766
Rp4767
(I1
(I3
tp4768
g531
I00
S'\xe7\xfb\xaaE\x8f\xc1\xe5?\xb9\xa6\xc5gY\x12\x1f\xc0])%M\x96\x93\x08@'
p4769
tp4770
bas(g3136
g15
tp4771
(lp4772
g521
(g522
(I0
tp4773
g524
tp4774
Rp4775
(I1
(I3
tp4776
g531
I00
S'\xb0\xdc\xa0]\xb4\xb3\xed?_\xb9\xcf\x1f\xa8Q\x13\xc0:\x0eA\xb8^ \x13@'
p4777
tp4778
bas(g3135
g15
tp4779
(lp4780
g521
(g522
(I0
tp4781
g524
tp4782
Rp4783
(I1
(I3
tp4784
g531
I00
S'\xbd\x9ct\x99Y\x93\x0e@\xa9\x82\x19\x7fa\xb4\x17\xc0\r\x07\x97\xeb\xfc\n\x00@'
p4785
tp4786
bas(g3087
g15
tp4787
(lp4788
g521
(g522
(I0
tp4789
g524
tp4790
Rp4791
(I1
(I3
tp4792
g531
I00
S'\x89\x07\xbd)b\xbe\xfb?\t\x85t\x92\x153\x18\xc0\xb00\xe9\xb77m\x17@'
p4793
tp4794
bas(g3087
g11
tp4795
g3293
s(g3089
g11
tp4796
g3393
ssg2497
(dp4797
(g30
g46
tp4798
(lp4799
I00
aI00
aI00
as(g30
g30
tp4800
(lp4801
I00
aI00
aI00
as(g10
g46
tp4802
(lp4803
I00
aI00
aI00
as(g11
g10
tp4804
(lp4805
I00
aI00
aI00
as(g23
g10
tp4806
(lp4807
I00
aI00
aI00
as(g19
g30
tp4808
(lp4809
I00
aI01
aI00
as(g33
g33
tp4810
(lp4811
I00
aI00
aI00
as(g10
g15
tp4812
(lp4813
g2522
aI00
aI01
as(g33
g23
tp4814
(lp4815
I00
aI00
aI00
as(g14
g11
tp4816
(lp4817
I00
aI00
aI00
as(g15
g33
tp4818
(lp4819
I00
aI00
aI00
as(g10
g23
tp4820
(lp4821
I00
aI00
aI00
as(g30
g18
tp4822
(lp4823
g2522
aI00
aI00
as(g46
g10
tp4824
(lp4825
I00
aI00
aI00
as(g10
g11
tp4826
(lp4827
I00
aI00
aI00
as(g18
g15
tp4828
(lp4829
I00
aI00
aI00
as(g33
g19
tp4830
(lp4831
I00
aI00
aI00
as(g14
g14
tp4832
(lp4833
I00
aI00
aI00
as(g10
g18
tp4834
(lp4835
g2522
aI00
aI00
as(g18
g33
tp4836
(lp4837
I00
aI00
aI00
as(g15
g46
tp4838
(lp4839
I00
aI00
aI00
as(g15
g30
tp4840
(lp4841
I00
aI00
aI00
as(g46
g11
tp4842
(lp4843
I00
aI00
aI01
as(g23
g33
tp4844
(lp4845
I00
aI01
aI00
as(g19
g33
tp4846
(lp4847
I00
aI01
aI00
as(g46
g19
tp4848
(lp4849
I00
aI00
aI00
as(g18
g11
tp4850
(lp4851
I00
aI00
aI00
as(g14
g10
tp4852
(lp4853
I00
aI00
aI00
as(g33
g46
tp4854
(lp4855
I00
aI00
aI00
as(g18
g46
tp4856
(lp4857
I00
aI00
aI00
as(g46
g18
tp4858
(lp4859
g2522
aI00
aI00
as(g23
g14
tp4860
(lp4861
I00
aI00
aI00
as(g30
g10
tp4862
(lp4863
I00
aI00
aI00
as(g23
g11
tp4864
(lp4865
I00
aI00
aI01
as(g18
g18
tp4866
(lp4867
I00
aI00
aI00
as(g10
g30
tp4868
(lp4869
I00
aI00
aI00
as(g46
g33
tp4870
(lp4871
I00
aI00
aI00
as(g11
g18
tp4872
(lp4873
I00
aI00
aI00
as(g11
g14
tp4874
(lp4875
I00
aI00
aI00
as(g19
g15
tp4876
(lp4877
g2522
aI00
aI01
as(g11
g19
tp4878
(lp4879
I00
aI00
aI00
as(g23
g30
tp4880
(lp4881
I00
aI01
aI00
as(g30
g14
tp4882
(lp4883
I00
aI00
aI00
as(g46
g15
tp4884
(lp4885
g2522
aI00
aI01
as(g30
g19
tp4886
(lp4887
I00
aI00
aI00
as(g46
g46
tp4888
(lp4889
I00
aI00
aI00
as(g19
g10
tp4890
(lp4891
I00
aI00
aI00
as(g15
g11
tp4892
(lp4893
I00
aI00
aI00
as(g33
g11
tp4894
(lp4895
I00
aI00
aI01
as(g18
g19
tp4896
(lp4897
I00
aI00
aI00
as(g11
g23
tp4898
(lp4899
I00
aI00
aI00
as(g30
g23
tp4900
(lp4901
I00
aI00
aI00
as(g19
g18
tp4902
(lp4903
g2522
aI00
aI00
as(g23
g15
tp4904
(lp4905
g2522
aI00
aI01
as(g33
g10
tp4906
(lp4907
I00
aI00
aI00
as(g33
g15
tp4908
(lp4909
g2522
aI00
aI01
as(g18
g23
tp4910
(lp4911
I00
aI00
aI00
as(g15
g10
tp4912
(lp4913
I00
aI00
aI00
as(g19
g11
tp4914
(lp4915
I00
aI00
aI00
as(g14
g19
tp4916
(lp4917
I00
aI00
aI00
as(g15
g15
tp4918
(lp4919
I00
aI00
aI00
as(g14
g46
tp4920
(lp4921
I00
aI00
aI00
as(g15
g14
tp4922
(lp4923
I00
aI00
aI00
as(g10
g33
tp4924
(lp4925
I00
aI00
aI00
as(g19
g46
tp4926
(lp4927
I00
aI00
aI00
as(g15
g19
tp4928
(lp4929
I00
aI00
aI00
as(g14
g18
tp4930
(lp4931
g2522
aI00
aI00
as(g10
g10
tp4932
(lp4933
I00
aI00
aI00
as(g14
g33
tp4934
(lp4935
I00
aI00
aI00
as(g33
g14
tp4936
(lp4937
I00
aI00
aI00
as(g10
g14
tp4938
(lp4939
I00
aI00
aI00
as(g15
g23
tp4940
(lp4941
I00
aI00
aI00
as(g10
g19
tp4942
(lp4943
I00
aI01
aI00
as(g19
g19
tp4944
(lp4945
I00
aI00
aI00
as(g46
g14
tp4946
(lp4947
I00
aI00
aI00
as(g14
g23
tp4948
(lp4949
I00
aI00
aI00
as(g11
g46
tp4950
(lp4951
I00
aI00
aI00
as(g11
g30
tp4952
(lp4953
I00
aI00
aI00
as(g23
g19
tp4954
(lp4955
I00
aI00
aI00
as(g30
g11
tp4956
(lp4957
I00
aI00
aI00
as(g30
g15
tp4958
(lp4959
g2522
aI00
aI01
as(g19
g14
tp4960
(lp4961
I00
aI00
aI00
as(g33
g30
tp4962
(lp4963
I00
aI00
aI00
as(g11
g15
tp4964
(lp4965
I00
aI00
aI00
as(g18
g30
tp4966
(lp4967
I00
aI00
aI00
as(g46
g30
tp4968
(lp4969
I00
aI00
aI00
as(g11
g11
tp4970
(lp4971
I00
aI00
aI00
as(g19
g23
tp4972
(lp4973
I00
aI01
aI00
as(g33
g18
tp4974
(lp4975
g2522
aI00
aI00
as(g23
g18
tp4976
(lp4977
g2522
aI00
aI00
as(g18
g10
tp4978
(lp4979
I00
aI00
aI00
as(g11
g33
tp4980
(lp4981
I00
aI00
aI00
as(g46
g23
tp4982
(lp4983
I00
aI00
aI00
as(g23
g46
tp4984
(lp4985
I00
aI00
aI00
as(g30
g33
tp4986
(lp4987
I00
aI00
aI00
as(g15
g18
tp4988
(lp4989
I00
aI00
aI00
as(g14
g30
tp4990
(lp4991
I00
aI00
aI00
as(g23
g23
tp4992
(lp4993
I00
aI00
aI00
as(g14
g15
tp4994
(lp4995
g2522
aI00
aI01
as(g18
g14
tp4996
(lp4997
I00
aI00
aI00
assg2707
(dp4998
g18
(lp4999
I0
aI0
aI0
aI0
aI0
aI0
aI00
aI01
aI00
aI01
aI00
asg15
(lp5000
I0
aI0
aI0
aI0
aI0
aI0
aI00
aI01
aI00
aI01
aI00
asg11
(lp5001
I0
aI0
aI0
aI0
aI0
aI0
aI00
aI01
aI01
aI01
aI00
asg33
(lp5002
I0
aI0
aI0
ag1386
(g531
S'l\x1e]pS`\xd2?'
p5003
tp5004
Rp5005
ag1386
(g531
S'\x06\x1b\xb6\xe9Ei\x18\xc0'
p5006
tp5007
Rp5008
ag1386
(g531
S'\x82\x97\xe8\xa1t:\xe4?'
p5009
tp5010
Rp5011
aI01
aI00
aI00
aI00
aI00
asg10
(lp5012
I0
aI0
aI0
ag1386
(g531
S'{#\x8a\xa8\xbfB\x02@'
p5013
tp5014
Rp5015
ag1386
(g531
S']@\xdd\xaa0\xf7\x1a\xc0'
p5016
tp5017
Rp5018
ag1386
(g531
S'\xa2\x93\xe4\xf2\xe3\x8f\xe0?'
p5019
tp5020
Rp5021
aI01
aI00
aI00
aI01
aI00
asg30
(lp5022
I0
aI0
aI0
ag1386
(g531
S'X\xa3$/\t\xb1\xb0?'
p5023
tp5024
Rp5025
ag1386
(g531
S'v\xd9\xd7\x88y7\x1e\xc0'
p5026
tp5027
Rp5028
ag1386
(g531
S'\xa1\xa8\xa4gcb\x12@'
p5029
tp5030
Rp5031
aI01
aI00
aI00
aI00
aI00
asg19
(lp5032
I0
aI0
aI0
ag1386
(g531
S'\xf71, \xdaJ\xf5?'
p5033
tp5034
Rp5035
ag1386
(g531
S'\x8f\x94\xc7_\x9e4\x18\xc0'
p5036
tp5037
Rp5038
ag1386
(g531
S'\x88,&\x8ck,\x0b@'
p5039
tp5040
Rp5041
aI01
aI00
aI00
aI00
aI00
asg22
(lp5042
I0
aI0
aI0
ag1386
(g531
S'\xc9e\x0f\x13:\xfe\r@'
p5043
tp5044
Rp5045
ag1386
(g531
S'Q/H\xad\x96u\x19\xc0'
p5046
tp5047
Rp5048
ag1386
(g531
S'\xb84\xd4\xa7X\xae\x11@'
p5049
tp5050
Rp5051
aI01
aI00
aI00
aI01
aI00
asg46
(lp5052
I0
aI0
aI0
ag1386
(g531
S'\xc4\xc6\x84Ad\xa3\n@'
p5053
tp5054
Rp5055
ag1386
(g531
S'>\xaf\xb2\x18;\x05\x1e\xc0'
p5056
tp5057
Rp5058
ag1386
(g531
S'j8\xf9\x85\xb6\xac\x0f@'
p5059
tp5060
Rp5061
aI01
aI00
aI00
aI00
aI00
asg14
(lp5062
I0
aI0
aI0
ag1386
(g531
S'Y\xcf\x19\xc3\xf23\x0c@'
p5063
tp5064
Rp5065
ag1386
(g531
S'\xac\xb5r\xad\x0f?\x15\xc0'
p5066
tp5067
Rp5068
ag1386
(g531
S'\xbf~a\xe9h\n\x13@'
p5069
tp5070
Rp5071
aI01
aI00
aI01
aI01
aI00
asg23
(lp5072
I0
aI0
aI0
ag1386
(g531
S'\xc2\xcf\xcef\xfe\xbb\xf0?'
p5073
tp5074
Rp5075
ag1386
(g531
S'L@\xfc\xa1\x9e\xc0\x16\xc0'
p5076
tp5077
Rp5078
ag1386
(g531
S'\xaeKe\x14U\xf8\x13@'
p5079
tp5080
Rp5081
aI01
aI00
aI00
aI00
aI00
assg2792
(dp5082
sg2794
(itrajectory_representation.shortest_path_pick_and_place_state
ShortestPathPaPState
p5083
(dp5084
g2
(dp5085
sg4
(itrajectory_representation.predicates.in_region
InRegion
p5086
(dp5087
g7
Nsbsg8
(dp5088
(g10
g10
g11
tp5089
g13
s(g14
g15
g15
tp5090
g17
s(g18
g19
g11
tp5091
g21
s(g22
g23
g15
tp5092
(lp5093
I00
as(g11
g11
g11
tp5094
g27
s(g23
g10
g15
tp5095
g29
s(g14
g30
g11
tp5096
g32
s(g11
g33
g11
tp5097
g35
s(g22
g14
g11
tp5098
(lp5099
I00
as(g30
g33
g15
tp5100
g39
s(g11
g23
g15
tp5101
g41
s(g22
g18
g11
tp5102
(lp5103
I00
as(g15
g11
g15
tp5104
g45
s(g33
g46
g11
tp5105
g48
s(g23
g18
g11
tp5106
g50
s(g22
g19
g15
tp5107
(lp5108
I00
as(g46
g15
g11
tp5109
g54
s(g18
g10
g15
tp5110
g56
s(g11
g18
g11
tp5111
g58
s(g10
g15
g11
tp5112
g60
s(g46
g18
g11
tp5113
g62
s(g14
g14
g15
tp5114
g64
s(g15
g23
g15
tp5115
g66
s(g18
g15
g11
tp5116
g68
s(g18
g22
g11
tp5117
(lp5118
I00
as(g15
g15
g11
tp5119
g72
s(g46
g33
g15
tp5120
g74
s(g11
g11
g15
tp5121
g76
s(g19
g22
g15
tp5122
(lp5123
I00
as(g10
g23
g11
tp5124
g80
s(g46
g14
g11
tp5125
g82
s(g19
g11
g15
tp5126
g84
s(g11
g10
g15
tp5127
g86
s(g19
g30
g15
tp5128
g88
s(g30
g19
g11
tp5129
g90
s(g15
g14
g15
tp5130
g92
s(g23
g22
g15
tp5131
(lp5132
I00
as(g10
g10
g15
tp5133
g96
s(g18
g23
g11
tp5134
g98
s(g15
g11
g11
tp5135
g100
s(g33
g10
g11
tp5136
g102
s(g11
g30
g11
tp5137
g104
s(g22
g19
g11
tp5138
(lp5139
I01
as(g30
g23
g11
tp5140
g108
s(g14
g30
g15
tp5141
g110
s(g46
g22
g11
tp5142
(lp5143
I00
as(g22
g14
g15
tp5144
(lp5145
I00
as(g22
g10
g15
tp5146
(lp5147
I00
as(g18
g22
g15
tp5148
(lp5149
I00
as(g15
g30
g15
tp5150
g120
s(g18
g11
g11
tp5151
g122
s(g33
g11
g11
tp5152
g124
s(g15
g18
g11
tp5153
g126
s(g10
g23
g15
tp5154
g128
s(g46
g10
g15
tp5155
g130
s(g46
g46
g11
tp5156
g132
s(g19
g30
g11
tp5157
g134
s(g18
g10
g11
tp5158
g136
s(g19
g15
g15
tp5159
g138
s(g23
g14
g11
tp5160
g140
s(g14
g14
g11
tp5161
g142
s(g14
g33
g11
tp5162
g144
s(g33
g10
g15
tp5163
g146
s(g23
g19
g15
tp5164
g148
s(g46
g33
g11
tp5165
g150
s(g19
g22
g11
tp5166
(lp5167
I00
as(g10
g19
g15
tp5168
g154
s(g19
g11
g11
tp5169
g156
s(g22
g10
g11
tp5170
(lp5171
I01
as(g10
g46
g11
tp5172
g160
s(g30
g19
g15
tp5173
g162
s(g11
g22
g15
tp5174
(lp5175
I00
as(g18
g11
g15
tp5176
g166
s(g18
g23
g15
tp5177
g168
s(g46
g10
g11
tp5178
g170
s(g30
g46
g15
tp5179
g172
s(g10
g18
g15
tp5180
g174
s(g19
g15
g11
tp5181
g176
s(g46
g22
g15
tp5182
(lp5183
I00
as(g46
g19
g15
tp5184
g180
s(g23
g14
g15
tp5185
g182
s(g11
g30
g15
tp5186
g184
s(g18
g46
g15
tp5187
g186
s(g15
g30
g11
tp5188
g188
s(g15
g22
g15
tp5189
(lp5190
I00
as(g10
g19
g11
tp5191
g192
s(g23
g19
g11
tp5192
g194
s(g15
g46
g11
tp5193
g196
s(g10
g46
g15
tp5194
g198
s(g10
g33
g15
tp5195
g200
s(g30
g23
g15
tp5196
g202
s(g14
g33
g15
tp5197
g204
s(g19
g46
g15
tp5198
g206
s(g11
g14
g15
tp5199
g208
s(g30
g15
g15
tp5200
g210
s(g33
g11
g15
tp5201
g212
s(g14
g19
g11
tp5202
g214
s(g10
g18
g11
tp5203
g216
s(g33
g22
g15
tp5204
(lp5205
I00
as(g30
g10
g15
tp5206
g220
s(g46
g19
g11
tp5207
g222
s(g23
g15
g15
tp5208
g224
s(g22
g11
g11
tp5209
(lp5210
I00
as(g23
g33
g11
tp5211
g228
s(g11
g46
g15
tp5212
g230
s(g15
g19
g15
tp5213
g232
s(g15
g46
g15
tp5214
g234
s(g14
g46
g11
tp5215
g236
s(g19
g46
g11
tp5216
g238
s(g14
g19
g15
tp5217
g240
s(g30
g10
g11
tp5218
g242
s(g10
g22
g11
tp5219
(lp5220
I00
as(g30
g11
g15
tp5221
g246
s(g23
g15
g11
tp5222
g248
s(g15
g33
g15
tp5223
g250
s(g10
g33
g11
tp5224
g252
s(g30
g30
g11
tp5225
g254
s(g33
g33
g11
tp5226
g256
s(g33
g30
g15
tp5227
g258
s(g30
g15
g11
tp5228
g260
s(g46
g23
g11
tp5229
g262
s(g33
g22
g11
tp5230
(lp5231
I00
as(g22
g15
g15
tp5232
(lp5233
I00
as(g30
g18
g15
tp5234
g268
s(g22
g11
g15
tp5235
(lp5236
I00
as(g14
g22
g15
tp5237
(lp5238
I00
as(g23
g33
g15
tp5239
g274
s(g46
g11
g15
tp5240
g276
s(g30
g11
g11
tp5241
g278
s(g15
g33
g11
tp5242
g280
s(g19
g19
g11
tp5243
g282
s(g15
g23
g11
tp5244
g284
s(g23
g46
g11
tp5245
g286
s(g14
g10
g11
tp5246
g288
s(g14
g46
g15
tp5247
g290
s(g33
g14
g15
tp5248
g292
s(g11
g22
g11
tp5249
(lp5250
I00
as(g18
g30
g15
tp5251
g296
s(g30
g14
g11
tp5252
g298
s(g19
g18
g11
tp5253
g300
s(g46
g23
g15
tp5254
g302
s(g46
g30
g15
tp5255
g304
s(g33
g19
g11
tp5256
g306
s(g10
g22
g15
tp5257
(lp5258
I00
as(g33
g15
g11
tp5259
g310
s(g30
g18
g11
tp5260
g312
s(g23
g30
g15
tp5261
g314
s(g10
g14
g11
tp5262
g316
s(g46
g14
g15
tp5263
g318
s(g23
g23
g15
tp5264
g320
s(g33
g33
g15
tp5265
g322
s(g19
g19
g15
tp5266
g324
s(g14
g23
g15
tp5267
g326
s(g23
g22
g11
tp5268
(lp5269
I00
as(g18
g14
g11
tp5270
g330
s(g11
g18
g15
tp5271
g332
s(g11
g19
g15
tp5272
g334
s(g22
g15
g11
tp5273
(lp5274
I00
as(g14
g10
g15
tp5275
g338
s(g19
g14
g15
tp5276
g340
s(g30
g30
g15
tp5277
g342
s(g18
g30
g11
tp5278
g344
s(g22
g30
g15
tp5279
(lp5280
I00
as(g19
g18
g15
tp5281
g348
s(g14
g22
g11
tp5282
(lp5283
I01
as(g33
g19
g15
tp5284
g352
s(g33
g30
g11
tp5285
g354
s(g23
g30
g11
tp5286
g356
s(g14
g11
g15
tp5287
g358
s(g22
g46
g11
tp5288
(lp5289
I00
as(g46
g46
g15
tp5290
g362
s(g33
g18
g11
tp5291
g364
s(g15
g18
g15
tp5292
g366
s(g23
g46
g15
tp5293
g368
s(g15
g19
g11
tp5294
g370
s(g18
g18
g15
tp5295
g372
s(g33
g14
g11
tp5296
g374
s(g14
g23
g11
tp5297
g376
s(g15
g10
g15
tp5298
g378
s(g30
g14
g15
tp5299
g380
s(g46
g11
g11
tp5300
g382
s(g18
g14
g15
tp5301
g384
s(g46
g30
g11
tp5302
g386
s(g30
g22
g11
tp5303
(lp5304
I00
as(g33
g15
g15
tp5305
g390
s(g10
g14
g15
tp5306
g392
s(g19
g10
g11
tp5307
g394
s(g18
g15
g15
tp5308
g396
s(g15
g10
g11
tp5309
g398
s(g14
g18
g11
tp5310
g400
s(g22
g46
g15
tp5311
(lp5312
I00
as(g22
g33
g15
tp5313
(lp5314
I00
as(g23
g11
g11
tp5315
g406
s(g33
g18
g15
tp5316
g408
s(g33
g23
g11
tp5317
g410
s(g18
g33
g15
tp5318
g412
s(g11
g19
g11
tp5319
g414
s(g11
g46
g11
tp5320
g416
s(g19
g14
g11
tp5321
g418
s(g19
g33
g11
tp5322
g420
s(g18
g46
g11
tp5323
g422
s(g22
g30
g11
tp5324
(lp5325
I00
as(g22
g22
g15
tp5326
(lp5327
I00
as(g19
g23
g15
tp5328
g428
s(g23
g11
g15
tp5329
g430
s(g10
g11
g11
tp5330
g432
s(g14
g11
g11
tp5331
g434
s(g19
g10
g15
tp5332
g436
s(g23
g10
g11
tp5333
g438
s(g11
g15
g11
tp5334
g440
s(g18
g18
g11
tp5335
g442
s(g10
g30
g15
tp5336
g444
s(g14
g18
g15
tp5337
g446
s(g15
g22
g11
tp5338
(lp5339
I00
as(g30
g33
g11
tp5340
g450
s(g18
g33
g11
tp5341
g452
s(g14
g15
g11
tp5342
g454
s(g30
g22
g15
tp5343
(lp5344
I00
as(g11
g14
g11
tp5345
g458
s(g18
g19
g15
tp5346
g460
s(g23
g18
g15
tp5347
g462
s(g22
g22
g11
tp5348
(lp5349
I00
as(g19
g23
g11
tp5350
g466
s(g46
g18
g15
tp5351
g468
s(g22
g33
g11
tp5352
(lp5353
I00
as(g11
g23
g11
tp5354
g472
s(g30
g46
g11
tp5355
g474
s(g33
g23
g15
tp5356
g476
s(g23
g23
g11
tp5357
g478
s(g19
g33
g15
tp5358
g480
s(g22
g23
g11
tp5359
(lp5360
I01
as(g46
g15
g15
tp5361
g484
s(g11
g10
g11
tp5362
g486
s(g10
g15
g15
tp5363
g488
s(g11
g33
g15
tp5364
g490
s(g10
g11
g15
tp5365
g492
s(g15
g15
g15
tp5366
g494
s(g22
g18
g15
tp5367
(lp5368
I00
as(g33
g46
g15
tp5369
g498
s(g11
g15
g15
tp5370
g500
s(g10
g30
g11
tp5371
g502
s(g15
g14
g11
tp5372
g504
ssg505
(dp5373
Vrectangular_packing_box4
p5374
g508
sVrectangular_packing_box2
p5375
g587
sVrectangular_packing_box3
p5376
g631
sVrectangular_packing_box1
p5377
g687
sVsquare_packing_box2
p5378
(itrajectory_representation.operator
Operator
p5379
(dp5380
g510
I01
sg511
(dp5381
g513
Vsquare_packing_box2
p5382
ssg515
g516
sg517
(dp5383
g519
(lp5384
g521
(g522
(I0
tp5385
g524
tp5386
Rp5387
(I1
(I3
tp5388
g531
I00
S'\xd7\xf2\xfc\xf7\x04\xce\x07@\xc7Ffi\xc6\xf0\x16\xc0\xc5\xbd\xe5i\xab\xcd\xdf\xbf'
p5389
tp5390
bag521
(g522
(I0
tp5391
g524
tp5392
Rp5393
(I1
(I3
tp5394
g531
I00
S'\x1e\xd3\x8e\xcahk\x08@\xb7\xdbN\x1b\x86\x83\x16\xc06\xe8\xe4\xa8\x83\xc5\xcb\xbf'
p5395
tp5396
bag521
(g522
(I0
tp5397
g524
tp5398
Rp5399
(I1
(I3
tp5400
g531
I00
S'\xd3Ln\x97\x8eR\x0c@\xdc\xe0c\xed\xbf\xe1\x19\xc07v\xab\x11\x1f\xda\xf6?'
p5401
tp5402
basg548
I00
ssg549
(lp5403
g521
(g522
(I0
tp5404
g524
tp5405
Rp5406
(I1
(I3
tp5407
g531
I00
S'cR\xdd8\xd6\x8d\x00@\xc1C|\xd2X\x00\x16\xc0\xc1\xab\x9e\x0b\x900\xd2?'
p5408
tp5409
bag521
(g522
(I0
tp5410
g524
tp5411
Rp5412
(I1
(I3
tp5413
g563
I00
S'\x00\xda\x1c<\xfd\xdc\x00@j"\x91\xe3 \x1a\x18\xc0i~!@)\xb0\xdc\xbf'
p5414
tp5415
bag521
(g522
(I0
tp5416
g524
tp5417
Rp5418
(I1
(I3
tp5419
g563
I00
S'\xe6rt0\xc6`\x05@\xe8\xf6\xaa\xc7\x03\x10\x17\xc0v\x9e\xc9\x80o\x15\xed\xbf'
p5420
tp5421
bag5387
asbsVsquare_packing_box3
p5422
g799
sVsquare_packing_box1
p5423
g843
sVsquare_packing_box4
p5424
g875
ssg924
I01
sg925
(lp5425
S'square_packing_box1'
p5426
aS'rectangular_packing_box1'
p5427
aS'square_packing_box2'
p5428
aS'rectangular_packing_box2'
p5429
aS'square_packing_box3'
p5430
aS'rectangular_packing_box3'
p5431
aS'square_packing_box4'
p5432
aS'rectangular_packing_box4'
p5433
asg7
Nsg935
(dp5434
Vrectangular_packing_box4
p5435
g941
sVrectangular_packing_box2
p5436
g945
sVrectangular_packing_box3
p5437
g949
sVrectangular_packing_box1
p5438
g953
sVsquare_packing_box2
p5439
g938
((lp5440
I0
aI1
aI393
aI144
aI403
aI541
aI545
aI546
aI555
aI571
aI454
aI342
aI473
aI474
aI367
aI368
aI369
aI370
aI371
aI247
aI248
aI377
aI378
atp5441
Rp5442
sVsquare_packing_box3
p5443
g961
sVsquare_packing_box1
p5444
g965
sVsquare_packing_box4
p5445
g969
ssg970
(lp5446
(g5374
g15
tp5447
a(g5375
g15
tp5448
a(g5376
g15
tp5449
a(g5377
g15
tp5450
a(g5378
g15
tp5451
a(g5422
g15
tp5452
a(g5423
g15
tp5453
a(g5424
g15
tp5454
a(g5374
g11
tp5455
a(g5422
g11
tp5456
a(g5424
g11
tp5457
asg983
(dp5458
Vrectangular_packing_box4
p5459
g521
(g522
(I0
tp5460
g524
tp5461
Rp5462
(I1
(I1
I3
tp5463
g531
I00
S'\x98\x1e]pS`\xd2?\x16\x1b\xb6\xe9Ei\x18\xc0\x82\x97\xe8\xa1t:\xe4?'
p5464
tp5465
bsVrectangular_packing_box2
p5466
g521
(g522
(I0
tp5467
g524
tp5468
Rp5469
(I1
(I1
I3
tp5470
g531
I00
S'x#\x8a\xa8\xbfB\x02@]@\xdd\xaa0\xf7\x1a\xc0\xa2\x93\xe4\xf2\xe3\x8f\xe0?'
p5471
tp5472
bsVrectangular_packing_box3
p5473
g521
(g522
(I0
tp5474
g524
tp5475
Rp5476
(I1
(I1
I3
tp5477
g531
I00
S'\xbc\xa2$/\t\xb1\xb0?p\xd9\xd7\x88y7\x1e\xc0\xa1\xa8\xa4gcb\x12@'
p5478
tp5479
bsVrectangular_packing_box1
p5480
g521
(g522
(I0
tp5481
g524
tp5482
Rp5483
(I1
(I1
I3
tp5484
g531
I00
S'\xf81, \xdaJ\xf5?\x90\x94\xc7_\x9e4\x18\xc0\x88,&\x8ck,\x0b@'
p5485
tp5486
bsVsquare_packing_box2
p5487
g521
(g522
(I0
tp5488
g524
tp5489
Rp5490
(I1
(I1
I3
tp5491
g531
I00
S'\xb3\x99\x7f<\xad\xb4\r@\xd8\xe5\x95\xe8\xfc\xf0\x16\xc0Y\x96n\x9e\xe7\t\x19@'
p5492
tp5493
bsVsquare_packing_box3
p5494
g521
(g522
(I0
tp5495
g524
tp5496
Rp5497
(I1
(I1
I3
tp5498
g531
I00
S'2\xc7\x84Ad\xa3\n@\xae\xaf\xb2\x18;\x05\x1e\xc0j8\xf9\x85\xb6\xac\x0f@'
p5499
tp5500
bsVsquare_packing_box1
p5501
g521
(g522
(I0
tp5502
g524
tp5503
Rp5504
(I1
(I1
I3
tp5505
g531
I00
S'\x15\xcf\x19\xc3\xf23\x0c@\x8b\xb5r\xad\x0f?\x15\xc0\xbf~a\xe9h\n\x13@'
p5506
tp5507
bsVsquare_packing_box4
p5508
g521
(g522
(I0
tp5509
g524
tp5510
Rp5511
(I1
(I1
I3
tp5512
g531
I00
S'V\xce\xcef\xfe\xbb\xf0?J@\xfc\xa1\x9e\xc0\x16\xc0\xaeKe\x14U\xf8\x13@'
p5513
tp5514
bssg1041
(itrajectory_representation.predicates.place_in_way
PlaceInWay
p5515
(dp5516
g1044
(dp5517
(g14
g11
tp5518
(lp5519
g521
(g522
(I0
tp5520
g524
tp5521
Rp5522
(I1
(I3
tp5523
g531
I00
S'\xba\x9ct\x99Y\x93\x0e@\xa6\x82\x19\x7fa\xb4\x17\xc0\x0c\x07\x97\xeb\xfc\n\x00@'
p5524
tp5525
bag521
(g522
(I0
tp5526
g524
tp5527
Rp5528
(I1
(I3
tp5529
g563
I00
S'\xcb\x1a\x84\x1d\\\x9c\x08@\xec\xcbi\xc9#;\x18\xc0\xbf\xf24g\x02T\x05@'
p5530
tp5531
bag521
(g522
(I0
tp5532
g524
tp5533
Rp5534
(I1
(I3
tp5535
g563
I00
S'\xf8d\x877\x12\xfd\x04@h\xdbW\x9a\x83\x8e\x16\xc0\x87\xf16\xb9\x03k\x05@'
p5536
tp5537
bag521
(g522
(I0
tp5538
g524
tp5539
Rp5540
(I1
(I3
tp5541
g563
I00
S'\xc7\xc7\x06s\xd6\xa3\xff?3\x91\xe4\x97\xb5\x07\x16\xc0\x1bW\xbc\xbfY:\x06@'
p5542
tp5543
bag521
(g522
(I0
tp5544
g524
tp5545
Rp5546
(I1
(I3
tp5547
g563
I00
S'\x85\\2\xba\x0b5\xf5?I\r\x06\xd10\xfb\x15\xc0\x9e\x11\xee\xd8\xb9\xd7\xf5?'
p5548
tp5549
bag521
(g522
(I0
tp5550
g524
tp5551
Rp5552
(I1
(I3
tp5553
g563
I00
S'v\xb8^\x85\xa7[\xea?x\xbe\xff2t\x8d\x13\xc0\x88\x85\x8cCyH\xf6?'
p5554
tp5555
bag521
(g522
(I0
tp5556
g524
tp5557
Rp5558
(I1
(I3
tp5559
g563
I00
S'\xc2\xda(e\x83\x1a\xeb?\x8au\x8d3\xa6E\x11\xc0\xb4c\x1b\xed_\xfd\xfa?'
p5560
tp5561
bag521
(g522
(I0
tp5562
g524
tp5563
Rp5564
(I1
(I3
tp5565
g563
I00
S'\xe4u**\x0e5\xe9?\xaa\xfd\r\xed\xc4\xf6\r\xc0\x0fDE0\x1f\x0b\xfe?'
p5566
tp5567
bag521
(g522
(I0
tp5568
g524
tp5569
Rp5570
(I1
(I3
tp5571
g563
I00
S'\x06\x11,\xef\x98O\xe7??\x10\x01s=b\t\xc04\x92\xb79o\x8c\x00@'
p5572
tp5573
bag521
(g522
(I0
tp5574
g524
tp5575
Rp5576
(I1
(I3
tp5577
g563
I00
S'\x92\xaf\xf3P\x96O\xc2?(\xa1:\x8er}\x05\xc0\xd4_\x91\xb3\xffL\x02@'
p5578
tp5579
bas(g10
g11
tp5580
(lp5581
g521
(g522
(I0
tp5582
g524
tp5583
Rp5584
(I1
(I3
tp5585
g531
I00
S'\x98\x07\xbd)b\xbe\xfb?\t\x85t\x92\x153\x18\xc0\xb00\xe9\xb77m\x17@'
p5586
tp5587
bag521
(g522
(I0
tp5588
g524
tp5589
Rp5590
(I1
(I3
tp5591
g563
I00
S'N\xcd\xaa\x1e;\x0f\xee?&\xa8j\x7f\xa2\xe5\x17\xc0\xc1rR\xf6\xd1Y\xe0\xbf'
p5592
tp5593
bag521
(g522
(I0
tp5594
g524
tp5595
Rp5596
(I1
(I3
tp5597
g563
I00
S'\xe4\x9e\xb7\xac\xe0!\xeb?\x8a\x83\x10\xb1\xa2\xad\x15\xc0\x9aS\xfbY\xaf\x8f\xd2\xbf'
p5598
tp5599
bag521
(g522
(I0
tp5600
g524
tp5601
Rp5602
(I1
(I3
tp5603
g563
I00
S"\xb2&6mg)\xe8?\x99\xe0G'\x16\xe0\x13\xc0\xc8oL\xf5\x17p\xe6\xbf"
p5604
tp5605
bag521
(g522
(I0
tp5606
g524
tp5607
Rp5608
(I1
(I3
tp5609
g563
I00
S'`\xc8Aw-\x81\xeb?/\xc3\xe6O\x04\xca\x10\xc0\x8a\xb7K)\x91{\xe4\xbf'
p5610
tp5611
bag521
(g522
(I0
tp5612
g524
tp5613
Rp5614
(I1
(I3
tp5615
g563
I00
S'\xe1\xc6\xc7\xa7\x12X\xe7?\x98\x99\xb0\x9a\xfb\xdb\x0b\xc0R\t\x1b)\xeae\xe0\xbf'
p5616
tp5617
bag521
(g522
(I0
tp5618
g524
tp5619
Rp5620
(I1
(I3
tp5621
g563
I00
S'p\xf1\xbdc^\x84\xf1?"\x88LL\xf9D\x06\xc0~w\r\xe9m\x0f\x19@'
p5622
tp5623
bas(g30
g11
tp5624
(lp5625
g521
(g522
(I0
tp5626
g524
tp5627
Rp5628
(I1
(I3
tp5629
g531
I00
S'\xe4\xfb\xaaE\x8f\xc1\xe5?\xb7\xa6\xc5gY\x12\x1f\xc0])%M\x96\x93\x08@'
p5630
tp5631
bag521
(g522
(I0
tp5632
g524
tp5633
Rp5634
(I1
(I3
tp5635
g563
I00
S'\xd23W\xd6\xdd\xe3\xe6?\xdc\xcai,~\xa9\x1c\xc0\xe4\x03\x93/\x16_\x04\xc0'
p5636
tp5637
bag521
(g522
(I0
tp5638
g524
tp5639
Rp5640
(I1
(I3
tp5641
g563
I00
S'\xf8\xfc\x1a\xd0\xc9l\xe8?\x8a\x897\x8e~\x98\x1a\xc0\xaf\xf7\xb87\xc6\xa7\x01\xc0'
p5642
tp5643
bag521
(g522
(I0
tp5644
g524
tp5645
Rp5646
(I1
(I3
tp5647
g563
I00
S'\xf8C*\xbe\x14\xcf\xe8?\x81d\xab\xeb\xa8<\x18\xc0\xc8\\\xf4\x8c\xc3\xfa\xfe\xbf'
p5648
tp5649
bag521
(g522
(I0
tp5650
g524
tp5651
Rp5652
(I1
(I3
tp5653
g563
I00
S'\xd0\xcb\x13\x8f\xaa\x9d\xed?\x90\x01<]3\x06\x16\xc0F\xf1\xe7x32\x02\xc0'
p5654
tp5655
bag521
(g522
(I0
tp5656
g524
tp5657
Rp5658
(I1
(I3
tp5659
g563
I00
S'l[\xc4\x16<\xe6\xe9?\xa6\xa0\x90\x84X\x9f\x13\xc0\xc2\xd74Q\x00\xaf\xff\xbf'
p5660
tp5661
bag521
(g522
(I0
tp5662
g524
tp5663
Rp5664
(I1
(I3
tp5665
g563
I00
S"\xaeJ\xbd\x1936\xec?\x04\x13\xd4'\x9f\x88\x10\xc0\x805qo\xb6\xe6\xff\xbf"
p5666
tp5667
bag521
(g522
(I0
tp5668
g524
tp5669
Rp5670
(I1
(I3
tp5671
g563
I00
S'\xf09\xb6\x1c*\x86\xee?\xc4\n/\x96\xcb\xe3\n\xc0\xa0\xc9\xd6F6\x0f\x00\xc0'
p5672
tp5673
bag521
(g522
(I0
tp5674
g524
tp5675
Rp5676
(I1
(I3
tp5677
g563
I00
S'3\xe9\xaf\x05T\x89\xe7?+~\xcb\xd3\x15\xc7\x04\xc0x6(d5\xed\x07@'
p5678
tp5679
bas(g19
g11
tp5680
(lp5681
g521
(g522
(I0
tp5682
g524
tp5683
Rp5684
(I1
(I3
tp5685
g531
I00
S'X\xca\xc0\xcf\xd9[\xf0?\xff/#\xddH6\x15\xc0F\xa4\xd4\xc0\xcb\x98\x14@'
p5686
tp5687
bag521
(g522
(I0
tp5688
g524
tp5689
Rp5690
(I1
(I3
tp5691
g563
I00
S'A\x17\xef\x80|\x96\xed?\xac\xb9\xac\x81\xb2M\x12\xc0 -\xe6\\\xe0\x1a\t\xc0'
p5692
tp5693
bag521
(g522
(I0
tp5694
g524
tp5695
Rp5696
(I1
(I3
tp5697
g563
I00
S'N\nd\xc1\xac\x11\xe6?\xa7\xb8"u\xaf\xb8\x0e\xc0\xfeK\xd2\xea\x9eB\x08\xc0'
p5698
tp5699
bag521
(g522
(I0
tp5700
g524
tp5701
Rp5702
(I1
(I3
tp5703
g563
I00
S'\xf09\xb6\x1c*\x86\xee?\xc4\n/\x96\xcb\xe3\n\xc0\xa0\xc9\xd6F6\x0f\x00\xc0'
p5704
tp5705
bag521
(g522
(I0
tp5706
g524
tp5707
Rp5708
(I1
(I3
tp5709
g563
I00
S'\xf4\xfdJ\x1a(#\xec?H"\x9cD\x1aE\x05\xc0.\xa9\x0b\x87\xf8\xe1\x02@'
p5710
tp5711
bas(g22
g11
tp5712
(lp5713
g521
(g522
(I0
tp5714
g524
tp5715
Rp5716
(I1
(I3
tp5717
g531
I00
S'\xd8\xf2\xfc\xf7\x04\xce\x07@\xc7Ffi\xc6\xf0\x16\xc0<\xd1\xa5\x9d %\x17@'
p5718
tp5719
bag521
(g522
(I0
tp5720
g524
tp5721
Rp5722
(I1
(I3
tp5723
g563
I00
S'\x93\xe8\x9a\xb2\xd1\xfa\x03@\x8aHE%\xee\xed\x15\xc0\xf8hW\x99?x\xfa\xbf'
p5724
tp5725
bag521
(g522
(I0
tp5726
g524
tp5727
Rp5728
(I1
(I3
tp5729
g563
I00
S'!\x83\xc0\xf3W\x85\xff?\xed\x8f\x90/y\xfd\x16\xc06jP\xfe\x98\xf5\xf4\xbf'
p5730
tp5731
bag521
(g522
(I0
tp5732
g524
tp5733
Rp5734
(I1
(I3
tp5735
g563
I00
S'2Z\xe1\xe97J\xf6?\\\x1e`@2v\x16\xc0\xc4\x0c\xcc\x14<\xf9\xf6\xbf'
p5736
tp5737
bag521
(g522
(I0
tp5738
g524
tp5739
Rp5740
(I1
(I3
tp5741
g563
I00
S'tx\x8as\xa8b\xed?\x9ej\x15\xfa\xf0{\x15\xc0@\xed\x9a-\x9eD\xf2\xbf'
p5742
tp5743
bag521
(g522
(I0
tp5744
g524
tp5745
Rp5746
(I1
(I3
tp5747
g563
I00
S"\xb2&6mg)\xe8?\x99\xe0G'\x16\xe0\x13\xc0\xc8oL\xf5\x17p\xe6\xbf"
p5748
tp5749
bag521
(g522
(I0
tp5750
g524
tp5751
Rp5752
(I1
(I3
tp5753
g563
I00
S'`\xc8Aw-\x81\xeb?/\xc3\xe6O\x04\xca\x10\xc0\x8a\xb7K)\x91{\xe4\xbf'
p5754
tp5755
bag521
(g522
(I0
tp5756
g524
tp5757
Rp5758
(I1
(I3
tp5759
g563
I00
S'\xe1\xc6\xc7\xa7\x12X\xe7?\x98\x99\xb0\x9a\xfb\xdb\x0b\xc0R\t\x1b)\xeae\xe0\xbf'
p5760
tp5761
bag521
(g522
(I0
tp5762
g524
tp5763
Rp5764
(I1
(I3
tp5765
g563
I00
S'p\xf1\xbdc^\x84\xf1?"\x88LL\xf9D\x06\xc0~w\r\xe9m\x0f\x19@'
p5766
tp5767
bassg1296
(dp5768
(g14
g11
tp5769
(lp5770
Vsquare_packing_box2
p5771
aVrectangular_packing_box1
p5772
aVsquare_packing_box4
p5773
as(g10
g11
tp5774
(lp5775
Vrectangular_packing_box1
p5776
aVsquare_packing_box4
p5777
aVrectangular_packing_box4
p5778
as(g30
g11
tp5779
(lp5780
Vrectangular_packing_box1
p5781
aVsquare_packing_box4
p5782
aVrectangular_packing_box4
p5783
as(g19
g11
tp5784
(lp5785
Vsquare_packing_box4
p5786
as(g22
g11
tp5787
(lp5788
Vrectangular_packing_box2
p5789
aVrectangular_packing_box1
p5790
aVsquare_packing_box4
p5791
assg1322
(lp5792
g5375
ag5378
ag5422
ag5423
asg1324
(dp5793
Vrectangular_packing_box4
p5794
g1329
sVrectangular_packing_box2
p5795
g1333
sVrectangular_packing_box3
p5796
g1337
sVrectangular_packing_box1
p5797
g1341
sVsquare_packing_box2
p5798
g938
((lp5799
I0
aI1
aI546
aI545
aI555
aI403
aI367
aI368
aI369
aI370
aI371
aI342
aI377
aI378
aI571
aI541
aI474
atp5800
Rp5801
sVsquare_packing_box3
p5802
g1349
sVsquare_packing_box1
p5803
g1353
sVsquare_packing_box4
p5804
g1357
ssg2
g5085
sg505
g5373
sg1358
(dp5805
sg1360
Nsg1361
(lp5806
sg1363
(dp5807
sg1365
I0
sg1366
g5373
sg7
Nsg1367
(dp5808
(g19
g10
g11
tp5809
I00
s(g22
g10
g11
tp5810
I01
s(g10
g46
g11
tp5811
I00
s(g14
g30
g11
tp5812
I00
s(g22
g14
g11
tp5813
I00
s(g19
g14
g11
tp5814
I00
s(g19
g33
g11
tp5815
I00
s(g22
g30
g11
tp5816
I00
s(g14
g10
g11
tp5817
I00
s(g10
g19
g11
tp5818
I01
s(g30
g14
g11
tp5819
I00
s(g10
g14
g11
tp5820
I00
s(g30
g33
g11
tp5821
I01
s(g10
g23
g11
tp5822
I01
s(g14
g19
g11
tp5823
I01
s(g30
g46
g11
tp5824
I00
s(g30
g19
g11
tp5825
I01
s(g19
g23
g11
tp5826
I01
s(g22
g19
g11
tp5827
I01
s(g30
g23
g11
tp5828
I01
s(g22
g33
g11
tp5829
I00
s(g14
g22
g11
tp5830
I01
s(g22
g23
g11
tp5831
I01
s(g14
g46
g11
tp5832
I00
s(g22
g46
g11
tp5833
I00
s(g19
g46
g11
tp5834
I00
s(g19
g30
g11
tp5835
I00
s(g30
g10
g11
tp5836
I00
s(g10
g22
g11
tp5837
I00
s(g14
g23
g11
tp5838
I01
s(g14
g33
g11
tp5839
I00
s(g10
g33
g11
tp5840
I01
s(g30
g22
g11
tp5841
I00
s(g10
g30
g11
tp5842
I00
s(g19
g22
g11
tp5843
I00
ssg1380
Nsg1381
I01
sbsg1382
(dp5844
g5374
(lp5845
g521
(g522
(I0
tp5846
g524
tp5847
Rp5848
(I1
(I3
tp5849
g531
I00
S'cR\xdd8\xd6\x8d\x00@\xc1C|\xd2X\x00\x16\xc0\xc1\xab\x9e\x0b\x900\xd2?'
p5850
tp5851
bag521
(g522
(I0
tp5852
g524
tp5853
Rp5854
(I1
(I3
tp5855
g563
I00
S'\xf5I-\xc1\xee\x1f\xfa?Zc\rx\x9c\n\x18\xc0?_z:D*\x17@'
p5856
tp5857
bag521
(g522
(I0
tp5858
g524
tp5859
Rp5860
(I1
(I3
tp5861
g563
I00
S'-%/\xa8h{\xf9?\x98fM\xb1\x8f\x0e\x16\xc0\x8f\x17\x96\x89\xffQ\x10@'
p5862
tp5863
bag544
asg5375
(lp5864
g521
(g522
(I0
tp5865
g524
tp5866
Rp5867
(I1
(I3
tp5868
g531
I00
S'cR\xdd8\xd6\x8d\x00@\xc1C|\xd2X\x00\x16\xc0\xc1\xab\x9e\x0b\x900\xd2?'
p5869
tp5870
bag521
(g522
(I0
tp5871
g524
tp5872
Rp5873
(I1
(I3
tp5874
g563
I00
S'\x16\x9e\xd06H\xd3\x04@\xe5\xe1\xfb\xc5\xb8\xd1\x16\xc0es\x86\x03\xdb\x8e\x17@'
p5875
tp5876
bag521
(g522
(I0
tp5877
g524
tp5878
Rp5879
(I1
(I3
tp5880
g563
I00
S'\xe6rt0\xc6`\x05@\xe8\xf6\xaa\xc7\x03\x10\x17\xc0v\x9e\xc9\x80o\x15\xed\xbf'
p5881
tp5882
bag607
asg5376
(lp5883
g521
(g522
(I0
tp5884
g524
tp5885
Rp5886
(I1
(I3
tp5887
g531
I00
S'cR\xdd8\xd6\x8d\x00@\xc1C|\xd2X\x00\x16\xc0\xc1\xab\x9e\x0b\x900\xd2?'
p5888
tp5889
bag521
(g522
(I0
tp5890
g524
tp5891
Rp5892
(I1
(I3
tp5893
g563
I00
S'\x0e]\xf2K\xc6E\xf7?\x06\x8c\xb9Ybt\x17\xc0%\xac6\x86\x93\xa8\xdd?'
p5894
tp5895
bag521
(g522
(I0
tp5896
g524
tp5897
Rp5898
(I1
(I3
tp5899
g563
I00
S'Pa\x88\xb1[\x02\xf1?\x1e\x1c\xb3\x8d\x8c\xb7\x19\xc0t\xf6\xbb\xc4\x878\x11@'
p5900
tp5901
bag645
asg5377
(lp5902
g521
(g522
(I0
tp5903
g524
tp5904
Rp5905
(I1
(I3
tp5906
g531
I00
S'cR\xdd8\xd6\x8d\x00@\xc1C|\xd2X\x00\x16\xc0\xc1\xab\x9e\x0b\x900\xd2?'
p5907
tp5908
bag521
(g522
(I0
tp5909
g524
tp5910
Rp5911
(I1
(I3
tp5912
g563
I00
S'/\xe1\x02^.|\x00@\xb8\xae\xc5\xcfF\x16\x17\xc0\xf8\x01)d\xc5\xf9\xe2?'
p5913
tp5914
bag521
(g522
(I0
tp5915
g524
tp5916
Rp5917
(I1
(I3
tp5918
g563
I00
S'\xe0 ;\x819w\xfd?\xe7\xcc\xc2\xa0\xa5f\x17\xc04\xedq\x1c\x8eK\xfa?'
p5919
tp5920
bag701
asg5378
g5403
sg5422
(lp5921
g521
(g522
(I0
tp5922
g524
tp5923
Rp5924
(I1
(I3
tp5925
g531
I00
S'cR\xdd8\xd6\x8d\x00@\xc1C|\xd2X\x00\x16\xc0\xc1\xab\x9e\x0b\x900\xd2?'
p5926
tp5927
bag521
(g522
(I0
tp5928
g524
tp5929
Rp5930
(I1
(I3
tp5931
g563
I00
S'\x19\xdbXU\x9c\xa8\x04@\xe6\xf1\xeb\xae\xcb\x05\x18\xc0\xce\x9cp\x98\xaf*\xeb?'
p5932
tp5933
bag521
(g522
(I0
tp5934
g524
tp5935
Rp5936
(I1
(I3
tp5937
g563
I00
S'g\x886\x82\xe7\x9e\t@\x81\x00+\xe8\xfe$\x19\xc0m@m\xfd\x93\x06\xf2?'
p5938
tp5939
bag521
(g522
(I0
tp5940
g524
tp5941
Rp5942
(I1
(I3
tp5943
g563
I00
S'\x9a\x9e\xdc\x13\r\n\n@\xf1\xbcp\x07u\xf1\x1a\xc0\xd2JG\xa3\xec%\xd4\xbf'
p5944
tp5945
bag807
asg5423
(lp5946
g521
(g522
(I0
tp5947
g524
tp5948
Rp5949
(I1
(I3
tp5950
g531
I00
S'cR\xdd8\xd6\x8d\x00@\xc1C|\xd2X\x00\x16\xc0\xc1\xab\x9e\x0b\x900\xd2?'
p5951
tp5952
bag863
asg5424
(lp5953
g521
(g522
(I0
tp5954
g524
tp5955
Rp5956
(I1
(I3
tp5957
g531
I00
S'cR\xdd8\xd6\x8d\x00@\xc1C|\xd2X\x00\x16\xc0\xc1\xab\x9e\x0b\x900\xd2?'
p5958
tp5959
bag521
(g522
(I0
tp5960
g524
tp5961
Rp5962
(I1
(I3
tp5963
g563
I00
S'/\xe1\x02^.|\x00@\xb8\xae\xc5\xcfF\x16\x17\xc0\xf8\x01)d\xc5\xf9\xe2?'
p5964
tp5965
bag521
(g522
(I0
tp5966
g524
tp5967
Rp5968
(I1
(I3
tp5969
g563
I00
S'j\xc7\xc0&\x8ag\xf6?h\x9cH4\x7f\xab\x18\xc0\xd8|\x1d\xfc\xcbV\xf2?'
p5970
tp5971
bag895
assg1324
(dp5972
(Vsquare_packing_box4
p5973
(g1386
(g531
S'\x90\xc0\x1f~\xfe\xbb\xf0?'
p5974
tp5975
Rp5976
g1386
(g531
S'8\xdb\xdc\x98\x9e\xc0\x16\xc0'
p5977
tp5978
Rp5979
g1386
(g531
S'\xda\x8c\xd3\x10U\xf8\x13@'
p5980
tp5981
Rp5982
tp5983
tp5984
g1357
s(Vrectangular_packing_box2
p5985
(g1386
(g531
S'\xce\xe30\x98\xbfB\x02@'
p5986
tp5987
Rp5988
g1386
(g531
S'\xf9hq\xc60\xf7\x1a\xc0'
p5989
tp5990
Rp5991
g1386
(g531
S'V\xbc\x91y\xe4\x8f\xe0?'
p5992
tp5993
Rp5994
tp5995
tp5996
g1333
s(Vrectangular_packing_box3
p5997
(g1386
(g531
S'{\x9f\xaaB\x03\xb1\xb0?'
p5998
tp5999
Rp6000
g1386
(g531
S'\x0f\x0b\xb5\xa6y7\x1e\xc0'
p6001
tp6002
Rp6003
g1386
(g531
S'\xe5\xef\xdeQcb\x12@'
p6004
tp6005
Rp6006
tp6007
tp6008
g1337
s(Vrectangular_packing_box4
p6009
(g1386
(g531
S'}\xec.PR`\xd2?'
p6010
tp6011
Rp6012
g1386
(g531
S'\x8fT\xdf\xf9Ei\x18\xc0'
p6013
tp6014
Rp6015
g1386
(g531
S'\xe8\xf9\xd3Fu:\xe4?'
p6016
tp6017
Rp6018
tp6019
tp6020
g1329
s(Vsquare_packing_box2
p6021
(g1386
(g531
S'6\x90.6\xad\xb4\r@'
p6022
tp6023
Rp6024
g1386
(g531
S'7\xc3\r\xf8\xfc\xf0\x16\xc0'
p6025
tp6026
Rp6027
g1386
(g531
S'\xe9\x9d\n\xb8\xe7\t\x19@'
p6028
tp6029
Rp6030
tp6031
tp6032
g5801
s(Vsquare_packing_box3
p6033
(g1386
(g531
S'\xc7\xbc\x8e8d\xa3\n@'
p6034
tp6035
Rp6036
g1386
(g531
S'\xb8\xca\x13\x08;\x05\x1e\xc0'
p6037
tp6038
Rp6039
g1386
(g531
S'\xde\xc9\xa7\xc7\xb6\xac\x0f@'
p6040
tp6041
Rp6042
tp6043
tp6044
g1349
s(Vsquare_packing_box1
p6045
(g1386
(g531
S'N\xb4\xab\x90\xf23\x0c@'
p6046
tp6047
Rp6048
g1386
(g531
S'Q\xf5+\x9d\x0f?\x15\xc0'
p6049
tp6050
Rp6051
g1386
(g531
S'\xe2\x1f\xb6\xf4h\n\x13@'
p6052
tp6053
Rp6054
tp6055
tp6056
g1353
s(Vrectangular_packing_box1
p6057
(g1386
(g531
S'\xa8\xdf\x85\xad\xd9J\xf5?'
p6058
tp6059
Rp6060
g1386
(g531
S'\x14\x05\xfaD\x9e4\x18\xc0'
p6061
tp6062
Rp6063
g1386
(g531
S'\xb13\x85\xcek,\x0b@'
p6064
tp6065
Rp6066
tp6067
tp6068
g1341
ssg1482
(igtamp_utils.utils
CustomStateSaver
p6069
(dp6070
g1485
g521
(g522
(I0
tp6071
g524
tp6072
Rp6073
(I1
(I1
I3
tp6074
g531
I00
S'fR\xdd8\xd6\x8d\x00@\xbfC|\xd2X\x00\x16\xc0\xc1\xab\x9e\x0b\x900\xd2?'
p6075
tp6076
bsg1492
Nsg1493
g1494
sg1495
I1
sg983
(dp6077
Vright_wall_1
p6078
g521
(g522
(I0
tp6079
g524
tp6080
Rp6081
(I1
(I4
tp6082
g531
I00
S'H\xe1z\x14\xaeG\x12@&\\\x8f\xc2\xf5(\xd4\xbf\xcc\x7fH\xbf}\x1d\xed?\x00\x00\x00\x00\x00\x00\x00\x00'
p6083
tp6084
bsVc_obst5
p6085
g521
(g522
(I0
tp6086
g524
tp6087
Rp6088
(I1
(I4
tp6089
g531
I00
S"\x9a\xf1q\xbb~\xea\x11@\n8\xbb\xd6O\xb6\xd4?e\xaa`TR'\xed?\xd2\x93\xb1\x82\xa4\x94\x0b@"
p6090
tp6091
bsVentrance_right
p6092
g521
(g522
(I0
tp6093
g524
tp6094
Rp6095
(I1
(I4
tp6096
g531
I00
S'ffffff\n@H\xe1z\x14\xaeG\t\xc0\x9c\xc4 \xb0rh\xc1?\x00\x00\x00\x00\x00\x00\x00\x00'
p6097
tp6098
bsVcomputer_table
p6099
g521
(g522
(I0
tp6100
g524
tp6101
Rp6102
(I1
(I4
tp6103
g531
I00
S'\x00\x00\x00\x00\x00\x00\x13@\x00\x00\x00\x00\x00\x00\xf8\xbf\x96C\x8bl\xe7\xfb\xe7?\xd2!3\x7f|\xd9\x12@'
p6104
tp6105
bsVchair_6b56
p6106
g521
(g522
(I0
tp6107
g524
tp6108
Rp6109
(I1
(I4
tp6110
g531
I00
S'y=\n\xd7\xa3p\xf5?M\xe1z\x14\xaeG\xd1?\x00\x00\x00\x00\x00\x00\x00\x00\xd6$\xfaNBm\n@'
p6111
tp6112
bsVsquare_packing_box3
p6113
g521
(g522
(I0
tp6114
g524
tp6115
Rp6116
(I1
(I4
tp6117
g531
I00
S'8\xc7\x84Ad\xa3\n@\xb4\xaf\xb2\x18;\x05\x1e\xc0L7\x89A`\xe5\xd8?j8\xf9\x85\xb6\xac\x0f@'
p6118
tp6119
bsVsquare_packing_box2
p6120
g521
(g522
(I0
tp6121
g524
tp6122
Rp6123
(I1
(I4
tp6124
g531
I00
S'\xb3\x99\x7f<\xad\xb4\r@\xd8\xe5\x95\xe8\xfc\xf0\x16\xc0L7\x89A`\xe5\xd8?Y\x96n\x9e\xe7\t\x19@'
p6125
tp6126
bsVtable
p6127
g521
(g522
(I0
tp6128
g524
tp6129
Rp6130
(I1
(I4
tp6131
g531
I00
S'\x7f\xf6#EdX\xed?\xac\xffs\x98//\xc0\xbf\x00\x00\x00\x00\x00\x00\x00\x00\x00\x00\x00\x00\x00\x00\x00\x00'
p6132
tp6133
bsVsquare_packing_box1
p6134
g521
(g522
(I0
tp6135
g524
tp6136
Rp6137
(I1
(I4
tp6138
g531
I00
S'\x12\xcf\x19\xc3\xf23\x0c@\x89\xb5r\xad\x0f?\x15\xc0L7\x89A`\xe5\xd8?\xbf~a\xe9h\n\x13@'
p6139
tp6140
bsVback_wall_2
p6141
g521
(g522
(I0
tp6142
g524
tp6143
Rp6144
(I1
(I4
tp6145
g531
I00
S'\xaeG\xe1z\x14.\x13@\x80\x14\xaeG\xe1z\xc4?xX\xa85\xcd\xbb\xf2?\x00\x00\x00\x00\x00\x00\x00\x00'
p6146
tp6147
bsVchair_083c
p6148
g521
(g522
(I0
tp6149
g524
tp6150
Rp6151
(I1
(I4
tp6152
g531
I00
S'\xa4p=\n\xd7\xa3\xe0?333333\xe3\xbf\x00\x00\x00\x00\x00\x00\x00\x00\x00\x00\x00\x00\x00\x00\x00\x00'
p6153
tp6154
bsVback_wall_1
p6155
g521
(g522
(I0
tp6156
g524
tp6157
Rp6158
(I1
(I4
tp6159
g531
I00
S'\xaeG\xe1z\x14.\x13@\x80\x14\xaeG\xe1z\xc4?\xcc\x7fH\xbf}\x1d\xed?\x00\x00\x00\x00\x00\x00\x00\x00'
p6160
tp6161
bsVbottom_wall
p6162
g521
(g522
(I0
tp6163
g524
tp6164
Rp6165
(I1
(I4
tp6166
g531
I00
S'\x00\x00\x00\x00\x00\x00\xfc?\x00\x00\x00\x00\x00\x00\x00\x00\x00\x00\x00\x00\x00\x00\x00\x00\x00\x00\x00\x00\x00\x00\x00\x00'
p6167
tp6168
bsVcup_905a
p6169
g521
(g522
(I0
tp6170
g524
tp6171
Rp6172
(I1
(I4
tp6173
g531
I00
S'\x00\x00\x00\x00\x00\x00\xf0?\x83\xc0\xca\xa1E\xb6\xdb?\x1b/\xdd$\x06\x81\xed?\x00\x00\x00\x00\x00\x00\x00\x00'
p6174
tp6175
bsVplate_496f
p6176
g521
(g522
(I0
tp6177
g524
tp6178
Rp6179
(I1
(I4
tp6180
g531
I00
S"q=\n\xd7\xa3p\xe5?\x9dhW!\xe5'\xdd\xbf\x1b/\xdd$\x06\x81\xed?\x00\x00\x00\x00\x00\x00\x00\x00"
p6181
tp6182
bsVtoaster
p6183
g521
(g522
(I0
tp6184
g524
tp6185
Rp6186
(I1
(I4
tp6187
g531
I00
S')\\\x8f\xc2\xf5(\xf4\xbf\xe0z\x14\xaeG\xe1\xf2\xbf\xb8\x1e\x85\xebQ\xb8\xee?\x89/`\x9b\xf8\x8a\xe4?'
p6188
tp6189
bsVc_obst1
p6190
g521
(g522
(I0
tp6191
g524
tp6192
Rp6193
(I1
(I4
tp6194
g531
I00
S"\xff$\x95\xf6\x8a4\x12@\x1b\xc3S\xe6\xc1\xef\xd7?e\xaa`TR'\xed?\xe0\xbaL\x80\x10\xb3\t@"
p6195
tp6196
bsVrectangular_packing_box4
p6197
g521
(g522
(I0
tp6198
g524
tp6199
Rp6200
(I1
(I4
tp6201
g531
I00
S'\x98\x1e]pS`\xd2?\x16\x1b\xb6\xe9Ei\x18\xc0L7\x89A`\xe5\xd8?\x82\x97\xe8\xa1t:\xe4?'
p6202
tp6203
bsVmicrowave
p6204
g521
(g522
(I0
tp6205
g524
tp6206
Rp6207
(I1
(I4
tp6208
g531
I00
S'\x9a\x99\x99\x99\x99\x99\xf1\xbf\x00\x00\x00\x00\x00\x00\x00@7\x89A`\xe5\xd0\xee?\x00\x00\x00\x00\x00\x00\x00\x00'
p6209
tp6210
bsVc_obst7
p6211
g521
(g522
(I0
tp6212
g524
tp6213
Rp6214
(I1
(I4
tp6215
g531
I00
S"\xfe\x81=\xfa]F\x12@Rf\x922\x8f\r\xdc?e\xaa`TR'\xed?\xa1F+\x03Yi}?"
p6216
tp6217
bsVc_obst6
p6218
g521
(g522
(I0
tp6219
g524
tp6220
Rp6221
(I1
(I4
tp6222
g531
I00
S"\x00\x9b\x11\x01\x95\x83\x12@\xe8\xa7>?}-\xd2?e\xaa`TR'\xed?\xed\xedJ\xfa\x0b\x0c\x04@"
p6223
tp6224
bsVcup_b6af
p6225
g521
(g522
(I0
tp6226
g524
tp6227
Rp6228
(I1
(I4
tp6229
g531
I00
S'R\xb8\x1e\x85\xebQ\xe8?\x9a\x99\x99\x99\x99\x99\xe1?\x1b/\xdd$\x06\x81\xed?\x00\x00\x00\x00\x00\x00\x00\x00'
p6230
tp6231
bsVc_obst4
p6232
g521
(g522
(I0
tp6233
g524
tp6234
Rp6235
(I1
(I4
tp6236
g531
I00
S"n\x08(p\x9bi\x12@\xc0\x8f\x90\x84\x98\xd9\xc1?e\xaa`TR'\xed?\xae\x8f\xee\xf0\x1b\x97\x16@"
p6237
tp6238
bsVrectangular_packing_box2
p6239
g521
(g522
(I0
tp6240
g524
tp6241
Rp6242
(I1
(I4
tp6243
g531
I00
S'x#\x8a\xa8\xbfB\x02@]@\xdd\xaa0\xf7\x1a\xc0L7\x89A`\xe5\xd8?\xa2\x93\xe4\xf2\xe3\x8f\xe0?'
p6244
tp6245
bsVplate_fa76
p6246
g521
(g522
(I0
tp6247
g524
tp6248
Rp6249
(I1
(I4
tp6250
g531
I00
S'=\n\xd7\xa3p=\xf2?\x00\x00\x00\x00\x00\x00\x00\x00\x1b/\xdd$\x06\x81\xed?\x00\x00\x00\x00\x00\x00\x00\x00'
p6251
tp6252
bsVfloorwalls
p6253
g521
(g522
(I0
tp6254
g524
tp6255
Rp6256
(I1
(I4
tp6257
g531
I00
S'\xc7\xcc\xcc\xcc\xcc\xcc\xfc?\x00\x00\x00\x00\x00\x00\x18\xc0H\xe1z\x14\xaeG\xc1?\x16-DT\xfb!\xf9?'
p6258
tp6259
bsVpin_c671
p6260
g521
(g522
(I0
tp6261
g524
tp6262
Rp6263
(I1
(I4
tp6264
g531
I00
S'\xc3\xf5(\\\x8f\xc2\xf1\xbf}?5^\xbaI\x02@\xb8\x1e\x85\xebQ\xb8\xfa?\x00\x00\x00\x00\x00\x00\x00\x00'
p6265
tp6266
bsVc_obst3
p6267
g521
(g522
(I0
tp6268
g524
tp6269
Rp6270
(I1
(I4
tp6271
g531
I00
S"^\xdd\\<%\xa1\x12@\xac\x8b8\x90\xc6\xe6\xd8?e\xaa`TR'\xed?\x1c\x9e\xaarJ\xdd\x16@"
p6272
tp6273
bsVchair_2e39
p6274
g521
(g522
(I0
tp6275
g524
tp6276
Rp6277
(I1
(I4
tp6278
g531
I00
S'hfffff\xee?`fffff\xf2\xbf\x00\x00\x00\x00\x00\x00\x00\x00\x07M\xe8QQF\xf3?'
p6279
tp6280
bsVentrance_left
p6281
g521
(g522
(I0
tp6282
g524
tp6283
Rp6284
(I1
(I4
tp6285
g531
I00
S'\x98\x99\x99\x99\x99\x99\xe9\xbfH\xe1z\x14\xaeG\t\xc0\x9c\xc4 \xb0rh\xc1?\x00\x00\x00\x00\x00\x00\x00\x00'
p6286
tp6287
bsVtop_wall_1
p6288
g521
(g522
(I0
tp6289
g524
tp6290
Rp6291
(I1
(I4
tp6292
g531
I00
S'H\xe1z\x14\xaeG\x12@\x80\x14\xaeG\xe1z\xc4?xX\xa85\xcd\xbb\xf2?\x00\x00\x00\x00\x00\x00\x00\x00'
p6293
tp6294
bsVrectangular_packing_box3
p6295
g521
(g522
(I0
tp6296
g524
tp6297
Rp6298
(I1
(I4
tp6299
g531
I00
S',\xa3$/\t\xb1\xb0?p\xd9\xd7\x88y7\x1e\xc0L7\x89A`\xe5\xd8?\xa1\xa8\xa4gcb\x12@'
p6300
tp6301
bsVshaker
p6302
g521
(g522
(I0
tp6303
g524
tp6304
Rp6305
(I1
(I4
tp6306
g531
I00
S'\n\xd7\xa3p=\n\x01@\x14\xaeG\xe1z\x14\x02@\\\x8f\xc2\xf5(\\\xef?\x00\x00\x00\x00\x00\x00\x00\x00'
p6307
tp6308
bsVc_obst9
p6309
g521
(g522
(I0
tp6310
g524
tp6311
Rp6312
(I1
(I4
tp6313
g531
I00
S"\x91v\x82wVC\x12@0n\xad8\xc7F\xc2\xbfe\xaa`TR'\xed?\xd9R5=\xef\x80\x10@"
p6314
tp6315
bsVplate_835a
p6316
g521
(g522
(I0
tp6317
g524
tp6318
Rp6319
(I1
(I4
tp6320
g531
I00
S'\xf6(\\\x8f\xc2\xf5\xf0?\\\x8f\xc2\xf5(\\\xe7\xbf\x1b/\xdd$\x06\x81\xed?\x00\x00\x00\x00\x00\x00\x00\x00'
p6321
tp6322
bsVcup_58a2
p6323
g521
(g522
(I0
tp6324
g524
tp6325
Rp6326
(I1
(I4
tp6327
g531
I00
S'\x85\xebQ\xb8\x1e\x85\xe3?\xcd\xcc\xcc\xcc\xcc\xcc\xdc?\x1b/\xdd$\x06\x81\xed?\x00\x00\x00\x00\x00\x00\x00\x00'
p6328
tp6329
bsVleft_wall_1
p6330
g521
(g522
(I0
tp6331
g524
tp6332
Rp6333
(I1
(I4
tp6334
g531
I00
S'H\xe1z\x14\xaeG\x12@S\xb8\x1e\x85\xebQ\xe4?\xcc\x7fH\xbf}\x1d\xed?\x00\x00\x00\x00\x00\x00\x00\x00'
p6335
tp6336
bsVc_obst2
p6337
g521
(g522
(I0
tp6338
g524
tp6339
Rp6340
(I1
(I4
tp6341
g531
I00
S"\x01\xf9\xf8\xe06C\x12@\x02d\x9dS@k\xcc?e\xaa`TR'\xed?\x8e\xd1'\xc0\x08~\xfe?"
p6342
tp6343
bsVsquare_packing_box4
p6344
g521
(g522
(I0
tp6345
g524
tp6346
Rp6347
(I1
(I4
tp6348
g531
I00
S'X\xce\xcef\xfe\xbb\xf0?L@\xfc\xa1\x9e\xc0\x16\xc0L7\x89A`\xe5\xd8?\xaeKe\x14U\xf8\x13@'
p6349
tp6350
bsVrectangular_packing_box1
p6351
g521
(g522
(I0
tp6352
g524
tp6353
Rp6354
(I1
(I4
tp6355
g531
I00
S'\xf81, \xdaJ\xf5?\x90\x94\xc7_\x9e4\x18\xc0L7\x89A`\xe5\xd8?\x88,&\x8ck,\x0b@'
p6356
tp6357
bsVpin_371e
p6358
g521
(g522
(I0
tp6359
g524
tp6360
Rp6361
(I1
(I4
tp6362
g531
I00
S'333333\xf3\xbfffffff\xf6?\xb8\x1e\x85\xebQ\xb8\xee?\x00\x00\x00\x00\x00\x00\x00\x00'
p6363
tp6364
bsVfridge
p6365
g521
(g522
(I0
tp6366
g524
tp6367
Rp6368
(I1
(I4
tp6369
g531
I00
S'\xd7\xa3p=\n\xd7\xeb\xbf\x00\x00\x00\x00\x00\x00\x00\xc0\xcd\xcc\xcc\xcc\xcc\xcc\xf8?\x00\x00\x00\x00\x00\x00\x00\x00'
p6370
tp6371
bsVcup_d441
p6372
g521
(g522
(I0
tp6373
g524
tp6374
Rp6375
(I1
(I4
tp6376
g531
I00
S'\n\xd7\xa3p=\n\xef?\x8f\xc2\xf5(\\\x8f\xe2?\x1b/\xdd$\x06\x81\xed?\x00\x00\x00\x00\x00\x00\x00\x00'
p6377
tp6378
bsVshelf2
p6379
g521
(g522
(I0
tp6380
g524
tp6381
Rp6382
(I1
(I4
tp6383
g531
I00
S'\x00\x00\x00\x00\x00\x00\x0e@\xaeG\xe1z\x14\xae\x07@\x9c\xc4 \xb0rh\xc1?\xd2!3\x7f|\xd9\x12@'
p6384
tp6385
bsVtop_wall_2
p6386
g521
(g522
(I0
tp6387
g524
tp6388
Rp6389
(I1
(I4
tp6390
g531
I00
S'H\xe1z\x14\xaeG\x12@\x80\x14\xaeG\xe1z\xc4?\x16HP\xfc\x18\xf3\xfd?\x00\x00\x00\x00\x00\x00\x00\x00'
p6391
tp6392
bsVc_obst0
p6393
g521
(g522
(I0
tp6394
g524
tp6395
Rp6396
(I1
(I4
tp6397
g531
I00
S"\xb8\x088t\x9c7\x12@\xbeE\xf1\x14\xed\x8f\x96\xbfe\xaa`TR'\xed?\xadtI0\xaa\x0c\x13@"
p6398
tp6399
bsVshelf1
p6400
g521
(g522
(I0
tp6401
g524
tp6402
Rp6403
(I1
(I4
tp6404
g531
I00
S'\x00\x00\x00\x00\x00\x00\x13@\xaeG\xe1z\x14\xae\x07@\x9c\xc4 \xb0rh\xc1?\xd2!3\x7f|\xd9\x12@'
p6405
tp6406
bsVsink
p6407
g521
(g522
(I0
tp6408
g524
tp6409
Rp6410
(I1
(I4
tp6411
g531
I00
S'ffffff\xd6?333333\x01@\x9a\x99\x99\x99\x99\x99\xb9\xbf\x00\x00\x00\x00\x00\x00\x00\x00'
p6412
tp6413
bsVpr2
p6414
g521
(g522
(I0
tp6415
g524
tp6416
Rp6417
(I1
(I4
tp6418
g531
I00
S'fR\xdd8\xd6\x8d\x00@\xbfC|\xd2X\x00\x16\xc0\x9a_\x94\xa0\xbf\xd0\xc1?\xc1\xab\x9e\x0b\x900\xd2?'
p6419
tp6420
bsVchair_12d0
p6421
g521
(g522
(I0
tp6422
g524
tp6423
Rp6424
(I1
(I4
tp6425
g531
I00
S'^\xd2\x18\xad\xa3\xaa\xdb?Pf\x83L2r\xc6?\x00\x00\x00\x00\x00\x00\x00\x00\xf8\x81\r\x14M\xa6\x17@'
p6426
tp6427
bsVright_wall_2
p6428
g521
(g522
(I0
tp6429
g524
tp6430
Rp6431
(I1
(I4
tp6432
g531
I00
S'H\xe1z\x14\xaeG\x12@&\\\x8f\xc2\xf5(\xd4\xbfxX\xa85\xcd\xbb\xf2?\x00\x00\x00\x00\x00\x00\x00\x00'
p6433
tp6434
bsVknife_block
p6435
g521
(g522
(I0
tp6436
g524
tp6437
Rp6438
(I1
(I4
tp6439
g531
I00
S'R\xb8\x1e\x85\xebQ\xe0\xbfffffff\x02@`\xe5\xd0"\xdb\xf9\xee?\x00\x00\x00\x00\x00\x00\x00\x00'
p6440
tp6441
bsVleft_wall_2
p6442
g521
(g522
(I0
tp6443
g524
tp6444
Rp6445
(I1
(I4
tp6446
g531
I00
S'H\xe1z\x14\xaeG\x12@S\xb8\x1e\x85\xebQ\xe4?xX\xa85\xcd\xbb\xf2?\x00\x00\x00\x00\x00\x00\x00\x00'
p6447
tp6448
bsVleft_wall
p6449
g521
(g522
(I0
tp6450
g524
tp6451
Rp6452
(I1
(I4
tp6453
g531
I00
S'\x9a\x99\x99\x99\x99\x99\x07@H\xe1z\x14\xaeG\xff?\x9c\xc4 \xb0rh\xc1?\x00\x00\x00\x00\x00\x00\x00\x00'
p6454
tp6455
bsVkitchen
p6456
g521
(g522
(I0
tp6457
g524
tp6458
Rp6459
(I1
(I4
tp6460
g531
I00
S'\x00\x00\x00\x00\x00\x00\x00\x00\x00\x00\x00\x00\x00\x00\x00\x00\x00\x00\x00\x00\x00\x00\x00\x00\x00\x00\x00\x00\x00\x00\x00\x00'
p6461
tp6462
bsVtable2
p6463
g521
(g522
(I0
tp6464
g524
tp6465
Rp6466
(I1
(I4
tp6467
g531
I00
S'\x00\x00\x00\x00\x00\x00\x13@\x80\x14\xaeG\xe1z\xc4?S\x96!\x8euq\xec?\xd2!3\x7f|\xd9\x12@'
p6468
tp6469
bsVc_obst8
p6470
g521
(g522
(I0
tp6471
g524
tp6472
Rp6473
(I1
(I4
tp6474
g531
I00
S"\xa2\x86\xba\xbe\x0e\xfe\x11@\x1c\x88\xaeAcX\xc9?e\xaa`TR'\xed?\xe7\xc6R\xf7\xd5q\x17@"
p6475
tp6476
bsVplate_b4e7
p6477
g521
(g522
(I0
tp6478
g524
tp6479
Rp6480
(I1
(I4
tp6481
g531
I00
S'\x14\xaeG\xe1z\x14\xf2\xbf\x14\xaeG\xe1z\x14\x00@=\n\xd7\xa3p=\xf2?\x00\x00\x00\x00\x00\x00\x00\x00'
p6482
tp6483
bsVcooker
p6484
g521
(g522
(I0
tp6485
g524
tp6486
Rp6487
(I1
(I4
tp6488
g531
I00
S'\xaeG\xe1z\x14\xae\xff?\x85\xebQ\xb8\x1e\x85\xfb?\x00\x00\x00\x00\x00\x00\xe8?\x00\x00\x00\x00\x00\x00\x00\x00'
p6489
tp6490
bsVpin_a091
p6491
g521
(g522
(I0
tp6492
g524
tp6493
Rp6494
(I1
(I4
tp6495
g531
I00
S'\xdb\xf9~j\xbct\xf7\xbf)\\\x8f\xc2\xf5(\x02@\xb8\x1e\x85\xebQ\xb8\xfa?\x00\x00\x00\x00\x00\x00\x00\x00'
p6496
tp6497
bsVside_wall_2
p6498
g521
(g522
(I0
tp6499
g524
tp6500
Rp6501
(I1
(I4
tp6502
g531
I00
S'\xf6\xff\xff\xff\xff\xff\x14@\x00\x00\x00\x00\x00\x00\x00\x00\x9c\xc4 \xb0rh\xc1?\x18-DT\xfb!\xf9?'
p6503
tp6504
bsVside_wall_3
p6505
g521
(g522
(I0
tp6506
g524
tp6507
Rp6508
(I1
(I4
tp6509
g531
I00
S'\x00\x00\x00\x00\x00\x00\xfc?H\xe1z\x14\xaeG\t@\x9c\xc4 \xb0rh\xc1?\x00\x00\x00\x00\x00\x00\x00\x00'
p6510
tp6511
bsVmixer
p6512
g521
(g522
(I0
tp6513
g524
tp6514
Rp6515
(I1
(I4
tp6516
g531
I00
S'\n\xd7\xa3p=\n\xfb?ffffff\x02@d;\xdfO\x8d\x97\xee?\x00\x00\x00\x00\x00\x00\x00\x00'
p6517
tp6518
bsVside_wall_1
p6519
g521
(g522
(I0
tp6520
g524
tp6521
Rp6522
(I1
(I4
tp6523
g531
I00
S'\xec\xff\xff\xff\xff\xff\xfb\xbf\x00\x00\x00\x00\x00\x00\x00\x00\x9c\xc4 \xb0rh\xc1?\x18-DT\xfb!\xf9?'
p6524
tp6525
bsVbottom_wall_1
p6526
g521
(g522
(I0
tp6527
g524
tp6528
Rp6529
(I1
(I4
tp6530
g531
I00
S'H\xe1z\x14\xaeG\x12@\x80\x14\xaeG\xe1z\xc4?\xcc\x7fH\xbf}\x1d\xed?\x00\x00\x00\x00\x00\x00\x00\x00'
p6531
tp6532
bsVcan
p6533
g521
(g522
(I0
tp6534
g524
tp6535
Rp6536
(I1
(I4
tp6537
g531
I00
S'\x00\x00\x00\x00\x00\x00\xf4\xbfH\xe1z\x14\xaeG\xe1\xbf\n\xd7\xa3p=\n\xef?\x00\x00\x00\x00\x00\x00\x00\x00'
p6538
tp6539
bsVright_wall
p6540
g521
(g522
(I0
tp6541
g524
tp6542
Rp6543
(I1
(I4
tp6544
g531
I00
S'\x9a\x99\x99\x99\x99\x99\x07@H\xe1z\x14\xaeG\xff\xbf\x9c\xc4 \xb0rh\xc1?\x00\x00\x00\x00\x00\x00\x00\x00'
p6545
tp6546
bsVcoffe_machine
p6547
g521
(g522
(I0
tp6548
g524
tp6549
Rp6550
(I1
(I4
tp6551
g531
I00
S'\\\x8f\xc2\xf5(\\\xf5\xbf\xb8\x1e\x85\xebQ\xb8\xee?\n\xd7\xa3p=\n\xef?\x00\x00\x00\x00\x00\x00\x00\x00'
p6552
tp6553
bsVcomputer_chair
p6554
g521
(g522
(I0
tp6555
g524
tp6556
Rp6557
(I1
(I4
tp6558
g531
I00
S'\xcd\xcc\xcc\xcc\xcc\xcc\x10@\x00\x00\x00\x00\x00\x00\xf8\xbf\xa00\xb6\x10\xe4\xa9\x95\xbf\x00\x00\x00\x00\x00\x00\x00\x00'
p6559
tp6560
bssg1980
g521
(g522
(I0
tp6561
g524
tp6562
Rp6563
(I1
(I39
tp6564
g531
I00
S'\x00\x00\x00\x00\x00\x00\x00\x00\x00\x00\x00\x00\x00\x00\x00\x00\x00\x00\x00\x00\x00\x00\x00\x00\x00\x00\x00\x00\x00\x00\x00\x00\x00\x00\x00\x00\x00\x00\x00\x00\x00\x00\x00\x00\x00\x00\x00\x00\x00\x00\x00\x00\x00\x00\x00\x00\x00\x00\x00\x00\x00\x00\x00\x00\x00\x00\x00\x00\x00\x00\x00\x00\x00\x00\x00\x00\x00\x00\x00\x00\x00\x00\x00\x00\x00\x00\x00\x00\x00\x00\x00\x00\x00\x00\x00\x00@d;\xdfO\x8d\x87?\x00\x00\x00\x00\x00\x00\x00\x00\x00\x00\x00\x00\x00\x00\x00\x00\x00\x00\x00\x00\x00\x00\x00\x00\xec\xed\t\xf1\xcc\xa4\xf4?\x00\x00\x00\x00\x00\x00\xc0\xbcN"\xd0^p\xf8\x00\xc0\x00\x00\x00\x00\x00\x00\x00\x00\x9d\x03\r.\x04V\xe6\xbf\x00\x00\x00\x00\x00\x00\x00\x00\x00\x00\x00\x00\x00\x00\x00\x00\x00\x00\x00\x00\x00\x00\xb6\xbc\x00\x00\x00\x00\x00\x00\x00\x00\x00\x00\x00\x00\x00\x00\xd0\xbc\x00\x00\x00\x00\x00\x00\x00\x00\x00\x00\x00\x00\x00\x00\x00\x00\xec\xed\t\xf1\xcc\xa4\xf4?\x00\x00\x00\x00\x00\x00\xc0\xbcN"\xd0^p\xf8\x00\xc0\x00\x00\x00\x00\x00\x00\x00\x00\xa3\x03\r.\x04V\xe6\xbf\x00\x00\x00\x00\x00\x00\x00\x00\xce9\xe3\xc17\x89\xe1?\x00\x00\x00\x00\x00\x00\xb6\xbc\x00\x00\x00\x00\x00\x00\x00\x00\x00\x00\x00\x00\x00\x00\xe0<\x00\x00\x00\x00\x00\x00\x00\x00'
p6565
tp6566
bsg1987
I00
sbsg1988
(dp6567
(Vsquare_packing_box4
p6568
(g1386
(g531
S'\x90\xc0\x1f~\xfe\xbb\xf0?'
p6569
tp6570
Rp6571
g1386
(g531
S'8\xdb\xdc\x98\x9e\xc0\x16\xc0'
p6572
tp6573
Rp6574
g1386
(g531
S'\xda\x8c\xd3\x10U\xf8\x13@'
p6575
tp6576
Rp6577
tp6578
tp6579
g969
s(Vrectangular_packing_box2
p6580
(g1386
(g531
S'\xce\xe30\x98\xbfB\x02@'
p6581
tp6582
Rp6583
g1386
(g531
S'\xf9hq\xc60\xf7\x1a\xc0'
p6584
tp6585
Rp6586
g1386
(g531
S'V\xbc\x91y\xe4\x8f\xe0?'
p6587
tp6588
Rp6589
tp6590
tp6591
g945
s(Vrectangular_packing_box3
p6592
(g1386
(g531
S'{\x9f\xaaB\x03\xb1\xb0?'
p6593
tp6594
Rp6595
g1386
(g531
S'\x0f\x0b\xb5\xa6y7\x1e\xc0'
p6596
tp6597
Rp6598
g1386
(g531
S'\xe5\xef\xdeQcb\x12@'
p6599
tp6600
Rp6601
tp6602
tp6603
g949
s(Vrectangular_packing_box4
p6604
(g1386
(g531
S'}\xec.PR`\xd2?'
p6605
tp6606
Rp6607
g1386
(g531
S'\x8fT\xdf\xf9Ei\x18\xc0'
p6608
tp6609
Rp6610
g1386
(g531
S'\xe8\xf9\xd3Fu:\xe4?'
p6611
tp6612
Rp6613
tp6614
tp6615
g941
s(Vsquare_packing_box2
p6616
(g1386
(g531
S'6\x90.6\xad\xb4\r@'
p6617
tp6618
Rp6619
g1386
(g531
S'7\xc3\r\xf8\xfc\xf0\x16\xc0'
p6620
tp6621
Rp6622
g1386
(g531
S'\xe9\x9d\n\xb8\xe7\t\x19@'
p6623
tp6624
Rp6625
tp6626
tp6627
g5442
s(Vsquare_packing_box3
p6628
(g1386
(g531
S'\xc7\xbc\x8e8d\xa3\n@'
p6629
tp6630
Rp6631
g1386
(g531
S'\xb8\xca\x13\x08;\x05\x1e\xc0'
p6632
tp6633
Rp6634
g1386
(g531
S'\xde\xc9\xa7\xc7\xb6\xac\x0f@'
p6635
tp6636
Rp6637
tp6638
tp6639
g961
s(Vsquare_packing_box1
p6640
(g1386
(g531
S'N\xb4\xab\x90\xf23\x0c@'
p6641
tp6642
Rp6643
g1386
(g531
S'Q\xf5+\x9d\x0f?\x15\xc0'
p6644
tp6645
Rp6646
g1386
(g531
S'\xe2\x1f\xb6\xf4h\n\x13@'
p6647
tp6648
Rp6649
tp6650
tp6651
g965
s(Vrectangular_packing_box1
p6652
(g1386
(g531
S'\xa8\xdf\x85\xad\xd9J\xf5?'
p6653
tp6654
Rp6655
g1386
(g531
S'\x14\x05\xfaD\x9e4\x18\xc0'
p6656
tp6657
Rp6658
g1386
(g531
S'\xb13\x85\xcek,\x0b@'
p6659
tp6660
Rp6661
tp6662
tp6663
g953
ssg2086
(dp6664
sg2288
(dp6665
(g5377
g15
tp6666
(lp6667
g521
(g522
(I0
tp6668
g524
tp6669
Rp6670
(I1
(I3
tp6671
g531
I00
S'[\xca\xc0\xcf\xd9[\xf0?\xff/#\xddH6\x15\xc0F\xa4\xd4\xc0\xcb\x98\x14@'
p6672
tp6673
bas(g5424
g11
tp6674
(lp6675
g521
(g522
(I0
tp6676
g524
tp6677
Rp6678
(I1
(I3
tp6679
g531
I00
S'\xc0\xdc\xa0]\xb4\xb3\xed?c\xb9\xcf\x1f\xa8Q\x13\xc0:\x0eA\xb8^ \x13@'
p6680
tp6681
bag521
(g522
(I0
tp6682
g524
tp6683
Rp6684
(I1
(I3
tp6685
g563
I00
S"\xaeJ\xbd\x1936\xec?\x04\x13\xd4'\x9f\x88\x10\xc0\x805qo\xb6\xe6\xff\xbf"
p6686
tp6687
bag521
(g522
(I0
tp6688
g524
tp6689
Rp6690
(I1
(I3
tp6691
g563
I00
S'\xf09\xb6\x1c*\x86\xee?\xc4\n/\x96\xcb\xe3\n\xc0\xa0\xc9\xd6F6\x0f\x00\xc0'
p6692
tp6693
bag521
(g522
(I0
tp6694
g524
tp6695
Rp6696
(I1
(I3
tp6697
g563
I00
S'\xf4\xfdJ\x1a(#\xec?H"\x9cD\x1aE\x05\xc0.\xa9\x0b\x87\xf8\xe1\x02@'
p6698
tp6699
bas(g5374
g11
tp6700
(lp6701
g521
(g522
(I0
tp6702
g524
tp6703
Rp6704
(I1
(I3
tp6705
g531
I00
S' \xef\xbc7\x1c\xc9\xc2\xbf\x06{?`*X\x16\xc0\xc3\xcf\x15Rt\xb2\x14@'
p6706
tp6707
bag521
(g522
(I0
tp6708
g524
tp6709
Rp6710
(I1
(I3
tp6711
g563
I00
S'\xff\x1dX8\xbe\xd2\xc9?\x91h\xd1{\x1e(\x16\xc0\xee\xfeSI\xc3\xd4\x03\xc0'
p6712
tp6713
bag521
(g522
(I0
tp6714
g524
tp6715
Rp6716
(I1
(I3
tp6717
g563
I00
S'\xcc\x87!\x1f\xfb\x05\xe6?\x14;\x08\xf1<\xc6\x13\xc0V!\xac1j\x94\xc8?'
p6718
tp6719
bag521
(g522
(I0
tp6720
g524
tp6721
Rp6722
(I1
(I3
tp6723
g563
I00
S'`\xc8Aw-\x81\xeb?/\xc3\xe6O\x04\xca\x10\xc0\x8a\xb7K)\x91{\xe4\xbf'
p6724
tp6725
bag521
(g522
(I0
tp6726
g524
tp6727
Rp6728
(I1
(I3
tp6729
g563
I00
S'\xe1\xc6\xc7\xa7\x12X\xe7?\x98\x99\xb0\x9a\xfb\xdb\x0b\xc0R\t\x1b)\xeae\xe0\xbf'
p6730
tp6731
bag521
(g522
(I0
tp6732
g524
tp6733
Rp6734
(I1
(I3
tp6735
g563
I00
S'p\xf1\xbdc^\x84\xf1?"\x88LL\xf9D\x06\xc0~w\r\xe9m\x0f\x19@'
p6736
tp6737
bas(g5422
g15
tp6738
(lp6739
g521
(g522
(I0
tp6740
g524
tp6741
Rp6742
(I1
(I3
tp6743
g531
I00
S'b\xc8\xacwl\xa9\x05@\x8fL\xa6~\x15\xe6\x1c\xc0<\xd4\xf5\xbd\xf4\xd8\x15@'
p6744
tp6745
bas(g5374
g15
tp6746
(lp6747
g521
(g522
(I0
tp6748
g524
tp6749
Rp6750
(I1
(I3
tp6751
g531
I00
S'\xcd\xee\xbc7\x1c\xc9\xc2\xbf\x08{?`*X\x16\xc0\xc3\xcf\x15Rt\xb2\x14@'
p6752
tp6753
bas(g5422
g11
tp6754
(lp6755
g521
(g522
(I0
tp6756
g524
tp6757
Rp6758
(I1
(I3
tp6759
g531
I00
S'e\xc8\xacwl\xa9\x05@\x8fL\xa6~\x15\xe6\x1c\xc0<\xd4\xf5\xbd\xf4\xd8\x15@'
p6760
tp6761
bag521
(g522
(I0
tp6762
g524
tp6763
Rp6764
(I1
(I3
tp6765
g563
I00
S';\x8f\xd5Y\xee\xd5\x01@\x96Vuf4l\x1f\xc0\x08\xe6\xe9\x98\x9f0\xf6\xbf'
p6766
tp6767
bag521
(g522
(I0
tp6768
g524
tp6769
Rp6770
(I1
(I3
tp6771
g563
I00
S'\x06\xbc\xc2\x02\xe5\t\xfa?\x13\x91\xe2\xd9\xb5B\x1e\xc0\xce\xd4\xdb\xc4\xdf\xb1\xf6\xbf'
p6772
tp6773
bag521
(g522
(I0
tp6774
g524
tp6775
Rp6776
(I1
(I3
tp6777
g563
I00
S'\xba)c\x05l\x93\xf4?\x8f\x0f\xa1<\xee\x05\x1c\xc0\xf9-\x16\x17\xc6`\xf8\xbf'
p6778
tp6779
bag521
(g522
(I0
tp6780
g524
tp6781
Rp6782
(I1
(I3
tp6783
g563
I00
S'\xb0\xcfg\xd5._\xe8?\xd6\x8d\xba\x87\x91D\x1a\xc0\xea!\xf73\x0cB\xf7\xbf'
p6784
tp6785
bag521
(g522
(I0
tp6786
g524
tp6787
Rp6788
(I1
(I3
tp6789
g563
I00
S'\xb0\x11@i\x1f\x12\xb4?\x01\xb6C\x19\x0b\x9d\x1a\xc0\xda \xc5\xc8m8\xeb?'
p6790
tp6791
bag521
(g522
(I0
tp6792
g524
tp6793
Rp6794
(I1
(I3
tp6795
g563
I00
S'Dz\xddx\xe9\xf0\xb4?\x9c\xf2\xf6\xf0\xef \x18\xc0\x03\xe5\x88\xf0JN\xf3?'
p6796
tp6797
bag521
(g522
(I0
tp6798
g524
tp6799
Rp6800
(I1
(I3
tp6801
g563
I00
S'\xe4\x02R\xd9\x08\x8c\xc7?2\xc1\xd4;\xf6\xf3\x15\xc0>\x8c\x8fa?0\xd8?'
p6802
tp6803
bag521
(g522
(I0
tp6804
g524
tp6805
Rp6806
(I1
(I3
tp6807
g563
I00
S'\xcc\x87!\x1f\xfb\x05\xe6?\x14;\x08\xf1<\xc6\x13\xc0V!\xac1j\x94\xc8?'
p6808
tp6809
bag521
(g522
(I0
tp6810
g524
tp6811
Rp6812
(I1
(I3
tp6813
g563
I00
S'`\xc8Aw-\x81\xeb?/\xc3\xe6O\x04\xca\x10\xc0\x8a\xb7K)\x91{\xe4\xbf'
p6814
tp6815
bag521
(g522
(I0
tp6816
g524
tp6817
Rp6818
(I1
(I3
tp6819
g563
I00
S'\xe1\xc6\xc7\xa7\x12X\xe7?\x98\x99\xb0\x9a\xfb\xdb\x0b\xc0R\t\x1b)\xeae\xe0\xbf'
p6820
tp6821
bag521
(g522
(I0
tp6822
g524
tp6823
Rp6824
(I1
(I3
tp6825
g563
I00
S'p\xf1\xbdc^\x84\xf1?"\x88LL\xf9D\x06\xc0~w\r\xe9m\x0f\x19@'
p6826
tp6827
bas(g5378
g15
tp6828
(lp6829
g521
(g522
(I0
tp6830
g524
tp6831
Rp6832
(I1
(I3
tp6833
g531
I00
S'\xd4\xf2\xfc\xf7\x04\xce\x07@\xc6Ffi\xc6\xf0\x16\xc0;\xd1\xa5\x9d %\x17@'
p6834
tp6835
bas(g5378
g11
tp6836
g5713
s(g5423
g11
tp6837
g5519
s(g5376
g11
tp6838
g5625
s(g5376
g15
tp6839
(lp6840
g521
(g522
(I0
tp6841
g524
tp6842
Rp6843
(I1
(I3
tp6844
g531
I00
S'\xe2\xfb\xaaE\x8f\xc1\xe5?\xb2\xa6\xc5gY\x12\x1f\xc0])%M\x96\x93\x08@'
p6845
tp6846
bas(g5424
g15
tp6847
(lp6848
g521
(g522
(I0
tp6849
g524
tp6850
Rp6851
(I1
(I3
tp6852
g531
I00
S'\xc8\xdc\xa0]\xb4\xb3\xed?b\xb9\xcf\x1f\xa8Q\x13\xc0:\x0eA\xb8^ \x13@'
p6853
tp6854
bas(g5423
g15
tp6855
(lp6856
g521
(g522
(I0
tp6857
g524
tp6858
Rp6859
(I1
(I3
tp6860
g531
I00
S'\xbe\x9ct\x99Y\x93\x0e@\xa3\x82\x19\x7fa\xb4\x17\xc0\x0b\x07\x97\xeb\xfc\n\x00@'
p6861
tp6862
bas(g5375
g15
tp6863
(lp6864
g521
(g522
(I0
tp6865
g524
tp6866
Rp6867
(I1
(I3
tp6868
g531
I00
S'\x92\x07\xbd)b\xbe\xfb?\n\x85t\x92\x153\x18\xc0\xb00\xe9\xb77m\x17@'
p6869
tp6870
bas(g5375
g11
tp6871
g5581
s(g5377
g11
tp6872
g5681
ssg2497
(dp6873
sg2707
(dp6874
g18
(lp6875
I0
aI0
aI0
aI0
aI0
aI0
aI00
aI01
aI00
aI01
aI00
asg15
(lp6876
I0
aI0
aI0
aI0
aI0
aI0
aI00
aI01
aI00
aI01
aI00
asg11
(lp6877
I0
aI0
aI0
aI0
aI0
aI0
aI00
aI01
aI01
aI01
aI00
asg33
(lp6878
I0
aI0
aI0
ag1386
(g531
S'\\\x1e]pS`\xd2?'
p6879
tp6880
Rp6881
ag1386
(g531
S'\xf8\x1a\xb6\xe9Ei\x18\xc0'
p6882
tp6883
Rp6884
ag1386
(g531
S'\x82\x97\xe8\xa1t:\xe4?'
p6885
tp6886
Rp6887
aI01
aI00
aI00
aI00
aI00
asg10
(lp6888
I0
aI0
aI0
ag1386
(g531
S'x#\x8a\xa8\xbfB\x02@'
p6889
tp6890
Rp6891
ag1386
(g531
S'T@\xdd\xaa0\xf7\x1a\xc0'
p6892
tp6893
Rp6894
ag1386
(g531
S'\x9a\x93\xe4\xf2\xe3\x8f\xe0?'
p6895
tp6896
Rp6897
aI01
aI00
aI00
aI01
aI00
asg30
(lp6898
I0
aI0
aI0
ag1386
(g531
S'h;$/\t\xb1\xb0?'
p6899
tp6900
Rp6901
ag1386
(g531
S'\xd6\xd8\xd7\x88y7\x1e\xc0'
p6902
tp6903
Rp6904
ag1386
(g531
S'\xa1\xa8\xa4gcb\x12@'
p6905
tp6906
Rp6907
aI01
aI00
aI00
aI00
aI00
asg19
(lp6908
I0
aI0
aI0
ag1386
(g531
S'\x991, \xdaJ\xf5?'
p6909
tp6910
Rp6911
ag1386
(g531
S'5\x94\xc7_\x9e4\x18\xc0'
p6912
tp6913
Rp6914
ag1386
(g531
S'\x88,&\x8ck,\x0b@'
p6915
tp6916
Rp6917
aI01
aI00
aI00
aI00
aI00
asg22
(lp6918
I0
aI0
aI0
ag1386
(g531
S'\xb8\x99\x7f<\xad\xb4\r@'
p6919
tp6920
Rp6921
ag1386
(g531
S'\xde\xe5\x95\xe8\xfc\xf0\x16\xc0'
p6922
tp6923
Rp6924
ag1386
(g531
S'Y\x96n\x9e\xe7\t\x19@'
p6925
tp6926
Rp6927
aI01
aI00
aI00
aI01
aI00
asg46
(lp6928
I0
aI0
aI0
ag1386
(g531
S'1\xc6\x84Ad\xa3\n@'
p6929
tp6930
Rp6931
ag1386
(g531
S'\x98\xae\xb2\x18;\x05\x1e\xc0'
p6932
tp6933
Rp6934
ag1386
(g531
S'j8\xf9\x85\xb6\xac\x0f@'
p6935
tp6936
Rp6937
aI01
aI00
aI00
aI01
aI00
asg14
(lp6938
I0
aI0
aI0
ag1386
(g531
S'\xc6\xcf\x19\xc3\xf23\x0c@'
p6939
tp6940
Rp6941
ag1386
(g531
S'\xd4\xb5r\xad\x0f?\x15\xc0'
p6942
tp6943
Rp6944
ag1386
(g531
S'\xbf~a\xe9h\n\x13@'
p6945
tp6946
Rp6947
aI01
aI00
aI01
aI01
aI00
asg23
(lp6948
I0
aI0
aI0
ag1386
(g531
S'\xcc\xcd\xcef\xfe\xbb\xf0?'
p6949
tp6950
Rp6951
ag1386
(g531
S'\xe6?\xfc\xa1\x9e\xc0\x16\xc0'
p6952
tp6953
Rp6954
ag1386
(g531
S'\xacKe\x14U\xf8\x13@'
p6955
tp6956
Rp6957
aI01
aI00
aI00
aI00
aI00
assg2792
(dp6958
sg2794
NsS'goal_entities'
p6959
(lp6960
Vsquare_packing_box1
p6961
ag11
asS'binary_edges'
p6962
(dp6963
(g22
g23
tp6964
(lp6965
I00
aI00
aI00
as(g22
g33
tp6966
(lp6967
I00
aI00
aI00
as(g30
g46
tp6968
g4799
s(g30
g30
tp6969
g4801
s(g10
g46
tp6970
g4803
s(g10
g30
tp6971
g4869
s(g23
g10
tp6972
g4807
s(g22
g14
tp6973
(lp6974
I00
aI00
aI00
as(g19
g30
tp6975
g4809
s(g33
g33
tp6976
g4811
s(g10
g15
tp6977
g4813
s(g18
g15
tp6978
g4829
s(g33
g23
tp6979
g4815
s(g15
g23
tp6980
g4941
s(g14
g11
tp6981
g4817
s(g18
g10
tp6982
g4979
s(g10
g23
tp6983
g4821
s(g30
g18
tp6984
g4823
s(g22
g22
tp6985
(lp6986
I00
aI00
aI00
as(g15
g22
tp6987
(lp6988
I00
aI00
aI00
as(g46
g10
tp6989
g4825
s(g10
g11
tp6990
g4827
s(g19
g46
tp6991
g4927
s(g33
g19
tp6992
g4831
s(g14
g14
tp6993
g4833
s(g10
g18
tp6994
g4835
s(g15
g10
tp6995
g4913
s(g15
g46
tp6996
g4839
s(g15
g30
tp6997
g4841
s(g46
g11
tp6998
g4843
s(g23
g33
tp6999
g4845
s(g19
g33
tp7000
g4847
s(g46
g19
tp7001
g4849
s(g15
g33
tp7002
g4819
s(g18
g11
tp7003
g4851
s(g14
g10
tp7004
g4853
s(g33
g46
tp7005
g4855
s(g18
g46
tp7006
g4857
s(g46
g18
tp7007
g4859
s(g30
g22
tp7008
(lp7009
I00
aI00
aI00
as(g23
g14
tp7010
g4861
s(g30
g10
tp7011
g4863
s(g23
g11
tp7012
g4865
s(g18
g18
tp7013
g4867
s(g46
g33
tp7014
g4871
s(g14
g22
tp7015
(lp7016
I00
aI00
aI00
as(g11
g14
tp7017
g4875
s(g19
g15
tp7018
g4877
s(g11
g19
tp7019
g4879
s(g23
g30
tp7020
g4881
s(g30
g14
tp7021
g4883
s(g46
g15
tp7022
g4885
s(g30
g19
tp7023
g4887
s(g46
g46
tp7024
g4889
s(g19
g10
tp7025
g4891
s(g15
g11
tp7026
g4893
s(g11
g22
tp7027
(lp7028
I00
aI00
aI00
as(g33
g11
tp7029
g4895
s(g18
g19
tp7030
g4897
s(g11
g23
tp7031
g4899
s(g30
g23
tp7032
g4901
s(g19
g18
tp7033
g4903
s(g23
g15
tp7034
g4905
s(g19
g22
tp7035
(lp7036
I00
aI00
aI00
as(g33
g10
tp7037
g4907
s(g33
g15
tp7038
g4909
s(g11
g30
tp7039
g4953
s(g18
g23
tp7040
g4911
s(g18
g33
tp7041
g4837
s(g19
g11
tp7042
g4915
s(g22
g19
tp7043
(lp7044
I00
aI00
aI00
as(g14
g19
tp7045
g4917
s(g11
g46
tp7046
g4951
s(g15
g15
tp7047
g4919
s(g22
g30
tp7048
(lp7049
I00
aI00
aI00
as(g14
g46
tp7050
g4921
s(g15
g14
tp7051
g4923
s(g10
g33
tp7052
g4925
s(g15
g19
tp7053
g4929
s(g14
g18
tp7054
g4931
s(g22
g10
tp7055
(lp7056
I00
aI00
aI00
as(g30
g11
tp7057
g4957
s(g14
g33
tp7058
g4935
s(g33
g14
tp7059
g4937
s(g10
g14
tp7060
g4939
s(g18
g22
tp7061
(lp7062
I00
aI00
aI00
as(g10
g19
tp7063
g4943
s(g46
g22
tp7064
(lp7065
I00
aI00
aI00
as(g22
g15
tp7066
(lp7067
g2522
aI00
aI01
as(g19
g19
tp7068
g4945
s(g23
g22
tp7069
(lp7070
I00
aI00
aI00
as(g14
g23
tp7071
g4949
s(g10
g22
tp7072
(lp7073
I00
aI00
aI00
as(g10
g10
tp7074
g4933
s(g23
g19
tp7075
g4955
s(g22
g11
tp7076
(lp7077
I00
aI00
aI00
as(g46
g14
tp7078
g4947
s(g30
g15
tp7079
g4959
s(g11
g10
tp7080
g4805
s(g19
g14
tp7081
g4961
s(g33
g30
tp7082
g4963
s(g11
g15
tp7083
g4965
s(g22
g46
tp7084
(lp7085
I00
aI00
aI00
as(g18
g30
tp7086
g4967
s(g22
g18
tp7087
(lp7088
g2522
aI00
aI00
as(g46
g30
tp7089
g4969
s(g11
g11
tp7090
g4971
s(g19
g23
tp7091
g4973
s(g33
g18
tp7092
g4975
s(g23
g18
tp7093
g4977
s(g11
g18
tp7094
g4873
s(g11
g33
tp7095
g4981
s(g46
g23
tp7096
g4983
s(g23
g46
tp7097
g4985
s(g30
g33
tp7098
g4987
s(g15
g18
tp7099
g4989
s(g14
g30
tp7100
g4991
s(g33
g22
tp7101
(lp7102
I00
aI00
aI00
as(g23
g23
tp7103
g4993
s(g14
g15
tp7104
g4995
s(g18
g14
tp7105
g4997
ssg1322
g5792
sS'pick_in_way'
p7106
(itrajectory_representation.predicates.pick_in_way
PickInWay
p7107
(dp7108
g1044
(dp7109
g33
g5845
sg10
g5864
sg30
g5883
sg19
g5902
sg22
g5403
sg46
g5921
sg14
g5946
sg23
g5953
ssg1296
(dp7110
g33
(lp7111
Vrectangular_packing_box1
p7112
aVsquare_packing_box4
p7113
asg10
(lp7114
sg30
(lp7115
Vrectangular_packing_box1
p7116
aVsquare_packing_box4
p7117
asg19
(lp7118
Vrectangular_packing_box1
p7119
aVrectangular_packing_box2
p7120
asg22
(lp7121
sg46
(lp7122
sg14
(lp7123
sg23
(lp7124
Vrectangular_packing_box1
p7125
aVsquare_packing_box4
p7126
assg1322
(lp7127
g22
ag10
ag46
ag18
ag11
ag15
ag14
ag18
ag11
ag15
ag18
ag11
ag15
ag18
ag11
ag15
ag18
ag11
ag15
ag18
ag11
ag15
ag18
ag11
ag15
ag18
ag11
ag15
asg1324
g5793
sg2
(dp7128
sg505
g5373
sg1360
Nsg1366
g5373
sg1363
(dp7129
sg1365
I8
sg1381
I01
sg7
Nsg1367
(dp7130
(g22
g23
tp7131
I00
s(g22
g33
tp7132
I00
s(g30
g46
tp7133
I00
s(g30
g30
tp7134
I00
s(g10
g46
tp7135
I00
s(g10
g30
tp7136
I00
s(g23
g10
tp7137
I00
s(g22
g14
tp7138
I00
s(g19
g30
tp7139
I01
s(g33
g33
tp7140
I00
s(g10
g15
tp7141
I00
s(g18
g15
tp7142
I00
s(g33
g23
tp7143
I00
s(g15
g23
tp7144
I00
s(g14
g11
tp7145
I00
s(g18
g10
tp7146
I00
s(g10
g23
tp7147
I00
s(g30
g18
tp7148
I00
s(g22
g22
tp7149
I00
s(g15
g22
tp7150
I00
s(g46
g10
tp7151
I00
s(g10
g11
tp7152
I00
s(g19
g46
tp7153
I00
s(g33
g19
tp7154
I00
s(g14
g14
tp7155
I00
s(g10
g18
tp7156
I00
s(g15
g10
tp7157
I00
s(g15
g46
tp7158
I00
s(g15
g30
tp7159
I00
s(g46
g11
tp7160
I00
s(g23
g33
tp7161
I01
s(g19
g33
tp7162
I01
s(g46
g19
tp7163
I00
s(g15
g33
tp7164
I00
s(g18
g11
tp7165
I00
s(g14
g10
tp7166
I00
s(g33
g46
tp7167
I00
s(g18
g46
tp7168
I00
s(g46
g18
tp7169
I00
s(g30
g22
tp7170
I00
s(g23
g14
tp7171
I00
s(g30
g10
tp7172
I00
s(g23
g11
tp7173
I00
s(g18
g18
tp7174
I00
s(g46
g33
tp7175
I00
s(g14
g22
tp7176
I00
s(g11
g14
tp7177
I00
s(g19
g15
tp7178
I00
s(g11
g19
tp7179
I00
s(g23
g30
tp7180
I01
s(g30
g14
tp7181
I00
s(g46
g15
tp7182
I00
s(g30
g19
tp7183
I00
s(g46
g46
tp7184
I00
s(g19
g10
tp7185
I00
s(g15
g11
tp7186
I00
s(g11
g22
tp7187
I00
s(g33
g11
tp7188
I00
s(g18
g19
tp7189
I00
s(g11
g23
tp7190
I00
s(g30
g23
tp7191
I00
s(g19
g18
tp7192
I00
s(g23
g15
tp7193
I00
s(g19
g22
tp7194
I00
s(g33
g10
tp7195
I00
s(g33
g15
tp7196
I00
s(g11
g30
tp7197
I00
s(g18
g23
tp7198
I00
s(g18
g33
tp7199
I00
s(g19
g11
tp7200
I00
s(g22
g19
tp7201
I00
s(g14
g19
tp7202
I00
s(g11
g46
tp7203
I00
s(g15
g15
tp7204
I00
s(g22
g30
tp7205
I00
s(g14
g46
tp7206
I00
s(g15
g14
tp7207
I00
s(g10
g33
tp7208
I00
s(g15
g19
tp7209
I00
s(g14
g18
tp7210
I00
s(g22
g10
tp7211
I00
s(g30
g11
tp7212
I00
s(g14
g33
tp7213
I00
s(g33
g14
tp7214
I00
s(g10
g14
tp7215
I00
s(g18
g22
tp7216
I00
s(g10
g19
tp7217
I01
s(g46
g22
tp7218
I00
s(g22
g15
tp7219
I00
s(g19
g19
tp7220
I00
s(g23
g22
tp7221
I00
s(g14
g23
tp7222
I00
s(g10
g22
tp7223
I00
s(g10
g10
tp7224
I00
s(g23
g19
tp7225
I00
s(g22
g11
tp7226
I00
s(g46
g14
tp7227
I00
s(g30
g15
tp7228
I00
s(g11
g10
tp7229
I00
s(g19
g14
tp7230
I00
s(g33
g30
tp7231
I00
s(g11
g15
tp7232
I00
s(g22
g46
tp7233
I00
s(g18
g30
tp7234
I00
s(g22
g18
tp7235
I00
s(g46
g30
tp7236
I00
s(g11
g11
tp7237
I00
s(g19
g23
tp7238
I01
s(g33
g18
tp7239
I00
s(g23
g18
tp7240
I00
s(g11
g18
tp7241
I00
s(g11
g33
tp7242
I00
s(g46
g23
tp7243
I00
s(g23
g46
tp7244
I00
s(g30
g33
tp7245
I00
s(g15
g18
tp7246
I00
s(g14
g30
tp7247
I00
s(g33
g22
tp7248
I00
s(g23
g23
tp7249
I00
s(g14
g15
tp7250
I00
s(g18
g14
tp7251
I00
ssg1380
NsbsS'robot_pose'
p7252
g521
(g522
(I0
tp7253
g524
tp7254
Rp7255
(I1
(I1
I3
tp7256
g531
I00
S'fR\xdd8\xd6\x8d\x00@\xbfC|\xd2X\x00\x16\xc0\xc1\xab\x9e\x0b\x900\xd2?'
p7257
tp7258
bsS'is_holding_goal_entity'
p7259
(itrajectory_representation.predicates.is_holding_goal_entity
IsHoldingGoalEntity
p7260
(dp7261
g6959
g6960
sg7
NsbsS'mc_pick_path'
p7262
(dp7263
sS'current_collides'
p7264
g5793
sbsg6959
g6960
sg6962
(dp7265
(g22
g23
tp7266
(lp7267
I00
aI00
aI00
as(g22
g33
tp7268
(lp7269
I00
aI00
aI00
as(g30
g46
tp7270
g2500
s(g30
g30
tp7271
g2502
s(g10
g46
tp7272
g2504
s(g10
g30
tp7273
g2578
s(g23
g10
tp7274
g2508
s(g22
g14
tp7275
(lp7276
I00
aI00
aI00
as(g19
g30
tp7277
g2510
s(g33
g33
tp7278
g2512
s(g10
g15
tp7279
g2514
s(g18
g15
tp7280
g2538
s(g33
g23
tp7281
g2524
s(g15
g23
tp7282
g2650
s(g14
g11
tp7283
g2526
s(g18
g10
tp7284
g2688
s(g10
g23
tp7285
g2530
s(g30
g18
tp7286
g2532
s(g22
g22
tp7287
(lp7288
I00
aI00
aI00
as(g15
g22
tp7289
(lp7290
I00
aI00
aI00
as(g46
g10
tp7291
g2534
s(g10
g11
tp7292
g2536
s(g19
g46
tp7293
g2636
s(g33
g19
tp7294
g2540
s(g14
g14
tp7295
g2542
s(g10
g18
tp7296
g2544
s(g15
g10
tp7297
g2622
s(g15
g46
tp7298
g2548
s(g15
g30
tp7299
g2550
s(g46
g11
tp7300
g2552
s(g23
g33
tp7301
g2554
s(g19
g33
tp7302
g2556
s(g46
g19
tp7303
g2558
s(g15
g33
tp7304
g2528
s(g18
g11
tp7305
g2560
s(g14
g10
tp7306
g2562
s(g33
g46
tp7307
g2564
s(g18
g46
tp7308
g2566
s(g46
g18
tp7309
g2568
s(g30
g22
tp7310
(lp7311
I00
aI00
aI00
as(g23
g14
tp7312
g2570
s(g30
g10
tp7313
g2572
s(g23
g11
tp7314
g2574
s(g18
g18
tp7315
g2576
s(g46
g33
tp7316
g2580
s(g14
g22
tp7317
(lp7318
I00
aI00
aI00
as(g11
g14
tp7319
g2584
s(g19
g15
tp7320
g2586
s(g11
g19
tp7321
g2588
s(g23
g30
tp7322
g2590
s(g30
g14
tp7323
g2592
s(g46
g15
tp7324
g2594
s(g30
g19
tp7325
g2596
s(g46
g46
tp7326
g2598
s(g19
g10
tp7327
g2600
s(g15
g11
tp7328
g2602
s(g11
g22
tp7329
(lp7330
I00
aI00
aI00
as(g33
g11
tp7331
g2604
s(g18
g19
tp7332
g2606
s(g11
g23
tp7333
g2608
s(g30
g23
tp7334
g2610
s(g19
g18
tp7335
g2612
s(g23
g15
tp7336
g2614
s(g19
g22
tp7337
(lp7338
I00
aI00
aI00
as(g33
g10
tp7339
g2616
s(g33
g15
tp7340
g2618
s(g11
g30
tp7341
g2662
s(g18
g23
tp7342
g2620
s(g18
g33
tp7343
g2546
s(g19
g11
tp7344
g2624
s(g22
g19
tp7345
(lp7346
I00
aI01
aI00
as(g14
g19
tp7347
g2626
s(g11
g46
tp7348
g2660
s(g15
g15
tp7349
g2628
s(g22
g30
tp7350
(lp7351
I00
aI00
aI00
as(g14
g46
tp7352
g2630
s(g15
g14
tp7353
g2632
s(g10
g33
tp7354
g2634
s(g15
g19
tp7355
g2638
s(g14
g18
tp7356
g2640
s(g22
g10
tp7357
(lp7358
I00
aI00
aI00
as(g30
g11
tp7359
g2666
s(g14
g33
tp7360
g2644
s(g33
g14
tp7361
g2646
s(g10
g14
tp7362
g2648
s(g18
g22
tp7363
(lp7364
I00
aI00
aI00
as(g10
g19
tp7365
g2652
s(g46
g22
tp7366
(lp7367
I00
aI00
aI00
as(g22
g15
tp7368
(lp7369
g2522
aI00
aI01
as(g19
g19
tp7370
g2654
s(g23
g22
tp7371
(lp7372
I00
aI00
aI00
as(g14
g23
tp7373
g2658
s(g10
g22
tp7374
(lp7375
I00
aI00
aI00
as(g10
g10
tp7376
g2642
s(g23
g19
tp7377
g2664
s(g22
g11
tp7378
(lp7379
I00
aI00
aI00
as(g46
g14
tp7380
g2656
s(g30
g15
tp7381
g2668
s(g11
g10
tp7382
g2506
s(g19
g14
tp7383
g2670
s(g33
g30
tp7384
g2672
s(g11
g15
tp7385
g2674
s(g22
g46
tp7386
(lp7387
I00
aI00
aI00
as(g18
g30
tp7388
g2676
s(g22
g18
tp7389
(lp7390
g2522
aI00
aI00
as(g46
g30
tp7391
g2678
s(g11
g11
tp7392
g2680
s(g19
g23
tp7393
g2682
s(g33
g18
tp7394
g2684
s(g23
g18
tp7395
g2686
s(g11
g18
tp7396
g2582
s(g11
g33
tp7397
g2690
s(g46
g23
tp7398
g2692
s(g23
g46
tp7399
g2694
s(g30
g33
tp7400
g2696
s(g15
g18
tp7401
g2698
s(g14
g30
tp7402
g2700
s(g33
g22
tp7403
(lp7404
I00
aI00
aI00
as(g23
g23
tp7405
g2702
s(g14
g15
tp7406
g2704
s(g18
g14
tp7407
g2706
ssg1322
g3516
sg7106
(itrajectory_representation.predicates.pick_in_way
PickInWay
p7408
(dp7409
g1044
(dp7410
g33
g3545
sg10
g3564
sg30
g3583
sg19
g3614
sg22
g3127
sg46
g3633
sg14
g3652
sg23
g3671
ssg1296
(dp7411
g33
(lp7412
Vrectangular_packing_box2
p7413
aVrectangular_packing_box1
p7414
aVsquare_packing_box4
p7415
asg10
(lp7416
sg30
(lp7417
Vrectangular_packing_box2
p7418
asg19
(lp7419
Vsquare_packing_box2
p7420
aVrectangular_packing_box2
p7421
asg22
(lp7422
sg46
(lp7423
Vrectangular_packing_box2
p7424
asg14
(lp7425
sg23
(lp7426
Vrectangular_packing_box2
p7427
aVrectangular_packing_box1
p7428
assg1322
(lp7429
g22
ag10
ag18
ag11
ag15
ag14
ag18
ag11
ag15
ag18
ag11
ag15
ag18
ag11
ag15
ag18
ag11
ag15
ag18
ag11
ag15
ag18
ag11
ag15
ag18
ag11
ag15
asg1324
g3517
sg2
(dp7430
sg505
g3085
sg1360
Nsg1366
g3085
sg1363
(dp7431
sg1365
I8
sg1381
I01
sg7
Nsg1367
(dp7432
(g22
g23
tp7433
I00
s(g22
g33
tp7434
I00
s(g30
g46
tp7435
I00
s(g30
g30
tp7436
I00
s(g10
g46
tp7437
I01
s(g10
g30
tp7438
I01
s(g23
g10
tp7439
I00
s(g22
g14
tp7440
I00
s(g19
g30
tp7441
I00
s(g33
g33
tp7442
I00
s(g10
g15
tp7443
I00
s(g18
g15
tp7444
I00
s(g33
g23
tp7445
I00
s(g15
g23
tp7446
I00
s(g14
g11
tp7447
I00
s(g18
g10
tp7448
I00
s(g10
g23
tp7449
I01
s(g30
g18
tp7450
I00
s(g22
g22
tp7451
I00
s(g15
g22
tp7452
I00
s(g46
g10
tp7453
I00
s(g10
g11
tp7454
I00
s(g19
g46
tp7455
I00
s(g33
g19
tp7456
I00
s(g14
g14
tp7457
I00
s(g10
g18
tp7458
I00
s(g15
g10
tp7459
I00
s(g15
g46
tp7460
I00
s(g15
g30
tp7461
I00
s(g46
g11
tp7462
I00
s(g23
g33
tp7463
I01
s(g19
g33
tp7464
I01
s(g46
g19
tp7465
I00
s(g15
g33
tp7466
I00
s(g18
g11
tp7467
I00
s(g14
g10
tp7468
I00
s(g33
g46
tp7469
I00
s(g18
g46
tp7470
I00
s(g46
g18
tp7471
I00
s(g30
g22
tp7472
I00
s(g23
g14
tp7473
I00
s(g30
g10
tp7474
I00
s(g23
g11
tp7475
I00
s(g18
g18
tp7476
I00
s(g46
g33
tp7477
I00
s(g14
g22
tp7478
I00
s(g11
g14
tp7479
I00
s(g19
g15
tp7480
I00
s(g11
g19
tp7481
I00
s(g23
g30
tp7482
I00
s(g30
g14
tp7483
I00
s(g46
g15
tp7484
I00
s(g30
g19
tp7485
I00
s(g46
g46
tp7486
I00
s(g19
g10
tp7487
I00
s(g15
g11
tp7488
I00
s(g11
g22
tp7489
I00
s(g33
g11
tp7490
I00
s(g18
g19
tp7491
I00
s(g11
g23
tp7492
I00
s(g30
g23
tp7493
I00
s(g19
g18
tp7494
I00
s(g23
g15
tp7495
I00
s(g19
g22
tp7496
I00
s(g33
g10
tp7497
I00
s(g33
g15
tp7498
I00
s(g11
g30
tp7499
I00
s(g18
g23
tp7500
I00
s(g18
g33
tp7501
I00
s(g19
g11
tp7502
I00
s(g22
g19
tp7503
I01
s(g14
g19
tp7504
I00
s(g11
g46
tp7505
I00
s(g15
g15
tp7506
I00
s(g22
g30
tp7507
I00
s(g14
g46
tp7508
I00
s(g15
g14
tp7509
I00
s(g10
g33
tp7510
I01
s(g15
g19
tp7511
I00
s(g14
g18
tp7512
I00
s(g22
g10
tp7513
I00
s(g30
g11
tp7514
I00
s(g14
g33
tp7515
I00
s(g33
g14
tp7516
I00
s(g10
g14
tp7517
I00
s(g18
g22
tp7518
I00
s(g10
g19
tp7519
I01
s(g46
g22
tp7520
I00
s(g22
g15
tp7521
I00
s(g19
g19
tp7522
I00
s(g23
g22
tp7523
I00
s(g14
g23
tp7524
I00
s(g10
g22
tp7525
I00
s(g10
g10
tp7526
I00
s(g23
g19
tp7527
I00
s(g22
g11
tp7528
I00
s(g46
g14
tp7529
I00
s(g30
g15
tp7530
I00
s(g11
g10
tp7531
I00
s(g19
g14
tp7532
I00
s(g33
g30
tp7533
I00
s(g11
g15
tp7534
I00
s(g22
g46
tp7535
I00
s(g18
g30
tp7536
I00
s(g22
g18
tp7537
I00
s(g46
g30
tp7538
I00
s(g11
g11
tp7539
I00
s(g19
g23
tp7540
I01
s(g33
g18
tp7541
I00
s(g23
g18
tp7542
I00
s(g11
g18
tp7543
I00
s(g11
g33
tp7544
I00
s(g46
g23
tp7545
I00
s(g23
g46
tp7546
I00
s(g30
g33
tp7547
I00
s(g15
g18
tp7548
I00
s(g14
g30
tp7549
I00
s(g33
g22
tp7550
I00
s(g23
g23
tp7551
I00
s(g14
g15
tp7552
I00
s(g18
g14
tp7553
I00
ssg1380
Nsbsg7252
g521
(g522
(I0
tp7554
g524
tp7555
Rp7556
(I1
(I1
I3
tp7557
g531
I00
S'!\x1d\x99\xd7\xe3\x07\t@^\xb4\xd3U\xf5@\x18\xc0\xe4\xc1\x03\xc3\xc3\x1d\x17@'
p7558
tp7559
bsg7259
(itrajectory_representation.predicates.is_holding_goal_entity
IsHoldingGoalEntity
p7560
(dp7561
g6959
g6960
sg7
Nsbsg7262
(dp7562
sg7264
g3517
sbsg6959
g6960
sg6962
(dp7563
(g22
g23
tp7564
(lp7565
I00
aI01
aI00
as(g22
g33
tp7566
(lp7567
I00
aI01
aI00
as(g30
g46
tp7568
(lp7569
I00
aI00
aI00
as(g30
g30
tp7570
(lp7571
I00
aI00
aI00
as(g10
g46
tp7572
(lp7573
I00
aI00
aI00
as(g10
g30
tp7574
(lp7575
I00
aI01
aI00
as(g23
g10
tp7576
(lp7577
I00
aI00
aI00
as(g22
g14
tp7578
(lp7579
I00
aI00
aI00
as(g19
g30
tp7580
(lp7581
I00
aI00
aI00
as(g33
g33
tp7582
(lp7583
I00
aI00
aI00
as(g10
g15
tp7584
(lp7585
g2522
aI00
aI01
as(g18
g15
tp7586
(lp7587
I00
aI00
aI00
as(g33
g23
tp7588
(lp7589
I00
aI00
aI00
as(g15
g23
tp7590
(lp7591
I00
aI00
aI00
as(g14
g11
tp7592
(lp7593
I00
aI00
aI00
as(g18
g10
tp7594
(lp7595
I00
aI00
aI00
as(g10
g23
tp7596
(lp7597
I00
aI01
aI00
as(g30
g18
tp7598
(lp7599
g2522
aI00
aI00
as(g22
g22
tp7600
(lp7601
I00
aI00
aI00
as(g15
g22
tp7602
(lp7603
I00
aI00
aI00
as(g46
g10
tp7604
(lp7605
I00
aI01
aI00
as(g10
g11
tp7606
(lp7607
I00
aI00
aI00
as(g19
g46
tp7608
(lp7609
I00
aI00
aI00
as(g33
g19
tp7610
(lp7611
I00
aI00
aI00
as(g14
g14
tp7612
(lp7613
I00
aI00
aI00
as(g10
g18
tp7614
(lp7615
g2522
aI00
aI00
as(g15
g10
tp7616
(lp7617
I00
aI00
aI00
as(g15
g46
tp7618
(lp7619
I00
aI00
aI00
as(g15
g30
tp7620
(lp7621
I00
aI00
aI00
as(g46
g11
tp7622
(lp7623
I00
aI00
aI01
as(g23
g33
tp7624
(lp7625
I00
aI01
aI00
as(g19
g33
tp7626
(lp7627
I00
aI01
aI00
as(g46
g19
tp7628
(lp7629
I00
aI00
aI00
as(g15
g33
tp7630
(lp7631
I00
aI00
aI00
as(g18
g11
tp7632
(lp7633
I00
aI00
aI00
as(g14
g10
tp7634
(lp7635
I00
aI00
aI00
as(g33
g46
tp7636
(lp7637
I00
aI00
aI00
as(g18
g46
tp7638
(lp7639
I00
aI00
aI00
as(g46
g18
tp7640
(lp7641
g2522
aI00
aI00
as(g30
g22
tp7642
(lp7643
I00
aI00
aI00
as(g23
g14
tp7644
(lp7645
I00
aI00
aI00
as(g30
g10
tp7646
(lp7647
I00
aI00
aI00
as(g23
g11
tp7648
(lp7649
I00
aI00
aI01
as(g18
g18
tp7650
(lp7651
I00
aI00
aI00
as(g46
g33
tp7652
(lp7653
I00
aI00
aI00
as(g14
g22
tp7654
(lp7655
I00
aI00
aI00
as(g11
g14
tp7656
(lp7657
I00
aI00
aI00
as(g19
g15
tp7658
(lp7659
g2522
aI00
aI01
as(g11
g19
tp7660
(lp7661
I00
aI00
aI00
as(g23
g30
tp7662
(lp7663
I00
aI00
aI00
as(g30
g14
tp7664
(lp7665
I00
aI00
aI00
as(g46
g15
tp7666
(lp7667
g2522
aI00
aI01
as(g30
g19
tp7668
(lp7669
I00
aI00
aI00
as(g46
g46
tp7670
(lp7671
I00
aI00
aI00
as(g19
g10
tp7672
(lp7673
I00
aI00
aI00
as(g15
g11
tp7674
(lp7675
I00
aI00
aI00
as(g11
g22
tp7676
(lp7677
I00
aI00
aI00
as(g33
g11
tp7678
(lp7679
I00
aI00
aI01
as(g18
g19
tp7680
(lp7681
I00
aI00
aI00
as(g11
g23
tp7682
(lp7683
I00
aI00
aI00
as(g30
g23
tp7684
(lp7685
I00
aI00
aI00
as(g19
g18
tp7686
(lp7687
g2522
aI00
aI00
as(g23
g15
tp7688
(lp7689
g2522
aI00
aI01
as(g19
g22
tp7690
(lp7691
I00
aI00
aI00
as(g33
g10
tp7692
(lp7693
I00
aI00
aI00
as(g33
g15
tp7694
(lp7695
g2522
aI00
aI01
as(g11
g30
tp7696
(lp7697
I00
aI00
aI00
as(g18
g23
tp7698
(lp7699
I00
aI00
aI00
as(g18
g33
tp7700
(lp7701
I00
aI00
aI00
as(g19
g11
tp7702
(lp7703
I00
aI00
aI00
as(g22
g19
tp7704
(lp7705
I00
aI01
aI00
as(g14
g19
tp7706
(lp7707
I00
aI00
aI00
as(g11
g46
tp7708
(lp7709
I00
aI00
aI00
as(g15
g15
tp7710
(lp7711
I00
aI00
aI00
as(g22
g30
tp7712
(lp7713
I00
aI01
aI00
as(g14
g46
tp7714
(lp7715
I00
aI00
aI00
as(g15
g14
tp7716
(lp7717
I00
aI00
aI00
as(g10
g33
tp7718
(lp7719
I00
aI01
aI00
as(g15
g19
tp7720
(lp7721
I00
aI00
aI00
as(g14
g18
tp7722
(lp7723
g2522
aI00
aI00
as(g22
g10
tp7724
(lp7725
I00
aI01
aI00
as(g30
g11
tp7726
(lp7727
I00
aI00
aI00
as(g14
g33
tp7728
(lp7729
I00
aI00
aI00
as(g33
g14
tp7730
(lp7731
I00
aI00
aI00
as(g10
g14
tp7732
(lp7733
I00
aI00
aI00
as(g18
g22
tp7734
(lp7735
I00
aI00
aI00
as(g10
g19
tp7736
(lp7737
I00
aI01
aI00
as(g46
g22
tp7738
(lp7739
I00
aI01
aI00
as(g22
g15
tp7740
(lp7741
g2522
aI00
aI01
as(g19
g19
tp7742
(lp7743
I00
aI00
aI00
as(g23
g22
tp7744
(lp7745
I00
aI00
aI00
as(g14
g23
tp7746
(lp7747
I00
aI00
aI00
as(g10
g22
tp7748
(lp7749
I00
aI01
aI00
as(g10
g10
tp7750
(lp7751
I00
aI00
aI00
as(g23
g19
tp7752
(lp7753
I00
aI00
aI00
as(g22
g11
tp7754
(lp7755
I00
aI00
aI00
as(g46
g14
tp7756
(lp7757
I00
aI00
aI00
as(g30
g15
tp7758
(lp7759
g2522
aI00
aI01
as(g11
g10
tp7760
(lp7761
I00
aI00
aI00
as(g19
g14
tp7762
(lp7763
I00
aI00
aI00
as(g33
g30
tp7764
(lp7765
I00
aI00
aI00
as(g11
g15
tp7766
(lp7767
I00
aI00
aI00
as(g22
g46
tp7768
(lp7769
I00
aI00
aI00
as(g18
g30
tp7770
(lp7771
I00
aI00
aI00
as(g22
g18
tp7772
(lp7773
g2522
aI00
aI00
as(g46
g30
tp7774
(lp7775
I00
aI00
aI00
as(g11
g11
tp7776
(lp7777
I00
aI00
aI00
as(g19
g23
tp7778
(lp7779
I00
aI01
aI00
as(g33
g18
tp7780
(lp7781
g2522
aI00
aI00
as(g23
g18
tp7782
(lp7783
g2522
aI00
aI00
as(g11
g18
tp7784
(lp7785
I00
aI00
aI00
as(g11
g33
tp7786
(lp7787
I00
aI00
aI00
as(g46
g23
tp7788
(lp7789
I00
aI00
aI00
as(g23
g46
tp7790
(lp7791
I00
aI00
aI00
as(g30
g33
tp7792
(lp7793
I00
aI00
aI00
as(g15
g18
tp7794
(lp7795
I00
aI00
aI00
as(g14
g30
tp7796
(lp7797
I00
aI00
aI00
as(g33
g22
tp7798
(lp7799
I00
aI00
aI00
as(g23
g23
tp7800
(lp7801
I00
aI00
aI00
as(g14
g15
tp7802
(lp7803
g2522
aI00
aI01
as(g18
g14
tp7804
(lp7805
I00
aI00
aI00
assg1322
g1323
sg7106
(itrajectory_representation.predicates.pick_in_way
PickInWay
p7806
(dp7807
g1044
(dp7808
g33
g550
sg10
g611
sg30
g655
sg19
g723
sg22
g779
sg46
g823
sg14
g867
sg23
g899
ssg1296
(dp7809
g33
(lp7810
Vsquare_packing_box2
p7811
aVrectangular_packing_box2
p7812
aVrectangular_packing_box1
p7813
aVsquare_packing_box4
p7814
asg10
(lp7815
Vsquare_packing_box3
p7816
aVsquare_packing_box2
p7817
asg30
(lp7818
Vsquare_packing_box2
p7819
aVrectangular_packing_box2
p7820
asg19
(lp7821
Vsquare_packing_box2
p7822
aVrectangular_packing_box2
p7823
asg22
(lp7824
Vsquare_packing_box3
p7825
aVsquare_packing_box2
p7826
aVrectangular_packing_box2
p7827
asg46
(lp7828
Vsquare_packing_box3
p7829
asg14
(lp7830
sg23
(lp7831
Vsquare_packing_box2
p7832
aVrectangular_packing_box2
p7833
aVrectangular_packing_box1
p7834
assg1322
(lp7835
g18
ag11
ag15
ag14
ag18
ag11
ag15
ag18
ag11
ag15
ag18
ag11
ag15
ag18
ag11
ag15
ag18
ag11
ag15
ag18
ag11
ag15
ag18
ag11
ag15
asg1324
g1325
sg2
(dp7836
sg505
g506
sg1360
Nsg1366
g506
sg1363
(dp7837
sg1365
I8
sg1381
I01
sg7
Nsg1367
(dp7838
(g22
g23
tp7839
I01
s(g22
g33
tp7840
I01
s(g30
g46
tp7841
I00
s(g30
g30
tp7842
I00
s(g10
g46
tp7843
I00
s(g10
g30
tp7844
I01
s(g23
g10
tp7845
I00
s(g22
g14
tp7846
I00
s(g19
g30
tp7847
I00
s(g33
g33
tp7848
I00
s(g10
g15
tp7849
I00
s(g18
g15
tp7850
I00
s(g33
g23
tp7851
I00
s(g15
g23
tp7852
I00
s(g14
g11
tp7853
I00
s(g18
g10
tp7854
I00
s(g10
g23
tp7855
I01
s(g30
g18
tp7856
I00
s(g22
g22
tp7857
I00
s(g15
g22
tp7858
I00
s(g46
g10
tp7859
I01
s(g10
g11
tp7860
I00
s(g19
g46
tp7861
I00
s(g33
g19
tp7862
I00
s(g14
g14
tp7863
I00
s(g10
g18
tp7864
I00
s(g15
g10
tp7865
I00
s(g15
g46
tp7866
I00
s(g15
g30
tp7867
I00
s(g46
g11
tp7868
I00
s(g23
g33
tp7869
I01
s(g19
g33
tp7870
I01
s(g46
g19
tp7871
I00
s(g15
g33
tp7872
I00
s(g18
g11
tp7873
I00
s(g14
g10
tp7874
I00
s(g33
g46
tp7875
I00
s(g18
g46
tp7876
I00
s(g46
g18
tp7877
I00
s(g30
g22
tp7878
I00
s(g23
g14
tp7879
I00
s(g30
g10
tp7880
I00
s(g23
g11
tp7881
I00
s(g18
g18
tp7882
I00
s(g46
g33
tp7883
I00
s(g14
g22
tp7884
I00
s(g11
g14
tp7885
I00
s(g19
g15
tp7886
I00
s(g11
g19
tp7887
I00
s(g23
g30
tp7888
I00
s(g30
g14
tp7889
I00
s(g46
g15
tp7890
I00
s(g30
g19
tp7891
I00
s(g46
g46
tp7892
I00
s(g19
g10
tp7893
I00
s(g15
g11
tp7894
I00
s(g11
g22
tp7895
I00
s(g33
g11
tp7896
I00
s(g18
g19
tp7897
I00
s(g11
g23
tp7898
I00
s(g30
g23
tp7899
I00
s(g19
g18
tp7900
I00
s(g23
g15
tp7901
I00
s(g19
g22
tp7902
I00
s(g33
g10
tp7903
I00
s(g33
g15
tp7904
I00
s(g11
g30
tp7905
I00
s(g18
g23
tp7906
I00
s(g18
g33
tp7907
I00
s(g19
g11
tp7908
I00
s(g22
g19
tp7909
I01
s(g14
g19
tp7910
I00
s(g11
g46
tp7911
I00
s(g15
g15
tp7912
I00
s(g22
g30
tp7913
I01
s(g14
g46
tp7914
I00
s(g15
g14
tp7915
I00
s(g10
g33
tp7916
I01
s(g15
g19
tp7917
I00
s(g14
g18
tp7918
I00
s(g22
g10
tp7919
I01
s(g30
g11
tp7920
I00
s(g14
g33
tp7921
I00
s(g33
g14
tp7922
I00
s(g10
g14
tp7923
I00
s(g18
g22
tp7924
I00
s(g10
g19
tp7925
I01
s(g46
g22
tp7926
I01
s(g22
g15
tp7927
I00
s(g19
g19
tp7928
I00
s(g23
g22
tp7929
I00
s(g14
g23
tp7930
I00
s(g10
g22
tp7931
I01
s(g10
g10
tp7932
I00
s(g23
g19
tp7933
I00
s(g22
g11
tp7934
I00
s(g46
g14
tp7935
I00
s(g30
g15
tp7936
I00
s(g11
g10
tp7937
I00
s(g19
g14
tp7938
I00
s(g33
g30
tp7939
I00
s(g11
g15
tp7940
I00
s(g22
g46
tp7941
I00
s(g18
g30
tp7942
I00
s(g22
g18
tp7943
I00
s(g46
g30
tp7944
I00
s(g11
g11
tp7945
I00
s(g19
g23
tp7946
I01
s(g33
g18
tp7947
I00
s(g23
g18
tp7948
I00
s(g11
g18
tp7949
I00
s(g11
g33
tp7950
I00
s(g46
g23
tp7951
I00
s(g23
g46
tp7952
I00
s(g30
g33
tp7953
I00
s(g15
g18
tp7954
I00
s(g14
g30
tp7955
I00
s(g33
g22
tp7956
I00
s(g23
g23
tp7957
I00
s(g14
g15
tp7958
I00
s(g18
g14
tp7959
I00
ssg1380
Nsbsg7252
g521
(g522
(I0
tp7960
g524
tp7961
Rp7962
(I1
(I1
I3
tp7963
g531
I00
S'\xec\xb88\xa1!D\r@@\x85\xe3\xea\x1bo\x1a\xc0\xbf8e8\xeaT\x06@'
p7964
tp7965
bsg7259
(itrajectory_representation.predicates.is_holding_goal_entity
IsHoldingGoalEntity
p7966
(dp7967
g6959
g6960
sg7
Nsbsg7262
(dp7968
sg7264
g1325
sb.