(itrajectory_representation.shortest_path_pick_and_place_state
ShortestPathPaPState
p0
(dp1
S'place_used'
p2
(dp3
sS'in_region'
p4
(itrajectory_representation.predicates.in_region
InRegion
p5
(dp6
S'problem_env'
p7
NsbsS'ternary_edges'
p8
(dp9
(Vrectangular_packing_box2
p10
g10
S'home_region'
p11
tp12
(lp13
I00
as(Vsquare_packing_box1
p14
S'loading_region'
p15
g15
tp16
(lp17
I00
as(S'entire_region'
p18
Vrectangular_packing_box1
p19
g11
tp20
(lp21
I00
as(Vsquare_packing_box2
p22
Vsquare_packing_box4
p23
g15
tp24
(lp25
I00
as(g11
g11
g11
tp26
(lp27
I00
as(g23
g10
g15
tp28
(lp29
I00
as(g14
Vrectangular_packing_box3
p30
g11
tp31
(lp32
I00
as(g11
Vrectangular_packing_box4
p33
g11
tp34
(lp35
I00
as(g22
g14
g11
tp36
(lp37
I00
as(g30
g33
g15
tp38
(lp39
I00
as(g11
g23
g15
tp40
(lp41
I00
as(g22
g18
g11
tp42
(lp43
I00
as(g15
g11
g15
tp44
(lp45
I00
as(g33
Vsquare_packing_box3
p46
g11
tp47
(lp48
I00
as(g23
g18
g11
tp49
(lp50
I00
as(g22
g19
g15
tp51
(lp52
I00
as(g46
g15
g11
tp53
(lp54
I00
as(g18
g10
g15
tp55
(lp56
I00
as(g11
g18
g11
tp57
(lp58
I00
as(g10
g15
g11
tp59
(lp60
I00
as(g46
g18
g11
tp61
(lp62
I00
as(g14
g14
g15
tp63
(lp64
I00
as(g15
g23
g15
tp65
(lp66
I00
as(g18
g15
g11
tp67
(lp68
I00
as(g18
g22
g11
tp69
(lp70
I00
as(g15
g15
g11
tp71
(lp72
I00
as(g46
g33
g15
tp73
(lp74
I00
as(g11
g11
g15
tp75
(lp76
I00
as(g19
g22
g15
tp77
(lp78
I00
as(g10
g23
g11
tp79
(lp80
I00
as(g46
g14
g11
tp81
(lp82
I00
as(g19
g11
g15
tp83
(lp84
I00
as(g11
g10
g15
tp85
(lp86
I00
as(g19
g30
g15
tp87
(lp88
I00
as(g30
g19
g11
tp89
(lp90
I00
as(g15
g14
g15
tp91
(lp92
I00
as(g23
g22
g15
tp93
(lp94
I00
as(g10
g10
g15
tp95
(lp96
I00
as(g18
g23
g11
tp97
(lp98
I00
as(g15
g11
g11
tp99
(lp100
I00
as(g33
g10
g11
tp101
(lp102
I01
as(g11
g30
g11
tp103
(lp104
I00
as(g22
g19
g11
tp105
(lp106
I00
as(g30
g23
g11
tp107
(lp108
I01
as(g14
g30
g15
tp109
(lp110
I00
as(g46
g22
g11
tp111
(lp112
I00
as(g22
g14
g15
tp113
(lp114
I00
as(g22
g10
g15
tp115
(lp116
I00
as(g18
g22
g15
tp117
(lp118
I00
as(g15
g30
g15
tp119
(lp120
I00
as(g18
g11
g11
tp121
(lp122
I00
as(g33
g11
g11
tp123
(lp124
I00
as(g15
g18
g11
tp125
(lp126
I00
as(g10
g23
g15
tp127
(lp128
I00
as(g46
g10
g15
tp129
(lp130
I00
as(g46
g46
g11
tp131
(lp132
I00
as(g19
g30
g11
tp133
(lp134
I01
as(g18
g10
g11
tp135
(lp136
I00
as(g19
g15
g15
tp137
(lp138
I00
as(g23
g14
g11
tp139
(lp140
I00
as(g14
g14
g11
tp141
(lp142
I00
as(g14
g33
g11
tp143
(lp144
I01
as(g33
g10
g15
tp145
(lp146
I00
as(g23
g19
g15
tp147
(lp148
I00
as(g46
g33
g11
tp149
(lp150
I01
as(g19
g22
g11
tp151
(lp152
I00
as(g10
g19
g15
tp153
(lp154
I00
as(g19
g11
g11
tp155
(lp156
I00
as(g22
g10
g11
tp157
(lp158
I01
as(g10
g46
g11
tp159
(lp160
I00
as(g30
g19
g15
tp161
(lp162
I00
as(g11
g22
g15
tp163
(lp164
I00
as(g18
g11
g15
tp165
(lp166
I00
as(g18
g23
g15
tp167
(lp168
I00
as(g46
g10
g11
tp169
(lp170
I01
as(g30
g46
g15
tp171
(lp172
I00
as(g10
g18
g15
tp173
(lp174
I00
as(g19
g15
g11
tp175
(lp176
I00
as(g46
g22
g15
tp177
(lp178
I00
as(g46
g19
g15
tp179
(lp180
I00
as(g23
g14
g15
tp181
(lp182
I00
as(g11
g30
g15
tp183
(lp184
I00
as(g18
g46
g15
tp185
(lp186
I00
as(g15
g30
g11
tp187
(lp188
I00
as(g15
g22
g15
tp189
(lp190
I00
as(g10
g19
g11
tp191
(lp192
I00
as(g23
g19
g11
tp193
(lp194
I00
as(g15
g46
g11
tp195
(lp196
I00
as(g10
g46
g15
tp197
(lp198
I00
as(g10
g33
g15
tp199
(lp200
I00
as(g30
g23
g15
tp201
(lp202
I00
as(g14
g33
g15
tp203
(lp204
I00
as(g19
g46
g15
tp205
(lp206
I00
as(g11
g14
g15
tp207
(lp208
I00
as(g30
g15
g15
tp209
(lp210
I00
as(g33
g11
g15
tp211
(lp212
I00
as(g14
g19
g11
tp213
(lp214
I00
as(g10
g18
g11
tp215
(lp216
I00
as(g33
g22
g15
tp217
(lp218
I00
as(g30
g10
g15
tp219
(lp220
I00
as(g46
g19
g11
tp221
(lp222
I00
as(g23
g15
g15
tp223
(lp224
I00
as(g22
g11
g11
tp225
(lp226
I00
as(g23
g33
g11
tp227
(lp228
I00
as(g11
g46
g15
tp229
(lp230
I00
as(g15
g19
g15
tp231
(lp232
I00
as(g15
g46
g15
tp233
(lp234
I00
as(g14
g46
g11
tp235
(lp236
I00
as(g19
g46
g11
tp237
(lp238
I00
as(g14
g19
g15
tp239
(lp240
I00
as(g30
g10
g11
tp241
(lp242
I01
as(g10
g22
g11
tp243
(lp244
I01
as(g30
g11
g15
tp245
(lp246
I00
as(g23
g15
g11
tp247
(lp248
I00
as(g15
g33
g15
tp249
(lp250
I00
as(g10
g33
g11
tp251
(lp252
I00
as(g30
g30
g11
tp253
(lp254
I00
as(g33
g33
g11
tp255
(lp256
I00
as(g33
g30
g15
tp257
(lp258
I00
as(g30
g15
g11
tp259
(lp260
I00
as(g46
g23
g11
tp261
(lp262
I00
as(g33
g22
g11
tp263
(lp264
I00
as(g22
g15
g15
tp265
(lp266
I00
as(g30
g18
g15
tp267
(lp268
I00
as(g22
g11
g15
tp269
(lp270
I00
as(g14
g22
g15
tp271
(lp272
I00
as(g23
g33
g15
tp273
(lp274
I00
as(g46
g11
g15
tp275
(lp276
I00
as(g30
g11
g11
tp277
(lp278
I00
as(g15
g33
g11
tp279
(lp280
I00
as(g19
g19
g11
tp281
(lp282
I00
as(g15
g23
g11
tp283
(lp284
I00
as(g23
g46
g11
tp285
(lp286
I00
as(g14
g10
g11
tp287
(lp288
I01
as(g14
g46
g15
tp289
(lp290
I00
as(g33
g14
g15
tp291
(lp292
I00
as(g11
g22
g11
tp293
(lp294
I00
as(g18
g30
g15
tp295
(lp296
I00
as(g30
g14
g11
tp297
(lp298
I00
as(g19
g18
g11
tp299
(lp300
I00
as(g46
g23
g15
tp301
(lp302
I00
as(g46
g30
g15
tp303
(lp304
I00
as(g33
g19
g11
tp305
(lp306
I00
as(g10
g22
g15
tp307
(lp308
I00
as(g33
g15
g11
tp309
(lp310
I00
as(g30
g18
g11
tp311
(lp312
I00
as(g23
g30
g15
tp313
(lp314
I00
as(g10
g14
g11
tp315
(lp316
I00
as(g46
g14
g15
tp317
(lp318
I00
as(g23
g23
g15
tp319
(lp320
I00
as(g33
g33
g15
tp321
(lp322
I00
as(g19
g19
g15
tp323
(lp324
I00
as(g14
g23
g15
tp325
(lp326
I00
as(g23
g22
g11
tp327
(lp328
I01
as(g18
g14
g11
tp329
(lp330
I00
as(g11
g18
g15
tp331
(lp332
I00
as(g11
g19
g15
tp333
(lp334
I00
as(g22
g15
g11
tp335
(lp336
I00
as(g14
g10
g15
tp337
(lp338
I00
as(g19
g14
g15
tp339
(lp340
I00
as(g30
g30
g15
tp341
(lp342
I00
as(g18
g30
g11
tp343
(lp344
I00
as(g22
g30
g15
tp345
(lp346
I00
as(g19
g18
g15
tp347
(lp348
I00
as(g14
g22
g11
tp349
(lp350
I00
as(g33
g19
g15
tp351
(lp352
I00
as(g33
g30
g11
tp353
(lp354
I00
as(g23
g30
g11
tp355
(lp356
I00
as(g14
g11
g15
tp357
(lp358
I00
as(g22
g46
g11
tp359
(lp360
I00
as(g46
g46
g15
tp361
(lp362
I00
as(g33
g18
g11
tp363
(lp364
I00
as(g15
g18
g15
tp365
(lp366
I00
as(g23
g46
g15
tp367
(lp368
I00
as(g15
g19
g11
tp369
(lp370
I00
as(g18
g18
g15
tp371
(lp372
I00
as(g33
g14
g11
tp373
(lp374
I00
as(g14
g23
g11
tp375
(lp376
I00
as(g15
g10
g15
tp377
(lp378
I00
as(g30
g14
g15
tp379
(lp380
I00
as(g46
g11
g11
tp381
(lp382
I00
as(g18
g14
g15
tp383
(lp384
I00
as(g46
g30
g11
tp385
(lp386
I00
as(g30
g22
g11
tp387
(lp388
I00
as(g33
g15
g15
tp389
(lp390
I00
as(g10
g14
g15
tp391
(lp392
I00
as(g19
g10
g11
tp393
(lp394
I01
as(g18
g15
g15
tp395
(lp396
I00
as(g15
g10
g11
tp397
(lp398
I00
as(g14
g18
g11
tp399
(lp400
I00
as(g22
g46
g15
tp401
(lp402
I00
as(g22
g33
g15
tp403
(lp404
I00
as(g23
g11
g11
tp405
(lp406
I00
as(g33
g18
g15
tp407
(lp408
I00
as(g33
g23
g11
tp409
(lp410
I00
as(g18
g33
g15
tp411
(lp412
I00
as(g11
g19
g11
tp413
(lp414
I00
as(g11
g46
g11
tp415
(lp416
I00
as(g19
g14
g11
tp417
(lp418
I00
as(g19
g33
g11
tp419
(lp420
I00
as(g18
g46
g11
tp421
(lp422
I00
as(g22
g30
g11
tp423
(lp424
I00
as(g22
g22
g15
tp425
(lp426
I00
as(g19
g23
g15
tp427
(lp428
I00
as(g23
g11
g15
tp429
(lp430
I00
as(g10
g11
g11
tp431
(lp432
I00
as(g14
g11
g11
tp433
(lp434
I00
as(g19
g10
g15
tp435
(lp436
I00
as(g23
g10
g11
tp437
(lp438
I01
as(g11
g15
g11
tp439
(lp440
I00
as(g18
g18
g11
tp441
(lp442
I00
as(g10
g30
g15
tp443
(lp444
I00
as(g14
g18
g15
tp445
(lp446
I00
as(g15
g22
g11
tp447
(lp448
I00
as(g30
g33
g11
tp449
(lp450
I00
as(g18
g33
g11
tp451
(lp452
I00
as(g14
g15
g11
tp453
(lp454
I00
as(g30
g22
g15
tp455
(lp456
I00
as(g11
g14
g11
tp457
(lp458
I00
as(g18
g19
g15
tp459
(lp460
I00
as(g23
g18
g15
tp461
(lp462
I00
as(g22
g22
g11
tp463
(lp464
I00
as(g19
g23
g11
tp465
(lp466
I00
as(g46
g18
g15
tp467
(lp468
I00
as(g22
g33
g11
tp469
(lp470
I00
as(g11
g23
g11
tp471
(lp472
I00
as(g30
g46
g11
tp473
(lp474
I00
as(g33
g23
g15
tp475
(lp476
I00
as(g23
g23
g11
tp477
(lp478
I00
as(g19
g33
g15
tp479
(lp480
I00
as(g22
g23
g11
tp481
(lp482
I00
as(g46
g15
g15
tp483
(lp484
I00
as(g11
g10
g11
tp485
(lp486
I00
as(g10
g15
g15
tp487
(lp488
I00
as(g11
g33
g15
tp489
(lp490
I00
as(g10
g11
g15
tp491
(lp492
I00
as(g15
g15
g15
tp493
(lp494
I00
as(g22
g18
g15
tp495
(lp496
I00
as(g33
g46
g15
tp497
(lp498
I00
as(g11
g15
g15
tp499
(lp500
I00
as(g10
g30
g11
tp501
(lp502
I00
as(g15
g14
g11
tp503
(lp504
I00
assS'pick_used'
p505
(dp506
Vrectangular_packing_box4
p507
(itrajectory_representation.operator
Operator
p508
(dp509
S'is_skeleton'
p510
I01
sS'discrete_parameters'
p511
(dp512
S'object'
p513
Vrectangular_packing_box4
p514
ssS'type'
p515
S'two_arm_pick'
p516
sS'continuous_parameters'
p517
(dp518
S'q_goal'
p519
(lp520
cnumpy.core.multiarray
_reconstruct
p521
(cnumpy
ndarray
p522
(I0
tp523
S'b'
p524
tp525
Rp526
(I1
(I3
tp527
cnumpy
dtype
p528
(S'f8'
p529
I0
I1
tp530
Rp531
(I3
S'<'
p532
NNNI-1
I-1
I0
tp533
bI00
S'\x1fTr\x8bW\xcd\x07@Q\x94\x1eG\xa9L\x16\xc0UT\xea\xb4\xe4\x1d\xfc\xbf'
p534
tp535
bag521
(g522
(I0
tp536
g524
tp537
Rp538
(I1
(I3
tp539
g531
I00
S'b\xc52\x81\x05(\x04@\xb7\x15\xc02n\x06\x17\xc0\xa7la\x8fF\x16\xe8\xbf'
p540
tp541
bag521
(g522
(I0
tp542
g524
tp543
Rp544
(I1
(I3
tp545
g531
I00
S'\x8d\xb9%\xb1\xa3\x90\x06@E<\xcc\xf0X\xb6\x16\xc0\x03\xbbt\xfc\xfd>\xf7\xbf'
p546
tp547
basS'is_feasible'
p548
I00
ssS'low_level_motion'
p549
(lp550
g521
(g522
(I0
tp551
g524
tp552
Rp553
(I1
(I3
tp554
g531
I00
S'\x0c\x8d\xed]E\x13\x05@}\xe3=\x86jC\x1d\xc0\x8d}i\xe8\xda\xae\xe0?'
p555
tp556
bag521
(g522
(I0
tp557
g524
tp558
Rp559
(I1
(I3
tp560
g528
(S'f8'
p561
I0
I1
tp562
Rp563
(I3
S'<'
p564
NNNI-1
I-1
I0
tp565
bI00
S'b\x95[\xf7r*\x00@:\x8f7a\xbf]\x1c\xc0\x98.\xce\xc6\x89M\xf2?'
p566
tp567
bag521
(g522
(I0
tp568
g524
tp569
Rp570
(I1
(I3
tp571
g563
I00
S'\xb9\x81\xdfb\xdf\x92\xfe?\x1a\xe3?2\xb6\xec\x1a\xc0B\x1b\x81\xfa\x93C\xfa?'
p572
tp573
bag521
(g522
(I0
tp574
g524
tp575
Rp576
(I1
(I3
tp577
g563
I00
S'\x00\xda\x1c<\xfd\xdc\x00@j"\x91\xe3 \x1a\x18\xc0i~!@)\xb0\xdc\xbf'
p578
tp579
bag538
asbsVrectangular_packing_box2
p580
(itrajectory_representation.operator
Operator
p581
(dp582
g510
I01
sg511
(dp583
g513
Vrectangular_packing_box2
p584
ssg515
g516
sg517
(dp585
g519
(lp586
g521
(g522
(I0
tp587
g524
tp588
Rp589
(I1
(I3
tp590
g531
I00
S'\xce\x9e\x88\x0e\xab1\xd6?\xd0\xc5\xc4\xc3\xe0;\x17\xc0\xa6\xbc\x016\xe1Z\xd2?'
p591
tp592
bag521
(g522
(I0
tp593
g524
tp594
Rp595
(I1
(I3
tp596
g531
I00
S'\x9a\xea\xb9\xb0\xfa\x13\xea?\x95\xc6\xed\xb8\xac\xf6\x18\xc0\x9e\xc8qe>`\xf6?'
p597
tp598
bag521
(g522
(I0
tp599
g524
tp600
Rp601
(I1
(I3
tp602
g531
I00
S'\x88\xf0UjR\xd3\xfc?rH%\xd0\xedY\x18\xc0T1h\xd3<\x8f\x04@'
p603
tp604
basg548
I00
ssg549
(lp605
g521
(g522
(I0
tp606
g524
tp607
Rp608
(I1
(I3
tp609
g531
I00
S'\x0c\x8d\xed]E\x13\x05@}\xe3=\x86jC\x1d\xc0\x8d}i\xe8\xda\xae\xe0?'
p610
tp611
bag521
(g522
(I0
tp612
g524
tp613
Rp614
(I1
(I3
tp615
g563
I00
S'b\x95[\xf7r*\x00@:\x8f7a\xbf]\x1c\xc0\x98.\xce\xc6\x89M\xf2?'
p616
tp617
bag521
(g522
(I0
tp618
g524
tp619
Rp620
(I1
(I3
tp621
g563
I00
S'\xb9\x81\xdfb\xdf\x92\xfe?\x1a\xe3?2\xb6\xec\x1a\xc0B\x1b\x81\xfa\x93C\xfa?'
p622
tp623
bag521
(g522
(I0
tp624
g524
tp625
Rp626
(I1
(I3
tp627
g563
I00
S'\xc6\xf1T\x16)\x02\xfe?\xa8\x7fQ\xf5\xbb\x10\x19\xc0\xa38\tS\x83\x84\x05@'
p628
tp629
bag601
asbsVrectangular_packing_box3
p630
(itrajectory_representation.operator
Operator
p631
(dp632
g510
I01
sg511
(dp633
g513
Vrectangular_packing_box3
p634
ssg515
g516
sg517
(dp635
g519
(lp636
g521
(g522
(I0
tp637
g524
tp638
Rp639
(I1
(I3
tp640
g531
I00
S'\xe8\x81s2xD\xd0?i\x03\xed\x02\x06q\x1c\xc0\xaa\xb0\xf8\xe0\x14\x92\xeb?'
p641
tp642
bag521
(g522
(I0
tp643
g524
tp644
Rp645
(I1
(I3
tp646
g531
I00
S's^\x87<\xd9\x8f\xf6?\xfc_\x0b\xfb\xcd\x9f\x17\xc0>\xce\xffN\xd5\x8c\x03\xc0'
p647
tp648
bag521
(g522
(I0
tp649
g524
tp650
Rp651
(I1
(I3
tp652
g531
I00
S'\xbd\x0c\x1e#C\xe3\xd7?{V\x1c\xb9\xd1\xfa\x18\xc0\xc2y\x84\xad\x13\xb2\xe6\xbf'
p653
tp654
basg548
I00
ssg549
(lp655
g521
(g522
(I0
tp656
g524
tp657
Rp658
(I1
(I3
tp659
g531
I00
S'\x0c\x8d\xed]E\x13\x05@}\xe3=\x86jC\x1d\xc0\x8d}i\xe8\xda\xae\xe0?'
p660
tp661
bag521
(g522
(I0
tp662
g524
tp663
Rp664
(I1
(I3
tp665
g563
I00
S'b\x95[\xf7r*\x00@:\x8f7a\xbf]\x1c\xc0\x98.\xce\xc6\x89M\xf2?'
p666
tp667
bag521
(g522
(I0
tp668
g524
tp669
Rp670
(I1
(I3
tp671
g563
I00
S'\xa4\xc8\xcc\x88S\x9f\xf6?N\xeaYik!\x1e\xc0\x00W\xeas\x1a)\xfa?'
p672
tp673
bag521
(g522
(I0
tp674
g524
tp675
Rp676
(I1
(I3
tp677
g563
I00
S'r\xb4\xd66\xb5:\xe6?4\xd2\xb3\xd8Ho\x1f\xc0\x0f\xf8\x05\x85\xe9\x10\x00@'
p678
tp679
bag521
(g522
(I0
tp680
g524
tp681
Rp682
(I1
(I3
tp683
g563
I00
S'\x138\xde\xf8\x80\xc4\xdb?\xb0\xa4\x99\x1dq\x81\x1c\xc0\xc06d\xa1\x11\xde\x10@'
p684
tp685
bag521
(g522
(I0
tp686
g524
tp687
Rp688
(I1
(I3
tp689
g563
I00
S'\xc0T\xe2\x97\xaf3h\xbfv\xa30\xd5\xeb\xd1\x1a\xc0\x8a\rz\xc6\xa6z\x04@'
p690
tp691
bag521
(g522
(I0
tp692
g524
tp693
Rp694
(I1
(I3
tp695
g563
I00
S'\x94<e\xf2\x0c\xec\xce?\x96\x12\xae\x90\xe8(\x19\xc0\x0c\n*\xba\xfbb\x16@'
p696
tp697
bag651
asbsVrectangular_packing_box1
p698
(itrajectory_representation.operator
Operator
p699
(dp700
g510
I01
sg511
(dp701
g513
Vrectangular_packing_box1
p702
ssg515
g516
sg517
(dp703
g519
(lp704
g521
(g522
(I0
tp705
g524
tp706
Rp707
(I1
(I3
tp708
g531
I00
S'\xdb[\xe1\xa4\xcf\x08\xe6?\x8e`\x1a\xe3\xb1\xdc\x1e\xc0L\xc7 \x19"\x1e\r\xc0'
p709
tp710
bag521
(g522
(I0
tp711
g524
tp712
Rp713
(I1
(I3
tp714
g531
I00
S'\xa6u\x0bs\xd0\xab\xc2?\xdd\xd70|\x89\x13\x1c\xc0\xe9*H\x84Q\x8f\xfe\xbf'
p715
tp716
bag521
(g522
(I0
tp717
g524
tp718
Rp719
(I1
(I3
tp720
g531
I00
S'\x13\x0e\x06\xe4 [\xbf\xbfnE\\9\xf6\x1e\x1c\xc0\xd5o\x08\x9a~x\x00\xc0'
p721
tp722
basg548
I00
ssg549
(lp723
g521
(g522
(I0
tp724
g524
tp725
Rp726
(I1
(I3
tp727
g531
I00
S'\x0c\x8d\xed]E\x13\x05@}\xe3=\x86jC\x1d\xc0\x8d}i\xe8\xda\xae\xe0?'
p728
tp729
bag521
(g522
(I0
tp730
g524
tp731
Rp732
(I1
(I3
tp733
g563
I00
S'\xb9O\xa7Y\x02\x91\x00@\x96d\x95\x0e\xe6\xda\x1e\xc0l\xef\x8e\x11Rk\xeb?'
p734
tp735
bag521
(g522
(I0
tp736
g524
tp737
Rp738
(I1
(I3
tp739
g563
I00
S'%F<\xa3\xac]\xf5?\xe8w&\x87\x9b;\x1e\xc0\xfe\xbe\xc2\xaf\x89\xaa\x18@'
p740
tp741
bag707
asbsVsquare_packing_box2
p742
(itrajectory_representation.operator
Operator
p743
(dp744
g510
I01
sg511
(dp745
g513
Vsquare_packing_box2
p746
ssg515
g516
sg517
(dp747
g519
(lp748
g521
(g522
(I0
tp749
g524
tp750
Rp751
(I1
(I3
tp752
g531
I00
S'\xb8\x8e\xd2\x9f\x15I\xda?$\xb2\xd5q<N\x18\xc0X\xff\xd5R\xb2\x0f\x03@'
p753
tp754
bag521
(g522
(I0
tp755
g524
tp756
Rp757
(I1
(I3
tp758
g531
I00
S'\x18\xeb\xb5c\x84=\xd8?z\xd0\xbf\xba\x97\x97\x18\xc0\xba?\xe3\xcd\xbd\xd2\x03@'
p759
tp760
bag521
(g522
(I0
tp761
g524
tp762
Rp763
(I1
(I3
tp764
g531
I00
S'r \x11,Y\x0c\xdf?G!\xfd^\x12\xc8\x17\xc0\xe3%\x1dc&\xc1\x04@'
p765
tp766
basg548
I00
ssg549
(lp767
g521
(g522
(I0
tp768
g524
tp769
Rp770
(I1
(I3
tp771
g531
I00
S'\x0c\x8d\xed]E\x13\x05@}\xe3=\x86jC\x1d\xc0\x8d}i\xe8\xda\xae\xe0?'
p772
tp773
bag521
(g522
(I0
tp774
g524
tp775
Rp776
(I1
(I3
tp777
g563
I00
S'b\x95[\xf7r*\x00@:\x8f7a\xbf]\x1c\xc0\x98.\xce\xc6\x89M\xf2?'
p778
tp779
bag521
(g522
(I0
tp780
g524
tp781
Rp782
(I1
(I3
tp783
g563
I00
S'\xa4\xc8\xcc\x88S\x9f\xf6?N\xeaYik!\x1e\xc0\x00W\xeas\x1a)\xfa?'
p784
tp785
bag521
(g522
(I0
tp786
g524
tp787
Rp788
(I1
(I3
tp789
g563
I00
S'r\xb4\xd66\xb5:\xe6?4\xd2\xb3\xd8Ho\x1f\xc0\x0f\xf8\x05\x85\xe9\x10\x00@'
p790
tp791
bag521
(g522
(I0
tp792
g524
tp793
Rp794
(I1
(I3
tp795
g563
I00
S'\x138\xde\xf8\x80\xc4\xdb?\xb0\xa4\x99\x1dq\x81\x1c\xc0\xc06d\xa1\x11\xde\x10@'
p796
tp797
bag521
(g522
(I0
tp798
g524
tp799
Rp800
(I1
(I3
tp801
g563
I00
S'\xc0T\xe2\x97\xaf3h\xbfv\xa30\xd5\xeb\xd1\x1a\xc0\x8a\rz\xc6\xa6z\x04@'
p802
tp803
bag757
asbsVsquare_packing_box3
p804
(itrajectory_representation.operator
Operator
p805
(dp806
g510
I01
sg511
(dp807
g513
Vsquare_packing_box3
p808
ssg515
g516
sg517
(dp809
g519
(lp810
g521
(g522
(I0
tp811
g524
tp812
Rp813
(I1
(I3
tp814
g531
I00
S'\xb1\x91d&]\xf4\r@\x05\x16bSUi\x19\xc0\x19c:Hq\x95\xfe\xbf'
p815
tp816
bag521
(g522
(I0
tp817
g524
tp818
Rp819
(I1
(I3
tp820
g531
I00
S'Cfb\xccjz\x0c@\xde\x1f\xa4\xb6\xc3\x94\x19\xc0\x98\xe6\xfb\xff\xcb\x18\xfd\xbf'
p821
tp822
bag521
(g522
(I0
tp823
g524
tp824
Rp825
(I1
(I3
tp826
g531
I00
S'#\r\x1d\xd0\x02\xfb\t@\xff\xe3ok\xfa\xba\x1f\xc0\xf24\x80\xa2\x96$\xe7?'
p827
tp828
basg548
I00
ssg549
(lp829
g521
(g522
(I0
tp830
g524
tp831
Rp832
(I1
(I3
tp833
g531
I00
S'\x0c\x8d\xed]E\x13\x05@}\xe3=\x86jC\x1d\xc0\x8d}i\xe8\xda\xae\xe0?'
p834
tp835
bag521
(g522
(I0
tp836
g524
tp837
Rp838
(I1
(I3
tp839
g563
I00
S'h\xe5u\t\x19Z\x05@*\x05#\xa8W\x05\x1f\xc0\t\xdeI\x16\xa6\x8a\xee?'
p840
tp841
bag521
(g522
(I0
tp842
g524
tp843
Rp844
(I1
(I3
tp845
g563
I00
S'\x1c\xe9\xa4z+:\n@<P\xfc\xd1\x95\x81\x1f\xc0\x8a\xbf\x04\xe4\xa7Q\x9d\xbf'
p846
tp847
bag825
asbsVsquare_packing_box1
p848
(itrajectory_representation.operator
Operator
p849
(dp850
g510
I01
sg511
(dp851
g513
Vsquare_packing_box1
p852
ssg515
g516
sg517
(dp853
g519
(lp854
g521
(g522
(I0
tp855
g524
tp856
Rp857
(I1
(I3
tp858
g531
I00
S':I^\xea2k\x08@\xd6\xf0<\x8c\x08R\x16\xc0\xe8<*\xd6\x89\x1e\x8a?'
p859
tp860
bag521
(g522
(I0
tp861
g524
tp862
Rp863
(I1
(I3
tp864
g531
I00
S'&7zN^\x7f\x07@\x96A<\xb7\x01\xe2\x17\xc0\xae\x18\x08\xc6q\x9f\xed?'
p865
tp866
bag521
(g522
(I0
tp867
g524
tp868
Rp869
(I1
(I3
tp870
g531
I00
S'\xd8\x1c\x0c\x8b\xd2\xe3\x07@y\xa0\xc1\x04\x82}\x16\xc0\xd3\x99e\xef\x1e!\xe0\xbf'
p871
tp872
basg548
I00
ssg549
(lp873
g521
(g522
(I0
tp874
g524
tp875
Rp876
(I1
(I3
tp877
g531
I00
S'\x0c\x8d\xed]E\x13\x05@}\xe3=\x86jC\x1d\xc0\x8d}i\xe8\xda\xae\xe0?'
p878
tp879
bag521
(g522
(I0
tp880
g524
tp881
Rp882
(I1
(I3
tp883
g563
I00
S'b\x95[\xf7r*\x00@:\x8f7a\xbf]\x1c\xc0\x98.\xce\xc6\x89M\xf2?'
p884
tp885
bag521
(g522
(I0
tp886
g524
tp887
Rp888
(I1
(I3
tp889
g563
I00
S'\xb1\x91\x83\xd6J:\x00@X\xbf\x9b\xa3\xf7;\x19\xc0\xb4\xa9\x94\xff\xff\xd1\xec?'
p890
tp891
bag521
(g522
(I0
tp892
g524
tp893
Rp894
(I1
(I3
tp895
g563
I00
S'\xfe\xe8\x18\xb9\x80t\x02@\xc8\xc9\x8bB\xfe\x86\x16\xc0\x19\xcf\xcc\xc3%!\x9e\xbf'
p896
tp897
bag869
asbsVsquare_packing_box4
p898
(itrajectory_representation.operator
Operator
p899
(dp900
g510
I01
sg511
(dp901
g513
Vsquare_packing_box4
p902
ssg515
g516
sg517
(dp903
g519
(lp904
g521
(g522
(I0
tp905
g524
tp906
Rp907
(I1
(I3
tp908
g531
I00
S'\xc8@\x86\xcei\xc9\xa4?\xd4\xc4+\x19#\xbe\x19\xc0\x89\xc85\xcd\x91\xb3\x01\xc0'
p909
tp910
bag521
(g522
(I0
tp911
g524
tp912
Rp913
(I1
(I3
tp914
g531
I00
S'`g\xa4\n\x03\x04\x8e?\xe0\xdc\x97\xbaM>\x1a\xc0\x0b6\x12\xa8\xe6\x13\x05\xc0'
p915
tp916
bag521
(g522
(I0
tp917
g524
tp918
Rp919
(I1
(I3
tp920
g531
I00
S'\xacB\x8f\xb3\x0f\xf0\xcc?\x91\x8f\xc5d\x90\xad\x1d\xc0d\xd48\xa8\x9a\xec\x03@'
p921
tp922
basg548
I00
ssg549
(lp923
g521
(g522
(I0
tp924
g524
tp925
Rp926
(I1
(I3
tp927
g531
I00
S'\x0c\x8d\xed]E\x13\x05@}\xe3=\x86jC\x1d\xc0\x8d}i\xe8\xda\xae\xe0?'
p928
tp929
bag521
(g522
(I0
tp930
g524
tp931
Rp932
(I1
(I3
tp933
g563
I00
S'\tAsXx\r\x00@F^\x05/\xfdK\x1d\xc0~\xbbB\x0f\xbe\xe6\xd2?'
p934
tp935
bag521
(g522
(I0
tp936
g524
tp937
Rp938
(I1
(I3
tp939
g563
I00
S'\xad\xa0\xdfFH\xe9\xf6?\xa3\xfc\x14D\x8bb\x1d\xc0\x9e2hH\xc0\xe5\xf0?'
p940
tp941
bag521
(g522
(I0
tp942
g524
tp943
Rp944
(I1
(I3
tp945
g563
I00
S'j\x90aN\xc4\xbd\xea?\xe8\x8a\xf4\xd5\xa3\x14\x1f\xc0\x8d)|\x00uw\xe1\xbf'
p946
tp947
bag521
(g522
(I0
tp948
g524
tp949
Rp950
(I1
(I3
tp951
g563
I00
S'\x138\xde\xf8\x80\xc4\xdb?\xb0\xa4\x99\x1dq\x81\x1c\xc0\xc06d\xa1\x11\xde\x10@'
p952
tp953
bag913
asbssS'use_prm'
p954
I01
sS'object_names'
p955
(lp956
S'square_packing_box1'
p957
aS'rectangular_packing_box1'
p958
aS'square_packing_box2'
p959
aS'rectangular_packing_box2'
p960
aS'square_packing_box3'
p961
aS'rectangular_packing_box3'
p962
aS'square_packing_box4'
p963
aS'rectangular_packing_box4'
p964
asg7
NsS'current_holding_collides'
p965
(dp966
Vrectangular_packing_box4
p967
c__builtin__
set
p968
((lp969
tp970
Rp971
sVrectangular_packing_box2
p972
g968
((lp973
I235
aI132
aI517
aI6
aI7
aI8
aI301
aI554
aI404
aI416
aI33
aI34
aI584
aI42
aI43
aI44
aI45
aI456
aI309
aI55
aI56
aI186
aI187
aI189
aI449
aI459
aI196
aI71
aI72
aI202
aI203
aI162
aI595
aI84
aI93
aI94
aI95
aI327
aI484
aI233
aI106
aI107
aI108
aI497
aI503
aI234
aI383
atp974
Rp975
sVrectangular_packing_box3
p976
g968
((lp977
I4
aI5
aI134
aI136
aI137
aI523
aI580
aI276
aI132
aI155
aI157
aI133
aI416
aI34
aI35
aI165
aI166
aI296
aI553
aI517
aI176
aI456
aI308
aI310
aI163
aI448
aI262
aI459
aI196
aI197
aI70
aI328
aI201
aI202
aI203
aI162
aI584
aI570
aI80
aI81
aI82
aI83
aI84
aI597
aI93
aI607
aI355
aI229
aI362
aI107
aI240
aI595
aI547
aI251
aI252
atp978
Rp979
sVrectangular_packing_box1
p980
g968
((lp981
I384
aI257
aI134
aI135
aI265
aI532
aI580
aI154
aI158
aI159
aI164
aI433
aI564
aI521
aI575
aI452
aI583
aI328
aI589
aI346
aI478
aI356
aI229
aI366
aI502
atp982
Rp983
sVsquare_packing_box2
p984
g968
((lp985
I491
aI7
aI137
aI138
aI139
aI275
aI152
aI153
aI417
aI166
aI424
aI198
aI349
aI350
aI351
aI233
aI362
aI235
aI503
aI249
aI234
aI383
atp986
Rp987
sVsquare_packing_box3
p988
g968
((lp989
I513
aI386
aI387
aI268
aI270
aI405
aI280
aI548
aI425
aI307
aI565
aI438
aI442
aI573
aI193
aI210
aI211
aI212
aI213
aI343
aI473
aI220
aI479
aI354
aI612
aI614
aI500
aI245
aI246
aI340
aI381
aI254
aI255
atp990
Rp991
sVsquare_packing_box1
p992
g968
((lp993
I0
aI1
aI546
aI454
aI369
aI393
aI555
aI403
aI367
aI144
aI368
aI370
aI371
aI545
aI342
aI473
aI377
aI378
aI571
aI541
aI474
atp994
Rp995
sVsquare_packing_box4
p996
g968
((lp997
I553
aI164
aI197
aI356
aI394
aI452
aI589
aI366
aI580
aI433
aI575
aI502
aI521
aI153
aI154
aI155
aI157
aI478
aI229
atp998
Rp999
ssS'reachable_regions_while_holding'
p1000
(lp1001
(g507
g15
tp1002
a(g580
g15
tp1003
a(g630
g15
tp1004
a(g698
g15
tp1005
a(g742
g15
tp1006
a(g804
g15
tp1007
a(g848
g15
tp1008
a(g898
g15
tp1009
asS'object_poses'
p1010
(dp1011
Vrectangular_packing_box4
p1012
g521
(g522
(I0
tp1013
g524
tp1014
Rp1015
(I1
(I1
I3
tp1016
g531
I00
S'\xe4W\xa7\x10\xc3e\x07@\x94}\xbeu6r\x19\xc0\xad:\x8b\x17\x14\x19\x0b@'
p1017
tp1018
bsVrectangular_packing_box2
p1019
g521
(g522
(I0
tp1020
g524
tp1021
Rp1022
(I1
(I1
I3
tp1023
g531
I00
S'\xcb\xb9\xb1\x0b)s\xf1?\x02o~q\x05\x9b\x16\xc03\x0c\xdd\xb4Oa\x07@'
p1024
tp1025
bsVrectangular_packing_box3
p1026
g521
(g522
(I0
tp1027
g524
tp1028
Rp1029
(I1
(I1
I3
tp1030
g531
I00
S'\xf8;s\x1a%\xc6\xec?B\xa2\nh\xd5y\x1a\xc0\xaf\xb4\x82]r\xaf\x0f@'
p1031
tp1032
bsVrectangular_packing_box1
p1033
g521
(g522
(I0
tp1034
g524
tp1035
Rp1036
(I1
(I1
I3
tp1037
g531
I00
S'\xe8\xcf\x1c\x93R\x99\xc3\xbf\x18\x8e-j\x81\xe4\x1e\xc0\x8e[\xa1wxy\x07@'
p1038
tp1039
bsVsquare_packing_box2
p1040
g521
(g522
(I0
tp1041
g524
tp1042
Rp1043
(I1
(I1
I3
tp1044
g531
I00
S'\x00\xf8B%Z)\xcb\xbf\xf8\x9e\x92g.<\x17\xc0k\x08\x03\x15\xf7\x0f\x06@'
p1045
tp1046
bsVsquare_packing_box3
p1047
g521
(g522
(I0
tp1048
g524
tp1049
Rp1050
(I1
(I1
I3
tp1051
g531
I00
S'\xb0@\xb4\x99\xe1\x14\x0c@_~|0\x84\xbf\x1c\xc0\xc7\xd1Y^\x95T\x12@'
p1052
tp1053
bsVsquare_packing_box1
p1054
g521
(g522
(I0
tp1055
g524
tp1056
Rp1057
(I1
(I1
I3
tp1058
g531
I00
S'\xae\xf7\x17|\xb4[\r@\xd8\xfd\xf5\xc3/|\x16\xc0\x8fQ`\x01\xeb\x04\x0b@'
p1059
tp1060
bsVsquare_packing_box4
p1061
g521
(g522
(I0
tp1062
g524
tp1063
Rp1064
(I1
(I1
I3
tp1065
g531
I00
S'\xd6X2\xb2\xb1\x0e\xd9\xbf\x8a\x06\\\x12X\x97\x1c\xc0y\xda\x87\xea"\xed\x10@'
p1066
tp1067
bssS'place_in_way'
p1068
(itrajectory_representation.predicates.place_in_way
PlaceInWay
p1069
(dp1070
S'mc_path_to_entity'
p1071
(dp1072
(g30
g11
tp1073
(lp1074
g521
(g522
(I0
tp1075
g524
tp1076
Rp1077
(I1
(I3
tp1078
g531
I00
S'\xe0\x81s2xD\xd0?h\x03\xed\x02\x06q\x1c\xc0\xa9\xb0\xf8\xe0\x14\x92\xeb?'
p1079
tp1080
bag521
(g522
(I0
tp1081
g524
tp1082
Rp1083
(I1
(I3
tp1084
g563
I00
S'\x00{\xeeM\xfb\x06\xd8?\xa7W\x1e\xc1\xa5F\x1b\xc0\xd0\xcaV\x8a\x88D\xf6?'
p1085
tp1086
bag521
(g522
(I0
tp1087
g524
tp1088
Rp1089
(I1
(I3
tp1090
g563
I00
S'B\x9aa8\x98\xa6\xe8?\xf3\xe9\x94/\xc2\xe4\x18\xc0u\xf8\xb0\x7fO\xb8\xf2?'
p1091
tp1092
bag521
(g522
(I0
tp1093
g524
tp1094
Rp1095
(I1
(I3
tp1096
g563
I00
S'\xd8\x87\x03p)T\xe4?\xd5\xabI\xb7V\xd0\x15\xc0vWg\x9a\x87\x8a\xec?'
p1097
tp1098
bag521
(g522
(I0
tp1099
g524
tp1100
Rp1101
(I1
(I3
tp1102
g563
I00
S'\xa9\xd9\x1d\x8d\xa6j\xdf?\xa0\x85\x1a\x84\xc6\xec\x12\xc0\x01\xb6 H\xb1\x91\xeb?'
p1103
tp1104
bag521
(g522
(I0
tp1105
g524
tp1106
Rp1107
(I1
(I3
tp1108
g563
I00
S'\x93k\xbc\xee\xc2\x10\xe8?\xab^\x86?\x08D\x10\xc0\x10;2\x00\xe5\t\xde?'
p1109
tp1110
bag521
(g522
(I0
tp1111
g524
tp1112
Rp1113
(I1
(I3
tp1114
g563
I00
S'\xef\xc3u*\xfb\xdb\xeb?\x8d\xa5\n\xfd\x03<\n\xc0\xd8\xfb\xde\x16R\xac\xde?'
p1115
tp1116
bag521
(g522
(I0
tp1117
g524
tp1118
Rp1119
(I1
(I3
tp1120
g563
I00
S'\xf4\xfdJ\x1a(#\xec?H"\x9cD\x1aE\x05\xc0.\xa9\x0b\x87\xf8\xe1\x02@'
p1121
tp1122
bas(g23
g11
tp1123
(lp1124
g521
(g522
(I0
tp1125
g524
tp1126
Rp1127
(I1
(I3
tp1128
g531
I00
S'\x80?\x86\xcei\xc9\xa4?\xd2\xc4+\x19#\xbe\x19\xc0\xd4H\xa9m2H\x10@'
p1129
tp1130
bag521
(g522
(I0
tp1131
g524
tp1132
Rp1133
(I1
(I3
tp1134
g563
I00
S'\xd0\x185\xfd);\xc3?\x1c\xdfM\xe9\x03\xf1\x16\xc0y\xe4\x94w\xb3\xb2\x08\xc0'
p1135
tp1136
bag521
(g522
(I0
tp1137
g524
tp1138
Rp1139
(I1
(I3
tp1140
g563
I00
S'K\x19\xdd\x9a\xe6\xce\xe9?\xe1\x08\xb9\xe6+\xc9\x15\xc0\xeeN\x0e\xdd1/\x08\xc0'
p1141
tp1142
bag521
(g522
(I0
tp1143
g524
tp1144
Rp1145
(I1
(I3
tp1146
g563
I00
S'\x16nfXE \xf2?\x06\xf1|#c\xe6\x12\xc08\x98\x8f,\xc1@\x04\xc0'
p1147
tp1148
bag521
(g522
(I0
tp1149
g524
tp1150
Rp1151
(I1
(I3
tp1152
g563
I00
S'\xc1E\xbb\x1b\xed\x13\xf3?\xca\xdcw\xec\x1a\x18\x10\xc0j\xed\xec2j\x8c\x04\xc0'
p1153
tp1154
bag521
(g522
(I0
tp1155
g524
tp1156
Rp1157
(I1
(I3
tp1158
g563
I00
S'\xf09\xb6\x1c*\x86\xee?\xc4\n/\x96\xcb\xe3\n\xc0\xa0\xc9\xd6F6\x0f\x00\xc0'
p1159
tp1160
bag521
(g522
(I0
tp1161
g524
tp1162
Rp1163
(I1
(I3
tp1164
g563
I00
S'3\xe9\xaf\x05T\x89\xe7?+~\xcb\xd3\x15\xc7\x04\xc0x6(d5\xed\x07@'
p1165
tp1166
bas(g33
g11
tp1167
(lp1168
g521
(g522
(I0
tp1169
g524
tp1170
Rp1171
(I1
(I3
tp1172
g531
I00
S"\x1cTr\x8bW\xcd\x07@O\x94\x1eG\xa9L\x16\xc0\x02\x98\t'\x82\x1a\x12@"
p1173
tp1174
bag521
(g522
(I0
tp1175
g524
tp1176
Rp1177
(I1
(I3
tp1178
g563
I00
S'\xe6rt0\xc6`\x05@\xe8\xf6\xaa\xc7\x03\x10\x17\xc0v\x9e\xc9\x80o\x15\xed\xbf'
p1179
tp1180
bag521
(g522
(I0
tp1181
g524
tp1182
Rp1183
(I1
(I3
tp1184
g563
I00
S'!\x83\xc0\xf3W\x85\xff?\xed\x8f\x90/y\xfd\x16\xc06jP\xfe\x98\xf5\xf4\xbf'
p1185
tp1186
bag521
(g522
(I0
tp1187
g524
tp1188
Rp1189
(I1
(I3
tp1190
g563
I00
S'2Z\xe1\xe97J\xf6?\\\x1e`@2v\x16\xc0\xc4\x0c\xcc\x14<\xf9\xf6\xbf'
p1191
tp1192
bag521
(g522
(I0
tp1193
g524
tp1194
Rp1195
(I1
(I3
tp1196
g563
I00
S'tx\x8as\xa8b\xed?\x9ej\x15\xfa\xf0{\x15\xc0@\xed\x9a-\x9eD\xf2\xbf'
p1197
tp1198
bag521
(g522
(I0
tp1199
g524
tp1200
Rp1201
(I1
(I3
tp1202
g563
I00
S"\xb2&6mg)\xe8?\x99\xe0G'\x16\xe0\x13\xc0\xc8oL\xf5\x17p\xe6\xbf"
p1203
tp1204
bag521
(g522
(I0
tp1205
g524
tp1206
Rp1207
(I1
(I3
tp1208
g563
I00
S'`\xc8Aw-\x81\xeb?/\xc3\xe6O\x04\xca\x10\xc0\x8a\xb7K)\x91{\xe4\xbf'
p1209
tp1210
bag521
(g522
(I0
tp1211
g524
tp1212
Rp1213
(I1
(I3
tp1214
g563
I00
S'\xe1\xc6\xc7\xa7\x12X\xe7?\x98\x99\xb0\x9a\xfb\xdb\x0b\xc0R\t\x1b)\xeae\xe0\xbf'
p1215
tp1216
bag521
(g522
(I0
tp1217
g524
tp1218
Rp1219
(I1
(I3
tp1220
g563
I00
S'p\xf1\xbdc^\x84\xf1?"\x88LL\xf9D\x06\xc0~w\r\xe9m\x0f\x19@'
p1221
tp1222
bas(g14
g11
tp1223
(lp1224
g521
(g522
(I0
tp1225
g524
tp1226
Rp1227
(I1
(I3
tp1228
g531
I00
S';I^\xea2k\x08@\xd6\xf0<\x8c\x08R\x16\xc0\n=*\xd6\x89\x1e\x8a?'
p1229
tp1230
bag521
(g522
(I0
tp1231
g524
tp1232
Rp1233
(I1
(I3
tp1234
g563
I00
S'\x00O\xfd4U\xed\x06@>#>\xa9c\x95\x18\xc0\xeb\xe4n\xb8\x98\xa5\xc9\xbf'
p1235
tp1236
bag521
(g522
(I0
tp1237
g524
tp1238
Rp1239
(I1
(I3
tp1240
g563
I00
S'\x00\xda\x1c<\xfd\xdc\x00@j"\x91\xe3 \x1a\x18\xc0i~!@)\xb0\xdc\xbf'
p1241
tp1242
bag521
(g522
(I0
tp1243
g524
tp1244
Rp1245
(I1
(I3
tp1246
g563
I00
S'v%D\x97w\xd1\xf7?Z\xadP\x90\x08<\x17\xc0-\xca\x8a\t\xe2p\xe7\xbf'
p1247
tp1248
bag521
(g522
(I0
tp1249
g524
tp1250
Rp1251
(I1
(I3
tp1252
g563
I00
S'tx\x8as\xa8b\xed?\x9ej\x15\xfa\xf0{\x15\xc0@\xed\x9a-\x9eD\xf2\xbf'
p1253
tp1254
bag521
(g522
(I0
tp1255
g524
tp1256
Rp1257
(I1
(I3
tp1258
g563
I00
S"\xb2&6mg)\xe8?\x99\xe0G'\x16\xe0\x13\xc0\xc8oL\xf5\x17p\xe6\xbf"
p1259
tp1260
bag521
(g522
(I0
tp1261
g524
tp1262
Rp1263
(I1
(I3
tp1264
g563
I00
S'`\xc8Aw-\x81\xeb?/\xc3\xe6O\x04\xca\x10\xc0\x8a\xb7K)\x91{\xe4\xbf'
p1265
tp1266
bag521
(g522
(I0
tp1267
g524
tp1268
Rp1269
(I1
(I3
tp1270
g563
I00
S'\xe1\xc6\xc7\xa7\x12X\xe7?\x98\x99\xb0\x9a\xfb\xdb\x0b\xc0R\t\x1b)\xeae\xe0\xbf'
p1271
tp1272
bag521
(g522
(I0
tp1273
g524
tp1274
Rp1275
(I1
(I3
tp1276
g563
I00
S'p\xf1\xbdc^\x84\xf1?"\x88LL\xf9D\x06\xc0~w\r\xe9m\x0f\x19@'
p1277
tp1278
bas(g22
g11
tp1279
(lp1280
g521
(g522
(I0
tp1281
g524
tp1282
Rp1283
(I1
(I3
tp1284
g531
I00
S'\xa0\x8e\xd2\x9f\x15I\xda?$\xb2\xd5q<N\x18\xc0X\xff\xd5R\xb2\x0f\x03@'
p1285
tp1286
bag521
(g522
(I0
tp1287
g524
tp1288
Rp1289
(I1
(I3
tp1290
g563
I00
S'f\xb4\x9c\x07\xac\xbf\xec?n\x96\x96\x9e\x90n\x16\xc0uo!\xa9\x9b\x82\x07@'
p1291
tp1292
bag521
(g522
(I0
tp1293
g524
tp1294
Rp1295
(I1
(I3
tp1296
g563
I00
S'm\xd5h\x072\x03\xea?\xdf\xe5\xe82\xd3\x17\x14\xc0\x08\x9e\xe1\xfbO\x94\x08@'
p1297
tp1298
bag521
(g522
(I0
tp1299
g524
tp1300
Rp1301
(I1
(I3
tp1302
g563
I00
S'\xc6\x05\xbdtg\xd9\xe2?F\xdf\x9d@\\\xf3\x11\xc0\x1a\xc4.\xbb\xcc\x12\x02@'
p1303
tp1304
bag521
(g522
(I0
tp1305
g524
tp1306
Rp1307
(I1
(I3
tp1308
g563
I00
S'3z\xed\x8eN)\xe4?\x0c\x96\xd4\xa2\x0e\xd0\r\xc0\xbd%\xf5{\xe9\xf9\x03@'
p1309
tp1310
bag521
(g522
(I0
tp1311
g524
tp1312
Rp1313
(I1
(I3
tp1314
g563
I00
S'\xaf0\xe9h\xba~\xee?k\xbb\xd8\xd4\xd0g\t\xc09\x9ey\xed\xb06\x06@'
p1315
tp1316
bag521
(g522
(I0
tp1317
g524
tp1318
Rp1319
(I1
(I3
tp1320
g563
I00
S'\xf4\xfdJ\x1a(#\xec?H"\x9cD\x1aE\x05\xc0.\xa9\x0b\x87\xf8\xe1\x02@'
p1321
tp1322
bas(g19
g11
tp1323
(lp1324
g521
(g522
(I0
tp1325
g524
tp1326
Rp1327
(I1
(I3
tp1328
g531
I00
S'\xd8[\xe1\xa4\xcf\x08\xe6?\x8d`\x1a\xe3\xb1\xdc\x1e\xc0\xe4\x92g\x8f\xd4%\x05@'
p1329
tp1330
bag521
(g522
(I0
tp1331
g524
tp1332
Rp1333
(I1
(I3
tp1334
g563
I00
S'\x0c\x0f=\x82\xe8\x10\xef?\x95;\xd2\x17&\xe7\x1b\xc0\xf2\xbb\xbd\xb4q\x0b\t@'
p1335
tp1336
bag521
(g522
(I0
tp1337
g524
tp1338
Rp1339
(I1
(I3
tp1340
g563
I00
S'\xae\xea\x9e\xa3\xa2\xb1\xed?\xa4\xca\x1d?h\x96\x19\xc0dq\xdf\xb1\x9d\xe4\x05@'
p1341
tp1342
bag521
(g522
(I0
tp1343
g524
tp1344
Rp1345
(I1
(I3
tp1346
g563
I00
S'o\xd6\x82\xea\x7f\xb2\xed?9\xf2C\x0b?\xfd\x16\xc0(?d\xe9@\xb5\x02@'
p1347
tp1348
bag521
(g522
(I0
tp1349
g524
tp1350
Rp1351
(I1
(I3
tp1352
g563
I00
S'&>c9\x01,\xeb?\xb2\xc2\xf0\x02\xce\x8e\x14\xc0\xd8p\xbb2\x14\xd2\x03@'
p1353
tp1354
bag521
(g522
(I0
tp1355
g524
tp1356
Rp1357
(I1
(I3
tp1358
g563
I00
S'\xc6\x05\xbdtg\xd9\xe2?F\xdf\x9d@\\\xf3\x11\xc0\x1a\xc4.\xbb\xcc\x12\x02@'
p1359
tp1360
bag521
(g522
(I0
tp1361
g524
tp1362
Rp1363
(I1
(I3
tp1364
g563
I00
S'3z\xed\x8eN)\xe4?\x0c\x96\xd4\xa2\x0e\xd0\r\xc0\xbd%\xf5{\xe9\xf9\x03@'
p1365
tp1366
bag521
(g522
(I0
tp1367
g524
tp1368
Rp1369
(I1
(I3
tp1370
g563
I00
S'\xaf0\xe9h\xba~\xee?k\xbb\xd8\xd4\xd0g\t\xc09\x9ey\xed\xb06\x06@'
p1371
tp1372
bag521
(g522
(I0
tp1373
g524
tp1374
Rp1375
(I1
(I3
tp1376
g563
I00
S'\xf4\xfdJ\x1a(#\xec?H"\x9cD\x1aE\x05\xc0.\xa9\x0b\x87\xf8\xe1\x02@'
p1377
tp1378
bas(g46
g11
tp1379
(lp1380
g521
(g522
(I0
tp1381
g524
tp1382
Rp1383
(I1
(I3
tp1384
g531
I00
S'\xaa\x91d&]\xf4\r@\x02\x16bSUi\x19\xc0R\x945\x02\x9f|\x11@'
p1385
tp1386
bag521
(g522
(I0
tp1387
g524
tp1388
Rp1389
(I1
(I3
tp1390
g563
I00
S'\x9c\xd4w\x9c\x04/\t@\x8b\xccu\xcb^\x9d\x18\xc0*\x8aycbt\xf5\xbf'
p1391
tp1392
bag521
(g522
(I0
tp1393
g524
tp1394
Rp1395
(I1
(I3
tp1396
g563
I00
S'\x02:\xde\x84?\xc0\x03@\x16\xfaJE\x8a\x0f\x19\xc0\x13\xc0\x8b\x01\x1d?\xf4\xbf'
p1397
tp1398
bag521
(g522
(I0
tp1399
g524
tp1400
Rp1401
(I1
(I3
tp1402
g563
I00
S'!\x83\xc0\xf3W\x85\xff?\xed\x8f\x90/y\xfd\x16\xc06jP\xfe\x98\xf5\xf4\xbf'
p1403
tp1404
bag521
(g522
(I0
tp1405
g524
tp1406
Rp1407
(I1
(I3
tp1408
g563
I00
S'2Z\xe1\xe97J\xf6?\\\x1e`@2v\x16\xc0\xc4\x0c\xcc\x14<\xf9\xf6\xbf'
p1409
tp1410
bag521
(g522
(I0
tp1411
g524
tp1412
Rp1413
(I1
(I3
tp1414
g563
I00
S'tx\x8as\xa8b\xed?\x9ej\x15\xfa\xf0{\x15\xc0@\xed\x9a-\x9eD\xf2\xbf'
p1415
tp1416
bag521
(g522
(I0
tp1417
g524
tp1418
Rp1419
(I1
(I3
tp1420
g563
I00
S"\xb2&6mg)\xe8?\x99\xe0G'\x16\xe0\x13\xc0\xc8oL\xf5\x17p\xe6\xbf"
p1421
tp1422
bag521
(g522
(I0
tp1423
g524
tp1424
Rp1425
(I1
(I3
tp1426
g563
I00
S'`\xc8Aw-\x81\xeb?/\xc3\xe6O\x04\xca\x10\xc0\x8a\xb7K)\x91{\xe4\xbf'
p1427
tp1428
bag521
(g522
(I0
tp1429
g524
tp1430
Rp1431
(I1
(I3
tp1432
g563
I00
S'\xe1\xc6\xc7\xa7\x12X\xe7?\x98\x99\xb0\x9a\xfb\xdb\x0b\xc0R\t\x1b)\xeae\xe0\xbf'
p1433
tp1434
bag521
(g522
(I0
tp1435
g524
tp1436
Rp1437
(I1
(I3
tp1438
g563
I00
S'p\xf1\xbdc^\x84\xf1?"\x88LL\xf9D\x06\xc0~w\r\xe9m\x0f\x19@'
p1439
tp1440
bas(g10
g11
tp1441
(lp1442
g521
(g522
(I0
tp1443
g524
tp1444
Rp1445
(I1
(I3
tp1446
g531
I00
S'\xd6\x9e\x88\x0e\xab1\xd6?\xd1\xc5\xc4\xc3\xe0;\x17\xc0\xa7\xbc\x016\xe1Z\xd2?'
p1447
tp1448
bag521
(g522
(I0
tp1449
g524
tp1450
Rp1451
(I1
(I3
tp1452
g563
I00
S'\xe4\x9e\xb7\xac\xe0!\xeb?\x8a\x83\x10\xb1\xa2\xad\x15\xc0\x9aS\xfbY\xaf\x8f\xd2\xbf'
p1453
tp1454
bag521
(g522
(I0
tp1455
g524
tp1456
Rp1457
(I1
(I3
tp1458
g563
I00
S"\xb2&6mg)\xe8?\x99\xe0G'\x16\xe0\x13\xc0\xc8oL\xf5\x17p\xe6\xbf"
p1459
tp1460
bag521
(g522
(I0
tp1461
g524
tp1462
Rp1463
(I1
(I3
tp1464
g563
I00
S'`\xc8Aw-\x81\xeb?/\xc3\xe6O\x04\xca\x10\xc0\x8a\xb7K)\x91{\xe4\xbf'
p1465
tp1466
bag521
(g522
(I0
tp1467
g524
tp1468
Rp1469
(I1
(I3
tp1470
g563
I00
S'\xe1\xc6\xc7\xa7\x12X\xe7?\x98\x99\xb0\x9a\xfb\xdb\x0b\xc0R\t\x1b)\xeae\xe0\xbf'
p1471
tp1472
bag521
(g522
(I0
tp1473
g524
tp1474
Rp1475
(I1
(I3
tp1476
g563
I00
S'p\xf1\xbdc^\x84\xf1?"\x88LL\xf9D\x06\xc0~w\r\xe9m\x0f\x19@'
p1477
tp1478
bassS'mc_to_entity'
p1479
(dp1480
(g30
g11
tp1481
(lp1482
Vsquare_packing_box4
p1483
aVrectangular_packing_box2
p1484
as(g23
g11
tp1485
(lp1486
Vsquare_packing_box2
p1487
aVrectangular_packing_box2
p1488
as(g33
g11
tp1489
(lp1490
Vrectangular_packing_box2
p1491
as(g14
g11
tp1492
(lp1493
Vrectangular_packing_box4
p1494
aVrectangular_packing_box2
p1495
as(g22
g11
tp1496
(lp1497
Vrectangular_packing_box2
p1498
as(g19
g11
tp1499
(lp1500
Vrectangular_packing_box3
p1501
aVrectangular_packing_box2
p1502
as(g46
g11
tp1503
(lp1504
Vrectangular_packing_box4
p1505
aVrectangular_packing_box2
p1506
as(g10
g11
tp1507
(lp1508
Vsquare_packing_box2
p1509
assS'reachable_entities'
p1510
(lp1511
g507
ag580
ag630
ag698
ag742
ag804
ag848
ag898
asS'collides'
p1512
(dp1513
Vrectangular_packing_box4
p1514
g968
((lp1515
I2
aI179
aI435
aI144
aI403
aI548
aI37
aI38
aI39
aI348
aI302
aI303
aI561
aI178
aI307
aI54
aI442
aI62
aI63
aI64
aI577
aI194
aI438
aI376
aI342
aI343
aI89
aI90
aI219
aI220
aI605
aI611
aI612
aI550
aI367
aI114
aI500
aI247
aI248
aI377
aI379
aI511
atp1516
Rp1517
sVrectangular_packing_box2
p1518
g968
((lp1519
I235
aI132
aI517
aI8
aI416
aI33
aI34
aI554
aI43
aI44
aI301
aI584
aI55
aI56
aI186
aI187
aI189
aI449
aI459
aI196
aI71
aI456
aI202
aI203
aI162
aI93
aI94
aI95
aI327
aI484
aI233
aI106
aI107
aI108
aI497
aI234
atp1520
Rp1521
sVrectangular_packing_box3
p1522
g968
((lp1523
I4
aI5
aI134
aI136
aI137
aI523
aI276
aI132
aI157
aI133
aI34
aI35
aI165
aI166
aI296
aI176
aI584
aI308
aI310
aI163
aI262
aI197
aI70
aI456
aI162
aI81
aI82
aI83
aI84
aI597
aI93
aI607
aI355
aI107
aI570
aI251
aI252
atp1524
Rp1525
sVrectangular_packing_box1
p1526
g968
((lp1527
I257
aI164
aI229
aI583
aI328
aI265
aI452
aI589
aI366
aI564
aI580
aI532
aI478
aI502
aI356
aI575
aI158
aI159
atp1528
Rp1529
sVsquare_packing_box2
p1530
g968
((lp1531
I417
aI491
aI503
aI198
aI7
aI424
aI138
aI139
aI362
aI275
aI249
aI152
aI153
aI383
aI349
aI350
aI351
atp1532
Rp1533
sVsquare_packing_box3
p1534
g968
((lp1535
I268
aI270
aI405
aI280
aI548
aI307
aI565
aI438
aI442
aI193
aI210
aI211
aI212
aI213
aI343
aI473
aI220
aI479
aI354
aI614
aI500
aI245
aI246
aI381
aI254
atp1536
Rp1537
sVsquare_packing_box1
p1538
g968
((lp1539
I0
aI1
aI546
aI545
aI555
aI403
aI367
aI368
aI369
aI370
aI371
aI342
aI377
aI378
aI571
aI541
aI474
atp1540
Rp1541
sVsquare_packing_box4
p1542
g968
((lp1543
I164
aI452
aI229
aI553
aI394
aI589
aI580
aI502
aI356
aI155
aI478
aI575
atp1544
Rp1545
ssg2
g3
sg505
g506
sS'mc_paths'
p1546
(dp1547
sS'robot'
p1548
NsS'reachable_obj_region_pairs'
p1549
(lp1550
sS'sampled_pick_configs_for_objects'
p1551
(dp1552
sS'mc_calls'
p1553
I0
sS'pick_poses'
p1554
g506
sg7
NsS'evaluations'
p1555
(dp1556
(g19
g10
g11
tp1557
I01
s(g22
g10
g11
tp1558
I01
s(g10
g46
g11
tp1559
I00
s(g33
g22
g11
tp1560
I00
s(g46
g14
g11
tp1561
I00
s(g23
g22
g11
tp1562
I01
s(g14
g30
g11
tp1563
I00
s(g46
g10
g11
tp1564
I01
s(g33
g23
g11
tp1565
I00
s(g22
g14
g11
tp1566
I00
s(g19
g14
g11
tp1567
I00
s(g19
g33
g11
tp1568
I00
s(g22
g30
g11
tp1569
I00
s(g33
g46
g11
tp1570
I00
s(g46
g30
g11
tp1571
I00
s(g23
g46
g11
tp1572
I00
s(g14
g10
g11
tp1573
I01
s(g46
g23
g11
tp1574
I00
s(g10
g19
g11
tp1575
I00
s(g30
g14
g11
tp1576
I00
s(g23
g19
g11
tp1577
I00
s(g46
g33
g11
tp1578
I01
s(g10
g14
g11
tp1579
I00
s(g30
g33
g11
tp1580
I00
s(g10
g23
g11
tp1581
I00
s(g33
g19
g11
tp1582
I00
s(g14
g19
g11
tp1583
I00
s(g30
g46
g11
tp1584
I00
s(g30
g19
g11
tp1585
I00
s(g46
g19
g11
tp1586
I00
s(g23
g10
g11
tp1587
I01
s(g33
g10
g11
tp1588
I01
s(g19
g23
g11
tp1589
I00
s(g22
g19
g11
tp1590
I00
s(g23
g33
g11
tp1591
I00
s(g30
g23
g11
tp1592
I01
s(g22
g33
g11
tp1593
I00
s(g46
g22
g11
tp1594
I00
s(g14
g22
g11
tp1595
I00
s(g22
g23
g11
tp1596
I00
s(g23
g30
g11
tp1597
I00
s(g14
g46
g11
tp1598
I00
s(g22
g46
g11
tp1599
I00
s(g33
g30
g11
tp1600
I00
s(g19
g46
g11
tp1601
I00
s(g19
g30
g11
tp1602
I01
s(g30
g10
g11
tp1603
I01
s(g10
g22
g11
tp1604
I01
s(g33
g14
g11
tp1605
I00
s(g14
g23
g11
tp1606
I00
s(g23
g14
g11
tp1607
I00
s(g14
g33
g11
tp1608
I01
s(g10
g33
g11
tp1609
I00
s(g30
g22
g11
tp1610
I00
s(g10
g30
g11
tp1611
I00
s(g19
g22
g11
tp1612
I00
ssS'paths_to_reachable_entities'
p1613
NsS'use_shortest_path'
p1614
I01
sbsS'cached_pick_paths'
p1615
(dp1616
g507
g550
sg580
g605
sg630
g655
sg698
g723
sg742
g767
sg804
g829
sg848
g873
sg898
g923
ssg1512
(dp1617
(Vsquare_packing_box2
p1618
(cnumpy.core.multiarray
scalar
p1619
(g531
S'?8\x9f:V)\xcb\xbf'
p1620
tp1621
Rp1622
g1619
(g531
S'\x18\xd0\x0bw.<\x17\xc0'
p1623
tp1624
Rp1625
g1619
(g531
S'\x1d\x940\xd3\xf6\x0f\x06@'
p1626
tp1627
Rp1628
tp1629
tp1630
g1533
s(Vrectangular_packing_box4
p1631
(g1619
(g531
S'y\x07x\xd2\xc2e\x07@'
p1632
tp1633
Rp1634
g1619
(g531
S'\x7fNA~6r\x19\xc0'
p1635
tp1636
Rp1637
g1619
(g531
S'\xf0P\x14\xe8\x13\x19\x0b@'
p1638
tp1639
Rp1640
tp1641
tp1642
g1517
s(Vrectangular_packing_box1
p1643
(g1619
(g531
S'\xc2\x16\xbb}V\x99\xc3\xbf'
p1644
tp1645
Rp1646
g1619
(g531
S'\xdch\x00o\x81\xe4\x1e\xc0'
p1647
tp1648
Rp1649
g1619
(g531
S'3\x15\xe2\x91xy\x07@'
p1650
tp1651
Rp1652
tp1653
tp1654
g1529
s(Vsquare_packing_box4
p1655
(g1619
(g531
S']\x87jJ\xb2\x0e\xd9\xbf'
p1656
tp1657
Rp1658
g1619
(g531
S'\xa3\xc9\xc5\x18X\x97\x1c\xc0'
p1659
tp1660
Rp1661
g1619
(g531
S'\xf4\xc2\x9d\x0b#\xed\x10@'
p1662
tp1663
Rp1664
tp1665
tp1666
g1545
s(Vsquare_packing_box3
p1667
(g1619
(g531
S'of\xf4\xa3\xe1\x14\x0c@'
p1668
tp1669
Rp1670
g1619
(g531
S'\xc2\xbe\x9dD\x84\xbf\x1c\xc0'
p1671
tp1672
Rp1673
g1619
(g531
S'\xb4wF[\x95T\x12@'
p1674
tp1675
Rp1676
tp1677
tp1678
g1537
s(Vrectangular_packing_box3
p1679
(g1619
(g531
S'\xab\x94\x9e\xe9%\xc6\xec?'
p1680
tp1681
Rp1682
g1619
(g531
S'"\xc6k^\xd5y\x1a\xc0'
p1683
tp1684
Rp1685
g1619
(g531
S'~\xc5\x1a.r\xaf\x0f@'
p1686
tp1687
Rp1688
tp1689
tp1690
g1525
s(Vsquare_packing_box1
p1691
(g1619
(g531
S'n\xa4l\x91\xb4[\r@'
p1692
tp1693
Rp1694
g1619
(g531
S'\xa6(\x97\xc6/|\x16\xc0'
p1695
tp1696
Rp1697
g1619
(g531
S'R\xd2\xc3\xd0\xea\x04\x0b@'
p1698
tp1699
Rp1700
tp1701
tp1702
g1541
s(Vrectangular_packing_box2
p1703
(g1619
(g531
S'\xc1n\xd8\xb6(s\xf1?'
p1704
tp1705
Rp1706
g1619
(g531
S'\x03\x07\xb4t\x05\x9b\x16\xc0'
p1707
tp1708
Rp1709
g1619
(g531
S'7\x8eX\x8bOa\x07@'
p1710
tp1711
Rp1712
tp1713
tp1714
g1521
ssS'state_saver'
p1715
(igtamp_utils.utils
CustomStateSaver
p1716
(dp1717
S'robot_base_pose'
p1718
g521
(g522
(I0
tp1719
g524
tp1720
Rp1721
(I1
(I1
I3
tp1722
g531
I00
S'\x0c\x8d\xed]E\x13\x05@~\xe3=\x86jC\x1d\xc0\x8d}i\xe8\xda\xae\xe0?'
p1723
tp1724
bsS'held_object'
p1725
NsS'robot_name'
p1726
S'pr2'
p1727
sS'env_id'
p1728
I1
sg1010
(dp1729
Vright_wall_1
p1730
g521
(g522
(I0
tp1731
g524
tp1732
Rp1733
(I1
(I4
tp1734
g531
I00
S'H\xe1z\x14\xaeG\x12@&\\\x8f\xc2\xf5(\xd4\xbf\xcc\x7fH\xbf}\x1d\xed?\x00\x00\x00\x00\x00\x00\x00\x00'
p1735
tp1736
bsVc_obst5
p1737
g521
(g522
(I0
tp1738
g524
tp1739
Rp1740
(I1
(I4
tp1741
g531
I00
S"\xfb\x0cU\xc7\xd9\x98\x12@\xb2<\xe9DB\xba\xe0?e\xaa`TR'\xed?}\x06{Ld\xa8\x15@"
p1742
tp1743
bsVentrance_right
p1744
g521
(g522
(I0
tp1745
g524
tp1746
Rp1747
(I1
(I4
tp1748
g531
I00
S'ffffff\n@H\xe1z\x14\xaeG\t\xc0\x9c\xc4 \xb0rh\xc1?\x00\x00\x00\x00\x00\x00\x00\x00'
p1749
tp1750
bsVcomputer_table
p1751
g521
(g522
(I0
tp1752
g524
tp1753
Rp1754
(I1
(I4
tp1755
g531
I00
S'\x00\x00\x00\x00\x00\x00\x13@\x00\x00\x00\x00\x00\x00\xf8\xbf\x96C\x8bl\xe7\xfb\xe7?\xd2!3\x7f|\xd9\x12@'
p1756
tp1757
bsVchair_6b56
p1758
g521
(g522
(I0
tp1759
g524
tp1760
Rp1761
(I1
(I4
tp1762
g531
I00
S'y=\n\xd7\xa3p\xf5?M\xe1z\x14\xaeG\xd1?\x00\x00\x00\x00\x00\x00\x00\x00\xd6$\xfaNBm\n@'
p1763
tp1764
bsVsquare_packing_box3
p1765
g521
(g522
(I0
tp1766
g524
tp1767
Rp1768
(I1
(I4
tp1769
g531
I00
S'\xa6@\xb4\x99\xe1\x14\x0c@]~|0\x84\xbf\x1c\xc0L7\x89A`\xe5\xd8?\xc7\xd1Y^\x95T\x12@'
p1770
tp1771
bsVsquare_packing_box2
p1772
g521
(g522
(I0
tp1773
g524
tp1774
Rp1775
(I1
(I4
tp1776
g531
I00
S'\xf0\xf7B%Z)\xcb\xbf\xf8\x9e\x92g.<\x17\xc0L7\x89A`\xe5\xd8?k\x08\x03\x15\xf7\x0f\x06@'
p1777
tp1778
bsVtable
p1779
g521
(g522
(I0
tp1780
g524
tp1781
Rp1782
(I1
(I4
tp1783
g531
I00
S'\x7f\xf6#EdX\xed?\xac\xffs\x98//\xc0\xbf\x00\x00\x00\x00\x00\x00\x00\x00\x00\x00\x00\x00\x00\x00\x00\x00'
p1784
tp1785
bsVsquare_packing_box1
p1786
g521
(g522
(I0
tp1787
g524
tp1788
Rp1789
(I1
(I4
tp1790
g531
I00
S'\xb5\xf7\x17|\xb4[\r@\xde\xfd\xf5\xc3/|\x16\xc0L7\x89A`\xe5\xd8?\x8fQ`\x01\xeb\x04\x0b@'
p1791
tp1792
bsVback_wall_2
p1793
g521
(g522
(I0
tp1794
g524
tp1795
Rp1796
(I1
(I4
tp1797
g531
I00
S'\xaeG\xe1z\x14.\x13@\x80\x14\xaeG\xe1z\xc4?xX\xa85\xcd\xbb\xf2?\x00\x00\x00\x00\x00\x00\x00\x00'
p1798
tp1799
bsVchair_083c
p1800
g521
(g522
(I0
tp1801
g524
tp1802
Rp1803
(I1
(I4
tp1804
g531
I00
S'\xa4p=\n\xd7\xa3\xe0?333333\xe3\xbf\x00\x00\x00\x00\x00\x00\x00\x00\x00\x00\x00\x00\x00\x00\x00\x00'
p1805
tp1806
bsVback_wall_1
p1807
g521
(g522
(I0
tp1808
g524
tp1809
Rp1810
(I1
(I4
tp1811
g531
I00
S'\xaeG\xe1z\x14.\x13@\x80\x14\xaeG\xe1z\xc4?\xcc\x7fH\xbf}\x1d\xed?\x00\x00\x00\x00\x00\x00\x00\x00'
p1812
tp1813
bsVbottom_wall
p1814
g521
(g522
(I0
tp1815
g524
tp1816
Rp1817
(I1
(I4
tp1818
g531
I00
S'\x00\x00\x00\x00\x00\x00\xfc?\x00\x00\x00\x00\x00\x00\x00\x00\x00\x00\x00\x00\x00\x00\x00\x00\x00\x00\x00\x00\x00\x00\x00\x00'
p1819
tp1820
bsVcup_905a
p1821
g521
(g522
(I0
tp1822
g524
tp1823
Rp1824
(I1
(I4
tp1825
g531
I00
S'\x00\x00\x00\x00\x00\x00\xf0?\x83\xc0\xca\xa1E\xb6\xdb?\x1b/\xdd$\x06\x81\xed?\x00\x00\x00\x00\x00\x00\x00\x00'
p1826
tp1827
bsVplate_496f
p1828
g521
(g522
(I0
tp1829
g524
tp1830
Rp1831
(I1
(I4
tp1832
g531
I00
S"q=\n\xd7\xa3p\xe5?\x9dhW!\xe5'\xdd\xbf\x1b/\xdd$\x06\x81\xed?\x00\x00\x00\x00\x00\x00\x00\x00"
p1833
tp1834
bsVtoaster
p1835
g521
(g522
(I0
tp1836
g524
tp1837
Rp1838
(I1
(I4
tp1839
g531
I00
S')\\\x8f\xc2\xf5(\xf4\xbf\xe0z\x14\xaeG\xe1\xf2\xbf\xb8\x1e\x85\xebQ\xb8\xee?\x89/`\x9b\xf8\x8a\xe4?'
p1840
tp1841
bsVc_obst1
p1842
g521
(g522
(I0
tp1843
g524
tp1844
Rp1845
(I1
(I4
tp1846
g531
I00
S"L\xc7\x95$\xbfT\x12@8\xc5\n\xc1\xf2\x9d\xdd?e\xaa`TR'\xed?Q\xd7F\x8c\xaf\x93\xee?"
p1847
tp1848
bsVrectangular_packing_box4
p1849
g521
(g522
(I0
tp1850
g524
tp1851
Rp1852
(I1
(I4
tp1853
g531
I00
S'\xe4W\xa7\x10\xc3e\x07@\x94}\xbeu6r\x19\xc0L7\x89A`\xe5\xd8?\xad:\x8b\x17\x14\x19\x0b@'
p1854
tp1855
bsVmicrowave
p1856
g521
(g522
(I0
tp1857
g524
tp1858
Rp1859
(I1
(I4
tp1860
g531
I00
S'\x9a\x99\x99\x99\x99\x99\xf1\xbf\x00\x00\x00\x00\x00\x00\x00@7\x89A`\xe5\xd0\xee?\x00\x00\x00\x00\x00\x00\x00\x00'
p1861
tp1862
bsVc_obst7
p1863
g521
(g522
(I0
tp1864
g524
tp1865
Rp1866
(I1
(I4
tp1867
g531
I00
S"\x86\xdccLT^\x12@p3\xe5\xc2\x99\xf8\xc1\xbfe\xaa`TR'\xed?\xca_\xe5\xb5\xbcG\x03@"
p1868
tp1869
bsVc_obst6
p1870
g521
(g522
(I0
tp1871
g524
tp1872
Rp1873
(I1
(I4
tp1874
g531
I00
S"\x06C\x0f\x90\xaeH\x12@\x00S\x1aD\xcbL\xa9?e\xaa`TR'\xed?d\x9b\xcb\x98n4\x00@"
p1875
tp1876
bsVcup_b6af
p1877
g521
(g522
(I0
tp1878
g524
tp1879
Rp1880
(I1
(I4
tp1881
g531
I00
S'R\xb8\x1e\x85\xebQ\xe8?\x9a\x99\x99\x99\x99\x99\xe1?\x1b/\xdd$\x06\x81\xed?\x00\x00\x00\x00\x00\x00\x00\x00'
p1882
tp1883
bsVc_obst4
p1884
g521
(g522
(I0
tp1885
g524
tp1886
Rp1887
(I1
(I4
tp1888
g531
I00
S"\xdd\xe0\xab\xb3\x1e\x84\x12@\xbc:\xc6M[\x1b\xcc?e\xaa`TR'\xed?\xf1'D~&\xd5\x07@"
p1889
tp1890
bsVrectangular_packing_box2
p1891
g521
(g522
(I0
tp1892
g524
tp1893
Rp1894
(I1
(I4
tp1895
g531
I00
S'\xcb\xb9\xb1\x0b)s\xf1?\x02o~q\x05\x9b\x16\xc0L7\x89A`\xe5\xd8?3\x0c\xdd\xb4Oa\x07@'
p1896
tp1897
bsVplate_fa76
p1898
g521
(g522
(I0
tp1899
g524
tp1900
Rp1901
(I1
(I4
tp1902
g531
I00
S'=\n\xd7\xa3p=\xf2?\x00\x00\x00\x00\x00\x00\x00\x00\x1b/\xdd$\x06\x81\xed?\x00\x00\x00\x00\x00\x00\x00\x00'
p1903
tp1904
bsVfloorwalls
p1905
g521
(g522
(I0
tp1906
g524
tp1907
Rp1908
(I1
(I4
tp1909
g531
I00
S'\xc7\xcc\xcc\xcc\xcc\xcc\xfc?\x00\x00\x00\x00\x00\x00\x18\xc0H\xe1z\x14\xaeG\xc1?\x16-DT\xfb!\xf9?'
p1910
tp1911
bsVpin_c671
p1912
g521
(g522
(I0
tp1913
g524
tp1914
Rp1915
(I1
(I4
tp1916
g531
I00
S'\xc3\xf5(\\\x8f\xc2\xf1\xbf}?5^\xbaI\x02@\xb8\x1e\x85\xebQ\xb8\xfa?\x00\x00\x00\x00\x00\x00\x00\x00'
p1917
tp1918
bsVc_obst3
p1919
g521
(g522
(I0
tp1920
g524
tp1921
Rp1922
(I1
(I4
tp1923
g531
I00
S"<\xf2t.\xc1`\x12@\xd0\xd6\x1f\x94\xd8l\xc2?e\xaa`TR'\xed?7\x9d\xe7j\xae\x7f\x16@"
p1924
tp1925
bsVchair_2e39
p1926
g521
(g522
(I0
tp1927
g524
tp1928
Rp1929
(I1
(I4
tp1930
g531
I00
S'hfffff\xee?`fffff\xf2\xbf\x00\x00\x00\x00\x00\x00\x00\x00\x07M\xe8QQF\xf3?'
p1931
tp1932
bsVentrance_left
p1933
g521
(g522
(I0
tp1934
g524
tp1935
Rp1936
(I1
(I4
tp1937
g531
I00
S'\x98\x99\x99\x99\x99\x99\xe9\xbfH\xe1z\x14\xaeG\t\xc0\x9c\xc4 \xb0rh\xc1?\x00\x00\x00\x00\x00\x00\x00\x00'
p1938
tp1939
bsVtop_wall_1
p1940
g521
(g522
(I0
tp1941
g524
tp1942
Rp1943
(I1
(I4
tp1944
g531
I00
S'H\xe1z\x14\xaeG\x12@\x80\x14\xaeG\xe1z\xc4?xX\xa85\xcd\xbb\xf2?\x00\x00\x00\x00\x00\x00\x00\x00'
p1945
tp1946
bsVrectangular_packing_box3
p1947
g521
(g522
(I0
tp1948
g524
tp1949
Rp1950
(I1
(I4
tp1951
g531
I00
S'\x10<s\x1a%\xc6\xec?B\xa2\nh\xd5y\x1a\xc0L7\x89A`\xe5\xd8?\xaf\xb4\x82]r\xaf\x0f@'
p1952
tp1953
bsVshaker
p1954
g521
(g522
(I0
tp1955
g524
tp1956
Rp1957
(I1
(I4
tp1958
g531
I00
S'\n\xd7\xa3p=\n\x01@\x14\xaeG\xe1z\x14\x02@\\\x8f\xc2\xf5(\\\xef?\x00\x00\x00\x00\x00\x00\x00\x00'
p1959
tp1960
bsVc_obst9
p1961
g521
(g522
(I0
tp1962
g524
tp1963
Rp1964
(I1
(I4
tp1965
g531
I00
S"\xba\xd7J\xeb\xcd\x16\x12@\x00\xb2\x8f\xffx\xbf\xb9\xbfe\xaa`TR'\xed?j\xff\x18\x95\xb3\xe1\x05@"
p1966
tp1967
bsVplate_835a
p1968
g521
(g522
(I0
tp1969
g524
tp1970
Rp1971
(I1
(I4
tp1972
g531
I00
S'\xf6(\\\x8f\xc2\xf5\xf0?\\\x8f\xc2\xf5(\\\xe7\xbf\x1b/\xdd$\x06\x81\xed?\x00\x00\x00\x00\x00\x00\x00\x00'
p1973
tp1974
bsVcup_58a2
p1975
g521
(g522
(I0
tp1976
g524
tp1977
Rp1978
(I1
(I4
tp1979
g531
I00
S'\x85\xebQ\xb8\x1e\x85\xe3?\xcd\xcc\xcc\xcc\xcc\xcc\xdc?\x1b/\xdd$\x06\x81\xed?\x00\x00\x00\x00\x00\x00\x00\x00'
p1980
tp1981
bsVleft_wall_1
p1982
g521
(g522
(I0
tp1983
g524
tp1984
Rp1985
(I1
(I4
tp1986
g531
I00
S'H\xe1z\x14\xaeG\x12@S\xb8\x1e\x85\xebQ\xe4?\xcc\x7fH\xbf}\x1d\xed?\x00\x00\x00\x00\x00\x00\x00\x00'
p1987
tp1988
bsVc_obst2
p1989
g521
(g522
(I0
tp1990
g524
tp1991
Rp1992
(I1
(I4
tp1993
g531
I00
S"/\x08\x91\xf7\x1b;\x12@\xc0J\xa3\xd0\xed\xc9\xa3\xbfe\xaa`TR'\xed?\x9f-xb\xe8\xd3\x06@"
p1994
tp1995
bsVsquare_packing_box4
p1996
g521
(g522
(I0
tp1997
g524
tp1998
Rp1999
(I1
(I4
tp2000
g531
I00
S'\x96X2\xb2\xb1\x0e\xd9\xbf\x8a\x06\\\x12X\x97\x1c\xc0L7\x89A`\xe5\xd8?y\xda\x87\xea"\xed\x10@'
p2001
tp2002
bsVrectangular_packing_box1
p2003
g521
(g522
(I0
tp2004
g524
tp2005
Rp2006
(I1
(I4
tp2007
g531
I00
S'\xf8\xcf\x1c\x93R\x99\xc3\xbf\x1e\x8e-j\x81\xe4\x1e\xc0L7\x89A`\xe5\xd8?\x8e[\xa1wxy\x07@'
p2008
tp2009
bsVpin_371e
p2010
g521
(g522
(I0
tp2011
g524
tp2012
Rp2013
(I1
(I4
tp2014
g531
I00
S'333333\xf3\xbfffffff\xf6?\xb8\x1e\x85\xebQ\xb8\xee?\x00\x00\x00\x00\x00\x00\x00\x00'
p2015
tp2016
bsVfridge
p2017
g521
(g522
(I0
tp2018
g524
tp2019
Rp2020
(I1
(I4
tp2021
g531
I00
S'\xd7\xa3p=\n\xd7\xeb\xbf\x00\x00\x00\x00\x00\x00\x00\xc0\xcd\xcc\xcc\xcc\xcc\xcc\xf8?\x00\x00\x00\x00\x00\x00\x00\x00'
p2022
tp2023
bsVcup_d441
p2024
g521
(g522
(I0
tp2025
g524
tp2026
Rp2027
(I1
(I4
tp2028
g531
I00
S'\n\xd7\xa3p=\n\xef?\x8f\xc2\xf5(\\\x8f\xe2?\x1b/\xdd$\x06\x81\xed?\x00\x00\x00\x00\x00\x00\x00\x00'
p2029
tp2030
bsVshelf2
p2031
g521
(g522
(I0
tp2032
g524
tp2033
Rp2034
(I1
(I4
tp2035
g531
I00
S'\x00\x00\x00\x00\x00\x00\x0e@\xaeG\xe1z\x14\xae\x07@\x9c\xc4 \xb0rh\xc1?\xd2!3\x7f|\xd9\x12@'
p2036
tp2037
bsVtop_wall_2
p2038
g521
(g522
(I0
tp2039
g524
tp2040
Rp2041
(I1
(I4
tp2042
g531
I00
S'H\xe1z\x14\xaeG\x12@\x80\x14\xaeG\xe1z\xc4?\x16HP\xfc\x18\xf3\xfd?\x00\x00\x00\x00\x00\x00\x00\x00'
p2043
tp2044
bsVc_obst0
p2045
g521
(g522
(I0
tp2046
g524
tp2047
Rp2048
(I1
(I4
tp2049
g531
I00
S"+\xfaNdK\x8d\x12@\xd6\xc9\xae\xcd\x92\xaa\xd8?e\xaa`TR'\xed?|\xc5a\x89\xcc\x04\xfd?"
p2050
tp2051
bsVshelf1
p2052
g521
(g522
(I0
tp2053
g524
tp2054
Rp2055
(I1
(I4
tp2056
g531
I00
S'\x00\x00\x00\x00\x00\x00\x13@\xaeG\xe1z\x14\xae\x07@\x9c\xc4 \xb0rh\xc1?\xd2!3\x7f|\xd9\x12@'
p2057
tp2058
bsVsink
p2059
g521
(g522
(I0
tp2060
g524
tp2061
Rp2062
(I1
(I4
tp2063
g531
I00
S'ffffff\xd6?333333\x01@\x9a\x99\x99\x99\x99\x99\xb9\xbf\x00\x00\x00\x00\x00\x00\x00\x00'
p2064
tp2065
bsVpr2
p2066
g521
(g522
(I0
tp2067
g524
tp2068
Rp2069
(I1
(I4
tp2070
g531
I00
S'\x0c\x8d\xed]E\x13\x05@~\xe3=\x86jC\x1d\xc0\x9a_\x94\xa0\xbf\xd0\xc1?\x8d}i\xe8\xda\xae\xe0?'
p2071
tp2072
bsVchair_12d0
p2073
g521
(g522
(I0
tp2074
g524
tp2075
Rp2076
(I1
(I4
tp2077
g531
I00
S'^\xd2\x18\xad\xa3\xaa\xdb?Pf\x83L2r\xc6?\x00\x00\x00\x00\x00\x00\x00\x00\xf8\x81\r\x14M\xa6\x17@'
p2078
tp2079
bsVright_wall_2
p2080
g521
(g522
(I0
tp2081
g524
tp2082
Rp2083
(I1
(I4
tp2084
g531
I00
S'H\xe1z\x14\xaeG\x12@&\\\x8f\xc2\xf5(\xd4\xbfxX\xa85\xcd\xbb\xf2?\x00\x00\x00\x00\x00\x00\x00\x00'
p2085
tp2086
bsVknife_block
p2087
g521
(g522
(I0
tp2088
g524
tp2089
Rp2090
(I1
(I4
tp2091
g531
I00
S'R\xb8\x1e\x85\xebQ\xe0\xbfffffff\x02@`\xe5\xd0"\xdb\xf9\xee?\x00\x00\x00\x00\x00\x00\x00\x00'
p2092
tp2093
bsVleft_wall_2
p2094
g521
(g522
(I0
tp2095
g524
tp2096
Rp2097
(I1
(I4
tp2098
g531
I00
S'H\xe1z\x14\xaeG\x12@S\xb8\x1e\x85\xebQ\xe4?xX\xa85\xcd\xbb\xf2?\x00\x00\x00\x00\x00\x00\x00\x00'
p2099
tp2100
bsVleft_wall
p2101
g521
(g522
(I0
tp2102
g524
tp2103
Rp2104
(I1
(I4
tp2105
g531
I00
S'\x9a\x99\x99\x99\x99\x99\x07@H\xe1z\x14\xaeG\xff?\x9c\xc4 \xb0rh\xc1?\x00\x00\x00\x00\x00\x00\x00\x00'
p2106
tp2107
bsVkitchen
p2108
g521
(g522
(I0
tp2109
g524
tp2110
Rp2111
(I1
(I4
tp2112
g531
I00
S'\x00\x00\x00\x00\x00\x00\x00\x00\x00\x00\x00\x00\x00\x00\x00\x00\x00\x00\x00\x00\x00\x00\x00\x00\x00\x00\x00\x00\x00\x00\x00\x00'
p2113
tp2114
bsVtable2
p2115
g521
(g522
(I0
tp2116
g524
tp2117
Rp2118
(I1
(I4
tp2119
g531
I00
S'\x00\x00\x00\x00\x00\x00\x13@\x80\x14\xaeG\xe1z\xc4?S\x96!\x8euq\xec?\xd2!3\x7f|\xd9\x12@'
p2120
tp2121
bsVc_obst8
p2122
g521
(g522
(I0
tp2123
g524
tp2124
Rp2125
(I1
(I4
tp2126
g531
I00
S"\xf7\xe1\xc5\x9b\x12W\x12@\xe8\xec\x9fR\xa8I\xd4?e\xaa`TR'\xed?\x80\xce\xdbNMi\x18@"
p2127
tp2128
bsVplate_b4e7
p2129
g521
(g522
(I0
tp2130
g524
tp2131
Rp2132
(I1
(I4
tp2133
g531
I00
S'\x14\xaeG\xe1z\x14\xf2\xbf\x14\xaeG\xe1z\x14\x00@=\n\xd7\xa3p=\xf2?\x00\x00\x00\x00\x00\x00\x00\x00'
p2134
tp2135
bsVcooker
p2136
g521
(g522
(I0
tp2137
g524
tp2138
Rp2139
(I1
(I4
tp2140
g531
I00
S'\xaeG\xe1z\x14\xae\xff?\x85\xebQ\xb8\x1e\x85\xfb?\x00\x00\x00\x00\x00\x00\xe8?\x00\x00\x00\x00\x00\x00\x00\x00'
p2141
tp2142
bsVpin_a091
p2143
g521
(g522
(I0
tp2144
g524
tp2145
Rp2146
(I1
(I4
tp2147
g531
I00
S'\xdb\xf9~j\xbct\xf7\xbf)\\\x8f\xc2\xf5(\x02@\xb8\x1e\x85\xebQ\xb8\xfa?\x00\x00\x00\x00\x00\x00\x00\x00'
p2148
tp2149
bsVside_wall_2
p2150
g521
(g522
(I0
tp2151
g524
tp2152
Rp2153
(I1
(I4
tp2154
g531
I00
S'\xf6\xff\xff\xff\xff\xff\x14@\x00\x00\x00\x00\x00\x00\x00\x00\x9c\xc4 \xb0rh\xc1?\x18-DT\xfb!\xf9?'
p2155
tp2156
bsVside_wall_3
p2157
g521
(g522
(I0
tp2158
g524
tp2159
Rp2160
(I1
(I4
tp2161
g531
I00
S'\x00\x00\x00\x00\x00\x00\xfc?H\xe1z\x14\xaeG\t@\x9c\xc4 \xb0rh\xc1?\x00\x00\x00\x00\x00\x00\x00\x00'
p2162
tp2163
bsVmixer
p2164
g521
(g522
(I0
tp2165
g524
tp2166
Rp2167
(I1
(I4
tp2168
g531
I00
S'\n\xd7\xa3p=\n\xfb?ffffff\x02@d;\xdfO\x8d\x97\xee?\x00\x00\x00\x00\x00\x00\x00\x00'
p2169
tp2170
bsVside_wall_1
p2171
g521
(g522
(I0
tp2172
g524
tp2173
Rp2174
(I1
(I4
tp2175
g531
I00
S'\xec\xff\xff\xff\xff\xff\xfb\xbf\x00\x00\x00\x00\x00\x00\x00\x00\x9c\xc4 \xb0rh\xc1?\x18-DT\xfb!\xf9?'
p2176
tp2177
bsVbottom_wall_1
p2178
g521
(g522
(I0
tp2179
g524
tp2180
Rp2181
(I1
(I4
tp2182
g531
I00
S'H\xe1z\x14\xaeG\x12@\x80\x14\xaeG\xe1z\xc4?\xcc\x7fH\xbf}\x1d\xed?\x00\x00\x00\x00\x00\x00\x00\x00'
p2183
tp2184
bsVcan
p2185
g521
(g522
(I0
tp2186
g524
tp2187
Rp2188
(I1
(I4
tp2189
g531
I00
S'\x00\x00\x00\x00\x00\x00\xf4\xbfH\xe1z\x14\xaeG\xe1\xbf\n\xd7\xa3p=\n\xef?\x00\x00\x00\x00\x00\x00\x00\x00'
p2190
tp2191
bsVright_wall
p2192
g521
(g522
(I0
tp2193
g524
tp2194
Rp2195
(I1
(I4
tp2196
g531
I00
S'\x9a\x99\x99\x99\x99\x99\x07@H\xe1z\x14\xaeG\xff\xbf\x9c\xc4 \xb0rh\xc1?\x00\x00\x00\x00\x00\x00\x00\x00'
p2197
tp2198
bsVcoffe_machine
p2199
g521
(g522
(I0
tp2200
g524
tp2201
Rp2202
(I1
(I4
tp2203
g531
I00
S'\\\x8f\xc2\xf5(\\\xf5\xbf\xb8\x1e\x85\xebQ\xb8\xee?\n\xd7\xa3p=\n\xef?\x00\x00\x00\x00\x00\x00\x00\x00'
p2204
tp2205
bsVcomputer_chair
p2206
g521
(g522
(I0
tp2207
g524
tp2208
Rp2209
(I1
(I4
tp2210
g531
I00
S'\xcd\xcc\xcc\xcc\xcc\xcc\x10@\x00\x00\x00\x00\x00\x00\xf8\xbf\xa00\xb6\x10\xe4\xa9\x95\xbf\x00\x00\x00\x00\x00\x00\x00\x00'
p2211
tp2212
bssS'robot_dof_values'
p2213
g521
(g522
(I0
tp2214
g524
tp2215
Rp2216
(I1
(I39
tp2217
g531
I00
S'\x00\x00\x00\x00\x00\x00\x00\x00\x00\x00\x00\x00\x00\x00\x00\x00\x00\x00\x00\x00\x00\x00\x00\x00\x00\x00\x00\x00\x00\x00\x00\x00\x00\x00\x00\x00\x00\x00\x00\x00\x00\x00\x00\x00\x00\x00\x00\x00\x00\x00\x00\x00\x00\x00\x00\x00\x00\x00\x00\x00\x00\x00\x00\x00\x00\x00\x00\x00\x00\x00\x00\x00\x00\x00\x00\x00\x00\x00\x00\x00\x00\x00\x00\x00\x00\x00\x00\x00\x00\x00\x00\x00\x00\x00\x00\x00@d;\xdfO\x8d\x87?\x00\x00\x00\x00\x00\x00\x00\x00\x00\x00\x00\x00\x00\x00\x00\x00\x00\x00\x00\x00\x00\x00\x00\x00\xec\xed\t\xf1\xcc\xa4\xf4?\x00\x00\x00\x00\x00\x00\xc0<O"\xd0^p\xf8\x00\xc0\x00\x00\x00\x00\x00\x00\x00\x00\x9a\x03\r.\x04V\xe6\xbf\x00\x00\x00\x00\x00\x00\x00\x00\x00\x00\x00\x00\x00\x00\x00\x00\x00\x00\x00\x00\x00\x80\xd7\xbc\x04\x17\xb7\x19\xbc\xde\xba\xbc\x00\x00\x00\x00\x00\x00\xe8<\x00\x00\x00\x00\x00\x00\x00\x00\x00\x00\x00\x00\x00\x00\x00\x00\xec\xed\t\xf1\xcc\xa4\xf4?\x00\x00\x00\x00\x00\x00\xc0\xbcN"\xd0^p\xf8\x00\xc0\x00\x00\x00\x00\x00\x00\x00\x00\xa2\x03\r.\x04V\xe6\xbf\x00\x00\x00\x00\x00\x00\x00\x00\xcd9\xe3\xc17\x89\xe1?\x00\x00\x00\x00\x00\x00\xac\xbcRT\xaf\x99\x8a\xcc\xa3\xbc\x00\x00\x00\x00\x00\x00\x00\x00\x00\x00\x00\x00\x00\x00\x00\x00'
p2218
tp2219
bsS'is_holding'
p2220
I00
sbsS'holding_collides'
p2221
(dp2222
(Vsquare_packing_box2
p2223
(g1619
(g531
S'?8\x9f:V)\xcb\xbf'
p2224
tp2225
Rp2226
g1619
(g531
S'\x18\xd0\x0bw.<\x17\xc0'
p2227
tp2228
Rp2229
g1619
(g531
S'\x1d\x940\xd3\xf6\x0f\x06@'
p2230
tp2231
Rp2232
tp2233
tp2234
g987
s(Vrectangular_packing_box4
p2235
(g1619
(g531
S'y\x07x\xd2\xc2e\x07@'
p2236
tp2237
Rp2238
g1619
(g531
S'\x7fNA~6r\x19\xc0'
p2239
tp2240
Rp2241
g1619
(g531
S'\xf0P\x14\xe8\x13\x19\x0b@'
p2242
tp2243
Rp2244
tp2245
tp2246
g971
s(Vrectangular_packing_box1
p2247
(g1619
(g531
S'\xc2\x16\xbb}V\x99\xc3\xbf'
p2248
tp2249
Rp2250
g1619
(g531
S'\xdch\x00o\x81\xe4\x1e\xc0'
p2251
tp2252
Rp2253
g1619
(g531
S'3\x15\xe2\x91xy\x07@'
p2254
tp2255
Rp2256
tp2257
tp2258
g983
s(Vsquare_packing_box4
p2259
(g1619
(g531
S']\x87jJ\xb2\x0e\xd9\xbf'
p2260
tp2261
Rp2262
g1619
(g531
S'\xa3\xc9\xc5\x18X\x97\x1c\xc0'
p2263
tp2264
Rp2265
g1619
(g531
S'\xf4\xc2\x9d\x0b#\xed\x10@'
p2266
tp2267
Rp2268
tp2269
tp2270
g999
s(Vsquare_packing_box3
p2271
(g1619
(g531
S'of\xf4\xa3\xe1\x14\x0c@'
p2272
tp2273
Rp2274
g1619
(g531
S'\xc2\xbe\x9dD\x84\xbf\x1c\xc0'
p2275
tp2276
Rp2277
g1619
(g531
S'\xb4wF[\x95T\x12@'
p2278
tp2279
Rp2280
tp2281
tp2282
g991
s(Vrectangular_packing_box3
p2283
(g1619
(g531
S'\xab\x94\x9e\xe9%\xc6\xec?'
p2284
tp2285
Rp2286
g1619
(g531
S'"\xc6k^\xd5y\x1a\xc0'
p2287
tp2288
Rp2289
g1619
(g531
S'~\xc5\x1a.r\xaf\x0f@'
p2290
tp2291
Rp2292
tp2293
tp2294
g979
s(Vsquare_packing_box1
p2295
(g1619
(g531
S'n\xa4l\x91\xb4[\r@'
p2296
tp2297
Rp2298
g1619
(g531
S'\xa6(\x97\xc6/|\x16\xc0'
p2299
tp2300
Rp2301
g1619
(g531
S'R\xd2\xc3\xd0\xea\x04\x0b@'
p2302
tp2303
Rp2304
tp2305
tp2306
g995
s(Vrectangular_packing_box2
p2307
(g1619
(g531
S'\xc1n\xd8\xb6(s\xf1?'
p2308
tp2309
Rp2310
g1619
(g531
S'\x03\x07\xb4t\x05\x9b\x16\xc0'
p2311
tp2312
Rp2313
g1619
(g531
S'7\x8eX\x8bOa\x07@'
p2314
tp2315
Rp2316
tp2317
tp2318
g975
ssS'parent_ternary_predicates'
p2319
(dp2320
sS'cached_place_paths'
p2321
(dp2322
(g698
g15
tp2323
(lp2324
g521
(g522
(I0
tp2325
g524
tp2326
Rp2327
(I1
(I3
tp2328
g531
I00
S'\xd8[\xe1\xa4\xcf\x08\xe6?\x8a`\x1a\xe3\xb1\xdc\x1e\xc0\xe4\x92g\x8f\xd4%\x05@'
p2329
tp2330
bas(g898
g11
tp2331
g1124
s(g507
g11
tp2332
g1168
s(g804
g15
tp2333
(lp2334
g521
(g522
(I0
tp2335
g524
tp2336
Rp2337
(I1
(I3
tp2338
g531
I00
S'\xb2\x91d&]\xf4\r@\x04\x16bSUi\x19\xc0R\x945\x02\x9f|\x11@'
p2339
tp2340
bas(g507
g15
tp2341
(lp2342
g521
(g522
(I0
tp2343
g524
tp2344
Rp2345
(I1
(I3
tp2346
g531
I00
S"\x17Tr\x8bW\xcd\x07@O\x94\x1eG\xa9L\x16\xc0\x03\x98\t'\x82\x1a\x12@"
p2347
tp2348
bas(g804
g11
tp2349
g1380
s(g742
g15
tp2350
(lp2351
g521
(g522
(I0
tp2352
g524
tp2353
Rp2354
(I1
(I3
tp2355
g531
I00
S'\xa0\x8e\xd2\x9f\x15I\xda?$\xb2\xd5q<N\x18\xc0X\xff\xd5R\xb2\x0f\x03@'
p2356
tp2357
bas(g742
g11
tp2358
g1280
s(g848
g11
tp2359
g1224
s(g630
g11
tp2360
g1074
s(g630
g15
tp2361
(lp2362
g521
(g522
(I0
tp2363
g524
tp2364
Rp2365
(I1
(I3
tp2366
g531
I00
S'\x04\x82s2xD\xd0?h\x03\xed\x02\x06q\x1c\xc0\xaa\xb0\xf8\xe0\x14\x92\xeb?'
p2367
tp2368
bas(g898
g15
tp2369
(lp2370
g521
(g522
(I0
tp2371
g524
tp2372
Rp2373
(I1
(I3
tp2374
g531
I00
S'\x00A\x86\xcei\xc9\xa4?\xd5\xc4+\x19#\xbe\x19\xc0\xd4H\xa9m2H\x10@'
p2375
tp2376
bas(g848
g15
tp2377
(lp2378
g521
(g522
(I0
tp2379
g524
tp2380
Rp2381
(I1
(I3
tp2382
g531
I00
S'=I^\xea2k\x08@\xd7\xf0<\x8c\x08R\x16\xc0`\x8c*\xd6\x89\x1e\x8a?'
p2383
tp2384
bas(g580
g15
tp2385
(lp2386
g521
(g522
(I0
tp2387
g524
tp2388
Rp2389
(I1
(I3
tp2390
g531
I00
S'\xcd\x9e\x88\x0e\xab1\xd6?\xce\xc5\xc4\xc3\xe0;\x17\xc0\xa3\xbc\x016\xe1Z\xd2?'
p2391
tp2392
bas(g580
g11
tp2393
g1442
s(g698
g11
tp2394
g1324
ssS'parent_binary_predicates'
p2395
(dp2396
sS'nodes'
p2397
(dp2398
g18
(lp2399
I0
aI0
aI0
aI0
aI0
aI0
aI00
aI01
aI00
aI01
aI00
asg15
(lp2400
I0
aI0
aI0
aI0
aI0
aI0
aI00
aI01
aI00
aI01
aI00
asg11
(lp2401
I0
aI0
aI0
aI0
aI0
aI0
aI00
aI01
aI01
aI01
aI00
asg33
(lp2402
I0
aI0
aI0
ag1619
(g531
S'8W\xa7\x10\xc3e\x07@'
p2403
tp2404
Rp2405
ag1619
(g531
S'\x18}\xbeu6r\x19\xc0'
p2406
tp2407
Rp2408
ag1619
(g531
S'\xad:\x8b\x17\x14\x19\x0b@'
p2409
tp2410
Rp2411
aI01
aI00
aI00
aI01
aI00
asg10
(lp2412
I0
aI0
aI0
ag1619
(g531
S'\xd9\xb9\xb1\x0b)s\xf1?'
p2413
tp2414
Rp2415
ag1619
(g531
S'\xe3n~q\x05\x9b\x16\xc0'
p2416
tp2417
Rp2418
ag1619
(g531
S'3\x0c\xdd\xb4Oa\x07@'
p2419
tp2420
Rp2421
aI01
aI00
aI00
aI01
aI00
asg30
(lp2422
I0
aI0
aI0
ag1619
(g531
S'\xf09s\x1a%\xc6\xec?'
p2423
tp2424
Rp2425
ag1619
(g531
S'#\xa2\nh\xd5y\x1a\xc0'
p2426
tp2427
Rp2428
ag1619
(g531
S'\xad\xb4\x82]r\xaf\x0f@'
p2429
tp2430
Rp2431
aI01
aI00
aI00
aI01
aI00
asg19
(lp2432
I0
aI0
aI0
ag1619
(g531
S'\x08\xce\x1c\x93R\x99\xc3\xbf'
p2433
tp2434
Rp2435
ag1619
(g531
S'\xb0\x89-j\x81\xe4\x1e\xc0'
p2436
tp2437
Rp2438
ag1619
(g531
S'\x8e[\xa1wxy\x07@'
p2439
tp2440
Rp2441
aI01
aI00
aI00
aI01
aI00
asg22
(lp2442
I0
aI0
aI0
ag1619
(g531
S'\xef\xf3B%Z)\xcb\xbf'
p2443
tp2444
Rp2445
ag1619
(g531
S'\xf2\x96\x92g.<\x17\xc0'
p2446
tp2447
Rp2448
ag1619
(g531
S'k\x08\x03\x15\xf7\x0f\x06@'
p2449
tp2450
Rp2451
aI01
aI00
aI00
aI01
aI00
asg46
(lp2452
I0
aI0
aI0
ag1619
(g531
S'eA\xb4\x99\xe1\x14\x0c@'
p2453
tp2454
Rp2455
ag1619
(g531
S'l~|0\x84\xbf\x1c\xc0'
p2456
tp2457
Rp2458
ag1619
(g531
S'\xc6\xd1Y^\x95T\x12@'
p2459
tp2460
Rp2461
aI01
aI00
aI00
aI01
aI00
asg14
(lp2462
I0
aI0
aI0
ag1619
(g531
S'\xb5\xf5\x17|\xb4[\r@'
p2463
tp2464
Rp2465
ag1619
(g531
S'K\xfc\xf5\xc3/|\x16\xc0'
p2466
tp2467
Rp2468
ag1619
(g531
S'\x8fQ`\x01\xeb\x04\x0b@'
p2469
tp2470
Rp2471
aI01
aI00
aI01
aI01
aI00
asg23
(lp2472
I0
aI0
aI0
ag1619
(g531
S'8^2\xb2\xb1\x0e\xd9\xbf'
p2473
tp2474
Rp2475
ag1619
(g531
S'F\x06\\\x12X\x97\x1c\xc0'
p2476
tp2477
Rp2478
ag1619
(g531
S'y\xda\x87\xea"\xed\x10@'
p2479
tp2480
Rp2481
aI01
aI00
aI00
aI01
aI00
assS'mc_place_path'
p2482
(dp2483
sS'parent_state'
p2484
NsS'goal_entities'
p2485
(lp2486
Vsquare_packing_box1
p2487
ag11
asS'binary_edges'
p2488
(dp2489
(g22
g23
tp2490
(lp2491
I00
aI00
aI00
as(g22
g33
tp2492
(lp2493
I00
aI00
aI00
as(g30
g46
tp2494
(lp2495
I00
aI00
aI00
as(g30
g30
tp2496
(lp2497
I00
aI00
aI00
as(g10
g46
tp2498
(lp2499
I00
aI00
aI00
as(g10
g30
tp2500
(lp2501
I00
aI00
aI00
as(g23
g10
tp2502
(lp2503
I00
aI00
aI00
as(g22
g14
tp2504
(lp2505
I00
aI00
aI00
as(g19
g30
tp2506
(lp2507
I00
aI00
aI00
as(g33
g33
tp2508
(lp2509
I00
aI00
aI00
as(g10
g15
tp2510
(lp2511
g1619
(g528
(S'b1'
p2512
I0
I1
tp2513
Rp2514
(I3
S'|'
p2515
NNNI-1
I-1
I0
tp2516
bS'\x01'
p2517
tp2518
Rp2519
aI00
aI01
as(g18
g15
tp2520
(lp2521
I00
aI00
aI00
as(g33
g23
tp2522
(lp2523
I00
aI00
aI00
as(g15
g23
tp2524
(lp2525
I00
aI00
aI00
as(g14
g11
tp2526
(lp2527
I00
aI00
aI00
as(g18
g10
tp2528
(lp2529
I00
aI00
aI00
as(g10
g23
tp2530
(lp2531
I00
aI00
aI00
as(g30
g18
tp2532
(lp2533
g2519
aI00
aI00
as(g22
g22
tp2534
(lp2535
I00
aI00
aI00
as(g15
g22
tp2536
(lp2537
I00
aI00
aI00
as(g46
g10
tp2538
(lp2539
I00
aI00
aI00
as(g10
g11
tp2540
(lp2541
I00
aI00
aI00
as(g19
g46
tp2542
(lp2543
I00
aI00
aI00
as(g33
g19
tp2544
(lp2545
I00
aI00
aI00
as(g14
g14
tp2546
(lp2547
I00
aI00
aI00
as(g10
g18
tp2548
(lp2549
g2519
aI00
aI00
as(g15
g10
tp2550
(lp2551
I00
aI00
aI00
as(g15
g46
tp2552
(lp2553
I00
aI00
aI00
as(g15
g30
tp2554
(lp2555
I00
aI00
aI00
as(g46
g11
tp2556
(lp2557
I00
aI00
aI00
as(g23
g33
tp2558
(lp2559
I00
aI00
aI00
as(g19
g33
tp2560
(lp2561
I00
aI00
aI00
as(g46
g19
tp2562
(lp2563
I00
aI00
aI00
as(g15
g33
tp2564
(lp2565
I00
aI00
aI00
as(g18
g11
tp2566
(lp2567
I00
aI00
aI00
as(g14
g10
tp2568
(lp2569
I00
aI00
aI00
as(g33
g46
tp2570
(lp2571
I00
aI00
aI00
as(g18
g46
tp2572
(lp2573
I00
aI00
aI00
as(g46
g18
tp2574
(lp2575
g2519
aI00
aI00
as(g30
g22
tp2576
(lp2577
I00
aI00
aI00
as(g23
g14
tp2578
(lp2579
I00
aI00
aI00
as(g30
g10
tp2580
(lp2581
I00
aI00
aI00
as(g23
g11
tp2582
(lp2583
I00
aI00
aI00
as(g18
g18
tp2584
(lp2585
I00
aI00
aI00
as(g46
g33
tp2586
(lp2587
I00
aI00
aI00
as(g14
g22
tp2588
(lp2589
I00
aI00
aI00
as(g11
g14
tp2590
(lp2591
I00
aI00
aI00
as(g19
g15
tp2592
(lp2593
g2519
aI00
aI01
as(g11
g19
tp2594
(lp2595
I00
aI00
aI00
as(g23
g30
tp2596
(lp2597
I00
aI00
aI00
as(g30
g14
tp2598
(lp2599
I00
aI00
aI00
as(g46
g15
tp2600
(lp2601
g2519
aI00
aI01
as(g30
g19
tp2602
(lp2603
I00
aI00
aI00
as(g46
g46
tp2604
(lp2605
I00
aI00
aI00
as(g19
g10
tp2606
(lp2607
I00
aI00
aI00
as(g15
g11
tp2608
(lp2609
I00
aI00
aI00
as(g11
g22
tp2610
(lp2611
I00
aI00
aI00
as(g33
g11
tp2612
(lp2613
I00
aI00
aI00
as(g18
g19
tp2614
(lp2615
I00
aI00
aI00
as(g11
g23
tp2616
(lp2617
I00
aI00
aI00
as(g30
g23
tp2618
(lp2619
I00
aI00
aI00
as(g19
g18
tp2620
(lp2621
g2519
aI00
aI00
as(g23
g15
tp2622
(lp2623
g2519
aI00
aI01
as(g19
g22
tp2624
(lp2625
I00
aI00
aI00
as(g33
g10
tp2626
(lp2627
I00
aI00
aI00
as(g33
g15
tp2628
(lp2629
g2519
aI00
aI01
as(g11
g30
tp2630
(lp2631
I00
aI00
aI00
as(g18
g23
tp2632
(lp2633
I00
aI00
aI00
as(g18
g33
tp2634
(lp2635
I00
aI00
aI00
as(g19
g11
tp2636
(lp2637
I00
aI00
aI00
as(g22
g19
tp2638
(lp2639
I00
aI00
aI00
as(g14
g19
tp2640
(lp2641
I00
aI00
aI00
as(g11
g46
tp2642
(lp2643
I00
aI00
aI00
as(g15
g15
tp2644
(lp2645
I00
aI00
aI00
as(g22
g30
tp2646
(lp2647
I00
aI00
aI00
as(g14
g46
tp2648
(lp2649
I00
aI00
aI00
as(g15
g14
tp2650
(lp2651
I00
aI00
aI00
as(g10
g33
tp2652
(lp2653
I00
aI00
aI00
as(g15
g19
tp2654
(lp2655
I00
aI00
aI00
as(g14
g18
tp2656
(lp2657
g2519
aI00
aI00
as(g22
g10
tp2658
(lp2659
I00
aI00
aI00
as(g30
g11
tp2660
(lp2661
I00
aI00
aI00
as(g14
g33
tp2662
(lp2663
I00
aI00
aI00
as(g33
g14
tp2664
(lp2665
I00
aI00
aI00
as(g10
g14
tp2666
(lp2667
I00
aI00
aI00
as(g18
g22
tp2668
(lp2669
I00
aI00
aI00
as(g10
g19
tp2670
(lp2671
I00
aI00
aI00
as(g46
g22
tp2672
(lp2673
I00
aI00
aI00
as(g22
g15
tp2674
(lp2675
g2519
aI00
aI01
as(g19
g19
tp2676
(lp2677
I00
aI00
aI00
as(g23
g22
tp2678
(lp2679
I00
aI00
aI00
as(g14
g23
tp2680
(lp2681
I00
aI00
aI00
as(g10
g22
tp2682
(lp2683
I00
aI00
aI00
as(g10
g10
tp2684
(lp2685
I00
aI00
aI00
as(g23
g19
tp2686
(lp2687
I00
aI00
aI00
as(g22
g11
tp2688
(lp2689
I00
aI00
aI00
as(g46
g14
tp2690
(lp2691
I00
aI00
aI00
as(g30
g15
tp2692
(lp2693
g2519
aI00
aI01
as(g11
g10
tp2694
(lp2695
I00
aI00
aI00
as(g19
g14
tp2696
(lp2697
I00
aI00
aI00
as(g33
g30
tp2698
(lp2699
I00
aI00
aI00
as(g11
g15
tp2700
(lp2701
I00
aI00
aI00
as(g22
g46
tp2702
(lp2703
I00
aI00
aI00
as(g18
g30
tp2704
(lp2705
I00
aI00
aI00
as(g22
g18
tp2706
(lp2707
g2519
aI00
aI00
as(g46
g30
tp2708
(lp2709
I00
aI00
aI00
as(g11
g11
tp2710
(lp2711
I00
aI00
aI00
as(g19
g23
tp2712
(lp2713
I00
aI00
aI00
as(g33
g18
tp2714
(lp2715
g2519
aI00
aI00
as(g23
g18
tp2716
(lp2717
g2519
aI00
aI00
as(g11
g18
tp2718
(lp2719
I00
aI00
aI00
as(g11
g33
tp2720
(lp2721
I00
aI00
aI00
as(g46
g23
tp2722
(lp2723
I00
aI00
aI00
as(g23
g46
tp2724
(lp2725
I00
aI00
aI00
as(g30
g33
tp2726
(lp2727
I00
aI00
aI00
as(g15
g18
tp2728
(lp2729
I00
aI00
aI00
as(g14
g30
tp2730
(lp2731
I00
aI00
aI00
as(g33
g22
tp2732
(lp2733
I00
aI00
aI00
as(g23
g23
tp2734
(lp2735
I00
aI00
aI00
as(g14
g15
tp2736
(lp2737
g2519
aI00
aI01
as(g18
g14
tp2738
(lp2739
I00
aI00
aI00
assg1510
g1511
sS'pick_in_way'
p2740
(itrajectory_representation.predicates.pick_in_way
PickInWay
p2741
(dp2742
g1071
(dp2743
g33
g550
sg10
g605
sg30
g655
sg19
g723
sg22
g767
sg46
g829
sg14
g873
sg23
g923
ssg1479
(dp2744
g33
(lp2745
sg10
(lp2746
sg30
(lp2747
sg19
(lp2748
sg22
(lp2749
sg46
(lp2750
sg14
(lp2751
sg23
(lp2752
ssg1510
(lp2753
g19
ag22
ag10
ag46
ag30
ag23
ag33
ag18
ag11
ag15
ag14
ag18
ag11
ag15
ag18
ag11
ag15
ag18
ag11
ag15
ag18
ag11
ag15
ag18
ag11
ag15
ag18
ag11
ag15
ag18
ag11
ag15
asg1512
g1513
sg2
(dp2754
sg505
g506
sg1548
Nsg1554
g506
sg1551
(dp2755
sg1553
I8
sg1614
I01
sg7
Nsg1555
(dp2756
(g22
g23
tp2757
I00
s(g22
g33
tp2758
I00
s(g30
g46
tp2759
I00
s(g30
g30
tp2760
I00
s(g10
g46
tp2761
I00
s(g10
g30
tp2762
I00
s(g23
g10
tp2763
I00
s(g22
g14
tp2764
I00
s(g19
g30
tp2765
I00
s(g33
g33
tp2766
I00
s(g10
g15
tp2767
I00
s(g18
g15
tp2768
I00
s(g33
g23
tp2769
I00
s(g15
g23
tp2770
I00
s(g14
g11
tp2771
I00
s(g18
g10
tp2772
I00
s(g10
g23
tp2773
I00
s(g30
g18
tp2774
I00
s(g22
g22
tp2775
I00
s(g15
g22
tp2776
I00
s(g46
g10
tp2777
I00
s(g10
g11
tp2778
I00
s(g19
g46
tp2779
I00
s(g33
g19
tp2780
I00
s(g14
g14
tp2781
I00
s(g10
g18
tp2782
I00
s(g15
g10
tp2783
I00
s(g15
g46
tp2784
I00
s(g15
g30
tp2785
I00
s(g46
g11
tp2786
I00
s(g23
g33
tp2787
I00
s(g19
g33
tp2788
I00
s(g46
g19
tp2789
I00
s(g15
g33
tp2790
I00
s(g18
g11
tp2791
I00
s(g14
g10
tp2792
I00
s(g33
g46
tp2793
I00
s(g18
g46
tp2794
I00
s(g46
g18
tp2795
I00
s(g30
g22
tp2796
I00
s(g23
g14
tp2797
I00
s(g30
g10
tp2798
I00
s(g23
g11
tp2799
I00
s(g18
g18
tp2800
I00
s(g46
g33
tp2801
I00
s(g14
g22
tp2802
I00
s(g11
g14
tp2803
I00
s(g19
g15
tp2804
I00
s(g11
g19
tp2805
I00
s(g23
g30
tp2806
I00
s(g30
g14
tp2807
I00
s(g46
g15
tp2808
I00
s(g30
g19
tp2809
I00
s(g46
g46
tp2810
I00
s(g19
g10
tp2811
I00
s(g15
g11
tp2812
I00
s(g11
g22
tp2813
I00
s(g33
g11
tp2814
I00
s(g18
g19
tp2815
I00
s(g11
g23
tp2816
I00
s(g30
g23
tp2817
I00
s(g19
g18
tp2818
I00
s(g23
g15
tp2819
I00
s(g19
g22
tp2820
I00
s(g33
g10
tp2821
I00
s(g33
g15
tp2822
I00
s(g11
g30
tp2823
I00
s(g18
g23
tp2824
I00
s(g18
g33
tp2825
I00
s(g19
g11
tp2826
I00
s(g22
g19
tp2827
I00
s(g14
g19
tp2828
I00
s(g11
g46
tp2829
I00
s(g15
g15
tp2830
I00
s(g22
g30
tp2831
I00
s(g14
g46
tp2832
I00
s(g15
g14
tp2833
I00
s(g10
g33
tp2834
I00
s(g15
g19
tp2835
I00
s(g14
g18
tp2836
I00
s(g22
g10
tp2837
I00
s(g30
g11
tp2838
I00
s(g14
g33
tp2839
I00
s(g33
g14
tp2840
I00
s(g10
g14
tp2841
I00
s(g18
g22
tp2842
I00
s(g10
g19
tp2843
I00
s(g46
g22
tp2844
I00
s(g22
g15
tp2845
I00
s(g19
g19
tp2846
I00
s(g23
g22
tp2847
I00
s(g14
g23
tp2848
I00
s(g10
g22
tp2849
I00
s(g10
g10
tp2850
I00
s(g23
g19
tp2851
I00
s(g22
g11
tp2852
I00
s(g46
g14
tp2853
I00
s(g30
g15
tp2854
I00
s(g11
g10
tp2855
I00
s(g19
g14
tp2856
I00
s(g33
g30
tp2857
I00
s(g11
g15
tp2858
I00
s(g22
g46
tp2859
I00
s(g18
g30
tp2860
I00
s(g22
g18
tp2861
I00
s(g46
g30
tp2862
I00
s(g11
g11
tp2863
I00
s(g19
g23
tp2864
I00
s(g33
g18
tp2865
I00
s(g23
g18
tp2866
I00
s(g11
g18
tp2867
I00
s(g11
g33
tp2868
I00
s(g46
g23
tp2869
I00
s(g23
g46
tp2870
I00
s(g30
g33
tp2871
I00
s(g15
g18
tp2872
I00
s(g14
g30
tp2873
I00
s(g33
g22
tp2874
I00
s(g23
g23
tp2875
I00
s(g14
g15
tp2876
I00
s(g18
g14
tp2877
I00
ssg1613
NsbsS'robot_pose'
p2878
g521
(g522
(I0
tp2879
g524
tp2880
Rp2881
(I1
(I1
I3
tp2882
g531
I00
S'\x0c\x8d\xed]E\x13\x05@~\xe3=\x86jC\x1d\xc0\x8d}i\xe8\xda\xae\xe0?'
p2883
tp2884
bsS'is_holding_goal_entity'
p2885
(itrajectory_representation.predicates.is_holding_goal_entity
IsHoldingGoalEntity
p2886
(dp2887
g2485
g2486
sg7
NsbsS'mc_pick_path'
p2888
(dp2889
sS'current_collides'
p2890
g1513
sb.