(itrajectory_representation.trajectory
Trajectory
p0
(dp1
S'rewards'
p2
(lp3
I10
asS'actions'
p4
(lp5
(itrajectory_representation.operator
Operator
p6
(dp7
S'is_skeleton'
p8
I00
sS'discrete_parameters'
p9
(dp10
S'object'
p11
Vsquare_packing_box1
p12
sS'two_arm_place_region'
p13
S'home_region'
p14
sS'two_arm_place_object'
p15
Vsquare_packing_box1
p16
ssS'type'
p17
S'two_arm_pick_two_arm_place'
p18
sS'continuous_parameters'
p19
(dp20
S'q_goal'
p21
cnumpy.core.multiarray
_reconstruct
p22
(cnumpy
ndarray
p23
(I0
tp24
S'b'
p25
tp26
Rp27
(I1
(I3
tp28
cnumpy
dtype
p29
(S'f8'
p30
I0
I1
tp31
Rp32
(I3
S'<'
p33
NNNI-1
I-1
I0
tp34
bI00
S'L\xd7\xbe\xb2B\x91\xf0?\xe3\x03j$\x80\x91\x1b\xc0\x16\x11\x9b\xd8X\xeb\xfe\xbf'
p35
tp36
bsS'place'
p37
(dp38
g21
g22
(g23
(I0
tp39
g25
tp40
Rp41
(I1
(I3
tp42
g32
I00
S'\x80<\xa2`c\xf9\x92\xbf4\xc4&\x16\x9a\x84\x04\xc0\xe2\x0c\x14\x15\xe1\xa9\xe7?'
p43
tp44
bssS'pick'
p45
(dp46
g21
g27
sssS'low_level_motion'
p47
(lp48
g22
(g23
(I0
tp49
g25
tp50
Rp51
(I1
(I3
tp52
g32
I00
S'\xa8t\xa0)\x95\xc5\xee?2/\xec\x0e9/\x15\xc0\xd8h|\x92\x92\xc0\x17@'
p53
tp54
bag22
(g23
(I0
tp55
g25
tp56
Rp57
(I1
(I3
tp58
g29
(S'f8'
p59
I0
I1
tp60
Rp61
(I3
S'<'
p62
NNNI-1
I-1
I0
tp63
bI00
S'v%D\x97w\xd1\xf7?Z\xadP\x90\x08<\x17\xc0-\xca\x8a\t\xe2p\xe7\xbf'
p64
tp65
bag22
(g23
(I0
tp66
g25
tp67
Rp68
(I1
(I3
tp69
g61
I00
S'4#\xe8i\x80D\xf8?\xdd\x1dlTl\\\x19\xc0m\xc1\x1a\xec\xde\x01\x01\xc0'
p70
tp71
bag27
ag27
asbasS'filename'
p72
S''
p73
sS'states'
p74
(lp75
(itrajectory_representation.shortest_path_pick_and_place_state
ShortestPathPaPState
p76
(dp77
S'place_used'
p78
(dp79
(g16
g14
tp80
(itrajectory_representation.operator
Operator
p81
(dp82
g8
I01
sg9
(dp83
S'region'
p84
g14
sg11
g16
ssg17
S'two_arm_place'
p85
sg19
(dp86
g21
g22
(g23
(I0
tp87
g25
tp88
Rp89
(I1
(I3
tp90
g32
I00
S'\x80<\xa2`c\xf9\x92\xbf4\xc4&\x16\x9a\x84\x04\xc0\xe2\x0c\x14\x15\xe1\xa9\xe7?'
p91
tp92
bssg47
(lp93
g22
(g23
(I0
tp94
g25
tp95
Rp96
(I1
(I3
tp97
g32
I00
S'Q\xd7\xbe\xb2B\x91\xf0?\xe8\x03j$\x80\x91\x1b\xc0\x1a\x11\x9b\xd8X\xeb\xfe\xbf'
p98
tp99
bag22
(g23
(I0
tp100
g25
tp101
Rp102
(I1
(I3
tp103
g61
I00
S"\xc6'8AN\xb0\xec?\xe0\x975>\x0f\x03\x19\xc0(\xe0e;\x85\x89\x05\xc0"
p104
tp105
bag22
(g23
(I0
tp106
g25
tp107
Rp108
(I1
(I3
tp109
g61
I00
S'\xd0\xcb\x13\x8f\xaa\x9d\xed?\x90\x01<]3\x06\x16\xc0F\xf1\xe7x32\x02\xc0'
p110
tp111
bag22
(g23
(I0
tp112
g25
tp113
Rp114
(I1
(I3
tp115
g61
I00
S'l[\xc4\x16<\xe6\xe9?\xa6\xa0\x90\x84X\x9f\x13\xc0\xc2\xd74Q\x00\xaf\xff\xbf'
p116
tp117
bag22
(g23
(I0
tp118
g25
tp119
Rp120
(I1
(I3
tp121
g61
I00
S"\xaeJ\xbd\x1936\xec?\x04\x13\xd4'\x9f\x88\x10\xc0\x805qo\xb6\xe6\xff\xbf"
p122
tp123
bag22
(g23
(I0
tp124
g25
tp125
Rp126
(I1
(I3
tp127
g61
I00
S'\xf09\xb6\x1c*\x86\xee?\xc4\n/\x96\xcb\xe3\n\xc0\xa0\xc9\xd6F6\x0f\x00\xc0'
p128
tp129
bag22
(g23
(I0
tp130
g25
tp131
Rp132
(I1
(I3
tp133
g61
I00
S'X91+\xcd0\xe7?\x10t\x86\x8cV\xe3\x05\xc0\xfe\xb2\xd83\xdc\xcb\xee?'
p134
tp135
bag89
ag89
asbssS'place_in_way'
p136
(itrajectory_representation.predicates.place_in_way
PlaceInWay
p137
(dp138
S'mc_path_to_entity'
p139
(dp140
(Vrectangular_packing_box3
p141
S'home_region'
p142
tp143
(lp144
g22
(g23
(I0
tp145
g25
tp146
Rp147
(I1
(I3
tp148
g29
(S'f8'
p149
I0
I1
tp150
Rp151
(I3
S'<'
p152
NNNI-1
I-1
I0
tp153
bI00
S'\x9b\xa5\x82<\xed\xcc\x08@B\\\xaa)\x03\xc9\x16\xc0\x91J\xf1!T\xbb\x08@'
p154
tp155
bag22
(g23
(I0
tp156
g25
tp157
Rp158
(I1
(I3
tp159
g29
(S'f8'
p160
I0
I1
tp161
Rp162
(I3
S'<'
p163
NNNI-1
I-1
I0
tp164
bI00
S'\xe2>s\xda\xb3\xca\x03@\xe7\x8al\x18\x05\xe1\x15\xc0}\xfd7\xe9\xe3n\x0b@'
p165
tp166
bag22
(g23
(I0
tp167
g25
tp168
Rp169
(I1
(I3
tp170
g162
I00
S'\xc7\xc7\x06s\xd6\xa3\xff?3\x91\xe4\x97\xb5\x07\x16\xc0\x1bW\xbc\xbfY:\x06@'
p171
tp172
bag22
(g23
(I0
tp173
g25
tp174
Rp175
(I1
(I3
tp176
g162
I00
S'\x84\xa2s4\xa1\xd0\xf6?E=|\xb9\xcam\x17\xc0\xa93^V\xfc\xed\x05@'
p177
tp178
bag22
(g23
(I0
tp179
g25
tp180
Rp181
(I1
(I3
tp182
g162
I00
S'f\xb4\x9c\x07\xac\xbf\xec?n\x96\x96\x9e\x90n\x16\xc0uo!\xa9\x9b\x82\x07@'
p183
tp184
bag22
(g23
(I0
tp185
g25
tp186
Rp187
(I1
(I3
tp188
g162
I00
S'm\xd5h\x072\x03\xea?\xdf\xe5\xe82\xd3\x17\x14\xc0\x08\x9e\xe1\xfbO\x94\x08@'
p189
tp190
bag22
(g23
(I0
tp191
g25
tp192
Rp193
(I1
(I3
tp194
g162
I00
S'\x97\xff-a\x91r\xf0?\x1a\x15\xfe\xb9:\x1b\x12\xc0\nG\xfe\xfa~y\x05@'
p195
tp196
bag22
(g23
(I0
tp197
g25
tp198
Rp199
(I1
(I3
tp200
g162
I00
S'y\xd4\xbc{`\x0b\xf2?\xb0C6m\xb7\xd6\x0e\xc0\xe8\xe2r\xbe\x16{\xf5?'
p201
tp202
bag22
(g23
(I0
tp203
g25
tp204
Rp205
(I1
(I3
tp206
g162
I00
S'\xd1\xaa\x15!\x8c\x06\xed?\x8c\xab\xab^w\xe3\t\xc0~&\xcc\xa2\xcbw\xf6?'
p207
tp208
bag22
(g23
(I0
tp209
g25
tp210
Rp211
(I1
(I3
tp212
g162
I00
S'3\xe9\xaf\x05T\x89\xe7?+~\xcb\xd3\x15\xc7\x04\xc0x6(d5\xed\x07@'
p213
tp214
bas(Vsquare_packing_box4
p215
g142
tp216
(lp217
g22
(g23
(I0
tp218
g25
tp219
Rp220
(I1
(I3
tp221
g151
I00
S'\x88\xee6\xb1:\x88\t@\xdc\xadh\xa6\x05A\x1f\xc0\xc8\x82p\xd7c\x9a\xfc?'
p222
tp223
bag22
(g23
(I0
tp224
g25
tp225
Rp226
(I1
(I3
tp227
g162
I00
S'\xa3\xe7\xb4\x16R\xf0\x07@\xbc\n8\xab\xe3x\x1c\xc0=\x94\xaf\xa7P\t\x01@'
p228
tp229
bag22
(g23
(I0
tp230
g25
tp231
Rp232
(I1
(I3
tp233
g162
I00
S'\xe8[\xb2\xaa\xa5@\x04@(j\r1!I\x1b\xc0Xj\x8bx\xc9`\xfc?'
p234
tp235
bag22
(g23
(I0
tp236
g25
tp237
Rp238
(I1
(I3
tp239
g162
I00
S'\xf60LV\xe8\x96\x00@\x9aEw{a\xe2\x18\xc0^\xa8\x8a,\xa3\x98\x00@'
p240
tp241
bag22
(g23
(I0
tp242
g25
tp243
Rp244
(I1
(I3
tp245
g162
I00
S'\xe0 ;\x819w\xfd?\xe7\xcc\xc2\xa0\xa5f\x17\xc04\xedq\x1c\x8eK\xfa?'
p246
tp247
bag22
(g23
(I0
tp248
g25
tp249
Rp250
(I1
(I3
tp251
g162
I00
S'\x85\\2\xba\x0b5\xf5?I\r\x06\xd10\xfb\x15\xc0\x9e\x11\xee\xd8\xb9\xd7\xf5?'
p252
tp253
bag22
(g23
(I0
tp254
g25
tp255
Rp256
(I1
(I3
tp257
g162
I00
S'v\xb8^\x85\xa7[\xea?x\xbe\xff2t\x8d\x13\xc0\x88\x85\x8cCyH\xf6?'
p258
tp259
bag22
(g23
(I0
tp260
g25
tp261
Rp262
(I1
(I3
tp263
g162
I00
S'\xc2\xda(e\x83\x1a\xeb?\x8au\x8d3\xa6E\x11\xc0\xb4c\x1b\xed_\xfd\xfa?'
p264
tp265
bag22
(g23
(I0
tp266
g25
tp267
Rp268
(I1
(I3
tp269
g162
I00
S'\xe4u**\x0e5\xe9?\xaa\xfd\r\xed\xc4\xf6\r\xc0\x0fDE0\x1f\x0b\xfe?'
p270
tp271
bag22
(g23
(I0
tp272
g25
tp273
Rp274
(I1
(I3
tp275
g162
I00
S'\x06\x11,\xef\x98O\xe7??\x10\x01s=b\t\xc04\x92\xb79o\x8c\x00@'
p276
tp277
bag22
(g23
(I0
tp278
g25
tp279
Rp280
(I1
(I3
tp281
g162
I00
S'\x92\xaf\xf3P\x96O\xc2?(\xa1:\x8er}\x05\xc0\xd4_\x91\xb3\xffL\x02@'
p282
tp283
bas(Vrectangular_packing_box4
p284
g142
tp285
(lp286
g22
(g23
(I0
tp287
g25
tp288
Rp289
(I1
(I3
tp290
g151
I00
S'\xbfj\xf7\xfc\x16i\x02@#\xeetK\xbc\x83\x18\xc0I\xce\xc1\xc7x\xeb\xd6?'
p291
tp292
bag22
(g23
(I0
tp293
g25
tp294
Rp295
(I1
(I3
tp296
g162
I00
S'3\x82\x8a\x8fh\xb2\xf8?\xecMw\xff=$\x19\xc0\x10\x03\x08*\x90Q\x89?'
p297
tp298
bag22
(g23
(I0
tp299
g25
tp300
Rp301
(I1
(I3
tp302
g162
I00
S'B\x9aa8\x98\xa6\xe8?\xf3\xe9\x94/\xc2\xe4\x18\xc0u\xf8\xb0\x7fO\xb8\xf2?'
p303
tp304
bag22
(g23
(I0
tp305
g25
tp306
Rp307
(I1
(I3
tp308
g162
I00
S'\xd8\x87\x03p)T\xe4?\xd5\xabI\xb7V\xd0\x15\xc0vWg\x9a\x87\x8a\xec?'
p309
tp310
bag22
(g23
(I0
tp311
g25
tp312
Rp313
(I1
(I3
tp314
g162
I00
S'\xa9\xd9\x1d\x8d\xa6j\xdf?\xa0\x85\x1a\x84\xc6\xec\x12\xc0\x01\xb6 H\xb1\x91\xeb?'
p315
tp316
bag22
(g23
(I0
tp317
g25
tp318
Rp319
(I1
(I3
tp320
g162
I00
S'\x93k\xbc\xee\xc2\x10\xe8?\xab^\x86?\x08D\x10\xc0\x10;2\x00\xe5\t\xde?'
p321
tp322
bag22
(g23
(I0
tp323
g25
tp324
Rp325
(I1
(I3
tp326
g162
I00
S'\xef\xc3u*\xfb\xdb\xeb?\x8d\xa5\n\xfd\x03<\n\xc0\xd8\xfb\xde\x16R\xac\xde?'
p327
tp328
bag22
(g23
(I0
tp329
g25
tp330
Rp331
(I1
(I3
tp332
g162
I00
S'\xf4\xfdJ\x1a(#\xec?H"\x9cD\x1aE\x05\xc0.\xa9\x0b\x87\xf8\xe1\x02@'
p333
tp334
bas(Vsquare_packing_box2
p335
g142
tp336
(lp337
g22
(g23
(I0
tp338
g25
tp339
Rp340
(I1
(I3
tp341
g151
I00
S'`k\x81\xee\xf4+\x03@>.\x81\x95\xba\r\x1e\xc0p\xbf\x89\xce\xdf\xeb\x04@'
p342
tp343
bag22
(g23
(I0
tp344
g25
tp345
Rp346
(I1
(I3
tp347
g162
I00
S'\xc2Fo\n7\x11\x03@\xb6=Ya.\xe0\x1a\xc0,\x0b\x04&"Y\x07\xc0'
p348
tp349
bag22
(g23
(I0
tp350
g25
tp351
Rp352
(I1
(I3
tp353
g162
I00
S'\x08\xd0\xb5\xc6%\xc5\x01@\xbd\x02\xc9.\xfeS\x18\xc0\xafSz\xf3%\xbc\x07\xc0'
p354
tp355
bag22
(g23
(I0
tp356
g25
tp357
Rp358
(I1
(I3
tp359
g162
I00
S'\xa1\x0f=\xe0\x1aF\xfc?e&S\xf6\xb5\xfc\x17\xc0s\xad\xdc\xd8h\x9b\x04\xc0'
p360
tp361
bag22
(g23
(I0
tp362
g25
tp363
Rp364
(I1
(I3
tp365
g162
I00
S'R\x12);\xaf\xa5\xf7?\xf3\xf9\xeb\x07c\xef\x15\xc0\xf0V^\xd6\x94\x96\x05\xc0'
p366
tp367
bag22
(g23
(I0
tp368
g25
tp369
Rp370
(I1
(I3
tp371
g162
I00
S'\xd0\xcb\x13\x8f\xaa\x9d\xed?\x90\x01<]3\x06\x16\xc0F\xf1\xe7x32\x02\xc0'
p372
tp373
bag22
(g23
(I0
tp374
g25
tp375
Rp376
(I1
(I3
tp377
g162
I00
S'l[\xc4\x16<\xe6\xe9?\xa6\xa0\x90\x84X\x9f\x13\xc0\xc2\xd74Q\x00\xaf\xff\xbf'
p378
tp379
bag22
(g23
(I0
tp380
g25
tp381
Rp382
(I1
(I3
tp383
g162
I00
S"\xaeJ\xbd\x1936\xec?\x04\x13\xd4'\x9f\x88\x10\xc0\x805qo\xb6\xe6\xff\xbf"
p384
tp385
bag22
(g23
(I0
tp386
g25
tp387
Rp388
(I1
(I3
tp389
g162
I00
S'\xf09\xb6\x1c*\x86\xee?\xc4\n/\x96\xcb\xe3\n\xc0\xa0\xc9\xd6F6\x0f\x00\xc0'
p390
tp391
bag22
(g23
(I0
tp392
g25
tp393
Rp394
(I1
(I3
tp395
g162
I00
S'3\xe9\xaf\x05T\x89\xe7?+~\xcb\xd3\x15\xc7\x04\xc0x6(d5\xed\x07@'
p396
tp397
bas(Vsquare_packing_box3
p398
g142
tp399
(lp400
g22
(g23
(I0
tp401
g25
tp402
Rp403
(I1
(I3
tp404
g151
I00
S'\xc7+\x00\xdd\xfe>\x07@HN\xe2=\xe3\xae\x17\xc06T\r\xfd\xdb\xc7\x17@'
p405
tp406
bag22
(g23
(I0
tp407
g25
tp408
Rp409
(I1
(I3
tp410
g162
I00
S'\x93\xe8\x9a\xb2\xd1\xfa\x03@\x8aHE%\xee\xed\x15\xc0\xf8hW\x99?x\xfa\xbf'
p411
tp412
bag22
(g23
(I0
tp413
g25
tp414
Rp415
(I1
(I3
tp416
g162
I00
S'!\x83\xc0\xf3W\x85\xff?\xed\x8f\x90/y\xfd\x16\xc06jP\xfe\x98\xf5\xf4\xbf'
p417
tp418
bag22
(g23
(I0
tp419
g25
tp420
Rp421
(I1
(I3
tp422
g162
I00
S'2Z\xe1\xe97J\xf6?\\\x1e`@2v\x16\xc0\xc4\x0c\xcc\x14<\xf9\xf6\xbf'
p423
tp424
bag22
(g23
(I0
tp425
g25
tp426
Rp427
(I1
(I3
tp428
g162
I00
S'tx\x8as\xa8b\xed?\x9ej\x15\xfa\xf0{\x15\xc0@\xed\x9a-\x9eD\xf2\xbf'
p429
tp430
bag22
(g23
(I0
tp431
g25
tp432
Rp433
(I1
(I3
tp434
g162
I00
S"\xb2&6mg)\xe8?\x99\xe0G'\x16\xe0\x13\xc0\xc8oL\xf5\x17p\xe6\xbf"
p435
tp436
bag22
(g23
(I0
tp437
g25
tp438
Rp439
(I1
(I3
tp440
g162
I00
S'`\xc8Aw-\x81\xeb?/\xc3\xe6O\x04\xca\x10\xc0\x8a\xb7K)\x91{\xe4\xbf'
p441
tp442
bag22
(g23
(I0
tp443
g25
tp444
Rp445
(I1
(I3
tp446
g162
I00
S'\xe1\xc6\xc7\xa7\x12X\xe7?\x98\x99\xb0\x9a\xfb\xdb\x0b\xc0R\t\x1b)\xeae\xe0\xbf'
p447
tp448
bag22
(g23
(I0
tp449
g25
tp450
Rp451
(I1
(I3
tp452
g162
I00
S'p\xf1\xbdc^\x84\xf1?"\x88LL\xf9D\x06\xc0~w\r\xe9m\x0f\x19@'
p453
tp454
bas(Vrectangular_packing_box2
p455
g142
tp456
(lp457
g22
(g23
(I0
tp458
g25
tp459
Rp460
(I1
(I3
tp461
g151
I00
S'\xf6\x94uv\x8d\x94\x08@H\xc2\x166\xa6\x08\x1d\xc0\xac\xcf\xae\xac\xdb\xe8\x18@'
p462
tp463
bag22
(g23
(I0
tp464
g25
tp465
Rp466
(I1
(I3
tp467
g162
I00
S'\x89\xcfHU\xa1\xf5\x05@\xee\x9b\xa6\x01<)\x1c\xc0W\xa3jE\xe6\xde\x01\xc0'
p468
tp469
bag22
(g23
(I0
tp470
g25
tp471
Rp472
(I1
(I3
tp473
g162
I00
S'2]\x933g}\x00@\xebx\x00&R!\x1b\xc0\xce\x170ZD}\x00\xc0'
p474
tp475
bag22
(g23
(I0
tp476
g25
tp477
Rp478
(I1
(I3
tp479
g162
I00
S'4#\xe8i\x80D\xf8?\xdd\x1dlTl\\\x19\xc0m\xc1\x1a\xec\xde\x01\x01\xc0'
p480
tp481
bag22
(g23
(I0
tp482
g25
tp483
Rp484
(I1
(I3
tp485
g162
I00
S'\x9f5<Q\xb2\xb3\xf7?\xb3\xd6LI,\xe8\x16\xc0\xc2\x13\xbbtu\x87\x00\xc0'
p486
tp487
bag22
(g23
(I0
tp488
g25
tp489
Rp490
(I1
(I3
tp491
g162
I00
S'\xd0\xcb\x13\x8f\xaa\x9d\xed?\x90\x01<]3\x06\x16\xc0F\xf1\xe7x32\x02\xc0'
p492
tp493
bag22
(g23
(I0
tp494
g25
tp495
Rp496
(I1
(I3
tp497
g162
I00
S'l[\xc4\x16<\xe6\xe9?\xa6\xa0\x90\x84X\x9f\x13\xc0\xc2\xd74Q\x00\xaf\xff\xbf'
p498
tp499
bag22
(g23
(I0
tp500
g25
tp501
Rp502
(I1
(I3
tp503
g162
I00
S"\xaeJ\xbd\x1936\xec?\x04\x13\xd4'\x9f\x88\x10\xc0\x805qo\xb6\xe6\xff\xbf"
p504
tp505
bag22
(g23
(I0
tp506
g25
tp507
Rp508
(I1
(I3
tp509
g162
I00
S'\xf09\xb6\x1c*\x86\xee?\xc4\n/\x96\xcb\xe3\n\xc0\xa0\xc9\xd6F6\x0f\x00\xc0'
p510
tp511
bag22
(g23
(I0
tp512
g25
tp513
Rp514
(I1
(I3
tp515
g162
I00
S'3\xe9\xaf\x05T\x89\xe7?+~\xcb\xd3\x15\xc7\x04\xc0x6(d5\xed\x07@'
p516
tp517
bassS'mc_to_entity'
p518
(dp519
(g141
g142
tp520
(lp521
Vsquare_packing_box3
p522
aVrectangular_packing_box4
p523
as(g215
g142
tp524
(lp525
Vrectangular_packing_box3
p526
as(g284
g142
tp527
(lp528
Vrectangular_packing_box3
p529
as(g335
g142
tp530
(lp531
Vsquare_packing_box4
p532
aVrectangular_packing_box3
p533
as(g398
g142
tp534
(lp535
Vrectangular_packing_box4
p536
aVrectangular_packing_box3
p537
as(g455
g142
tp538
(lp539
Vsquare_packing_box4
p540
aVsquare_packing_box2
p541
assS'reachable_entities'
p542
(lp543
Vrectangular_packing_box4
p544
aVrectangular_packing_box3
p545
aVrectangular_packing_box1
p546
aVsquare_packing_box2
p547
ag12
asS'collides'
p548
(dp549
Vrectangular_packing_box4
p550
c__builtin__
set
p551
((lp552
I1
aI2
aI393
aI435
aI144
aI403
aI539
aI541
aI288
aI37
aI38
aI39
aI40
aI41
aI555
aI302
aI304
aI561
aI178
aI307
aI438
aI442
aI62
aI63
aI454
aI248
aI342
aI348
aI605
aI425
aI611
aI612
aI550
aI367
aI500
aI247
aI376
aI377
aI380
aI511
atp553
Rp554
sVrectangular_packing_box2
p555
g551
((lp556
I193
aI565
aI614
aI405
aI457
aI269
aI270
aI112
aI211
aI212
aI213
aI246
aI280
aI473
aI479
aI381
aI254
aI245
atp557
Rp558
sVrectangular_packing_box3
p559
g551
((lp560
I2
aI3
aI393
aI395
aI404
aI539
aI160
aI161
aI38
aI39
aI40
aI41
aI42
aI304
aI288
aI289
aI201
aI416
aI611
aI497
aI115
aI372
aI379
aI380
aI554
atp561
Rp562
sVrectangular_packing_box1
p563
g551
((lp564
I384
aI257
aI518
aI394
aI532
aI580
aI155
aI157
aI158
aI164
aI165
aI564
aI575
aI452
aI197
aI583
aI589
aI338
aI478
aI356
aI229
aI502
atp565
Rp566
sVsquare_packing_box2
p567
g551
((lp568
I256
aI145
aI146
aI538
aI413
aI543
aI36
aI422
aI429
aI570
aI443
aI444
aI64
aI65
aI66
aI69
aI205
aI79
aI80
aI81
aI215
aI219
aI92
aI355
aI230
aI593
aI124
atp569
Rp570
sVsquare_packing_box3
p571
g551
((lp572
I0
aI1
aI144
aI403
aI541
aI545
aI546
aI40
aI425
aI555
aI302
aI571
aI453
aI454
aI342
aI474
aI348
aI605
aI612
aI367
aI368
aI369
aI370
aI371
aI247
aI377
aI378
atp573
Rp574
sVsquare_packing_box1
p575
g551
((lp576
I384
aI134
aI135
aI136
aI146
aI158
aI159
aI433
aI296
aI263
aI176
aI177
aI308
aI448
aI452
aI583
aI328
aI458
aI464
aI82
aI83
aI505
aI346
aI486
aI490
aI494
aI240
aI121
aI122
aI264
atp577
Rp578
sVsquare_packing_box4
p579
g551
((lp580
I513
aI260
aI577
aI268
aI194
aI405
aI548
aI511
aI179
aI436
aI565
aI440
aI65
aI66
aI68
aI210
aI211
aI340
aI343
aI90
aI91
aI220
aI479
aI354
aI613
aI358
aI113
aI114
aI375
aI212
aI123
aI254
aI255
atp581
Rp582
ssg78
g79
sS'pick_used'
p583
(dp584
g544
(itrajectory_representation.operator
Operator
p585
(dp586
g8
I01
sg9
(dp587
S'object'
p588
Vrectangular_packing_box4
p589
ssg17
S'two_arm_pick'
p590
sg19
(dp591
S'q_goal'
p592
(lp593
g22
(g23
(I0
tp594
g25
tp595
Rp596
(I1
(I3
tp597
g151
I00
S'\xc1j\xf7\xfc\x16i\x02@$\xeetK\xbc\x83\x18\xc0H\xce\xc1\xc7x\xeb\xd6?'
p598
tp599
bag22
(g23
(I0
tp600
g25
tp601
Rp602
(I1
(I3
tp603
g151
I00
S')\x9cgXk(\x03@\x95L\xadu\xf6\xa5\x19\xc0XR#8oQ\xc6?'
p604
tp605
bag22
(g23
(I0
tp606
g25
tp607
Rp608
(I1
(I3
tp609
g151
I00
S'\x00\xdd\xb0\xdd\x8f\x07\x02@d\x1a\xbe\xa4\xd5_\x18\xc0t\xecVjC\x1e\xac?'
p610
tp611
bag22
(g23
(I0
tp612
g25
tp613
Rp614
(I1
(I3
tp615
g151
I00
S'\xaa\xa8c(wR\x03@\x1f(\n\xcd\x11=\x19\xc0Za\xb5\xcb{\xf1\xe3?'
p616
tp617
bag22
(g23
(I0
tp618
g25
tp619
Rp620
(I1
(I3
tp621
g151
I00
S'\xbec\xfc\xb0\x16\xa9\x01@\x84\xebO\xb2^)\x19\xc0\x98"\x96\xddY>\xd1?'
p622
tp623
basS'is_feasible'
p624
I00
ssg47
(lp625
g22
(g23
(I0
tp626
g25
tp627
Rp628
(I1
(I3
tp629
g151
I00
S'zt\xa0)\x95\xc5\xee?0/\xec\x0e9/\x15\xc0\xd8h|\x92\x92\xc0\x17@'
p630
tp631
bag22
(g23
(I0
tp632
g25
tp633
Rp634
(I1
(I3
tp635
g162
I00
S'v%D\x97w\xd1\xf7?Z\xadP\x90\x08<\x17\xc0-\xca\x8a\t\xe2p\xe7\xbf'
p636
tp637
bag22
(g23
(I0
tp638
g25
tp639
Rp640
(I1
(I3
tp641
g162
I00
S'3\x82\x8a\x8fh\xb2\xf8?\xecMw\xff=$\x19\xc0\x10\x03\x08*\x90Q\x89?'
p642
tp643
bag620
asbsVrectangular_packing_box2
p644
(itrajectory_representation.operator
Operator
p645
(dp646
g8
I01
sg9
(dp647
g588
Vrectangular_packing_box2
p648
ssg17
g590
sg19
(dp649
g592
(lp650
g22
(g23
(I0
tp651
g25
tp652
Rp653
(I1
(I3
tp654
g151
I00
S'\xf6\x94uv\x8d\x94\x08@I\xc2\x166\xa6\x08\x1d\xc0\x04\xb6\xae\xca\xd3\x8f\xac\xbf'
p655
tp656
bag22
(g23
(I0
tp657
g25
tp658
Rp659
(I1
(I3
tp660
g151
I00
S'\xac\xacv\x99\xbbL\x0e@\xfa\x89\xe52\xb9\xd7\x19\xc0\\\xa3t\xc0\x9aC\xfd\xbf'
p661
tp662
bag22
(g23
(I0
tp663
g25
tp664
Rp665
(I1
(I3
tp666
g151
I00
S'\r\xf1\xd3\x0e1D\x08@?p\xd1\x8dca\x1c\xc0\nJ\xfd\xef\n7\xcd\xbf'
p667
tp668
basg624
I00
ssg47
(lp669
g22
(g23
(I0
tp670
g25
tp671
Rp672
(I1
(I3
tp673
g151
I00
S'zt\xa0)\x95\xc5\xee?0/\xec\x0e9/\x15\xc0\xd8h|\x92\x92\xc0\x17@'
p674
tp675
bag22
(g23
(I0
tp676
g25
tp677
Rp678
(I1
(I3
tp679
g162
I00
S'\x0e]\xf2K\xc6E\xf7?\x06\x8c\xb9Ybt\x17\xc0%\xac6\x86\x93\xa8\xdd?'
p680
tp681
bag22
(g23
(I0
tp682
g25
tp683
Rp684
(I1
(I3
tp685
g162
I00
S'\xb1\x91\x83\xd6J:\x00@X\xbf\x9b\xa3\xf7;\x19\xc0\xb4\xa9\x94\xff\xff\xd1\xec?'
p686
tp687
bag22
(g23
(I0
tp688
g25
tp689
Rp690
(I1
(I3
tp691
g162
I00
S'\xc3#\x9b"m=\x05@O\x1c\xaf\xffo\x1c\x1b\xc0\xa4\xc19\xdd\xaa\xea\xdd?'
p692
tp693
bag665
asbsg545
(itrajectory_representation.operator
Operator
p694
(dp695
g8
I01
sg9
(dp696
g588
Vrectangular_packing_box3
p697
ssg17
g590
sg19
(dp698
g592
(lp699
g22
(g23
(I0
tp700
g25
tp701
Rp702
(I1
(I3
tp703
g151
I00
S'\x99\xa5\x82<\xed\xcc\x08@A\\\xaa)\x03\xc9\x16\xc0\x91J\xf1!T\xbb\x08@'
p704
tp705
bag22
(g23
(I0
tp706
g25
tp707
Rp708
(I1
(I3
tp709
g151
I00
S'\x97kSB\xc5v\x02@\x12\xb8_\xdc:\xb2\x18\xc0\x95\xef\xab\xc7\xe0]\xf5?'
p710
tp711
bag22
(g23
(I0
tp712
g25
tp713
Rp714
(I1
(I3
tp715
g151
I00
S'\x7fi\xea\xfd\xfc6\x08@\xa9r@e\xe5\x7f\x17\xc0\x87R!\xb1\xb95\x02@'
p716
tp717
bag22
(g23
(I0
tp718
g25
tp719
Rp720
(I1
(I3
tp721
g151
I00
S'\xdf\x8e\xad$j\\\x01@\xf0u\xe5ob$\x19\xc0\x81[{%!\xe8\xf6?'
p722
tp723
bag22
(g23
(I0
tp724
g25
tp725
Rp726
(I1
(I3
tp727
g151
I00
S'\xb2\x7ft\x05;/\t@<M\xad\xe4\xe6(\x16\xc0\x18\xcap\xc8\xbb\xe5\x04@'
p728
tp729
basg624
I00
ssg47
(lp730
g22
(g23
(I0
tp731
g25
tp732
Rp733
(I1
(I3
tp734
g151
I00
S'zt\xa0)\x95\xc5\xee?0/\xec\x0e9/\x15\xc0\xd8h|\x92\x92\xc0\x17@'
p735
tp736
bag22
(g23
(I0
tp737
g25
tp738
Rp739
(I1
(I3
tp740
g162
I00
S'\x9f5<Q\xb2\xb3\xf7?\xb3\xd6LI,\xe8\x16\xc0\xc2\x13\xbbtu\x87\x00\xc0'
p741
tp742
bag22
(g23
(I0
tp743
g25
tp744
Rp745
(I1
(I3
tp746
g162
I00
S'j\xc7\xc0&\x8ag\xf6?h\x9cH4\x7f\xab\x18\xc0\xd8|\x1d\xfc\xcbV\xf2?'
p747
tp748
bag720
asbsg546
(itrajectory_representation.operator
Operator
p749
(dp750
g8
I01
sg9
(dp751
g588
Vrectangular_packing_box1
p752
ssg17
g590
sg19
(dp753
g592
(lp754
g22
(g23
(I0
tp755
g25
tp756
Rp757
(I1
(I3
tp758
g151
I00
S'\xacB\xb2\xd4\xde\xe3\xbf\xbf\xa9\xc0\x0e\\\xd4_\x1a\xc0\xcf|\x1en~\xa1\xf7\xbf'
p759
tp760
bag22
(g23
(I0
tp761
g25
tp762
Rp763
(I1
(I3
tp764
g151
I00
S'\xc2v\xcc[(\xdb\xe1?\x14\xec\xf3#\xb4\x16\x1d\xc0\x06\xfe%0[\x8f\x07\xc0'
p765
tp766
bag22
(g23
(I0
tp767
g25
tp768
Rp769
(I1
(I3
tp770
g151
I00
S'i\x89\x8b\x02\x8c \xe4?k@\x8dR\xb0\x84\x1c\xc0\xd9\x19\xcdF\xa3\x12\x04\xc0'
p771
tp772
bag22
(g23
(I0
tp773
g25
tp774
Rp775
(I1
(I3
tp776
g151
I00
S'Xp\xb9n\x04\x1e\xde?|!)\x1cU\xc6\x1b\xc0\xe0\xd8\xb9\xb5\xe8;\x07\xc0'
p777
tp778
basg624
I00
ssg47
(lp779
g22
(g23
(I0
tp780
g25
tp781
Rp782
(I1
(I3
tp783
g151
I00
S'zt\xa0)\x95\xc5\xee?0/\xec\x0e9/\x15\xc0\xd8h|\x92\x92\xc0\x17@'
p784
tp785
bag22
(g23
(I0
tp786
g25
tp787
Rp788
(I1
(I3
tp789
g162
I00
S'\x0e]\xf2K\xc6E\xf7?\x06\x8c\xb9Ybt\x17\xc0%\xac6\x86\x93\xa8\xdd?'
p790
tp791
bag22
(g23
(I0
tp792
g25
tp793
Rp794
(I1
(I3
tp795
g162
I00
S'\xae\xea\x9e\xa3\xa2\xb1\xed?\xa4\xca\x1d?h\x96\x19\xc0dq\xdf\xb1\x9d\xe4\x05@'
p796
tp797
bag775
asbsg547
(itrajectory_representation.operator
Operator
p798
(dp799
g8
I01
sg9
(dp800
g588
Vsquare_packing_box2
p801
ssg17
g590
sg19
(dp802
g592
(lp803
g22
(g23
(I0
tp804
g25
tp805
Rp806
(I1
(I3
tp807
g151
I00
S'^k\x81\xee\xf4+\x03@?.\x81\x95\xba\r\x1e\xc0p\xbf\x89\xce\xdf\xeb\x04@'
p808
tp809
bag22
(g23
(I0
tp810
g25
tp811
Rp812
(I1
(I3
tp813
g151
I00
S'<=j\x9e\xc6.\xf3?;\x83\xec\xff\xa4\xce\x1c\xc0\x80\xb5TWa\xee\xd3?'
p814
tp815
bag22
(g23
(I0
tp816
g25
tp817
Rp818
(I1
(I3
tp819
g151
I00
S'\xa7%}@9#\x04@qP\xb5\xe4\x051\x1d\xc0%\x06g\x90=\x91\x02@'
p820
tp821
bag22
(g23
(I0
tp822
g25
tp823
Rp824
(I1
(I3
tp825
g151
I00
S'D\\fT\xack\xf3?\x8b\\\xf9\xc9>\xaf\x1a\xc0+\xc1P4\x85\xf7\xe8\xbf'
p826
tp827
basg624
I00
ssg47
(lp828
g22
(g23
(I0
tp829
g25
tp830
Rp831
(I1
(I3
tp832
g151
I00
S'zt\xa0)\x95\xc5\xee?0/\xec\x0e9/\x15\xc0\xd8h|\x92\x92\xc0\x17@'
p833
tp834
bag22
(g23
(I0
tp835
g25
tp836
Rp837
(I1
(I3
tp838
g162
I00
S'\x0e]\xf2K\xc6E\xf7?\x06\x8c\xb9Ybt\x17\xc0%\xac6\x86\x93\xa8\xdd?'
p839
tp840
bag22
(g23
(I0
tp841
g25
tp842
Rp843
(I1
(I3
tp844
g162
I00
S'3\x82\x8a\x8fh\xb2\xf8?\xecMw\xff=$\x19\xc0\x10\x03\x08*\x90Q\x89?'
p845
tp846
bag824
asbsVsquare_packing_box3
p847
(itrajectory_representation.operator
Operator
p848
(dp849
g8
I01
sg9
(dp850
g588
Vsquare_packing_box3
p851
ssg17
g590
sg19
(dp852
g592
(lp853
g22
(g23
(I0
tp854
g25
tp855
Rp856
(I1
(I3
tp857
g151
I00
S'\xc8+\x00\xdd\xfe>\x07@HN\xe2=\xe3\xae\x17\xc0\x1b\x8ems\xf5\xa1\xd5\xbf'
p858
tp859
bag22
(g23
(I0
tp860
g25
tp861
Rp862
(I1
(I3
tp863
g151
I00
S'$\x97\x01\xd5\x0b\xbb\x0b@\xf5\x8f\x12\x9b\xf9&\x1a\xc0\x96=U\x1a\xc0\xd0\xf8?'
p864
tp865
bag22
(g23
(I0
tp866
g25
tp867
Rp868
(I1
(I3
tp869
g151
I00
S'\xb8\xe4\xbbJ\xe9D\x06@F\x86\x85\x16\xed\xb1\x18\xc0@O\xe11\xbe>\x84\xbf'
p870
tp871
basg624
I00
ssg47
(lp872
g22
(g23
(I0
tp873
g25
tp874
Rp875
(I1
(I3
tp876
g151
I00
S'zt\xa0)\x95\xc5\xee?0/\xec\x0e9/\x15\xc0\xd8h|\x92\x92\xc0\x17@'
p877
tp878
bag22
(g23
(I0
tp879
g25
tp880
Rp881
(I1
(I3
tp882
g162
I00
S'\x0e]\xf2K\xc6E\xf7?\x06\x8c\xb9Ybt\x17\xc0%\xac6\x86\x93\xa8\xdd?'
p883
tp884
bag22
(g23
(I0
tp885
g25
tp886
Rp887
(I1
(I3
tp888
g162
I00
S'\x00\xda\x1c<\xfd\xdc\x00@j"\x91\xe3 \x1a\x18\xc0i~!@)\xb0\xdc\xbf'
p889
tp890
bag868
asbsg12
(itrajectory_representation.operator
Operator
p891
(dp892
g8
I01
sg9
(dp893
g11
g12
ssg17
S'two_arm_pick'
p894
sg19
(dp895
g21
g22
(g23
(I0
tp896
g25
tp897
Rp898
(I1
(I3
tp899
g32
I00
S'L\xd7\xbe\xb2B\x91\xf0?\xe3\x03j$\x80\x91\x1b\xc0\x16\x11\x9b\xd8X\xeb\xfe\xbf'
p900
tp901
bssg47
(lp902
g22
(g23
(I0
tp903
g25
tp904
Rp905
(I1
(I3
tp906
g151
I00
S'zt\xa0)\x95\xc5\xee?0/\xec\x0e9/\x15\xc0\xd8h|\x92\x92\xc0\x17@'
p907
tp908
bag22
(g23
(I0
tp909
g25
tp910
Rp911
(I1
(I3
tp912
g162
I00
S'\x9f5<Q\xb2\xb3\xf7?\xb3\xd6LI,\xe8\x16\xc0\xc2\x13\xbbtu\x87\x00\xc0'
p913
tp914
bag22
(g23
(I0
tp915
g25
tp916
Rp917
(I1
(I3
tp918
g162
I00
S'4#\xe8i\x80D\xf8?\xdd\x1dlTl\\\x19\xc0m\xc1\x1a\xec\xde\x01\x01\xc0'
p919
tp920
bag898
asbsVsquare_packing_box4
p921
(itrajectory_representation.operator
Operator
p922
(dp923
g8
I01
sg9
(dp924
g588
Vsquare_packing_box4
p925
ssg17
g590
sg19
(dp926
g592
(lp927
g22
(g23
(I0
tp928
g25
tp929
Rp930
(I1
(I3
tp931
g151
I00
S'\x85\xee6\xb1:\x88\t@\xdd\xadh\xa6\x05A\x1f\xc0\xc9\x82p\xd7c\x9a\xfc?'
p932
tp933
bag22
(g23
(I0
tp934
g25
tp935
Rp936
(I1
(I3
tp937
g151
I00
S'\xc7\xf2a&\xfc\xf5\x06@t\xba\xd3NP$\x1a\xc0\x062\xcb\xc7\xe8\xe2\xf9\xbf'
p938
tp939
bag22
(g23
(I0
tp940
g25
tp941
Rp942
(I1
(I3
tp943
g151
I00
S"\x14V'\xd3/\r\x0c@\xd5\r\\-\xdb}\x1b\xc0`\xd7\x9a\xb0\x84\xb4\x05\xc0"
p944
tp945
basg624
I00
ssg47
(lp946
g22
(g23
(I0
tp947
g25
tp948
Rp949
(I1
(I3
tp950
g151
I00
S'zt\xa0)\x95\xc5\xee?0/\xec\x0e9/\x15\xc0\xd8h|\x92\x92\xc0\x17@'
p951
tp952
bag22
(g23
(I0
tp953
g25
tp954
Rp955
(I1
(I3
tp956
g162
I00
S'\xea\x04A\xf2\x01I\xfa?\x9c\x92\xbb\x02I\xd2\x16\xc0\x1c>3\n\x88\xda\x14@'
p957
tp958
bag22
(g23
(I0
tp959
g25
tp960
Rp961
(I1
(I3
tp962
g162
I00
S'\x9a\xbe.\\\\1\x02@n\xc71\xde\x16\x1f\x18\xc0\xa5\xb9\xb4\xac*z\xff\xbf'
p963
tp964
bag936
asbssS'mc_paths'
p965
(dp966
sS'robot'
p967
NsS'reachable_obj_region_pairs'
p968
(lp969
sS'sampled_pick_configs_for_objects'
p970
(dp971
sS'mc_calls'
p972
I0
sS'pick_poses'
p973
g584
sS'problem_env'
p974
NsS'evaluations'
p975
(dp976
(g335
g455
g142
tp977
I00
s(g455
g398
g142
tp978
I00
s(g284
g335
g142
tp979
I00
s(g398
Vsquare_packing_box1
p980
g142
tp981
I00
s(g215
g335
g142
tp982
I00
s(g398
g455
g142
tp983
I00
s(g284
g215
g142
tp984
I00
s(g335
g980
g142
tp985
I00
s(g335
g141
g142
tp986
I01
s(g284
g398
g142
tp987
I00
s(g215
g398
g142
tp988
I00
s(g398
g215
g142
tp989
I00
s(g455
Vrectangular_packing_box1
p990
g142
tp991
I00
s(g141
g980
g142
tp992
I00
s(g215
g990
g142
tp993
I00
s(g284
g990
g142
tp994
I00
s(g455
g980
g142
tp995
I00
s(g141
g284
g142
tp996
I01
s(g455
g215
g142
tp997
I01
s(g455
g141
g142
tp998
I00
s(g141
g398
g142
tp999
I01
s(g141
g990
g142
tp1000
I00
s(g398
g990
g142
tp1001
I00
s(g215
g455
g142
tp1002
I00
s(g284
g455
g142
tp1003
I00
s(g335
g990
g142
tp1004
I00
s(g215
g284
g142
tp1005
I00
s(g141
g215
g142
tp1006
I00
s(g335
g284
g142
tp1007
I00
s(g398
g335
g142
tp1008
I00
s(g455
g284
g142
tp1009
I00
s(g335
g215
g142
tp1010
I01
s(g215
g141
g142
tp1011
I01
s(g335
g398
g142
tp1012
I00
s(g284
g141
g142
tp1013
I01
s(g141
g455
g142
tp1014
I00
s(g455
g335
g142
tp1015
I01
s(g284
g980
g142
tp1016
I00
s(g215
g980
g142
tp1017
I00
s(g398
g141
g142
tp1018
I01
s(g141
g335
g142
tp1019
I00
s(g398
g284
g142
tp1020
I01
ssS'paths_to_reachable_entities'
p1021
NsS'use_shortest_path'
p1022
I01
sbsS'ternary_edges'
p1023
(dp1024
(g455
g455
g142
tp1025
(lp1026
I00
as(g980
S'loading_region'
p1027
g1027
tp1028
(lp1029
I00
as(S'entire_region'
p1030
g990
g142
tp1031
(lp1032
I00
as(g335
g215
g1027
tp1033
(lp1034
I00
as(g142
g142
g142
tp1035
(lp1036
I00
as(g215
g455
g1027
tp1037
(lp1038
I00
as(g980
g141
g142
tp1039
(lp1040
I00
as(g142
g284
g142
tp1041
(lp1042
I00
as(g335
g980
g142
tp1043
(lp1044
I00
as(g141
g284
g1027
tp1045
(lp1046
I00
as(g142
g215
g1027
tp1047
(lp1048
I00
as(g335
g1030
g142
tp1049
(lp1050
I00
as(g1027
g142
g1027
tp1051
(lp1052
I00
as(g284
g398
g142
tp1053
(lp1054
I00
as(g215
g1030
g142
tp1055
(lp1056
I00
as(g335
g990
g1027
tp1057
(lp1058
I00
as(g398
g1027
g142
tp1059
(lp1060
I00
as(g1030
g455
g1027
tp1061
(lp1062
I00
as(g142
g1030
g142
tp1063
(lp1064
I00
as(g455
g1027
g142
tp1065
(lp1066
I00
as(g398
g1030
g142
tp1067
(lp1068
I00
as(g980
g980
g1027
tp1069
(lp1070
I00
as(g1027
g215
g1027
tp1071
(lp1072
I00
as(g1030
g1027
g142
tp1073
(lp1074
I00
as(g1030
g335
g142
tp1075
(lp1076
I00
as(g1027
g1027
g142
tp1077
(lp1078
I00
as(g398
g284
g1027
tp1079
(lp1080
I00
as(g142
g142
g1027
tp1081
(lp1082
I00
as(g990
g335
g1027
tp1083
(lp1084
I00
as(g455
g215
g142
tp1085
(lp1086
I01
as(g398
g980
g142
tp1087
(lp1088
I00
as(g990
g142
g1027
tp1089
(lp1090
I00
as(g142
g455
g1027
tp1091
(lp1092
I00
as(g990
g141
g1027
tp1093
(lp1094
I00
as(g141
g990
g142
tp1095
(lp1096
I00
as(g1027
g980
g1027
tp1097
(lp1098
I00
as(g215
g335
g1027
tp1099
(lp1100
I00
as(g455
g455
g1027
tp1101
(lp1102
I00
as(g1030
g215
g142
tp1103
(lp1104
I00
as(g1027
g142
g142
tp1105
(lp1106
I00
as(g284
g455
g142
tp1107
(lp1108
I00
as(g142
g141
g142
tp1109
(lp1110
I00
as(g335
g990
g142
tp1111
(lp1112
I00
as(g141
g215
g142
tp1113
(lp1114
I00
as(g980
g141
g1027
tp1115
(lp1116
I00
as(g398
g335
g142
tp1117
(lp1118
I00
as(g335
g980
g1027
tp1119
(lp1120
I00
as(g335
g455
g1027
tp1121
(lp1122
I00
as(g1030
g335
g1027
tp1123
(lp1124
I00
as(g1027
g141
g1027
tp1125
(lp1126
I00
as(g1030
g142
g142
tp1127
(lp1128
I00
as(g284
g142
g142
tp1129
(lp1130
I00
as(g1027
g1030
g142
tp1131
(lp1132
I00
as(g455
g215
g1027
tp1133
(lp1134
I00
as(g398
g455
g1027
tp1135
(lp1136
I00
as(g398
g398
g142
tp1137
(lp1138
I00
as(g990
g141
g142
tp1139
(lp1140
I00
as(g1030
g455
g142
tp1141
(lp1142
I00
as(g990
g1027
g1027
tp1143
(lp1144
I00
as(g215
g980
g142
tp1145
(lp1146
I00
as(g980
g980
g142
tp1147
(lp1148
I00
as(g980
g284
g142
tp1149
(lp1150
I00
as(g284
g455
g1027
tp1151
(lp1152
I00
as(g215
g990
g1027
tp1153
(lp1154
I00
as(g398
g284
g142
tp1155
(lp1156
I01
as(g990
g335
g142
tp1157
(lp1158
I00
as(g455
g990
g1027
tp1159
(lp1160
I00
as(g990
g142
g142
tp1161
(lp1162
I00
as(g335
g455
g142
tp1163
(lp1164
I00
as(g455
g398
g142
tp1165
(lp1166
I00
as(g141
g990
g1027
tp1167
(lp1168
I00
as(g142
g335
g1027
tp1169
(lp1170
I00
as(g1030
g142
g1027
tp1171
(lp1172
I00
as(g1030
g215
g1027
tp1173
(lp1174
I00
as(g398
g455
g142
tp1175
(lp1176
I00
as(g141
g398
g1027
tp1177
(lp1178
I00
as(g455
g1030
g1027
tp1179
(lp1180
I00
as(g990
g1027
g142
tp1181
(lp1182
I00
as(g398
g335
g1027
tp1183
(lp1184
I00
as(g398
g990
g1027
tp1185
(lp1186
I00
as(g215
g980
g1027
tp1187
(lp1188
I00
as(g142
g141
g1027
tp1189
(lp1190
I00
as(g1030
g398
g1027
tp1191
(lp1192
I00
as(g1027
g141
g142
tp1193
(lp1194
I00
as(g1027
g335
g1027
tp1195
(lp1196
I00
as(g455
g990
g142
tp1197
(lp1198
I00
as(g215
g990
g142
tp1199
(lp1200
I00
as(g1027
g398
g142
tp1201
(lp1202
I00
as(g455
g398
g1027
tp1203
(lp1204
I00
as(g455
g284
g1027
tp1205
(lp1206
I00
as(g141
g215
g1027
tp1207
(lp1208
I00
as(g980
g284
g1027
tp1209
(lp1210
I00
as(g990
g398
g1027
tp1211
(lp1212
I00
as(g142
g980
g1027
tp1213
(lp1214
I00
as(g141
g1027
g1027
tp1215
(lp1216
I00
as(g284
g142
g1027
tp1217
(lp1218
I00
as(g980
g990
g142
tp1219
(lp1220
I00
as(g455
g1030
g142
tp1221
(lp1222
I00
as(g284
g335
g1027
tp1223
(lp1224
I00
as(g141
g455
g1027
tp1225
(lp1226
I00
as(g398
g990
g142
tp1227
(lp1228
I00
as(g215
g1027
g1027
tp1229
(lp1230
I00
as(g335
g142
g142
tp1231
(lp1232
I00
as(g215
g284
g142
tp1233
(lp1234
I00
as(g142
g398
g1027
tp1235
(lp1236
I00
as(g1027
g990
g1027
tp1237
(lp1238
I00
as(g1027
g398
g1027
tp1239
(lp1240
I00
as(g980
g398
g142
tp1241
(lp1242
I00
as(g990
g398
g142
tp1243
(lp1244
I00
as(g980
g990
g1027
tp1245
(lp1246
I00
as(g141
g455
g142
tp1247
(lp1248
I00
as(g455
g335
g142
tp1249
(lp1250
I01
as(g141
g142
g1027
tp1251
(lp1252
I00
as(g215
g1027
g142
tp1253
(lp1254
I00
as(g1027
g284
g1027
tp1255
(lp1256
I00
as(g455
g284
g142
tp1257
(lp1258
I00
as(g141
g141
g142
tp1259
(lp1260
I00
as(g284
g284
g142
tp1261
(lp1262
I00
as(g284
g141
g1027
tp1263
(lp1264
I00
as(g141
g1027
g142
tp1265
(lp1266
I00
as(g398
g215
g142
tp1267
(lp1268
I00
as(g284
g335
g142
tp1269
(lp1270
I00
as(g335
g1027
g1027
tp1271
(lp1272
I00
as(g141
g1030
g1027
tp1273
(lp1274
I00
as(g335
g142
g1027
tp1275
(lp1276
I00
as(g980
g335
g1027
tp1277
(lp1278
I00
as(g215
g284
g1027
tp1279
(lp1280
I00
as(g398
g142
g1027
tp1281
(lp1282
I00
as(g141
g142
g142
tp1283
(lp1284
I00
as(g1027
g284
g142
tp1285
(lp1286
I00
as(g990
g990
g142
tp1287
(lp1288
I00
as(g1027
g215
g142
tp1289
(lp1290
I00
as(g215
g398
g142
tp1291
(lp1292
I00
as(g980
g455
g142
tp1293
(lp1294
I00
as(g980
g398
g1027
tp1295
(lp1296
I00
as(g284
g980
g1027
tp1297
(lp1298
I00
as(g142
g335
g142
tp1299
(lp1300
I00
as(g1030
g141
g1027
tp1301
(lp1302
I00
as(g141
g980
g142
tp1303
(lp1304
I00
as(g990
g1030
g142
tp1305
(lp1306
I00
as(g398
g215
g1027
tp1307
(lp1308
I00
as(g398
g141
g1027
tp1309
(lp1310
I00
as(g284
g990
g142
tp1311
(lp1312
I00
as(g455
g335
g1027
tp1313
(lp1314
I00
as(g284
g1027
g142
tp1315
(lp1316
I00
as(g141
g1030
g142
tp1317
(lp1318
I00
as(g215
g141
g1027
tp1319
(lp1320
I00
as(g455
g980
g142
tp1321
(lp1322
I00
as(g398
g980
g1027
tp1323
(lp1324
I00
as(g215
g215
g1027
tp1325
(lp1326
I00
as(g284
g284
g1027
tp1327
(lp1328
I00
as(g990
g990
g1027
tp1329
(lp1330
I00
as(g980
g215
g1027
tp1331
(lp1332
I00
as(g215
g335
g142
tp1333
(lp1334
I00
as(g1030
g980
g142
tp1335
(lp1336
I00
as(g142
g1030
g1027
tp1337
(lp1338
I00
as(g142
g990
g1027
tp1339
(lp1340
I00
as(g335
g1027
g142
tp1341
(lp1342
I00
as(g980
g455
g1027
tp1343
(lp1344
I00
as(g990
g980
g1027
tp1345
(lp1346
I00
as(g141
g141
g1027
tp1347
(lp1348
I00
as(g1030
g141
g142
tp1349
(lp1350
I00
as(g335
g141
g1027
tp1351
(lp1352
I00
as(g990
g1030
g1027
tp1353
(lp1354
I00
as(g980
g335
g142
tp1355
(lp1356
I00
as(g284
g990
g1027
tp1357
(lp1358
I00
as(g284
g141
g142
tp1359
(lp1360
I01
as(g215
g141
g142
tp1361
(lp1362
I01
as(g980
g142
g1027
tp1363
(lp1364
I00
as(g335
g398
g142
tp1365
(lp1366
I00
as(g398
g398
g1027
tp1367
(lp1368
I00
as(g284
g1030
g142
tp1369
(lp1370
I00
as(g1027
g1030
g1027
tp1371
(lp1372
I00
as(g215
g398
g1027
tp1373
(lp1374
I00
as(g1027
g990
g142
tp1375
(lp1376
I00
as(g1030
g1030
g1027
tp1377
(lp1378
I00
as(g284
g980
g142
tp1379
(lp1380
I00
as(g980
g215
g142
tp1381
(lp1382
I00
as(g1027
g455
g1027
tp1383
(lp1384
I00
as(g141
g980
g1027
tp1385
(lp1386
I00
as(g398
g142
g142
tp1387
(lp1388
I00
as(g1030
g980
g1027
tp1389
(lp1390
I00
as(g398
g141
g142
tp1391
(lp1392
I01
as(g141
g335
g142
tp1393
(lp1394
I00
as(g284
g1027
g1027
tp1395
(lp1396
I00
as(g455
g980
g1027
tp1397
(lp1398
I00
as(g990
g455
g142
tp1399
(lp1400
I00
as(g1030
g1027
g1027
tp1401
(lp1402
I00
as(g1027
g455
g142
tp1403
(lp1404
I00
as(g980
g1030
g142
tp1405
(lp1406
I00
as(g335
g398
g1027
tp1407
(lp1408
I00
as(g335
g284
g1027
tp1409
(lp1410
I00
as(g215
g142
g142
tp1411
(lp1412
I00
as(g284
g1030
g1027
tp1413
(lp1414
I00
as(g284
g215
g142
tp1415
(lp1416
I00
as(g1030
g284
g1027
tp1417
(lp1418
I00
as(g142
g990
g142
tp1419
(lp1420
I00
as(g142
g398
g142
tp1421
(lp1422
I00
as(g990
g980
g142
tp1423
(lp1424
I00
as(g990
g284
g142
tp1425
(lp1426
I00
as(g1030
g398
g142
tp1427
(lp1428
I00
as(g335
g141
g142
tp1429
(lp1430
I01
as(g335
g335
g1027
tp1431
(lp1432
I00
as(g990
g215
g1027
tp1433
(lp1434
I00
as(g215
g142
g1027
tp1435
(lp1436
I00
as(g455
g142
g142
tp1437
(lp1438
I00
as(g980
g142
g142
tp1439
(lp1440
I00
as(g990
g455
g1027
tp1441
(lp1442
I00
as(g215
g455
g142
tp1443
(lp1444
I00
as(g142
g1027
g142
tp1445
(lp1446
I00
as(g1030
g1030
g142
tp1447
(lp1448
I00
as(g455
g141
g1027
tp1449
(lp1450
I00
as(g980
g1030
g1027
tp1451
(lp1452
I00
as(g1027
g335
g142
tp1453
(lp1454
I00
as(g141
g284
g142
tp1455
(lp1456
I01
as(g1030
g284
g142
tp1457
(lp1458
I00
as(g980
g1027
g142
tp1459
(lp1460
I00
as(g141
g335
g1027
tp1461
(lp1462
I00
as(g142
g980
g142
tp1463
(lp1464
I00
as(g1030
g990
g1027
tp1465
(lp1466
I00
as(g215
g1030
g1027
tp1467
(lp1468
I00
as(g335
g335
g142
tp1469
(lp1470
I00
as(g990
g215
g142
tp1471
(lp1472
I00
as(g398
g1030
g1027
tp1473
(lp1474
I00
as(g335
g284
g142
tp1475
(lp1476
I00
as(g142
g215
g142
tp1477
(lp1478
I00
as(g141
g398
g142
tp1479
(lp1480
I01
as(g284
g215
g1027
tp1481
(lp1482
I00
as(g215
g215
g142
tp1483
(lp1484
I00
as(g990
g284
g1027
tp1485
(lp1486
I00
as(g335
g215
g142
tp1487
(lp1488
I01
as(g398
g1027
g1027
tp1489
(lp1490
I00
as(g142
g455
g142
tp1491
(lp1492
I00
as(g455
g1027
g1027
tp1493
(lp1494
I00
as(g142
g284
g1027
tp1495
(lp1496
I00
as(g455
g142
g1027
tp1497
(lp1498
I00
as(g1027
g1027
g1027
tp1499
(lp1500
I00
as(g335
g1030
g1027
tp1501
(lp1502
I00
as(g284
g398
g1027
tp1503
(lp1504
I00
as(g142
g1027
g1027
tp1505
(lp1506
I00
as(g455
g141
g142
tp1507
(lp1508
I00
as(g1027
g980
g142
tp1509
(lp1510
I00
assg583
g584
sS'use_prm'
p1511
I01
sS'object_names'
p1512
(lp1513
S'square_packing_box1'
p1514
aS'rectangular_packing_box1'
p1515
aS'square_packing_box2'
p1516
aS'rectangular_packing_box2'
p1517
aS'square_packing_box3'
p1518
aS'rectangular_packing_box3'
p1519
aS'square_packing_box4'
p1520
aS'rectangular_packing_box4'
p1521
asg974
NsS'current_holding_collides'
p1522
NsS'object_poses'
p1523
(dp1524
Vrectangular_packing_box4
p1525
g22
(g23
(I0
tp1526
g25
tp1527
Rp1528
(I1
(I1
I3
tp1529
g151
I00
S'\x8a\xf4\x89\x9ac\xd8\x07@\xb3\xfav-\x04\xea\x17\xc0.~\xc9\n\x8a \x00@'
p1530
tp1531
bsVrectangular_packing_box2
p1532
g22
(g23
(I0
tp1533
g25
tp1534
Rp1535
(I1
(I1
I3
tp1536
g151
I00
S'\x15\xcbY\xef\xd5j\x0e@b\xc7\xb8\x01y\x1f\x1d\xc05E\x0bM\xe2\xdd\xf6?'
p1537
tp1538
bsVrectangular_packing_box3
p1539
g22
(g23
(I0
tp1540
g25
tp1541
Rp1542
(I1
(I1
I3
tp1543
g151
I00
S'}\xb4\xbew\xc8/\x02@#\xa6\xf6\xbb\xd2\x15\x16\xc0\xce\xb4\xde\xa8\xd0D\x18@'
p1544
tp1545
bsVrectangular_packing_box1
p1546
g22
(g23
(I0
tp1547
g25
tp1548
Rp1549
(I1
(I1
I3
tp1550
g151
I00
S'\x90\xfa\xd4Q\xd2\x05\xbe\xbf\x1c6bN\xc16\x1d\xc0^\xd1\xc1\x8fV\xc6\xfd?'
p1551
tp1552
bsVsquare_packing_box2
p1553
g22
(g23
(I0
tp1554
g25
tp1555
Rp1556
(I1
(I1
I3
tp1557
g151
I00
S'\x12\xc4\xe9\x04\xd9\x8b\xfe?A\xafzQ\x82\xf9\x1b\xc0\x99\xcf\xd8\xcc\xb2\xf9\xe4?'
p1558
tp1559
bsVsquare_packing_box3
p1560
g22
(g23
(I0
tp1561
g25
tp1562
Rp1563
(I1
(I1
I3
tp1564
g151
I00
S'\xcb\xfaQ\xff\xcc\xb1\x0c@\xf3\xc81\xd1\x16w\x17\xc0m\x08 }-\xb7\n@'
p1565
tp1566
bsVsquare_packing_box1
p1567
g22
(g23
(I0
tp1568
g25
tp1569
Rp1570
(I1
(I1
I3
tp1571
g151
I00
S'\xc4\xbaS\n{\xb7\xe9?\xe5\x9c|\x81\xb6"\x1e\xc0\x92\xb7y\xeb\xa1P\xea?'
p1572
tp1573
bsVsquare_packing_box4
p1574
g22
(g23
(I0
tp1575
g25
tp1576
Rp1577
(I1
(I1
I3
tp1578
g151
I00
S'\xf5\x01\xf5ry\xc6\x06@\xea\xca\\k*\xe1\x1c\xc0\x05\xae\x8c\xa3\xa3-\xda?'
p1579
tp1580
bssS'reachable_regions_while_holding'
p1581
(lp1582
(g544
g1027
tp1583
a(g644
g1027
tp1584
a(g545
g1027
tp1585
a(g546
g1027
tp1586
a(g547
g1027
tp1587
a(g847
g1027
tp1588
a(g12
g1027
tp1589
a(g921
g1027
tp1590
a(g546
g142
tp1591
a(g12
g142
tp1592
asS'in_region'
p1593
(itrajectory_representation.predicates.in_region
InRegion
p1594
(dp1595
g974
NsbsS'cached_pick_paths'
p1596
(dp1597
g544
g625
sg644
g669
sg545
g730
sg546
g779
sg547
g828
sg847
g872
sg12
g902
sg921
g946
ssg548
(dp1598
(Vsquare_packing_box1
p1599
(cnumpy.core.multiarray
scalar
p1600
(g151
S'\xa9\xdd\xaf\x02|\xb7\xe9?'
p1601
tp1602
Rp1603
g1600
(g151
S'\xeawak\xb6"\x1e\xc0'
p1604
tp1605
Rp1606
g1600
(g151
S'`\x06cD\xa2P\xea?'
p1607
tp1608
Rp1609
tp1610
tp1611
g578
s(Vrectangular_packing_box3
p1612
(g1600
(g151
S'(\x9a\x07\xb0\xc8/\x02@'
p1613
tp1614
Rp1615
g1600
(g151
S'\xa6\x0c\x1c\xd0\xd2\x15\x16\xc0'
p1616
tp1617
Rp1618
g1600
(g151
S'6\xe7\xe0\x99\xd0D\x18@'
p1619
tp1620
Rp1621
tp1622
tp1623
g562
s(Vsquare_packing_box4
p1624
(g1600
(g151
S'3\xfb<Fy\xc6\x06@'
p1625
tp1626
Rp1627
g1600
(g151
S'\xa3!\xe3Q*\xe1\x1c\xc0'
p1628
tp1629
Rp1630
g1600
(g151
S'\xf9\xbe\xb8T\xa5-\xda?'
p1631
tp1632
Rp1633
tp1634
tp1635
g582
s(Vrectangular_packing_box2
p1636
(g1600
(g151
S'\x81\xb4\xff\x01\xd6j\x0e@'
p1637
tp1638
Rp1639
g1600
(g151
S'\xc8^\xef\xfex\x1f\x1d\xc0'
p1640
tp1641
Rp1642
g1600
(g151
S'\x0fD\x16i\xe2\xdd\xf6?'
p1643
tp1644
Rp1645
tp1646
tp1647
g558
s(Vsquare_packing_box3
p1648
(g1600
(g151
S'\x08\xe5}\x1c\xcd\xb1\x0c@'
p1649
tp1650
Rp1651
g1600
(g151
S'_\\\xaa\xd2\x16w\x17\xc0'
p1652
tp1653
Rp1654
g1600
(g151
S'T\x1c\x07^-\xb7\n@'
p1655
tp1656
Rp1657
tp1658
tp1659
g574
s(Vrectangular_packing_box1
p1660
(g1600
(g151
S'\xe5\x0e\x9b\xc8\xcc\x05\xbe\xbf'
p1661
tp1662
Rp1663
g1600
(g151
S'\xc1\x01-]\xc16\x1d\xc0'
p1664
tp1665
Rp1666
g1600
(g151
S'\xb6\x82\xa6%V\xc6\xfd?'
p1667
tp1668
Rp1669
tp1670
tp1671
g566
s(Vrectangular_packing_box4
p1672
(g1600
(g151
S'z9\xec\xbec\xd8\x07@'
p1673
tp1674
Rp1675
g1600
(g151
S'\x9f[\xe8J\x04\xea\x17\xc0'
p1676
tp1677
Rp1678
g1600
(g151
S'\xd70C\xe3\x89 \x00@'
p1679
tp1680
Rp1681
tp1682
tp1683
g554
s(Vsquare_packing_box2
p1684
(g1600
(g151
S'\x7f2\xc6\x87\xd9\x8b\xfe?'
p1685
tp1686
Rp1687
g1600
(g151
S'\x1d>\xe9D\x82\xf9\x1b\xc0'
p1688
tp1689
Rp1690
g1600
(g151
S'\xb0\xc7DJ\xb3\xf9\xe4?'
p1691
tp1692
Rp1693
tp1694
tp1695
g570
ssS'state_saver'
p1696
(igtamp_utils.utils
CustomStateSaver
p1697
(dp1698
S'robot_base_pose'
p1699
g22
(g23
(I0
tp1700
g25
tp1701
Rp1702
(I1
(I1
I3
tp1703
g151
I00
S'\x8at\xa0)\x95\xc5\xee?1/\xec\x0e9/\x15\xc0\xd8h|\x92\x92\xc0\x17@'
p1704
tp1705
bsS'held_object'
p1706
NsS'robot_name'
p1707
S'pr2'
p1708
sS'env_id'
p1709
I1
sg1523
(dp1710
Vright_wall_1
p1711
g22
(g23
(I0
tp1712
g25
tp1713
Rp1714
(I1
(I4
tp1715
g151
I00
S'H\xe1z\x14\xaeG\x12@&\\\x8f\xc2\xf5(\xd4\xbf\xcc\x7fH\xbf}\x1d\xed?\x00\x00\x00\x00\x00\x00\x00\x00'
p1716
tp1717
bsVc_obst5
p1718
g22
(g23
(I0
tp1719
g25
tp1720
Rp1721
(I1
(I4
tp1722
g151
I00
S"a'\x01'jX\x12@)\xc4\x7f\xdc)\xba\xd0?e\xaa`TR'\xed?\xfck\xf5\x07\xbbw\x17@"
p1723
tp1724
bsVentrance_right
p1725
g22
(g23
(I0
tp1726
g25
tp1727
Rp1728
(I1
(I4
tp1729
g151
I00
S'ffffff\n@H\xe1z\x14\xaeG\t\xc0\x9c\xc4 \xb0rh\xc1?\x00\x00\x00\x00\x00\x00\x00\x00'
p1730
tp1731
bsVcomputer_table
p1732
g22
(g23
(I0
tp1733
g25
tp1734
Rp1735
(I1
(I4
tp1736
g151
I00
S'\x00\x00\x00\x00\x00\x00\x13@\x00\x00\x00\x00\x00\x00\xf8\xbf\x96C\x8bl\xe7\xfb\xe7?\xd2!3\x7f|\xd9\x12@'
p1737
tp1738
bsVchair_6b56
p1739
g22
(g23
(I0
tp1740
g25
tp1741
Rp1742
(I1
(I4
tp1743
g151
I00
S'u=\n\xd7\xa3p\xf5?K\xe1z\x14\xaeG\xd1?\x00\x00\x00\x00\x00\x00\x00\x00\xd6$\xfaNBm\n@'
p1744
tp1745
bsVsquare_packing_box3
p1746
g22
(g23
(I0
tp1747
g25
tp1748
Rp1749
(I1
(I4
tp1750
g151
I00
S'\xcd\xfaQ\xff\xcc\xb1\x0c@\xf1\xc81\xd1\x16w\x17\xc0L7\x89A`\xe5\xd8?m\x08 }-\xb7\n@'
p1751
tp1752
bsVsquare_packing_box2
p1753
g22
(g23
(I0
tp1754
g25
tp1755
Rp1756
(I1
(I4
tp1757
g151
I00
S'\x10\xc4\xe9\x04\xd9\x8b\xfe?@\xafzQ\x82\xf9\x1b\xc0L7\x89A`\xe5\xd8?\x99\xcf\xd8\xcc\xb2\xf9\xe4?'
p1758
tp1759
bsVtable
p1760
g22
(g23
(I0
tp1761
g25
tp1762
Rp1763
(I1
(I4
tp1764
g151
I00
S'\x7f\xf6#EdX\xed?\xac\xffs\x98//\xc0\xbf\x00\x00\x00\x00\x00\x00\x00\x00\x00\x00\x00\x00\x00\x00\x00\x00'
p1765
tp1766
bsVsquare_packing_box1
p1767
g22
(g23
(I0
tp1768
g25
tp1769
Rp1770
(I1
(I4
tp1771
g151
I00
S'\xb8\xbaS\n{\xb7\xe9?\xe4\x9c|\x81\xb6"\x1e\xc0L7\x89A`\xe5\xd8?\x92\xb7y\xeb\xa1P\xea?'
p1772
tp1773
bsVback_wall_2
p1774
g22
(g23
(I0
tp1775
g25
tp1776
Rp1777
(I1
(I4
tp1778
g151
I00
S'\xaeG\xe1z\x14.\x13@\x80\x14\xaeG\xe1z\xc4?xX\xa85\xcd\xbb\xf2?\x00\x00\x00\x00\x00\x00\x00\x00'
p1779
tp1780
bsVchair_083c
p1781
g22
(g23
(I0
tp1782
g25
tp1783
Rp1784
(I1
(I4
tp1785
g151
I00
S'\xa4p=\n\xd7\xa3\xe0?333333\xe3\xbf\x00\x00\x00\x00\x00\x00\x00\x00\x00\x00\x00\x00\x00\x00\x00\x00'
p1786
tp1787
bsVback_wall_1
p1788
g22
(g23
(I0
tp1789
g25
tp1790
Rp1791
(I1
(I4
tp1792
g151
I00
S'\xaeG\xe1z\x14.\x13@\x80\x14\xaeG\xe1z\xc4?\xcc\x7fH\xbf}\x1d\xed?\x00\x00\x00\x00\x00\x00\x00\x00'
p1793
tp1794
bsVbottom_wall
p1795
g22
(g23
(I0
tp1796
g25
tp1797
Rp1798
(I1
(I4
tp1799
g151
I00
S'\x00\x00\x00\x00\x00\x00\xfc?\x00\x00\x00\x00\x00\x00\x00\x00\x00\x00\x00\x00\x00\x00\x00\x00\x00\x00\x00\x00\x00\x00\x00\x00'
p1800
tp1801
bsVcup_905a
p1802
g22
(g23
(I0
tp1803
g25
tp1804
Rp1805
(I1
(I4
tp1806
g151
I00
S'\x00\x00\x00\x00\x00\x00\xf0?\x83\xc0\xca\xa1E\xb6\xdb?\x1b/\xdd$\x06\x81\xed?\x00\x00\x00\x00\x00\x00\x00\x00'
p1807
tp1808
bsVplate_496f
p1809
g22
(g23
(I0
tp1810
g25
tp1811
Rp1812
(I1
(I4
tp1813
g151
I00
S"q=\n\xd7\xa3p\xe5?\x9dhW!\xe5'\xdd\xbf\x1b/\xdd$\x06\x81\xed?\x00\x00\x00\x00\x00\x00\x00\x00"
p1814
tp1815
bsVtoaster
p1816
g22
(g23
(I0
tp1817
g25
tp1818
Rp1819
(I1
(I4
tp1820
g151
I00
S')\\\x8f\xc2\xf5(\xf4\xbf\xe0z\x14\xaeG\xe1\xf2\xbf\xb8\x1e\x85\xebQ\xb8\xee?\x89/`\x9b\xf8\x8a\xe4?'
p1821
tp1822
bsVc_obst1
p1823
g22
(g23
(I0
tp1824
g25
tp1825
Rp1826
(I1
(I4
tp1827
g151
I00
S"\x04i\x17G\xd4.\x12@ \x03\xca1,h\xdf?e\xaa`TR'\xed?\x1csl\xd6\xf8+\x16@"
p1828
tp1829
bsVrectangular_packing_box4
p1830
g22
(g23
(I0
tp1831
g25
tp1832
Rp1833
(I1
(I4
tp1834
g151
I00
S'\x8a\xf4\x89\x9ac\xd8\x07@\xb3\xfav-\x04\xea\x17\xc0L7\x89A`\xe5\xd8?.~\xc9\n\x8a \x00@'
p1835
tp1836
bsVmicrowave
p1837
g22
(g23
(I0
tp1838
g25
tp1839
Rp1840
(I1
(I4
tp1841
g151
I00
S'\x9a\x99\x99\x99\x99\x99\xf1\xbf\x00\x00\x00\x00\x00\x00\x00@7\x89A`\xe5\xd0\xee?\x00\x00\x00\x00\x00\x00\x00\x00'
p1842
tp1843
bsVc_obst7
p1844
g22
(g23
(I0
tp1845
g25
tp1846
Rp1847
(I1
(I4
tp1848
g151
I00
S"\x17\xf4?\xb3\xd2z\x12@0O\x17\xee>3\xa6?e\xaa`TR'\xed?\x94Rb\xf8\x87a\x04@"
p1849
tp1850
bsVc_obst6
p1851
g22
(g23
(I0
tp1852
g25
tp1853
Rp1854
(I1
(I4
tp1855
g151
I00
S"&,\x98\x10\xb6#\x12@`\xc2`\x94\x07g\xae\xbfe\xaa`TR'\xed?5\x07\xf0W\xcaY\xfd?"
p1856
tp1857
bsVcup_b6af
p1858
g22
(g23
(I0
tp1859
g25
tp1860
Rp1861
(I1
(I4
tp1862
g151
I00
S'R\xb8\x1e\x85\xebQ\xe8?\x9a\x99\x99\x99\x99\x99\xe1?\x1b/\xdd$\x06\x81\xed?\x00\x00\x00\x00\x00\x00\x00\x00'
p1863
tp1864
bsVc_obst4
p1865
g22
(g23
(I0
tp1866
g25
tp1867
Rp1868
(I1
(I4
tp1869
g151
I00
S"\xf1y\x9a\xb6\x80z\x12@\x90)\xe0\xb3\xa7(\xd6?e\xaa`TR'\xed?=u)n\xfd\xb0\x0e@"
p1870
tp1871
bsVrectangular_packing_box2
p1872
g22
(g23
(I0
tp1873
g25
tp1874
Rp1875
(I1
(I4
tp1876
g151
I00
S'\x12\xcbY\xef\xd5j\x0e@f\xc7\xb8\x01y\x1f\x1d\xc0L7\x89A`\xe5\xd8?5E\x0bM\xe2\xdd\xf6?'
p1877
tp1878
bsVplate_fa76
p1879
g22
(g23
(I0
tp1880
g25
tp1881
Rp1882
(I1
(I4
tp1883
g151
I00
S'=\n\xd7\xa3p=\xf2?\x00\x00\x00\x00\x00\x00\x00\x00\x1b/\xdd$\x06\x81\xed?\x00\x00\x00\x00\x00\x00\x00\x00'
p1884
tp1885
bsVfloorwalls
p1886
g22
(g23
(I0
tp1887
g25
tp1888
Rp1889
(I1
(I4
tp1890
g151
I00
S'\xc7\xcc\xcc\xcc\xcc\xcc\xfc?\x00\x00\x00\x00\x00\x00\x18\xc0H\xe1z\x14\xaeG\xc1?\x16-DT\xfb!\xf9?'
p1891
tp1892
bsVpin_c671
p1893
g22
(g23
(I0
tp1894
g25
tp1895
Rp1896
(I1
(I4
tp1897
g151
I00
S'\xc3\xf5(\\\x8f\xc2\xf1\xbf}?5^\xbaI\x02@\xb8\x1e\x85\xebQ\xb8\xfa?\x00\x00\x00\x00\x00\x00\x00\x00'
p1898
tp1899
bsVc_obst3
p1900
g22
(g23
(I0
tp1901
g25
tp1902
Rp1903
(I1
(I4
tp1904
g151
I00
S"\xad\xf3yb<\x02\x12@\x00\xfa\xc0\xf6F\xf0\x84\xbfe\xaa`TR'\xed?\xf7\xb1\xea`A\xb8\t@"
p1905
tp1906
bsVchair_2e39
p1907
g22
(g23
(I0
tp1908
g25
tp1909
Rp1910
(I1
(I4
tp1911
g151
I00
S'hfffff\xee?cfffff\xf2\xbf\x00\x00\x00\x00\x00\x00\x00\x00\x07M\xe8QQF\xf3?'
p1912
tp1913
bsVentrance_left
p1914
g22
(g23
(I0
tp1915
g25
tp1916
Rp1917
(I1
(I4
tp1918
g151
I00
S'\x98\x99\x99\x99\x99\x99\xe9\xbfH\xe1z\x14\xaeG\t\xc0\x9c\xc4 \xb0rh\xc1?\x00\x00\x00\x00\x00\x00\x00\x00'
p1919
tp1920
bsVtop_wall_1
p1921
g22
(g23
(I0
tp1922
g25
tp1923
Rp1924
(I1
(I4
tp1925
g151
I00
S'H\xe1z\x14\xaeG\x12@\x80\x14\xaeG\xe1z\xc4?xX\xa85\xcd\xbb\xf2?\x00\x00\x00\x00\x00\x00\x00\x00'
p1926
tp1927
bsVrectangular_packing_box3
p1928
g22
(g23
(I0
tp1929
g25
tp1930
Rp1931
(I1
(I4
tp1932
g151
I00
S'}\xb4\xbew\xc8/\x02@#\xa6\xf6\xbb\xd2\x15\x16\xc0L7\x89A`\xe5\xd8?\xd0\xb4\xde\xa8\xd0D\x18@'
p1933
tp1934
bsVshaker
p1935
g22
(g23
(I0
tp1936
g25
tp1937
Rp1938
(I1
(I4
tp1939
g151
I00
S'\n\xd7\xa3p=\n\x01@\x14\xaeG\xe1z\x14\x02@\\\x8f\xc2\xf5(\\\xef?\x00\x00\x00\x00\x00\x00\x00\x00'
p1940
tp1941
bsVc_obst9
p1942
g22
(g23
(I0
tp1943
g25
tp1944
Rp1945
(I1
(I4
tp1946
g151
I00
S"j\xdc\xa8j\xc87\x12@\x80Y\xbb\xe2\x86\xd0\xc0?e\xaa`TR'\xed?\xd2\xb4\xb2\xa1\xc6\xa3\x18@"
p1947
tp1948
bsVplate_835a
p1949
g22
(g23
(I0
tp1950
g25
tp1951
Rp1952
(I1
(I4
tp1953
g151
I00
S'\xf6(\\\x8f\xc2\xf5\xf0?\\\x8f\xc2\xf5(\\\xe7\xbf\x1b/\xdd$\x06\x81\xed?\x00\x00\x00\x00\x00\x00\x00\x00'
p1954
tp1955
bsVcup_58a2
p1956
g22
(g23
(I0
tp1957
g25
tp1958
Rp1959
(I1
(I4
tp1960
g151
I00
S'\x85\xebQ\xb8\x1e\x85\xe3?\xcd\xcc\xcc\xcc\xcc\xcc\xdc?\x1b/\xdd$\x06\x81\xed?\x00\x00\x00\x00\x00\x00\x00\x00'
p1961
tp1962
bsVleft_wall_1
p1963
g22
(g23
(I0
tp1964
g25
tp1965
Rp1966
(I1
(I4
tp1967
g151
I00
S'H\xe1z\x14\xaeG\x12@S\xb8\x1e\x85\xebQ\xe4?\xcc\x7fH\xbf}\x1d\xed?\x00\x00\x00\x00\x00\x00\x00\x00'
p1968
tp1969
bsVc_obst2
p1970
g22
(g23
(I0
tp1971
g25
tp1972
Rp1973
(I1
(I4
tp1974
g151
I00
S"V\xde\x01Zo#\x12@\xe82\xa0\xa5\xaa\xee\xc1\xbfe\xaa`TR'\xed?\x82X\xa7\xbf\xf9P\x05@"
p1975
tp1976
bsVsquare_packing_box4
p1977
g22
(g23
(I0
tp1978
g25
tp1979
Rp1980
(I1
(I4
tp1981
g151
I00
S'\xf3\x01\xf5ry\xc6\x06@\xeb\xca\\k*\xe1\x1c\xc0L7\x89A`\xe5\xd8?\x05\xae\x8c\xa3\xa3-\xda?'
p1982
tp1983
bsVrectangular_packing_box1
p1984
g22
(g23
(I0
tp1985
g25
tp1986
Rp1987
(I1
(I4
tp1988
g151
I00
S'p\xfa\xd4Q\xd2\x05\xbe\xbf\x1a6bN\xc16\x1d\xc0L7\x89A`\xe5\xd8?^\xd1\xc1\x8fV\xc6\xfd?'
p1989
tp1990
bsVpin_371e
p1991
g22
(g23
(I0
tp1992
g25
tp1993
Rp1994
(I1
(I4
tp1995
g151
I00
S'333333\xf3\xbfffffff\xf6?\xb8\x1e\x85\xebQ\xb8\xee?\x00\x00\x00\x00\x00\x00\x00\x00'
p1996
tp1997
bsVfridge
p1998
g22
(g23
(I0
tp1999
g25
tp2000
Rp2001
(I1
(I4
tp2002
g151
I00
S'\xd7\xa3p=\n\xd7\xeb\xbf\x00\x00\x00\x00\x00\x00\x00\xc0\xcd\xcc\xcc\xcc\xcc\xcc\xf8?\x00\x00\x00\x00\x00\x00\x00\x00'
p2003
tp2004
bsVcup_d441
p2005
g22
(g23
(I0
tp2006
g25
tp2007
Rp2008
(I1
(I4
tp2009
g151
I00
S'\n\xd7\xa3p=\n\xef?\x8f\xc2\xf5(\\\x8f\xe2?\x1b/\xdd$\x06\x81\xed?\x00\x00\x00\x00\x00\x00\x00\x00'
p2010
tp2011
bsVshelf2
p2012
g22
(g23
(I0
tp2013
g25
tp2014
Rp2015
(I1
(I4
tp2016
g151
I00
S'\x00\x00\x00\x00\x00\x00\x0e@\xaeG\xe1z\x14\xae\x07@\x9c\xc4 \xb0rh\xc1?\xd2!3\x7f|\xd9\x12@'
p2017
tp2018
bsVtop_wall_2
p2019
g22
(g23
(I0
tp2020
g25
tp2021
Rp2022
(I1
(I4
tp2023
g151
I00
S'H\xe1z\x14\xaeG\x12@\x80\x14\xaeG\xe1z\xc4?\x16HP\xfc\x18\xf3\xfd?\x00\x00\x00\x00\x00\x00\x00\x00'
p2024
tp2025
bsVc_obst0
p2026
g22
(g23
(I0
tp2027
g25
tp2028
Rp2029
(I1
(I4
tp2030
g151
I00
S"{\xa8\x18\xdcv\x87\x12@\x84\xce\x10<\xad\x17\xdd?e\xaa`TR'\xed?\xfd\x1e\xc7\x80^q\r@"
p2031
tp2032
bsVshelf1
p2033
g22
(g23
(I0
tp2034
g25
tp2035
Rp2036
(I1
(I4
tp2037
g151
I00
S'\x00\x00\x00\x00\x00\x00\x13@\xaeG\xe1z\x14\xae\x07@\x9c\xc4 \xb0rh\xc1?\xd2!3\x7f|\xd9\x12@'
p2038
tp2039
bsVsink
p2040
g22
(g23
(I0
tp2041
g25
tp2042
Rp2043
(I1
(I4
tp2044
g151
I00
S'ffffff\xd6?333333\x01@\x9a\x99\x99\x99\x99\x99\xb9\xbf\x00\x00\x00\x00\x00\x00\x00\x00'
p2045
tp2046
bsVpr2
p2047
g22
(g23
(I0
tp2048
g25
tp2049
Rp2050
(I1
(I4
tp2051
g151
I00
S'\x92t\xa0)\x95\xc5\xee?1/\xec\x0e9/\x15\xc0\x9a_\x94\xa0\xbf\xd0\xc1?\xd8h|\x92\x92\xc0\x17@'
p2052
tp2053
bsVchair_12d0
p2054
g22
(g23
(I0
tp2055
g25
tp2056
Rp2057
(I1
(I4
tp2058
g151
I00
S'\\\xd2\x18\xad\xa3\xaa\xdb?Of\x83L2r\xc6?\x00\x00\x00\x00\x00\x00\x00\x00\xf8\x81\r\x14M\xa6\x17@'
p2059
tp2060
bsVright_wall_2
p2061
g22
(g23
(I0
tp2062
g25
tp2063
Rp2064
(I1
(I4
tp2065
g151
I00
S'H\xe1z\x14\xaeG\x12@&\\\x8f\xc2\xf5(\xd4\xbfxX\xa85\xcd\xbb\xf2?\x00\x00\x00\x00\x00\x00\x00\x00'
p2066
tp2067
bsVknife_block
p2068
g22
(g23
(I0
tp2069
g25
tp2070
Rp2071
(I1
(I4
tp2072
g151
I00
S'R\xb8\x1e\x85\xebQ\xe0\xbfffffff\x02@`\xe5\xd0"\xdb\xf9\xee?\x00\x00\x00\x00\x00\x00\x00\x00'
p2073
tp2074
bsVleft_wall_2
p2075
g22
(g23
(I0
tp2076
g25
tp2077
Rp2078
(I1
(I4
tp2079
g151
I00
S'H\xe1z\x14\xaeG\x12@S\xb8\x1e\x85\xebQ\xe4?xX\xa85\xcd\xbb\xf2?\x00\x00\x00\x00\x00\x00\x00\x00'
p2080
tp2081
bsVleft_wall
p2082
g22
(g23
(I0
tp2083
g25
tp2084
Rp2085
(I1
(I4
tp2086
g151
I00
S'\x9a\x99\x99\x99\x99\x99\x07@H\xe1z\x14\xaeG\xff?\x9c\xc4 \xb0rh\xc1?\x00\x00\x00\x00\x00\x00\x00\x00'
p2087
tp2088
bsVkitchen
p2089
g22
(g23
(I0
tp2090
g25
tp2091
Rp2092
(I1
(I4
tp2093
g151
I00
S'\x00\x00\x00\x00\x00\x00\x00\x00\x00\x00\x00\x00\x00\x00\x00\x00\x00\x00\x00\x00\x00\x00\x00\x00\x00\x00\x00\x00\x00\x00\x00\x00'
p2094
tp2095
bsVtable2
p2096
g22
(g23
(I0
tp2097
g25
tp2098
Rp2099
(I1
(I4
tp2100
g151
I00
S'\x00\x00\x00\x00\x00\x00\x13@\x80\x14\xaeG\xe1z\xc4?S\x96!\x8euq\xec?\xd2!3\x7f|\xd9\x12@'
p2101
tp2102
bsVc_obst8
p2103
g22
(g23
(I0
tp2104
g25
tp2105
Rp2106
(I1
(I4
tp2107
g151
I00
S"\xccF\x00\xe4f\xfc\x11@h\x97\xde\x1eJ\x9a\xd5?e\xaa`TR'\xed?\x14\x9b\x99\xbc\xfb\xbf\x15@"
p2108
tp2109
bsVplate_b4e7
p2110
g22
(g23
(I0
tp2111
g25
tp2112
Rp2113
(I1
(I4
tp2114
g151
I00
S'\x14\xaeG\xe1z\x14\xf2\xbf\x14\xaeG\xe1z\x14\x00@=\n\xd7\xa3p=\xf2?\x00\x00\x00\x00\x00\x00\x00\x00'
p2115
tp2116
bsVcooker
p2117
g22
(g23
(I0
tp2118
g25
tp2119
Rp2120
(I1
(I4
tp2121
g151
I00
S'\xaeG\xe1z\x14\xae\xff?\x85\xebQ\xb8\x1e\x85\xfb?\x00\x00\x00\x00\x00\x00\xe8?\x00\x00\x00\x00\x00\x00\x00\x00'
p2122
tp2123
bsVpin_a091
p2124
g22
(g23
(I0
tp2125
g25
tp2126
Rp2127
(I1
(I4
tp2128
g151
I00
S'\xdb\xf9~j\xbct\xf7\xbf)\\\x8f\xc2\xf5(\x02@\xb8\x1e\x85\xebQ\xb8\xfa?\x00\x00\x00\x00\x00\x00\x00\x00'
p2129
tp2130
bsVside_wall_2
p2131
g22
(g23
(I0
tp2132
g25
tp2133
Rp2134
(I1
(I4
tp2135
g151
I00
S'\xfa\xff\xff\xff\xff\xff\x14@\x00\x00\x00\x00\x00\x00\x00\x00\x9c\xc4 \xb0rh\xc1?\x18-DT\xfb!\xf9?'
p2136
tp2137
bsVside_wall_3
p2138
g22
(g23
(I0
tp2139
g25
tp2140
Rp2141
(I1
(I4
tp2142
g151
I00
S'\x00\x00\x00\x00\x00\x00\xfc?H\xe1z\x14\xaeG\t@\x9c\xc4 \xb0rh\xc1?\x00\x00\x00\x00\x00\x00\x00\x00'
p2143
tp2144
bsVmixer
p2145
g22
(g23
(I0
tp2146
g25
tp2147
Rp2148
(I1
(I4
tp2149
g151
I00
S'\n\xd7\xa3p=\n\xfb?ffffff\x02@d;\xdfO\x8d\x97\xee?\x00\x00\x00\x00\x00\x00\x00\x00'
p2150
tp2151
bsVside_wall_1
p2152
g22
(g23
(I0
tp2153
g25
tp2154
Rp2155
(I1
(I4
tp2156
g151
I00
S'\xf4\xff\xff\xff\xff\xff\xfb\xbf\x00\x00\x00\x00\x00\x00\x00\x00\x9c\xc4 \xb0rh\xc1?\x18-DT\xfb!\xf9?'
p2157
tp2158
bsVbottom_wall_1
p2159
g22
(g23
(I0
tp2160
g25
tp2161
Rp2162
(I1
(I4
tp2163
g151
I00
S'H\xe1z\x14\xaeG\x12@\x80\x14\xaeG\xe1z\xc4?\xcc\x7fH\xbf}\x1d\xed?\x00\x00\x00\x00\x00\x00\x00\x00'
p2164
tp2165
bsVcan
p2166
g22
(g23
(I0
tp2167
g25
tp2168
Rp2169
(I1
(I4
tp2170
g151
I00
S'\x00\x00\x00\x00\x00\x00\xf4\xbfH\xe1z\x14\xaeG\xe1\xbf\n\xd7\xa3p=\n\xef?\x00\x00\x00\x00\x00\x00\x00\x00'
p2171
tp2172
bsVright_wall
p2173
g22
(g23
(I0
tp2174
g25
tp2175
Rp2176
(I1
(I4
tp2177
g151
I00
S'\x9a\x99\x99\x99\x99\x99\x07@H\xe1z\x14\xaeG\xff\xbf\x9c\xc4 \xb0rh\xc1?\x00\x00\x00\x00\x00\x00\x00\x00'
p2178
tp2179
bsVcoffe_machine
p2180
g22
(g23
(I0
tp2181
g25
tp2182
Rp2183
(I1
(I4
tp2184
g151
I00
S'\\\x8f\xc2\xf5(\\\xf5\xbf\xb8\x1e\x85\xebQ\xb8\xee?\n\xd7\xa3p=\n\xef?\x00\x00\x00\x00\x00\x00\x00\x00'
p2185
tp2186
bsVcomputer_chair
p2187
g22
(g23
(I0
tp2188
g25
tp2189
Rp2190
(I1
(I4
tp2191
g151
I00
S'\xcd\xcc\xcc\xcc\xcc\xcc\x10@\x00\x00\x00\x00\x00\x00\xf8\xbf\xa00\xb6\x10\xe4\xa9\x95\xbf\x00\x00\x00\x00\x00\x00\x00\x00'
p2192
tp2193
bssS'robot_dof_values'
p2194
g22
(g23
(I0
tp2195
g25
tp2196
Rp2197
(I1
(I39
tp2198
g151
I00
S'\x00\x00\x00\x00\x00\x00\x00\x00\x00\x00\x00\x00\x00\x00\x00\x00\x00\x00\x00\x00\x00\x00\x00\x00\x00\x00\x00\x00\x00\x00\x00\x00\x00\x00\x00\x00\x00\x00\x00\x00\x00\x00\x00\x00\x00\x00\x00\x00\x00\x00\x00\x00\x00\x00\x00\x00\x00\x00\x00\x00\x00\x00\x00\x00\x00\x00\x00\x00\x00\x00\x00\x00\x00\x00\x00\x00\x00\x00\x00\x00\x00\x00\x00\x00\x00\x00\x00\x00\x00\x00\x00\x00\x00\x00\x00\x00@d;\xdfO\x8d\x87?\x00\x00\x00\x00\x00\x00\x00\x00\x00\x00\x00\x00\x00\x00\x00\x00\x00\x00\x00\x00\x00\x00\x00\x00\xea\xed\t\xf1\xcc\xa4\xf4?\x00\x00\x00\x00\x00\x00\x00\x00J"\xd0^p\xf8\x00\xc0\x00\x00\x00\x00\x00\x00\x00\x00\x9e\x03\r.\x04V\xe6\xbf\x00\x00\x00\x00\x00\x00\x00\x00\x00\x00\x00\x00\x00\x00\x00\x00\x00\x00\x00\x00\x00\x00\x80<\x00\x00\x00\x00\x00\x00\x00\x00\x00\x00\x00\x00\x00\x00\x00\x00\x00\x00\x00\x00\x00\x00\x00\x00\x00\x00\x00\x00\x00\x00\x00\x00\xea\xed\t\xf1\xcc\xa4\xf4?\x00\x00\x00\x00\x00\x00\xb0\xbcN"\xd0^p\xf8\x00\xc0\x00\x00\x00\x00\x00\x00\x00\x00\xa3\x03\r.\x04V\xe6\xbf\x00\x00\x00\x00\x00\x00\x00\x00\xce9\xe3\xc17\x89\xe1?\x00\x00\x00\x00\x00\x00\xb2<\x00\x00\x00\x00\x00\x00\x00\x00\x00\x00\x00\x00\x00\x00\xd0<\x00\x00\x00\x00\x00\x00\x00\x00'
p2199
tp2200
bsS'is_holding'
p2201
I00
sbsS'holding_collides'
p2202
NsS'parent_ternary_predicates'
p2203
(dp2204
sS'cached_place_paths'
p2205
(dp2206
(g546
g1027
tp2207
(lp2208
g22
(g23
(I0
tp2209
g25
tp2210
Rp2211
(I1
(I3
tp2212
g151
I00
S'\x7fC\xb2\xd4\xde\xe3\xbf\xbf\xa7\xc0\x0e\\\xd4_\x1a\xc0\xe4\x8d\xbc\xb8\x9b9\x13@'
p2213
tp2214
bas(g921
g142
tp2215
g217
s(g544
g142
tp2216
g286
s(g847
g1027
tp2217
(lp2218
g22
(g23
(I0
tp2219
g25
tp2220
Rp2221
(I1
(I3
tp2222
g151
I00
S'\xc6+\x00\xdd\xfe>\x07@IN\xe2=\xe3\xae\x17\xc07T\r\xfd\xdb\xc7\x17@'
p2223
tp2224
bas(g544
g1027
tp2225
(lp2226
g22
(g23
(I0
tp2227
g25
tp2228
Rp2229
(I1
(I3
tp2230
g151
I00
S'\xc0j\xf7\xfc\x16i\x02@$\xeetK\xbc\x83\x18\xc0O\xce\xc1\xc7x\xeb\xd6?'
p2231
tp2232
bas(g847
g142
tp2233
g400
s(g547
g1027
tp2234
(lp2235
g22
(g23
(I0
tp2236
g25
tp2237
Rp2238
(I1
(I3
tp2239
g151
I00
S'`k\x81\xee\xf4+\x03@D.\x81\x95\xba\r\x1e\xc0p\xbf\x89\xce\xdf\xeb\x04@'
p2240
tp2241
bas(g547
g142
tp2242
g337
s(g12
g142
tp2243
(lp2244
g22
(g23
(I0
tp2245
g25
tp2246
Rp2247
(I1
(I3
tp2248
g151
I00
S'L\xd7\xbe\xb2B\x91\xf0?\xe4\x03j$\x80\x91\x1b\xc0\xd2h\x1d\x1e%g\x11@'
p2249
tp2250
bag22
(g23
(I0
tp2251
g25
tp2252
Rp2253
(I1
(I3
tp2254
g162
I00
S"\xc6'8AN\xb0\xec?\xe0\x975>\x0f\x03\x19\xc0(\xe0e;\x85\x89\x05\xc0"
p2255
tp2256
bag22
(g23
(I0
tp2257
g25
tp2258
Rp2259
(I1
(I3
tp2260
g162
I00
S'\xd0\xcb\x13\x8f\xaa\x9d\xed?\x90\x01<]3\x06\x16\xc0F\xf1\xe7x32\x02\xc0'
p2261
tp2262
bag22
(g23
(I0
tp2263
g25
tp2264
Rp2265
(I1
(I3
tp2266
g162
I00
S'l[\xc4\x16<\xe6\xe9?\xa6\xa0\x90\x84X\x9f\x13\xc0\xc2\xd74Q\x00\xaf\xff\xbf'
p2267
tp2268
bag22
(g23
(I0
tp2269
g25
tp2270
Rp2271
(I1
(I3
tp2272
g162
I00
S"\xaeJ\xbd\x1936\xec?\x04\x13\xd4'\x9f\x88\x10\xc0\x805qo\xb6\xe6\xff\xbf"
p2273
tp2274
bag22
(g23
(I0
tp2275
g25
tp2276
Rp2277
(I1
(I3
tp2278
g162
I00
S'\xf09\xb6\x1c*\x86\xee?\xc4\n/\x96\xcb\xe3\n\xc0\xa0\xc9\xd6F6\x0f\x00\xc0'
p2279
tp2280
bag22
(g23
(I0
tp2281
g25
tp2282
Rp2283
(I1
(I3
tp2284
g162
I00
S'3\xe9\xaf\x05T\x89\xe7?+~\xcb\xd3\x15\xc7\x04\xc0x6(d5\xed\x07@'
p2285
tp2286
bas(g545
g142
tp2287
g144
s(g545
g1027
tp2288
(lp2289
g22
(g23
(I0
tp2290
g25
tp2291
Rp2292
(I1
(I3
tp2293
g151
I00
S'\x9c\xa5\x82<\xed\xcc\x08@A\\\xaa)\x03\xc9\x16\xc0\x91J\xf1!T\xbb\x08@'
p2294
tp2295
bas(g921
g1027
tp2296
(lp2297
g22
(g23
(I0
tp2298
g25
tp2299
Rp2300
(I1
(I3
tp2301
g151
I00
S'\x88\xee6\xb1:\x88\t@\xd8\xadh\xa6\x05A\x1f\xc0\xca\x82p\xd7c\x9a\xfc?'
p2302
tp2303
bas(g12
g1027
tp2304
(lp2305
g22
(g23
(I0
tp2306
g25
tp2307
Rp2308
(I1
(I3
tp2309
g151
I00
S'F\xd7\xbe\xb2B\x91\xf0?\xe1\x03j$\x80\x91\x1b\xc0\xd2h\x1d\x1e%g\x11@'
p2310
tp2311
bas(g644
g1027
tp2312
(lp2313
g22
(g23
(I0
tp2314
g25
tp2315
Rp2316
(I1
(I3
tp2317
g151
I00
S'\xf5\x94uv\x8d\x94\x08@I\xc2\x166\xa6\x08\x1d\xc0\xae\xcf\xae\xac\xdb\xe8\x18@'
p2318
tp2319
bas(g644
g142
tp2320
g457
s(g546
g142
tp2321
(lp2322
g22
(g23
(I0
tp2323
g25
tp2324
Rp2325
(I1
(I3
tp2326
g151
I00
S'@C\xb2\xd4\xde\xe3\xbf\xbf\xa8\xc0\x0e\\\xd4_\x1a\xc0\xe4\x8d\xbc\xb8\x9b9\x13@'
p2327
tp2328
bag22
(g23
(I0
tp2329
g25
tp2330
Rp2331
(I1
(I3
tp2332
g162
I00
S'j\x1e\x80\xdd\x0f\xcc\xcc?\xb3\xd8X\xd3%~\x18\xc0\x90\xda\xcf7y\xd5\xe6\xbf'
p2333
tp2334
bag22
(g23
(I0
tp2335
g25
tp2336
Rp2337
(I1
(I3
tp2338
g162
I00
S'N\xcd\xaa\x1e;\x0f\xee?&\xa8j\x7f\xa2\xe5\x17\xc0\xc1rR\xf6\xd1Y\xe0\xbf'
p2339
tp2340
bag22
(g23
(I0
tp2341
g25
tp2342
Rp2343
(I1
(I3
tp2344
g162
I00
S'\xe4\x9e\xb7\xac\xe0!\xeb?\x8a\x83\x10\xb1\xa2\xad\x15\xc0\x9aS\xfbY\xaf\x8f\xd2\xbf'
p2345
tp2346
bag22
(g23
(I0
tp2347
g25
tp2348
Rp2349
(I1
(I3
tp2350
g162
I00
S"\xb2&6mg)\xe8?\x99\xe0G'\x16\xe0\x13\xc0\xc8oL\xf5\x17p\xe6\xbf"
p2351
tp2352
bag22
(g23
(I0
tp2353
g25
tp2354
Rp2355
(I1
(I3
tp2356
g162
I00
S'`\xc8Aw-\x81\xeb?/\xc3\xe6O\x04\xca\x10\xc0\x8a\xb7K)\x91{\xe4\xbf'
p2357
tp2358
bag22
(g23
(I0
tp2359
g25
tp2360
Rp2361
(I1
(I3
tp2362
g162
I00
S'\xe1\xc6\xc7\xa7\x12X\xe7?\x98\x99\xb0\x9a\xfb\xdb\x0b\xc0R\t\x1b)\xeae\xe0\xbf'
p2363
tp2364
bag22
(g23
(I0
tp2365
g25
tp2366
Rp2367
(I1
(I3
tp2368
g162
I00
S'p\xf1\xbdc^\x84\xf1?"\x88LL\xf9D\x06\xc0~w\r\xe9m\x0f\x19@'
p2369
tp2370
bassS'parent_binary_predicates'
p2371
(dp2372
sS'nodes'
p2373
(dp2374
g1030
(lp2375
I0
aI0
aI0
aI0
aI0
aI0
aI00
aI01
aI00
aI01
aI00
asg1027
(lp2376
I0
aI0
aI0
aI0
aI0
aI0
aI00
aI01
aI00
aI01
aI00
asg142
(lp2377
I0
aI0
aI0
aI0
aI0
aI0
aI00
aI01
aI01
aI01
aI00
asg284
(lp2378
I0
aI0
aI0
ag1600
(g151
S'\x1d\xf2\x89\x9ac\xd8\x07@'
p2379
tp2380
Rp2381
ag1600
(g151
S'F\xf8v-\x04\xea\x17\xc0'
p2382
tp2383
Rp2384
ag1600
(g151
S'1~\xc9\n\x8a \x00@'
p2385
tp2386
Rp2387
aI01
aI00
aI00
aI01
aI00
asg455
(lp2388
I0
aI0
aI0
ag1600
(g151
S'L\xccY\xef\xd5j\x0e@'
p2389
tp2390
Rp2391
ag1600
(g151
S'\xc4\xba\xb8\x01y\x1f\x1d\xc0'
p2392
tp2393
Rp2394
ag1600
(g151
S'@E\x0bM\xe2\xdd\xf6?'
p2395
tp2396
Rp2397
aI01
aI00
aI00
aI00
aI00
asg141
(lp2398
I0
aI0
aI0
ag1600
(g151
S'\x83\xb4\xbew\xc8/\x02@'
p2399
tp2400
Rp2401
ag1600
(g151
S'&\xa6\xf6\xbb\xd2\x15\x16\xc0'
p2402
tp2403
Rp2404
ag1600
(g151
S'\xc7\xb4\xde\xa8\xd0D\x18@'
p2405
tp2406
Rp2407
aI01
aI00
aI00
aI01
aI00
asg990
(lp2408
I0
aI0
aI0
ag1600
(g151
S'\x00\xe9\xd4Q\xd2\x05\xbe\xbf'
p2409
tp2410
Rp2411
ag1600
(g151
S'\xfd8bN\xc16\x1d\xc0'
p2412
tp2413
Rp2414
ag1600
(g151
S'b\xd1\xc1\x8fV\xc6\xfd?'
p2415
tp2416
Rp2417
aI01
aI00
aI00
aI01
aI00
asg335
(lp2418
I0
aI0
aI0
ag1600
(g151
S'\x1e\xc4\xe9\x04\xd9\x8b\xfe?'
p2419
tp2420
Rp2421
ag1600
(g151
S'L\xafzQ\x82\xf9\x1b\xc0'
p2422
tp2423
Rp2424
ag1600
(g151
S'\x99\xcf\xd8\xcc\xb2\xf9\xe4?'
p2425
tp2426
Rp2427
aI01
aI00
aI00
aI01
aI00
asg398
(lp2428
I0
aI0
aI0
ag1600
(g151
S'\xcc\xfaQ\xff\xcc\xb1\x0c@'
p2429
tp2430
Rp2431
ag1600
(g151
S'\xfa\xc81\xd1\x16w\x17\xc0'
p2432
tp2433
Rp2434
ag1600
(g151
S'm\x08 }-\xb7\n@'
p2435
tp2436
Rp2437
aI01
aI00
aI00
aI00
aI00
asg980
(lp2438
I0
aI0
aI0
ag1600
(g151
S'\xb0\xbaS\n{\xb7\xe9?'
p2439
tp2440
Rp2441
ag1600
(g151
S'\xf0\x9c|\x81\xb6"\x1e\xc0'
p2442
tp2443
Rp2444
ag1600
(g151
S'\x92\xb7y\xeb\xa1P\xea?'
p2445
tp2446
Rp2447
aI01
aI00
aI01
aI01
aI00
asg215
(lp2448
I0
aI0
aI0
ag1600
(g151
S'\x86\x02\xf5ry\xc6\x06@'
p2449
tp2450
Rp2451
ag1600
(g151
S'\xe4\xca\\k*\xe1\x1c\xc0'
p2452
tp2453
Rp2454
ag1600
(g151
S'\xf1\xad\x8c\xa3\xa3-\xda?'
p2455
tp2456
Rp2457
aI01
aI00
aI00
aI00
aI00
assS'mc_place_path'
p2458
(dp2459
sS'parent_state'
p2460
NsS'goal_entities'
p2461
(lp2462
S'square_packing_box1'
p2463
ag142
asS'binary_edges'
p2464
(dp2465
(g335
g215
tp2466
(lp2467
I00
aI00
aI00
as(g335
g284
tp2468
(lp2469
I00
aI00
aI00
as(g141
g398
tp2470
(lp2471
I00
aI01
aI00
as(g141
g141
tp2472
(lp2473
I00
aI00
aI00
as(g455
g398
tp2474
(lp2475
I00
aI00
aI00
as(g455
g141
tp2476
(lp2477
I00
aI00
aI00
as(g215
g455
tp2478
(lp2479
I00
aI01
aI00
as(g335
g980
tp2480
(lp2481
I00
aI00
aI00
as(g990
g141
tp2482
(lp2483
I00
aI00
aI00
as(g284
g284
tp2484
(lp2485
I00
aI00
aI00
as(g455
g1027
tp2486
(lp2487
g1600
(g29
(S'b1'
p2488
I0
I1
tp2489
Rp2490
(I3
S'|'
p2491
NNNI-1
I-1
I0
tp2492
bS'\x01'
p2493
tp2494
Rp2495
aI00
aI01
as(g1030
g1027
tp2496
(lp2497
I00
aI00
aI00
as(g284
g215
tp2498
(lp2499
I00
aI01
aI00
as(g1027
g215
tp2500
(lp2501
I00
aI00
aI00
as(g980
g142
tp2502
(lp2503
I00
aI00
aI01
as(g1030
g455
tp2504
(lp2505
I00
aI00
aI00
as(g455
g215
tp2506
(lp2507
I00
aI00
aI00
as(g141
g1030
tp2508
(lp2509
g2495
aI00
aI00
as(g335
g335
tp2510
(lp2511
I00
aI00
aI00
as(g1027
g335
tp2512
(lp2513
I00
aI00
aI00
as(g398
g455
tp2514
(lp2515
I00
aI00
aI00
as(g455
g142
tp2516
(lp2517
I00
aI00
aI00
as(g990
g398
tp2518
(lp2519
I00
aI00
aI00
as(g284
g990
tp2520
(lp2521
I00
aI00
aI00
as(g980
g980
tp2522
(lp2523
I00
aI00
aI00
as(g455
g1030
tp2524
(lp2525
g2495
aI00
aI00
as(g1027
g455
tp2526
(lp2527
I00
aI00
aI00
as(g1027
g398
tp2528
(lp2529
I00
aI00
aI00
as(g1027
g141
tp2530
(lp2531
I00
aI00
aI00
as(g398
g142
tp2532
(lp2533
I00
aI00
aI00
as(g215
g284
tp2534
(lp2535
I00
aI00
aI00
as(g990
g284
tp2536
(lp2537
I00
aI00
aI00
as(g398
g990
tp2538
(lp2539
I00
aI00
aI00
as(g1027
g284
tp2540
(lp2541
I00
aI00
aI00
as(g1030
g142
tp2542
(lp2543
I00
aI00
aI00
as(g980
g455
tp2544
(lp2545
I00
aI00
aI00
as(g284
g398
tp2546
(lp2547
I00
aI01
aI00
as(g1030
g398
tp2548
(lp2549
I00
aI00
aI00
as(g398
g1030
tp2550
(lp2551
g2495
aI00
aI00
as(g141
g335
tp2552
(lp2553
I00
aI00
aI00
as(g215
g980
tp2554
(lp2555
I00
aI00
aI00
as(g141
g455
tp2556
(lp2557
I00
aI00
aI00
as(g215
g142
tp2558
(lp2559
I00
aI00
aI00
as(g1030
g1030
tp2560
(lp2561
I00
aI00
aI00
as(g398
g284
tp2562
(lp2563
I00
aI00
aI00
as(g980
g335
tp2564
(lp2565
I00
aI00
aI00
as(g142
g980
tp2566
(lp2567
I00
aI00
aI00
as(g990
g1027
tp2568
(lp2569
g2495
aI00
aI01
as(g142
g990
tp2570
(lp2571
I00
aI00
aI00
as(g215
g141
tp2572
(lp2573
I00
aI00
aI00
as(g141
g980
tp2574
(lp2575
I00
aI00
aI00
as(g398
g1027
tp2576
(lp2577
g2495
aI00
aI01
as(g141
g990
tp2578
(lp2579
I00
aI00
aI00
as(g398
g398
tp2580
(lp2581
I00
aI00
aI00
as(g990
g455
tp2582
(lp2583
I00
aI00
aI00
as(g1027
g142
tp2584
(lp2585
I00
aI00
aI00
as(g142
g335
tp2586
(lp2587
I00
aI00
aI00
as(g284
g142
tp2588
(lp2589
I00
aI00
aI00
as(g1030
g990
tp2590
(lp2591
I00
aI00
aI00
as(g142
g215
tp2592
(lp2593
I00
aI00
aI00
as(g141
g215
tp2594
(lp2595
I00
aI01
aI00
as(g990
g1030
tp2596
(lp2597
g2495
aI00
aI00
as(g215
g1027
tp2598
(lp2599
g2495
aI00
aI01
as(g990
g335
tp2600
(lp2601
I00
aI00
aI00
as(g284
g455
tp2602
(lp2603
I00
aI00
aI00
as(g284
g1027
tp2604
(lp2605
g2495
aI00
aI01
as(g142
g141
tp2606
(lp2607
I00
aI00
aI00
as(g1030
g215
tp2608
(lp2609
I00
aI00
aI00
as(g1030
g284
tp2610
(lp2611
I00
aI00
aI00
as(g990
g142
tp2612
(lp2613
I00
aI00
aI01
as(g335
g990
tp2614
(lp2615
I00
aI00
aI00
as(g980
g990
tp2616
(lp2617
I00
aI00
aI00
as(g142
g398
tp2618
(lp2619
I00
aI00
aI00
as(g1027
g1027
tp2620
(lp2621
I00
aI00
aI00
as(g335
g141
tp2622
(lp2623
I00
aI00
aI00
as(g980
g398
tp2624
(lp2625
I00
aI00
aI00
as(g1027
g980
tp2626
(lp2627
I00
aI00
aI00
as(g455
g284
tp2628
(lp2629
I00
aI00
aI00
as(g1027
g990
tp2630
(lp2631
I00
aI00
aI00
as(g980
g1030
tp2632
(lp2633
g2495
aI00
aI00
as(g335
g455
tp2634
(lp2635
I00
aI00
aI00
as(g141
g142
tp2636
(lp2637
I00
aI00
aI00
as(g980
g284
tp2638
(lp2639
I00
aI00
aI00
as(g284
g980
tp2640
(lp2641
I00
aI00
aI00
as(g455
g980
tp2642
(lp2643
I00
aI00
aI00
as(g1030
g335
tp2644
(lp2645
I00
aI00
aI00
as(g455
g990
tp2646
(lp2647
I00
aI00
aI00
as(g398
g335
tp2648
(lp2649
I00
aI00
aI00
as(g335
g1027
tp2650
(lp2651
g2495
aI00
aI01
as(g990
g990
tp2652
(lp2653
I00
aI00
aI00
as(g215
g335
tp2654
(lp2655
I00
aI00
aI00
as(g980
g215
tp2656
(lp2657
I00
aI00
aI00
as(g455
g335
tp2658
(lp2659
I00
aI00
aI00
as(g455
g455
tp2660
(lp2661
I00
aI00
aI00
as(g215
g990
tp2662
(lp2663
I00
aI00
aI00
as(g335
g142
tp2664
(lp2665
I00
aI00
aI00
as(g398
g980
tp2666
(lp2667
I00
aI00
aI00
as(g141
g1027
tp2668
(lp2669
g2495
aI00
aI01
as(g142
g455
tp2670
(lp2671
I00
aI00
aI00
as(g990
g980
tp2672
(lp2673
I00
aI00
aI00
as(g284
g141
tp2674
(lp2675
I00
aI00
aI00
as(g142
g1027
tp2676
(lp2677
I00
aI00
aI00
as(g335
g398
tp2678
(lp2679
I00
aI00
aI00
as(g1030
g141
tp2680
(lp2681
I00
aI00
aI00
as(g335
g1030
tp2682
(lp2683
g2495
aI00
aI00
as(g398
g141
tp2684
(lp2685
I00
aI00
aI00
as(g142
g142
tp2686
(lp2687
I00
aI00
aI00
as(g990
g215
tp2688
(lp2689
I00
aI00
aI00
as(g284
g1030
tp2690
(lp2691
g2495
aI00
aI00
as(g215
g1030
tp2692
(lp2693
g2495
aI00
aI00
as(g142
g1030
tp2694
(lp2695
I00
aI00
aI00
as(g142
g284
tp2696
(lp2697
I00
aI00
aI00
as(g398
g215
tp2698
(lp2699
I00
aI00
aI00
as(g215
g398
tp2700
(lp2701
I00
aI00
aI00
as(g141
g284
tp2702
(lp2703
I00
aI00
aI00
as(g1027
g1030
tp2704
(lp2705
I00
aI00
aI00
as(g980
g141
tp2706
(lp2707
I00
aI00
aI00
as(g284
g335
tp2708
(lp2709
I00
aI00
aI00
as(g215
g215
tp2710
(lp2711
I00
aI00
aI00
as(g980
g1027
tp2712
(lp2713
g2495
aI00
aI01
as(g1030
g980
tp2714
(lp2715
I00
aI00
aI00
assg542
g543
sS'pick_in_way'
p2716
(itrajectory_representation.predicates.pick_in_way
PickInWay
p2717
(dp2718
g139
(dp2719
g284
g625
sg455
g669
sg141
g730
sg990
g779
sg335
g828
sg398
g872
sg980
g902
sg215
g946
ssg518
(dp2720
g284
(lp2721
sg455
(lp2722
Vsquare_packing_box4
p2723
asg141
(lp2724
sg990
(lp2725
sg335
(lp2726
sg398
(lp2727
Vrectangular_packing_box3
p2728
aVrectangular_packing_box4
p2729
asg980
(lp2730
sg215
(lp2731
Vrectangular_packing_box3
p2732
aVrectangular_packing_box4
p2733
assg542
(lp2734
g990
ag335
ag141
ag284
ag1030
ag142
ag1027
ag980
ag1030
ag142
ag1027
ag1030
ag142
ag1027
ag1030
ag142
ag1027
ag1030
ag142
ag1027
ag1030
ag142
ag1027
ag1030
ag142
ag1027
ag1030
ag142
ag1027
asg548
g549
sg78
(dp2735
sg583
g584
sg967
Nsg973
g584
sg970
(dp2736
sg972
I8
sg1022
I01
sg974
Nsg975
(dp2737
(g335
g215
tp2738
I00
s(g335
g284
tp2739
I00
s(g141
g398
tp2740
I01
s(g141
g141
tp2741
I00
s(g455
g398
tp2742
I00
s(g455
g141
tp2743
I00
s(g215
g455
tp2744
I01
s(g335
g980
tp2745
I00
s(g990
g141
tp2746
I00
s(g284
g284
tp2747
I00
s(g455
g1027
tp2748
I00
s(g1030
g1027
tp2749
I00
s(g284
g215
tp2750
I01
s(g1027
g215
tp2751
I00
s(g980
g142
tp2752
I00
s(g1030
g455
tp2753
I00
s(g455
g215
tp2754
I00
s(g141
g1030
tp2755
I00
s(g335
g335
tp2756
I00
s(g1027
g335
tp2757
I00
s(g398
g455
tp2758
I00
s(g455
g142
tp2759
I00
s(g990
g398
tp2760
I00
s(g284
g990
tp2761
I00
s(g980
g980
tp2762
I00
s(g455
g1030
tp2763
I00
s(g1027
g455
tp2764
I00
s(g1027
g398
tp2765
I00
s(g1027
g141
tp2766
I00
s(g398
g142
tp2767
I00
s(g215
g284
tp2768
I00
s(g990
g284
tp2769
I00
s(g398
g990
tp2770
I00
s(g1027
g284
tp2771
I00
s(g1030
g142
tp2772
I00
s(g980
g455
tp2773
I00
s(g284
g398
tp2774
I01
s(g1030
g398
tp2775
I00
s(g398
g1030
tp2776
I00
s(g141
g335
tp2777
I00
s(g215
g980
tp2778
I00
s(g141
g455
tp2779
I00
s(g215
g142
tp2780
I00
s(g1030
g1030
tp2781
I00
s(g398
g284
tp2782
I00
s(g980
g335
tp2783
I00
s(g142
g980
tp2784
I00
s(g990
g1027
tp2785
I00
s(g142
g990
tp2786
I00
s(g215
g141
tp2787
I00
s(g141
g980
tp2788
I00
s(g398
g1027
tp2789
I00
s(g141
g990
tp2790
I00
s(g398
g398
tp2791
I00
s(g990
g455
tp2792
I00
s(g1027
g142
tp2793
I00
s(g142
g335
tp2794
I00
s(g284
g142
tp2795
I00
s(g1030
g990
tp2796
I00
s(g142
g215
tp2797
I00
s(g141
g215
tp2798
I01
s(g990
g1030
tp2799
I00
s(g215
g1027
tp2800
I00
s(g990
g335
tp2801
I00
s(g284
g455
tp2802
I00
s(g284
g1027
tp2803
I00
s(g142
g141
tp2804
I00
s(g1030
g215
tp2805
I00
s(g1030
g284
tp2806
I00
s(g990
g142
tp2807
I00
s(g335
g990
tp2808
I00
s(g980
g990
tp2809
I00
s(g142
g398
tp2810
I00
s(g1027
g1027
tp2811
I00
s(g335
g141
tp2812
I00
s(g980
g398
tp2813
I00
s(g1027
g980
tp2814
I00
s(g455
g284
tp2815
I00
s(g1027
g990
tp2816
I00
s(g980
g1030
tp2817
I00
s(g335
g455
tp2818
I00
s(g141
g142
tp2819
I00
s(g980
g284
tp2820
I00
s(g284
g980
tp2821
I00
s(g455
g980
tp2822
I00
s(g1030
g335
tp2823
I00
s(g455
g990
tp2824
I00
s(g398
g335
tp2825
I00
s(g335
g1027
tp2826
I00
s(g990
g990
tp2827
I00
s(g215
g335
tp2828
I00
s(g980
g215
tp2829
I00
s(g455
g335
tp2830
I00
s(g455
g455
tp2831
I00
s(g215
g990
tp2832
I00
s(g335
g142
tp2833
I00
s(g398
g980
tp2834
I00
s(g141
g1027
tp2835
I00
s(g142
g455
tp2836
I00
s(g990
g980
tp2837
I00
s(g284
g141
tp2838
I00
s(g142
g1027
tp2839
I00
s(g335
g398
tp2840
I00
s(g1030
g141
tp2841
I00
s(g335
g1030
tp2842
I00
s(g398
g141
tp2843
I00
s(g142
g142
tp2844
I00
s(g990
g215
tp2845
I00
s(g284
g1030
tp2846
I00
s(g215
g1030
tp2847
I00
s(g142
g1030
tp2848
I00
s(g142
g284
tp2849
I00
s(g398
g215
tp2850
I00
s(g215
g398
tp2851
I00
s(g141
g284
tp2852
I00
s(g1027
g1030
tp2853
I00
s(g980
g141
tp2854
I00
s(g284
g335
tp2855
I00
s(g215
g215
tp2856
I00
s(g980
g1027
tp2857
I00
s(g1030
g980
tp2858
I00
ssg1021
NsbsS'robot_pose'
p2859
g22
(g23
(I0
tp2860
g25
tp2861
Rp2862
(I1
(I1
I3
tp2863
g151
I00
S'\x86t\xa0)\x95\xc5\xee?1/\xec\x0e9/\x15\xc0\xd8h|\x92\x92\xc0\x17@'
p2864
tp2865
bsS'is_holding_goal_entity'
p2866
(itrajectory_representation.predicates.is_holding_goal_entity
IsHoldingGoalEntity
p2867
(dp2868
g2461
g2462
sg974
NsbsS'mc_pick_path'
p2869
(dp2870
sS'current_collides'
p2871
g549
sbasS'seed'
p2872
NsS'state_prime'
p2873
(lp2874
sS'problem_idx'
p2875
I34
sb.