(itrajectory_representation.trajectory
Trajectory
p0
(dp1
S'rewards'
p2
(lp3
I0
aI10
asS'actions'
p4
(lp5
(itrajectory_representation.operator
Operator
p6
(dp7
S'is_skeleton'
p8
I00
sS'discrete_parameters'
p9
(dp10
S'object'
p11
Vrectangular_packing_box4
p12
sS'two_arm_place_region'
p13
S'loading_region'
p14
sS'two_arm_place_object'
p15
g12
ssS'type'
p16
S'two_arm_pick_two_arm_place'
p17
sS'continuous_parameters'
p18
(dp19
S'q_goal'
p20
cnumpy.core.multiarray
_reconstruct
p21
(cnumpy
ndarray
p22
(I0
tp23
S'b'
p24
tp25
Rp26
(I1
(I3
tp27
cnumpy
dtype
p28
(S'f8'
p29
I0
I1
tp30
Rp31
(I3
S'<'
p32
NNNI-1
I-1
I0
tp33
bI00
S'\x16I\xb8a\xee\xa6\x08@\xfc\xd8a\xb8C\x84\x1e\xc0 \xe3@M\\\xc8\x07@'
p34
tp35
bsS'place'
p36
(dp37
g20
g21
(g22
(I0
tp38
g24
tp39
Rp40
(I1
(I3
tp41
g31
I00
S'a\x85\xe9\xc7\x18\xb6\x0c@\xd66\xb7\xd0\xdf\xdb\x1f\xc0\x19_\xe1\x04_\xcb\x02@'
p42
tp43
bssS'pick'
p44
(dp45
g20
g26
sssS'low_level_motion'
p46
(lp47
g21
(g22
(I0
tp48
g24
tp49
Rp50
(I1
(I3
tp51
g31
I00
S'\x05;G\xc3?\xe7\n@B+\xf9\x8a\xbc\x05\x1d\xc0\x8c\xfa\n\xc4\xe0|\x07@'
p52
tp53
bag26
ag26
asba(itrajectory_representation.operator
Operator
p54
(dp55
g8
I00
sg9
(dp56
g11
Vsquare_packing_box1
p57
sS'two_arm_place_region'
p58
S'home_region'
p59
sS'two_arm_place_object'
p60
g57
ssg16
S'two_arm_pick_two_arm_place'
p61
sg18
(dp62
g20
g21
(g22
(I0
tp63
g24
tp64
Rp65
(I1
(I3
tp66
g31
I00
S'-\xa8\xe8\x9f\x88~\xf6?\xa5\xfb\xf36\xf4\x18\x1b\xc0\x99\xd0\xcc\xf5\xf3x\xc0\xbf'
p67
tp68
bsg36
(dp69
g20
g21
(g22
(I0
tp70
g24
tp71
Rp72
(I1
(I3
tp73
g31
I00
S'\xf4j\xc4]\xdd\xdf\xf5?P\xcd2a]`\xfb\xbfa\xafP\xfb@7\xdb?'
p74
tp75
bssg44
(dp76
g20
g65
sssg46
(lp77
g21
(g22
(I0
tp78
g24
tp79
Rp80
(I1
(I3
tp81
g31
I00
S'b\x85\xe9\xc7\x18\xb6\x0c@\xd46\xb7\xd0\xdf\xdb\x1f\xc0\x19_\xe1\x04_\xcb\x02@'
p82
tp83
bag21
(g22
(I0
tp84
g24
tp85
Rp86
(I1
(I3
tp87
g28
(S'f8'
p88
I0
I1
tp89
Rp90
(I3
S'<'
p91
NNNI-1
I-1
I0
tp92
bI00
S'D\xe7\xee\xd7aq\x07@d\x9e\x03P\xa2\x18 \xc0\xb2\x96\xf1{-\x8e\x06@'
p93
tp94
bag21
(g22
(I0
tp95
g24
tp96
Rp97
(I1
(I3
tp98
g90
I00
S'\xbe\x13Y^h\xbd\x02@\xe3\xc2^\xa1\xb6U\x1f\xc0\xb9*7\xddY\x01\x07@'
p99
tp100
bag21
(g22
(I0
tp101
g24
tp102
Rp103
(I1
(I3
tp104
g90
I00
S'zT\r\xfe&\xfe\xfd?~,i\xf5\xe3\x9c\x1d\xc0\xe2\x1a4?SB\x15@'
p105
tp106
bag65
ag65
asbasS'filename'
p107
S''
p108
sS'states'
p109
(lp110
(itrajectory_representation.shortest_path_pick_and_place_state
ShortestPathPaPState
p111
(dp112
S'place_used'
p113
(dp114
(Vsquare_packing_box1
p115
g59
tp116
(itrajectory_representation.operator
Operator
p117
(dp118
g8
I01
sg9
(dp119
S'region'
p120
g59
sg11
g115
ssg16
S'two_arm_place'
p121
sg18
(dp122
g20
g21
(g22
(I0
tp123
g24
tp124
Rp125
(I1
(I3
tp126
g31
I00
S'\xf4j\xc4]\xdd\xdf\xf5?P\xcd2a]`\xfb\xbfa\xafP\xfb@7\xdb?'
p127
tp128
bssg46
(lp129
g21
(g22
(I0
tp130
g24
tp131
Rp132
(I1
(I3
tp133
g31
I00
S'\x1c\xa8\xe8\x9f\x88~\xf6?\xa6\xfb\xf36\xf4\x18\x1b\xc0\xcd\xd0\xcc\xf5\xf3x\xc0\xbf'
p134
tp135
bag21
(g22
(I0
tp136
g24
tp137
Rp138
(I1
(I3
tp139
g90
I00
S'\xdc\xfdN\xc8J~\xf0?\xc2\xcc\xc4M\xa2\x1d\x1a\xc0\xb4;\xa7?\xcck\xe7\xbf'
p140
tp141
bag21
(g22
(I0
tp142
g24
tp143
Rp144
(I1
(I3
tp145
g90
I00
S'N\xcd\xaa\x1e;\x0f\xee?&\xa8j\x7f\xa2\xe5\x17\xc0\xc1rR\xf6\xd1Y\xe0\xbf'
p146
tp147
bag21
(g22
(I0
tp148
g24
tp149
Rp150
(I1
(I3
tp151
g90
I00
S'\xe4\x9e\xb7\xac\xe0!\xeb?\x8a\x83\x10\xb1\xa2\xad\x15\xc0\x9aS\xfbY\xaf\x8f\xd2\xbf'
p152
tp153
bag21
(g22
(I0
tp154
g24
tp155
Rp156
(I1
(I3
tp157
g90
I00
S"\xb2&6mg)\xe8?\x99\xe0G'\x16\xe0\x13\xc0\xc8oL\xf5\x17p\xe6\xbf"
p158
tp159
bag21
(g22
(I0
tp160
g24
tp161
Rp162
(I1
(I3
tp163
g90
I00
S'`\xc8Aw-\x81\xeb?/\xc3\xe6O\x04\xca\x10\xc0\x8a\xb7K)\x91{\xe4\xbf'
p164
tp165
bag21
(g22
(I0
tp166
g24
tp167
Rp168
(I1
(I3
tp169
g90
I00
S'\xe1\xc6\xc7\xa7\x12X\xe7?\x98\x99\xb0\x9a\xfb\xdb\x0b\xc0R\t\x1b)\xeae\xe0\xbf'
p170
tp171
bag21
(g22
(I0
tp172
g24
tp173
Rp174
(I1
(I3
tp175
g90
I00
S'\xd6\x07{\xd9\x10\xef\xe4?\x1d\xac\x7fu\xfd\xc8\x05\xc0n\xbe\xc6$&8\xd7?'
p176
tp177
bag21
(g22
(I0
tp178
g24
tp179
Rp180
(I1
(I3
tp181
g90
I00
S'(X\x98\xe2\xb4o\xf3?a.\x9aw\xe8\xe7\x02\xc0$?\xdd\xcf\xd6\xc0\xe4?'
p182
tp183
bag125
ag125
asbs(Vrectangular_packing_box4
p184
g14
tp185
(itrajectory_representation.operator
Operator
p186
(dp187
g8
I01
sg9
(dp188
g120
g14
sg11
g184
ssg16
g121
sg18
(dp189
g20
g21
(g22
(I0
tp190
g24
tp191
Rp192
(I1
(I3
tp193
g31
I00
S'a\x85\xe9\xc7\x18\xb6\x0c@\xd66\xb7\xd0\xdf\xdb\x1f\xc0\x19_\xe1\x04_\xcb\x02@'
p194
tp195
bssg46
(lp196
g21
(g22
(I0
tp197
g24
tp198
Rp199
(I1
(I3
tp200
g31
I00
S'$I\xb8a\xee\xa6\x08@\xfb\xd8a\xb8C\x84\x1e\xc0 \xe3@M\\\xc8\x07@'
p201
tp202
bag192
ag192
asbssS'place_in_way'
p203
(itrajectory_representation.predicates.place_in_way
PlaceInWay
p204
(dp205
S'mc_path_to_entity'
p206
(dp207
(Vrectangular_packing_box4
p208
S'home_region'
p209
tp210
(lp211
g21
(g22
(I0
tp212
g24
tp213
Rp214
(I1
(I3
tp215
g28
(S'f8'
p216
I0
I1
tp217
Rp218
(I3
S'<'
p219
NNNI-1
I-1
I0
tp220
bI00
S'\x16I\xb8a\xee\xa6\x08@\xfb\xd8a\xb8C\x84\x1e\xc0 \xe3@M\\\xc8\x07@'
p221
tp222
bag21
(g22
(I0
tp223
g24
tp224
Rp225
(I1
(I3
tp226
g28
(S'f8'
p227
I0
I1
tp228
Rp229
(I3
S'<'
p230
NNNI-1
I-1
I0
tp231
bI00
S'\xa3\xe7\xb4\x16R\xf0\x07@\xbc\n8\xab\xe3x\x1c\xc0=\x94\xaf\xa7P\t\x01@'
p232
tp233
bag21
(g22
(I0
tp234
g24
tp235
Rp236
(I1
(I3
tp237
g229
I00
S'\xe8[\xb2\xaa\xa5@\x04@(j\r1!I\x1b\xc0Xj\x8bx\xc9`\xfc?'
p238
tp239
bag21
(g22
(I0
tp240
g24
tp241
Rp242
(I1
(I3
tp243
g229
I00
S'\xf60LV\xe8\x96\x00@\x9aEw{a\xe2\x18\xc0^\xa8\x8a,\xa3\x98\x00@'
p244
tp245
bag21
(g22
(I0
tp246
g24
tp247
Rp248
(I1
(I3
tp249
g229
I00
S'\xe0 ;\x819w\xfd?\xe7\xcc\xc2\xa0\xa5f\x17\xc04\xedq\x1c\x8eK\xfa?'
p250
tp251
bag21
(g22
(I0
tp252
g24
tp253
Rp254
(I1
(I3
tp255
g229
I00
S'\x85\\2\xba\x0b5\xf5?I\r\x06\xd10\xfb\x15\xc0\x9e\x11\xee\xd8\xb9\xd7\xf5?'
p256
tp257
bag21
(g22
(I0
tp258
g24
tp259
Rp260
(I1
(I3
tp261
g229
I00
S'v\xb8^\x85\xa7[\xea?x\xbe\xff2t\x8d\x13\xc0\x88\x85\x8cCyH\xf6?'
p262
tp263
bag21
(g22
(I0
tp264
g24
tp265
Rp266
(I1
(I3
tp267
g229
I00
S'\xc2\xda(e\x83\x1a\xeb?\x8au\x8d3\xa6E\x11\xc0\xb4c\x1b\xed_\xfd\xfa?'
p268
tp269
bag21
(g22
(I0
tp270
g24
tp271
Rp272
(I1
(I3
tp273
g229
I00
S'\xe4u**\x0e5\xe9?\xaa\xfd\r\xed\xc4\xf6\r\xc0\x0fDE0\x1f\x0b\xfe?'
p274
tp275
bag21
(g22
(I0
tp276
g24
tp277
Rp278
(I1
(I3
tp279
g229
I00
S'\x06\x11,\xef\x98O\xe7??\x10\x01s=b\t\xc04\x92\xb79o\x8c\x00@'
p280
tp281
bag21
(g22
(I0
tp282
g24
tp283
Rp284
(I1
(I3
tp285
g229
I00
S'\x92\xaf\xf3P\x96O\xc2?(\xa1:\x8er}\x05\xc0\xd4_\x91\xb3\xffL\x02@'
p286
tp287
bas(Vrectangular_packing_box2
p288
g209
tp289
(lp290
g21
(g22
(I0
tp291
g24
tp292
Rp293
(I1
(I3
tp294
g218
I00
S'\xf0$\x02O\xd3J\xdd?\t\r\xce\x9c\xf99\x1d\xc0B\x80?\x9d^Q\r@'
p295
tp296
bag21
(g22
(I0
tp297
g24
tp298
Rp299
(I1
(I3
tp300
g229
I00
S'\xf8\xfc\x1a\xd0\xc9l\xe8?\x8a\x897\x8e~\x98\x1a\xc0\xaf\xf7\xb87\xc6\xa7\x01\xc0'
p301
tp302
bag21
(g22
(I0
tp303
g24
tp304
Rp305
(I1
(I3
tp306
g229
I00
S"\xc6'8AN\xb0\xec?\xe0\x975>\x0f\x03\x19\xc0(\xe0e;\x85\x89\x05\xc0"
p307
tp308
bag21
(g22
(I0
tp309
g24
tp310
Rp311
(I1
(I3
tp312
g229
I00
S'\xd0\xcb\x13\x8f\xaa\x9d\xed?\x90\x01<]3\x06\x16\xc0F\xf1\xe7x32\x02\xc0'
p313
tp314
bag21
(g22
(I0
tp315
g24
tp316
Rp317
(I1
(I3
tp318
g229
I00
S'l[\xc4\x16<\xe6\xe9?\xa6\xa0\x90\x84X\x9f\x13\xc0\xc2\xd74Q\x00\xaf\xff\xbf'
p319
tp320
bag21
(g22
(I0
tp321
g24
tp322
Rp323
(I1
(I3
tp324
g229
I00
S"\xaeJ\xbd\x1936\xec?\x04\x13\xd4'\x9f\x88\x10\xc0\x805qo\xb6\xe6\xff\xbf"
p325
tp326
bag21
(g22
(I0
tp327
g24
tp328
Rp329
(I1
(I3
tp330
g229
I00
S'\xf09\xb6\x1c*\x86\xee?\xc4\n/\x96\xcb\xe3\n\xc0\xa0\xc9\xd6F6\x0f\x00\xc0'
p331
tp332
bag21
(g22
(I0
tp333
g24
tp334
Rp335
(I1
(I3
tp336
g229
I00
S'3\xe9\xaf\x05T\x89\xe7?+~\xcb\xd3\x15\xc7\x04\xc0x6(d5\xed\x07@'
p337
tp338
bas(Vrectangular_packing_box3
p339
g209
tp340
(lp341
g21
(g22
(I0
tp342
g24
tp343
Rp344
(I1
(I3
tp345
g218
I00
S"\x80\xdc%t\xca\xaa\xc2?'\x93]\x15D\xd0\x1d\xc0\xa2\xe2\xc4\xfe&}\xc8?"
p346
tp347
bag21
(g22
(I0
tp348
g24
tp349
Rp350
(I1
(I3
tp351
g229
I00
S'X\x9b\x8c[e\xe8\xdb?\xdc\xc11jk\x8b\x1b\xc0\xfe\x18\xeb6\xf7\x88\xc3?'
p352
tp353
bag21
(g22
(I0
tp354
g24
tp355
Rp356
(I1
(I3
tp357
g229
I00
S'T]\x0c\x0e\xd89\xda?\xf4\x992\x11%\\\x18\xc0\x95\x7f\x10B\xb1)\xe3?'
p358
tp359
bag21
(g22
(I0
tp360
g24
tp361
Rp362
(I1
(I3
tp363
g229
I00
S'\xe4\x02R\xd9\x08\x8c\xc7?2\xc1\xd4;\xf6\xf3\x15\xc0>\x8c\x8fa?0\xd8?'
p364
tp365
bag21
(g22
(I0
tp366
g24
tp367
Rp368
(I1
(I3
tp369
g229
I00
S'\xcc\x87!\x1f\xfb\x05\xe6?\x14;\x08\xf1<\xc6\x13\xc0V!\xac1j\x94\xc8?'
p370
tp371
bag21
(g22
(I0
tp372
g24
tp373
Rp374
(I1
(I3
tp375
g229
I00
S'`\xc8Aw-\x81\xeb?/\xc3\xe6O\x04\xca\x10\xc0\x8a\xb7K)\x91{\xe4\xbf'
p376
tp377
bag21
(g22
(I0
tp378
g24
tp379
Rp380
(I1
(I3
tp381
g229
I00
S'\xe1\xc6\xc7\xa7\x12X\xe7?\x98\x99\xb0\x9a\xfb\xdb\x0b\xc0R\t\x1b)\xeae\xe0\xbf'
p382
tp383
bag21
(g22
(I0
tp384
g24
tp385
Rp386
(I1
(I3
tp387
g229
I00
S'p\xf1\xbdc^\x84\xf1?"\x88LL\xf9D\x06\xc0~w\r\xe9m\x0f\x19@'
p388
tp389
bas(Vsquare_packing_box2
p390
g209
tp391
(lp392
g21
(g22
(I0
tp393
g24
tp394
Rp395
(I1
(I3
tp396
g218
I00
S'h\x8d\xeb;(\x1b\xfd?O\x16\xf3\xd2\xc9V\x1a\xc0\x11K\x99o\x88\xee\xe4?'
p397
tp398
bag21
(g22
(I0
tp399
g24
tp400
Rp401
(I1
(I3
tp402
g229
I00
S'j\xc7\xc0&\x8ag\xf6?h\x9cH4\x7f\xab\x18\xc0\xd8|\x1d\xfc\xcbV\xf2?'
p403
tp404
bag21
(g22
(I0
tp405
g24
tp406
Rp407
(I1
(I3
tp408
g229
I00
S'\x85\\2\xba\x0b5\xf5?I\r\x06\xd10\xfb\x15\xc0\x9e\x11\xee\xd8\xb9\xd7\xf5?'
p409
tp410
bag21
(g22
(I0
tp411
g24
tp412
Rp413
(I1
(I3
tp414
g229
I00
S'v\xb8^\x85\xa7[\xea?x\xbe\xff2t\x8d\x13\xc0\x88\x85\x8cCyH\xf6?'
p415
tp416
bag21
(g22
(I0
tp417
g24
tp418
Rp419
(I1
(I3
tp420
g229
I00
S'\xc2\xda(e\x83\x1a\xeb?\x8au\x8d3\xa6E\x11\xc0\xb4c\x1b\xed_\xfd\xfa?'
p421
tp422
bag21
(g22
(I0
tp423
g24
tp424
Rp425
(I1
(I3
tp426
g229
I00
S'\xe4u**\x0e5\xe9?\xaa\xfd\r\xed\xc4\xf6\r\xc0\x0fDE0\x1f\x0b\xfe?'
p427
tp428
bag21
(g22
(I0
tp429
g24
tp430
Rp431
(I1
(I3
tp432
g229
I00
S'\x06\x11,\xef\x98O\xe7??\x10\x01s=b\t\xc04\x92\xb79o\x8c\x00@'
p433
tp434
bag21
(g22
(I0
tp435
g24
tp436
Rp437
(I1
(I3
tp438
g229
I00
S'\x92\xaf\xf3P\x96O\xc2?(\xa1:\x8er}\x05\xc0\xd4_\x91\xb3\xffL\x02@'
p439
tp440
bas(Vsquare_packing_box3
p441
g209
tp442
(lp443
g21
(g22
(I0
tp444
g24
tp445
Rp446
(I1
(I3
tp447
g218
I00
S'\xf0\xa46e\xa9\x04\xfe?O\xad\x1c\x98Q\x99\x19\xc0z\xd3\xa8e\xb26\xc3?'
p448
tp449
bag21
(g22
(I0
tp450
g24
tp451
Rp452
(I1
(I3
tp453
g229
I00
S'\x0e]\xf2K\xc6E\xf7?\x06\x8c\xb9Ybt\x17\xc0%\xac6\x86\x93\xa8\xdd?'
p454
tp455
bag21
(g22
(I0
tp456
g24
tp457
Rp458
(I1
(I3
tp459
g229
I00
S'\xe4\x9e\xb7\xac\xe0!\xeb?\x8a\x83\x10\xb1\xa2\xad\x15\xc0\x9aS\xfbY\xaf\x8f\xd2\xbf'
p460
tp461
bag21
(g22
(I0
tp462
g24
tp463
Rp464
(I1
(I3
tp465
g229
I00
S"\xb2&6mg)\xe8?\x99\xe0G'\x16\xe0\x13\xc0\xc8oL\xf5\x17p\xe6\xbf"
p466
tp467
bag21
(g22
(I0
tp468
g24
tp469
Rp470
(I1
(I3
tp471
g229
I00
S'`\xc8Aw-\x81\xeb?/\xc3\xe6O\x04\xca\x10\xc0\x8a\xb7K)\x91{\xe4\xbf'
p472
tp473
bag21
(g22
(I0
tp474
g24
tp475
Rp476
(I1
(I3
tp477
g229
I00
S'\xe1\xc6\xc7\xa7\x12X\xe7?\x98\x99\xb0\x9a\xfb\xdb\x0b\xc0R\t\x1b)\xeae\xe0\xbf'
p478
tp479
bag21
(g22
(I0
tp480
g24
tp481
Rp482
(I1
(I3
tp483
g229
I00
S'p\xf1\xbdc^\x84\xf1?"\x88LL\xf9D\x06\xc0~w\r\xe9m\x0f\x19@'
p484
tp485
bassS'mc_to_entity'
p486
(dp487
(g208
g209
tp488
(lp489
Vsquare_packing_box3
p490
aVsquare_packing_box1
p491
aVsquare_packing_box2
p492
as(g288
g209
tp493
(lp494
Vrectangular_packing_box3
p495
aVrectangular_packing_box1
p496
as(g339
g209
tp497
(lp498
Vrectangular_packing_box2
p499
aVrectangular_packing_box1
p500
as(g390
g209
tp501
(lp502
Vsquare_packing_box1
p503
as(g441
g209
tp504
(lp505
Vsquare_packing_box1
p506
aVsquare_packing_box2
p507
assS'reachable_entities'
p508
(lp509
g12
aVsquare_packing_box4
p510
asS'collides'
p511
(dp512
Vrectangular_packing_box4
p513
c__builtin__
set
p514
((lp515
I256
aI513
aI514
aI259
aI260
aI577
aI268
aI194
aI145
aI515
aI538
aI413
aI286
aI543
aI422
aI552
aI556
aI429
aI179
aI436
aI440
aI443
aI444
aI64
aI65
aI66
aI67
aI68
aI374
aI585
aI375
aI610
aI79
aI210
aI340
aI215
aI90
aI91
aI354
aI613
aI358
aI572
aI113
aI118
aI119
aI123
aI255
atp516
Rp517
sVrectangular_packing_box2
p518
g514
((lp519
I257
aI356
aI229
aI265
aI452
aI589
aI366
aI564
aI580
aI532
aI478
aI502
aI164
aI158
aI575
atp520
Rp521
sVrectangular_packing_box3
p522
g514
((lp523
I384
aI262
aI135
aI264
aI146
aI158
aI159
aI134
aI433
aI296
aI263
aI176
aI177
aI448
aI583
aI328
aI458
aI464
aI81
aI82
aI83
aI505
aI346
aI486
aI230
aI490
aI494
aI240
aI120
aI121
aI122
atp524
Rp525
sVrectangular_packing_box1
p526
g514
((lp527
I6
aI7
aI521
aI138
aI139
aI275
aI276
aI152
aI153
aI154
aI155
aI417
aI547
aI518
aI166
aI424
aI553
aI196
aI198
aI459
aI338
aI349
aI350
aI351
aI362
aI491
aI503
aI249
aI383
atp528
Rp529
sVsquare_packing_box2
p530
g514
((lp531
I2
aI3
aI449
aI393
aI395
aI160
aI161
aI37
aI38
aI39
aI41
aI304
aI561
aI178
aI435
aI309
aI54
aI188
aI62
aI63
aI288
aI289
aI201
aI202
aI376
aI595
aI89
aI219
aI348
aI611
aI550
aI114
aI115
aI372
aI248
aI379
aI380
atp532
Rp533
sVsquare_packing_box3
p534
g514
((lp535
I179
aI577
aI268
aI435
aI144
aI91
aI548
aI37
aI302
aI303
aI561
aI178
aI307
aI54
aI63
aI64
aI65
aI194
aI438
aI79
aI210
aI343
aI89
aI90
aI219
aI220
aI354
aI612
aI113
aI114
aI500
aI376
aI511
atp536
Rp537
sVsquare_packing_box1
p538
g514
((lp539
I256
aI577
aI194
aI145
aI538
aI413
aI36
aI422
aI309
aI54
aI188
aI63
aI64
aI65
aI66
aI69
aI205
aI79
aI80
aI595
aI215
aI89
aI90
aI219
aI92
aI358
aI444
aI114
aI376
atp540
Rp541
sVsquare_packing_box4
p542
g514
((lp543
I193
aI457
aI453
aI614
aI425
aI343
aI270
aI303
aI307
aI246
aI247
aI280
aI473
aI442
aI367
aI381
atp544
Rp545
ssg113
g114
sS'pick_used'
p546
(dp547
g12
(itrajectory_representation.operator
Operator
p548
(dp549
g8
I01
sg9
(dp550
g11
g12
ssg16
S'two_arm_pick'
p551
sg18
(dp552
g20
g21
(g22
(I0
tp553
g24
tp554
Rp555
(I1
(I3
tp556
g31
I00
S'\x16I\xb8a\xee\xa6\x08@\xfc\xd8a\xb8C\x84\x1e\xc0 \xe3@M\\\xc8\x07@'
p557
tp558
bssg46
(lp559
g21
(g22
(I0
tp560
g24
tp561
Rp562
(I1
(I3
tp563
g218
I00
S'\xe0:G\xc3?\xe7\n@"+\xf9\x8a\xbc\x05\x1d\xc0\x8c\xfa\n\xc4\xe0|\x07@'
p564
tp565
bag555
asbsVrectangular_packing_box2
p566
(itrajectory_representation.operator
Operator
p567
(dp568
g8
I01
sg9
(dp569
S'object'
p570
Vrectangular_packing_box2
p571
ssg16
S'two_arm_pick'
p572
sg18
(dp573
S'q_goal'
p574
(lp575
g21
(g22
(I0
tp576
g24
tp577
Rp578
(I1
(I3
tp579
g218
I00
S'\xd9$\x02O\xd3J\xdd?\n\r\xce\x9c\xf99\x1d\xc0\xee\xd9H\x0b\x98\xf2\x04\xc0'
p580
tp581
bag21
(g22
(I0
tp582
g24
tp583
Rp584
(I1
(I3
tp585
g218
I00
S'\xc3\xf9D\x8a\x96\xa0\xda?\t\xbb\xa3V*@\x1c\xc0\xe5\x81\xb6\xd4\xba\xd8\x03\xc0'
p586
tp587
bag21
(g22
(I0
tp588
g24
tp589
Rp590
(I1
(I3
tp591
g218
I00
S'<\xf9L\xd8\x0fC\xd8?\x0c\xb7\x96!\xc9A\x1d\xc0T\'\xe0\x87"\x81\x03\xc0'
p592
tp593
basS'is_feasible'
p594
I00
ssg46
(lp595
g21
(g22
(I0
tp596
g24
tp597
Rp598
(I1
(I3
tp599
g218
I00
S'\xfcj\xc4]\xdd\xdf\xf5?`\xcd2a]`\xfb\xbf\\\xafP\xfb@7\xdb?'
p600
tp601
bag21
(g22
(I0
tp602
g24
tp603
Rp604
(I1
(I3
tp605
g229
I00
S'\xb7\xd0.Y\x0e\x8b\xf7?\xe5\xd0\xb5h\\\xda\x03\xc0Wr?\xf8\xc3^\xf4?'
p606
tp607
bag21
(g22
(I0
tp608
g24
tp609
Rp610
(I1
(I3
tp611
g229
I00
S'\x0e\n\xf3\x14\x91\x9e\xf3?\x1c\x0cAZ"\xfa\x05\xc0\xf8\x01c\x9bq\'\xfc?'
p612
tp613
bag21
(g22
(I0
tp614
g24
tp615
Rp616
(I1
(I3
tp617
g229
I00
S'\xd1\xaa\x15!\x8c\x06\xed?\x8c\xab\xab^w\xe3\t\xc0~&\xcc\xa2\xcbw\xf6?'
p618
tp619
bag21
(g22
(I0
tp620
g24
tp621
Rp622
(I1
(I3
tp623
g229
I00
S'y\xd4\xbc{`\x0b\xf2?\xb0C6m\xb7\xd6\x0e\xc0\xe8\xe2r\xbe\x16{\xf5?'
p624
tp625
bag21
(g22
(I0
tp626
g24
tp627
Rp628
(I1
(I3
tp629
g229
I00
S'\xf3In\x9c \xb1\xee?\x10D/\xcc\x0f}\x11\xc0\xda0\xdf\x1au:\xf0?'
p630
tp631
bag21
(g22
(I0
tp632
g24
tp633
Rp634
(I1
(I3
tp635
g229
I00
S'v\xb8^\x85\xa7[\xea?x\xbe\xff2t\x8d\x13\xc0\x88\x85\x8cCyH\xf6?'
p636
tp637
bag21
(g22
(I0
tp638
g24
tp639
Rp640
(I1
(I3
tp641
g229
I00
S'\x85\\2\xba\x0b5\xf5?I\r\x06\xd10\xfb\x15\xc0\x9e\x11\xee\xd8\xb9\xd7\xf5?'
p642
tp643
bag21
(g22
(I0
tp644
g24
tp645
Rp646
(I1
(I3
tp647
g229
I00
S'j\xc7\xc0&\x8ag\xf6?h\x9cH4\x7f\xab\x18\xc0\xd8|\x1d\xfc\xcbV\xf2?'
p648
tp649
bag21
(g22
(I0
tp650
g24
tp651
Rp652
(I1
(I3
tp653
g229
I00
S'\xf8\xfc\x1a\xd0\xc9l\xe8?\x8a\x897\x8e~\x98\x1a\xc0\xaf\xf7\xb87\xc6\xa7\x01\xc0'
p654
tp655
bag584
asbsVrectangular_packing_box3
p656
(itrajectory_representation.operator
Operator
p657
(dp658
g8
I01
sg9
(dp659
g570
Vrectangular_packing_box3
p660
ssg16
g572
sg18
(dp661
g574
(lp662
g21
(g22
(I0
tp663
g24
tp664
Rp665
(I1
(I3
tp666
g218
I00
S'\xbc\xdc%t\xca\xaa\xc2?)\x93]\x15D\xd0\x1d\xc0\xa3\xe2\xc4\xfe&}\xc8?'
p667
tp668
bag21
(g22
(I0
tp669
g24
tp670
Rp671
(I1
(I3
tp672
g218
I00
S'\xf2\x08\xaf9>S\xfd?L\xcc5\x90`\x11\x1e\xc0f\x82\xc1\x93L\x88\x0b\xc0'
p673
tp674
bag21
(g22
(I0
tp675
g24
tp676
Rp677
(I1
(I3
tp678
g218
I00
S'\x9b;I\xac\xcb,\xfb?m\xb0\xefx\xd1>\x1d\xc0w\xa7\xf4\xab\x8e\x9c\t\xc0'
p679
tp680
basg594
I00
ssg46
(lp681
g21
(g22
(I0
tp682
g24
tp683
Rp684
(I1
(I3
tp685
g218
I00
S'\xfcj\xc4]\xdd\xdf\xf5?`\xcd2a]`\xfb\xbf\\\xafP\xfb@7\xdb?'
p686
tp687
bag21
(g22
(I0
tp688
g24
tp689
Rp690
(I1
(I3
tp691
g229
I00
S'm\xce}C\x08\xbf\xf8?n\x1b_\x80\xc4X\x02\xc0\xa0\xd6\xd4\xb1Na\xa7?'
p692
tp693
bag21
(g22
(I0
tp694
g24
tp695
Rp696
(I1
(I3
tp697
g229
I00
S'S\xf49\xa2+\x89\xf0?\x90\xc6\x1b\xea\xaco\x04\xc0m\xfeq\x0c\x14\x04\xcf\xbf'
p698
tp699
bag21
(g22
(I0
tp700
g24
tp701
Rp702
(I1
(I3
tp703
g229
I00
S'\xef\xc3u*\xfb\xdb\xeb?\x8d\xa5\n\xfd\x03<\n\xc0\xd8\xfb\xde\x16R\xac\xde?'
p704
tp705
bag21
(g22
(I0
tp706
g24
tp707
Rp708
(I1
(I3
tp709
g229
I00
S'\x93k\xbc\xee\xc2\x10\xe8?\xab^\x86?\x08D\x10\xc0\x10;2\x00\xe5\t\xde?'
p710
tp711
bag21
(g22
(I0
tp712
g24
tp713
Rp714
(I1
(I3
tp715
g229
I00
S'\xa9\xd9\x1d\x8d\xa6j\xdf?\xa0\x85\x1a\x84\xc6\xec\x12\xc0\x01\xb6 H\xb1\x91\xeb?'
p716
tp717
bag21
(g22
(I0
tp718
g24
tp719
Rp720
(I1
(I3
tp721
g229
I00
S'\xd8\x87\x03p)T\xe4?\xd5\xabI\xb7V\xd0\x15\xc0vWg\x9a\x87\x8a\xec?'
p722
tp723
bag21
(g22
(I0
tp724
g24
tp725
Rp726
(I1
(I3
tp727
g229
I00
S'B\x9aa8\x98\xa6\xe8?\xf3\xe9\x94/\xc2\xe4\x18\xc0u\xf8\xb0\x7fO\xb8\xf2?'
p728
tp729
bag21
(g22
(I0
tp730
g24
tp731
Rp732
(I1
(I3
tp733
g229
I00
S'Z\xd4U\x1d\xf6`\xf4? %_\x1c\x06\x1f\x1b\xc0T\xcf(@X`\r@'
p734
tp735
bag677
asbsVrectangular_packing_box1
p736
(itrajectory_representation.operator
Operator
p737
(dp738
g8
I01
sg9
(dp739
g570
Vrectangular_packing_box1
p740
ssg16
g572
sg18
(dp741
g574
(lp742
g21
(g22
(I0
tp743
g24
tp744
Rp745
(I1
(I3
tp746
g218
I00
S'~u\x0e\xab\x9dK\xe8?\x8d\x9a\xdc\xb2\x02\xf7\x16\xc0R0whZ^\t\xc0'
p747
tp748
bag21
(g22
(I0
tp749
g24
tp750
Rp751
(I1
(I3
tp752
g218
I00
S"h\xdek\xcd\x19\x00\xe2?N\xf0\xc0\xbdZB\x1a\xc0 \r'\x04>n\xfd?"
p753
tp754
bag21
(g22
(I0
tp755
g24
tp756
Rp757
(I1
(I3
tp758
g218
I00
S'\x85\xee<0\xc7\x92\xe2?i\x1d\xaf\x90X\xf6\x15\xc0\x05f\xacN\x8b\xdd\x05\xc0'
p759
tp760
basg594
I00
ssg46
(lp761
g21
(g22
(I0
tp762
g24
tp763
Rp764
(I1
(I3
tp765
g218
I00
S'\xfcj\xc4]\xdd\xdf\xf5?`\xcd2a]`\xfb\xbf\\\xafP\xfb@7\xdb?'
p766
tp767
bag21
(g22
(I0
tp768
g24
tp769
Rp770
(I1
(I3
tp771
g229
I00
S'm\xce}C\x08\xbf\xf8?n\x1b_\x80\xc4X\x02\xc0\xa0\xd6\xd4\xb1Na\xa7?'
p772
tp773
bag21
(g22
(I0
tp774
g24
tp775
Rp776
(I1
(I3
tp777
g229
I00
S't\xad\xfd`ie\xf1?\xef\xbf\xd0\xd0\xb5(\x07\xc0\nC\xf27\x9f\xdc\xe7\xbf'
p778
tp779
bag21
(g22
(I0
tp780
g24
tp781
Rp782
(I1
(I3
tp783
g229
I00
S'D\xd4f\xd4\xfa\x1e\xf4?I!\xc6|\x02#\r\xc0{+;\x1d74\xe9\xbf'
p784
tp785
bag21
(g22
(I0
tp786
g24
tp787
Rp788
(I1
(I3
tp789
g229
I00
S'`\xc8Aw-\x81\xeb?/\xc3\xe6O\x04\xca\x10\xc0\x8a\xb7K)\x91{\xe4\xbf'
p790
tp791
bag21
(g22
(I0
tp792
g24
tp793
Rp794
(I1
(I3
tp795
g229
I00
S'l[\xc4\x16<\xe6\xe9?\xa6\xa0\x90\x84X\x9f\x13\xc0\xc2\xd74Q\x00\xaf\xff\xbf'
p796
tp797
bag757
asbsVsquare_packing_box2
p798
(itrajectory_representation.operator
Operator
p799
(dp800
g8
I01
sg9
(dp801
g570
Vsquare_packing_box2
p802
ssg16
g572
sg18
(dp803
g574
(lp804
g21
(g22
(I0
tp805
g24
tp806
Rp807
(I1
(I3
tp808
g218
I00
S'f\x8d\xeb;(\x1b\xfd?M\x16\xf3\xd2\xc9V\x1a\xc0\x12K\x99o\x88\xee\xe4?'
p809
tp810
bag21
(g22
(I0
tp811
g24
tp812
Rp813
(I1
(I3
tp814
g218
I00
S'\xb96\x17\x1c\xb6<\xfe?N\xa6M\xf4&\x16\x16\xc0\xaa\xf2\x7f+\x02\xbf\xf0\xbf'
p815
tp816
bag21
(g22
(I0
tp817
g24
tp818
Rp819
(I1
(I3
tp820
g218
I00
S"P\x93'\x17\xa1\xe9\xfd?\xd3\xf5\xa0\x9b\x17v\x1a\xc0bN\xed+!\xa5\xee?"
p821
tp822
basg594
I00
ssg46
(lp823
g21
(g22
(I0
tp824
g24
tp825
Rp826
(I1
(I3
tp827
g218
I00
S'\xfcj\xc4]\xdd\xdf\xf5?`\xcd2a]`\xfb\xbf\\\xafP\xfb@7\xdb?'
p828
tp829
bag21
(g22
(I0
tp830
g24
tp831
Rp832
(I1
(I3
tp833
g229
I00
S'(X\x98\xe2\xb4o\xf3?a.\x9aw\xe8\xe7\x02\xc0$?\xdd\xcf\xd6\xc0\xe4?'
p834
tp835
bag21
(g22
(I0
tp836
g24
tp837
Rp838
(I1
(I3
tp839
g229
I00
S'X91+\xcd0\xe7?\x10t\x86\x8cV\xe3\x05\xc0\xfe\xb2\xd83\xdc\xcb\xee?'
p840
tp841
bag21
(g22
(I0
tp842
g24
tp843
Rp844
(I1
(I3
tp845
g229
I00
S'\xd1\xaa\x15!\x8c\x06\xed?\x8c\xab\xab^w\xe3\t\xc0~&\xcc\xa2\xcbw\xf6?'
p846
tp847
bag21
(g22
(I0
tp848
g24
tp849
Rp850
(I1
(I3
tp851
g229
I00
S'\xe4u**\x0e5\xe9?\xaa\xfd\r\xed\xc4\xf6\r\xc0\x0fDE0\x1f\x0b\xfe?'
p852
tp853
bag21
(g22
(I0
tp854
g24
tp855
Rp856
(I1
(I3
tp857
g229
I00
S'\xc6\x05\xbdtg\xd9\xe2?F\xdf\x9d@\\\xf3\x11\xc0\x1a\xc4.\xbb\xcc\x12\x02@'
p858
tp859
bag21
(g22
(I0
tp860
g24
tp861
Rp862
(I1
(I3
tp863
g229
I00
S'&>c9\x01,\xeb?\xb2\xc2\xf0\x02\xce\x8e\x14\xc0\xd8p\xbb2\x14\xd2\x03@'
p864
tp865
bag21
(g22
(I0
tp866
g24
tp867
Rp868
(I1
(I3
tp869
g229
I00
S'2Z\xe1\xe97J\xf6?\\\x1e`@2v\x16\xc0\xc4\x0c\xcc\x14<\xf9\xf6\xbf'
p870
tp871
bag813
asbsVsquare_packing_box3
p872
(itrajectory_representation.operator
Operator
p873
(dp874
g8
I01
sg9
(dp875
g570
Vsquare_packing_box3
p876
ssg16
g572
sg18
(dp877
g574
(lp878
g21
(g22
(I0
tp879
g24
tp880
Rp881
(I1
(I3
tp882
g218
I00
S'\xfb\xa46e\xa9\x04\xfe?R\xad\x1c\x98Q\x99\x19\xc0z\xd3\xa8e\xb26\xc3?'
p883
tp884
bag21
(g22
(I0
tp885
g24
tp886
Rp887
(I1
(I3
tp888
g218
I00
S'/\xa47Ug\xf8\x05@\xf4\x8bZ2\xd6\x85\x1d\xc0\x06 \xc0\x15\x05a\xf4?'
p889
tp890
bag21
(g22
(I0
tp891
g24
tp892
Rp893
(I1
(I3
tp894
g218
I00
S'\x0b\xb1\xefi3\x8d\x02@q!\xa6\xdd8[\x1d\xc0\xd7\x91\xec\x8e\x92a\xe5?'
p895
tp896
basg594
I00
ssg46
(lp897
g21
(g22
(I0
tp898
g24
tp899
Rp900
(I1
(I3
tp901
g218
I00
S'\xfcj\xc4]\xdd\xdf\xf5?`\xcd2a]`\xfb\xbf\\\xafP\xfb@7\xdb?'
p902
tp903
bag21
(g22
(I0
tp904
g24
tp905
Rp906
(I1
(I3
tp907
g229
I00
S'\xb7\xd0.Y\x0e\x8b\xf7?\xe5\xd0\xb5h\\\xda\x03\xc0Wr?\xf8\xc3^\xf4?'
p908
tp909
bag21
(g22
(I0
tp910
g24
tp911
Rp912
(I1
(I3
tp913
g229
I00
S'\x0e\n\xf3\x14\x91\x9e\xf3?\x1c\x0cAZ"\xfa\x05\xc0\xf8\x01c\x9bq\'\xfc?'
p914
tp915
bag21
(g22
(I0
tp916
g24
tp917
Rp918
(I1
(I3
tp919
g229
I00
S'\xd1\xaa\x15!\x8c\x06\xed?\x8c\xab\xab^w\xe3\t\xc0~&\xcc\xa2\xcbw\xf6?'
p920
tp921
bag21
(g22
(I0
tp922
g24
tp923
Rp924
(I1
(I3
tp925
g229
I00
S'y\xd4\xbc{`\x0b\xf2?\xb0C6m\xb7\xd6\x0e\xc0\xe8\xe2r\xbe\x16{\xf5?'
p926
tp927
bag21
(g22
(I0
tp928
g24
tp929
Rp930
(I1
(I3
tp931
g229
I00
S'\xf3In\x9c \xb1\xee?\x10D/\xcc\x0f}\x11\xc0\xda0\xdf\x1au:\xf0?'
p932
tp933
bag21
(g22
(I0
tp934
g24
tp935
Rp936
(I1
(I3
tp937
g229
I00
S'v\xb8^\x85\xa7[\xea?x\xbe\xff2t\x8d\x13\xc0\x88\x85\x8cCyH\xf6?'
p938
tp939
bag21
(g22
(I0
tp940
g24
tp941
Rp942
(I1
(I3
tp943
g229
I00
S'\x85\\2\xba\x0b5\xf5?I\r\x06\xd10\xfb\x15\xc0\x9e\x11\xee\xd8\xb9\xd7\xf5?'
p944
tp945
bag21
(g22
(I0
tp946
g24
tp947
Rp948
(I1
(I3
tp949
g229
I00
S'j\xc7\xc0&\x8ag\xf6?h\x9cH4\x7f\xab\x18\xc0\xd8|\x1d\xfc\xcbV\xf2?'
p950
tp951
bag21
(g22
(I0
tp952
g24
tp953
Rp954
(I1
(I3
tp955
g229
I00
S'JyH\x8ez\xd6\xfa?\xb3\xf7h\x83\xea\xba\x1a\xc0u\xf9Uf\xb7m\xe0?'
p956
tp957
bag21
(g22
(I0
tp958
g24
tp959
Rp960
(I1
(I3
tp961
g229
I00
S'\tAsXx\r\x00@F^\x05/\xfdK\x1d\xc0~\xbbB\x0f\xbe\xe6\xd2?'
p962
tp963
bag893
asbsg57
(itrajectory_representation.operator
Operator
p964
(dp965
g8
I01
sg9
(dp966
g11
g57
ssg16
g551
sg18
(dp967
g20
g21
(g22
(I0
tp968
g24
tp969
Rp970
(I1
(I3
tp971
g31
I00
S'-\xa8\xe8\x9f\x88~\xf6?\xa5\xfb\xf36\xf4\x18\x1b\xc0\x99\xd0\xcc\xf5\xf3x\xc0\xbf'
p972
tp973
bssg46
(lp974
g21
(g22
(I0
tp975
g24
tp976
Rp977
(I1
(I3
tp978
g218
I00
S'\xe0:G\xc3?\xe7\n@"+\xf9\x8a\xbc\x05\x1d\xc0\x8c\xfa\n\xc4\xe0|\x07@'
p979
tp980
bag21
(g22
(I0
tp981
g24
tp982
Rp983
(I1
(I3
tp984
g229
I00
S'\xe4\x81\xa6\xb4\xaf\xa9\x06@W#\xf7\xbb\x82\xfc\x1e\xc05N\xc5G\xfd\x04\x02@'
p985
tp986
bag21
(g22
(I0
tp987
g24
tp988
Rp989
(I1
(I3
tp990
g229
I00
S'V<\xdb\x99-b\x02@s\xd3@:\x7fA\x1e\xc0\xbf\x94H\xa7$\xf0\xff?'
p991
tp992
bag21
(g22
(I0
tp993
g24
tp994
Rp995
(I1
(I3
tp996
g229
I00
S'zT\r\xfe&\xfe\xfd?~,i\xf5\xe3\x9c\x1d\xc0\xe2\x1a4?SB\x15@'
p997
tp998
bag970
asbsg510
(itrajectory_representation.operator
Operator
p999
(dp1000
g8
I01
sg9
(dp1001
g570
Vsquare_packing_box4
p1002
ssg16
g572
sg18
(dp1003
g574
(lp1004
g21
(g22
(I0
tp1005
g24
tp1006
Rp1007
(I1
(I3
tp1008
g218
I00
S'\xac\xf3\x98\xc4\xd5\xc2\x0b@1^\xbc\xbbk\xfd\x18\xc0\xe2:qG^E\xed\xbf'
p1009
tp1010
bag21
(g22
(I0
tp1011
g24
tp1012
Rp1013
(I1
(I3
tp1014
g218
I00
S'c\x87M<\xe7\x9a\n@\xc8\\j\x82*~\x1c\xc0\xa4\xc0\xf3\xe78\xdd\xe3?'
p1015
tp1016
bag21
(g22
(I0
tp1017
g24
tp1018
Rp1019
(I1
(I3
tp1020
g218
I00
S"'~;\r\xa9\xb9\r@L#\xa8\xd2\x18r\x18\xc03\x83\x94\xa9\xebY\xf3\xbf"
p1021
tp1022
basg594
I00
ssg46
(lp1023
g21
(g22
(I0
tp1024
g24
tp1025
Rp1026
(I1
(I3
tp1027
g218
I00
S'\xfcj\xc4]\xdd\xdf\xf5?`\xcd2a]`\xfb\xbf\\\xafP\xfb@7\xdb?'
p1028
tp1029
bag21
(g22
(I0
tp1030
g24
tp1031
Rp1032
(I1
(I3
tp1033
g229
I00
S'm\xce}C\x08\xbf\xf8?n\x1b_\x80\xc4X\x02\xc0\xa0\xd6\xd4\xb1Na\xa7?'
p1034
tp1035
bag21
(g22
(I0
tp1036
g24
tp1037
Rp1038
(I1
(I3
tp1039
g229
I00
S'S\xf49\xa2+\x89\xf0?\x90\xc6\x1b\xea\xaco\x04\xc0m\xfeq\x0c\x14\x04\xcf\xbf'
p1040
tp1041
bag21
(g22
(I0
tp1042
g24
tp1043
Rp1044
(I1
(I3
tp1045
g229
I00
S'\xef\xc3u*\xfb\xdb\xeb?\x8d\xa5\n\xfd\x03<\n\xc0\xd8\xfb\xde\x16R\xac\xde?'
p1046
tp1047
bag21
(g22
(I0
tp1048
g24
tp1049
Rp1050
(I1
(I3
tp1051
g229
I00
S'\x93k\xbc\xee\xc2\x10\xe8?\xab^\x86?\x08D\x10\xc0\x10;2\x00\xe5\t\xde?'
p1052
tp1053
bag21
(g22
(I0
tp1054
g24
tp1055
Rp1056
(I1
(I3
tp1057
g229
I00
S'\xa9\xd9\x1d\x8d\xa6j\xdf?\xa0\x85\x1a\x84\xc6\xec\x12\xc0\x01\xb6 H\xb1\x91\xeb?'
p1058
tp1059
bag21
(g22
(I0
tp1060
g24
tp1061
Rp1062
(I1
(I3
tp1063
g229
I00
S'\xe4\x9e\xb7\xac\xe0!\xeb?\x8a\x83\x10\xb1\xa2\xad\x15\xc0\x9aS\xfbY\xaf\x8f\xd2\xbf'
p1064
tp1065
bag21
(g22
(I0
tp1066
g24
tp1067
Rp1068
(I1
(I3
tp1069
g229
I00
S'\x12\xfe\xe1\x95\xb8\x19\xf8?\x8c#.~\xd7\xc6\x16\xc0\xfe\xd3A\xf0\xcat\xc0\xbf'
p1070
tp1071
bag21
(g22
(I0
tp1072
g24
tp1073
Rp1074
(I1
(I3
tp1075
g229
I00
S'_\x1fd\x97D>\x00@W\xf2\x9b\xb2\x92\xd8\x15\xc0\x99\xbc\xd43\xf6\xfa\x08\xc0'
p1076
tp1077
bag21
(g22
(I0
tp1078
g24
tp1079
Rp1080
(I1
(I3
tp1081
g229
I00
S'\x7f\xf7\x8e\x1f\xfbq\x06@\x05\xa9\xa4M\x80 \x16\xc0\x85\x00\n\x0c\x80\xee\n\xc0'
p1082
tp1083
bag21
(g22
(I0
tp1084
g24
tp1085
Rp1086
(I1
(I3
tp1087
g229
I00
S'\xc6>\xe9 \xd2e\x0b@\xe4\xbc"M2\xad\x15\xc0\xbe~a\xe9h\n\x13@'
p1088
tp1089
bag1019
asbssS'mc_paths'
p1090
(dp1091
sS'robot'
p1092
NsS'reachable_obj_region_pairs'
p1093
(lp1094
sS'sampled_pick_configs_for_objects'
p1095
(dp1096
sS'mc_calls'
p1097
I0
sS'pick_poses'
p1098
g547
sS'problem_env'
p1099
NsS'evaluations'
p1100
(dp1101
(g390
g288
g209
tp1102
I00
s(g288
g441
g209
tp1103
I00
s(g208
g390
g209
tp1104
I01
s(g441
Vsquare_packing_box1
p1105
g209
tp1106
I01
s(g441
g288
g209
tp1107
I00
s(g208
Vsquare_packing_box4
p1108
g209
tp1109
I00
s(g390
g1105
g209
tp1110
I01
s(g390
g339
g209
tp1111
I00
s(g208
g441
g209
tp1112
I01
s(g441
g1108
g209
tp1113
I00
s(g288
Vrectangular_packing_box1
p1114
g209
tp1115
I01
s(g339
g1105
g209
tp1116
I00
s(g208
g1114
g209
tp1117
I00
s(g288
g1105
g209
tp1118
I00
s(g339
g208
g209
tp1119
I00
s(g288
g1108
g209
tp1120
I00
s(g288
g339
g209
tp1121
I01
s(g339
g441
g209
tp1122
I00
s(g339
g1114
g209
tp1123
I01
s(g441
g1114
g209
tp1124
I00
s(g208
g288
g209
tp1125
I00
s(g390
g1114
g209
tp1126
I00
s(g339
g1108
g209
tp1127
I00
s(g390
g208
g209
tp1128
I00
s(g441
g390
g209
tp1129
I01
s(g288
g208
g209
tp1130
I00
s(g390
g1108
g209
tp1131
I00
s(g390
g441
g209
tp1132
I00
s(g208
g339
g209
tp1133
I00
s(g339
g288
g209
tp1134
I01
s(g288
g390
g209
tp1135
I00
s(g208
g1105
g209
tp1136
I01
s(g441
g339
g209
tp1137
I00
s(g339
g390
g209
tp1138
I00
s(g441
g208
g209
tp1139
I00
ssS'paths_to_reachable_entities'
p1140
NsS'use_shortest_path'
p1141
I01
sbsS'ternary_edges'
p1142
(dp1143
(g288
g288
g209
tp1144
(lp1145
I00
as(g1105
S'loading_region'
p1146
g1146
tp1147
(lp1148
I00
as(S'entire_region'
p1149
g1114
g209
tp1150
(lp1151
I00
as(g390
g1108
g1146
tp1152
(lp1153
I00
as(g209
g209
g209
tp1154
(lp1155
I00
as(g1108
g288
g1146
tp1156
(lp1157
I00
as(g1105
g339
g209
tp1158
(lp1159
I00
as(g209
g208
g209
tp1160
(lp1161
I00
as(g390
g1105
g209
tp1162
(lp1163
I01
as(g339
g208
g1146
tp1164
(lp1165
I00
as(g209
g1108
g1146
tp1166
(lp1167
I00
as(g390
g1149
g209
tp1168
(lp1169
I00
as(g1146
g209
g1146
tp1170
(lp1171
I00
as(g208
g441
g209
tp1172
(lp1173
I01
as(g1108
g1149
g209
tp1174
(lp1175
I00
as(g390
g1114
g1146
tp1176
(lp1177
I00
as(g441
g1146
g209
tp1178
(lp1179
I00
as(g1149
g288
g1146
tp1180
(lp1181
I00
as(g209
g1149
g209
tp1182
(lp1183
I00
as(g288
g1146
g209
tp1184
(lp1185
I00
as(g441
g1149
g209
tp1186
(lp1187
I00
as(g1105
g1105
g1146
tp1188
(lp1189
I00
as(g1146
g1108
g1146
tp1190
(lp1191
I00
as(g1149
g1146
g209
tp1192
(lp1193
I00
as(g1149
g390
g209
tp1194
(lp1195
I00
as(g1146
g1146
g209
tp1196
(lp1197
I00
as(g441
g208
g1146
tp1198
(lp1199
I00
as(g209
g209
g1146
tp1200
(lp1201
I00
as(g1114
g390
g1146
tp1202
(lp1203
I00
as(g288
g1108
g209
tp1204
(lp1205
I00
as(g441
g1105
g209
tp1206
(lp1207
I01
as(g1114
g209
g1146
tp1208
(lp1209
I00
as(g209
g288
g1146
tp1210
(lp1211
I00
as(g1114
g339
g1146
tp1212
(lp1213
I00
as(g339
g1114
g209
tp1214
(lp1215
I01
as(g1146
g1105
g1146
tp1216
(lp1217
I00
as(g1108
g390
g1146
tp1218
(lp1219
I00
as(g288
g288
g1146
tp1220
(lp1221
I00
as(g1149
g1108
g209
tp1222
(lp1223
I00
as(g1146
g209
g209
tp1224
(lp1225
I00
as(g208
g288
g209
tp1226
(lp1227
I00
as(g209
g339
g209
tp1228
(lp1229
I00
as(g390
g1114
g209
tp1230
(lp1231
I00
as(g339
g1108
g209
tp1232
(lp1233
I00
as(g1105
g339
g1146
tp1234
(lp1235
I00
as(g441
g390
g209
tp1236
(lp1237
I01
as(g390
g1105
g1146
tp1238
(lp1239
I00
as(g390
g288
g1146
tp1240
(lp1241
I00
as(g1149
g390
g1146
tp1242
(lp1243
I00
as(g1146
g339
g1146
tp1244
(lp1245
I00
as(g1149
g209
g209
tp1246
(lp1247
I00
as(g208
g209
g209
tp1248
(lp1249
I00
as(g1146
g1149
g209
tp1250
(lp1251
I00
as(g288
g1108
g1146
tp1252
(lp1253
I00
as(g441
g288
g1146
tp1254
(lp1255
I00
as(g441
g441
g209
tp1256
(lp1257
I00
as(g1114
g339
g209
tp1258
(lp1259
I00
as(g1149
g288
g209
tp1260
(lp1261
I00
as(g1114
g1146
g1146
tp1262
(lp1263
I00
as(g1108
g1105
g209
tp1264
(lp1265
I00
as(g1105
g1105
g209
tp1266
(lp1267
I00
as(g1105
g208
g209
tp1268
(lp1269
I00
as(g208
g288
g1146
tp1270
(lp1271
I00
as(g1108
g1114
g1146
tp1272
(lp1273
I00
as(g441
g208
g209
tp1274
(lp1275
I00
as(g1114
g390
g209
tp1276
(lp1277
I00
as(g288
g1114
g1146
tp1278
(lp1279
I00
as(g1114
g209
g209
tp1280
(lp1281
I00
as(g390
g288
g209
tp1282
(lp1283
I00
as(g288
g441
g209
tp1284
(lp1285
I00
as(g339
g1114
g1146
tp1286
(lp1287
I00
as(g209
g390
g1146
tp1288
(lp1289
I00
as(g1149
g209
g1146
tp1290
(lp1291
I00
as(g1149
g1108
g1146
tp1292
(lp1293
I00
as(g441
g288
g209
tp1294
(lp1295
I00
as(g339
g441
g1146
tp1296
(lp1297
I00
as(g288
g1149
g1146
tp1298
(lp1299
I00
as(g1114
g1146
g209
tp1300
(lp1301
I00
as(g441
g390
g1146
tp1302
(lp1303
I00
as(g441
g1114
g1146
tp1304
(lp1305
I00
as(g1108
g1105
g1146
tp1306
(lp1307
I00
as(g209
g339
g1146
tp1308
(lp1309
I00
as(g1149
g441
g1146
tp1310
(lp1311
I00
as(g1146
g339
g209
tp1312
(lp1313
I00
as(g1146
g390
g1146
tp1314
(lp1315
I00
as(g288
g1114
g209
tp1316
(lp1317
I01
as(g1108
g1114
g209
tp1318
(lp1319
I00
as(g1146
g441
g209
tp1320
(lp1321
I00
as(g288
g441
g1146
tp1322
(lp1323
I00
as(g288
g208
g1146
tp1324
(lp1325
I00
as(g339
g1108
g1146
tp1326
(lp1327
I00
as(g1105
g208
g1146
tp1328
(lp1329
I00
as(g1114
g441
g1146
tp1330
(lp1331
I00
as(g209
g1105
g1146
tp1332
(lp1333
I00
as(g339
g1146
g1146
tp1334
(lp1335
I00
as(g208
g209
g1146
tp1336
(lp1337
I00
as(g1105
g1114
g209
tp1338
(lp1339
I00
as(g288
g1149
g209
tp1340
(lp1341
I00
as(g208
g390
g1146
tp1342
(lp1343
I00
as(g339
g288
g1146
tp1344
(lp1345
I00
as(g441
g1114
g209
tp1346
(lp1347
I00
as(g1108
g1146
g1146
tp1348
(lp1349
I00
as(g390
g209
g209
tp1350
(lp1351
I00
as(g1108
g208
g209
tp1352
(lp1353
I00
as(g209
g441
g1146
tp1354
(lp1355
I00
as(g1146
g1114
g1146
tp1356
(lp1357
I00
as(g1146
g441
g1146
tp1358
(lp1359
I00
as(g1105
g441
g209
tp1360
(lp1361
I00
as(g1114
g441
g209
tp1362
(lp1363
I00
as(g1105
g1114
g1146
tp1364
(lp1365
I00
as(g339
g288
g209
tp1366
(lp1367
I01
as(g288
g390
g209
tp1368
(lp1369
I00
as(g339
g209
g1146
tp1370
(lp1371
I00
as(g1108
g1146
g209
tp1372
(lp1373
I00
as(g1146
g208
g1146
tp1374
(lp1375
I00
as(g288
g208
g209
tp1376
(lp1377
I00
as(g339
g339
g209
tp1378
(lp1379
I00
as(g208
g208
g209
tp1380
(lp1381
I00
as(g208
g339
g1146
tp1382
(lp1383
I00
as(g339
g1146
g209
tp1384
(lp1385
I00
as(g441
g1108
g209
tp1386
(lp1387
I00
as(g208
g390
g209
tp1388
(lp1389
I01
as(g390
g1146
g1146
tp1390
(lp1391
I00
as(g339
g1149
g1146
tp1392
(lp1393
I00
as(g390
g209
g1146
tp1394
(lp1395
I00
as(g1105
g390
g1146
tp1396
(lp1397
I00
as(g1108
g208
g1146
tp1398
(lp1399
I00
as(g441
g209
g1146
tp1400
(lp1401
I00
as(g339
g209
g209
tp1402
(lp1403
I00
as(g1146
g208
g209
tp1404
(lp1405
I00
as(g1114
g1114
g209
tp1406
(lp1407
I00
as(g1146
g1108
g209
tp1408
(lp1409
I00
as(g1108
g441
g209
tp1410
(lp1411
I00
as(g1105
g288
g209
tp1412
(lp1413
I00
as(g1105
g441
g1146
tp1414
(lp1415
I00
as(g208
g1105
g1146
tp1416
(lp1417
I00
as(g209
g390
g209
tp1418
(lp1419
I00
as(g1149
g339
g1146
tp1420
(lp1421
I00
as(g339
g1105
g209
tp1422
(lp1423
I00
as(g1114
g1149
g209
tp1424
(lp1425
I00
as(g441
g1108
g1146
tp1426
(lp1427
I00
as(g441
g339
g1146
tp1428
(lp1429
I00
as(g208
g1114
g209
tp1430
(lp1431
I00
as(g288
g390
g1146
tp1432
(lp1433
I00
as(g208
g1146
g209
tp1434
(lp1435
I00
as(g339
g1149
g209
tp1436
(lp1437
I00
as(g1108
g339
g1146
tp1438
(lp1439
I00
as(g288
g1105
g209
tp1440
(lp1441
I00
as(g441
g1105
g1146
tp1442
(lp1443
I00
as(g1108
g1108
g1146
tp1444
(lp1445
I00
as(g208
g208
g1146
tp1446
(lp1447
I00
as(g1114
g1114
g1146
tp1448
(lp1449
I00
as(g1105
g1108
g1146
tp1450
(lp1451
I00
as(g1108
g390
g209
tp1452
(lp1453
I00
as(g1149
g1105
g209
tp1454
(lp1455
I00
as(g209
g1149
g1146
tp1456
(lp1457
I00
as(g209
g1114
g1146
tp1458
(lp1459
I00
as(g390
g1146
g209
tp1460
(lp1461
I00
as(g1105
g288
g1146
tp1462
(lp1463
I00
as(g1114
g1105
g1146
tp1464
(lp1465
I00
as(g339
g339
g1146
tp1466
(lp1467
I00
as(g1149
g339
g209
tp1468
(lp1469
I00
as(g390
g339
g1146
tp1470
(lp1471
I00
as(g1114
g1149
g1146
tp1472
(lp1473
I00
as(g1105
g390
g209
tp1474
(lp1475
I00
as(g208
g1114
g1146
tp1476
(lp1477
I00
as(g208
g339
g209
tp1478
(lp1479
I00
as(g1108
g339
g209
tp1480
(lp1481
I00
as(g1105
g209
g1146
tp1482
(lp1483
I00
as(g390
g441
g209
tp1484
(lp1485
I00
as(g441
g441
g1146
tp1486
(lp1487
I00
as(g208
g1149
g209
tp1488
(lp1489
I00
as(g1146
g1149
g1146
tp1490
(lp1491
I00
as(g1108
g441
g1146
tp1492
(lp1493
I00
as(g1146
g1114
g209
tp1494
(lp1495
I00
as(g1149
g1149
g1146
tp1496
(lp1497
I00
as(g208
g1105
g209
tp1498
(lp1499
I01
as(g1105
g1108
g209
tp1500
(lp1501
I00
as(g1146
g288
g1146
tp1502
(lp1503
I00
as(g339
g1105
g1146
tp1504
(lp1505
I00
as(g441
g209
g209
tp1506
(lp1507
I00
as(g1149
g1105
g1146
tp1508
(lp1509
I00
as(g441
g339
g209
tp1510
(lp1511
I00
as(g339
g390
g209
tp1512
(lp1513
I00
as(g208
g1146
g1146
tp1514
(lp1515
I00
as(g288
g1105
g1146
tp1516
(lp1517
I00
as(g1114
g288
g209
tp1518
(lp1519
I00
as(g1149
g1146
g1146
tp1520
(lp1521
I00
as(g1146
g288
g209
tp1522
(lp1523
I00
as(g1105
g1149
g209
tp1524
(lp1525
I00
as(g390
g441
g1146
tp1526
(lp1527
I00
as(g390
g208
g1146
tp1528
(lp1529
I00
as(g1108
g209
g209
tp1530
(lp1531
I00
as(g208
g1149
g1146
tp1532
(lp1533
I00
as(g208
g1108
g209
tp1534
(lp1535
I00
as(g1149
g208
g1146
tp1536
(lp1537
I00
as(g209
g1114
g209
tp1538
(lp1539
I00
as(g209
g441
g209
tp1540
(lp1541
I00
as(g1114
g1105
g209
tp1542
(lp1543
I00
as(g1114
g208
g209
tp1544
(lp1545
I00
as(g1149
g441
g209
tp1546
(lp1547
I00
as(g390
g339
g209
tp1548
(lp1549
I00
as(g390
g390
g1146
tp1550
(lp1551
I00
as(g1114
g1108
g1146
tp1552
(lp1553
I00
as(g1108
g209
g1146
tp1554
(lp1555
I00
as(g288
g209
g209
tp1556
(lp1557
I00
as(g1105
g209
g209
tp1558
(lp1559
I00
as(g1114
g288
g1146
tp1560
(lp1561
I00
as(g1108
g288
g209
tp1562
(lp1563
I00
as(g209
g1146
g209
tp1564
(lp1565
I00
as(g1149
g1149
g209
tp1566
(lp1567
I00
as(g288
g339
g1146
tp1568
(lp1569
I00
as(g1105
g1149
g1146
tp1570
(lp1571
I00
as(g1146
g390
g209
tp1572
(lp1573
I00
as(g339
g208
g209
tp1574
(lp1575
I00
as(g1149
g208
g209
tp1576
(lp1577
I00
as(g1105
g1146
g209
tp1578
(lp1579
I00
as(g339
g390
g1146
tp1580
(lp1581
I00
as(g209
g1105
g209
tp1582
(lp1583
I00
as(g1149
g1114
g1146
tp1584
(lp1585
I00
as(g1108
g1149
g1146
tp1586
(lp1587
I00
as(g390
g390
g209
tp1588
(lp1589
I00
as(g1114
g1108
g209
tp1590
(lp1591
I00
as(g441
g1149
g1146
tp1592
(lp1593
I00
as(g390
g208
g209
tp1594
(lp1595
I00
as(g209
g1108
g209
tp1596
(lp1597
I00
as(g339
g441
g209
tp1598
(lp1599
I00
as(g208
g1108
g1146
tp1600
(lp1601
I00
as(g1108
g1108
g209
tp1602
(lp1603
I00
as(g1114
g208
g1146
tp1604
(lp1605
I00
as(g390
g1108
g209
tp1606
(lp1607
I00
as(g441
g1146
g1146
tp1608
(lp1609
I00
as(g209
g288
g209
tp1610
(lp1611
I00
as(g288
g1146
g1146
tp1612
(lp1613
I00
as(g209
g208
g1146
tp1614
(lp1615
I00
as(g288
g209
g1146
tp1616
(lp1617
I00
as(g1146
g1146
g1146
tp1618
(lp1619
I00
as(g390
g1149
g1146
tp1620
(lp1621
I00
as(g208
g441
g1146
tp1622
(lp1623
I00
as(g209
g1146
g1146
tp1624
(lp1625
I00
as(g288
g339
g209
tp1626
(lp1627
I01
as(g1146
g1105
g209
tp1628
(lp1629
I00
assg546
g547
sS'use_prm'
p1630
I01
sS'object_names'
p1631
(lp1632
S'square_packing_box1'
p1633
aS'rectangular_packing_box1'
p1634
aS'square_packing_box2'
p1635
aS'rectangular_packing_box2'
p1636
aS'square_packing_box3'
p1637
aS'rectangular_packing_box3'
p1638
aS'square_packing_box4'
p1639
aS'rectangular_packing_box4'
p1640
asg1099
NsS'current_holding_collides'
p1641
NsS'object_poses'
p1642
(dp1643
Vrectangular_packing_box4
p1644
g21
(g22
(I0
tp1645
g24
tp1646
Rp1647
(I1
(I1
I3
tp1648
g218
I00
S'\x88\xbb\xb6Z\xd9\xe2\x02@\x1c\xe3@\x0e\xd2y\x1d\xc0\xc5\x88N\xa2\x9aI\xf5?'
p1649
tp1650
bsVrectangular_packing_box2
p1651
g21
(g22
(I0
tp1652
g24
tp1653
Rp1654
(I1
(I1
I3
tp1655
g218
I00
S'\xc09;_2^\xca\xbf\xe7\xfa\xef+B\x82\x1e\xc0\x0ct\x8e\xd7r|\x15@'
p1656
tp1657
bsVrectangular_packing_box3
p1658
g21
(g22
(I0
tp1659
g24
tp1660
Rp1661
(I1
(I1
I3
tp1662
g218
I00
S'\xc9\xdf\x87\xe7B\x8d\xee?\x96\x90\xb63\x1a)\x1e\xc0\xbe\x86[\xaafc\t@'
p1663
tp1664
bsVrectangular_packing_box1
p1665
g21
(g22
(I0
tp1666
g24
tp1667
Rp1668
(I1
(I1
I3
tp1669
g218
I00
S'\x00\xa3\xdf\x82Xk\x9a?\xcc\xb2\x1aL\xac\xcd\x17\xc0u)\xd01d#\x00@'
p1670
tp1671
bsVsquare_packing_box2
p1672
g21
(g22
(I0
tp1673
g24
tp1674
Rp1675
(I1
(I1
I3
tp1676
g218
I00
S'<i\x15\xda\x19\xc5\x02@\x92k-G\xc0A\x18\xc0hz\xaa\xf7k]\x0f@'
p1677
tp1678
bsVsquare_packing_box3
p1679
g21
(g22
(I0
tp1680
g24
tp1681
Rp1682
(I1
(I1
I3
tp1683
g218
I00
S'0\xb8iq2\xb0\x05@\xcc\xf3V\xb0\xeb\xbe\x1a\xc0X=\xd6\xc0\xd1\xb5\x07@'
p1684
tp1685
bsVsquare_packing_box1
p1686
g21
(g22
(I0
tp1687
g24
tp1688
Rp1689
(I1
(I1
I3
tp1690
g218
I00
S'`\x99\xaa\x96\xe3"\x01@\x1eJ\xae\xaf-\x1b\x1b\xc0R\x85D\x82A\xb7\xf5?'
p1691
tp1692
bsVsquare_packing_box4
p1693
g21
(g22
(I0
tp1694
g24
tp1695
Rp1696
(I1
(I1
I3
tp1697
g218
I00
S'\x96\x05\x05\xb0\xa5\x85\x0f@{\xb7"\xb3\xb6\xcd\x1a\xc05\xd1B5\x13\xf7\x15@'
p1698
tp1699
bssS'reachable_regions_while_holding'
p1700
(lp1701
(g12
g1146
tp1702
a(g566
g1146
tp1703
a(g656
g1146
tp1704
a(g736
g1146
tp1705
a(g798
g1146
tp1706
a(g872
g1146
tp1707
a(g57
g1146
tp1708
a(g510
g1146
tp1709
a(g736
g209
tp1710
a(g57
g209
tp1711
a(g510
g209
tp1712
asS'in_region'
p1713
(itrajectory_representation.predicates.in_region
InRegion
p1714
(dp1715
g1099
NsbsS'cached_pick_paths'
p1716
(dp1717
g12
g559
sg566
(lp1718
g21
(g22
(I0
tp1719
g24
tp1720
Rp1721
(I1
(I3
tp1722
g218
I00
S'\xe0:G\xc3?\xe7\n@"+\xf9\x8a\xbc\x05\x1d\xc0\x8c\xfa\n\xc4\xe0|\x07@'
p1723
tp1724
bag21
(g22
(I0
tp1725
g24
tp1726
Rp1727
(I1
(I3
tp1728
g229
I00
S'~\xb5g\xe2\xce"\x06@\xde\xf4\xbc@Ne\x1d\xc0\xca\x97\xa7\xf7\x9d\x1e\n@'
p1729
tp1730
bag21
(g22
(I0
tp1731
g24
tp1732
Rp1733
(I1
(I3
tp1734
g229
I00
S'\xbe\x13Y^h\xbd\x02@\xe3\xc2^\xa1\xb6U\x1f\xc0\xb9*7\xddY\x01\x07@'
p1735
tp1736
bag21
(g22
(I0
tp1737
g24
tp1738
Rp1739
(I1
(I3
tp1740
g229
I00
S'\x1e}\xa1={_\xfa?\xf8\xcc\xba6\xc0\x9b\x1f\xc0\xe5\x11-\x1d\xde\x08\x08@'
p1741
tp1742
bag21
(g22
(I0
tp1743
g24
tp1744
Rp1745
(I1
(I3
tp1746
g229
I00
S'\xb5\x99m0\x178\xf0?\x86\xac\x86\xf0\xe37\x1e\xc0\x7f\x06\x9c\xb7E2\x0c@'
p1747
tp1748
bag578
asg656
(lp1749
g21
(g22
(I0
tp1750
g24
tp1751
Rp1752
(I1
(I3
tp1753
g218
I00
S'\xe0:G\xc3?\xe7\n@"+\xf9\x8a\xbc\x05\x1d\xc0\x8c\xfa\n\xc4\xe0|\x07@'
p1754
tp1755
bag21
(g22
(I0
tp1756
g24
tp1757
Rp1758
(I1
(I3
tp1759
g229
I00
S'py\xe7\x92\x10\x1c\x08@_z\xb4M\xdc\xbc\x1b\xc0\xe2\x81s\x12\x81\x12\x08\xc0'
p1760
tp1761
bag21
(g22
(I0
tp1762
g24
tp1763
Rp1764
(I1
(I3
tp1765
g229
I00
S"'DJ\xaet\xe5\x02@&#\x93\x97\x82\xb8\x1b\xc0\xdbM\xcc\xf6#.\x08@"
p1766
tp1767
bag677
asg736
(lp1768
g21
(g22
(I0
tp1769
g24
tp1770
Rp1771
(I1
(I3
tp1772
g218
I00
S'\xe0:G\xc3?\xe7\n@"+\xf9\x8a\xbc\x05\x1d\xc0\x8c\xfa\n\xc4\xe0|\x07@'
p1773
tp1774
bag21
(g22
(I0
tp1775
g24
tp1776
Rp1777
(I1
(I3
tp1778
g229
I00
S'\xe8\x81y:#O\t@W\xfe\xf6\x1e\x16\xa2\x1a\xc0\x92%c\x11\x9c\x0e\x06@'
p1779
tp1780
bag21
(g22
(I0
tp1781
g24
tp1782
Rp1783
(I1
(I3
tp1784
g229
I00
S'\xba\x8d\x1a\xa2f&\x03@$\xbc\xba{lE\x1a\xc0172\n\x8c\xab\x03@'
p1785
tp1786
bag21
(g22
(I0
tp1787
g24
tp1788
Rp1789
(I1
(I3
tp1790
g229
I00
S'\xf60LV\xe8\x96\x00@\x9aEw{a\xe2\x18\xc0^\xa8\x8a,\xa3\x98\x00@'
p1791
tp1792
bag21
(g22
(I0
tp1793
g24
tp1794
Rp1795
(I1
(I3
tp1796
g229
I00
S'\x84\xa2s4\xa1\xd0\xf6?E=|\xb9\xcam\x17\xc0\xa93^V\xfc\xed\x05@'
p1797
tp1798
bag745
asg798
(lp1799
g21
(g22
(I0
tp1800
g24
tp1801
Rp1802
(I1
(I3
tp1803
g218
I00
S'\xe0:G\xc3?\xe7\n@"+\xf9\x8a\xbc\x05\x1d\xc0\x8c\xfa\n\xc4\xe0|\x07@'
p1804
tp1805
bag21
(g22
(I0
tp1806
g24
tp1807
Rp1808
(I1
(I3
tp1809
g229
I00
S'py\xe7\x92\x10\x1c\x08@_z\xb4M\xdc\xbc\x1b\xc0\xe2\x81s\x12\x81\x12\x08\xc0'
p1810
tp1811
bag21
(g22
(I0
tp1812
g24
tp1813
Rp1814
(I1
(I3
tp1815
g229
I00
S'\xe8[\xb2\xaa\xa5@\x04@(j\r1!I\x1b\xc0Xj\x8bx\xc9`\xfc?'
p1816
tp1817
bag819
asg872
(lp1818
g21
(g22
(I0
tp1819
g24
tp1820
Rp1821
(I1
(I3
tp1822
g218
I00
S'\xe0:G\xc3?\xe7\n@"+\xf9\x8a\xbc\x05\x1d\xc0\x8c\xfa\n\xc4\xe0|\x07@'
p1823
tp1824
bag21
(g22
(I0
tp1825
g24
tp1826
Rp1827
(I1
(I3
tp1828
g229
I00
S'>-\xa39\xc7\x93\r@\xb8\xf5a\xd75\x1d\x1f\xc0\xdc\xdd\xcbq\xb2\x97\x07@'
p1829
tp1830
bag21
(g22
(I0
tp1831
g24
tp1832
Rp1833
(I1
(I3
tp1834
g229
I00
S'\xfc\x1d\xa6\x1b?\xa8\t@\xbf\xd1p\x15\xb8\xac\x1f\xc0\xd1\xf4\xfe\xa7\xfaI\xf4?'
p1835
tp1836
bag887
asg57
g974
sg510
(lp1837
g21
(g22
(I0
tp1838
g24
tp1839
Rp1840
(I1
(I3
tp1841
g218
I00
S'\xe0:G\xc3?\xe7\n@"+\xf9\x8a\xbc\x05\x1d\xc0\x8c\xfa\n\xc4\xe0|\x07@'
p1842
tp1843
bag21
(g22
(I0
tp1844
g24
tp1845
Rp1846
(I1
(I3
tp1847
g229
I00
S'\x05\xc1\x91\xd5x\xee\x0c@($4\xab\x8ce\x1e\xc0\x8d\x07\x16\xc8\x9a\x0e\x0e@'
p1848
tp1849
bag21
(g22
(I0
tp1850
g24
tp1851
Rp1852
(I1
(I3
tp1853
g229
I00
S'\x80T\x9e+\xd8E\x0e@\x08\x00\xed\xb9\xcb\x15\x1e\xc0U\xcc\r\x12P,\xe4?'
p1854
tp1855
bag1013
assg511
(dp1856
(Vrectangular_packing_box1
p1857
(cnumpy.core.multiarray
scalar
p1858
(g218
S'\xb3{\xf2\xb0Pk\x9a?'
p1859
tp1860
Rp1861
g1858
(g218
S'\xc66\xa9h\xac\xcd\x17\xc0'
p1862
tp1863
Rp1864
g1858
(g218
S'\xc7\xbc\x8e8d#\x00@'
p1865
tp1866
Rp1867
tp1868
tp1869
g529
s(Vsquare_packing_box1
p1870
(g1858
(g218
S'V\xd66\xc5\xe3"\x01@'
p1871
tp1872
Rp1873
g1858
(g218
S'6\x03\\\x90-\x1b\x1b\xc0'
p1874
tp1875
Rp1876
g1858
(g218
S',+MJA\xb7\xf5?'
p1877
tp1878
Rp1879
tp1880
tp1881
g541
s(Vrectangular_packing_box3
p1882
(g1858
(g218
S'\xd2\xab\x01JC\x8d\xee?'
p1883
tp1884
Rp1885
g1858
(g218
S'4-\xb12\x1a)\x1e\xc0'
p1886
tp1887
Rp1888
g1858
(g218
S'\xe3m\xa5\xd7fc\t@'
p1889
tp1890
Rp1891
tp1892
tp1893
g525
s(Vsquare_packing_box3
p1894
(g1858
(g218
S'\xa5\xc0\x02\x982\xb0\x05@'
p1895
tp1896
Rp1897
g1858
(g218
S'L\xe1A\xb3\xeb\xbe\x1a\xc0'
p1898
tp1899
Rp1900
g1858
(g218
S'\x9b\x92\xac\xc3\xd1\xb5\x07@'
p1901
tp1902
Rp1903
tp1904
tp1905
g537
s(Vsquare_packing_box4
p1906
(g1858
(g218
S':\xaeFv\xa5\x85\x0f@'
p1907
tp1908
Rp1909
g1858
(g218
S'\xb4\x1c\xe8\xa1\xb6\xcd\x1a\xc0'
p1910
tp1911
Rp1912
g1858
(g218
S"81$'\x13\xf7\x15@"
p1913
tp1914
Rp1915
tp1916
tp1917
g545
s(Vrectangular_packing_box2
p1918
(g1858
(g218
S'\x91\xed|?5^\xca\xbf'
p1919
tp1920
Rp1921
g1858
(g218
S"\x7fk'JB\x82\x1e\xc0"
p1922
tp1923
Rp1924
g1858
(g218
S'~\xabu\xe2r|\x15@'
p1925
tp1926
Rp1927
tp1928
tp1929
g521
s(Vsquare_packing_box2
p1930
(g1858
(g218
S'RF\\\x00\x1a\xc5\x02@'
p1931
tp1932
Rp1933
g1858
(g218
S'\xfdM(D\xc0A\x18\xc0'
p1934
tp1935
Rp1936
g1858
(g218
S'\ne\xe1\xebk]\x0f@'
p1937
tp1938
Rp1939
tp1940
tp1941
g533
s(Vrectangular_packing_box4
p1942
(g1858
(g218
S'\xe4\x11\xdcH\xd9\xe2\x02@'
p1943
tp1944
Rp1945
g1858
(g218
S'}y\x01\xf6\xd1y\x1d\xc0'
p1946
tp1947
Rp1948
g1858
(g218
S'(\xf2$\xe9\x9aI\xf5?'
p1949
tp1950
Rp1951
tp1952
tp1953
g517
ssS'state_saver'
p1954
(igtamp_utils.utils
CustomStateSaver
p1955
(dp1956
S'robot_base_pose'
p1957
g21
(g22
(I0
tp1958
g24
tp1959
Rp1960
(I1
(I1
I3
tp1961
g218
I00
S'\xe8:G\xc3?\xe7\n@(+\xf9\x8a\xbc\x05\x1d\xc0\x8c\xfa\n\xc4\xe0|\x07@'
p1962
tp1963
bsS'held_object'
p1964
NsS'robot_name'
p1965
S'pr2'
p1966
sS'env_id'
p1967
I1
sg1642
(dp1968
Vright_wall_1
p1969
g21
(g22
(I0
tp1970
g24
tp1971
Rp1972
(I1
(I4
tp1973
g218
I00
S'H\xe1z\x14\xaeG\x12@&\\\x8f\xc2\xf5(\xd4\xbf\xcc\x7fH\xbf}\x1d\xed?\x00\x00\x00\x00\x00\x00\x00\x00'
p1974
tp1975
bsVc_obst5
p1976
g21
(g22
(I0
tp1977
g24
tp1978
Rp1979
(I1
(I4
tp1980
g218
I00
S"\x00\xffh\xc3\x1a<\x12@\x98t\xeb\x18\xddG\xdf?e\xaa`TR'\xed?\x8bB\xc06\xf8S\x16@"
p1981
tp1982
bsVentrance_right
p1983
g21
(g22
(I0
tp1984
g24
tp1985
Rp1986
(I1
(I4
tp1987
g218
I00
S'ffffff\n@H\xe1z\x14\xaeG\t\xc0\x9c\xc4 \xb0rh\xc1?\x00\x00\x00\x00\x00\x00\x00\x00'
p1988
tp1989
bsVcomputer_table
p1990
g21
(g22
(I0
tp1991
g24
tp1992
Rp1993
(I1
(I4
tp1994
g218
I00
S'\x00\x00\x00\x00\x00\x00\x13@\x00\x00\x00\x00\x00\x00\xf8\xbf\x96C\x8bl\xe7\xfb\xe7?\xd2!3\x7f|\xd9\x12@'
p1995
tp1996
bsVchair_6b56
p1997
g21
(g22
(I0
tp1998
g24
tp1999
Rp2000
(I1
(I4
tp2001
g218
I00
S'u=\n\xd7\xa3p\xf5?K\xe1z\x14\xaeG\xd1?\x00\x00\x00\x00\x00\x00\x00\x00\xd6$\xfaNBm\n@'
p2002
tp2003
bsVsquare_packing_box3
p2004
g21
(g22
(I0
tp2005
g24
tp2006
Rp2007
(I1
(I4
tp2008
g218
I00
S'/\xb8iq2\xb0\x05@\xcc\xf3V\xb0\xeb\xbe\x1a\xc0L7\x89A`\xe5\xd8?X=\xd6\xc0\xd1\xb5\x07@'
p2009
tp2010
bsVsquare_packing_box2
p2011
g21
(g22
(I0
tp2012
g24
tp2013
Rp2014
(I1
(I4
tp2015
g218
I00
S'@i\x15\xda\x19\xc5\x02@\x92k-G\xc0A\x18\xc0L7\x89A`\xe5\xd8?hz\xaa\xf7k]\x0f@'
p2016
tp2017
bsVtable
p2018
g21
(g22
(I0
tp2019
g24
tp2020
Rp2021
(I1
(I4
tp2022
g218
I00
S'\x7f\xf6#EdX\xed?\xac\xffs\x98//\xc0\xbf\x00\x00\x00\x00\x00\x00\x00\x00\x00\x00\x00\x00\x00\x00\x00\x00'
p2023
tp2024
bsVsquare_packing_box1
p2025
g21
(g22
(I0
tp2026
g24
tp2027
Rp2028
(I1
(I4
tp2029
g218
I00
S'b\x99\xaa\x96\xe3"\x01@ J\xae\xaf-\x1b\x1b\xc0L7\x89A`\xe5\xd8?R\x85D\x82A\xb7\xf5?'
p2030
tp2031
bsVback_wall_2
p2032
g21
(g22
(I0
tp2033
g24
tp2034
Rp2035
(I1
(I4
tp2036
g218
I00
S'\xaeG\xe1z\x14.\x13@\x80\x14\xaeG\xe1z\xc4?xX\xa85\xcd\xbb\xf2?\x00\x00\x00\x00\x00\x00\x00\x00'
p2037
tp2038
bsVchair_083c
p2039
g21
(g22
(I0
tp2040
g24
tp2041
Rp2042
(I1
(I4
tp2043
g218
I00
S'\xa4p=\n\xd7\xa3\xe0?333333\xe3\xbf\x00\x00\x00\x00\x00\x00\x00\x00\x00\x00\x00\x00\x00\x00\x00\x00'
p2044
tp2045
bsVback_wall_1
p2046
g21
(g22
(I0
tp2047
g24
tp2048
Rp2049
(I1
(I4
tp2050
g218
I00
S'\xaeG\xe1z\x14.\x13@\x80\x14\xaeG\xe1z\xc4?\xcc\x7fH\xbf}\x1d\xed?\x00\x00\x00\x00\x00\x00\x00\x00'
p2051
tp2052
bsVbottom_wall
p2053
g21
(g22
(I0
tp2054
g24
tp2055
Rp2056
(I1
(I4
tp2057
g218
I00
S'\x00\x00\x00\x00\x00\x00\xfc?\x00\x00\x00\x00\x00\x00\x00\x00\x00\x00\x00\x00\x00\x00\x00\x00\x00\x00\x00\x00\x00\x00\x00\x00'
p2058
tp2059
bsVcup_905a
p2060
g21
(g22
(I0
tp2061
g24
tp2062
Rp2063
(I1
(I4
tp2064
g218
I00
S'\x00\x00\x00\x00\x00\x00\xf0?\x83\xc0\xca\xa1E\xb6\xdb?\x1b/\xdd$\x06\x81\xed?\x00\x00\x00\x00\x00\x00\x00\x00'
p2065
tp2066
bsVplate_496f
p2067
g21
(g22
(I0
tp2068
g24
tp2069
Rp2070
(I1
(I4
tp2071
g218
I00
S"q=\n\xd7\xa3p\xe5?\x9dhW!\xe5'\xdd\xbf\x1b/\xdd$\x06\x81\xed?\x00\x00\x00\x00\x00\x00\x00\x00"
p2072
tp2073
bsVtoaster
p2074
g21
(g22
(I0
tp2075
g24
tp2076
Rp2077
(I1
(I4
tp2078
g218
I00
S')\\\x8f\xc2\xf5(\xf4\xbf\xe0z\x14\xaeG\xe1\xf2\xbf\xb8\x1e\x85\xebQ\xb8\xee?\x89/`\x9b\xf8\x8a\xe4?'
p2079
tp2080
bsVc_obst1
p2081
g21
(g22
(I0
tp2082
g24
tp2083
Rp2084
(I1
(I4
tp2085
g218
I00
S"w\xf1$\xfbD\xa5\x12@\x00\x05J\x97hH\x8f\xbfe\xaa`TR'\xed?\xfc\xe4X\xb9\xc0\xa9\x14@"
p2086
tp2087
bsVrectangular_packing_box4
p2088
g21
(g22
(I0
tp2089
g24
tp2090
Rp2091
(I1
(I4
tp2092
g218
I00
S'\x88\xbb\xb6Z\xd9\xe2\x02@ \xe3@\x0e\xd2y\x1d\xc0L7\x89A`\xe5\xd8?\xc5\x88N\xa2\x9aI\xf5?'
p2093
tp2094
bsVmicrowave
p2095
g21
(g22
(I0
tp2096
g24
tp2097
Rp2098
(I1
(I4
tp2099
g218
I00
S'\x9a\x99\x99\x99\x99\x99\xf1\xbf\x00\x00\x00\x00\x00\x00\x00@7\x89A`\xe5\xd0\xee?\x00\x00\x00\x00\x00\x00\x00\x00'
p2100
tp2101
bsVc_obst7
p2102
g21
(g22
(I0
tp2103
g24
tp2104
Rp2105
(I1
(I4
tp2106
g218
I00
S"\xb7\x93\xf6\x81\xd2\x1d\x12@J\x98\xf4\xe6\xa5\xab\xb8?e\xaa`TR'\xed?`\xf2\x8b\xe4\xe3\x14\xf9?"
p2107
tp2108
bsVc_obst6
p2109
g21
(g22
(I0
tp2110
g24
tp2111
Rp2112
(I1
(I4
tp2113
g218
I00
S"1\x1e\xa6&\xf8\x18\x12@`\xc8_n\xb4h\xd5?e\xaa`TR'\xed?\xe6\xb9\xa7t\xdf\xb2\xed?"
p2114
tp2115
bsVcup_b6af
p2116
g21
(g22
(I0
tp2117
g24
tp2118
Rp2119
(I1
(I4
tp2120
g218
I00
S'R\xb8\x1e\x85\xebQ\xe8?\x9a\x99\x99\x99\x99\x99\xe1?\x1b/\xdd$\x06\x81\xed?\x00\x00\x00\x00\x00\x00\x00\x00'
p2121
tp2122
bsVc_obst4
p2123
g21
(g22
(I0
tp2124
g24
tp2125
Rp2126
(I1
(I4
tp2127
g218
I00
S"\xb4\x1a\xb9\x05V+\x12@P\xc4\x07\x80\x93\xf6\xc7\xbfe\xaa`TR'\xed?\xdf\xd6\x90\xb5\xbe\xc4\xf0?"
p2128
tp2129
bsVrectangular_packing_box2
p2130
g21
(g22
(I0
tp2131
g24
tp2132
Rp2133
(I1
(I4
tp2134
g218
I00
S'\xe89;_2^\xca\xbf\xe8\xfa\xef+B\x82\x1e\xc0L7\x89A`\xe5\xd8?\x0ct\x8e\xd7r|\x15@'
p2135
tp2136
bsVplate_fa76
p2137
g21
(g22
(I0
tp2138
g24
tp2139
Rp2140
(I1
(I4
tp2141
g218
I00
S'=\n\xd7\xa3p=\xf2?\x00\x00\x00\x00\x00\x00\x00\x00\x1b/\xdd$\x06\x81\xed?\x00\x00\x00\x00\x00\x00\x00\x00'
p2142
tp2143
bsVfloorwalls
p2144
g21
(g22
(I0
tp2145
g24
tp2146
Rp2147
(I1
(I4
tp2148
g218
I00
S'\xc7\xcc\xcc\xcc\xcc\xcc\xfc?\x00\x00\x00\x00\x00\x00\x18\xc0H\xe1z\x14\xaeG\xc1?\x16-DT\xfb!\xf9?'
p2149
tp2150
bsVpin_c671
p2151
g21
(g22
(I0
tp2152
g24
tp2153
Rp2154
(I1
(I4
tp2155
g218
I00
S'\xc3\xf5(\\\x8f\xc2\xf1\xbf}?5^\xbaI\x02@\xb8\x1e\x85\xebQ\xb8\xfa?\x00\x00\x00\x00\x00\x00\x00\x00'
p2156
tp2157
bsVc_obst3
p2158
g21
(g22
(I0
tp2159
g24
tp2160
Rp2161
(I1
(I4
tp2162
g218
I00
S"\x87\x9a\xce2\x93m\x12@\x14\xdaN\xfaaM\xae?e\xaa`TR'\xed?(o\x81:\x89s\xc3?"
p2163
tp2164
bsVchair_2e39
p2165
g21
(g22
(I0
tp2166
g24
tp2167
Rp2168
(I1
(I4
tp2169
g218
I00
S'hfffff\xee?cfffff\xf2\xbf\x00\x00\x00\x00\x00\x00\x00\x00\x07M\xe8QQF\xf3?'
p2170
tp2171
bsVentrance_left
p2172
g21
(g22
(I0
tp2173
g24
tp2174
Rp2175
(I1
(I4
tp2176
g218
I00
S'\x98\x99\x99\x99\x99\x99\xe9\xbfH\xe1z\x14\xaeG\t\xc0\x9c\xc4 \xb0rh\xc1?\x00\x00\x00\x00\x00\x00\x00\x00'
p2177
tp2178
bsVtop_wall_1
p2179
g21
(g22
(I0
tp2180
g24
tp2181
Rp2182
(I1
(I4
tp2183
g218
I00
S'H\xe1z\x14\xaeG\x12@\x80\x14\xaeG\xe1z\xc4?xX\xa85\xcd\xbb\xf2?\x00\x00\x00\x00\x00\x00\x00\x00'
p2184
tp2185
bsVrectangular_packing_box3
p2186
g21
(g22
(I0
tp2187
g24
tp2188
Rp2189
(I1
(I4
tp2190
g218
I00
S'\xc8\xdf\x87\xe7B\x8d\xee?\x94\x90\xb63\x1a)\x1e\xc0L7\x89A`\xe5\xd8?\xbe\x86[\xaafc\t@'
p2191
tp2192
bsVshaker
p2193
g21
(g22
(I0
tp2194
g24
tp2195
Rp2196
(I1
(I4
tp2197
g218
I00
S'\n\xd7\xa3p=\n\x01@\x14\xaeG\xe1z\x14\x02@\\\x8f\xc2\xf5(\\\xef?\x00\x00\x00\x00\x00\x00\x00\x00'
p2198
tp2199
bsVc_obst9
p2200
g21
(g22
(I0
tp2201
g24
tp2202
Rp2203
(I1
(I4
tp2204
g218
I00
S"\xbdbI\x8f\xab\xf9\x11@\x00\x98\xb3\xd4\x95!\x8b?e\xaa`TR'\xed?O:\x8c\x8eH\xa6\xfd?"
p2205
tp2206
bsVplate_835a
p2207
g21
(g22
(I0
tp2208
g24
tp2209
Rp2210
(I1
(I4
tp2211
g218
I00
S'\xf6(\\\x8f\xc2\xf5\xf0?\\\x8f\xc2\xf5(\\\xe7\xbf\x1b/\xdd$\x06\x81\xed?\x00\x00\x00\x00\x00\x00\x00\x00'
p2212
tp2213
bsVcup_58a2
p2214
g21
(g22
(I0
tp2215
g24
tp2216
Rp2217
(I1
(I4
tp2218
g218
I00
S'\x85\xebQ\xb8\x1e\x85\xe3?\xcd\xcc\xcc\xcc\xcc\xcc\xdc?\x1b/\xdd$\x06\x81\xed?\x00\x00\x00\x00\x00\x00\x00\x00'
p2219
tp2220
bsVleft_wall_1
p2221
g21
(g22
(I0
tp2222
g24
tp2223
Rp2224
(I1
(I4
tp2225
g218
I00
S'H\xe1z\x14\xaeG\x12@S\xb8\x1e\x85\xebQ\xe4?\xcc\x7fH\xbf}\x1d\xed?\x00\x00\x00\x00\x00\x00\x00\x00'
p2226
tp2227
bsVc_obst2
p2228
g21
(g22
(I0
tp2229
g24
tp2230
Rp2231
(I1
(I4
tp2232
g218
I00
S"\xb9V)Zw\xf2\x11@\xd0D{\xdb\xf5c\xb1\xbfe\xaa`TR'\xed?I\xb4\\~\x06\x0e\xf4?"
p2233
tp2234
bsVsquare_packing_box4
p2235
g21
(g22
(I0
tp2236
g24
tp2237
Rp2238
(I1
(I4
tp2239
g218
I00
S'\x96\x05\x05\xb0\xa5\x85\x0f@{\xb7"\xb3\xb6\xcd\x1a\xc0L7\x89A`\xe5\xd8?5\xd1B5\x13\xf7\x15@'
p2240
tp2241
bsVrectangular_packing_box1
p2242
g21
(g22
(I0
tp2243
g24
tp2244
Rp2245
(I1
(I4
tp2246
g218
I00
S'\x00\xa3\xdf\x82Xk\x9a?\xcf\xb2\x1aL\xac\xcd\x17\xc0L7\x89A`\xe5\xd8?u)\xd01d#\x00@'
p2247
tp2248
bsVpin_371e
p2249
g21
(g22
(I0
tp2250
g24
tp2251
Rp2252
(I1
(I4
tp2253
g218
I00
S'333333\xf3\xbfffffff\xf6?\xb8\x1e\x85\xebQ\xb8\xee?\x00\x00\x00\x00\x00\x00\x00\x00'
p2254
tp2255
bsVfridge
p2256
g21
(g22
(I0
tp2257
g24
tp2258
Rp2259
(I1
(I4
tp2260
g218
I00
S'\xd7\xa3p=\n\xd7\xeb\xbf\x00\x00\x00\x00\x00\x00\x00\xc0\xcd\xcc\xcc\xcc\xcc\xcc\xf8?\x00\x00\x00\x00\x00\x00\x00\x00'
p2261
tp2262
bsVcup_d441
p2263
g21
(g22
(I0
tp2264
g24
tp2265
Rp2266
(I1
(I4
tp2267
g218
I00
S'\n\xd7\xa3p=\n\xef?\x8f\xc2\xf5(\\\x8f\xe2?\x1b/\xdd$\x06\x81\xed?\x00\x00\x00\x00\x00\x00\x00\x00'
p2268
tp2269
bsVshelf2
p2270
g21
(g22
(I0
tp2271
g24
tp2272
Rp2273
(I1
(I4
tp2274
g218
I00
S'\x00\x00\x00\x00\x00\x00\x0e@\xaeG\xe1z\x14\xae\x07@\x9c\xc4 \xb0rh\xc1?\xd2!3\x7f|\xd9\x12@'
p2275
tp2276
bsVtop_wall_2
p2277
g21
(g22
(I0
tp2278
g24
tp2279
Rp2280
(I1
(I4
tp2281
g218
I00
S'H\xe1z\x14\xaeG\x12@\x80\x14\xaeG\xe1z\xc4?\x16HP\xfc\x18\xf3\xfd?\x00\x00\x00\x00\x00\x00\x00\x00'
p2282
tp2283
bsVc_obst0
p2284
g21
(g22
(I0
tp2285
g24
tp2286
Rp2287
(I1
(I4
tp2288
g218
I00
S"\xce\x8dFbl\xed\x11@\xc43\x8acG\x81\xe0?e\xaa`TR'\xed?\x0b\xdc^L\x84*\x0f@"
p2289
tp2290
bsVshelf1
p2291
g21
(g22
(I0
tp2292
g24
tp2293
Rp2294
(I1
(I4
tp2295
g218
I00
S'\x00\x00\x00\x00\x00\x00\x13@\xaeG\xe1z\x14\xae\x07@\x9c\xc4 \xb0rh\xc1?\xd2!3\x7f|\xd9\x12@'
p2296
tp2297
bsVsink
p2298
g21
(g22
(I0
tp2299
g24
tp2300
Rp2301
(I1
(I4
tp2302
g218
I00
S'ffffff\xd6?333333\x01@\x9a\x99\x99\x99\x99\x99\xb9\xbf\x00\x00\x00\x00\x00\x00\x00\x00'
p2303
tp2304
bsVpr2
p2305
g21
(g22
(I0
tp2306
g24
tp2307
Rp2308
(I1
(I4
tp2309
g218
I00
S'\xf1:G\xc3?\xe7\n@1+\xf9\x8a\xbc\x05\x1d\xc0\x9a_\x94\xa0\xbf\xd0\xc1?\x8c\xfa\n\xc4\xe0|\x07@'
p2310
tp2311
bsVchair_12d0
p2312
g21
(g22
(I0
tp2313
g24
tp2314
Rp2315
(I1
(I4
tp2316
g218
I00
S'\\\xd2\x18\xad\xa3\xaa\xdb?Of\x83L2r\xc6?\x00\x00\x00\x00\x00\x00\x00\x00\xf8\x81\r\x14M\xa6\x17@'
p2317
tp2318
bsVright_wall_2
p2319
g21
(g22
(I0
tp2320
g24
tp2321
Rp2322
(I1
(I4
tp2323
g218
I00
S'H\xe1z\x14\xaeG\x12@&\\\x8f\xc2\xf5(\xd4\xbfxX\xa85\xcd\xbb\xf2?\x00\x00\x00\x00\x00\x00\x00\x00'
p2324
tp2325
bsVknife_block
p2326
g21
(g22
(I0
tp2327
g24
tp2328
Rp2329
(I1
(I4
tp2330
g218
I00
S'R\xb8\x1e\x85\xebQ\xe0\xbfffffff\x02@`\xe5\xd0"\xdb\xf9\xee?\x00\x00\x00\x00\x00\x00\x00\x00'
p2331
tp2332
bsVleft_wall_2
p2333
g21
(g22
(I0
tp2334
g24
tp2335
Rp2336
(I1
(I4
tp2337
g218
I00
S'H\xe1z\x14\xaeG\x12@S\xb8\x1e\x85\xebQ\xe4?xX\xa85\xcd\xbb\xf2?\x00\x00\x00\x00\x00\x00\x00\x00'
p2338
tp2339
bsVleft_wall
p2340
g21
(g22
(I0
tp2341
g24
tp2342
Rp2343
(I1
(I4
tp2344
g218
I00
S'\x9a\x99\x99\x99\x99\x99\x07@H\xe1z\x14\xaeG\xff?\x9c\xc4 \xb0rh\xc1?\x00\x00\x00\x00\x00\x00\x00\x00'
p2345
tp2346
bsVkitchen
p2347
g21
(g22
(I0
tp2348
g24
tp2349
Rp2350
(I1
(I4
tp2351
g218
I00
S'\x00\x00\x00\x00\x00\x00\x00\x00\x00\x00\x00\x00\x00\x00\x00\x00\x00\x00\x00\x00\x00\x00\x00\x00\x00\x00\x00\x00\x00\x00\x00\x00'
p2352
tp2353
bsVtable2
p2354
g21
(g22
(I0
tp2355
g24
tp2356
Rp2357
(I1
(I4
tp2358
g218
I00
S'\x00\x00\x00\x00\x00\x00\x13@\x80\x14\xaeG\xe1z\xc4?S\x96!\x8euq\xec?\xd2!3\x7f|\xd9\x12@'
p2359
tp2360
bsVc_obst8
p2361
g21
(g22
(I0
tp2362
g24
tp2363
Rp2364
(I1
(I4
tp2365
g218
I00
S"\x87\xa9g\xb2\xfeT\x12@\xfcg\x9c4\xdb$\xdb?e\xaa`TR'\xed?yzZ\x8d\x8d\xd3\x08@"
p2366
tp2367
bsVplate_b4e7
p2368
g21
(g22
(I0
tp2369
g24
tp2370
Rp2371
(I1
(I4
tp2372
g218
I00
S'\x14\xaeG\xe1z\x14\xf2\xbf\x14\xaeG\xe1z\x14\x00@=\n\xd7\xa3p=\xf2?\x00\x00\x00\x00\x00\x00\x00\x00'
p2373
tp2374
bsVcooker
p2375
g21
(g22
(I0
tp2376
g24
tp2377
Rp2378
(I1
(I4
tp2379
g218
I00
S'\xaeG\xe1z\x14\xae\xff?\x85\xebQ\xb8\x1e\x85\xfb?\x00\x00\x00\x00\x00\x00\xe8?\x00\x00\x00\x00\x00\x00\x00\x00'
p2380
tp2381
bsVpin_a091
p2382
g21
(g22
(I0
tp2383
g24
tp2384
Rp2385
(I1
(I4
tp2386
g218
I00
S'\xdb\xf9~j\xbct\xf7\xbf)\\\x8f\xc2\xf5(\x02@\xb8\x1e\x85\xebQ\xb8\xfa?\x00\x00\x00\x00\x00\x00\x00\x00'
p2387
tp2388
bsVside_wall_2
p2389
g21
(g22
(I0
tp2390
g24
tp2391
Rp2392
(I1
(I4
tp2393
g218
I00
S'\xfa\xff\xff\xff\xff\xff\x14@\x00\x00\x00\x00\x00\x00\x00\x00\x9c\xc4 \xb0rh\xc1?\x18-DT\xfb!\xf9?'
p2394
tp2395
bsVside_wall_3
p2396
g21
(g22
(I0
tp2397
g24
tp2398
Rp2399
(I1
(I4
tp2400
g218
I00
S'\x00\x00\x00\x00\x00\x00\xfc?H\xe1z\x14\xaeG\t@\x9c\xc4 \xb0rh\xc1?\x00\x00\x00\x00\x00\x00\x00\x00'
p2401
tp2402
bsVmixer
p2403
g21
(g22
(I0
tp2404
g24
tp2405
Rp2406
(I1
(I4
tp2407
g218
I00
S'\n\xd7\xa3p=\n\xfb?ffffff\x02@d;\xdfO\x8d\x97\xee?\x00\x00\x00\x00\x00\x00\x00\x00'
p2408
tp2409
bsVside_wall_1
p2410
g21
(g22
(I0
tp2411
g24
tp2412
Rp2413
(I1
(I4
tp2414
g218
I00
S'\xf4\xff\xff\xff\xff\xff\xfb\xbf\x00\x00\x00\x00\x00\x00\x00\x00\x9c\xc4 \xb0rh\xc1?\x18-DT\xfb!\xf9?'
p2415
tp2416
bsVbottom_wall_1
p2417
g21
(g22
(I0
tp2418
g24
tp2419
Rp2420
(I1
(I4
tp2421
g218
I00
S'H\xe1z\x14\xaeG\x12@\x80\x14\xaeG\xe1z\xc4?\xcc\x7fH\xbf}\x1d\xed?\x00\x00\x00\x00\x00\x00\x00\x00'
p2422
tp2423
bsVcan
p2424
g21
(g22
(I0
tp2425
g24
tp2426
Rp2427
(I1
(I4
tp2428
g218
I00
S'\x00\x00\x00\x00\x00\x00\xf4\xbfH\xe1z\x14\xaeG\xe1\xbf\n\xd7\xa3p=\n\xef?\x00\x00\x00\x00\x00\x00\x00\x00'
p2429
tp2430
bsVright_wall
p2431
g21
(g22
(I0
tp2432
g24
tp2433
Rp2434
(I1
(I4
tp2435
g218
I00
S'\x9a\x99\x99\x99\x99\x99\x07@H\xe1z\x14\xaeG\xff\xbf\x9c\xc4 \xb0rh\xc1?\x00\x00\x00\x00\x00\x00\x00\x00'
p2436
tp2437
bsVcoffe_machine
p2438
g21
(g22
(I0
tp2439
g24
tp2440
Rp2441
(I1
(I4
tp2442
g218
I00
S'\\\x8f\xc2\xf5(\\\xf5\xbf\xb8\x1e\x85\xebQ\xb8\xee?\n\xd7\xa3p=\n\xef?\x00\x00\x00\x00\x00\x00\x00\x00'
p2443
tp2444
bsVcomputer_chair
p2445
g21
(g22
(I0
tp2446
g24
tp2447
Rp2448
(I1
(I4
tp2449
g218
I00
S'\xcd\xcc\xcc\xcc\xcc\xcc\x10@\x00\x00\x00\x00\x00\x00\xf8\xbf\xa00\xb6\x10\xe4\xa9\x95\xbf\x00\x00\x00\x00\x00\x00\x00\x00'
p2450
tp2451
bssS'robot_dof_values'
p2452
g21
(g22
(I0
tp2453
g24
tp2454
Rp2455
(I1
(I39
tp2456
g218
I00
S'\x00\x00\x00\x00\x00\x00\x00\x00\x00\x00\x00\x00\x00\x00\x00\x00\x00\x00\x00\x00\x00\x00\x00\x00\x00\x00\x00\x00\x00\x00\x00\x00\x00\x00\x00\x00\x00\x00\x00\x00\x00\x00\x00\x00\x00\x00\x00\x00\x00\x00\x00\x00\x00\x00\x00\x00\x00\x00\x00\x00\x00\x00\x00\x00\x00\x00\x00\x00\x00\x00\x00\x00\x00\x00\x00\x00\x00\x00\x00\x00\x00\x00\x00\x00\x00\x00\x00\x00\x00\x00\x00\x00\x00\x00\x00\x00@d;\xdfO\x8d\x87?\x00\x00\x00\x00\x00\x00\x00\x00\x00\x00\x00\x00\x00\x00\x00\x00\x00\x00\x00\x00\x00\x00\x00\x00\xee\xed\t\xf1\xcc\xa4\xf4?\x00\x00\x00\x00\x00\x00\xb0<N"\xd0^p\xf8\x00\xc0\x00\x00\x00\x00\x00\x00\x00\x00\x9b\x03\r.\x04V\xe6\xbf\x00\x00\x00\x00\x00\x00\x00\x00\x00\x00\x00\x00\x00\x00\x00\x00\x00\x00\x00\x00\x00\x00\xcf\xbc\xd9l\xdf\xccv\xf8\xb0\xbc\x00\x00\x00\x00\x00\x00\xf4\xbc\x00\x00\x00\x00\x00\x00\x00\x00\x00\x00\x00\x00\x00\x00\x00\x00\xec\xed\t\xf1\xcc\xa4\xf4?\x00\x00\x00\x00\x00\x00\xc0\xbcN"\xd0^p\xf8\x00\xc0\x00\x00\x00\x00\x00\x00\x00\x00\x9d\x03\r.\x04V\xe6\xbf\x00\x00\x00\x00\x00\x00\x00\x00\xcc9\xe3\xc17\x89\xe1?\x00\x00\x00\x00\x00\x00\xbe\xbc\xcc;\x7ff\x9e\xa0\xa6<\x00\x00\x00\x00\x00\x00\x00\x00\x00\x00\x00\x00\x00\x00\x00\x00'
p2457
tp2458
bsS'is_holding'
p2459
I00
sbsS'holding_collides'
p2460
NsS'parent_ternary_predicates'
p2461
(dp2462
sS'cached_place_paths'
p2463
(dp2464
(g736
g1146
tp2465
(lp2466
g21
(g22
(I0
tp2467
g24
tp2468
Rp2469
(I1
(I3
tp2470
g218
I00
S'\x88u\x0e\xab\x9dK\xe8?\x8b\x9a\xdc\xb2\x02\xf7\x16\xc0\xde)\x11@\x9c\xe5\x08@'
p2471
tp2472
bas(g510
g209
tp2473
(lp2474
g21
(g22
(I0
tp2475
g24
tp2476
Rp2477
(I1
(I3
tp2478
g218
I00
S'\xaa\xf3\x98\xc4\xd5\xc2\x0b@0^\xbc\xbbk\xfd\x18\xc0\xbc\x05V\x8bOy\x15@'
p2479
tp2480
bag21
(g22
(I0
tp2481
g24
tp2482
Rp2483
(I1
(I3
tp2484
g229
I00
S'vf\xb4P\xa4\x9a\t@\xce\xae\xeb\xa8B\x9b\x16\xc0\xbc\xe1\x13\xd5X\xf6\x17@'
p2485
tp2486
bag21
(g22
(I0
tp2487
g24
tp2488
Rp2489
(I1
(I3
tp2490
g229
I00
S'\x7f\xf7\x8e\x1f\xfbq\x06@\x05\xa9\xa4M\x80 \x16\xc0\x85\x00\n\x0c\x80\xee\n\xc0'
p2491
tp2492
bag21
(g22
(I0
tp2493
g24
tp2494
Rp2495
(I1
(I3
tp2496
g229
I00
S'_\x1fd\x97D>\x00@W\xf2\x9b\xb2\x92\xd8\x15\xc0\x99\xbc\xd43\xf6\xfa\x08\xc0'
p2497
tp2498
bag21
(g22
(I0
tp2499
g24
tp2500
Rp2501
(I1
(I3
tp2502
g229
I00
S'R\x12);\xaf\xa5\xf7?\xf3\xf9\xeb\x07c\xef\x15\xc0\xf0V^\xd6\x94\x96\x05\xc0'
p2503
tp2504
bag21
(g22
(I0
tp2505
g24
tp2506
Rp2507
(I1
(I3
tp2508
g229
I00
S'\xd0\xcb\x13\x8f\xaa\x9d\xed?\x90\x01<]3\x06\x16\xc0F\xf1\xe7x32\x02\xc0'
p2509
tp2510
bag21
(g22
(I0
tp2511
g24
tp2512
Rp2513
(I1
(I3
tp2514
g229
I00
S'l[\xc4\x16<\xe6\xe9?\xa6\xa0\x90\x84X\x9f\x13\xc0\xc2\xd74Q\x00\xaf\xff\xbf'
p2515
tp2516
bag21
(g22
(I0
tp2517
g24
tp2518
Rp2519
(I1
(I3
tp2520
g229
I00
S"\xaeJ\xbd\x1936\xec?\x04\x13\xd4'\x9f\x88\x10\xc0\x805qo\xb6\xe6\xff\xbf"
p2521
tp2522
bag21
(g22
(I0
tp2523
g24
tp2524
Rp2525
(I1
(I3
tp2526
g229
I00
S'\xf09\xb6\x1c*\x86\xee?\xc4\n/\x96\xcb\xe3\n\xc0\xa0\xc9\xd6F6\x0f\x00\xc0'
p2527
tp2528
bag21
(g22
(I0
tp2529
g24
tp2530
Rp2531
(I1
(I3
tp2532
g229
I00
S'3\xe9\xaf\x05T\x89\xe7?+~\xcb\xd3\x15\xc7\x04\xc0x6(d5\xed\x07@'
p2533
tp2534
bas(g12
g209
tp2535
g211
s(g872
g1146
tp2536
(lp2537
g21
(g22
(I0
tp2538
g24
tp2539
Rp2540
(I1
(I3
tp2541
g218
I00
S'\xf4\xa46e\xa9\x04\xfe?P\xad\x1c\x98Q\x99\x19\xc0l\xd3\xa8e\xb26\xc3?'
p2542
tp2543
bas(g12
g1146
tp2544
(lp2545
g21
(g22
(I0
tp2546
g24
tp2547
Rp2548
(I1
(I3
tp2549
g218
I00
S'\x1cI\xb8a\xee\xa6\x08@\x00\xd9a\xb8C\x84\x1e\xc0 \xe3@M\\\xc8\x07@'
p2550
tp2551
bas(g872
g209
tp2552
g443
s(g798
g1146
tp2553
(lp2554
g21
(g22
(I0
tp2555
g24
tp2556
Rp2557
(I1
(I3
tp2558
g218
I00
S'k\x8d\xeb;(\x1b\xfd?N\x16\xf3\xd2\xc9V\x1a\xc0\x0eK\x99o\x88\xee\xe4?'
p2559
tp2560
bas(g798
g209
tp2561
g392
s(g57
g209
tp2562
(lp2563
g21
(g22
(I0
tp2564
g24
tp2565
Rp2566
(I1
(I3
tp2567
g218
I00
S'(\xa8\xe8\x9f\x88~\xf6?\xa1\xfb\xf36\xf4\x18\x1b\xc0\x93\xc6\x95\xb43\x9e\x18@'
p2568
tp2569
bag21
(g22
(I0
tp2570
g24
tp2571
Rp2572
(I1
(I3
tp2573
g229
I00
S'3\x82\x8a\x8fh\xb2\xf8?\xecMw\xff=$\x19\xc0\x10\x03\x08*\x90Q\x89?'
p2574
tp2575
bag21
(g22
(I0
tp2576
g24
tp2577
Rp2578
(I1
(I3
tp2579
g229
I00
S'\x12\xfe\xe1\x95\xb8\x19\xf8?\x8c#.~\xd7\xc6\x16\xc0\xfe\xd3A\xf0\xcat\xc0\xbf'
p2580
tp2581
bag21
(g22
(I0
tp2582
g24
tp2583
Rp2584
(I1
(I3
tp2585
g229
I00
S'\xe4\x9e\xb7\xac\xe0!\xeb?\x8a\x83\x10\xb1\xa2\xad\x15\xc0\x9aS\xfbY\xaf\x8f\xd2\xbf'
p2586
tp2587
bag21
(g22
(I0
tp2588
g24
tp2589
Rp2590
(I1
(I3
tp2591
g229
I00
S"\xb2&6mg)\xe8?\x99\xe0G'\x16\xe0\x13\xc0\xc8oL\xf5\x17p\xe6\xbf"
p2592
tp2593
bag21
(g22
(I0
tp2594
g24
tp2595
Rp2596
(I1
(I3
tp2597
g229
I00
S'`\xc8Aw-\x81\xeb?/\xc3\xe6O\x04\xca\x10\xc0\x8a\xb7K)\x91{\xe4\xbf'
p2598
tp2599
bag21
(g22
(I0
tp2600
g24
tp2601
Rp2602
(I1
(I3
tp2603
g229
I00
S'\xe1\xc6\xc7\xa7\x12X\xe7?\x98\x99\xb0\x9a\xfb\xdb\x0b\xc0R\t\x1b)\xeae\xe0\xbf'
p2604
tp2605
bag21
(g22
(I0
tp2606
g24
tp2607
Rp2608
(I1
(I3
tp2609
g229
I00
S'p\xf1\xbdc^\x84\xf1?"\x88LL\xf9D\x06\xc0~w\r\xe9m\x0f\x19@'
p2610
tp2611
bas(g656
g209
tp2612
g341
s(g656
g1146
tp2613
(lp2614
g21
(g22
(I0
tp2615
g24
tp2616
Rp2617
(I1
(I3
tp2618
g218
I00
S"\x9f\xdc%t\xca\xaa\xc2?'\x93]\x15D\xd0\x1d\xc0\xb1\xe2\xc4\xfe&}\xc8?"
p2619
tp2620
bas(g510
g1146
tp2621
(lp2622
g21
(g22
(I0
tp2623
g24
tp2624
Rp2625
(I1
(I3
tp2626
g218
I00
S'\xa5\xf3\x98\xc4\xd5\xc2\x0b@/^\xbc\xbbk\xfd\x18\xc0\xbb\x05V\x8bOy\x15@'
p2627
tp2628
bas(g57
g1146
tp2629
(lp2630
g21
(g22
(I0
tp2631
g24
tp2632
Rp2633
(I1
(I3
tp2634
g218
I00
S'%\xa8\xe8\x9f\x88~\xf6?\xa1\xfb\xf36\xf4\x18\x1b\xc0\x94\xc6\x95\xb43\x9e\x18@'
p2635
tp2636
bas(g566
g1146
tp2637
(lp2638
g21
(g22
(I0
tp2639
g24
tp2640
Rp2641
(I1
(I3
tp2642
g218
I00
S'\xe8$\x02O\xd3J\xdd?\x0b\r\xce\x9c\xf99\x1d\xc0B\x80?\x9d^Q\r@'
p2643
tp2644
bas(g566
g209
tp2645
g290
s(g736
g209
tp2646
(lp2647
g21
(g22
(I0
tp2648
g24
tp2649
Rp2650
(I1
(I3
tp2651
g218
I00
S'\x80u\x0e\xab\x9dK\xe8?\x8d\x9a\xdc\xb2\x02\xf7\x16\xc0\xde)\x11@\x9c\xe5\x08@'
p2652
tp2653
bag21
(g22
(I0
tp2654
g24
tp2655
Rp2656
(I1
(I3
tp2657
g229
I00
S'm\xd5h\x072\x03\xea?\xdf\xe5\xe82\xd3\x17\x14\xc0\x08\x9e\xe1\xfbO\x94\x08@'
p2658
tp2659
bag21
(g22
(I0
tp2660
g24
tp2661
Rp2662
(I1
(I3
tp2663
g229
I00
S'\xc6\x05\xbdtg\xd9\xe2?F\xdf\x9d@\\\xf3\x11\xc0\x1a\xc4.\xbb\xcc\x12\x02@'
p2664
tp2665
bag21
(g22
(I0
tp2666
g24
tp2667
Rp2668
(I1
(I3
tp2669
g229
I00
S'3z\xed\x8eN)\xe4?\x0c\x96\xd4\xa2\x0e\xd0\r\xc0\xbd%\xf5{\xe9\xf9\x03@'
p2670
tp2671
bag21
(g22
(I0
tp2672
g24
tp2673
Rp2674
(I1
(I3
tp2675
g229
I00
S'\xaf0\xe9h\xba~\xee?k\xbb\xd8\xd4\xd0g\t\xc09\x9ey\xed\xb06\x06@'
p2676
tp2677
bag21
(g22
(I0
tp2678
g24
tp2679
Rp2680
(I1
(I3
tp2681
g229
I00
S'\xf4\xfdJ\x1a(#\xec?H"\x9cD\x1aE\x05\xc0.\xa9\x0b\x87\xf8\xe1\x02@'
p2682
tp2683
bassS'parent_binary_predicates'
p2684
(dp2685
sS'nodes'
p2686
(dp2687
g1149
(lp2688
I0
aI0
aI0
aI0
aI0
aI0
aI00
aI01
aI00
aI01
aI00
asg1146
(lp2689
I0
aI0
aI0
aI0
aI0
aI0
aI00
aI01
aI00
aI01
aI00
asg209
(lp2690
I0
aI0
aI0
aI0
aI0
aI0
aI00
aI01
aI01
aI01
aI00
asg208
(lp2691
I0
aI0
aI0
ag1858
(g218
S'r\xbb\xb6Z\xd9\xe2\x02@'
p2692
tp2693
Rp2694
ag1858
(g218
S'\xf3\xe2@\x0e\xd2y\x1d\xc0'
p2695
tp2696
Rp2697
ag1858
(g218
S'\xc5\x88N\xa2\x9aI\xf5?'
p2698
tp2699
Rp2700
aI01
aI00
aI00
aI01
aI00
asg288
(lp2701
I0
aI0
aI0
ag1858
(g218
S'06;_2^\xca\xbf'
p2702
tp2703
Rp2704
ag1858
(g218
S'\xde\xfa\xef+B\x82\x1e\xc0'
p2705
tp2706
Rp2707
ag1858
(g218
S'\x0ct\x8e\xd7r|\x15@'
p2708
tp2709
Rp2710
aI01
aI00
aI00
aI00
aI00
asg339
(lp2711
I0
aI0
aI0
ag1858
(g218
S'\xf5\xdf\x87\xe7B\x8d\xee?'
p2712
tp2713
Rp2714
ag1858
(g218
S'*\x91\xb63\x1a)\x1e\xc0'
p2715
tp2716
Rp2717
ag1858
(g218
S'\xbe\x86[\xaafc\t@'
p2718
tp2719
Rp2720
aI01
aI00
aI00
aI00
aI00
asg1114
(lp2721
I0
aI0
aI0
ag1858
(g218
S'\x9a9\xe0\x82Xk\x9a?'
p2722
tp2723
Rp2724
ag1858
(g218
S'\xcc\xb0\x1aL\xac\xcd\x17\xc0'
p2725
tp2726
Rp2727
ag1858
(g218
S't)\xd01d#\x00@'
p2728
tp2729
Rp2730
aI01
aI00
aI00
aI00
aI00
asg390
(lp2731
I0
aI0
aI0
ag1858
(g218
S'\x9ei\x15\xda\x19\xc5\x02@'
p2732
tp2733
Rp2734
ag1858
(g218
S'\xa9k-G\xc0A\x18\xc0'
p2735
tp2736
Rp2737
ag1858
(g218
S'gz\xaa\xf7k]\x0f@'
p2738
tp2739
Rp2740
aI01
aI00
aI00
aI00
aI00
asg441
(lp2741
I0
aI0
aI0
ag1858
(g218
S'\xa8\xb7iq2\xb0\x05@'
p2742
tp2743
Rp2744
ag1858
(g218
S'6\xf3V\xb0\xeb\xbe\x1a\xc0'
p2745
tp2746
Rp2747
ag1858
(g218
S'Y=\xd6\xc0\xd1\xb5\x07@'
p2748
tp2749
Rp2750
aI01
aI00
aI00
aI00
aI00
asg1105
(lp2751
I0
aI0
aI0
ag1858
(g218
S'P\x99\xaa\x96\xe3"\x01@'
p2752
tp2753
Rp2754
ag1858
(g218
S'\xf7I\xae\xaf-\x1b\x1b\xc0'
p2755
tp2756
Rp2757
ag1858
(g218
S'R\x85D\x82A\xb7\xf5?'
p2758
tp2759
Rp2760
aI01
aI00
aI01
aI00
aI00
asg1108
(lp2761
I0
aI0
aI0
ag1858
(g218
S'r\x05\x05\xb0\xa5\x85\x0f@'
p2762
tp2763
Rp2764
ag1858
(g218
S'\x8e\xb7"\xb3\xb6\xcd\x1a\xc0'
p2765
tp2766
Rp2767
ag1858
(g218
S'5\xd1B5\x13\xf7\x15@'
p2768
tp2769
Rp2770
aI01
aI00
aI00
aI01
aI00
assS'mc_place_path'
p2771
(dp2772
sS'parent_state'
p2773
NsS'goal_entities'
p2774
(lp2775
S'square_packing_box1'
p2776
ag209
asS'binary_edges'
p2777
(dp2778
(g390
g1108
tp2779
(lp2780
I00
aI00
aI00
as(g390
g208
tp2781
(lp2782
I00
aI00
aI00
as(g339
g441
tp2783
(lp2784
I00
aI00
aI00
as(g339
g339
tp2785
(lp2786
I00
aI00
aI00
as(g288
g441
tp2787
(lp2788
I00
aI00
aI00
as(g288
g339
tp2789
(lp2790
I00
aI00
aI00
as(g1108
g288
tp2791
(lp2792
I00
aI00
aI00
as(g390
g1105
tp2793
(lp2794
I00
aI00
aI00
as(g1114
g339
tp2795
(lp2796
I00
aI00
aI00
as(g208
g208
tp2797
(lp2798
I00
aI00
aI00
as(g288
g1146
tp2799
(lp2800
g1858
(g28
(S'b1'
p2801
I0
I1
tp2802
Rp2803
(I3
S'|'
p2804
NNNI-1
I-1
I0
tp2805
bS'\x01'
p2806
tp2807
Rp2808
aI00
aI01
as(g1149
g1146
tp2809
(lp2810
I00
aI00
aI00
as(g208
g1108
tp2811
(lp2812
I00
aI00
aI00
as(g1146
g1108
tp2813
(lp2814
I00
aI00
aI00
as(g1105
g209
tp2815
(lp2816
I00
aI00
aI01
as(g1149
g288
tp2817
(lp2818
I00
aI00
aI00
as(g288
g1108
tp2819
(lp2820
I00
aI00
aI00
as(g339
g1149
tp2821
(lp2822
g2808
aI00
aI00
as(g390
g390
tp2823
(lp2824
I00
aI00
aI00
as(g1146
g390
tp2825
(lp2826
I00
aI00
aI00
as(g441
g288
tp2827
(lp2828
I00
aI00
aI00
as(g288
g209
tp2829
(lp2830
I00
aI00
aI00
as(g1114
g441
tp2831
(lp2832
I00
aI00
aI00
as(g208
g1114
tp2833
(lp2834
I00
aI00
aI00
as(g1105
g1105
tp2835
(lp2836
I00
aI00
aI00
as(g288
g1149
tp2837
(lp2838
g2808
aI00
aI00
as(g1146
g288
tp2839
(lp2840
I00
aI00
aI00
as(g1146
g441
tp2841
(lp2842
I00
aI00
aI00
as(g1146
g339
tp2843
(lp2844
I00
aI00
aI00
as(g441
g209
tp2845
(lp2846
I00
aI00
aI00
as(g1108
g208
tp2847
(lp2848
I00
aI00
aI00
as(g1114
g208
tp2849
(lp2850
I00
aI00
aI00
as(g441
g1114
tp2851
(lp2852
I00
aI01
aI00
as(g1146
g208
tp2853
(lp2854
I00
aI00
aI00
as(g1149
g209
tp2855
(lp2856
I00
aI00
aI00
as(g1105
g288
tp2857
(lp2858
I00
aI00
aI00
as(g208
g441
tp2859
(lp2860
I00
aI01
aI00
as(g1149
g441
tp2861
(lp2862
I00
aI00
aI00
as(g441
g1149
tp2863
(lp2864
g2808
aI00
aI00
as(g339
g390
tp2865
(lp2866
I00
aI00
aI00
as(g1108
g1105
tp2867
(lp2868
I00
aI00
aI00
as(g339
g288
tp2869
(lp2870
I00
aI01
aI00
as(g1108
g209
tp2871
(lp2872
I00
aI00
aI01
as(g1149
g1149
tp2873
(lp2874
I00
aI00
aI00
as(g441
g208
tp2875
(lp2876
I00
aI00
aI00
as(g1105
g390
tp2877
(lp2878
I00
aI01
aI00
as(g209
g1105
tp2879
(lp2880
I00
aI00
aI00
as(g1114
g1146
tp2881
(lp2882
g2808
aI00
aI01
as(g209
g1114
tp2883
(lp2884
I00
aI00
aI00
as(g1108
g339
tp2885
(lp2886
I00
aI00
aI00
as(g339
g1105
tp2887
(lp2888
I00
aI00
aI00
as(g441
g1146
tp2889
(lp2890
g2808
aI00
aI01
as(g339
g1114
tp2891
(lp2892
I00
aI00
aI00
as(g441
g441
tp2893
(lp2894
I00
aI00
aI00
as(g1114
g288
tp2895
(lp2896
I00
aI00
aI00
as(g1146
g209
tp2897
(lp2898
I00
aI00
aI00
as(g209
g390
tp2899
(lp2900
I00
aI00
aI00
as(g208
g209
tp2901
(lp2902
I00
aI00
aI00
as(g1149
g1114
tp2903
(lp2904
I00
aI00
aI00
as(g209
g1108
tp2905
(lp2906
I00
aI00
aI00
as(g339
g1108
tp2907
(lp2908
I00
aI00
aI00
as(g1114
g1149
tp2909
(lp2910
g2808
aI00
aI00
as(g1108
g1146
tp2911
(lp2912
g2808
aI00
aI01
as(g1114
g390
tp2913
(lp2914
I00
aI00
aI00
as(g208
g288
tp2915
(lp2916
I00
aI01
aI00
as(g208
g1146
tp2917
(lp2918
g2808
aI00
aI01
as(g209
g339
tp2919
(lp2920
I00
aI00
aI00
as(g1149
g1108
tp2921
(lp2922
I00
aI00
aI00
as(g1149
g208
tp2923
(lp2924
I00
aI00
aI00
as(g1114
g209
tp2925
(lp2926
I00
aI00
aI01
as(g390
g1114
tp2927
(lp2928
I00
aI01
aI00
as(g1105
g1114
tp2929
(lp2930
I00
aI01
aI00
as(g209
g441
tp2931
(lp2932
I00
aI00
aI00
as(g1146
g1146
tp2933
(lp2934
I00
aI00
aI00
as(g390
g339
tp2935
(lp2936
I00
aI00
aI00
as(g1105
g441
tp2937
(lp2938
I00
aI00
aI00
as(g1146
g1105
tp2939
(lp2940
I00
aI00
aI00
as(g288
g208
tp2941
(lp2942
I00
aI00
aI00
as(g1146
g1114
tp2943
(lp2944
I00
aI00
aI00
as(g1105
g1149
tp2945
(lp2946
g2808
aI00
aI00
as(g390
g288
tp2947
(lp2948
I00
aI00
aI00
as(g339
g209
tp2949
(lp2950
I00
aI00
aI00
as(g1105
g208
tp2951
(lp2952
I00
aI00
aI00
as(g208
g1105
tp2953
(lp2954
I00
aI01
aI00
as(g288
g1105
tp2955
(lp2956
I00
aI00
aI00
as(g1149
g390
tp2957
(lp2958
I00
aI00
aI00
as(g288
g1114
tp2959
(lp2960
I00
aI00
aI00
as(g441
g390
tp2961
(lp2962
I00
aI01
aI00
as(g390
g1146
tp2963
(lp2964
g2808
aI00
aI01
as(g1114
g1114
tp2965
(lp2966
I00
aI00
aI00
as(g1108
g390
tp2967
(lp2968
I00
aI00
aI00
as(g1105
g1108
tp2969
(lp2970
I00
aI00
aI00
as(g288
g390
tp2971
(lp2972
I00
aI00
aI00
as(g288
g288
tp2973
(lp2974
I00
aI00
aI00
as(g1108
g1114
tp2975
(lp2976
I00
aI00
aI00
as(g390
g209
tp2977
(lp2978
I00
aI00
aI00
as(g441
g1105
tp2979
(lp2980
I00
aI00
aI00
as(g339
g1146
tp2981
(lp2982
g2808
aI00
aI01
as(g209
g288
tp2983
(lp2984
I00
aI00
aI00
as(g1114
g1105
tp2985
(lp2986
I00
aI00
aI00
as(g208
g339
tp2987
(lp2988
I00
aI01
aI00
as(g209
g1146
tp2989
(lp2990
I00
aI00
aI00
as(g390
g441
tp2991
(lp2992
I00
aI00
aI00
as(g1149
g339
tp2993
(lp2994
I00
aI00
aI00
as(g390
g1149
tp2995
(lp2996
g2808
aI00
aI00
as(g441
g339
tp2997
(lp2998
I00
aI01
aI00
as(g209
g209
tp2999
(lp3000
I00
aI00
aI00
as(g1114
g1108
tp3001
(lp3002
I00
aI00
aI00
as(g208
g1149
tp3003
(lp3004
g2808
aI00
aI00
as(g1108
g1149
tp3005
(lp3006
g2808
aI00
aI00
as(g209
g1149
tp3007
(lp3008
I00
aI00
aI00
as(g209
g208
tp3009
(lp3010
I00
aI00
aI00
as(g441
g1108
tp3011
(lp3012
I00
aI00
aI00
as(g1108
g441
tp3013
(lp3014
I00
aI00
aI00
as(g339
g208
tp3015
(lp3016
I00
aI00
aI00
as(g1146
g1149
tp3017
(lp3018
I00
aI00
aI00
as(g1105
g339
tp3019
(lp3020
I00
aI01
aI00
as(g208
g390
tp3021
(lp3022
I00
aI01
aI00
as(g1108
g1108
tp3023
(lp3024
I00
aI00
aI00
as(g1105
g1146
tp3025
(lp3026
g2808
aI00
aI01
as(g1149
g1105
tp3027
(lp3028
I00
aI00
aI00
assg508
g509
sS'pick_in_way'
p3029
(itrajectory_representation.predicates.pick_in_way
PickInWay
p3030
(dp3031
g206
(dp3032
g208
g559
sg288
g1718
sg339
g1749
sg1114
g1768
sg390
g1799
sg441
g1818
sg1105
g974
sg1108
g1837
ssg486
(dp3033
g208
(lp3034
sg288
(lp3035
Vrectangular_packing_box4
p3036
aVrectangular_packing_box3
p3037
asg339
(lp3038
Vsquare_packing_box3
p3039
aVrectangular_packing_box4
p3040
aVsquare_packing_box1
p3041
asg1114
(lp3042
Vsquare_packing_box3
p3043
aVsquare_packing_box1
p3044
aVsquare_packing_box2
p3045
asg390
(lp3046
Vsquare_packing_box3
p3047
aVrectangular_packing_box4
p3048
aVsquare_packing_box1
p3049
asg441
(lp3050
Vrectangular_packing_box4
p3051
asg1105
(lp3052
Vrectangular_packing_box4
p3053
asg1108
(lp3054
ssg508
(lp3055
g1108
ag208
ag1149
ag209
ag1146
ag1149
ag209
ag1146
ag1149
ag209
ag1146
ag1149
ag209
ag1146
ag1149
ag209
ag1146
ag1149
ag209
ag1146
ag1149
ag209
ag1146
ag1149
ag209
ag1146
asg511
g512
sg113
(dp3056
sg546
g547
sg1092
Nsg1098
g547
sg1095
(dp3057
sg1097
I8
sg1141
I01
sg1099
Nsg1100
(dp3058
(g390
g1108
tp3059
I00
s(g390
g208
tp3060
I00
s(g339
g441
tp3061
I00
s(g339
g339
tp3062
I00
s(g288
g441
tp3063
I00
s(g288
g339
tp3064
I00
s(g1108
g288
tp3065
I00
s(g390
g1105
tp3066
I00
s(g1114
g339
tp3067
I00
s(g208
g208
tp3068
I00
s(g288
g1146
tp3069
I00
s(g1149
g1146
tp3070
I00
s(g208
g1108
tp3071
I00
s(g1146
g1108
tp3072
I00
s(g1105
g209
tp3073
I00
s(g1149
g288
tp3074
I00
s(g288
g1108
tp3075
I00
s(g339
g1149
tp3076
I00
s(g390
g390
tp3077
I00
s(g1146
g390
tp3078
I00
s(g441
g288
tp3079
I00
s(g288
g209
tp3080
I00
s(g1114
g441
tp3081
I00
s(g208
g1114
tp3082
I00
s(g1105
g1105
tp3083
I00
s(g288
g1149
tp3084
I00
s(g1146
g288
tp3085
I00
s(g1146
g441
tp3086
I00
s(g1146
g339
tp3087
I00
s(g441
g209
tp3088
I00
s(g1108
g208
tp3089
I00
s(g1114
g208
tp3090
I00
s(g441
g1114
tp3091
I01
s(g1146
g208
tp3092
I00
s(g1149
g209
tp3093
I00
s(g1105
g288
tp3094
I00
s(g208
g441
tp3095
I01
s(g1149
g441
tp3096
I00
s(g441
g1149
tp3097
I00
s(g339
g390
tp3098
I00
s(g1108
g1105
tp3099
I00
s(g339
g288
tp3100
I01
s(g1108
g209
tp3101
I00
s(g1149
g1149
tp3102
I00
s(g441
g208
tp3103
I00
s(g1105
g390
tp3104
I01
s(g209
g1105
tp3105
I00
s(g1114
g1146
tp3106
I00
s(g209
g1114
tp3107
I00
s(g1108
g339
tp3108
I00
s(g339
g1105
tp3109
I00
s(g441
g1146
tp3110
I00
s(g339
g1114
tp3111
I00
s(g441
g441
tp3112
I00
s(g1114
g288
tp3113
I00
s(g1146
g209
tp3114
I00
s(g209
g390
tp3115
I00
s(g208
g209
tp3116
I00
s(g1149
g1114
tp3117
I00
s(g209
g1108
tp3118
I00
s(g339
g1108
tp3119
I00
s(g1114
g1149
tp3120
I00
s(g1108
g1146
tp3121
I00
s(g1114
g390
tp3122
I00
s(g208
g288
tp3123
I01
s(g208
g1146
tp3124
I00
s(g209
g339
tp3125
I00
s(g1149
g1108
tp3126
I00
s(g1149
g208
tp3127
I00
s(g1114
g209
tp3128
I00
s(g390
g1114
tp3129
I01
s(g1105
g1114
tp3130
I01
s(g209
g441
tp3131
I00
s(g1146
g1146
tp3132
I00
s(g390
g339
tp3133
I00
s(g1105
g441
tp3134
I00
s(g1146
g1105
tp3135
I00
s(g288
g208
tp3136
I00
s(g1146
g1114
tp3137
I00
s(g1105
g1149
tp3138
I00
s(g390
g288
tp3139
I00
s(g339
g209
tp3140
I00
s(g1105
g208
tp3141
I00
s(g208
g1105
tp3142
I01
s(g288
g1105
tp3143
I00
s(g1149
g390
tp3144
I00
s(g288
g1114
tp3145
I00
s(g441
g390
tp3146
I01
s(g390
g1146
tp3147
I00
s(g1114
g1114
tp3148
I00
s(g1108
g390
tp3149
I00
s(g1105
g1108
tp3150
I00
s(g288
g390
tp3151
I00
s(g288
g288
tp3152
I00
s(g1108
g1114
tp3153
I00
s(g390
g209
tp3154
I00
s(g441
g1105
tp3155
I00
s(g339
g1146
tp3156
I00
s(g209
g288
tp3157
I00
s(g1114
g1105
tp3158
I00
s(g208
g339
tp3159
I01
s(g209
g1146
tp3160
I00
s(g390
g441
tp3161
I00
s(g1149
g339
tp3162
I00
s(g390
g1149
tp3163
I00
s(g441
g339
tp3164
I01
s(g209
g209
tp3165
I00
s(g1114
g1108
tp3166
I00
s(g208
g1149
tp3167
I00
s(g1108
g1149
tp3168
I00
s(g209
g1149
tp3169
I00
s(g209
g208
tp3170
I00
s(g441
g1108
tp3171
I00
s(g1108
g441
tp3172
I00
s(g339
g208
tp3173
I00
s(g1146
g1149
tp3174
I00
s(g1105
g339
tp3175
I01
s(g208
g390
tp3176
I01
s(g1108
g1108
tp3177
I00
s(g1105
g1146
tp3178
I00
s(g1149
g1105
tp3179
I00
ssg1140
NsbsS'robot_pose'
p3180
g21
(g22
(I0
tp3181
g24
tp3182
Rp3183
(I1
(I1
I3
tp3184
g218
I00
S'\xe4:G\xc3?\xe7\n@$+\xf9\x8a\xbc\x05\x1d\xc0\x8c\xfa\n\xc4\xe0|\x07@'
p3185
tp3186
bsS'is_holding_goal_entity'
p3187
(itrajectory_representation.predicates.is_holding_goal_entity
IsHoldingGoalEntity
p3188
(dp3189
g2774
g2775
sg1099
NsbsS'mc_pick_path'
p3190
(dp3191
sS'current_collides'
p3192
g512
sba(itrajectory_representation.shortest_path_pick_and_place_state
ShortestPathPaPState
p3193
(dp3194
g113
(dp3195
g116
(itrajectory_representation.operator
Operator
p3196
(dp3197
g8
I01
sg9
(dp3198
g120
g59
sg11
g115
ssg16
g121
sg18
(dp3199
g20
g21
(g22
(I0
tp3200
g24
tp3201
Rp3202
(I1
(I3
tp3203
g31
I00
S'\xf4j\xc4]\xdd\xdf\xf5?P\xcd2a]`\xfb\xbfa\xafP\xfb@7\xdb?'
p3204
tp3205
bssg46
(lp3206
g21
(g22
(I0
tp3207
g24
tp3208
Rp3209
(I1
(I3
tp3210
g31
I00
S'\x1c\xa8\xe8\x9f\x88~\xf6?\xa6\xfb\xf36\xf4\x18\x1b\xc0\xcd\xd0\xcc\xf5\xf3x\xc0\xbf'
p3211
tp3212
bag21
(g22
(I0
tp3213
g24
tp3214
Rp3215
(I1
(I3
tp3216
g90
I00
S'\xdc\xfdN\xc8J~\xf0?\xc2\xcc\xc4M\xa2\x1d\x1a\xc0\xb4;\xa7?\xcck\xe7\xbf'
p3217
tp3218
bag21
(g22
(I0
tp3219
g24
tp3220
Rp3221
(I1
(I3
tp3222
g90
I00
S'N\xcd\xaa\x1e;\x0f\xee?&\xa8j\x7f\xa2\xe5\x17\xc0\xc1rR\xf6\xd1Y\xe0\xbf'
p3223
tp3224
bag21
(g22
(I0
tp3225
g24
tp3226
Rp3227
(I1
(I3
tp3228
g90
I00
S'\xe4\x9e\xb7\xac\xe0!\xeb?\x8a\x83\x10\xb1\xa2\xad\x15\xc0\x9aS\xfbY\xaf\x8f\xd2\xbf'
p3229
tp3230
bag21
(g22
(I0
tp3231
g24
tp3232
Rp3233
(I1
(I3
tp3234
g90
I00
S"\xb2&6mg)\xe8?\x99\xe0G'\x16\xe0\x13\xc0\xc8oL\xf5\x17p\xe6\xbf"
p3235
tp3236
bag21
(g22
(I0
tp3237
g24
tp3238
Rp3239
(I1
(I3
tp3240
g90
I00
S'`\xc8Aw-\x81\xeb?/\xc3\xe6O\x04\xca\x10\xc0\x8a\xb7K)\x91{\xe4\xbf'
p3241
tp3242
bag21
(g22
(I0
tp3243
g24
tp3244
Rp3245
(I1
(I3
tp3246
g90
I00
S'\xe1\xc6\xc7\xa7\x12X\xe7?\x98\x99\xb0\x9a\xfb\xdb\x0b\xc0R\t\x1b)\xeae\xe0\xbf'
p3247
tp3248
bag21
(g22
(I0
tp3249
g24
tp3250
Rp3251
(I1
(I3
tp3252
g90
I00
S'\xd6\x07{\xd9\x10\xef\xe4?\x1d\xac\x7fu\xfd\xc8\x05\xc0n\xbe\xc6$&8\xd7?'
p3253
tp3254
bag21
(g22
(I0
tp3255
g24
tp3256
Rp3257
(I1
(I3
tp3258
g90
I00
S'(X\x98\xe2\xb4o\xf3?a.\x9aw\xe8\xe7\x02\xc0$?\xdd\xcf\xd6\xc0\xe4?'
p3259
tp3260
bag3202
ag3202
asbssg203
(itrajectory_representation.predicates.place_in_way
PlaceInWay
p3261
(dp3262
g206
(dp3263
(g208
g209
tp3264
(lp3265
g21
(g22
(I0
tp3266
g24
tp3267
Rp3268
(I1
(I3
tp3269
g218
I00
S'\x12\xf9C\xa2\x9d^\x0c@Bv\xef1\xf8\xad\x1a\xc0\x98P$\x82\xb7V\x10@'
p3270
tp3271
bag21
(g22
(I0
tp3272
g24
tp3273
Rp3274
(I1
(I3
tp3275
g229
I00
S'\x1a\x93i\x05\xaa2\t@a5{\xa3z\xe3\x18\xc0\xcc\x05-\x9f\x13\x12\x05\xc0'
p3276
tp3277
bag21
(g22
(I0
tp3278
g24
tp3279
Rp3280
(I1
(I3
tp3281
g229
I00
S'nv\xf9k\xe2Y\x05@\xbf\xa3\xf80pj\x16\xc0\x85\x14\xd6\xdd\x83\x18\x04\xc0'
p3282
tp3283
bag21
(g22
(I0
tp3284
g24
tp3285
Rp3286
(I1
(I3
tp3287
g229
I00
S'_\x1fd\x97D>\x00@W\xf2\x9b\xb2\x92\xd8\x15\xc0\x99\xbc\xd43\xf6\xfa\x08\xc0'
p3288
tp3289
bag21
(g22
(I0
tp3290
g24
tp3291
Rp3292
(I1
(I3
tp3293
g229
I00
S'R\x12);\xaf\xa5\xf7?\xf3\xf9\xeb\x07c\xef\x15\xc0\xf0V^\xd6\x94\x96\x05\xc0'
p3294
tp3295
bag21
(g22
(I0
tp3296
g24
tp3297
Rp3298
(I1
(I3
tp3299
g229
I00
S'\xd0\xcb\x13\x8f\xaa\x9d\xed?\x90\x01<]3\x06\x16\xc0F\xf1\xe7x32\x02\xc0'
p3300
tp3301
bag21
(g22
(I0
tp3302
g24
tp3303
Rp3304
(I1
(I3
tp3305
g229
I00
S'l[\xc4\x16<\xe6\xe9?\xa6\xa0\x90\x84X\x9f\x13\xc0\xc2\xd74Q\x00\xaf\xff\xbf'
p3306
tp3307
bag21
(g22
(I0
tp3308
g24
tp3309
Rp3310
(I1
(I3
tp3311
g229
I00
S"\xaeJ\xbd\x1936\xec?\x04\x13\xd4'\x9f\x88\x10\xc0\x805qo\xb6\xe6\xff\xbf"
p3312
tp3313
bag21
(g22
(I0
tp3314
g24
tp3315
Rp3316
(I1
(I3
tp3317
g229
I00
S'\xf09\xb6\x1c*\x86\xee?\xc4\n/\x96\xcb\xe3\n\xc0\xa0\xc9\xd6F6\x0f\x00\xc0'
p3318
tp3319
bag21
(g22
(I0
tp3320
g24
tp3321
Rp3322
(I1
(I3
tp3323
g229
I00
S'3\xe9\xaf\x05T\x89\xe7?+~\xcb\xd3\x15\xc7\x04\xc0x6(d5\xed\x07@'
p3324
tp3325
bas(g288
g209
tp3326
(lp3327
g21
(g22
(I0
tp3328
g24
tp3329
Rp3330
(I1
(I3
tp3331
g218
I00
S'\x00%\x02O\xd3J\xdd?\n\r\xce\x9c\xf99\x1d\xc0A\x80?\x9d^Q\r@'
p3332
tp3333
bag21
(g22
(I0
tp3334
g24
tp3335
Rp3336
(I1
(I3
tp3337
g229
I00
S'\xf8\xfc\x1a\xd0\xc9l\xe8?\x8a\x897\x8e~\x98\x1a\xc0\xaf\xf7\xb87\xc6\xa7\x01\xc0'
p3338
tp3339
bag21
(g22
(I0
tp3340
g24
tp3341
Rp3342
(I1
(I3
tp3343
g229
I00
S"\xc6'8AN\xb0\xec?\xe0\x975>\x0f\x03\x19\xc0(\xe0e;\x85\x89\x05\xc0"
p3344
tp3345
bag21
(g22
(I0
tp3346
g24
tp3347
Rp3348
(I1
(I3
tp3349
g229
I00
S'\xd0\xcb\x13\x8f\xaa\x9d\xed?\x90\x01<]3\x06\x16\xc0F\xf1\xe7x32\x02\xc0'
p3350
tp3351
bag21
(g22
(I0
tp3352
g24
tp3353
Rp3354
(I1
(I3
tp3355
g229
I00
S'l[\xc4\x16<\xe6\xe9?\xa6\xa0\x90\x84X\x9f\x13\xc0\xc2\xd74Q\x00\xaf\xff\xbf'
p3356
tp3357
bag21
(g22
(I0
tp3358
g24
tp3359
Rp3360
(I1
(I3
tp3361
g229
I00
S"\xaeJ\xbd\x1936\xec?\x04\x13\xd4'\x9f\x88\x10\xc0\x805qo\xb6\xe6\xff\xbf"
p3362
tp3363
bag21
(g22
(I0
tp3364
g24
tp3365
Rp3366
(I1
(I3
tp3367
g229
I00
S'\xf09\xb6\x1c*\x86\xee?\xc4\n/\x96\xcb\xe3\n\xc0\xa0\xc9\xd6F6\x0f\x00\xc0'
p3368
tp3369
bag21
(g22
(I0
tp3370
g24
tp3371
Rp3372
(I1
(I3
tp3373
g229
I00
S'3\xe9\xaf\x05T\x89\xe7?+~\xcb\xd3\x15\xc7\x04\xc0x6(d5\xed\x07@'
p3374
tp3375
bas(g339
g209
tp3376
(lp3377
g21
(g22
(I0
tp3378
g24
tp3379
Rp3380
(I1
(I3
tp3381
g218
I00
S'\x00\xdd%t\xca\xaa\xc2?)\x93]\x15D\xd0\x1d\xc0\xa3\xe2\xc4\xfe&}\xc8?'
p3382
tp3383
bag21
(g22
(I0
tp3384
g24
tp3385
Rp3386
(I1
(I3
tp3387
g229
I00
S'X\x9b\x8c[e\xe8\xdb?\xdc\xc11jk\x8b\x1b\xc0\xfe\x18\xeb6\xf7\x88\xc3?'
p3388
tp3389
bag21
(g22
(I0
tp3390
g24
tp3391
Rp3392
(I1
(I3
tp3393
g229
I00
S'T]\x0c\x0e\xd89\xda?\xf4\x992\x11%\\\x18\xc0\x95\x7f\x10B\xb1)\xe3?'
p3394
tp3395
bag21
(g22
(I0
tp3396
g24
tp3397
Rp3398
(I1
(I3
tp3399
g229
I00
S'\xe4\x02R\xd9\x08\x8c\xc7?2\xc1\xd4;\xf6\xf3\x15\xc0>\x8c\x8fa?0\xd8?'
p3400
tp3401
bag21
(g22
(I0
tp3402
g24
tp3403
Rp3404
(I1
(I3
tp3405
g229
I00
S'\xcc\x87!\x1f\xfb\x05\xe6?\x14;\x08\xf1<\xc6\x13\xc0V!\xac1j\x94\xc8?'
p3406
tp3407
bag21
(g22
(I0
tp3408
g24
tp3409
Rp3410
(I1
(I3
tp3411
g229
I00
S'`\xc8Aw-\x81\xeb?/\xc3\xe6O\x04\xca\x10\xc0\x8a\xb7K)\x91{\xe4\xbf'
p3412
tp3413
bag21
(g22
(I0
tp3414
g24
tp3415
Rp3416
(I1
(I3
tp3417
g229
I00
S'\xe1\xc6\xc7\xa7\x12X\xe7?\x98\x99\xb0\x9a\xfb\xdb\x0b\xc0R\t\x1b)\xeae\xe0\xbf'
p3418
tp3419
bag21
(g22
(I0
tp3420
g24
tp3421
Rp3422
(I1
(I3
tp3423
g229
I00
S'p\xf1\xbdc^\x84\xf1?"\x88LL\xf9D\x06\xc0~w\r\xe9m\x0f\x19@'
p3424
tp3425
bas(g390
g209
tp3426
(lp3427
g21
(g22
(I0
tp3428
g24
tp3429
Rp3430
(I1
(I3
tp3431
g218
I00
S'x\x8d\xeb;(\x1b\xfd?L\x16\xf3\xd2\xc9V\x1a\xc0\x13K\x99o\x88\xee\xe4?'
p3432
tp3433
bag21
(g22
(I0
tp3434
g24
tp3435
Rp3436
(I1
(I3
tp3437
g229
I00
S'j\xc7\xc0&\x8ag\xf6?h\x9cH4\x7f\xab\x18\xc0\xd8|\x1d\xfc\xcbV\xf2?'
p3438
tp3439
bag21
(g22
(I0
tp3440
g24
tp3441
Rp3442
(I1
(I3
tp3443
g229
I00
S'\x85\\2\xba\x0b5\xf5?I\r\x06\xd10\xfb\x15\xc0\x9e\x11\xee\xd8\xb9\xd7\xf5?'
p3444
tp3445
bag21
(g22
(I0
tp3446
g24
tp3447
Rp3448
(I1
(I3
tp3449
g229
I00
S'v\xb8^\x85\xa7[\xea?x\xbe\xff2t\x8d\x13\xc0\x88\x85\x8cCyH\xf6?'
p3450
tp3451
bag21
(g22
(I0
tp3452
g24
tp3453
Rp3454
(I1
(I3
tp3455
g229
I00
S'\xc2\xda(e\x83\x1a\xeb?\x8au\x8d3\xa6E\x11\xc0\xb4c\x1b\xed_\xfd\xfa?'
p3456
tp3457
bag21
(g22
(I0
tp3458
g24
tp3459
Rp3460
(I1
(I3
tp3461
g229
I00
S'\xe4u**\x0e5\xe9?\xaa\xfd\r\xed\xc4\xf6\r\xc0\x0fDE0\x1f\x0b\xfe?'
p3462
tp3463
bag21
(g22
(I0
tp3464
g24
tp3465
Rp3466
(I1
(I3
tp3467
g229
I00
S'\x06\x11,\xef\x98O\xe7??\x10\x01s=b\t\xc04\x92\xb79o\x8c\x00@'
p3468
tp3469
bag21
(g22
(I0
tp3470
g24
tp3471
Rp3472
(I1
(I3
tp3473
g229
I00
S'\x92\xaf\xf3P\x96O\xc2?(\xa1:\x8er}\x05\xc0\xd4_\x91\xb3\xffL\x02@'
p3474
tp3475
bas(g441
g209
tp3476
(lp3477
g21
(g22
(I0
tp3478
g24
tp3479
Rp3480
(I1
(I3
tp3481
g218
I00
S'\xf0\xa46e\xa9\x04\xfe?P\xad\x1c\x98Q\x99\x19\xc0|\xd3\xa8e\xb26\xc3?'
p3482
tp3483
bag21
(g22
(I0
tp3484
g24
tp3485
Rp3486
(I1
(I3
tp3487
g229
I00
S'\x12\xfe\xe1\x95\xb8\x19\xf8?\x8c#.~\xd7\xc6\x16\xc0\xfe\xd3A\xf0\xcat\xc0\xbf'
p3488
tp3489
bag21
(g22
(I0
tp3490
g24
tp3491
Rp3492
(I1
(I3
tp3493
g229
I00
S'\xe4\x9e\xb7\xac\xe0!\xeb?\x8a\x83\x10\xb1\xa2\xad\x15\xc0\x9aS\xfbY\xaf\x8f\xd2\xbf'
p3494
tp3495
bag21
(g22
(I0
tp3496
g24
tp3497
Rp3498
(I1
(I3
tp3499
g229
I00
S"\xb2&6mg)\xe8?\x99\xe0G'\x16\xe0\x13\xc0\xc8oL\xf5\x17p\xe6\xbf"
p3500
tp3501
bag21
(g22
(I0
tp3502
g24
tp3503
Rp3504
(I1
(I3
tp3505
g229
I00
S'`\xc8Aw-\x81\xeb?/\xc3\xe6O\x04\xca\x10\xc0\x8a\xb7K)\x91{\xe4\xbf'
p3506
tp3507
bag21
(g22
(I0
tp3508
g24
tp3509
Rp3510
(I1
(I3
tp3511
g229
I00
S'\xe1\xc6\xc7\xa7\x12X\xe7?\x98\x99\xb0\x9a\xfb\xdb\x0b\xc0R\t\x1b)\xeae\xe0\xbf'
p3512
tp3513
bag21
(g22
(I0
tp3514
g24
tp3515
Rp3516
(I1
(I3
tp3517
g229
I00
S'p\xf1\xbdc^\x84\xf1?"\x88LL\xf9D\x06\xc0~w\r\xe9m\x0f\x19@'
p3518
tp3519
bassg486
(dp3520
(g208
g209
tp3521
(lp3522
Vsquare_packing_box4
p3523
aVsquare_packing_box1
p3524
aVsquare_packing_box3
p3525
aVsquare_packing_box2
p3526
aVrectangular_packing_box1
p3527
as(g288
g209
tp3528
(lp3529
Vrectangular_packing_box3
p3530
aVrectangular_packing_box1
p3531
as(g339
g209
tp3532
(lp3533
Vrectangular_packing_box2
p3534
aVrectangular_packing_box1
p3535
as(g390
g209
tp3536
(lp3537
Vsquare_packing_box1
p3538
as(g441
g209
tp3539
(lp3540
Vsquare_packing_box1
p3541
aVsquare_packing_box2
p3542
assg508
(lp3543
Vrectangular_packing_box4
p3544
aVrectangular_packing_box2
p3545
aVrectangular_packing_box3
p3546
aVrectangular_packing_box1
p3547
aVsquare_packing_box2
p3548
ag57
aVsquare_packing_box4
p3549
asg511
(dp3550
Vrectangular_packing_box4
p3551
g514
((lp3552
I513
aI260
aI268
aI270
aI405
aI280
aI548
aI179
aI436
aI565
aI438
aI440
aI572
aI573
aI193
aI68
aI210
aI211
aI340
aI213
aI343
aI91
aI220
aI479
aI354
aI613
aI614
aI112
aI113
aI339
aI500
aI117
aI375
aI212
aI123
aI381
aI254
aI255
atp3553
Rp3554
sVrectangular_packing_box2
p3555
g521
sVrectangular_packing_box3
p3556
g525
sVrectangular_packing_box1
p3557
g529
sVsquare_packing_box2
p3558
g533
sVsquare_packing_box3
p3559
g537
sVsquare_packing_box1
p3560
g541
sVsquare_packing_box4
p3561
g545
ssg113
g3195
sg546
(dp3562
g3544
(itrajectory_representation.operator
Operator
p3563
(dp3564
g8
I01
sg9
(dp3565
g570
Vrectangular_packing_box4
p3566
ssg16
g572
sg18
(dp3567
g574
(lp3568
g21
(g22
(I0
tp3569
g24
tp3570
Rp3571
(I1
(I3
tp3572
g218
I00
S'\x12\xf9C\xa2\x9d^\x0c@?v\xef1\xf8\xad\x1a\xc0\xfe\xb8?\xa4\x87\x96\x01\xc0'
p3573
tp3574
bag21
(g22
(I0
tp3575
g24
tp3576
Rp3577
(I1
(I3
tp3578
g218
I00
S'U\xa01\x08q\xf5\x0c@q\xac_*:\x1c\x1f\xc0\xa2?]\xae\x9c.\x02@'
p3579
tp3580
bag21
(g22
(I0
tp3581
g24
tp3582
Rp3583
(I1
(I3
tp3584
g218
I00
S'dr\xf2(\x86\x86\x06@\x82\xa8\xebe\xd8\x82\x1a\xc0\x0e\xf6\xf7\xfa\xd6\xe5\xea\xbf'
p3585
tp3586
basg594
I00
ssg46
(lp3587
g21
(g22
(I0
tp3588
g24
tp3589
Rp3590
(I1
(I3
tp3591
g218
I00
S'\xfcj\xc4]\xdd\xdf\xf5?`\xcd2a]`\xfb\xbf\\\xafP\xfb@7\xdb?'
p3592
tp3593
bag21
(g22
(I0
tp3594
g24
tp3595
Rp3596
(I1
(I3
tp3597
g229
I00
S'm\xce}C\x08\xbf\xf8?n\x1b_\x80\xc4X\x02\xc0\xa0\xd6\xd4\xb1Na\xa7?'
p3598
tp3599
bag21
(g22
(I0
tp3600
g24
tp3601
Rp3602
(I1
(I3
tp3603
g229
I00
S'S\xf49\xa2+\x89\xf0?\x90\xc6\x1b\xea\xaco\x04\xc0m\xfeq\x0c\x14\x04\xcf\xbf'
p3604
tp3605
bag21
(g22
(I0
tp3606
g24
tp3607
Rp3608
(I1
(I3
tp3609
g229
I00
S'\xef\xc3u*\xfb\xdb\xeb?\x8d\xa5\n\xfd\x03<\n\xc0\xd8\xfb\xde\x16R\xac\xde?'
p3610
tp3611
bag21
(g22
(I0
tp3612
g24
tp3613
Rp3614
(I1
(I3
tp3615
g229
I00
S'\x93k\xbc\xee\xc2\x10\xe8?\xab^\x86?\x08D\x10\xc0\x10;2\x00\xe5\t\xde?'
p3616
tp3617
bag21
(g22
(I0
tp3618
g24
tp3619
Rp3620
(I1
(I3
tp3621
g229
I00
S'\xa9\xd9\x1d\x8d\xa6j\xdf?\xa0\x85\x1a\x84\xc6\xec\x12\xc0\x01\xb6 H\xb1\x91\xeb?'
p3622
tp3623
bag21
(g22
(I0
tp3624
g24
tp3625
Rp3626
(I1
(I3
tp3627
g229
I00
S'\xd8\x87\x03p)T\xe4?\xd5\xabI\xb7V\xd0\x15\xc0vWg\x9a\x87\x8a\xec?'
p3628
tp3629
bag21
(g22
(I0
tp3630
g24
tp3631
Rp3632
(I1
(I3
tp3633
g229
I00
S'B\x9aa8\x98\xa6\xe8?\xf3\xe9\x94/\xc2\xe4\x18\xc0u\xf8\xb0\x7fO\xb8\xf2?'
p3634
tp3635
bag21
(g22
(I0
tp3636
g24
tp3637
Rp3638
(I1
(I3
tp3639
g229
I00
S'j\xc7\xc0&\x8ag\xf6?h\x9cH4\x7f\xab\x18\xc0\xd8|\x1d\xfc\xcbV\xf2?'
p3640
tp3641
bag21
(g22
(I0
tp3642
g24
tp3643
Rp3644
(I1
(I3
tp3645
g229
I00
S'JyH\x8ez\xd6\xfa?\xb3\xf7h\x83\xea\xba\x1a\xc0u\xf9Uf\xb7m\xe0?'
p3646
tp3647
bag21
(g22
(I0
tp3648
g24
tp3649
Rp3650
(I1
(I3
tp3651
g229
I00
S'\tAsXx\r\x00@F^\x05/\xfdK\x1d\xc0~\xbbB\x0f\xbe\xe6\xd2?'
p3652
tp3653
bag21
(g22
(I0
tp3654
g24
tp3655
Rp3656
(I1
(I3
tp3657
g229
I00
S'V<\xdb\x99-b\x02@s\xd3@:\x7fA\x1e\xc0\xbf\x94H\xa7$\xf0\xff?'
p3658
tp3659
bag21
(g22
(I0
tp3660
g24
tp3661
Rp3662
(I1
(I3
tp3663
g229
I00
S'D\xe7\xee\xd7aq\x07@d\x9e\x03P\xa2\x18 \xc0\xb2\x96\xf1{-\x8e\x06@'
p3664
tp3665
bag3577
asbsg3545
g567
sg3546
g657
sg3547
g737
sg3548
g799
sVsquare_packing_box3
p3666
g873
sg57
(itrajectory_representation.operator
Operator
p3667
(dp3668
g8
I01
sg9
(dp3669
g11
g57
ssg16
g551
sg18
(dp3670
g20
g21
(g22
(I0
tp3671
g24
tp3672
Rp3673
(I1
(I3
tp3674
g31
I00
S'-\xa8\xe8\x9f\x88~\xf6?\xa5\xfb\xf36\xf4\x18\x1b\xc0\x99\xd0\xcc\xf5\xf3x\xc0\xbf'
p3675
tp3676
bssg46
(lp3677
g21
(g22
(I0
tp3678
g24
tp3679
Rp3680
(I1
(I3
tp3681
g218
I00
S'a\x85\xe9\xc7\x18\xb6\x0c@\xe06\xb7\xd0\xdf\xdb\x1f\xc0\x19_\xe1\x04_\xcb\x02@'
p3682
tp3683
bag21
(g22
(I0
tp3684
g24
tp3685
Rp3686
(I1
(I3
tp3687
g229
I00
S'D\xe7\xee\xd7aq\x07@d\x9e\x03P\xa2\x18 \xc0\xb2\x96\xf1{-\x8e\x06@'
p3688
tp3689
bag21
(g22
(I0
tp3690
g24
tp3691
Rp3692
(I1
(I3
tp3693
g229
I00
S'\xbe\x13Y^h\xbd\x02@\xe3\xc2^\xa1\xb6U\x1f\xc0\xb9*7\xddY\x01\x07@'
p3694
tp3695
bag21
(g22
(I0
tp3696
g24
tp3697
Rp3698
(I1
(I3
tp3699
g229
I00
S'zT\r\xfe&\xfe\xfd?~,i\xf5\xe3\x9c\x1d\xc0\xe2\x1a4?SB\x15@'
p3700
tp3701
bag3673
asbsg3549
g999
ssg1090
(dp3702
sg1092
Nsg1093
(lp3703
sg1095
(dp3704
sg1097
I0
sg1098
g3562
sg1099
Nsg1100
(dp3705
(g208
g441
g209
tp3706
I01
s(g208
g339
g209
tp3707
I00
s(g208
g390
g209
tp3708
I01
s(g208
g288
g209
tp3709
I00
s(g208
g1105
g209
tp3710
I01
s(g208
g1108
g209
tp3711
I01
s(g208
g1114
g209
tp3712
I01
s(g390
g208
g209
tp3713
I00
s(g288
g208
g209
tp3714
I00
s(g441
g208
g209
tp3715
I00
s(g339
g208
g209
tp3716
I00
ssg1140
Nsg1141
I01
sbsg1142
(dp3717
(g288
g288
g209
tp3718
g1145
s(g1105
g1146
g1146
tp3719
g1148
s(g1149
g1114
g209
tp3720
g1151
s(g390
g1108
g1146
tp3721
g1153
s(g209
g209
g209
tp3722
g1155
s(g1108
g288
g1146
tp3723
g1157
s(g1105
g339
g209
tp3724
g1159
s(g209
g208
g209
tp3725
(lp3726
I00
as(g390
g1105
g209
tp3727
g1163
s(g339
g208
g1146
tp3728
(lp3729
I00
as(g209
g1108
g1146
tp3730
g1167
s(g390
g1149
g209
tp3731
g1169
s(g1146
g209
g1146
tp3732
g1171
s(g208
g441
g209
tp3733
(lp3734
I01
as(g1108
g1149
g209
tp3735
g1175
s(g390
g1114
g1146
tp3736
g1177
s(g441
g1146
g209
tp3737
g1179
s(g1149
g288
g1146
tp3738
g1181
s(g209
g1149
g209
tp3739
g1183
s(g288
g1146
g209
tp3740
g1185
s(g441
g1149
g209
tp3741
g1187
s(g1105
g1105
g1146
tp3742
g1189
s(g1146
g1108
g1146
tp3743
g1191
s(g1149
g1146
g209
tp3744
g1193
s(g1149
g390
g209
tp3745
g1195
s(g1146
g1146
g209
tp3746
g1197
s(g441
g208
g1146
tp3747
(lp3748
I00
as(g209
g209
g1146
tp3749
g1201
s(g1114
g390
g1146
tp3750
g1203
s(g288
g1108
g209
tp3751
g1205
s(g441
g1105
g209
tp3752
g1207
s(g1114
g209
g1146
tp3753
g1209
s(g209
g288
g1146
tp3754
g1211
s(g1114
g339
g1146
tp3755
g1213
s(g339
g1114
g209
tp3756
g1215
s(g1146
g1105
g1146
tp3757
g1217
s(g1108
g390
g1146
tp3758
g1219
s(g288
g288
g1146
tp3759
g1221
s(g1149
g1108
g209
tp3760
g1223
s(g1146
g209
g209
tp3761
g1225
s(g208
g288
g209
tp3762
(lp3763
I00
as(g209
g339
g209
tp3764
g1229
s(g390
g1114
g209
tp3765
g1231
s(g339
g1108
g209
tp3766
g1233
s(g1105
g339
g1146
tp3767
g1235
s(g441
g390
g209
tp3768
g1237
s(g390
g1105
g1146
tp3769
g1239
s(g390
g288
g1146
tp3770
g1241
s(g1149
g390
g1146
tp3771
g1243
s(g1146
g339
g1146
tp3772
g1245
s(g1149
g209
g209
tp3773
g1247
s(g208
g209
g209
tp3774
(lp3775
I00
as(g1146
g1149
g209
tp3776
g1251
s(g288
g1108
g1146
tp3777
g1253
s(g441
g288
g1146
tp3778
g1255
s(g441
g441
g209
tp3779
g1257
s(g1114
g339
g209
tp3780
g1259
s(g1149
g288
g209
tp3781
g1261
s(g1114
g1146
g1146
tp3782
g1263
s(g1108
g1105
g209
tp3783
g1265
s(g1105
g1105
g209
tp3784
g1267
s(g1105
g208
g209
tp3785
(lp3786
I00
as(g208
g288
g1146
tp3787
(lp3788
I00
as(g1108
g1114
g1146
tp3789
g1273
s(g441
g208
g209
tp3790
(lp3791
I00
as(g1114
g390
g209
tp3792
g1277
s(g288
g1114
g1146
tp3793
g1279
s(g1114
g209
g209
tp3794
g1281
s(g390
g288
g209
tp3795
g1283
s(g288
g441
g209
tp3796
g1285
s(g339
g1114
g1146
tp3797
g1287
s(g209
g390
g1146
tp3798
g1289
s(g1149
g209
g1146
tp3799
g1291
s(g1149
g1108
g1146
tp3800
g1293
s(g441
g288
g209
tp3801
g1295
s(g339
g441
g1146
tp3802
g1297
s(g288
g1149
g1146
tp3803
g1299
s(g1114
g1146
g209
tp3804
g1301
s(g441
g390
g1146
tp3805
g1303
s(g441
g1114
g1146
tp3806
g1305
s(g1108
g1105
g1146
tp3807
g1307
s(g209
g339
g1146
tp3808
g1309
s(g1149
g441
g1146
tp3809
g1311
s(g1146
g339
g209
tp3810
g1313
s(g1146
g390
g1146
tp3811
g1315
s(g288
g1114
g209
tp3812
g1317
s(g1108
g1114
g209
tp3813
g1319
s(g1146
g441
g209
tp3814
g1321
s(g288
g441
g1146
tp3815
g1323
s(g288
g208
g1146
tp3816
(lp3817
I00
as(g339
g1108
g1146
tp3818
g1327
s(g1105
g208
g1146
tp3819
(lp3820
I00
as(g1114
g441
g1146
tp3821
g1331
s(g209
g1105
g1146
tp3822
g1333
s(g339
g1146
g1146
tp3823
g1335
s(g208
g209
g1146
tp3824
(lp3825
I00
as(g1105
g1114
g209
tp3826
g1339
s(g288
g1149
g209
tp3827
g1341
s(g208
g390
g1146
tp3828
(lp3829
I00
as(g339
g288
g1146
tp3830
g1345
s(g441
g1114
g209
tp3831
g1347
s(g1108
g1146
g1146
tp3832
g1349
s(g390
g209
g209
tp3833
g1351
s(g1108
g208
g209
tp3834
(lp3835
I00
as(g209
g441
g1146
tp3836
g1355
s(g1146
g1114
g1146
tp3837
g1357
s(g1146
g441
g1146
tp3838
g1359
s(g1105
g441
g209
tp3839
g1361
s(g1114
g441
g209
tp3840
g1363
s(g1105
g1114
g1146
tp3841
g1365
s(g339
g288
g209
tp3842
g1367
s(g288
g390
g209
tp3843
g1369
s(g339
g209
g1146
tp3844
g1371
s(g1108
g1146
g209
tp3845
g1373
s(g1146
g208
g1146
tp3846
(lp3847
I00
as(g288
g208
g209
tp3848
(lp3849
I00
as(g339
g339
g209
tp3850
g1379
s(g208
g208
g209
tp3851
(lp3852
I00
as(g208
g339
g1146
tp3853
(lp3854
I00
as(g339
g1146
g209
tp3855
g1385
s(g441
g1108
g209
tp3856
g1387
s(g208
g390
g209
tp3857
(lp3858
I01
as(g390
g1146
g1146
tp3859
g1391
s(g339
g1149
g1146
tp3860
g1393
s(g390
g209
g1146
tp3861
g1395
s(g1105
g390
g1146
tp3862
g1397
s(g1108
g208
g1146
tp3863
(lp3864
I00
as(g441
g209
g1146
tp3865
g1401
s(g339
g209
g209
tp3866
g1403
s(g1146
g208
g209
tp3867
(lp3868
I00
as(g1114
g1114
g209
tp3869
g1407
s(g1146
g1108
g209
tp3870
g1409
s(g1108
g441
g209
tp3871
g1411
s(g1105
g288
g209
tp3872
g1413
s(g1105
g441
g1146
tp3873
g1415
s(g208
g1105
g1146
tp3874
(lp3875
I00
as(g209
g390
g209
tp3876
g1419
s(g1149
g339
g1146
tp3877
g1421
s(g339
g1105
g209
tp3878
g1423
s(g1114
g1149
g209
tp3879
g1425
s(g441
g1108
g1146
tp3880
g1427
s(g441
g339
g1146
tp3881
g1429
s(g208
g1114
g209
tp3882
(lp3883
I01
as(g288
g390
g1146
tp3884
g1433
s(g208
g1146
g209
tp3885
(lp3886
I00
as(g339
g1149
g209
tp3887
g1437
s(g1108
g339
g1146
tp3888
g1439
s(g288
g1105
g209
tp3889
g1441
s(g441
g1105
g1146
tp3890
g1443
s(g1108
g1108
g1146
tp3891
g1445
s(g208
g208
g1146
tp3892
(lp3893
I00
as(g1114
g1114
g1146
tp3894
g1449
s(g1105
g1108
g1146
tp3895
g1451
s(g1108
g390
g209
tp3896
g1453
s(g1149
g1105
g209
tp3897
g1455
s(g209
g1149
g1146
tp3898
g1457
s(g209
g1114
g1146
tp3899
g1459
s(g390
g1146
g209
tp3900
g1461
s(g1105
g288
g1146
tp3901
g1463
s(g1114
g1105
g1146
tp3902
g1465
s(g339
g339
g1146
tp3903
g1467
s(g1149
g339
g209
tp3904
g1469
s(g390
g339
g1146
tp3905
g1471
s(g1114
g1149
g1146
tp3906
g1473
s(g1105
g390
g209
tp3907
g1475
s(g208
g1114
g1146
tp3908
(lp3909
I00
as(g208
g339
g209
tp3910
(lp3911
I00
as(g1108
g339
g209
tp3912
g1481
s(g1105
g209
g1146
tp3913
g1483
s(g390
g441
g209
tp3914
g1485
s(g441
g441
g1146
tp3915
g1487
s(g208
g1149
g209
tp3916
(lp3917
I00
as(g1146
g1149
g1146
tp3918
g1491
s(g1108
g441
g1146
tp3919
g1493
s(g1146
g1114
g209
tp3920
g1495
s(g1149
g1149
g1146
tp3921
g1497
s(g208
g1105
g209
tp3922
(lp3923
I01
as(g1105
g1108
g209
tp3924
g1501
s(g1146
g288
g1146
tp3925
g1503
s(g339
g1105
g1146
tp3926
g1505
s(g441
g209
g209
tp3927
g1507
s(g1149
g1105
g1146
tp3928
g1509
s(g441
g339
g209
tp3929
g1511
s(g339
g390
g209
tp3930
g1513
s(g208
g1146
g1146
tp3931
(lp3932
I00
as(g288
g1105
g1146
tp3933
g1517
s(g1114
g288
g209
tp3934
g1519
s(g1149
g1146
g1146
tp3935
g1521
s(g1146
g288
g209
tp3936
g1523
s(g1105
g1149
g209
tp3937
g1525
s(g390
g441
g1146
tp3938
g1527
s(g390
g208
g1146
tp3939
(lp3940
I00
as(g1108
g209
g209
tp3941
g1531
s(g208
g1149
g1146
tp3942
(lp3943
I00
as(g208
g1108
g209
tp3944
(lp3945
I01
as(g1149
g208
g1146
tp3946
(lp3947
I00
as(g209
g1114
g209
tp3948
g1539
s(g209
g441
g209
tp3949
g1541
s(g1114
g1105
g209
tp3950
g1543
s(g1114
g208
g209
tp3951
(lp3952
I00
as(g1149
g441
g209
tp3953
g1547
s(g390
g339
g209
tp3954
g1549
s(g390
g390
g1146
tp3955
g1551
s(g1114
g1108
g1146
tp3956
g1553
s(g1108
g209
g1146
tp3957
g1555
s(g288
g209
g209
tp3958
g1557
s(g1105
g209
g209
tp3959
g1559
s(g1114
g288
g1146
tp3960
g1561
s(g1108
g288
g209
tp3961
g1563
s(g209
g1146
g209
tp3962
g1565
s(g1149
g1149
g209
tp3963
g1567
s(g288
g339
g1146
tp3964
g1569
s(g1105
g1149
g1146
tp3965
g1571
s(g1146
g390
g209
tp3966
g1573
s(g339
g208
g209
tp3967
(lp3968
I00
as(g1149
g208
g209
tp3969
(lp3970
I00
as(g1105
g1146
g209
tp3971
g1579
s(g339
g390
g1146
tp3972
g1581
s(g209
g1105
g209
tp3973
g1583
s(g1149
g1114
g1146
tp3974
g1585
s(g1108
g1149
g1146
tp3975
g1587
s(g390
g390
g209
tp3976
g1589
s(g1114
g1108
g209
tp3977
g1591
s(g441
g1149
g1146
tp3978
g1593
s(g390
g208
g209
tp3979
(lp3980
I00
as(g209
g1108
g209
tp3981
g1597
s(g339
g441
g209
tp3982
g1599
s(g208
g1108
g1146
tp3983
(lp3984
I00
as(g1108
g1108
g209
tp3985
g1603
s(g1114
g208
g1146
tp3986
(lp3987
I00
as(g390
g1108
g209
tp3988
g1607
s(g441
g1146
g1146
tp3989
g1609
s(g209
g288
g209
tp3990
g1611
s(g288
g1146
g1146
tp3991
g1613
s(g209
g208
g1146
tp3992
(lp3993
I00
as(g288
g209
g1146
tp3994
g1617
s(g1146
g1146
g1146
tp3995
g1619
s(g390
g1149
g1146
tp3996
g1621
s(g208
g441
g1146
tp3997
(lp3998
I00
as(g209
g1146
g1146
tp3999
g1625
s(g288
g339
g209
tp4000
g1627
s(g1146
g1105
g209
tp4001
g1629
ssg546
g3562
sg1630
I01
sg1631
(lp4002
S'square_packing_box1'
p4003
aS'rectangular_packing_box1'
p4004
aS'square_packing_box2'
p4005
aS'rectangular_packing_box2'
p4006
aS'square_packing_box3'
p4007
aS'rectangular_packing_box3'
p4008
aS'square_packing_box4'
p4009
aS'rectangular_packing_box4'
p4010
asg1099
Nsg1641
Nsg1642
(dp4011
Vrectangular_packing_box4
p4012
g21
(g22
(I0
tp4013
g24
tp4014
Rp4015
(I1
(I1
I3
tp4016
g218
I00
S'E\xe9\xe9\x9f\xef>\t@\xd8\xe9\xcb\xa2\x9fT\x1d\xc0|\x01\x1f#@\x9f\xe6?'
p4017
tp4018
bsVrectangular_packing_box2
p4019
g21
(g22
(I0
tp4020
g24
tp4021
Rp4022
(I1
(I1
I3
tp4023
g218
I00
S'\x106;_2^\xca\xbf\xde\xfa\xef+B\x82\x1e\xc0\x0ct\x8e\xd7r|\x15@'
p4024
tp4025
bsVrectangular_packing_box3
p4026
g21
(g22
(I0
tp4027
g24
tp4028
Rp4029
(I1
(I1
I3
tp4030
g218
I00
S'\xfa\xdf\x87\xe7B\x8d\xee?7\x91\xb63\x1a)\x1e\xc0\xbe\x86[\xaafc\t@'
p4031
tp4032
bsVrectangular_packing_box1
p4033
g21
(g22
(I0
tp4034
g24
tp4035
Rp4036
(I1
(I1
I3
tp4037
g218
I00
S'\xaeF\xe0\x82Xk\x9a?\xb0\xb0\x1aL\xac\xcd\x17\xc0t)\xd01d#\x00@'
p4038
tp4039
bsVsquare_packing_box2
p4040
g21
(g22
(I0
tp4041
g24
tp4042
Rp4043
(I1
(I1
I3
tp4044
g218
I00
S'si\x15\xda\x19\xc5\x02@\x93k-G\xc0A\x18\xc0gz\xaa\xf7k]\x0f@'
p4045
tp4046
bsVsquare_packing_box3
p4047
g21
(g22
(I0
tp4048
g24
tp4049
Rp4050
(I1
(I1
I3
tp4051
g218
I00
S'|\xb7iq2\xb0\x05@\n\xf3V\xb0\xeb\xbe\x1a\xc0Y=\xd6\xc0\xd1\xb5\x07@'
p4052
tp4053
bsVsquare_packing_box1
p4054
g21
(g22
(I0
tp4055
g24
tp4056
Rp4057
(I1
(I1
I3
tp4058
g218
I00
S'D\x99\xaa\x96\xe3"\x01@\xe9I\xae\xaf-\x1b\x1b\xc0R\x85D\x82A\xb7\xf5?'
p4059
tp4060
bsVsquare_packing_box4
p4061
g21
(g22
(I0
tp4062
g24
tp4063
Rp4064
(I1
(I1
I3
tp4065
g218
I00
S'h\x05\x05\xb0\xa5\x85\x0f@\x94\xb7"\xb3\xb6\xcd\x1a\xc05\xd1B5\x13\xf7\x15@'
p4066
tp4067
bssg1700
(lp4068
(g3544
g1146
tp4069
a(g3545
g1146
tp4070
a(g3546
g1146
tp4071
a(g3547
g1146
tp4072
a(g3548
g1146
tp4073
a(g3666
g1146
tp4074
a(g57
g1146
tp4075
a(g3549
g1146
tp4076
a(g3547
g209
tp4077
a(g57
g209
tp4078
a(g3549
g209
tp4079
asg1713
(itrajectory_representation.predicates.in_region
InRegion
p4080
(dp4081
g1099
Nsbsg1716
(dp4082
g3544
(lp4083
g21
(g22
(I0
tp4084
g24
tp4085
Rp4086
(I1
(I3
tp4087
g218
I00
S'a\x85\xe9\xc7\x18\xb6\x0c@\xe06\xb7\xd0\xdf\xdb\x1f\xc0\x19_\xe1\x04_\xcb\x02@'
p4088
tp4089
bag3577
asg3545
(lp4090
g21
(g22
(I0
tp4091
g24
tp4092
Rp4093
(I1
(I3
tp4094
g218
I00
S'a\x85\xe9\xc7\x18\xb6\x0c@\xe06\xb7\xd0\xdf\xdb\x1f\xc0\x19_\xe1\x04_\xcb\x02@'
p4095
tp4096
bag21
(g22
(I0
tp4097
g24
tp4098
Rp4099
(I1
(I3
tp4100
g229
I00
S'D\xe7\xee\xd7aq\x07@d\x9e\x03P\xa2\x18 \xc0\xb2\x96\xf1{-\x8e\x06@'
p4101
tp4102
bag21
(g22
(I0
tp4103
g24
tp4104
Rp4105
(I1
(I3
tp4106
g229
I00
S'\xbe\x13Y^h\xbd\x02@\xe3\xc2^\xa1\xb6U\x1f\xc0\xb9*7\xddY\x01\x07@'
p4107
tp4108
bag21
(g22
(I0
tp4109
g24
tp4110
Rp4111
(I1
(I3
tp4112
g229
I00
S'zT\r\xfe&\xfe\xfd?~,i\xf5\xe3\x9c\x1d\xc0\xe2\x1a4?SB\x15@'
p4113
tp4114
bag21
(g22
(I0
tp4115
g24
tp4116
Rp4117
(I1
(I3
tp4118
g229
I00
S'X\xa4u\xbc=r\xf6?\x90\xee\xc4\x1eW\xf8\x1b\xc0\xcc: \xa4-\x95\x01\xc0'
p4119
tp4120
bag21
(g22
(I0
tp4121
g24
tp4122
Rp4123
(I1
(I3
tp4124
g229
I00
S'\xf8\xfc\x1a\xd0\xc9l\xe8?\x8a\x897\x8e~\x98\x1a\xc0\xaf\xf7\xb87\xc6\xa7\x01\xc0'
p4125
tp4126
bag584
asg3546
(lp4127
g21
(g22
(I0
tp4128
g24
tp4129
Rp4130
(I1
(I3
tp4131
g218
I00
S'a\x85\xe9\xc7\x18\xb6\x0c@\xe06\xb7\xd0\xdf\xdb\x1f\xc0\x19_\xe1\x04_\xcb\x02@'
p4132
tp4133
bag21
(g22
(I0
tp4134
g24
tp4135
Rp4136
(I1
(I3
tp4137
g229
I00
S'D\xe7\xee\xd7aq\x07@d\x9e\x03P\xa2\x18 \xc0\xb2\x96\xf1{-\x8e\x06@'
p4138
tp4139
bag21
(g22
(I0
tp4140
g24
tp4141
Rp4142
(I1
(I3
tp4143
g229
I00
S'V<\xdb\x99-b\x02@s\xd3@:\x7fA\x1e\xc0\xbf\x94H\xa7$\xf0\xff?'
p4144
tp4145
bag671
asg3547
(lp4146
g21
(g22
(I0
tp4147
g24
tp4148
Rp4149
(I1
(I3
tp4150
g218
I00
S'a\x85\xe9\xc7\x18\xb6\x0c@\xe06\xb7\xd0\xdf\xdb\x1f\xc0\x19_\xe1\x04_\xcb\x02@'
p4151
tp4152
bag21
(g22
(I0
tp4153
g24
tp4154
Rp4155
(I1
(I3
tp4156
g229
I00
S'D\xe7\xee\xd7aq\x07@d\x9e\x03P\xa2\x18 \xc0\xb2\x96\xf1{-\x8e\x06@'
p4157
tp4158
bag21
(g22
(I0
tp4159
g24
tp4160
Rp4161
(I1
(I3
tp4162
g229
I00
S'\xbe\x13Y^h\xbd\x02@\xe3\xc2^\xa1\xb6U\x1f\xc0\xb9*7\xddY\x01\x07@'
p4163
tp4164
bag21
(g22
(I0
tp4165
g24
tp4166
Rp4167
(I1
(I3
tp4168
g229
I00
S'zT\r\xfe&\xfe\xfd?~,i\xf5\xe3\x9c\x1d\xc0\xe2\x1a4?SB\x15@'
p4169
tp4170
bag21
(g22
(I0
tp4171
g24
tp4172
Rp4173
(I1
(I3
tp4174
g229
I00
S'X\xa4u\xbc=r\xf6?\x90\xee\xc4\x1eW\xf8\x1b\xc0\xcc: \xa4-\x95\x01\xc0'
p4175
tp4176
bag21
(g22
(I0
tp4177
g24
tp4178
Rp4179
(I1
(I3
tp4180
g229
I00
S'\xae\xea\x9e\xa3\xa2\xb1\xed?\xa4\xca\x1d?h\x96\x19\xc0dq\xdf\xb1\x9d\xe4\x05@'
p4181
tp4182
bag751
asg3548
(lp4183
g21
(g22
(I0
tp4184
g24
tp4185
Rp4186
(I1
(I3
tp4187
g218
I00
S'a\x85\xe9\xc7\x18\xb6\x0c@\xe06\xb7\xd0\xdf\xdb\x1f\xc0\x19_\xe1\x04_\xcb\x02@'
p4188
tp4189
bag21
(g22
(I0
tp4190
g24
tp4191
Rp4192
(I1
(I3
tp4193
g229
I00
S'D\xe7\xee\xd7aq\x07@d\x9e\x03P\xa2\x18 \xc0\xb2\x96\xf1{-\x8e\x06@'
p4194
tp4195
bag21
(g22
(I0
tp4196
g24
tp4197
Rp4198
(I1
(I3
tp4199
g229
I00
S'\xbe\x13Y^h\xbd\x02@\xe3\xc2^\xa1\xb6U\x1f\xc0\xb9*7\xddY\x01\x07@'
p4200
tp4201
bag21
(g22
(I0
tp4202
g24
tp4203
Rp4204
(I1
(I3
tp4205
g229
I00
S'zT\r\xfe&\xfe\xfd?~,i\xf5\xe3\x9c\x1d\xc0\xe2\x1a4?SB\x15@'
p4206
tp4207
bag21
(g22
(I0
tp4208
g24
tp4209
Rp4210
(I1
(I3
tp4211
g229
I00
S'X\xa4u\xbc=r\xf6?\x90\xee\xc4\x1eW\xf8\x1b\xc0\xcc: \xa4-\x95\x01\xc0'
p4212
tp4213
bag21
(g22
(I0
tp4214
g24
tp4215
Rp4216
(I1
(I3
tp4217
g229
I00
S'4#\xe8i\x80D\xf8?\xdd\x1dlTl\\\x19\xc0m\xc1\x1a\xec\xde\x01\x01\xc0'
p4218
tp4219
bag21
(g22
(I0
tp4220
g24
tp4221
Rp4222
(I1
(I3
tp4223
g229
I00
S"'\xc1{\xbc\xf6\x05\xf8?\x02^\x18\xdc\xb7\xac\x18\xc0o\x85MZ3\x91\xf3\xbf"
p4224
tp4225
bag813
asg3666
(lp4226
g21
(g22
(I0
tp4227
g24
tp4228
Rp4229
(I1
(I3
tp4230
g218
I00
S'a\x85\xe9\xc7\x18\xb6\x0c@\xe06\xb7\xd0\xdf\xdb\x1f\xc0\x19_\xe1\x04_\xcb\x02@'
p4231
tp4232
bag21
(g22
(I0
tp4233
g24
tp4234
Rp4235
(I1
(I3
tp4236
g229
I00
S'\x95\xf1`Tm\xb7\x0e@\x88\xe5\x1f@\xf69 \xc0ax\xb1\xc5\x0c\xc4\xf9?'
p4237
tp4238
bag21
(g22
(I0
tp4239
g24
tp4240
Rp4241
(I1
(I3
tp4242
g229
I00
S'\xfc\x1d\xa6\x1b?\xa8\t@\xbf\xd1p\x15\xb8\xac\x1f\xc0\xd1\xf4\xfe\xa7\xfaI\xf4?'
p4243
tp4244
bag887
asg57
g3677
sg3549
(lp4245
g21
(g22
(I0
tp4246
g24
tp4247
Rp4248
(I1
(I3
tp4249
g218
I00
S'a\x85\xe9\xc7\x18\xb6\x0c@\xe06\xb7\xd0\xdf\xdb\x1f\xc0\x19_\xe1\x04_\xcb\x02@'
p4250
tp4251
bag21
(g22
(I0
tp4252
g24
tp4253
Rp4254
(I1
(I3
tp4255
g229
I00
S'D\xe7\xee\xd7aq\x07@d\x9e\x03P\xa2\x18 \xc0\xb2\x96\xf1{-\x8e\x06@'
p4256
tp4257
bag21
(g22
(I0
tp4258
g24
tp4259
Rp4260
(I1
(I3
tp4261
g229
I00
S'\xbe\x13Y^h\xbd\x02@\xe3\xc2^\xa1\xb6U\x1f\xc0\xb9*7\xddY\x01\x07@'
p4262
tp4263
bag21
(g22
(I0
tp4264
g24
tp4265
Rp4266
(I1
(I3
tp4267
g229
I00
S'zT\r\xfe&\xfe\xfd?~,i\xf5\xe3\x9c\x1d\xc0\xe2\x1a4?SB\x15@'
p4268
tp4269
bag21
(g22
(I0
tp4270
g24
tp4271
Rp4272
(I1
(I3
tp4273
g229
I00
S'X\xa4u\xbc=r\xf6?\x90\xee\xc4\x1eW\xf8\x1b\xc0\xcc: \xa4-\x95\x01\xc0'
p4274
tp4275
bag21
(g22
(I0
tp4276
g24
tp4277
Rp4278
(I1
(I3
tp4279
g229
I00
S'4#\xe8i\x80D\xf8?\xdd\x1dlTl\\\x19\xc0m\xc1\x1a\xec\xde\x01\x01\xc0'
p4280
tp4281
bag21
(g22
(I0
tp4282
g24
tp4283
Rp4284
(I1
(I3
tp4285
g229
I00
S'\x9f5<Q\xb2\xb3\xf7?\xb3\xd6LI,\xe8\x16\xc0\xc2\x13\xbbtu\x87\x00\xc0'
p4286
tp4287
bag21
(g22
(I0
tp4288
g24
tp4289
Rp4290
(I1
(I3
tp4291
g229
I00
S'_\x1fd\x97D>\x00@W\xf2\x9b\xb2\x92\xd8\x15\xc0\x99\xbc\xd43\xf6\xfa\x08\xc0'
p4292
tp4293
bag21
(g22
(I0
tp4294
g24
tp4295
Rp4296
(I1
(I3
tp4297
g229
I00
S'\x7f\xf7\x8e\x1f\xfbq\x06@\x05\xa9\xa4M\x80 \x16\xc0\x85\x00\n\x0c\x80\xee\n\xc0'
p4298
tp4299
bag21
(g22
(I0
tp4300
g24
tp4301
Rp4302
(I1
(I3
tp4303
g229
I00
S'\xc6>\xe9 \xd2e\x0b@\xe4\xbc"M2\xad\x15\xc0\xbe~a\xe9h\n\x13@'
p4304
tp4305
bag1019
assg511
(dp4306
(Vrectangular_packing_box4
p4307
(g1858
(g218
S't\x0c\xc8^\xef>\t@'
p4308
tp4309
Rp4310
g1858
(g218
S'\xa2]\x85\x94\x9fT\x1d\xc0'
p4311
tp4312
Rp4313
g1858
(g218
S'\xe5~\x87\xa2@\x9f\xe6?'
p4314
tp4315
Rp4316
tp4317
tp4318
g3554
s(Vrectangular_packing_box1
p4319
(g1858
(g218
S'\xb3{\xf2\xb0Pk\x9a?'
p4320
tp4321
Rp4322
g1858
(g218
S'\xc66\xa9h\xac\xcd\x17\xc0'
p4323
tp4324
Rp4325
g1858
(g218
S'\xc7\xbc\x8e8d#\x00@'
p4326
tp4327
Rp4328
tp4329
tp4330
g529
s(Vsquare_packing_box1
p4331
(g1858
(g218
S'V\xd66\xc5\xe3"\x01@'
p4332
tp4333
Rp4334
g1858
(g218
S'6\x03\\\x90-\x1b\x1b\xc0'
p4335
tp4336
Rp4337
g1858
(g218
S',+MJA\xb7\xf5?'
p4338
tp4339
Rp4340
tp4341
tp4342
g541
s(Vrectangular_packing_box3
p4343
(g1858
(g218
S'\xd2\xab\x01JC\x8d\xee?'
p4344
tp4345
Rp4346
g1858
(g218
S'4-\xb12\x1a)\x1e\xc0'
p4347
tp4348
Rp4349
g1858
(g218
S'\xe3m\xa5\xd7fc\t@'
p4350
tp4351
Rp4352
tp4353
tp4354
g525
s(Vsquare_packing_box3
p4355
(g1858
(g218
S'\xa5\xc0\x02\x982\xb0\x05@'
p4356
tp4357
Rp4358
g1858
(g218
S'L\xe1A\xb3\xeb\xbe\x1a\xc0'
p4359
tp4360
Rp4361
g1858
(g218
S'\x9b\x92\xac\xc3\xd1\xb5\x07@'
p4362
tp4363
Rp4364
tp4365
tp4366
g537
s(Vsquare_packing_box4
p4367
(g1858
(g218
S':\xaeFv\xa5\x85\x0f@'
p4368
tp4369
Rp4370
g1858
(g218
S'\xb4\x1c\xe8\xa1\xb6\xcd\x1a\xc0'
p4371
tp4372
Rp4373
g1858
(g218
S"81$'\x13\xf7\x15@"
p4374
tp4375
Rp4376
tp4377
tp4378
g545
s(Vrectangular_packing_box2
p4379
(g1858
(g218
S'\x91\xed|?5^\xca\xbf'
p4380
tp4381
Rp4382
g1858
(g218
S"\x7fk'JB\x82\x1e\xc0"
p4383
tp4384
Rp4385
g1858
(g218
S'~\xabu\xe2r|\x15@'
p4386
tp4387
Rp4388
tp4389
tp4390
g521
s(Vsquare_packing_box2
p4391
(g1858
(g218
S'RF\\\x00\x1a\xc5\x02@'
p4392
tp4393
Rp4394
g1858
(g218
S'\xfdM(D\xc0A\x18\xc0'
p4395
tp4396
Rp4397
g1858
(g218
S'\ne\xe1\xebk]\x0f@'
p4398
tp4399
Rp4400
tp4401
tp4402
g533
ssg1954
(igtamp_utils.utils
CustomStateSaver
p4403
(dp4404
g1957
g21
(g22
(I0
tp4405
g24
tp4406
Rp4407
(I1
(I1
I3
tp4408
g218
I00
S'`\x85\xe9\xc7\x18\xb6\x0c@\xde6\xb7\xd0\xdf\xdb\x1f\xc0\x19_\xe1\x04_\xcb\x02@'
p4409
tp4410
bsg1964
Nsg1965
g1966
sg1967
I1
sg1642
(dp4411
Vright_wall_1
p4412
g21
(g22
(I0
tp4413
g24
tp4414
Rp4415
(I1
(I4
tp4416
g218
I00
S'H\xe1z\x14\xaeG\x12@&\\\x8f\xc2\xf5(\xd4\xbf\xcc\x7fH\xbf}\x1d\xed?\x00\x00\x00\x00\x00\x00\x00\x00'
p4417
tp4418
bsVc_obst5
p4419
g21
(g22
(I0
tp4420
g24
tp4421
Rp4422
(I1
(I4
tp4423
g218
I00
S"\x00\xffh\xc3\x1a<\x12@\x90t\xeb\x18\xddG\xdf?e\xaa`TR'\xed?\x8bB\xc06\xf8S\x16@"
p4424
tp4425
bsVentrance_right
p4426
g21
(g22
(I0
tp4427
g24
tp4428
Rp4429
(I1
(I4
tp4430
g218
I00
S'ffffff\n@H\xe1z\x14\xaeG\t\xc0\x9c\xc4 \xb0rh\xc1?\x00\x00\x00\x00\x00\x00\x00\x00'
p4431
tp4432
bsVcomputer_table
p4433
g21
(g22
(I0
tp4434
g24
tp4435
Rp4436
(I1
(I4
tp4437
g218
I00
S'\x00\x00\x00\x00\x00\x00\x13@\x00\x00\x00\x00\x00\x00\xf8\xbf\x96C\x8bl\xe7\xfb\xe7?\xd2!3\x7f|\xd9\x12@'
p4438
tp4439
bsVchair_6b56
p4440
g21
(g22
(I0
tp4441
g24
tp4442
Rp4443
(I1
(I4
tp4444
g218
I00
S'\x94=\n\xd7\xa3p\xf5?]\xe1z\x14\xaeG\xd1?\x00\x00\x00\x00\x00\x00\x00\x00\xd6$\xfaNBm\n@'
p4445
tp4446
bsVsquare_packing_box3
p4447
g21
(g22
(I0
tp4448
g24
tp4449
Rp4450
(I1
(I4
tp4451
g218
I00
S'\x82\xb7iq2\xb0\x05@\x0e\xf3V\xb0\xeb\xbe\x1a\xc0K7\x89A`\xe5\xd8?Y=\xd6\xc0\xd1\xb5\x07@'
p4452
tp4453
bsVsquare_packing_box2
p4454
g21
(g22
(I0
tp4455
g24
tp4456
Rp4457
(I1
(I4
tp4458
g218
I00
S'xi\x15\xda\x19\xc5\x02@\x9ak-G\xc0A\x18\xc0N7\x89A`\xe5\xd8?gz\xaa\xf7k]\x0f@'
p4459
tp4460
bsVtable
p4461
g21
(g22
(I0
tp4462
g24
tp4463
Rp4464
(I1
(I4
tp4465
g218
I00
S'\x7f\xf6#EdX\xed?\xac\xffs\x98//\xc0\xbf\x00\x00\x00\x00\x00\x00\x00\x00\x00\x00\x00\x00\x00\x00\x00\x00'
p4466
tp4467
bsVsquare_packing_box1
p4468
g21
(g22
(I0
tp4469
g24
tp4470
Rp4471
(I1
(I4
tp4472
g218
I00
S'G\x99\xaa\x96\xe3"\x01@\xecI\xae\xaf-\x1b\x1b\xc0L7\x89A`\xe5\xd8?R\x85D\x82A\xb7\xf5?'
p4473
tp4474
bsVback_wall_2
p4475
g21
(g22
(I0
tp4476
g24
tp4477
Rp4478
(I1
(I4
tp4479
g218
I00
S'\xaeG\xe1z\x14.\x13@\x80\x14\xaeG\xe1z\xc4?xX\xa85\xcd\xbb\xf2?\x00\x00\x00\x00\x00\x00\x00\x00'
p4480
tp4481
bsVchair_083c
p4482
g21
(g22
(I0
tp4483
g24
tp4484
Rp4485
(I1
(I4
tp4486
g218
I00
S'\xa4p=\n\xd7\xa3\xe0?333333\xe3\xbf\x00\x00\x00\x00\x00\x00\x00\x00\x00\x00\x00\x00\x00\x00\x00\x00'
p4487
tp4488
bsVback_wall_1
p4489
g21
(g22
(I0
tp4490
g24
tp4491
Rp4492
(I1
(I4
tp4493
g218
I00
S'\xaeG\xe1z\x14.\x13@\x80\x14\xaeG\xe1z\xc4?\xcc\x7fH\xbf}\x1d\xed?\x00\x00\x00\x00\x00\x00\x00\x00'
p4494
tp4495
bsVbottom_wall
p4496
g21
(g22
(I0
tp4497
g24
tp4498
Rp4499
(I1
(I4
tp4500
g218
I00
S'\x00\x00\x00\x00\x00\x00\xfc?\x00\x00\x00\x00\x00\x00\x00\x00\x00\x00\x00\x00\x00\x00\x00\x00\x00\x00\x00\x00\x00\x00\x00\x00'
p4501
tp4502
bsVcup_905a
p4503
g21
(g22
(I0
tp4504
g24
tp4505
Rp4506
(I1
(I4
tp4507
g218
I00
S'\x00\x00\x00\x00\x00\x00\xf0?\x83\xc0\xca\xa1E\xb6\xdb?\x1b/\xdd$\x06\x81\xed?\x00\x00\x00\x00\x00\x00\x00\x00'
p4508
tp4509
bsVplate_496f
p4510
g21
(g22
(I0
tp4511
g24
tp4512
Rp4513
(I1
(I4
tp4514
g218
I00
S"q=\n\xd7\xa3p\xe5?\x9dhW!\xe5'\xdd\xbf\x1b/\xdd$\x06\x81\xed?\x00\x00\x00\x00\x00\x00\x00\x00"
p4515
tp4516
bsVtoaster
p4517
g21
(g22
(I0
tp4518
g24
tp4519
Rp4520
(I1
(I4
tp4521
g218
I00
S')\\\x8f\xc2\xf5(\xf4\xbf\xe0z\x14\xaeG\xe1\xf2\xbf\xb8\x1e\x85\xebQ\xb8\xee?\x89/`\x9b\xf8\x8a\xe4?'
p4522
tp4523
bsVc_obst1
p4524
g21
(g22
(I0
tp4525
g24
tp4526
Rp4527
(I1
(I4
tp4528
g218
I00
S"x\xf1$\xfbD\xa5\x12@\x00\x05J\x97hH\x8f\xbfe\xaa`TR'\xed?\xfc\xe4X\xb9\xc0\xa9\x14@"
p4529
tp4530
bsVrectangular_packing_box4
p4531
g21
(g22
(I0
tp4532
g24
tp4533
Rp4534
(I1
(I4
tp4535
g218
I00
S'E\xe9\xe9\x9f\xef>\t@\xda\xe9\xcb\xa2\x9fT\x1d\xc0J7\x89A`\xe5\xd8?v\x01\x1f#@\x9f\xe6?'
p4536
tp4537
bsVmicrowave
p4538
g21
(g22
(I0
tp4539
g24
tp4540
Rp4541
(I1
(I4
tp4542
g218
I00
S'\x9a\x99\x99\x99\x99\x99\xf1\xbf\x00\x00\x00\x00\x00\x00\x00@7\x89A`\xe5\xd0\xee?\x00\x00\x00\x00\x00\x00\x00\x00'
p4543
tp4544
bsVc_obst7
p4545
g21
(g22
(I0
tp4546
g24
tp4547
Rp4548
(I1
(I4
tp4549
g218
I00
S"\xb7\x93\xf6\x81\xd2\x1d\x12@\xd6\xa4\xf4\xe6\xa5\xab\xb8?e\xaa`TR'\xed?`\xf2\x8b\xe4\xe3\x14\xf9?"
p4550
tp4551
bsVc_obst6
p4552
g21
(g22
(I0
tp4553
g24
tp4554
Rp4555
(I1
(I4
tp4556
g218
I00
S"\x10\x1e\xa6&\xf8\x18\x12@ \xcb_n\xb4h\xd5?e\xaa`TR'\xed?\xe6\xb9\xa7t\xdf\xb2\xed?"
p4557
tp4558
bsVcup_b6af
p4559
g21
(g22
(I0
tp4560
g24
tp4561
Rp4562
(I1
(I4
tp4563
g218
I00
S'R\xb8\x1e\x85\xebQ\xe8?\x9a\x99\x99\x99\x99\x99\xe1?\x1b/\xdd$\x06\x81\xed?\x00\x00\x00\x00\x00\x00\x00\x00'
p4564
tp4565
bsVc_obst4
p4566
g21
(g22
(I0
tp4567
g24
tp4568
Rp4569
(I1
(I4
tp4570
g218
I00
S"\xb4\x1a\xb9\x05V+\x12@P\xc4\x07\x80\x93\xf6\xc7\xbfe\xaa`TR'\xed?\xdf\xd6\x90\xb5\xbe\xc4\xf0?"
p4571
tp4572
bsVrectangular_packing_box2
p4573
g21
(g22
(I0
tp4574
g24
tp4575
Rp4576
(I1
(I4
tp4577
g218
I00
S'@6;_2^\xca\xbf\xde\xfa\xef+B\x82\x1e\xc0F7\x89A`\xe5\xd8?\x0ct\x8e\xd7r|\x15@'
p4578
tp4579
bsVplate_fa76
p4580
g21
(g22
(I0
tp4581
g24
tp4582
Rp4583
(I1
(I4
tp4584
g218
I00
S'=\n\xd7\xa3p=\xf2?\x00\x00\x00\x00\x00\x00\x00\x00\x1b/\xdd$\x06\x81\xed?\x00\x00\x00\x00\x00\x00\x00\x00'
p4585
tp4586
bsVfloorwalls
p4587
g21
(g22
(I0
tp4588
g24
tp4589
Rp4590
(I1
(I4
tp4591
g218
I00
S'\xc7\xcc\xcc\xcc\xcc\xcc\xfc?\x00\x00\x00\x00\x00\x00\x18\xc0H\xe1z\x14\xaeG\xc1?\x16-DT\xfb!\xf9?'
p4592
tp4593
bsVpin_c671
p4594
g21
(g22
(I0
tp4595
g24
tp4596
Rp4597
(I1
(I4
tp4598
g218
I00
S'\xc3\xf5(\\\x8f\xc2\xf1\xbf}?5^\xbaI\x02@\xb8\x1e\x85\xebQ\xb8\xfa?\x00\x00\x00\x00\x00\x00\x00\x00'
p4599
tp4600
bsVc_obst3
p4601
g21
(g22
(I0
tp4602
g24
tp4603
Rp4604
(I1
(I4
tp4605
g218
I00
S"w\x9a\xce2\x93m\x12@ \xd8N\xfaaM\xae?e\xaa`TR'\xed?(o\x81:\x89s\xc3?"
p4606
tp4607
bsVchair_2e39
p4608
g21
(g22
(I0
tp4609
g24
tp4610
Rp4611
(I1
(I4
tp4612
g218
I00
S'\x92fffff\xee?\x1dfffff\xf2\xbf\x00\x00\x00\x00\x00\x00\x00\x00\x07M\xe8QQF\xf3?'
p4613
tp4614
bsVentrance_left
p4615
g21
(g22
(I0
tp4616
g24
tp4617
Rp4618
(I1
(I4
tp4619
g218
I00
S'\x98\x99\x99\x99\x99\x99\xe9\xbfH\xe1z\x14\xaeG\t\xc0\x9c\xc4 \xb0rh\xc1?\x00\x00\x00\x00\x00\x00\x00\x00'
p4620
tp4621
bsVtop_wall_1
p4622
g21
(g22
(I0
tp4623
g24
tp4624
Rp4625
(I1
(I4
tp4626
g218
I00
S'H\xe1z\x14\xaeG\x12@\x80\x14\xaeG\xe1z\xc4?xX\xa85\xcd\xbb\xf2?\x00\x00\x00\x00\x00\x00\x00\x00'
p4627
tp4628
bsVrectangular_packing_box3
p4629
g21
(g22
(I0
tp4630
g24
tp4631
Rp4632
(I1
(I4
tp4633
g218
I00
S'\xfa\xdf\x87\xe7B\x8d\xee?5\x91\xb63\x1a)\x1e\xc0J7\x89A`\xe5\xd8?\xbe\x86[\xaafc\t@'
p4634
tp4635
bsVshaker
p4636
g21
(g22
(I0
tp4637
g24
tp4638
Rp4639
(I1
(I4
tp4640
g218
I00
S'\n\xd7\xa3p=\n\x01@\x14\xaeG\xe1z\x14\x02@\\\x8f\xc2\xf5(\\\xef?\x00\x00\x00\x00\x00\x00\x00\x00'
p4641
tp4642
bsVc_obst9
p4643
g21
(g22
(I0
tp4644
g24
tp4645
Rp4646
(I1
(I4
tp4647
g218
I00
S"\xc0bI\x8f\xab\xf9\x11@\x80\x97\xb3\xd4\x95!\x8b?e\xaa`TR'\xed?O:\x8c\x8eH\xa6\xfd?"
p4648
tp4649
bsVplate_835a
p4650
g21
(g22
(I0
tp4651
g24
tp4652
Rp4653
(I1
(I4
tp4654
g218
I00
S'\xf6(\\\x8f\xc2\xf5\xf0?\\\x8f\xc2\xf5(\\\xe7\xbf\x1b/\xdd$\x06\x81\xed?\x00\x00\x00\x00\x00\x00\x00\x00'
p4655
tp4656
bsVcup_58a2
p4657
g21
(g22
(I0
tp4658
g24
tp4659
Rp4660
(I1
(I4
tp4661
g218
I00
S'\x85\xebQ\xb8\x1e\x85\xe3?\xcd\xcc\xcc\xcc\xcc\xcc\xdc?\x1b/\xdd$\x06\x81\xed?\x00\x00\x00\x00\x00\x00\x00\x00'
p4662
tp4663
bsVleft_wall_1
p4664
g21
(g22
(I0
tp4665
g24
tp4666
Rp4667
(I1
(I4
tp4668
g218
I00
S'H\xe1z\x14\xaeG\x12@S\xb8\x1e\x85\xebQ\xe4?\xcc\x7fH\xbf}\x1d\xed?\x00\x00\x00\x00\x00\x00\x00\x00'
p4669
tp4670
bsVc_obst2
p4671
g21
(g22
(I0
tp4672
g24
tp4673
Rp4674
(I1
(I4
tp4675
g218
I00
S"\xb6V)Zw\xf2\x11@\x90D{\xdb\xf5c\xb1\xbfe\xaa`TR'\xed?I\xb4\\~\x06\x0e\xf4?"
p4676
tp4677
bsVsquare_packing_box4
p4678
g21
(g22
(I0
tp4679
g24
tp4680
Rp4681
(I1
(I4
tp4682
g218
I00
S'h\x05\x05\xb0\xa5\x85\x0f@\x94\xb7"\xb3\xb6\xcd\x1a\xc0U7\x89A`\xe5\xd8?5\xd1B5\x13\xf7\x15@'
p4683
tp4684
bsVrectangular_packing_box1
p4685
g21
(g22
(I0
tp4686
g24
tp4687
Rp4688
(I1
(I4
tp4689
g218
I00
S'\xfaB\xe0\x82Xk\x9a?\xb2\xb0\x1aL\xac\xcd\x17\xc0V7\x89A`\xe5\xd8?t)\xd01d#\x00@'
p4690
tp4691
bsVpin_371e
p4692
g21
(g22
(I0
tp4693
g24
tp4694
Rp4695
(I1
(I4
tp4696
g218
I00
S'333333\xf3\xbfffffff\xf6?\xb8\x1e\x85\xebQ\xb8\xee?\x00\x00\x00\x00\x00\x00\x00\x00'
p4697
tp4698
bsVfridge
p4699
g21
(g22
(I0
tp4700
g24
tp4701
Rp4702
(I1
(I4
tp4703
g218
I00
S'\xd7\xa3p=\n\xd7\xeb\xbf\x00\x00\x00\x00\x00\x00\x00\xc0\xcd\xcc\xcc\xcc\xcc\xcc\xf8?\x00\x00\x00\x00\x00\x00\x00\x00'
p4704
tp4705
bsVcup_d441
p4706
g21
(g22
(I0
tp4707
g24
tp4708
Rp4709
(I1
(I4
tp4710
g218
I00
S'\n\xd7\xa3p=\n\xef?\x8f\xc2\xf5(\\\x8f\xe2?\x1b/\xdd$\x06\x81\xed?\x00\x00\x00\x00\x00\x00\x00\x00'
p4711
tp4712
bsVshelf2
p4713
g21
(g22
(I0
tp4714
g24
tp4715
Rp4716
(I1
(I4
tp4717
g218
I00
S'\x00\x00\x00\x00\x00\x00\x0e@\xaeG\xe1z\x14\xae\x07@\x9c\xc4 \xb0rh\xc1?\xd2!3\x7f|\xd9\x12@'
p4718
tp4719
bsVtop_wall_2
p4720
g21
(g22
(I0
tp4721
g24
tp4722
Rp4723
(I1
(I4
tp4724
g218
I00
S'H\xe1z\x14\xaeG\x12@\x80\x14\xaeG\xe1z\xc4?\x16HP\xfc\x18\xf3\xfd?\x00\x00\x00\x00\x00\x00\x00\x00'
p4725
tp4726
bsVc_obst0
p4727
g21
(g22
(I0
tp4728
g24
tp4729
Rp4730
(I1
(I4
tp4731
g218
I00
S"\xce\x8dFbl\xed\x11@\xc63\x8acG\x81\xe0?e\xaa`TR'\xed?\x0b\xdc^L\x84*\x0f@"
p4732
tp4733
bsVshelf1
p4734
g21
(g22
(I0
tp4735
g24
tp4736
Rp4737
(I1
(I4
tp4738
g218
I00
S'\x00\x00\x00\x00\x00\x00\x13@\xaeG\xe1z\x14\xae\x07@\x9c\xc4 \xb0rh\xc1?\xd2!3\x7f|\xd9\x12@'
p4739
tp4740
bsVsink
p4741
g21
(g22
(I0
tp4742
g24
tp4743
Rp4744
(I1
(I4
tp4745
g218
I00
S'ffffff\xd6?333333\x01@\x9a\x99\x99\x99\x99\x99\xb9\xbf\x00\x00\x00\x00\x00\x00\x00\x00'
p4746
tp4747
bsVpr2
p4748
g21
(g22
(I0
tp4749
g24
tp4750
Rp4751
(I1
(I4
tp4752
g218
I00
S'_\x85\xe9\xc7\x18\xb6\x0c@\xdd6\xb7\xd0\xdf\xdb\x1f\xc0\x9a_\x94\xa0\xbf\xd0\xc1?\x19_\xe1\x04_\xcb\x02@'
p4753
tp4754
bsVchair_12d0
p4755
g21
(g22
(I0
tp4756
g24
tp4757
Rp4758
(I1
(I4
tp4759
g218
I00
S'^\xd2\x18\xad\xa3\xaa\xdb?Pf\x83L2r\xc6?\x00\x00\x00\x00\x00\x00\x00\x00\xf8\x81\r\x14M\xa6\x17@'
p4760
tp4761
bsVright_wall_2
p4762
g21
(g22
(I0
tp4763
g24
tp4764
Rp4765
(I1
(I4
tp4766
g218
I00
S'H\xe1z\x14\xaeG\x12@&\\\x8f\xc2\xf5(\xd4\xbfxX\xa85\xcd\xbb\xf2?\x00\x00\x00\x00\x00\x00\x00\x00'
p4767
tp4768
bsVknife_block
p4769
g21
(g22
(I0
tp4770
g24
tp4771
Rp4772
(I1
(I4
tp4773
g218
I00
S'R\xb8\x1e\x85\xebQ\xe0\xbfffffff\x02@`\xe5\xd0"\xdb\xf9\xee?\x00\x00\x00\x00\x00\x00\x00\x00'
p4774
tp4775
bsVleft_wall_2
p4776
g21
(g22
(I0
tp4777
g24
tp4778
Rp4779
(I1
(I4
tp4780
g218
I00
S'H\xe1z\x14\xaeG\x12@S\xb8\x1e\x85\xebQ\xe4?xX\xa85\xcd\xbb\xf2?\x00\x00\x00\x00\x00\x00\x00\x00'
p4781
tp4782
bsVleft_wall
p4783
g21
(g22
(I0
tp4784
g24
tp4785
Rp4786
(I1
(I4
tp4787
g218
I00
S'\x9a\x99\x99\x99\x99\x99\x07@H\xe1z\x14\xaeG\xff?\x9c\xc4 \xb0rh\xc1?\x00\x00\x00\x00\x00\x00\x00\x00'
p4788
tp4789
bsVkitchen
p4790
g21
(g22
(I0
tp4791
g24
tp4792
Rp4793
(I1
(I4
tp4794
g218
I00
S'\x00\x00\x00\x00\x00\x00\x00\x00\x00\x00\x00\x00\x00\x00\x00\x00\x00\x00\x00\x00\x00\x00\x00\x00\x00\x00\x00\x00\x00\x00\x00\x00'
p4795
tp4796
bsVtable2
p4797
g21
(g22
(I0
tp4798
g24
tp4799
Rp4800
(I1
(I4
tp4801
g218
I00
S'\x00\x00\x00\x00\x00\x00\x13@\x80\x14\xaeG\xe1z\xc4?S\x96!\x8euq\xec?\xd2!3\x7f|\xd9\x12@'
p4802
tp4803
bsVc_obst8
p4804
g21
(g22
(I0
tp4805
g24
tp4806
Rp4807
(I1
(I4
tp4808
g218
I00
S"[\xa9g\xb2\xfeT\x12@\xc0g\x9c4\xdb$\xdb?e\xaa`TR'\xed?yzZ\x8d\x8d\xd3\x08@"
p4809
tp4810
bsVplate_b4e7
p4811
g21
(g22
(I0
tp4812
g24
tp4813
Rp4814
(I1
(I4
tp4815
g218
I00
S'\x14\xaeG\xe1z\x14\xf2\xbf\x14\xaeG\xe1z\x14\x00@=\n\xd7\xa3p=\xf2?\x00\x00\x00\x00\x00\x00\x00\x00'
p4816
tp4817
bsVcooker
p4818
g21
(g22
(I0
tp4819
g24
tp4820
Rp4821
(I1
(I4
tp4822
g218
I00
S'\xaeG\xe1z\x14\xae\xff?\x85\xebQ\xb8\x1e\x85\xfb?\x00\x00\x00\x00\x00\x00\xe8?\x00\x00\x00\x00\x00\x00\x00\x00'
p4823
tp4824
bsVpin_a091
p4825
g21
(g22
(I0
tp4826
g24
tp4827
Rp4828
(I1
(I4
tp4829
g218
I00
S'\xdb\xf9~j\xbct\xf7\xbf)\\\x8f\xc2\xf5(\x02@\xb8\x1e\x85\xebQ\xb8\xfa?\x00\x00\x00\x00\x00\x00\x00\x00'
p4830
tp4831
bsVside_wall_2
p4832
g21
(g22
(I0
tp4833
g24
tp4834
Rp4835
(I1
(I4
tp4836
g218
I00
S'\xcf\xff\xff\xff\xff\xff\x14@\xc4\xff\xff\xff\xff\xb7!=\x9c\xc4 \xb0rh\xc1?#-DT\xfb!\xf9?'
p4837
tp4838
bsVside_wall_3
p4839
g21
(g22
(I0
tp4840
g24
tp4841
Rp4842
(I1
(I4
tp4843
g218
I00
S'\x00\x00\x00\x00\x00\x00\xfc?H\xe1z\x14\xaeG\t@\x9c\xc4 \xb0rh\xc1?\x00\x00\x00\x00\x00\x00\x00\x00'
p4844
tp4845
bsVmixer
p4846
g21
(g22
(I0
tp4847
g24
tp4848
Rp4849
(I1
(I4
tp4850
g218
I00
S'\n\xd7\xa3p=\n\xfb?ffffff\x02@d;\xdfO\x8d\x97\xee?\x00\x00\x00\x00\x00\x00\x00\x00'
p4851
tp4852
bsVside_wall_1
p4853
g21
(g22
(I0
tp4854
g24
tp4855
Rp4856
(I1
(I4
tp4857
g218
I00
S'\x9e\xff\xff\xff\xff\xff\xfb\xbf\x9b\xff\xff\xff\xff\x9f\x07\xbd\x9c\xc4 \xb0rh\xc1?#-DT\xfb!\xf9?'
p4858
tp4859
bsVbottom_wall_1
p4860
g21
(g22
(I0
tp4861
g24
tp4862
Rp4863
(I1
(I4
tp4864
g218
I00
S'H\xe1z\x14\xaeG\x12@\x80\x14\xaeG\xe1z\xc4?\xcc\x7fH\xbf}\x1d\xed?\x00\x00\x00\x00\x00\x00\x00\x00'
p4865
tp4866
bsVcan
p4867
g21
(g22
(I0
tp4868
g24
tp4869
Rp4870
(I1
(I4
tp4871
g218
I00
S'\x00\x00\x00\x00\x00\x00\xf4\xbfH\xe1z\x14\xaeG\xe1\xbf\n\xd7\xa3p=\n\xef?\x00\x00\x00\x00\x00\x00\x00\x00'
p4872
tp4873
bsVright_wall
p4874
g21
(g22
(I0
tp4875
g24
tp4876
Rp4877
(I1
(I4
tp4878
g218
I00
S'\x9a\x99\x99\x99\x99\x99\x07@H\xe1z\x14\xaeG\xff\xbf\x9c\xc4 \xb0rh\xc1?\x00\x00\x00\x00\x00\x00\x00\x00'
p4879
tp4880
bsVcoffe_machine
p4881
g21
(g22
(I0
tp4882
g24
tp4883
Rp4884
(I1
(I4
tp4885
g218
I00
S'\\\x8f\xc2\xf5(\\\xf5\xbf\xb8\x1e\x85\xebQ\xb8\xee?\n\xd7\xa3p=\n\xef?\x00\x00\x00\x00\x00\x00\x00\x00'
p4886
tp4887
bsVcomputer_chair
p4888
g21
(g22
(I0
tp4889
g24
tp4890
Rp4891
(I1
(I4
tp4892
g218
I00
S'\xcd\xcc\xcc\xcc\xcc\xcc\x10@\x00\x00\x00\x00\x00\x00\xf8\xbf\xa00\xb6\x10\xe4\xa9\x95\xbf\x00\x00\x00\x00\x00\x00\x00\x00'
p4893
tp4894
bssg2452
g21
(g22
(I0
tp4895
g24
tp4896
Rp4897
(I1
(I39
tp4898
g218
I00
S'\x00\x00\x00\x00\x00\x00\x00\x00\x00\x00\x00\x00\x00\x00\x00\x00\x00\x00\x00\x00\x00\x00\x00\x00\x00\x00\x00\x00\x00\x00\x00\x00\x00\x00\x00\x00\x00\x00\x00\x00\x00\x00\x00\x00\x00\x00\x00\x00\x00\x00\x00\x00\x00\x00\x00\x00\x00\x00\x00\x00\x00\x00\x00\x00\x00\x00\x00\x00\x00\x00\x00\x00\x00\x00\x00\x00\x00\x00\x00\x00\x00\x00\x00\x00\x00\x00\x00\x00\x00\x00\x00\x00\x00\x00\x00\x00@d;\xdfO\x8d\x87?\x00\x00\x00\x00\x00\x00\x00\x00\x00\x00\x00\x00\x00\x00\x00\x00\x00\x00\x00\x00\x00\x00\x00\x00\xec\xed\t\xf1\xcc\xa4\xf4?\x00\x00\x00\x00\x00\x00\x00\x00N"\xd0^p\xf8\x00\xc0\x00\x00\x00\x00\x00\x00\x00\x00\xa1\x03\r.\x04V\xe6\xbf\x00\x00\x00\x00\x00\x00\x00\x00\x00\x00\x00\x00\x00\x00\x00\x00\x00\x00\x00\x00\x00x\x13\xbd\x17\xd5H\xfb\xe9\xb5\x13\xbd\x00\x00\x00\x00\x00\x00\xc0<\x00\x00\x00\x00\x00\x00\x00\x00\x00\x00\x00\x00\x00\x00\x00\x00\xec\xed\t\xf1\xcc\xa4\xf4?\x00\x00\x00\x00\x00\x00\x00\x00N"\xd0^p\xf8\x00\xc0\x00\x00\x00\x00\x00\x00\x00\x00\x9f\x03\r.\x04V\xe6\xbf\x1ebzv?5\xa2\xbcy9\xe3\xc17\x89\xe1?\x00\x00\x00\x00\x00\x00\xcd<\xb2\xc2\xe4\xd4\xf8\xd4\x05\xbd\x00\x00\x00\x00\x00\x00\'=\x00\x00\x00\x00\x00\x00\x00\x00'
p4899
tp4900
bsg2459
I00
sbsg2460
Nsg2461
(dp4901
(g288
g288
g209
tp4902
g1145
s(g1105
g1146
g1146
tp4903
g1148
s(g1149
g1114
g209
tp4904
g1151
s(g390
g1108
g1146
tp4905
g1153
s(g209
g209
g209
tp4906
g1155
s(g1108
g288
g1146
tp4907
g1157
s(g1105
g339
g209
tp4908
g1159
s(g390
g1105
g209
tp4909
g1163
s(g209
g1108
g1146
tp4910
g1167
s(g390
g1149
g209
tp4911
g1169
s(g1146
g209
g1146
tp4912
g1171
s(g1108
g1149
g209
tp4913
g1175
s(g390
g1114
g1146
tp4914
g1177
s(g441
g1146
g209
tp4915
g1179
s(g1149
g288
g1146
tp4916
g1181
s(g288
g1146
g209
tp4917
g1185
s(g1105
g1105
g1146
tp4918
g1189
s(g1146
g1108
g1146
tp4919
g1191
s(g1149
g390
g209
tp4920
g1195
s(g1146
g1146
g209
tp4921
g1197
s(g209
g209
g1146
tp4922
g1201
s(g1108
g288
g209
tp4923
g1563
s(g1114
g390
g1146
tp4924
g1203
s(g288
g1108
g209
tp4925
g1205
s(g339
g441
g1146
tp4926
g1297
s(g1114
g209
g1146
tp4927
g1209
s(g288
g339
g1146
tp4928
g1569
s(g1114
g339
g1146
tp4929
g1213
s(g339
g1114
g209
tp4930
g1215
s(g1146
g1105
g1146
tp4931
g1217
s(g1105
g1149
g1146
tp4932
g1571
s(g288
g288
g1146
tp4933
g1221
s(g1149
g1108
g209
tp4934
g1223
s(g1146
g209
g209
tp4935
g1225
s(g390
g1114
g209
tp4936
g1231
s(g390
g441
g209
tp4937
g1485
s(g1105
g339
g1146
tp4938
g1235
s(g441
g390
g209
tp4939
g1237
s(g390
g1105
g1146
tp4940
g1239
s(g390
g288
g1146
tp4941
g1241
s(g1149
g390
g1146
tp4942
g1243
s(g1146
g339
g1146
tp4943
g1245
s(g1149
g209
g209
tp4944
g1247
s(g1146
g1149
g209
tp4945
g1251
s(g288
g1108
g1146
tp4946
g1253
s(g441
g288
g1146
tp4947
g1255
s(g441
g441
g209
tp4948
g1257
s(g1114
g339
g209
tp4949
g1259
s(g1149
g288
g209
tp4950
g1261
s(g1149
g441
g1146
tp4951
g1311
s(g441
g1105
g209
tp4952
g1207
s(g1108
g1105
g209
tp4953
g1265
s(g1105
g1105
g209
tp4954
g1267
s(g1108
g1114
g1146
tp4955
g1273
s(g1114
g390
g209
tp4956
g1277
s(g288
g1114
g1146
tp4957
g1279
s(g1114
g209
g209
tp4958
g1281
s(g390
g288
g209
tp4959
g1283
s(g288
g441
g209
tp4960
g1285
s(g339
g1114
g1146
tp4961
g1287
s(g1149
g209
g1146
tp4962
g1291
s(g1149
g1108
g1146
tp4963
g1293
s(g441
g288
g209
tp4964
g1295
s(g1146
g1114
g209
tp4965
g1495
s(g288
g1149
g1146
tp4966
g1299
s(g390
g441
g1146
tp4967
g1527
s(g1114
g1146
g209
tp4968
g1301
s(g441
g390
g1146
tp4969
g1303
s(g441
g1114
g1146
tp4970
g1305
s(g1108
g1105
g1146
tp4971
g1307
s(g1105
g390
g209
tp4972
g1475
s(g1114
g1146
g1146
tp4973
g1263
s(g1146
g339
g209
tp4974
g1313
s(g288
g1114
g209
tp4975
g1317
s(g1108
g1114
g209
tp4976
g1319
s(g1146
g441
g209
tp4977
g1321
s(g209
g390
g1146
tp4978
g1289
s(g441
g1149
g209
tp4979
g1187
s(g1114
g441
g1146
tp4980
g1331
s(g390
g390
g209
tp4981
g1589
s(g339
g1146
g1146
tp4982
g1335
s(g1105
g1114
g209
tp4983
g1339
s(g288
g1149
g209
tp4984
g1341
s(g339
g288
g1146
tp4985
g1345
s(g441
g1114
g209
tp4986
g1347
s(g1108
g1146
g1146
tp4987
g1349
s(g390
g209
g209
tp4988
g1351
s(g209
g339
g209
tp4989
g1229
s(g1146
g1114
g1146
tp4990
g1357
s(g1146
g441
g1146
tp4991
g1359
s(g1105
g441
g209
tp4992
g1361
s(g1149
g1146
g209
tp4993
g1193
s(g1105
g1114
g1146
tp4994
g1365
s(g339
g288
g209
tp4995
g1367
s(g288
g390
g209
tp4996
g1369
s(g339
g209
g1146
tp4997
g1371
s(g1108
g1146
g209
tp4998
g1373
s(g441
g1149
g1146
tp4999
g1593
s(g339
g1146
g209
tp5000
g1385
s(g390
g1108
g209
tp5001
g1607
s(g441
g1108
g209
tp5002
g1387
s(g390
g1146
g1146
tp5003
g1391
s(g339
g1149
g1146
tp5004
g1393
s(g390
g209
g1146
tp5005
g1395
s(g1105
g390
g1146
tp5006
g1397
s(g441
g209
g1146
tp5007
g1401
s(g339
g209
g209
tp5008
g1403
s(g1114
g1114
g209
tp5009
g1407
s(g1105
g441
g1146
tp5010
g1415
s(g1108
g441
g209
tp5011
g1411
s(g1105
g288
g209
tp5012
g1413
s(g209
g1149
g209
tp5013
g1183
s(g209
g390
g209
tp5014
g1419
s(g1149
g339
g1146
tp5015
g1421
s(g339
g1105
g209
tp5016
g1423
s(g1114
g1149
g209
tp5017
g1425
s(g441
g1108
g1146
tp5018
g1427
s(g441
g339
g1146
tp5019
g1429
s(g1146
g1108
g209
tp5020
g1409
s(g209
g441
g1146
tp5021
g1355
s(g339
g1149
g209
tp5022
g1437
s(g1108
g339
g1146
tp5023
g1439
s(g288
g390
g1146
tp5024
g1433
s(g339
g441
g209
tp5025
g1599
s(g1108
g1108
g1146
tp5026
g1445
s(g1114
g1114
g1146
tp5027
g1449
s(g1105
g1108
g1146
tp5028
g1451
s(g1105
g1149
g209
tp5029
g1525
s(g1149
g1105
g209
tp5030
g1455
s(g209
g1149
g1146
tp5031
g1457
s(g209
g1114
g1146
tp5032
g1459
s(g390
g1146
g209
tp5033
g1461
s(g1105
g288
g1146
tp5034
g1463
s(g1114
g1105
g1146
tp5035
g1465
s(g1149
g339
g209
tp5036
g1469
s(g288
g1105
g209
tp5037
g1441
s(g390
g339
g1146
tp5038
g1471
s(g1114
g1149
g1146
tp5039
g1473
s(g1146
g390
g1146
tp5040
g1315
s(g1108
g339
g209
tp5041
g1481
s(g1105
g209
g1146
tp5042
g1483
s(g339
g1108
g209
tp5043
g1233
s(g1114
g441
g209
tp5044
g1363
s(g1146
g1149
g1146
tp5045
g1491
s(g1108
g441
g1146
tp5046
g1493
s(g1149
g1149
g1146
tp5047
g1497
s(g1105
g1108
g209
tp5048
g1501
s(g339
g1105
g1146
tp5049
g1505
s(g441
g209
g209
tp5050
g1507
s(g1149
g1105
g1146
tp5051
g1509
s(g441
g339
g209
tp5052
g1511
s(g339
g390
g209
tp5053
g1513
s(g288
g1105
g1146
tp5054
g1517
s(g1114
g288
g209
tp5055
g1519
s(g1149
g1146
g1146
tp5056
g1521
s(g1108
g390
g209
tp5057
g1453
s(g339
g1108
g1146
tp5058
g1327
s(g339
g339
g1146
tp5059
g1467
s(g1108
g209
g209
tp5060
g1531
s(g441
g441
g1146
tp5061
g1487
s(g1146
g288
g1146
tp5062
g1503
s(g209
g1114
g209
tp5063
g1539
s(g209
g441
g209
tp5064
g1541
s(g1114
g1105
g209
tp5065
g1543
s(g288
g441
g1146
tp5066
g1323
s(g1149
g441
g209
tp5067
g1547
s(g390
g339
g209
tp5068
g1549
s(g390
g390
g1146
tp5069
g1551
s(g1114
g1108
g1146
tp5070
g1553
s(g1108
g209
g1146
tp5071
g1555
s(g288
g209
g209
tp5072
g1557
s(g1105
g209
g209
tp5073
g1559
s(g1114
g288
g1146
tp5074
g1561
s(g209
g339
g1146
tp5075
g1309
s(g209
g1146
g209
tp5076
g1565
s(g1149
g1149
g209
tp5077
g1567
s(g209
g288
g1146
tp5078
g1211
s(g1108
g390
g1146
tp5079
g1219
s(g1146
g390
g209
tp5080
g1573
s(g1146
g288
g209
tp5081
g1523
s(g1105
g1146
g209
tp5082
g1579
s(g339
g390
g1146
tp5083
g1581
s(g209
g1105
g209
tp5084
g1583
s(g1149
g1114
g1146
tp5085
g1585
s(g1108
g1149
g1146
tp5086
g1587
s(g209
g1105
g1146
tp5087
g1333
s(g1114
g1108
g209
tp5088
g1591
s(g339
g339
g209
tp5089
g1379
s(g209
g1108
g209
tp5090
g1597
s(g1108
g1108
g209
tp5091
g1603
s(g441
g1105
g1146
tp5092
g1443
s(g441
g1146
g1146
tp5093
g1609
s(g288
g339
g209
tp5094
g1627
s(g288
g1146
g1146
tp5095
g1613
s(g288
g209
g1146
tp5096
g1617
s(g1146
g1146
g1146
tp5097
g1619
s(g390
g1149
g1146
tp5098
g1621
s(g209
g1146
g1146
tp5099
g1625
s(g209
g288
g209
tp5100
g1611
s(g1146
g1105
g209
tp5101
g1629
ssg2463
(dp5102
(g3547
g1146
tp5103
(lp5104
g21
(g22
(I0
tp5105
g24
tp5106
Rp5107
(I1
(I3
tp5108
g218
I00
S'}u\x0e\xab\x9dK\xe8?\x88\x9a\xdc\xb2\x02\xf7\x16\xc0\xde)\x11@\x9c\xe5\x08@'
p5109
tp5110
bas(g3549
g209
tp5111
(lp5112
g21
(g22
(I0
tp5113
g24
tp5114
Rp5115
(I1
(I3
tp5116
g218
I00
S'\xa4\xf3\x98\xc4\xd5\xc2\x0b@0^\xbc\xbbk\xfd\x18\xc0\xbc\x05V\x8bOy\x15@'
p5117
tp5118
bag21
(g22
(I0
tp5119
g24
tp5120
Rp5121
(I1
(I3
tp5122
g229
I00
S'vf\xb4P\xa4\x9a\t@\xce\xae\xeb\xa8B\x9b\x16\xc0\xbc\xe1\x13\xd5X\xf6\x17@'
p5123
tp5124
bag21
(g22
(I0
tp5125
g24
tp5126
Rp5127
(I1
(I3
tp5128
g229
I00
S'\x7f\xf7\x8e\x1f\xfbq\x06@\x05\xa9\xa4M\x80 \x16\xc0\x85\x00\n\x0c\x80\xee\n\xc0'
p5129
tp5130
bag21
(g22
(I0
tp5131
g24
tp5132
Rp5133
(I1
(I3
tp5134
g229
I00
S'_\x1fd\x97D>\x00@W\xf2\x9b\xb2\x92\xd8\x15\xc0\x99\xbc\xd43\xf6\xfa\x08\xc0'
p5135
tp5136
bag21
(g22
(I0
tp5137
g24
tp5138
Rp5139
(I1
(I3
tp5140
g229
I00
S'R\x12);\xaf\xa5\xf7?\xf3\xf9\xeb\x07c\xef\x15\xc0\xf0V^\xd6\x94\x96\x05\xc0'
p5141
tp5142
bag21
(g22
(I0
tp5143
g24
tp5144
Rp5145
(I1
(I3
tp5146
g229
I00
S'\xd0\xcb\x13\x8f\xaa\x9d\xed?\x90\x01<]3\x06\x16\xc0F\xf1\xe7x32\x02\xc0'
p5147
tp5148
bag21
(g22
(I0
tp5149
g24
tp5150
Rp5151
(I1
(I3
tp5152
g229
I00
S'l[\xc4\x16<\xe6\xe9?\xa6\xa0\x90\x84X\x9f\x13\xc0\xc2\xd74Q\x00\xaf\xff\xbf'
p5153
tp5154
bag21
(g22
(I0
tp5155
g24
tp5156
Rp5157
(I1
(I3
tp5158
g229
I00
S"\xaeJ\xbd\x1936\xec?\x04\x13\xd4'\x9f\x88\x10\xc0\x805qo\xb6\xe6\xff\xbf"
p5159
tp5160
bag21
(g22
(I0
tp5161
g24
tp5162
Rp5163
(I1
(I3
tp5164
g229
I00
S'\xf09\xb6\x1c*\x86\xee?\xc4\n/\x96\xcb\xe3\n\xc0\xa0\xc9\xd6F6\x0f\x00\xc0'
p5165
tp5166
bag21
(g22
(I0
tp5167
g24
tp5168
Rp5169
(I1
(I3
tp5170
g229
I00
S'3\xe9\xaf\x05T\x89\xe7?+~\xcb\xd3\x15\xc7\x04\xc0x6(d5\xed\x07@'
p5171
tp5172
bas(g3544
g209
tp5173
g3265
s(g3666
g1146
tp5174
(lp5175
g21
(g22
(I0
tp5176
g24
tp5177
Rp5178
(I1
(I3
tp5179
g218
I00
S'\xef\xa46e\xa9\x04\xfe?O\xad\x1c\x98Q\x99\x19\xc0l\xd3\xa8e\xb26\xc3?'
p5180
tp5181
bas(g3544
g1146
tp5182
(lp5183
g21
(g22
(I0
tp5184
g24
tp5185
Rp5186
(I1
(I3
tp5187
g218
I00
S'\x16\xf9C\xa2\x9d^\x0c@Dv\xef1\xf8\xad\x1a\xc0\x99P$\x82\xb7V\x10@'
p5188
tp5189
bas(g3666
g209
tp5190
g3477
s(g3548
g1146
tp5191
(lp5192
g21
(g22
(I0
tp5193
g24
tp5194
Rp5195
(I1
(I3
tp5196
g218
I00
S'u\x8d\xeb;(\x1b\xfd?L\x16\xf3\xd2\xc9V\x1a\xc0\x14K\x99o\x88\xee\xe4?'
p5197
tp5198
bas(g3548
g209
tp5199
g3427
s(g57
g209
tp5200
(lp5201
g21
(g22
(I0
tp5202
g24
tp5203
Rp5204
(I1
(I3
tp5205
g218
I00
S' \xa8\xe8\x9f\x88~\xf6?\xa2\xfb\xf36\xf4\x18\x1b\xc0\x93\xc6\x95\xb43\x9e\x18@'
p5206
tp5207
bag21
(g22
(I0
tp5208
g24
tp5209
Rp5210
(I1
(I3
tp5211
g229
I00
S"\xc6'8AN\xb0\xec?\xe0\x975>\x0f\x03\x19\xc0(\xe0e;\x85\x89\x05\xc0"
p5212
tp5213
bag21
(g22
(I0
tp5214
g24
tp5215
Rp5216
(I1
(I3
tp5217
g229
I00
S'\xd0\xcb\x13\x8f\xaa\x9d\xed?\x90\x01<]3\x06\x16\xc0F\xf1\xe7x32\x02\xc0'
p5218
tp5219
bag21
(g22
(I0
tp5220
g24
tp5221
Rp5222
(I1
(I3
tp5223
g229
I00
S'l[\xc4\x16<\xe6\xe9?\xa6\xa0\x90\x84X\x9f\x13\xc0\xc2\xd74Q\x00\xaf\xff\xbf'
p5224
tp5225
bag21
(g22
(I0
tp5226
g24
tp5227
Rp5228
(I1
(I3
tp5229
g229
I00
S"\xaeJ\xbd\x1936\xec?\x04\x13\xd4'\x9f\x88\x10\xc0\x805qo\xb6\xe6\xff\xbf"
p5230
tp5231
bag21
(g22
(I0
tp5232
g24
tp5233
Rp5234
(I1
(I3
tp5235
g229
I00
S'\xf09\xb6\x1c*\x86\xee?\xc4\n/\x96\xcb\xe3\n\xc0\xa0\xc9\xd6F6\x0f\x00\xc0'
p5236
tp5237
bag21
(g22
(I0
tp5238
g24
tp5239
Rp5240
(I1
(I3
tp5241
g229
I00
S'3\xe9\xaf\x05T\x89\xe7?+~\xcb\xd3\x15\xc7\x04\xc0x6(d5\xed\x07@'
p5242
tp5243
bas(g3546
g209
tp5244
g3377
s(g3546
g1146
tp5245
(lp5246
g21
(g22
(I0
tp5247
g24
tp5248
Rp5249
(I1
(I3
tp5250
g218
I00
S'x\xdc%t\xca\xaa\xc2?)\x93]\x15D\xd0\x1d\xc0\xb1\xe2\xc4\xfe&}\xc8?'
p5251
tp5252
bas(g3549
g1146
tp5253
(lp5254
g21
(g22
(I0
tp5255
g24
tp5256
Rp5257
(I1
(I3
tp5258
g218
I00
S'\xaa\xf3\x98\xc4\xd5\xc2\x0b@1^\xbc\xbbk\xfd\x18\xc0\xbb\x05V\x8bOy\x15@'
p5259
tp5260
bas(g57
g1146
tp5261
(lp5262
g21
(g22
(I0
tp5263
g24
tp5264
Rp5265
(I1
(I3
tp5266
g218
I00
S"'\xa8\xe8\x9f\x88~\xf6?\xa8\xfb\xf36\xf4\x18\x1b\xc0\x94\xc6\x95\xb43\x9e\x18@"
p5267
tp5268
bas(g3545
g1146
tp5269
(lp5270
g21
(g22
(I0
tp5271
g24
tp5272
Rp5273
(I1
(I3
tp5274
g218
I00
S'\x07%\x02O\xd3J\xdd?\x0c\r\xce\x9c\xf99\x1d\xc0B\x80?\x9d^Q\r@'
p5275
tp5276
bas(g3545
g209
tp5277
g3327
s(g3547
g209
tp5278
(lp5279
g21
(g22
(I0
tp5280
g24
tp5281
Rp5282
(I1
(I3
tp5283
g218
I00
S'\x90u\x0e\xab\x9dK\xe8?\x8e\x9a\xdc\xb2\x02\xf7\x16\xc0\xde)\x11@\x9c\xe5\x08@'
p5284
tp5285
bag21
(g22
(I0
tp5286
g24
tp5287
Rp5288
(I1
(I3
tp5289
g229
I00
S'&>c9\x01,\xeb?\xb2\xc2\xf0\x02\xce\x8e\x14\xc0\xd8p\xbb2\x14\xd2\x03@'
p5290
tp5291
bag21
(g22
(I0
tp5292
g24
tp5293
Rp5294
(I1
(I3
tp5295
g229
I00
S'\x97\xff-a\x91r\xf0?\x1a\x15\xfe\xb9:\x1b\x12\xc0\nG\xfe\xfa~y\x05@'
p5296
tp5297
bag21
(g22
(I0
tp5298
g24
tp5299
Rp5300
(I1
(I3
tp5301
g229
I00
S"M\xd6\xa3`\xc0H\xe6?\xcbR\xfc\xee\xb5'\x10\xc0\x08B\x8eh>\x9e\x08@"
p5302
tp5303
bag21
(g22
(I0
tp5304
g24
tp5305
Rp5306
(I1
(I3
tp5307
g229
I00
S'3z\xed\x8eN)\xe4?\x0c\x96\xd4\xa2\x0e\xd0\r\xc0\xbd%\xf5{\xe9\xf9\x03@'
p5308
tp5309
bag21
(g22
(I0
tp5310
g24
tp5311
Rp5312
(I1
(I3
tp5313
g229
I00
S'\xaf0\xe9h\xba~\xee?k\xbb\xd8\xd4\xd0g\t\xc09\x9ey\xed\xb06\x06@'
p5314
tp5315
bag21
(g22
(I0
tp5316
g24
tp5317
Rp5318
(I1
(I3
tp5319
g229
I00
S'\xf4\xfdJ\x1a(#\xec?H"\x9cD\x1aE\x05\xc0.\xa9\x0b\x87\xf8\xe1\x02@'
p5320
tp5321
bassg2684
(dp5322
(g390
g1108
tp5323
g2780
s(g339
g339
tp5324
g2786
s(g339
g441
tp5325
g2784
s(g288
g288
tp5326
g2974
s(g288
g441
tp5327
g2788
s(g209
g288
tp5328
g2984
s(g1108
g288
tp5329
g2792
s(g390
g1105
tp5330
g2794
s(g1114
g339
tp5331
g2796
s(g288
g1146
tp5332
g2800
s(g1114
g441
tp5333
g2832
s(g1149
g390
tp5334
g2958
s(g1105
g209
tp5335
g2816
s(g1149
g288
tp5336
g2818
s(g288
g1108
tp5337
g2820
s(g339
g1149
tp5338
g2822
s(g390
g390
tp5339
g2824
s(g1149
g1108
tp5340
g2922
s(g441
g288
tp5341
g2828
s(g288
g209
tp5342
g2830
s(g1149
g1146
tp5343
g2810
s(g1105
g1105
tp5344
g2836
s(g288
g1149
tp5345
g2838
s(g1146
g441
tp5346
g2842
s(g288
g390
tp5347
g2972
s(g1146
g339
tp5348
g2844
s(g441
g209
tp5349
g2846
s(g441
g1114
tp5350
g2852
s(g1149
g209
tp5351
g2856
s(g1105
g288
tp5352
g2858
s(g1149
g441
tp5353
g2862
s(g441
g1149
tp5354
g2864
s(g339
g390
tp5355
g2866
s(g1108
g1105
tp5356
g2868
s(g339
g288
tp5357
g2870
s(g1108
g209
tp5358
g2872
s(g1149
g1149
tp5359
g2874
s(g288
g339
tp5360
g2790
s(g1108
g1149
tp5361
g3006
s(g209
g1105
tp5362
g2880
s(g1114
g1146
tp5363
g2882
s(g209
g1114
tp5364
g2884
s(g1108
g339
tp5365
g2886
s(g339
g1105
tp5366
g2888
s(g441
g1146
tp5367
g2890
s(g339
g1114
tp5368
g2892
s(g441
g441
tp5369
g2894
s(g1114
g288
tp5370
g2896
s(g1146
g209
tp5371
g2898
s(g209
g390
tp5372
g2900
s(g1149
g1114
tp5373
g2904
s(g209
g1108
tp5374
g2906
s(g390
g441
tp5375
g2992
s(g1114
g1149
tp5376
g2910
s(g1108
g1146
tp5377
g2912
s(g1114
g390
tp5378
g2914
s(g1146
g390
tp5379
g2826
s(g1146
g288
tp5380
g2840
s(g1114
g209
tp5381
g2926
s(g390
g1114
tp5382
g2928
s(g1105
g1114
tp5383
g2930
s(g1146
g1146
tp5384
g2934
s(g1105
g441
tp5385
g2938
s(g1146
g1105
tp5386
g2940
s(g1146
g1114
tp5387
g2944
s(g1105
g1149
tp5388
g2946
s(g390
g288
tp5389
g2948
s(g339
g209
tp5390
g2950
s(g288
g1105
tp5391
g2956
s(g1146
g1108
tp5392
g2814
s(g288
g1114
tp5393
g2960
s(g441
g390
tp5394
g2962
s(g390
g1146
tp5395
g2964
s(g1114
g1114
tp5396
g2966
s(g1108
g390
tp5397
g2968
s(g1105
g1108
tp5398
g2970
s(g209
g441
tp5399
g2932
s(g209
g339
tp5400
g2920
s(g1108
g1114
tp5401
g2976
s(g390
g209
tp5402
g2978
s(g441
g1105
tp5403
g2980
s(g339
g1146
tp5404
g2982
s(g1114
g1105
tp5405
g2986
s(g209
g1146
tp5406
g2990
s(g339
g1108
tp5407
g2908
s(g1149
g339
tp5408
g2994
s(g390
g1149
tp5409
g2996
s(g441
g339
tp5410
g2998
s(g209
g209
tp5411
g3000
s(g1114
g1108
tp5412
g3002
s(g1105
g390
tp5413
g2878
s(g209
g1149
tp5414
g3008
s(g441
g1108
tp5415
g3012
s(g1108
g441
tp5416
g3014
s(g390
g339
tp5417
g2936
s(g1146
g1149
tp5418
g3018
s(g1105
g339
tp5419
g3020
s(g1108
g1108
tp5420
g3024
s(g1105
g1146
tp5421
g3026
s(g1149
g1105
tp5422
g3028
ssg2686
(dp5423
g1149
(lp5424
I0
aI0
aI0
aI0
aI0
aI0
aI00
aI01
aI00
aI01
aI00
asg1146
(lp5425
I0
aI0
aI0
aI0
aI0
aI0
aI00
aI01
aI00
aI01
aI00
asg209
(lp5426
I0
aI0
aI0
aI0
aI0
aI0
aI00
aI01
aI01
aI01
aI00
asg208
(lp5427
I0
aI0
aI0
ag1858
(g218
S'2\xe9\xe9\x9f\xef>\t@'
p5428
tp5429
Rp5430
ag1858
(g218
S'\xd0\xe9\xcb\xa2\x9fT\x1d\xc0'
p5431
tp5432
Rp5433
ag1858
(g218
S'|\x01\x1f#@\x9f\xe6?'
p5434
tp5435
Rp5436
aI01
aI00
aI00
aI01
aI00
asg288
(lp5437
I0
aI0
aI0
ag1858
(g218
S'03;_2^\xca\xbf'
p5438
tp5439
Rp5440
ag1858
(g218
S'\xd2\xfa\xef+B\x82\x1e\xc0'
p5441
tp5442
Rp5443
ag1858
(g218
S'\x0ct\x8e\xd7r|\x15@'
p5444
tp5445
Rp5446
aI01
aI00
aI00
aI01
aI00
asg339
(lp5447
I0
aI0
aI0
ag1858
(g218
S'\x0b\xe0\x87\xe7B\x8d\xee?'
p5448
tp5449
Rp5450
ag1858
(g218
S'Y\x91\xb63\x1a)\x1e\xc0'
p5451
tp5452
Rp5453
ag1858
(g218
S'\xbe\x86[\xaafc\t@'
p5454
tp5455
Rp5456
aI01
aI00
aI00
aI01
aI00
asg1114
(lp5457
I0
aI0
aI0
ag1858
(g218
S'Zc\xe0\x82Xk\x9a?'
p5458
tp5459
Rp5460
ag1858
(g218
S'e\xb0\x1aL\xac\xcd\x17\xc0'
p5461
tp5462
Rp5463
ag1858
(g218
S't)\xd01d#\x00@'
p5464
tp5465
Rp5466
aI01
aI00
aI00
aI01
aI00
asg390
(lp5467
I0
aI0
aI0
ag1858
(g218
S'\xe8h\x15\xda\x19\xc5\x02@'
p5468
tp5469
Rp5470
ag1858
(g218
S'Qk-G\xc0A\x18\xc0'
p5471
tp5472
Rp5473
ag1858
(g218
S'gz\xaa\xf7k]\x0f@'
p5474
tp5475
Rp5476
aI01
aI00
aI00
aI01
aI00
asg441
(lp5477
I0
aI0
aI0
ag1858
(g218
S'"\xb7iq2\xb0\x05@'
p5478
tp5479
Rp5480
ag1858
(g218
S'\xdf\xf2V\xb0\xeb\xbe\x1a\xc0'
p5481
tp5482
Rp5483
ag1858
(g218
S'Y=\xd6\xc0\xd1\xb5\x07@'
p5484
tp5485
Rp5486
aI01
aI00
aI00
aI00
aI00
asg1105
(lp5487
I0
aI0
aI0
ag1858
(g218
S'<\x99\xaa\x96\xe3"\x01@'
p5488
tp5489
Rp5490
ag1858
(g218
S'\xd6I\xae\xaf-\x1b\x1b\xc0'
p5491
tp5492
Rp5493
ag1858
(g218
S'R\x85D\x82A\xb7\xf5?'
p5494
tp5495
Rp5496
aI01
aI00
aI01
aI01
aI00
asg1108
(lp5497
I0
aI0
aI0
ag1858
(g218
S'L\x05\x05\xb0\xa5\x85\x0f@'
p5498
tp5499
Rp5500
ag1858
(g218
S'\x9c\xb7"\xb3\xb6\xcd\x1a\xc0'
p5501
tp5502
Rp5503
ag1858
(g218
S'5\xd1B5\x13\xf7\x15@'
p5504
tp5505
Rp5506
aI01
aI00
aI00
aI01
aI00
assg2771
(dp5507
sg2773
g111
sg2774
g2775
sg2777
(dp5508
(g390
g1108
tp5509
(lp5510
I00
aI00
aI00
as(g390
g208
tp5511
(lp5512
I00
aI00
aI00
as(g339
g441
tp5513
(lp5514
I00
aI00
aI00
as(g339
g339
tp5515
(lp5516
I00
aI00
aI00
as(g288
g441
tp5517
(lp5518
I00
aI00
aI00
as(g288
g339
tp5519
(lp5520
I00
aI00
aI00
as(g1108
g288
tp5521
(lp5522
I00
aI00
aI00
as(g390
g1105
tp5523
(lp5524
I00
aI00
aI00
as(g1114
g339
tp5525
(lp5526
I00
aI00
aI00
as(g208
g208
tp5527
(lp5528
I00
aI00
aI00
as(g288
g1146
tp5529
(lp5530
g2808
aI00
aI01
as(g1149
g1146
tp5531
(lp5532
I00
aI00
aI00
as(g208
g1108
tp5533
(lp5534
I00
aI00
aI00
as(g1146
g1108
tp5535
(lp5536
I00
aI00
aI00
as(g1105
g209
tp5537
(lp5538
I00
aI00
aI01
as(g1149
g288
tp5539
(lp5540
I00
aI00
aI00
as(g288
g1108
tp5541
(lp5542
I00
aI00
aI00
as(g339
g1149
tp5543
(lp5544
g2808
aI00
aI00
as(g390
g390
tp5545
(lp5546
I00
aI00
aI00
as(g1146
g390
tp5547
(lp5548
I00
aI00
aI00
as(g441
g288
tp5549
(lp5550
I00
aI00
aI00
as(g288
g209
tp5551
(lp5552
I00
aI00
aI00
as(g1114
g441
tp5553
(lp5554
I00
aI00
aI00
as(g208
g1114
tp5555
(lp5556
I00
aI00
aI00
as(g1105
g1105
tp5557
(lp5558
I00
aI00
aI00
as(g288
g1149
tp5559
(lp5560
g2808
aI00
aI00
as(g1146
g288
tp5561
(lp5562
I00
aI00
aI00
as(g1146
g441
tp5563
(lp5564
I00
aI00
aI00
as(g1146
g339
tp5565
(lp5566
I00
aI00
aI00
as(g441
g209
tp5567
(lp5568
I00
aI00
aI00
as(g1108
g208
tp5569
(lp5570
I00
aI00
aI00
as(g1114
g208
tp5571
(lp5572
I00
aI00
aI00
as(g441
g1114
tp5573
(lp5574
I00
aI00
aI00
as(g1146
g208
tp5575
(lp5576
I00
aI00
aI00
as(g1149
g209
tp5577
(lp5578
I00
aI00
aI00
as(g1105
g288
tp5579
(lp5580
I00
aI00
aI00
as(g208
g441
tp5581
(lp5582
I00
aI01
aI00
as(g1149
g441
tp5583
(lp5584
I00
aI00
aI00
as(g441
g1149
tp5585
(lp5586
g2808
aI00
aI00
as(g339
g390
tp5587
(lp5588
I00
aI00
aI00
as(g1108
g1105
tp5589
(lp5590
I00
aI00
aI00
as(g339
g288
tp5591
(lp5592
I00
aI00
aI00
as(g1108
g209
tp5593
(lp5594
I00
aI00
aI01
as(g1149
g1149
tp5595
(lp5596
I00
aI00
aI00
as(g441
g208
tp5597
(lp5598
I00
aI00
aI00
as(g1105
g390
tp5599
(lp5600
I00
aI00
aI00
as(g209
g1105
tp5601
(lp5602
I00
aI00
aI00
as(g1114
g1146
tp5603
(lp5604
g2808
aI00
aI01
as(g209
g1114
tp5605
(lp5606
I00
aI00
aI00
as(g1108
g339
tp5607
(lp5608
I00
aI00
aI00
as(g339
g1105
tp5609
(lp5610
I00
aI00
aI00
as(g441
g1146
tp5611
(lp5612
g2808
aI00
aI01
as(g339
g1114
tp5613
(lp5614
I00
aI00
aI00
as(g441
g441
tp5615
(lp5616
I00
aI00
aI00
as(g1114
g288
tp5617
(lp5618
I00
aI00
aI00
as(g1146
g209
tp5619
(lp5620
I00
aI00
aI00
as(g209
g390
tp5621
(lp5622
I00
aI00
aI00
as(g208
g209
tp5623
(lp5624
I00
aI00
aI00
as(g1149
g1114
tp5625
(lp5626
I00
aI00
aI00
as(g209
g1108
tp5627
(lp5628
I00
aI00
aI00
as(g339
g1108
tp5629
(lp5630
I00
aI00
aI00
as(g1114
g1149
tp5631
(lp5632
g2808
aI00
aI00
as(g1108
g1146
tp5633
(lp5634
g2808
aI00
aI01
as(g1114
g390
tp5635
(lp5636
I00
aI00
aI00
as(g208
g288
tp5637
(lp5638
I00
aI00
aI00
as(g208
g1146
tp5639
(lp5640
g2808
aI00
aI01
as(g209
g339
tp5641
(lp5642
I00
aI00
aI00
as(g1149
g1108
tp5643
(lp5644
I00
aI00
aI00
as(g1149
g208
tp5645
(lp5646
I00
aI00
aI00
as(g1114
g209
tp5647
(lp5648
I00
aI00
aI01
as(g390
g1114
tp5649
(lp5650
I00
aI00
aI00
as(g1105
g1114
tp5651
(lp5652
I00
aI00
aI00
as(g209
g441
tp5653
(lp5654
I00
aI00
aI00
as(g1146
g1146
tp5655
(lp5656
I00
aI00
aI00
as(g390
g339
tp5657
(lp5658
I00
aI00
aI00
as(g1105
g441
tp5659
(lp5660
I00
aI00
aI00
as(g1146
g1105
tp5661
(lp5662
I00
aI00
aI00
as(g288
g208
tp5663
(lp5664
I00
aI00
aI00
as(g1146
g1114
tp5665
(lp5666
I00
aI00
aI00
as(g1105
g1149
tp5667
(lp5668
g2808
aI00
aI00
as(g390
g288
tp5669
(lp5670
I00
aI00
aI00
as(g339
g209
tp5671
(lp5672
I00
aI00
aI00
as(g1105
g208
tp5673
(lp5674
I00
aI00
aI00
as(g208
g1105
tp5675
(lp5676
I00
aI00
aI00
as(g288
g1105
tp5677
(lp5678
I00
aI00
aI00
as(g1149
g390
tp5679
(lp5680
I00
aI00
aI00
as(g288
g1114
tp5681
(lp5682
I00
aI00
aI00
as(g441
g390
tp5683
(lp5684
I00
aI00
aI00
as(g390
g1146
tp5685
(lp5686
g2808
aI00
aI01
as(g1114
g1114
tp5687
(lp5688
I00
aI00
aI00
as(g1108
g390
tp5689
(lp5690
I00
aI00
aI00
as(g1105
g1108
tp5691
(lp5692
I00
aI00
aI00
as(g288
g390
tp5693
(lp5694
I00
aI00
aI00
as(g288
g288
tp5695
(lp5696
I00
aI00
aI00
as(g1108
g1114
tp5697
(lp5698
I00
aI00
aI00
as(g390
g209
tp5699
(lp5700
I00
aI00
aI00
as(g441
g1105
tp5701
(lp5702
I00
aI00
aI00
as(g339
g1146
tp5703
(lp5704
g2808
aI00
aI01
as(g209
g288
tp5705
(lp5706
I00
aI00
aI00
as(g1114
g1105
tp5707
(lp5708
I00
aI00
aI00
as(g208
g339
tp5709
(lp5710
I00
aI00
aI00
as(g209
g1146
tp5711
(lp5712
I00
aI00
aI00
as(g390
g441
tp5713
(lp5714
I00
aI00
aI00
as(g1149
g339
tp5715
(lp5716
I00
aI00
aI00
as(g390
g1149
tp5717
(lp5718
g2808
aI00
aI00
as(g441
g339
tp5719
(lp5720
I00
aI00
aI00
as(g209
g209
tp5721
(lp5722
I00
aI00
aI00
as(g1114
g1108
tp5723
(lp5724
I00
aI00
aI00
as(g208
g1149
tp5725
(lp5726
g2808
aI00
aI00
as(g1108
g1149
tp5727
(lp5728
g2808
aI00
aI00
as(g209
g1149
tp5729
(lp5730
I00
aI00
aI00
as(g209
g208
tp5731
(lp5732
I00
aI00
aI00
as(g441
g1108
tp5733
(lp5734
I00
aI00
aI00
as(g1108
g441
tp5735
(lp5736
I00
aI00
aI00
as(g339
g208
tp5737
(lp5738
I00
aI00
aI00
as(g1146
g1149
tp5739
(lp5740
I00
aI00
aI00
as(g1105
g339
tp5741
(lp5742
I00
aI00
aI00
as(g208
g390
tp5743
(lp5744
I00
aI00
aI00
as(g1108
g1108
tp5745
(lp5746
I00
aI00
aI00
as(g1105
g1146
tp5747
(lp5748
g2808
aI00
aI01
as(g1149
g1105
tp5749
(lp5750
I00
aI00
aI00
assg508
g3543
sg3029
(itrajectory_representation.predicates.pick_in_way
PickInWay
p5751
(dp5752
g206
(dp5753
g208
g4083
sg288
g4090
sg339
g4127
sg1114
g4146
sg390
g4183
sg441
g4226
sg1105
g3677
sg1108
g4245
ssg486
(dp5754
g208
(lp5755
sg288
(lp5756
sg339
(lp5757
sg1114
(lp5758
sg390
(lp5759
sg441
(lp5760
Vrectangular_packing_box4
p5761
asg1105
(lp5762
sg1108
(lp5763
ssg508
(lp5764
g1114
ag390
ag288
ag339
ag1108
ag208
ag1149
ag209
ag1146
ag1105
ag1149
ag209
ag1146
ag1149
ag209
ag1146
ag1149
ag209
ag1146
ag1149
ag209
ag1146
ag1149
ag209
ag1146
ag1149
ag209
ag1146
ag1149
ag209
ag1146
asg511
g3550
sg113
(dp5765
sg546
g3562
sg1092
Nsg1098
g3562
sg1095
(dp5766
sg1097
I8
sg1141
I01
sg1099
Nsg1100
(dp5767
(g390
g1108
tp5768
I00
s(g390
g208
tp5769
I00
s(g339
g441
tp5770
I00
s(g339
g339
tp5771
I00
s(g288
g441
tp5772
I00
s(g288
g339
tp5773
I00
s(g1108
g288
tp5774
I00
s(g390
g1105
tp5775
I00
s(g1114
g339
tp5776
I00
s(g208
g208
tp5777
I00
s(g288
g1146
tp5778
I00
s(g1149
g1146
tp5779
I00
s(g208
g1108
tp5780
I00
s(g1146
g1108
tp5781
I00
s(g1105
g209
tp5782
I00
s(g1149
g288
tp5783
I00
s(g288
g1108
tp5784
I00
s(g339
g1149
tp5785
I00
s(g390
g390
tp5786
I00
s(g1146
g390
tp5787
I00
s(g441
g288
tp5788
I00
s(g288
g209
tp5789
I00
s(g1114
g441
tp5790
I00
s(g208
g1114
tp5791
I00
s(g1105
g1105
tp5792
I00
s(g288
g1149
tp5793
I00
s(g1146
g288
tp5794
I00
s(g1146
g441
tp5795
I00
s(g1146
g339
tp5796
I00
s(g441
g209
tp5797
I00
s(g1108
g208
tp5798
I00
s(g1114
g208
tp5799
I00
s(g441
g1114
tp5800
I00
s(g1146
g208
tp5801
I00
s(g1149
g209
tp5802
I00
s(g1105
g288
tp5803
I00
s(g208
g441
tp5804
I01
s(g1149
g441
tp5805
I00
s(g441
g1149
tp5806
I00
s(g339
g390
tp5807
I00
s(g1108
g1105
tp5808
I00
s(g339
g288
tp5809
I00
s(g1108
g209
tp5810
I00
s(g1149
g1149
tp5811
I00
s(g441
g208
tp5812
I00
s(g1105
g390
tp5813
I00
s(g209
g1105
tp5814
I00
s(g1114
g1146
tp5815
I00
s(g209
g1114
tp5816
I00
s(g1108
g339
tp5817
I00
s(g339
g1105
tp5818
I00
s(g441
g1146
tp5819
I00
s(g339
g1114
tp5820
I00
s(g441
g441
tp5821
I00
s(g1114
g288
tp5822
I00
s(g1146
g209
tp5823
I00
s(g209
g390
tp5824
I00
s(g208
g209
tp5825
I00
s(g1149
g1114
tp5826
I00
s(g209
g1108
tp5827
I00
s(g339
g1108
tp5828
I00
s(g1114
g1149
tp5829
I00
s(g1108
g1146
tp5830
I00
s(g1114
g390
tp5831
I00
s(g208
g288
tp5832
I00
s(g208
g1146
tp5833
I00
s(g209
g339
tp5834
I00
s(g1149
g1108
tp5835
I00
s(g1149
g208
tp5836
I00
s(g1114
g209
tp5837
I00
s(g390
g1114
tp5838
I00
s(g1105
g1114
tp5839
I00
s(g209
g441
tp5840
I00
s(g1146
g1146
tp5841
I00
s(g390
g339
tp5842
I00
s(g1105
g441
tp5843
I00
s(g1146
g1105
tp5844
I00
s(g288
g208
tp5845
I00
s(g1146
g1114
tp5846
I00
s(g1105
g1149
tp5847
I00
s(g390
g288
tp5848
I00
s(g339
g209
tp5849
I00
s(g1105
g208
tp5850
I00
s(g208
g1105
tp5851
I00
s(g288
g1105
tp5852
I00
s(g1149
g390
tp5853
I00
s(g288
g1114
tp5854
I00
s(g441
g390
tp5855
I00
s(g390
g1146
tp5856
I00
s(g1114
g1114
tp5857
I00
s(g1108
g390
tp5858
I00
s(g1105
g1108
tp5859
I00
s(g288
g390
tp5860
I00
s(g288
g288
tp5861
I00
s(g1108
g1114
tp5862
I00
s(g390
g209
tp5863
I00
s(g441
g1105
tp5864
I00
s(g339
g1146
tp5865
I00
s(g209
g288
tp5866
I00
s(g1114
g1105
tp5867
I00
s(g208
g339
tp5868
I00
s(g209
g1146
tp5869
I00
s(g390
g441
tp5870
I00
s(g1149
g339
tp5871
I00
s(g390
g1149
tp5872
I00
s(g441
g339
tp5873
I00
s(g209
g209
tp5874
I00
s(g1114
g1108
tp5875
I00
s(g208
g1149
tp5876
I00
s(g1108
g1149
tp5877
I00
s(g209
g1149
tp5878
I00
s(g209
g208
tp5879
I00
s(g441
g1108
tp5880
I00
s(g1108
g441
tp5881
I00
s(g339
g208
tp5882
I00
s(g1146
g1149
tp5883
I00
s(g1105
g339
tp5884
I00
s(g208
g390
tp5885
I00
s(g1108
g1108
tp5886
I00
s(g1105
g1146
tp5887
I00
s(g1149
g1105
tp5888
I00
ssg1140
Nsbsg3180
g21
(g22
(I0
tp5889
g24
tp5890
Rp5891
(I1
(I1
I3
tp5892
g218
I00
S'_\x85\xe9\xc7\x18\xb6\x0c@\xdf6\xb7\xd0\xdf\xdb\x1f\xc0\x19_\xe1\x04_\xcb\x02@'
p5893
tp5894
bsg3187
(itrajectory_representation.predicates.is_holding_goal_entity
IsHoldingGoalEntity
p5895
(dp5896
g2774
g2775
sg1099
Nsbsg3190
(dp5897
sg3192
g3550
sbasS'seed'
p5898
NsS'state_prime'
p5899
(lp5900
g3193
asS'problem_idx'
p5901
I71
sb.