(itrajectory_representation.trajectory
Trajectory
p0
(dp1
S'rewards'
p2
(lp3
I1
aI10
asS'actions'
p4
(lp5
(itrajectory_representation.operator
Operator
p6
(dp7
S'is_skeleton'
p8
I00
sS'discrete_parameters'
p9
(dp10
S'object'
p11
Vrectangular_packing_box4
p12
sS'two_arm_place_region'
p13
S'loading_region'
p14
sS'two_arm_place_object'
p15
g12
ssS'type'
p16
S'two_arm_pick_two_arm_place'
p17
sS'continuous_parameters'
p18
(dp19
S'q_goal'
p20
cnumpy.core.multiarray
_reconstruct
p21
(cnumpy
ndarray
p22
(I0
tp23
S'b'
p24
tp25
Rp26
(I1
(I3
tp27
cnumpy
dtype
p28
(S'f8'
p29
I0
I1
tp30
Rp31
(I3
S'<'
p32
NNNI-1
I-1
I0
tp33
bI00
S'\xb4\x88\xbe\xa9-\x88\xd4?\x90rLDD7\x18\xc0\xedO\xfd\x10\xf2\x0f\xf9?'
p34
tp35
bsS'place'
p36
(dp37
g20
g21
(g22
(I0
tp38
g24
tp39
Rp40
(I1
(I3
tp41
g31
I00
S'|\xe5\x19\x10\x94j\x04@\xa2t\xbe\xf9\x1d\xf6\x19\xc0\xd6\x9dL^\xaa\xe9\xf9?'
p42
tp43
bssS'pick'
p44
(dp45
g20
g26
sssS'low_level_motion'
p46
(lp47
g21
(g22
(I0
tp48
g24
tp49
Rp50
(I1
(I3
tp51
g31
I00
S'\xe8[s\xc8o\x08\xf4?\xb3\x9dp8]\x7f\x1f\xc0\x82\\\x1b\x8e\x12\x96\xfe?'
p52
tp53
bag21
(g22
(I0
tp54
g24
tp55
Rp56
(I1
(I3
tp57
g28
(S'f8'
p58
I0
I1
tp59
Rp60
(I3
S'<'
p61
NNNI-1
I-1
I0
tp62
bI00
S'r\xb4\xd66\xb5:\xe6?4\xd2\xb3\xd8Ho\x1f\xc0\x0f\xf8\x05\x85\xe9\x10\x00@'
p63
tp64
bag21
(g22
(I0
tp65
g24
tp66
Rp67
(I1
(I3
tp68
g60
I00
S'\xdb\xee8\xd0\xa2\xfd\xc5?\xb2\x0e(\xac\xe3\xcd\x1d\xc0a\xbax\xf1*\x16\x01@'
p69
tp70
bag21
(g22
(I0
tp71
g24
tp72
Rp73
(I1
(I3
tp74
g60
I00
S'\xc0T\xe2\x97\xaf3h\xbfv\xa30\xd5\xeb\xd1\x1a\xc0\x8a\rz\xc6\xa6z\x04@'
p75
tp76
bag21
(g22
(I0
tp77
g24
tp78
Rp79
(I1
(I3
tp80
g60
I00
S'Dz\xddx\xe9\xf0\xb4?\x9c\xf2\xf6\xf0\xef \x18\xc0\x03\xe5\x88\xf0JN\xf3?'
p81
tp82
bag26
ag26
asba(itrajectory_representation.operator
Operator
p83
(dp84
g8
I00
sg9
(dp85
g11
Vsquare_packing_box1
p86
sS'two_arm_place_region'
p87
S'home_region'
p88
sS'two_arm_place_object'
p89
g86
ssg16
S'two_arm_pick_two_arm_place'
p90
sg18
(dp91
g20
g21
(g22
(I0
tp92
g24
tp93
Rp94
(I1
(I3
tp95
g31
I00
S'\xa4\xfa\x0b\n\xc7\xc8\xc7?X\x13\xeeu\xba\x87\x18\xc0k\x817\xc3\xcbW\xe2?'
p96
tp97
bsg36
(dp98
g20
g21
(g22
(I0
tp99
g24
tp100
Rp101
(I1
(I3
tp102
g31
I00
S"06|p(\xcd\xf1?\xa0B\xa5\x811\xbc\x03\xc0\xc3\xcb\x9f\x19'\xce\xc1?"
p103
tp104
bssg44
(dp105
g20
g94
sssg46
(lp106
g21
(g22
(I0
tp107
g24
tp108
Rp109
(I1
(I3
tp110
g31
I00
S'\x7f\xe5\x19\x10\x94j\x04@\xa0t\xbe\xf9\x1d\xf6\x19\xc0\xd7\x9dL^\xaa\xe9\xf9?'
p111
tp112
bag21
(g22
(I0
tp113
g24
tp114
Rp115
(I1
(I3
tp116
g60
I00
S'\xb9\x81\xdfb\xdf\x92\xfe?\x1a\xe3?2\xb6\xec\x1a\xc0B\x1b\x81\xfa\x93C\xfa?'
p117
tp118
bag21
(g22
(I0
tp119
g24
tp120
Rp121
(I1
(I3
tp122
g60
I00
S'\xad\xa0\xdfFH\xe9\xf6?\xa3\xfc\x14D\x8bb\x1d\xc0\x9e2hH\xc0\xe5\xf0?'
p123
tp124
bag21
(g22
(I0
tp125
g24
tp126
Rp127
(I1
(I3
tp128
g60
I00
S"\xc6S\x92\x8e7i\xef?H}'\xb2\xea\x03\x1f\xc0\x1e\xe8\x98\xe5\t\x12\xf4?"
p129
tp130
bag21
(g22
(I0
tp131
g24
tp132
Rp133
(I1
(I3
tp134
g60
I00
S'\xc4n\xb3\xbcO\x07\xe0?\xd0\x17\x1bE\xa1\xce\x1d\xc0\x95\xcf\xf4\xdc\x03J\xf9?'
p135
tp136
bag21
(g22
(I0
tp137
g24
tp138
Rp139
(I1
(I3
tp140
g60
I00
S'\xfc\x99\xeb\x1fWC\xaa\xbf\xf3Yh@\x08R\x1d\xc0\x97\x885\xa6\x1eW\xf0?'
p141
tp142
bag21
(g22
(I0
tp143
g24
tp144
Rp145
(I1
(I3
tp146
g60
I00
S'\xb0\x11@i\x1f\x12\xb4?\x01\xb6C\x19\x0b\x9d\x1a\xc0\xda \xc5\xc8m8\xeb?'
p147
tp148
bag94
ag94
asbasS'filename'
p149
S''
p150
sS'states'
p151
(lp152
(itrajectory_representation.shortest_path_pick_and_place_state
ShortestPathPaPState
p153
(dp154
S'place_used'
p155
(dp156
(Vsquare_packing_box1
p157
g88
tp158
(itrajectory_representation.operator
Operator
p159
(dp160
g8
I01
sg9
(dp161
S'region'
p162
g88
sg11
g157
ssg16
S'two_arm_place'
p163
sg18
(dp164
g20
g21
(g22
(I0
tp165
g24
tp166
Rp167
(I1
(I3
tp168
g31
I00
S"06|p(\xcd\xf1?\xa0B\xa5\x811\xbc\x03\xc0\xc3\xcb\x9f\x19'\xce\xc1?"
p169
tp170
bssg46
(lp171
g21
(g22
(I0
tp172
g24
tp173
Rp174
(I1
(I3
tp175
g31
I00
S'p\xfb\x0b\n\xc7\xc8\xc7?Y\x13\xeeu\xba\x87\x18\xc0m\x817\xc3\xcbW\xe2?'
p176
tp177
bag21
(g22
(I0
tp178
g24
tp179
Rp180
(I1
(I3
tp181
g60
I00
S'\xe4\x02R\xd9\x08\x8c\xc7?2\xc1\xd4;\xf6\xf3\x15\xc0>\x8c\x8fa?0\xd8?'
p182
tp183
bag21
(g22
(I0
tp184
g24
tp185
Rp186
(I1
(I3
tp187
g60
I00
S"\xb2&6mg)\xe8?\x99\xe0G'\x16\xe0\x13\xc0\xc8oL\xf5\x17p\xe6\xbf"
p188
tp189
bag21
(g22
(I0
tp190
g24
tp191
Rp192
(I1
(I3
tp193
g60
I00
S'\xb0E\xbb;Cb\xeb?\x9e\xde\xa7\xdd\xbdd\x12\xc0\xc6\xee\xbd\x16\x8c\xaa\xf3\xbf'
p194
tp195
bag21
(g22
(I0
tp196
g24
tp197
Rp198
(I1
(I3
tp199
g60
I00
S'\xec\x12\xec\x03\xdea\xe9?<\xa5t\x82\x15\x9b\x0e\xc0L\xf0\xe0\xffy\x10\xf5\xbf'
p200
tp201
bag21
(g22
(I0
tp202
g24
tp203
Rp204
(I1
(I3
tp205
g60
I00
S'\xceT\x9e/\xb5f\xd8?VQ\xf7\xbeD\xed\x0c\xc0:\xc1\x11<R\xda\xfb\xbf'
p206
tp207
bag21
(g22
(I0
tp208
g24
tp209
Rp210
(I1
(I3
tp211
g60
I00
S'M\x96\xea\xee\x17\x04\xdd?R\xe0T\xecA\xde\x06\xc0\x9a +sW,\xe5\xbf'
p212
tp213
bag167
ag167
asbs(Vrectangular_packing_box4
p214
g14
tp215
(itrajectory_representation.operator
Operator
p216
(dp217
g8
I01
sg9
(dp218
g162
g14
sg11
g214
ssg16
g163
sg18
(dp219
g20
g21
(g22
(I0
tp220
g24
tp221
Rp222
(I1
(I3
tp223
g31
I00
S'|\xe5\x19\x10\x94j\x04@\xa2t\xbe\xf9\x1d\xf6\x19\xc0\xd6\x9dL^\xaa\xe9\xf9?'
p224
tp225
bssg46
(lp226
g21
(g22
(I0
tp227
g24
tp228
Rp229
(I1
(I3
tp230
g31
I00
S'\xc0\x87\xbe\xa9-\x88\xd4?\x93rLDD7\x18\xc0\xf1O\xfd\x10\xf2\x0f\xf9?'
p231
tp232
bag21
(g22
(I0
tp233
g24
tp234
Rp235
(I1
(I3
tp236
g60
I00
S'Dz\xddx\xe9\xf0\xb4?\x9c\xf2\xf6\xf0\xef \x18\xc0\x03\xe5\x88\xf0JN\xf3?'
p237
tp238
bag21
(g22
(I0
tp239
g24
tp240
Rp241
(I1
(I3
tp242
g60
I00
S'P\xad\x15Z\x16\xf4\xc0\xbf\xd7"\xb9r\x97\xa6\x1a\xc0\xffA\xf5\xafMp\xe8\xbf'
p243
tp244
bag21
(g22
(I0
tp245
g24
tp246
Rp247
(I1
(I3
tp248
g60
I00
S'l.u!\xe2\x93\xa7\xbf\x96T&\x85a\xfb\x1c\xc0\xf4\xa6\n\x8f\xde\x06\xd6\xbf'
p249
tp250
bag21
(g22
(I0
tp251
g24
tp252
Rp253
(I1
(I3
tp254
g60
I00
S'J%I\x9a=\x17\xb8?\xce\x8fepl\xc6\x1e\xc0\n\xee\xe6\x877\xbd\xb3?'
p255
tp256
bag21
(g22
(I0
tp257
g24
tp258
Rp259
(I1
(I3
tp260
g60
I00
S'\x19Q5\xf7|.\xd4?\xf2\xca\xbb\n\x90\xe7\x1f\xc0,\xe0Dp\x8d\xe5\xe6?'
p261
tp262
bag21
(g22
(I0
tp263
g24
tp264
Rp265
(I1
(I3
tp266
g60
I00
S"\xc6S\x92\x8e7i\xef?H}'\xb2\xea\x03\x1f\xc0\x1e\xe8\x98\xe5\t\x12\xf4?"
p267
tp268
bag21
(g22
(I0
tp269
g24
tp270
Rp271
(I1
(I3
tp272
g60
I00
S'\xad\xa0\xdfFH\xe9\xf6?\xa3\xfc\x14D\x8bb\x1d\xc0\x9e2hH\xc0\xe5\xf0?'
p273
tp274
bag21
(g22
(I0
tp275
g24
tp276
Rp277
(I1
(I3
tp278
g60
I00
S'\xb9\x81\xdfb\xdf\x92\xfe?\x1a\xe3?2\xb6\xec\x1a\xc0B\x1b\x81\xfa\x93C\xfa?'
p279
tp280
bag222
ag222
asbssS'place_in_way'
p281
(itrajectory_representation.predicates.place_in_way
PlaceInWay
p282
(dp283
S'mc_path_to_entity'
p284
(dp285
(Vrectangular_packing_box3
p286
S'home_region'
p287
tp288
(lp289
g21
(g22
(I0
tp290
g24
tp291
Rp292
(I1
(I3
tp293
g28
(S'f8'
p294
I0
I1
tp295
Rp296
(I3
S'<'
p297
NNNI-1
I-1
I0
tp298
bI00
S'\xc06\xe0\x9ctU\xcc?\x1d2~;K\xa7\x15\xc0j\x18ib\xa9\xac\x08@'
p299
tp300
bag21
(g22
(I0
tp301
g24
tp302
Rp303
(I1
(I3
tp304
g28
(S'f8'
p305
I0
I1
tp306
Rp307
(I3
S'<'
p308
NNNI-1
I-1
I0
tp309
bI00
S'm\xd5h\x072\x03\xea?\xdf\xe5\xe82\xd3\x17\x14\xc0\x08\x9e\xe1\xfbO\x94\x08@'
p310
tp311
bag21
(g22
(I0
tp312
g24
tp313
Rp314
(I1
(I3
tp315
g307
I00
S'\xc6\x05\xbdtg\xd9\xe2?F\xdf\x9d@\\\xf3\x11\xc0\x1a\xc4.\xbb\xcc\x12\x02@'
p316
tp317
bag21
(g22
(I0
tp318
g24
tp319
Rp320
(I1
(I3
tp321
g307
I00
S'3z\xed\x8eN)\xe4?\x0c\x96\xd4\xa2\x0e\xd0\r\xc0\xbd%\xf5{\xe9\xf9\x03@'
p322
tp323
bag21
(g22
(I0
tp324
g24
tp325
Rp326
(I1
(I3
tp327
g307
I00
S'\xaf0\xe9h\xba~\xee?k\xbb\xd8\xd4\xd0g\t\xc09\x9ey\xed\xb06\x06@'
p328
tp329
bag21
(g22
(I0
tp330
g24
tp331
Rp332
(I1
(I3
tp333
g307
I00
S'\xf4\xfdJ\x1a(#\xec?H"\x9cD\x1aE\x05\xc0.\xa9\x0b\x87\xf8\xe1\x02@'
p334
tp335
bas(Vsquare_packing_box4
p336
g287
tp337
(lp338
g21
(g22
(I0
tp339
g24
tp340
Rp341
(I1
(I3
tp342
g296
I00
S'\xdc6Z\xe8L\xb1\x06@mEh~\xf54\x19\xc0\xf4\xd5\x80>X\x96\x12@'
p343
tp344
bag21
(g22
(I0
tp345
g24
tp346
Rp347
(I1
(I3
tp348
g307
I00
S'w\xea<\xc0\xbb\xf7\x03@8\xab\x8e\xe3\x85\xd0\x17\xc0vc\xfc\x01\xfb\\\x0e@'
p349
tp350
bag21
(g22
(I0
tp351
g24
tp352
Rp353
(I1
(I3
tp354
g307
I00
S'\xeaT\xc2\xbf\xe4\x8d\xfb?L\xe4y~t"\x18\xc0\x0f\x12ob\\\x05\x0b@'
p355
tp356
bag21
(g22
(I0
tp357
g24
tp358
Rp359
(I1
(I3
tp360
g307
I00
S'\x84\xa2s4\xa1\xd0\xf6?E=|\xb9\xcam\x17\xc0\xa93^V\xfc\xed\x05@'
p361
tp362
bag21
(g22
(I0
tp363
g24
tp364
Rp365
(I1
(I3
tp366
g307
I00
S'f\xb4\x9c\x07\xac\xbf\xec?n\x96\x96\x9e\x90n\x16\xc0uo!\xa9\x9b\x82\x07@'
p367
tp368
bag21
(g22
(I0
tp369
g24
tp370
Rp371
(I1
(I3
tp372
g307
I00
S'm\xd5h\x072\x03\xea?\xdf\xe5\xe82\xd3\x17\x14\xc0\x08\x9e\xe1\xfbO\x94\x08@'
p373
tp374
bag21
(g22
(I0
tp375
g24
tp376
Rp377
(I1
(I3
tp378
g307
I00
S'\x97\xff-a\x91r\xf0?\x1a\x15\xfe\xb9:\x1b\x12\xc0\nG\xfe\xfa~y\x05@'
p379
tp380
bag21
(g22
(I0
tp381
g24
tp382
Rp383
(I1
(I3
tp384
g307
I00
S'y\xd4\xbc{`\x0b\xf2?\xb0C6m\xb7\xd6\x0e\xc0\xe8\xe2r\xbe\x16{\xf5?'
p385
tp386
bag21
(g22
(I0
tp387
g24
tp388
Rp389
(I1
(I3
tp390
g307
I00
S'\xd1\xaa\x15!\x8c\x06\xed?\x8c\xab\xab^w\xe3\t\xc0~&\xcc\xa2\xcbw\xf6?'
p391
tp392
bag21
(g22
(I0
tp393
g24
tp394
Rp395
(I1
(I3
tp396
g307
I00
S'3\xe9\xaf\x05T\x89\xe7?+~\xcb\xd3\x15\xc7\x04\xc0x6(d5\xed\x07@'
p397
tp398
bas(Vrectangular_packing_box4
p399
g287
tp400
(lp401
g21
(g22
(I0
tp402
g24
tp403
Rp404
(I1
(I3
tp405
g296
I00
S'\xb4\x88\xbe\xa9-\x88\xd4?\x8erLDD7\x18\xc0\xedO\xfd\x10\xf2\x0f\xf9?'
p406
tp407
bag21
(g22
(I0
tp408
g24
tp409
Rp410
(I1
(I3
tp411
g307
I00
S'\xd8\x87\x03p)T\xe4?\xd5\xabI\xb7V\xd0\x15\xc0vWg\x9a\x87\x8a\xec?'
p412
tp413
bag21
(g22
(I0
tp414
g24
tp415
Rp416
(I1
(I3
tp417
g307
I00
S'\xa9\xd9\x1d\x8d\xa6j\xdf?\xa0\x85\x1a\x84\xc6\xec\x12\xc0\x01\xb6 H\xb1\x91\xeb?'
p418
tp419
bag21
(g22
(I0
tp420
g24
tp421
Rp422
(I1
(I3
tp423
g307
I00
S'\x93k\xbc\xee\xc2\x10\xe8?\xab^\x86?\x08D\x10\xc0\x10;2\x00\xe5\t\xde?'
p424
tp425
bag21
(g22
(I0
tp426
g24
tp427
Rp428
(I1
(I3
tp429
g307
I00
S'\xef\xc3u*\xfb\xdb\xeb?\x8d\xa5\n\xfd\x03<\n\xc0\xd8\xfb\xde\x16R\xac\xde?'
p430
tp431
bag21
(g22
(I0
tp432
g24
tp433
Rp434
(I1
(I3
tp435
g307
I00
S'\xf4\xfdJ\x1a(#\xec?H"\x9cD\x1aE\x05\xc0.\xa9\x0b\x87\xf8\xe1\x02@'
p436
tp437
bas(Vsquare_packing_box1
p438
g287
tp439
(lp440
g21
(g22
(I0
tp441
g24
tp442
Rp443
(I1
(I3
tp444
g296
I00
S'\xc0\xfa\x0b\n\xc7\xc8\xc7?X\x13\xeeu\xba\x87\x18\xc0l\x817\xc3\xcbW\xe2?'
p445
tp446
bag21
(g22
(I0
tp447
g24
tp448
Rp449
(I1
(I3
tp450
g307
I00
S'\xe4\x02R\xd9\x08\x8c\xc7?2\xc1\xd4;\xf6\xf3\x15\xc0>\x8c\x8fa?0\xd8?'
p451
tp452
bag21
(g22
(I0
tp453
g24
tp454
Rp455
(I1
(I3
tp456
g307
I00
S'\xcc\x87!\x1f\xfb\x05\xe6?\x14;\x08\xf1<\xc6\x13\xc0V!\xac1j\x94\xc8?'
p457
tp458
bag21
(g22
(I0
tp459
g24
tp460
Rp461
(I1
(I3
tp462
g307
I00
S'`\xc8Aw-\x81\xeb?/\xc3\xe6O\x04\xca\x10\xc0\x8a\xb7K)\x91{\xe4\xbf'
p463
tp464
bag21
(g22
(I0
tp465
g24
tp466
Rp467
(I1
(I3
tp468
g307
I00
S'\xe1\xc6\xc7\xa7\x12X\xe7?\x98\x99\xb0\x9a\xfb\xdb\x0b\xc0R\t\x1b)\xeae\xe0\xbf'
p469
tp470
bag21
(g22
(I0
tp471
g24
tp472
Rp473
(I1
(I3
tp474
g307
I00
S'p\xf1\xbdc^\x84\xf1?"\x88LL\xf9D\x06\xc0~w\r\xe9m\x0f\x19@'
p475
tp476
bas(Vsquare_packing_box2
p477
g287
tp478
(lp479
g21
(g22
(I0
tp480
g24
tp481
Rp482
(I1
(I3
tp483
g296
I00
S'\x08\x05%\x16=\xc1\xef?\x8c\x7f\xf5\xdf\xa3\x8b\x16\xc0\xed\xb4\xe2\x99\xc0\xe8\xc1?'
p484
tp485
bag21
(g22
(I0
tp486
g24
tp487
Rp488
(I1
(I3
tp489
g307
I00
S"\xb2&6mg)\xe8?\x99\xe0G'\x16\xe0\x13\xc0\xc8oL\xf5\x17p\xe6\xbf"
p490
tp491
bag21
(g22
(I0
tp492
g24
tp493
Rp494
(I1
(I3
tp495
g307
I00
S'`\xc8Aw-\x81\xeb?/\xc3\xe6O\x04\xca\x10\xc0\x8a\xb7K)\x91{\xe4\xbf'
p496
tp497
bag21
(g22
(I0
tp498
g24
tp499
Rp500
(I1
(I3
tp501
g307
I00
S'\xe1\xc6\xc7\xa7\x12X\xe7?\x98\x99\xb0\x9a\xfb\xdb\x0b\xc0R\t\x1b)\xeae\xe0\xbf'
p502
tp503
bag21
(g22
(I0
tp504
g24
tp505
Rp506
(I1
(I3
tp507
g307
I00
S'p\xf1\xbdc^\x84\xf1?"\x88LL\xf9D\x06\xc0~w\r\xe9m\x0f\x19@'
p508
tp509
bas(Vrectangular_packing_box1
p510
g287
tp511
(lp512
g21
(g22
(I0
tp513
g24
tp514
Rp515
(I1
(I3
tp516
g296
I00
S'\x06\xf8D\x86\x99^\x07@\xf3\xe6\x1c\xec\xc9\x04\x17\xc0N\xcc\x18\xcbwu\x17@'
p517
tp518
bag21
(g22
(I0
tp519
g24
tp520
Rp521
(I1
(I3
tp522
g307
I00
S'\x9a\xbe.\\\\1\x02@n\xc71\xde\x16\x1f\x18\xc0\xa5\xb9\xb4\xac*z\xff\xbf'
p523
tp524
bag21
(g22
(I0
tp525
g24
tp526
Rp527
(I1
(I3
tp528
g307
I00
S'\xa1\x0f=\xe0\x1aF\xfc?e&S\xf6\xb5\xfc\x17\xc0s\xad\xdc\xd8h\x9b\x04\xc0'
p529
tp530
bag21
(g22
(I0
tp531
g24
tp532
Rp533
(I1
(I3
tp534
g307
I00
S'R\x12);\xaf\xa5\xf7?\xf3\xf9\xeb\x07c\xef\x15\xc0\xf0V^\xd6\x94\x96\x05\xc0'
p535
tp536
bag21
(g22
(I0
tp537
g24
tp538
Rp539
(I1
(I3
tp540
g307
I00
S'\xd0\xcb\x13\x8f\xaa\x9d\xed?\x90\x01<]3\x06\x16\xc0F\xf1\xe7x32\x02\xc0'
p541
tp542
bag21
(g22
(I0
tp543
g24
tp544
Rp545
(I1
(I3
tp546
g307
I00
S'l[\xc4\x16<\xe6\xe9?\xa6\xa0\x90\x84X\x9f\x13\xc0\xc2\xd74Q\x00\xaf\xff\xbf'
p547
tp548
bag21
(g22
(I0
tp549
g24
tp550
Rp551
(I1
(I3
tp552
g307
I00
S"\xaeJ\xbd\x1936\xec?\x04\x13\xd4'\x9f\x88\x10\xc0\x805qo\xb6\xe6\xff\xbf"
p553
tp554
bag21
(g22
(I0
tp555
g24
tp556
Rp557
(I1
(I3
tp558
g307
I00
S'\xf09\xb6\x1c*\x86\xee?\xc4\n/\x96\xcb\xe3\n\xc0\xa0\xc9\xd6F6\x0f\x00\xc0'
p559
tp560
bag21
(g22
(I0
tp561
g24
tp562
Rp563
(I1
(I3
tp564
g307
I00
S'3\xe9\xaf\x05T\x89\xe7?+~\xcb\xd3\x15\xc7\x04\xc0x6(d5\xed\x07@'
p565
tp566
bas(Vsquare_packing_box3
p567
g287
tp568
(lp569
g21
(g22
(I0
tp570
g24
tp571
Rp572
(I1
(I3
tp573
g296
I00
S'\xfc\xe4\x10\x1e\x9bK\x0b@\x04E\xe0/\x9a\xc7\x1f\xc0\xa9#\xb5J\x03Q\xef?'
p574
tp575
bag21
(g22
(I0
tp576
g24
tp577
Rp578
(I1
(I3
tp579
g307
I00
S'\xadN\xcb\xe7{+\x07@\xd5\x0f;S\xc0\x0f\x1e\xc0\xb8\xd3V\x10\x16\xcb\xf9?'
p580
tp581
bag21
(g22
(I0
tp582
g24
tp583
Rp584
(I1
(I3
tp585
g307
I00
S'\xe8[\xb2\xaa\xa5@\x04@(j\r1!I\x1b\xc0Xj\x8bx\xc9`\xfc?'
p586
tp587
bag21
(g22
(I0
tp588
g24
tp589
Rp590
(I1
(I3
tp591
g307
I00
S'\xf60LV\xe8\x96\x00@\x9aEw{a\xe2\x18\xc0^\xa8\x8a,\xa3\x98\x00@'
p592
tp593
bag21
(g22
(I0
tp594
g24
tp595
Rp596
(I1
(I3
tp597
g307
I00
S'\xe0 ;\x819w\xfd?\xe7\xcc\xc2\xa0\xa5f\x17\xc04\xedq\x1c\x8eK\xfa?'
p598
tp599
bag21
(g22
(I0
tp600
g24
tp601
Rp602
(I1
(I3
tp603
g307
I00
S'\x85\\2\xba\x0b5\xf5?I\r\x06\xd10\xfb\x15\xc0\x9e\x11\xee\xd8\xb9\xd7\xf5?'
p604
tp605
bag21
(g22
(I0
tp606
g24
tp607
Rp608
(I1
(I3
tp609
g307
I00
S'v\xb8^\x85\xa7[\xea?x\xbe\xff2t\x8d\x13\xc0\x88\x85\x8cCyH\xf6?'
p610
tp611
bag21
(g22
(I0
tp612
g24
tp613
Rp614
(I1
(I3
tp615
g307
I00
S'\xc2\xda(e\x83\x1a\xeb?\x8au\x8d3\xa6E\x11\xc0\xb4c\x1b\xed_\xfd\xfa?'
p616
tp617
bag21
(g22
(I0
tp618
g24
tp619
Rp620
(I1
(I3
tp621
g307
I00
S'\xe4u**\x0e5\xe9?\xaa\xfd\r\xed\xc4\xf6\r\xc0\x0fDE0\x1f\x0b\xfe?'
p622
tp623
bag21
(g22
(I0
tp624
g24
tp625
Rp626
(I1
(I3
tp627
g307
I00
S'\x06\x11,\xef\x98O\xe7??\x10\x01s=b\t\xc04\x92\xb79o\x8c\x00@'
p628
tp629
bag21
(g22
(I0
tp630
g24
tp631
Rp632
(I1
(I3
tp633
g307
I00
S'\x92\xaf\xf3P\x96O\xc2?(\xa1:\x8er}\x05\xc0\xd4_\x91\xb3\xffL\x02@'
p634
tp635
bas(Vrectangular_packing_box2
p636
g287
tp637
(lp638
g21
(g22
(I0
tp639
g24
tp640
Rp641
(I1
(I3
tp642
g296
I00
S'\x14/_\x02\xc9\x7f\xea?\xa5\xc0\xec\x8ax|\x18\xc0\xa6\xc8\x1d-\xff\xaf\x11@'
p643
tp644
bag21
(g22
(I0
tp645
g24
tp646
Rp647
(I1
(I3
tp648
g307
I00
S'\xd0\xcb\x13\x8f\xaa\x9d\xed?\x90\x01<]3\x06\x16\xc0F\xf1\xe7x32\x02\xc0'
p649
tp650
bag21
(g22
(I0
tp651
g24
tp652
Rp653
(I1
(I3
tp654
g307
I00
S'l[\xc4\x16<\xe6\xe9?\xa6\xa0\x90\x84X\x9f\x13\xc0\xc2\xd74Q\x00\xaf\xff\xbf'
p655
tp656
bag21
(g22
(I0
tp657
g24
tp658
Rp659
(I1
(I3
tp660
g307
I00
S"\xaeJ\xbd\x1936\xec?\x04\x13\xd4'\x9f\x88\x10\xc0\x805qo\xb6\xe6\xff\xbf"
p661
tp662
bag21
(g22
(I0
tp663
g24
tp664
Rp665
(I1
(I3
tp666
g307
I00
S'\xf09\xb6\x1c*\x86\xee?\xc4\n/\x96\xcb\xe3\n\xc0\xa0\xc9\xd6F6\x0f\x00\xc0'
p667
tp668
bag21
(g22
(I0
tp669
g24
tp670
Rp671
(I1
(I3
tp672
g307
I00
S'3\xe9\xaf\x05T\x89\xe7?+~\xcb\xd3\x15\xc7\x04\xc0x6(d5\xed\x07@'
p673
tp674
bassS'mc_to_entity'
p675
(dp676
(g286
g287
tp677
(lp678
Vrectangular_packing_box4
p679
as(g336
g287
tp680
(lp681
Vsquare_packing_box1
p682
aVrectangular_packing_box2
p683
aVsquare_packing_box2
p684
aVrectangular_packing_box4
p685
as(g399
g287
tp686
(lp687
Vsquare_packing_box2
p688
as(g438
g287
tp689
(lp690
Vrectangular_packing_box4
p691
aVsquare_packing_box2
p692
as(g477
g287
tp693
(lp694
Vsquare_packing_box1
p695
aVrectangular_packing_box4
p696
as(g510
g287
tp697
(lp698
Vsquare_packing_box1
p699
aVsquare_packing_box2
p700
aVrectangular_packing_box4
p701
as(g567
g287
tp702
(lp703
Vsquare_packing_box4
p704
aVsquare_packing_box2
p705
aVrectangular_packing_box4
p706
as(g636
g287
tp707
(lp708
Vsquare_packing_box1
p709
aVrectangular_packing_box4
p710
assS'reachable_entities'
p711
(lp712
g12
aVrectangular_packing_box2
p713
aVrectangular_packing_box1
p714
aVsquare_packing_box3
p715
ag86
aVsquare_packing_box4
p716
asS'collides'
p717
(dp718
Vrectangular_packing_box4
p719
c__builtin__
set
p720
((lp721
I517
aI7
aI8
aI9
aI139
aI31
aI32
aI33
aI34
aI44
aI45
aI94
aI186
aI351
aI189
aI196
aI71
aI459
aI472
aI349
aI350
aI95
aI233
aI234
aI235
aI108
aI445
aI503
atp722
Rp723
sVrectangular_packing_box2
p724
g720
((lp725
I384
aI5
aI134
aI136
aI137
aI394
aI523
aI276
aI157
aI133
aI35
aI165
aI166
aI296
aI176
aI308
aI163
aI262
aI197
aI81
aI82
aI83
aI597
aI570
aI355
aI230
aI124
aI251
aI252
atp726
Rp727
sVrectangular_packing_box3
p728
g720
((lp729
I417
aI491
aI139
aI275
aI503
aI351
aI349
aI350
aI383
atp730
Rp731
sVrectangular_packing_box1
p732
g720
((lp733
I0
aI1
aI144
aI403
aI541
aI545
aI546
aI425
aI555
aI302
aI307
aI442
aI571
aI453
aI457
aI342
aI474
aI348
aI605
aI612
aI367
aI368
aI369
aI370
aI371
aI247
aI377
aI378
atp734
Rp735
sVsquare_packing_box2
p736
g720
((lp737
I160
aI161
aI203
aI484
aI327
aI42
aI43
aI301
aI554
aI497
aI416
aI372
aI56
aI404
aI187
aI106
atp738
Rp739
sVsquare_packing_box3
p740
g720
((lp741
I193
aI565
aI614
aI405
aI269
aI270
aI212
aI213
aI246
aI280
aI479
aI381
aI254
aI245
atp742
Rp743
sVsquare_packing_box1
p744
g720
((lp745
I4
aI5
aI6
aI137
aI276
aI132
aI133
aI34
aI35
aI70
aI44
aI301
aI584
aI310
aI55
aI56
aI187
aI449
aI196
aI198
aI327
aI456
aI203
aI162
aI517
aI84
aI597
aI93
aI94
aI607
aI233
aI106
aI107
aI108
aI251
aI252
atp746
Rp747
sVsquare_packing_box4
p748
g720
((lp749
I179
aI268
aI405
aI548
aI303
aI307
aI436
aI565
aI438
aI440
aI442
aI577
aI194
aI68
aI210
aI211
aI212
aI343
aI90
aI91
aI220
aI479
aI354
aI614
aI113
aI114
aI500
aI375
aI340
aI511
aI381
aI254
aI255
atp750
Rp751
ssg155
g156
sS'pick_used'
p752
(dp753
g12
(itrajectory_representation.operator
Operator
p754
(dp755
g8
I01
sg9
(dp756
g11
g12
ssg16
S'two_arm_pick'
p757
sg18
(dp758
g20
g21
(g22
(I0
tp759
g24
tp760
Rp761
(I1
(I3
tp762
g31
I00
S'\xb4\x88\xbe\xa9-\x88\xd4?\x90rLDD7\x18\xc0\xedO\xfd\x10\xf2\x0f\xf9?'
p763
tp764
bssg46
(lp765
g21
(g22
(I0
tp766
g24
tp767
Rp768
(I1
(I3
tp769
g296
I00
S'\xf0[s\xc8o\x08\xf4?\xb7\x9dp8]\x7f\x1f\xc0\x82\\\x1b\x8e\x12\x96\xfe?'
p770
tp771
bag21
(g22
(I0
tp772
g24
tp773
Rp774
(I1
(I3
tp775
g307
I00
S'\x08\x171\xc6\x9f\xd1\xe4?\xb69P\xb8\xb4\x03\x1e\xc0\x00`"#(A\x05@'
p776
tp777
bag21
(g22
(I0
tp778
g24
tp779
Rp780
(I1
(I3
tp781
g307
I00
S'\xdb\xee8\xd0\xa2\xfd\xc5?\xb2\x0e(\xac\xe3\xcd\x1d\xc0a\xbax\xf1*\x16\x01@'
p782
tp783
bag21
(g22
(I0
tp784
g24
tp785
Rp786
(I1
(I3
tp787
g307
I00
S'\xc0T\xe2\x97\xaf3h\xbfv\xa30\xd5\xeb\xd1\x1a\xc0\x8a\rz\xc6\xa6z\x04@'
p788
tp789
bag21
(g22
(I0
tp790
g24
tp791
Rp792
(I1
(I3
tp793
g307
I00
S'Dz\xddx\xe9\xf0\xb4?\x9c\xf2\xf6\xf0\xef \x18\xc0\x03\xe5\x88\xf0JN\xf3?'
p794
tp795
bag761
asbsg713
(itrajectory_representation.operator
Operator
p796
(dp797
g8
I01
sg9
(dp798
S'object'
p799
Vrectangular_packing_box2
p800
ssg16
S'two_arm_pick'
p801
sg18
(dp802
S'q_goal'
p803
(lp804
g21
(g22
(I0
tp805
g24
tp806
Rp807
(I1
(I3
tp808
g296
I00
S'\x0e/_\x02\xc9\x7f\xea?\xa3\xc0\xec\x8ax|\x18\xc0\xc8\x91\x99\x9c\xf0\xc7\xfd\xbf'
p809
tp810
bag21
(g22
(I0
tp811
g24
tp812
Rp813
(I1
(I3
tp814
g296
I00
S'\x89\x00\x06\xc1]T\xe6?vQ%\xbcBG\x1e\xc0\xc6\x19D\xe2K\xfe\xf6?'
p815
tp816
bag21
(g22
(I0
tp817
g24
tp818
Rp819
(I1
(I3
tp820
g296
I00
S'\xca\x1e\x89:\x13\xe6\xe8?\xa0m\xb0\x15\xa7&\x1e\xc0\xc6Z\xceV2\xa4\xff?'
p821
tp822
basS'is_feasible'
p823
I00
ssg46
(lp824
g21
(g22
(I0
tp825
g24
tp826
Rp827
(I1
(I3
tp828
g296
I00
S"06|p(\xcd\xf1?\x9cB\xa5\x811\xbc\x03\xc0\xf4\xcd\x9f\x19'\xce\xc1?"
p829
tp830
bag21
(g22
(I0
tp831
g24
tp832
Rp833
(I1
(I3
tp834
g307
I00
S'M\x96\xea\xee\x17\x04\xdd?R\xe0T\xecA\xde\x06\xc0\x9a +sW,\xe5\xbf'
p835
tp836
bag21
(g22
(I0
tp837
g24
tp838
Rp839
(I1
(I3
tp840
g307
I00
S'\xe1\xc6\xc7\xa7\x12X\xe7?\x98\x99\xb0\x9a\xfb\xdb\x0b\xc0R\t\x1b)\xeae\xe0\xbf'
p841
tp842
bag21
(g22
(I0
tp843
g24
tp844
Rp845
(I1
(I3
tp846
g307
I00
S'`\xc8Aw-\x81\xeb?/\xc3\xe6O\x04\xca\x10\xc0\x8a\xb7K)\x91{\xe4\xbf'
p847
tp848
bag21
(g22
(I0
tp849
g24
tp850
Rp851
(I1
(I3
tp852
g307
I00
S"\xb2&6mg)\xe8?\x99\xe0G'\x16\xe0\x13\xc0\xc8oL\xf5\x17p\xe6\xbf"
p853
tp854
bag21
(g22
(I0
tp855
g24
tp856
Rp857
(I1
(I3
tp858
g307
I00
S'\xac\xb4\xd5\x83\xbb\xf9\xe0?\xe1\x80\xe9+%\xe6\x16\xc0<\xd6N\xab\x06\xcc\xf7\xbf'
p859
tp860
bag807
asbsVrectangular_packing_box3
p861
(itrajectory_representation.operator
Operator
p862
(dp863
g8
I01
sg9
(dp864
g799
Vrectangular_packing_box3
p865
ssg16
g801
sg18
(dp866
g803
(lp867
g21
(g22
(I0
tp868
g24
tp869
Rp870
(I1
(I3
tp871
g296
I00
S'{6\xe0\x9ctU\xcc?\x1e2~;K\xa7\x15\xc0\xc6A\x1fFM\x97\t\xc0'
p872
tp873
bag21
(g22
(I0
tp874
g24
tp875
Rp876
(I1
(I3
tp877
g296
I00
S'M\x9d\x06b\xd8\x0f\xd2?\x1e\xd4}]\x04\x12\x16\xc0)\xad/X}\\\x07@'
p878
tp879
bag21
(g22
(I0
tp880
g24
tp881
Rp882
(I1
(I3
tp883
g296
I00
S';;)[{I\xd6?\x8e\xd3\xaf\x13\xa8\xed\x15\xc0\xb8^mh\xd5@\t@'
p884
tp885
basg823
I00
ssg46
(lp886
g21
(g22
(I0
tp887
g24
tp888
Rp889
(I1
(I3
tp890
g296
I00
S"06|p(\xcd\xf1?\x9cB\xa5\x811\xbc\x03\xc0\xf4\xcd\x9f\x19'\xce\xc1?"
p891
tp892
bag21
(g22
(I0
tp893
g24
tp894
Rp895
(I1
(I3
tp896
g307
I00
S'M\x96\xea\xee\x17\x04\xdd?R\xe0T\xecA\xde\x06\xc0\x9a +sW,\xe5\xbf'
p897
tp898
bag21
(g22
(I0
tp899
g24
tp900
Rp901
(I1
(I3
tp902
g307
I00
S'\xceT\x9e/\xb5f\xd8?VQ\xf7\xbeD\xed\x0c\xc0:\xc1\x11<R\xda\xfb\xbf'
p903
tp904
bag21
(g22
(I0
tp905
g24
tp906
Rp907
(I1
(I3
tp908
g307
I00
S'\xb5\xe3\x18\xc8\x9f\xf5\xd7?\xac\xb7\x0f\x9d\xa7\x8c\x11\xc0`\xf2\xb76\xda\xcb\xfa\xbf'
p909
tp910
bag21
(g22
(I0
tp911
g24
tp912
Rp913
(I1
(I3
tp914
g307
I00
S'm\xd5h\x072\x03\xea?\xdf\xe5\xe82\xd3\x17\x14\xc0\x08\x9e\xe1\xfbO\x94\x08@'
p915
tp916
bag882
asbsg714
(itrajectory_representation.operator
Operator
p917
(dp918
g8
I01
sg9
(dp919
g799
Vrectangular_packing_box1
p920
ssg16
g801
sg18
(dp921
g803
(lp922
g21
(g22
(I0
tp923
g24
tp924
Rp925
(I1
(I3
tp926
g296
I00
S'\x04\xf8D\x86\x99^\x07@\xf3\xe6\x1c\xec\xc9\x04\x17\xc0\x9b\x0c\xb6\x928\xc8\xda\xbf'
p927
tp928
bag21
(g22
(I0
tp929
g24
tp930
Rp931
(I1
(I3
tp932
g296
I00
S'\xe1L\x07\xd3\xc3\x9e\x0b@0\xfeE\xc9\xcd\x13\x1b\xc0\xc2\xf2~\xccmg\xf9?'
p933
tp934
bag21
(g22
(I0
tp935
g24
tp936
Rp937
(I1
(I3
tp938
g296
I00
S'\x032\xaf\x1f&\x04\x08@\xb5-\xef\xc6\x98t\x16\xc0\xbe\xc8\xd4\xad\x8fT\xdb\xbf'
p939
tp940
basg823
I00
ssg46
(lp941
g21
(g22
(I0
tp942
g24
tp943
Rp944
(I1
(I3
tp945
g296
I00
S"06|p(\xcd\xf1?\x9cB\xa5\x811\xbc\x03\xc0\xf4\xcd\x9f\x19'\xce\xc1?"
p946
tp947
bag21
(g22
(I0
tp948
g24
tp949
Rp950
(I1
(I3
tp951
g307
I00
S'M\x96\xea\xee\x17\x04\xdd?R\xe0T\xecA\xde\x06\xc0\x9a +sW,\xe5\xbf'
p952
tp953
bag21
(g22
(I0
tp954
g24
tp955
Rp956
(I1
(I3
tp957
g307
I00
S'\xceT\x9e/\xb5f\xd8?VQ\xf7\xbeD\xed\x0c\xc0:\xc1\x11<R\xda\xfb\xbf'
p958
tp959
bag21
(g22
(I0
tp960
g24
tp961
Rp962
(I1
(I3
tp963
g307
I00
S"\xaeJ\xbd\x1936\xec?\x04\x13\xd4'\x9f\x88\x10\xc0\x805qo\xb6\xe6\xff\xbf"
p964
tp965
bag21
(g22
(I0
tp966
g24
tp967
Rp968
(I1
(I3
tp969
g307
I00
S'l[\xc4\x16<\xe6\xe9?\xa6\xa0\x90\x84X\x9f\x13\xc0\xc2\xd74Q\x00\xaf\xff\xbf'
p970
tp971
bag21
(g22
(I0
tp972
g24
tp973
Rp974
(I1
(I3
tp975
g307
I00
S'\xd0\xcb\x13\x8f\xaa\x9d\xed?\x90\x01<]3\x06\x16\xc0F\xf1\xe7x32\x02\xc0'
p976
tp977
bag21
(g22
(I0
tp978
g24
tp979
Rp980
(I1
(I3
tp981
g307
I00
S'\x9f5<Q\xb2\xb3\xf7?\xb3\xd6LI,\xe8\x16\xc0\xc2\x13\xbbtu\x87\x00\xc0'
p982
tp983
bag21
(g22
(I0
tp984
g24
tp985
Rp986
(I1
(I3
tp987
g307
I00
S'\xa1\x0f=\xe0\x1aF\xfc?e&S\xf6\xb5\xfc\x17\xc0s\xad\xdc\xd8h\x9b\x04\xc0'
p988
tp989
bag21
(g22
(I0
tp990
g24
tp991
Rp992
(I1
(I3
tp993
g307
I00
S'A\xec\xb55+(\x03@v\x14\x1a\xc5J\xca\x18\xc0\xe9\rA\xa0%\xbe\xc7?'
p994
tp995
bag925
asbsVsquare_packing_box2
p996
(itrajectory_representation.operator
Operator
p997
(dp998
g8
I01
sg9
(dp999
g799
Vsquare_packing_box2
p1000
ssg16
g801
sg18
(dp1001
g803
(lp1002
g21
(g22
(I0
tp1003
g24
tp1004
Rp1005
(I1
(I3
tp1006
g296
I00
S'\x01\x05%\x16=\xc1\xef?\x8a\x7f\xf5\xdf\xa3\x8b\x16\xc0\xe6\xb4\xe2\x99\xc0\xe8\xc1?'
p1007
tp1008
bag21
(g22
(I0
tp1009
g24
tp1010
Rp1011
(I1
(I3
tp1012
g296
I00
S'\xc1\xaa\xb4\xbe\x87\xc8\xee?\xdb\xf8\xb0\xf5_v\x15\xc0\xbe\x19q\x0e\x16+\xa7\xbf'
p1013
tp1014
bag21
(g22
(I0
tp1015
g24
tp1016
Rp1017
(I1
(I3
tp1018
g296
I00
S'<\xaf\xd8G\xcb\xaa\xf7?\x0c\xc3\xa4\xdf\x03\xe6\x17\xc0\xb43%lv\x96\xfa?'
p1019
tp1020
basg823
I00
ssg46
(lp1021
g21
(g22
(I0
tp1022
g24
tp1023
Rp1024
(I1
(I3
tp1025
g296
I00
S"06|p(\xcd\xf1?\x9cB\xa5\x811\xbc\x03\xc0\xf4\xcd\x9f\x19'\xce\xc1?"
p1026
tp1027
bag21
(g22
(I0
tp1028
g24
tp1029
Rp1030
(I1
(I3
tp1031
g307
I00
S'\xd6\x07{\xd9\x10\xef\xe4?\x1d\xac\x7fu\xfd\xc8\x05\xc0n\xbe\xc6$&8\xd7?'
p1032
tp1033
bag21
(g22
(I0
tp1034
g24
tp1035
Rp1036
(I1
(I3
tp1037
g307
I00
S'\xe1\xc6\xc7\xa7\x12X\xe7?\x98\x99\xb0\x9a\xfb\xdb\x0b\xc0R\t\x1b)\xeae\xe0\xbf'
p1038
tp1039
bag21
(g22
(I0
tp1040
g24
tp1041
Rp1042
(I1
(I3
tp1043
g307
I00
S'`\xc8Aw-\x81\xeb?/\xc3\xe6O\x04\xca\x10\xc0\x8a\xb7K)\x91{\xe4\xbf'
p1044
tp1045
bag21
(g22
(I0
tp1046
g24
tp1047
Rp1048
(I1
(I3
tp1049
g307
I00
S'\xcc\x87!\x1f\xfb\x05\xe6?\x14;\x08\xf1<\xc6\x13\xc0V!\xac1j\x94\xc8?'
p1050
tp1051
bag1011
asbsg715
(itrajectory_representation.operator
Operator
p1052
(dp1053
g8
I01
sg9
(dp1054
g799
Vsquare_packing_box3
p1055
ssg16
g801
sg18
(dp1056
g803
(lp1057
g21
(g22
(I0
tp1058
g24
tp1059
Rp1060
(I1
(I3
tp1061
g296
I00
S'\xf5\xe4\x10\x1e\x9bK\x0b@\x05E\xe0/\x9a\xc7\x1f\xc0\xab#\xb5J\x03Q\xef?'
p1062
tp1063
bag21
(g22
(I0
tp1064
g24
tp1065
Rp1066
(I1
(I3
tp1067
g296
I00
S'\x9d/WF\xb2^\t@<\xd6\x8d\xa0L9\x1d\xc0\xd8\xb2\xbb\xd6Z*\xdd\xbf'
p1068
tp1069
bag21
(g22
(I0
tp1070
g24
tp1071
Rp1072
(I1
(I3
tp1073
g296
I00
S'\x9a\xb8\x019|6\t@[Z\x11\xae\x06\x14\x1e\xc0\x86\xfd\xd1\xea\xc7d\xd6?'
p1074
tp1075
basg823
I00
ssg46
(lp1076
g21
(g22
(I0
tp1077
g24
tp1078
Rp1079
(I1
(I3
tp1080
g296
I00
S"06|p(\xcd\xf1?\x9cB\xa5\x811\xbc\x03\xc0\xf4\xcd\x9f\x19'\xce\xc1?"
p1081
tp1082
bag21
(g22
(I0
tp1083
g24
tp1084
Rp1085
(I1
(I3
tp1086
g307
I00
S'M\x96\xea\xee\x17\x04\xdd?R\xe0T\xecA\xde\x06\xc0\x9a +sW,\xe5\xbf'
p1087
tp1088
bag21
(g22
(I0
tp1089
g24
tp1090
Rp1091
(I1
(I3
tp1092
g307
I00
S'\xceT\x9e/\xb5f\xd8?VQ\xf7\xbeD\xed\x0c\xc0:\xc1\x11<R\xda\xfb\xbf'
p1093
tp1094
bag21
(g22
(I0
tp1095
g24
tp1096
Rp1097
(I1
(I3
tp1098
g307
I00
S"\xaeJ\xbd\x1936\xec?\x04\x13\xd4'\x9f\x88\x10\xc0\x805qo\xb6\xe6\xff\xbf"
p1099
tp1100
bag21
(g22
(I0
tp1101
g24
tp1102
Rp1103
(I1
(I3
tp1104
g307
I00
S'l[\xc4\x16<\xe6\xe9?\xa6\xa0\x90\x84X\x9f\x13\xc0\xc2\xd74Q\x00\xaf\xff\xbf'
p1105
tp1106
bag21
(g22
(I0
tp1107
g24
tp1108
Rp1109
(I1
(I3
tp1110
g307
I00
S'\xd0\xcb\x13\x8f\xaa\x9d\xed?\x90\x01<]3\x06\x16\xc0F\xf1\xe7x32\x02\xc0'
p1111
tp1112
bag21
(g22
(I0
tp1113
g24
tp1114
Rp1115
(I1
(I3
tp1116
g307
I00
S'\xf8C*\xbe\x14\xcf\xe8?\x81d\xab\xeb\xa8<\x18\xc0\xc8\\\xf4\x8c\xc3\xfa\xfe\xbf'
p1117
tp1118
bag21
(g22
(I0
tp1119
g24
tp1120
Rp1121
(I1
(I3
tp1122
g307
I00
S'4#\xe8i\x80D\xf8?\xdd\x1dlTl\\\x19\xc0m\xc1\x1a\xec\xde\x01\x01\xc0'
p1123
tp1124
bag21
(g22
(I0
tp1125
g24
tp1126
Rp1127
(I1
(I3
tp1128
g307
I00
S'\x84\xa3|.\x10\xee\xfc?\xfc\xc5\t\x9e\xc3\xe9\x1a\xc0\xec\x96S\xb5\x05\x08\x05\xc0'
p1129
tp1130
bag21
(g22
(I0
tp1131
g24
tp1132
Rp1133
(I1
(I3
tp1134
g307
I00
S'\xc4_\xf9\x03N\xba\x00@R\xfd8\x1fs\r\x1d\xc0\xa1\xe6w68\xd4\x03\xc0'
p1135
tp1136
bag21
(g22
(I0
tp1137
g24
tp1138
Rp1139
(I1
(I3
tp1140
g307
I00
S'h\xe5u\t\x19Z\x05@*\x05#\xa8W\x05\x1f\xc0\t\xdeI\x16\xa6\x8a\xee?'
p1141
tp1142
bag1060
asbsg86
(itrajectory_representation.operator
Operator
p1143
(dp1144
g8
I01
sg9
(dp1145
g11
g86
ssg16
g757
sg18
(dp1146
g20
g21
(g22
(I0
tp1147
g24
tp1148
Rp1149
(I1
(I3
tp1150
g31
I00
S'\xa4\xfa\x0b\n\xc7\xc8\xc7?X\x13\xeeu\xba\x87\x18\xc0k\x817\xc3\xcbW\xe2?'
p1151
tp1152
bssg46
(lp1153
g21
(g22
(I0
tp1154
g24
tp1155
Rp1156
(I1
(I3
tp1157
g296
I00
S'\xf0[s\xc8o\x08\xf4?\xb7\x9dp8]\x7f\x1f\xc0\x82\\\x1b\x8e\x12\x96\xfe?'
p1158
tp1159
bag21
(g22
(I0
tp1160
g24
tp1161
Rp1162
(I1
(I3
tp1163
g307
I00
S'\x08\x171\xc6\x9f\xd1\xe4?\xb69P\xb8\xb4\x03\x1e\xc0\x00`"#(A\x05@'
p1164
tp1165
bag21
(g22
(I0
tp1166
g24
tp1167
Rp1168
(I1
(I3
tp1169
g307
I00
S'\xdb\xee8\xd0\xa2\xfd\xc5?\xb2\x0e(\xac\xe3\xcd\x1d\xc0a\xbax\xf1*\x16\x01@'
p1170
tp1171
bag21
(g22
(I0
tp1172
g24
tp1173
Rp1174
(I1
(I3
tp1175
g307
I00
S'\xc0T\xe2\x97\xaf3h\xbfv\xa30\xd5\xeb\xd1\x1a\xc0\x8a\rz\xc6\xa6z\x04@'
p1176
tp1177
bag21
(g22
(I0
tp1178
g24
tp1179
Rp1180
(I1
(I3
tp1181
g307
I00
S'Dz\xddx\xe9\xf0\xb4?\x9c\xf2\xf6\xf0\xef \x18\xc0\x03\xe5\x88\xf0JN\xf3?'
p1182
tp1183
bag1149
asbsg716
(itrajectory_representation.operator
Operator
p1184
(dp1185
g8
I01
sg9
(dp1186
g799
Vsquare_packing_box4
p1187
ssg16
g801
sg18
(dp1188
g803
(lp1189
g21
(g22
(I0
tp1190
g24
tp1191
Rp1192
(I1
(I3
tp1193
g296
I00
S'\xda6Z\xe8L\xb1\x06@nEh~\xf54\x19\xc0\x92\\\rW\x8c.\xfa\xbf'
p1194
tp1195
bag21
(g22
(I0
tp1196
g24
tp1197
Rp1198
(I1
(I3
tp1199
g296
I00
S'\xbb\xf4\xad%\xf72\x06@&\x97\t\x7f\xf7\x90\x1e\xc0\xcc\x84\xe7\xebuI\xf4?'
p1200
tp1201
bag21
(g22
(I0
tp1202
g24
tp1203
Rp1204
(I1
(I3
tp1205
g296
I00
S'\xeal\xae\xe0\xec\x1e\x0f@Qlu\x17\rl\x1c\xc0\r\xce\xabw\xd6q\x06@'
p1206
tp1207
basg823
I00
ssg46
(lp1208
g21
(g22
(I0
tp1209
g24
tp1210
Rp1211
(I1
(I3
tp1212
g296
I00
S"06|p(\xcd\xf1?\x9cB\xa5\x811\xbc\x03\xc0\xf4\xcd\x9f\x19'\xce\xc1?"
p1213
tp1214
bag21
(g22
(I0
tp1215
g24
tp1216
Rp1217
(I1
(I3
tp1218
g307
I00
S'M\x96\xea\xee\x17\x04\xdd?R\xe0T\xecA\xde\x06\xc0\x9a +sW,\xe5\xbf'
p1219
tp1220
bag21
(g22
(I0
tp1221
g24
tp1222
Rp1223
(I1
(I3
tp1224
g307
I00
S'\xceT\x9e/\xb5f\xd8?VQ\xf7\xbeD\xed\x0c\xc0:\xc1\x11<R\xda\xfb\xbf'
p1225
tp1226
bag21
(g22
(I0
tp1227
g24
tp1228
Rp1229
(I1
(I3
tp1230
g307
I00
S"\xaeJ\xbd\x1936\xec?\x04\x13\xd4'\x9f\x88\x10\xc0\x805qo\xb6\xe6\xff\xbf"
p1231
tp1232
bag21
(g22
(I0
tp1233
g24
tp1234
Rp1235
(I1
(I3
tp1236
g307
I00
S'l[\xc4\x16<\xe6\xe9?\xa6\xa0\x90\x84X\x9f\x13\xc0\xc2\xd74Q\x00\xaf\xff\xbf'
p1237
tp1238
bag21
(g22
(I0
tp1239
g24
tp1240
Rp1241
(I1
(I3
tp1242
g307
I00
S'\xd0\xcb\x13\x8f\xaa\x9d\xed?\x90\x01<]3\x06\x16\xc0F\xf1\xe7x32\x02\xc0'
p1243
tp1244
bag21
(g22
(I0
tp1245
g24
tp1246
Rp1247
(I1
(I3
tp1248
g307
I00
S'\xf8C*\xbe\x14\xcf\xe8?\x81d\xab\xeb\xa8<\x18\xc0\xc8\\\xf4\x8c\xc3\xfa\xfe\xbf'
p1249
tp1250
bag21
(g22
(I0
tp1251
g24
tp1252
Rp1253
(I1
(I3
tp1254
g307
I00
S'4#\xe8i\x80D\xf8?\xdd\x1dlTl\\\x19\xc0m\xc1\x1a\xec\xde\x01\x01\xc0'
p1255
tp1256
bag21
(g22
(I0
tp1257
g24
tp1258
Rp1259
(I1
(I3
tp1260
g307
I00
S'\x84\xa3|.\x10\xee\xfc?\xfc\xc5\t\x9e\xc3\xe9\x1a\xc0\xec\x96S\xb5\x05\x08\x05\xc0'
p1261
tp1262
bag21
(g22
(I0
tp1263
g24
tp1264
Rp1265
(I1
(I3
tp1266
g307
I00
S'\xc4_\xf9\x03N\xba\x00@R\xfd8\x1fs\r\x1d\xc0\xa1\xe6w68\xd4\x03\xc0'
p1267
tp1268
bag21
(g22
(I0
tp1269
g24
tp1270
Rp1271
(I1
(I3
tp1272
g307
I00
S'h\xe5u\t\x19Z\x05@*\x05#\xa8W\x05\x1f\xc0\t\xdeI\x16\xa6\x8a\xee?'
p1273
tp1274
bag1198
asbssS'mc_paths'
p1275
(dp1276
sS'robot'
p1277
NsS'reachable_obj_region_pairs'
p1278
(lp1279
sS'sampled_pick_configs_for_objects'
p1280
(dp1281
sS'mc_calls'
p1282
I0
sS'pick_poses'
p1283
g753
sS'problem_env'
p1284
NsS'evaluations'
p1285
(dp1286
(g510
g636
g287
tp1287
I00
s(g477
g636
g287
tp1288
I00
s(g636
g567
g287
tp1289
I00
s(g399
g477
g287
tp1290
I01
s(g567
g438
g287
tp1291
I00
s(g336
g477
g287
tp1292
I01
s(g438
g286
g287
tp1293
I00
s(g567
g636
g287
tp1294
I00
s(g399
g336
g287
tp1295
I00
s(g477
g438
g287
tp1296
I01
s(g510
g438
g287
tp1297
I01
s(g510
g399
g287
tp1298
I01
s(g477
g286
g287
tp1299
I00
s(g399
g567
g287
tp1300
I00
s(g567
g286
g287
tp1301
I00
s(g336
g567
g287
tp1302
I00
s(g438
g636
g287
tp1303
I00
s(g567
g336
g287
tp1304
I01
s(g636
g510
g287
tp1305
I00
s(g286
g438
g287
tp1306
I00
s(g336
g510
g287
tp1307
I00
s(g567
g399
g287
tp1308
I01
s(g636
g438
g287
tp1309
I01
s(g286
g399
g287
tp1310
I01
s(g636
g336
g287
tp1311
I00
s(g399
g510
g287
tp1312
I00
s(g438
g510
g287
tp1313
I00
s(g286
g567
g287
tp1314
I00
s(g286
g510
g287
tp1315
I00
s(g567
g510
g287
tp1316
I00
s(g336
g636
g287
tp1317
I01
s(g399
g636
g287
tp1318
I00
s(g510
g336
g287
tp1319
I00
s(g477
g510
g287
tp1320
I00
s(g336
g399
g287
tp1321
I01
s(g286
g336
g287
tp1322
I00
s(g477
g399
g287
tp1323
I01
s(g567
g477
g287
tp1324
I01
s(g438
g477
g287
tp1325
I01
s(g477
g336
g287
tp1326
I00
s(g336
g286
g287
tp1327
I00
s(g438
g567
g287
tp1328
I00
s(g477
g567
g287
tp1329
I00
s(g399
g286
g287
tp1330
I00
s(g510
g567
g287
tp1331
I00
s(g510
g286
g287
tp1332
I00
s(g286
g636
g287
tp1333
I00
s(g636
g477
g287
tp1334
I00
s(g399
g438
g287
tp1335
I00
s(g438
g336
g287
tp1336
I00
s(g336
g438
g287
tp1337
I01
s(g438
g399
g287
tp1338
I01
s(g636
g399
g287
tp1339
I01
s(g286
g477
g287
tp1340
I00
s(g636
g286
g287
tp1341
I00
s(g510
g477
g287
tp1342
I01
ssS'paths_to_reachable_entities'
p1343
NsS'use_shortest_path'
p1344
I01
sbsS'ternary_edges'
p1345
(dp1346
(g636
g636
g287
tp1347
(lp1348
I00
as(g438
S'loading_region'
p1349
g1349
tp1350
(lp1351
I00
as(S'entire_region'
p1352
g510
g287
tp1353
(lp1354
I00
as(g477
g336
g1349
tp1355
(lp1356
I00
as(g287
g287
g287
tp1357
(lp1358
I00
as(g336
g636
g1349
tp1359
(lp1360
I00
as(g438
g286
g287
tp1361
(lp1362
I00
as(g287
g399
g287
tp1363
(lp1364
I00
as(g477
g438
g287
tp1365
(lp1366
I01
as(g286
g399
g1349
tp1367
(lp1368
I00
as(g287
g336
g1349
tp1369
(lp1370
I00
as(g477
g1352
g287
tp1371
(lp1372
I00
as(g1349
g287
g1349
tp1373
(lp1374
I00
as(g399
g567
g287
tp1375
(lp1376
I00
as(g336
g1352
g287
tp1377
(lp1378
I00
as(g477
g510
g1349
tp1379
(lp1380
I00
as(g567
g1349
g287
tp1381
(lp1382
I00
as(g1352
g636
g1349
tp1383
(lp1384
I00
as(g287
g1352
g287
tp1385
(lp1386
I00
as(g636
g1349
g287
tp1387
(lp1388
I00
as(g567
g1352
g287
tp1389
(lp1390
I00
as(g438
g438
g1349
tp1391
(lp1392
I00
as(g1349
g336
g1349
tp1393
(lp1394
I00
as(g1352
g1349
g287
tp1395
(lp1396
I00
as(g1352
g477
g287
tp1397
(lp1398
I00
as(g1349
g1349
g287
tp1399
(lp1400
I00
as(g567
g399
g1349
tp1401
(lp1402
I00
as(g287
g287
g1349
tp1403
(lp1404
I00
as(g510
g477
g1349
tp1405
(lp1406
I00
as(g636
g336
g287
tp1407
(lp1408
I00
as(g567
g438
g287
tp1409
(lp1410
I00
as(g510
g287
g1349
tp1411
(lp1412
I00
as(g287
g636
g1349
tp1413
(lp1414
I00
as(g510
g286
g1349
tp1415
(lp1416
I00
as(g286
g510
g287
tp1417
(lp1418
I00
as(g1349
g438
g1349
tp1419
(lp1420
I00
as(g336
g477
g1349
tp1421
(lp1422
I00
as(g636
g636
g1349
tp1423
(lp1424
I00
as(g1352
g336
g287
tp1425
(lp1426
I00
as(g1349
g287
g287
tp1427
(lp1428
I00
as(g399
g636
g287
tp1429
(lp1430
I00
as(g287
g286
g287
tp1431
(lp1432
I00
as(g477
g510
g287
tp1433
(lp1434
I00
as(g286
g336
g287
tp1435
(lp1436
I00
as(g438
g286
g1349
tp1437
(lp1438
I00
as(g567
g477
g287
tp1439
(lp1440
I01
as(g477
g438
g1349
tp1441
(lp1442
I00
as(g477
g636
g1349
tp1443
(lp1444
I00
as(g1352
g477
g1349
tp1445
(lp1446
I00
as(g1349
g286
g1349
tp1447
(lp1448
I00
as(g1352
g287
g287
tp1449
(lp1450
I00
as(g399
g287
g287
tp1451
(lp1452
I00
as(g1349
g1352
g287
tp1453
(lp1454
I00
as(g636
g336
g1349
tp1455
(lp1456
I00
as(g567
g636
g1349
tp1457
(lp1458
I00
as(g567
g567
g287
tp1459
(lp1460
I00
as(g510
g286
g287
tp1461
(lp1462
I00
as(g1352
g636
g287
tp1463
(lp1464
I00
as(g510
g1349
g1349
tp1465
(lp1466
I00
as(g336
g438
g287
tp1467
(lp1468
I01
as(g438
g438
g287
tp1469
(lp1470
I00
as(g438
g399
g287
tp1471
(lp1472
I01
as(g399
g636
g1349
tp1473
(lp1474
I00
as(g336
g510
g1349
tp1475
(lp1476
I00
as(g567
g399
g287
tp1477
(lp1478
I01
as(g510
g477
g287
tp1479
(lp1480
I01
as(g636
g510
g1349
tp1481
(lp1482
I00
as(g510
g287
g287
tp1483
(lp1484
I00
as(g477
g636
g287
tp1485
(lp1486
I00
as(g636
g567
g287
tp1487
(lp1488
I00
as(g286
g510
g1349
tp1489
(lp1490
I00
as(g287
g477
g1349
tp1491
(lp1492
I00
as(g1352
g287
g1349
tp1493
(lp1494
I00
as(g1352
g336
g1349
tp1495
(lp1496
I00
as(g567
g636
g287
tp1497
(lp1498
I00
as(g286
g567
g1349
tp1499
(lp1500
I00
as(g636
g1352
g1349
tp1501
(lp1502
I00
as(g510
g1349
g287
tp1503
(lp1504
I00
as(g567
g477
g1349
tp1505
(lp1506
I00
as(g567
g510
g1349
tp1507
(lp1508
I00
as(g336
g438
g1349
tp1509
(lp1510
I00
as(g287
g286
g1349
tp1511
(lp1512
I00
as(g1352
g567
g1349
tp1513
(lp1514
I00
as(g1349
g286
g287
tp1515
(lp1516
I00
as(g1349
g477
g1349
tp1517
(lp1518
I00
as(g636
g510
g287
tp1519
(lp1520
I00
as(g336
g510
g287
tp1521
(lp1522
I00
as(g1349
g567
g287
tp1523
(lp1524
I00
as(g636
g567
g1349
tp1525
(lp1526
I00
as(g636
g399
g1349
tp1527
(lp1528
I00
as(g286
g336
g1349
tp1529
(lp1530
I00
as(g438
g399
g1349
tp1531
(lp1532
I00
as(g510
g567
g1349
tp1533
(lp1534
I00
as(g287
g438
g1349
tp1535
(lp1536
I00
as(g286
g1349
g1349
tp1537
(lp1538
I00
as(g399
g287
g1349
tp1539
(lp1540
I00
as(g438
g510
g287
tp1541
(lp1542
I00
as(g636
g1352
g287
tp1543
(lp1544
I00
as(g399
g477
g1349
tp1545
(lp1546
I00
as(g286
g636
g1349
tp1547
(lp1548
I00
as(g567
g510
g287
tp1549
(lp1550
I00
as(g336
g1349
g1349
tp1551
(lp1552
I00
as(g477
g287
g287
tp1553
(lp1554
I00
as(g336
g399
g287
tp1555
(lp1556
I01
as(g287
g567
g1349
tp1557
(lp1558
I00
as(g1349
g510
g1349
tp1559
(lp1560
I00
as(g1349
g567
g1349
tp1561
(lp1562
I00
as(g438
g567
g287
tp1563
(lp1564
I00
as(g510
g567
g287
tp1565
(lp1566
I00
as(g438
g510
g1349
tp1567
(lp1568
I00
as(g286
g636
g287
tp1569
(lp1570
I00
as(g636
g477
g287
tp1571
(lp1572
I00
as(g286
g287
g1349
tp1573
(lp1574
I00
as(g336
g1349
g287
tp1575
(lp1576
I00
as(g1349
g399
g1349
tp1577
(lp1578
I00
as(g636
g399
g287
tp1579
(lp1580
I01
as(g286
g286
g287
tp1581
(lp1582
I00
as(g399
g399
g287
tp1583
(lp1584
I00
as(g399
g286
g1349
tp1585
(lp1586
I00
as(g286
g1349
g287
tp1587
(lp1588
I00
as(g567
g336
g287
tp1589
(lp1590
I01
as(g399
g477
g287
tp1591
(lp1592
I01
as(g477
g1349
g1349
tp1593
(lp1594
I00
as(g286
g1352
g1349
tp1595
(lp1596
I00
as(g477
g287
g1349
tp1597
(lp1598
I00
as(g438
g477
g1349
tp1599
(lp1600
I00
as(g336
g399
g1349
tp1601
(lp1602
I00
as(g567
g287
g1349
tp1603
(lp1604
I00
as(g286
g287
g287
tp1605
(lp1606
I00
as(g1349
g399
g287
tp1607
(lp1608
I00
as(g510
g510
g287
tp1609
(lp1610
I00
as(g1349
g336
g287
tp1611
(lp1612
I00
as(g336
g567
g287
tp1613
(lp1614
I00
as(g438
g636
g287
tp1615
(lp1616
I00
as(g438
g567
g1349
tp1617
(lp1618
I00
as(g399
g438
g1349
tp1619
(lp1620
I00
as(g287
g477
g287
tp1621
(lp1622
I00
as(g1352
g286
g1349
tp1623
(lp1624
I00
as(g286
g438
g287
tp1625
(lp1626
I00
as(g510
g1352
g287
tp1627
(lp1628
I00
as(g567
g336
g1349
tp1629
(lp1630
I00
as(g567
g286
g1349
tp1631
(lp1632
I00
as(g399
g510
g287
tp1633
(lp1634
I00
as(g636
g477
g1349
tp1635
(lp1636
I00
as(g399
g1349
g287
tp1637
(lp1638
I00
as(g286
g1352
g287
tp1639
(lp1640
I00
as(g336
g286
g1349
tp1641
(lp1642
I00
as(g636
g438
g287
tp1643
(lp1644
I01
as(g567
g438
g1349
tp1645
(lp1646
I00
as(g336
g336
g1349
tp1647
(lp1648
I00
as(g399
g399
g1349
tp1649
(lp1650
I00
as(g510
g510
g1349
tp1651
(lp1652
I00
as(g438
g336
g1349
tp1653
(lp1654
I00
as(g336
g477
g287
tp1655
(lp1656
I01
as(g1352
g438
g287
tp1657
(lp1658
I00
as(g287
g1352
g1349
tp1659
(lp1660
I00
as(g287
g510
g1349
tp1661
(lp1662
I00
as(g477
g1349
g287
tp1663
(lp1664
I00
as(g438
g636
g1349
tp1665
(lp1666
I00
as(g510
g438
g1349
tp1667
(lp1668
I00
as(g286
g286
g1349
tp1669
(lp1670
I00
as(g1352
g286
g287
tp1671
(lp1672
I00
as(g477
g286
g1349
tp1673
(lp1674
I00
as(g510
g1352
g1349
tp1675
(lp1676
I00
as(g438
g477
g287
tp1677
(lp1678
I01
as(g399
g510
g1349
tp1679
(lp1680
I00
as(g399
g286
g287
tp1681
(lp1682
I00
as(g336
g286
g287
tp1683
(lp1684
I00
as(g438
g287
g1349
tp1685
(lp1686
I00
as(g477
g567
g287
tp1687
(lp1688
I00
as(g567
g567
g1349
tp1689
(lp1690
I00
as(g399
g1352
g287
tp1691
(lp1692
I00
as(g1349
g1352
g1349
tp1693
(lp1694
I00
as(g336
g567
g1349
tp1695
(lp1696
I00
as(g1349
g510
g287
tp1697
(lp1698
I00
as(g1352
g1352
g1349
tp1699
(lp1700
I00
as(g399
g438
g287
tp1701
(lp1702
I00
as(g438
g336
g287
tp1703
(lp1704
I00
as(g1349
g636
g1349
tp1705
(lp1706
I00
as(g286
g438
g1349
tp1707
(lp1708
I00
as(g567
g287
g287
tp1709
(lp1710
I00
as(g1352
g438
g1349
tp1711
(lp1712
I00
as(g567
g286
g287
tp1713
(lp1714
I00
as(g286
g477
g287
tp1715
(lp1716
I00
as(g399
g1349
g1349
tp1717
(lp1718
I00
as(g636
g438
g1349
tp1719
(lp1720
I00
as(g510
g636
g287
tp1721
(lp1722
I00
as(g1352
g1349
g1349
tp1723
(lp1724
I00
as(g1349
g636
g287
tp1725
(lp1726
I00
as(g438
g1352
g287
tp1727
(lp1728
I00
as(g477
g567
g1349
tp1729
(lp1730
I00
as(g477
g399
g1349
tp1731
(lp1732
I00
as(g336
g287
g287
tp1733
(lp1734
I00
as(g399
g1352
g1349
tp1735
(lp1736
I00
as(g399
g336
g287
tp1737
(lp1738
I00
as(g1352
g399
g1349
tp1739
(lp1740
I00
as(g287
g510
g287
tp1741
(lp1742
I00
as(g287
g567
g287
tp1743
(lp1744
I00
as(g510
g438
g287
tp1745
(lp1746
I01
as(g510
g399
g287
tp1747
(lp1748
I01
as(g1352
g567
g287
tp1749
(lp1750
I00
as(g477
g286
g287
tp1751
(lp1752
I00
as(g477
g477
g1349
tp1753
(lp1754
I00
as(g510
g336
g1349
tp1755
(lp1756
I00
as(g336
g287
g1349
tp1757
(lp1758
I00
as(g636
g287
g287
tp1759
(lp1760
I00
as(g438
g287
g287
tp1761
(lp1762
I00
as(g510
g636
g1349
tp1763
(lp1764
I00
as(g336
g636
g287
tp1765
(lp1766
I01
as(g287
g1349
g287
tp1767
(lp1768
I00
as(g1352
g1352
g287
tp1769
(lp1770
I00
as(g636
g286
g1349
tp1771
(lp1772
I00
as(g438
g1352
g1349
tp1773
(lp1774
I00
as(g1349
g477
g287
tp1775
(lp1776
I00
as(g286
g399
g287
tp1777
(lp1778
I01
as(g1352
g399
g287
tp1779
(lp1780
I00
as(g438
g1349
g287
tp1781
(lp1782
I00
as(g286
g477
g1349
tp1783
(lp1784
I00
as(g287
g438
g287
tp1785
(lp1786
I00
as(g1352
g510
g1349
tp1787
(lp1788
I00
as(g336
g1352
g1349
tp1789
(lp1790
I00
as(g477
g477
g287
tp1791
(lp1792
I00
as(g510
g336
g287
tp1793
(lp1794
I00
as(g567
g1352
g1349
tp1795
(lp1796
I00
as(g477
g399
g287
tp1797
(lp1798
I01
as(g287
g336
g287
tp1799
(lp1800
I00
as(g286
g567
g287
tp1801
(lp1802
I00
as(g399
g336
g1349
tp1803
(lp1804
I00
as(g336
g336
g287
tp1805
(lp1806
I00
as(g510
g399
g1349
tp1807
(lp1808
I00
as(g477
g336
g287
tp1809
(lp1810
I00
as(g567
g1349
g1349
tp1811
(lp1812
I00
as(g287
g636
g287
tp1813
(lp1814
I00
as(g636
g1349
g1349
tp1815
(lp1816
I00
as(g287
g399
g1349
tp1817
(lp1818
I00
as(g636
g287
g1349
tp1819
(lp1820
I00
as(g1349
g1349
g1349
tp1821
(lp1822
I00
as(g477
g1352
g1349
tp1823
(lp1824
I00
as(g399
g567
g1349
tp1825
(lp1826
I00
as(g287
g1349
g1349
tp1827
(lp1828
I00
as(g636
g286
g287
tp1829
(lp1830
I00
as(g1349
g438
g287
tp1831
(lp1832
I00
assg752
g753
sS'use_prm'
p1833
I01
sS'object_names'
p1834
(lp1835
S'square_packing_box1'
p1836
aS'rectangular_packing_box1'
p1837
aS'square_packing_box2'
p1838
aS'rectangular_packing_box2'
p1839
aS'square_packing_box3'
p1840
aS'rectangular_packing_box3'
p1841
aS'square_packing_box4'
p1842
aS'rectangular_packing_box4'
p1843
asg1284
NsS'current_holding_collides'
p1844
NsS'object_poses'
p1845
(dp1846
Vrectangular_packing_box4
p1847
g21
(g22
(I0
tp1848
g24
tp1849
Rp1850
(I1
(I1
I3
tp1851
g296
I00
S'd\x83\xc1\xa3B\xf8\xe1?\xe1\xae\x00|tY\x15\xc0\xe8\xfc@x\x90a\x08@'
p1852
tp1853
bsVrectangular_packing_box2
p1854
g21
(g22
(I0
tp1855
g24
tp1856
Rp1857
(I1
(I1
I3
tp1858
g296
I00
S'8\xe7\xf8\xa8\x93\xf5\xe9?\xf6\xc5X\xc3\xefR\x1b\xc0\x9bIld=\x06\x18@'
p1859
tp1860
bsVrectangular_packing_box3
p1861
g21
(g22
(I0
tp1862
g24
tp1863
Rp1864
(I1
(I1
I3
tp1865
g296
I00
S'\xf2\xee\x15\x965\x90\xdb\xbf\xb4\x1a\xc3\xa2r\xb3\x15\xc0\x8e\t\xa9c\xbc)\xfa?'
p1866
tp1867
bsVrectangular_packing_box1
p1868
g21
(g22
(I0
tp1869
g24
tp1870
Rp1871
(I1
(I1
I3
tp1872
g296
I00
S'\xb6\x98\x80e\xc8\xdb\x0c@~ \x97m\xa4\xce\x17\xc0\x12\xef\xe6.nD\x11@'
p1873
tp1874
bsVsquare_packing_box2
p1875
g21
(g22
(I0
tp1876
g24
tp1877
Rp1878
(I1
(I1
I3
tp1879
g296
I00
S'\xdc\x90\xd1\xf8x\xf5\xf9?~\x0f8\x8d\xa7,\x15\xc0o\xef\xd9\xe9\x0c\xfa\xfb?'
p1880
tp1881
bsVsquare_packing_box3
p1882
g21
(g22
(I0
tp1883
g24
tp1884
Rp1885
(I1
(I1
I3
tp1886
g296
I00
S'\x04\xcc\x80\xf8\xbb\xe3\x0e@\x94a@\x88]\x90\x1d\xc06\x18F\x9bzC\xf3?'
p1887
tp1888
bsVsquare_packing_box1
p1889
g21
(g22
(I0
tp1890
g24
tp1891
Rp1892
(I1
(I1
I3
tp1893
g296
I00
S'4\x9f\x1e\x18h\x02\xf0?@z-Q\xe7;\x18\xc0\xb0\xa1\n^\x118\x0b@'
p1894
tp1895
bsVsquare_packing_box4
p1896
g21
(g22
(I0
tp1897
g24
tp1898
Rp1899
(I1
(I1
I3
tp1900
g296
I00
S'\xc5\xf7\xbf\x17p\x0c\x08@k\xc9\xaf\xd1\xabZ\x1c\xc0\x7f\x85/KP5\x13@'
p1901
tp1902
bssS'reachable_regions_while_holding'
p1903
(lp1904
(g12
g1349
tp1905
a(g713
g1349
tp1906
a(g861
g1349
tp1907
a(g714
g1349
tp1908
a(g996
g1349
tp1909
a(g715
g1349
tp1910
a(g86
g1349
tp1911
a(g716
g1349
tp1912
asS'in_region'
p1913
(itrajectory_representation.predicates.in_region
InRegion
p1914
(dp1915
g1284
NsbsS'cached_pick_paths'
p1916
(dp1917
g12
g765
sg713
(lp1918
g21
(g22
(I0
tp1919
g24
tp1920
Rp1921
(I1
(I3
tp1922
g296
I00
S'\xf0[s\xc8o\x08\xf4?\xb7\x9dp8]\x7f\x1f\xc0\x82\\\x1b\x8e\x12\x96\xfe?'
p1923
tp1924
bag813
asg861
(lp1925
g21
(g22
(I0
tp1926
g24
tp1927
Rp1928
(I1
(I3
tp1929
g296
I00
S'\xf0[s\xc8o\x08\xf4?\xb7\x9dp8]\x7f\x1f\xc0\x82\\\x1b\x8e\x12\x96\xfe?'
p1930
tp1931
bag21
(g22
(I0
tp1932
g24
tp1933
Rp1934
(I1
(I3
tp1935
g307
I00
S'\x08\x171\xc6\x9f\xd1\xe4?\xb69P\xb8\xb4\x03\x1e\xc0\x00`"#(A\x05@'
p1936
tp1937
bag21
(g22
(I0
tp1938
g24
tp1939
Rp1940
(I1
(I3
tp1941
g307
I00
S"f'\x1d)\\\x10\xe6?I\x87\x7f\xab\xf9\x9f\x1b\xc0\x90\xd8HX\xe5\x0e\x04@"
p1942
tp1943
bag21
(g22
(I0
tp1944
g24
tp1945
Rp1946
(I1
(I3
tp1947
g307
I00
S'`$W\xed\x83\x04\xe1?@\xe9\x80h\xcc\xf0\x18\xc0{2\xe8\xfe\xbeY\r@'
p1948
tp1949
bag876
asg714
(lp1950
g21
(g22
(I0
tp1951
g24
tp1952
Rp1953
(I1
(I3
tp1954
g296
I00
S'\xf0[s\xc8o\x08\xf4?\xb7\x9dp8]\x7f\x1f\xc0\x82\\\x1b\x8e\x12\x96\xfe?'
p1955
tp1956
bag21
(g22
(I0
tp1957
g24
tp1958
Rp1959
(I1
(I3
tp1960
g307
I00
S'\xad\xa0\xdfFH\xe9\xf6?\xa3\xfc\x14D\x8bb\x1d\xc0\x9e2hH\xc0\xe5\xf0?'
p1961
tp1962
bag21
(g22
(I0
tp1963
g24
tp1964
Rp1965
(I1
(I3
tp1966
g307
I00
S'\xb9\x81\xdfb\xdf\x92\xfe?\x1a\xe3?2\xb6\xec\x1a\xc0B\x1b\x81\xfa\x93C\xfa?'
p1967
tp1968
bag21
(g22
(I0
tp1969
g24
tp1970
Rp1971
(I1
(I3
tp1972
g307
I00
S'A\xec\xb55+(\x03@v\x14\x1a\xc5J\xca\x18\xc0\xe9\rA\xa0%\xbe\xc7?'
p1973
tp1974
bag925
asg996
(lp1975
g21
(g22
(I0
tp1976
g24
tp1977
Rp1978
(I1
(I3
tp1979
g296
I00
S'\xf0[s\xc8o\x08\xf4?\xb7\x9dp8]\x7f\x1f\xc0\x82\\\x1b\x8e\x12\x96\xfe?'
p1980
tp1981
bag21
(g22
(I0
tp1982
g24
tp1983
Rp1984
(I1
(I3
tp1985
g307
I00
S'\x08\x171\xc6\x9f\xd1\xe4?\xb69P\xb8\xb4\x03\x1e\xc0\x00`"#(A\x05@'
p1986
tp1987
bag21
(g22
(I0
tp1988
g24
tp1989
Rp1990
(I1
(I3
tp1991
g307
I00
S"f'\x1d)\\\x10\xe6?I\x87\x7f\xab\xf9\x9f\x1b\xc0\x90\xd8HX\xe5\x0e\x04@"
p1992
tp1993
bag21
(g22
(I0
tp1994
g24
tp1995
Rp1996
(I1
(I3
tp1997
g307
I00
S'B\x9aa8\x98\xa6\xe8?\xf3\xe9\x94/\xc2\xe4\x18\xc0u\xf8\xb0\x7fO\xb8\xf2?'
p1998
tp1999
bag1005
asg715
(lp2000
g21
(g22
(I0
tp2001
g24
tp2002
Rp2003
(I1
(I3
tp2004
g296
I00
S'\xf0[s\xc8o\x08\xf4?\xb7\x9dp8]\x7f\x1f\xc0\x82\\\x1b\x8e\x12\x96\xfe?'
p2005
tp2006
bag21
(g22
(I0
tp2007
g24
tp2008
Rp2009
(I1
(I3
tp2010
g307
I00
S'&\x0c\x9f\xd5\xa9\xbf\xfc?n\x13\xcb\xbd\xbf\x0b \xc0L\xd8\xef\x1bN\xb4\x00@'
p2011
tp2012
bag21
(g22
(I0
tp2013
g24
tp2014
Rp2015
(I1
(I3
tp2016
g307
I00
S'V<\xdb\x99-b\x02@s\xd3@:\x7fA\x1e\xc0\xbf\x94H\xa7$\xf0\xff?'
p2017
tp2018
bag21
(g22
(I0
tp2019
g24
tp2020
Rp2021
(I1
(I3
tp2022
g307
I00
S'h\xe5u\t\x19Z\x05@*\x05#\xa8W\x05\x1f\xc0\t\xdeI\x16\xa6\x8a\xee?'
p2023
tp2024
bag1060
asg86
g1153
sg716
(lp2025
g21
(g22
(I0
tp2026
g24
tp2027
Rp2028
(I1
(I3
tp2029
g296
I00
S'\xf0[s\xc8o\x08\xf4?\xb7\x9dp8]\x7f\x1f\xc0\x82\\\x1b\x8e\x12\x96\xfe?'
p2030
tp2031
bag21
(g22
(I0
tp2032
g24
tp2033
Rp2034
(I1
(I3
tp2035
g307
I00
S'\xa4\xc8\xcc\x88S\x9f\xf6?N\xeaYik!\x1e\xc0\x00W\xeas\x1a)\xfa?'
p2036
tp2037
bag21
(g22
(I0
tp2038
g24
tp2039
Rp2040
(I1
(I3
tp2041
g307
I00
S'\xb9O\xa7Y\x02\x91\x00@\x96d\x95\x0e\xe6\xda\x1e\xc0l\xef\x8e\x11Rk\xeb?'
p2042
tp2043
bag1198
assg717
(dp2044
(Vrectangular_packing_box3
p2045
(cnumpy.core.multiarray
scalar
p2046
(g296
S'\xcc\xeb\x88C6\x90\xdb\xbf'
p2047
tp2048
Rp2049
g2046
(g296
S'\xe3\x8a\x8b\xa3r\xb3\x15\xc0'
p2050
tp2051
Rp2052
g2046
(g296
S'\x8ev\xdc\xf0\xbb)\xfa?'
p2053
tp2054
Rp2055
tp2056
tp2057
g731
s(Vsquare_packing_box1
p2058
(g2046
(g296
S'\x1eR\x0c\x90h\x02\xf0?'
p2059
tp2060
Rp2061
g2046
(g296
S'\x96C\x8bl\xe7;\x18\xc0'
p2062
tp2063
Rp2064
g2046
(g296
S'\xfdL\xbdn\x118\x0b@'
p2065
tp2066
Rp2067
tp2068
tp2069
g747
s(Vrectangular_packing_box1
p2070
(g2046
(g296
S'F\xb3\xb2}\xc8\xdb\x0c@'
p2071
tp2072
Rp2073
g2046
(g296
S'Gv\xa5e\xa4\xce\x17\xc0'
p2074
tp2075
Rp2076
g2046
(g296
S'\x8c\xf5\rLnD\x11@'
p2077
tp2078
Rp2079
tp2080
tp2081
g735
s(Vsquare_packing_box3
p2082
(g2046
(g296
S'|\x0b\xeb\xc6\xbb\xe3\x0e@'
p2083
tp2084
Rp2085
g2046
(g296
S'wL\xdd\x95]\x90\x1d\xc0'
p2086
tp2087
Rp2088
g2046
(g296
S'\xb6\xbf\xb3=zC\xf3?'
p2089
tp2090
Rp2091
tp2092
tp2093
g743
s(Vsquare_packing_box2
p2094
(g2046
(g296
S'\xda\xc9\xe0(y\xf5\xf9?'
p2095
tp2096
Rp2097
g2046
(g296
S'9`W\x93\xa7,\x15\xc0'
p2098
tp2099
Rp2100
g2046
(g296
S'wMHk\x0c\xfa\xfb?'
p2101
tp2102
Rp2103
tp2104
tp2105
g739
s(Vsquare_packing_box4
p2106
(g2046
(g296
S'\xdf\x1bC\x00p\x0c\x08@'
p2107
tp2108
Rp2109
g2046
(g296
S'7\xc4x\xcd\xabZ\x1c\xc0'
p2110
tp2111
Rp2112
g2046
(g296
S'\x1e2\xe5CP5\x13@'
p2113
tp2114
Rp2115
tp2116
tp2117
g751
s(Vrectangular_packing_box4
p2118
(g2046
(g296
S'\x0e\xf8\xfc0B\xf8\xe1?'
p2119
tp2120
Rp2121
g2046
(g296
S'\x06-$`tY\x15\xc0'
p2122
tp2123
Rp2124
g2046
(g296
S'\xf8\x1cX\x8e\x90a\x08@'
p2125
tp2126
Rp2127
tp2128
tp2129
g723
s(Vrectangular_packing_box2
p2130
(g2046
(g296
S'\x01/3l\x94\xf5\xe9?'
p2131
tp2132
Rp2133
g2046
(g296
S'\xd9\xd18\xd4\xefR\x1b\xc0'
p2134
tp2135
Rp2136
g2046
(g296
S'\xab\xcej\x81=\x06\x18@'
p2137
tp2138
Rp2139
tp2140
tp2141
g727
ssS'state_saver'
p2142
(igtamp_utils.utils
CustomStateSaver
p2143
(dp2144
S'robot_base_pose'
p2145
g21
(g22
(I0
tp2146
g24
tp2147
Rp2148
(I1
(I1
I3
tp2149
g296
I00
S'\xe7[s\xc8o\x08\xf4?\xb7\x9dp8]\x7f\x1f\xc0\x82\\\x1b\x8e\x12\x96\xfe?'
p2150
tp2151
bsS'held_object'
p2152
NsS'robot_name'
p2153
S'pr2'
p2154
sS'env_id'
p2155
I1
sg1845
(dp2156
Vright_wall_1
p2157
g21
(g22
(I0
tp2158
g24
tp2159
Rp2160
(I1
(I4
tp2161
g296
I00
S'H\xe1z\x14\xaeG\x12@&\\\x8f\xc2\xf5(\xd4\xbf\xcc\x7fH\xbf}\x1d\xed?\x00\x00\x00\x00\x00\x00\x00\x00'
p2162
tp2163
bsVc_obst5
p2164
g21
(g22
(I0
tp2165
g24
tp2166
Rp2167
(I1
(I4
tp2168
g296
I00
S"SB\xbe\xb1\xf5&\x12@\xc7|9w\x90b\xd3?e\xaa`TR'\xed?E\xd6`1/g\xb3?"
p2169
tp2170
bsVentrance_right
p2171
g21
(g22
(I0
tp2172
g24
tp2173
Rp2174
(I1
(I4
tp2175
g296
I00
S'ffffff\n@H\xe1z\x14\xaeG\t\xc0\x9c\xc4 \xb0rh\xc1?\x00\x00\x00\x00\x00\x00\x00\x00'
p2176
tp2177
bsVcomputer_table
p2178
g21
(g22
(I0
tp2179
g24
tp2180
Rp2181
(I1
(I4
tp2182
g296
I00
S'\x00\x00\x00\x00\x00\x00\x13@\x00\x00\x00\x00\x00\x00\xf8\xbf\x96C\x8bl\xe7\xfb\xe7?\xd2!3\x7f|\xd9\x12@'
p2183
tp2184
bsVchair_6b56
p2185
g21
(g22
(I0
tp2186
g24
tp2187
Rp2188
(I1
(I4
tp2189
g296
I00
S'u=\n\xd7\xa3p\xf5?K\xe1z\x14\xaeG\xd1?\x00\x00\x00\x00\x00\x00\x00\x00\xd6$\xfaNBm\n@'
p2190
tp2191
bsVsquare_packing_box3
p2192
g21
(g22
(I0
tp2193
g24
tp2194
Rp2195
(I1
(I4
tp2196
g296
I00
S'\x06\xcc\x80\xf8\xbb\xe3\x0e@\x96a@\x88]\x90\x1d\xc0L7\x89A`\xe5\xd8?6\x18F\x9bzC\xf3?'
p2197
tp2198
bsVsquare_packing_box2
p2199
g21
(g22
(I0
tp2200
g24
tp2201
Rp2202
(I1
(I4
tp2203
g296
I00
S'\xdc\x90\xd1\xf8x\xf5\xf9?~\x0f8\x8d\xa7,\x15\xc0L7\x89A`\xe5\xd8?o\xef\xd9\xe9\x0c\xfa\xfb?'
p2204
tp2205
bsVtable
p2206
g21
(g22
(I0
tp2207
g24
tp2208
Rp2209
(I1
(I4
tp2210
g296
I00
S'\x7f\xf6#EdX\xed?\xac\xffs\x98//\xc0\xbf\x00\x00\x00\x00\x00\x00\x00\x00\x00\x00\x00\x00\x00\x00\x00\x00'
p2211
tp2212
bsVsquare_packing_box1
p2213
g21
(g22
(I0
tp2214
g24
tp2215
Rp2216
(I1
(I4
tp2217
g296
I00
S'4\x9f\x1e\x18h\x02\xf0?Ez-Q\xe7;\x18\xc0L7\x89A`\xe5\xd8?\xb0\xa1\n^\x118\x0b@'
p2218
tp2219
bsVback_wall_2
p2220
g21
(g22
(I0
tp2221
g24
tp2222
Rp2223
(I1
(I4
tp2224
g296
I00
S'\xaeG\xe1z\x14.\x13@\x80\x14\xaeG\xe1z\xc4?xX\xa85\xcd\xbb\xf2?\x00\x00\x00\x00\x00\x00\x00\x00'
p2225
tp2226
bsVchair_083c
p2227
g21
(g22
(I0
tp2228
g24
tp2229
Rp2230
(I1
(I4
tp2231
g296
I00
S'\xa4p=\n\xd7\xa3\xe0?333333\xe3\xbf\x00\x00\x00\x00\x00\x00\x00\x00\x00\x00\x00\x00\x00\x00\x00\x00'
p2232
tp2233
bsVback_wall_1
p2234
g21
(g22
(I0
tp2235
g24
tp2236
Rp2237
(I1
(I4
tp2238
g296
I00
S'\xaeG\xe1z\x14.\x13@\x80\x14\xaeG\xe1z\xc4?\xcc\x7fH\xbf}\x1d\xed?\x00\x00\x00\x00\x00\x00\x00\x00'
p2239
tp2240
bsVbottom_wall
p2241
g21
(g22
(I0
tp2242
g24
tp2243
Rp2244
(I1
(I4
tp2245
g296
I00
S'\x00\x00\x00\x00\x00\x00\xfc?\x00\x00\x00\x00\x00\x00\x00\x00\x00\x00\x00\x00\x00\x00\x00\x00\x00\x00\x00\x00\x00\x00\x00\x00'
p2246
tp2247
bsVcup_905a
p2248
g21
(g22
(I0
tp2249
g24
tp2250
Rp2251
(I1
(I4
tp2252
g296
I00
S'\x00\x00\x00\x00\x00\x00\xf0?\x83\xc0\xca\xa1E\xb6\xdb?\x1b/\xdd$\x06\x81\xed?\x00\x00\x00\x00\x00\x00\x00\x00'
p2253
tp2254
bsVplate_496f
p2255
g21
(g22
(I0
tp2256
g24
tp2257
Rp2258
(I1
(I4
tp2259
g296
I00
S"q=\n\xd7\xa3p\xe5?\x9dhW!\xe5'\xdd\xbf\x1b/\xdd$\x06\x81\xed?\x00\x00\x00\x00\x00\x00\x00\x00"
p2260
tp2261
bsVtoaster
p2262
g21
(g22
(I0
tp2263
g24
tp2264
Rp2265
(I1
(I4
tp2266
g296
I00
S')\\\x8f\xc2\xf5(\xf4\xbf\xe0z\x14\xaeG\xe1\xf2\xbf\xb8\x1e\x85\xebQ\xb8\xee?\x89/`\x9b\xf8\x8a\xe4?'
p2267
tp2268
bsVc_obst1
p2269
g21
(g22
(I0
tp2270
g24
tp2271
Rp2272
(I1
(I4
tp2273
g296
I00
S"E4\xaf\xb4j\xa1\x12@\x91\xad\x8f\xc5\x0cm\x0e?e\xaa`TR'\xed?\xc5\xd8D\xf8\x82\x11\x11@"
p2274
tp2275
bsVrectangular_packing_box4
p2276
g21
(g22
(I0
tp2277
g24
tp2278
Rp2279
(I1
(I4
tp2280
g296
I00
S'f\x83\xc1\xa3B\xf8\xe1?\xe3\xae\x00|tY\x15\xc0L7\x89A`\xe5\xd8?\xe8\xfc@x\x90a\x08@'
p2281
tp2282
bsVmicrowave
p2283
g21
(g22
(I0
tp2284
g24
tp2285
Rp2286
(I1
(I4
tp2287
g296
I00
S'\x9a\x99\x99\x99\x99\x99\xf1\xbf\x00\x00\x00\x00\x00\x00\x00@7\x89A`\xe5\xd0\xee?\x00\x00\x00\x00\x00\x00\x00\x00'
p2288
tp2289
bsVc_obst7
p2290
g21
(g22
(I0
tp2291
g24
tp2292
Rp2293
(I1
(I4
tp2294
g296
I00
S"\xe4\x14\x0c\xa6rS\x12@\xc0zX\x7f\x98A\xc5?e\xaa`TR'\xed?\xb5m\xb1\xbc!\xcc\r@"
p2295
tp2296
bsVc_obst6
p2297
g21
(g22
(I0
tp2298
g24
tp2299
Rp2300
(I1
(I4
tp2301
g296
I00
S"~\x1d\x1e]\xe6\x85\x12@{\x06\\\xd0\x88\xdb\xdf?e\xaa`TR'\xed?\x9bq\xc6R9l\xc7?"
p2302
tp2303
bsVcup_b6af
p2304
g21
(g22
(I0
tp2305
g24
tp2306
Rp2307
(I1
(I4
tp2308
g296
I00
S'R\xb8\x1e\x85\xebQ\xe8?\x9a\x99\x99\x99\x99\x99\xe1?\x1b/\xdd$\x06\x81\xed?\x00\x00\x00\x00\x00\x00\x00\x00'
p2309
tp2310
bsVc_obst4
p2311
g21
(g22
(I0
tp2312
g24
tp2313
Rp2314
(I1
(I4
tp2315
g296
I00
S"3\xa6[\xceU7\x12@pL\x12\\e\xac\xb7?e\xaa`TR'\xed?Z\xbf}\xd0\xe0\x9a\x11@"
p2316
tp2317
bsVrectangular_packing_box2
p2318
g21
(g22
(I0
tp2319
g24
tp2320
Rp2321
(I1
(I4
tp2322
g296
I00
S'5\xe7\xf8\xa8\x93\xf5\xe9?\xf6\xc5X\xc3\xefR\x1b\xc0L7\x89A`\xe5\xd8?\x9bIld=\x06\x18@'
p2323
tp2324
bsVplate_fa76
p2325
g21
(g22
(I0
tp2326
g24
tp2327
Rp2328
(I1
(I4
tp2329
g296
I00
S'=\n\xd7\xa3p=\xf2?\x00\x00\x00\x00\x00\x00\x00\x00\x1b/\xdd$\x06\x81\xed?\x00\x00\x00\x00\x00\x00\x00\x00'
p2330
tp2331
bsVfloorwalls
p2332
g21
(g22
(I0
tp2333
g24
tp2334
Rp2335
(I1
(I4
tp2336
g296
I00
S'\xc7\xcc\xcc\xcc\xcc\xcc\xfc?\x00\x00\x00\x00\x00\x00\x18\xc0H\xe1z\x14\xaeG\xc1?\x16-DT\xfb!\xf9?'
p2337
tp2338
bsVpin_c671
p2339
g21
(g22
(I0
tp2340
g24
tp2341
Rp2342
(I1
(I4
tp2343
g296
I00
S'\xc3\xf5(\\\x8f\xc2\xf1\xbf}?5^\xbaI\x02@\xb8\x1e\x85\xebQ\xb8\xfa?\x00\x00\x00\x00\x00\x00\x00\x00'
p2344
tp2345
bsVc_obst3
p2346
g21
(g22
(I0
tp2347
g24
tp2348
Rp2349
(I1
(I4
tp2350
g296
I00
S"\x10\x9f\x01\xbd(\x89\x12@\x1eM9\xbf1\xf0\xd1?e\xaa`TR'\xed?\xcf\xba\x8f'\xc5i\xf9?"
p2351
tp2352
bsVchair_2e39
p2353
g21
(g22
(I0
tp2354
g24
tp2355
Rp2356
(I1
(I4
tp2357
g296
I00
S'hfffff\xee?cfffff\xf2\xbf\x00\x00\x00\x00\x00\x00\x00\x00\x07M\xe8QQF\xf3?'
p2358
tp2359
bsVentrance_left
p2360
g21
(g22
(I0
tp2361
g24
tp2362
Rp2363
(I1
(I4
tp2364
g296
I00
S'\x98\x99\x99\x99\x99\x99\xe9\xbfH\xe1z\x14\xaeG\t\xc0\x9c\xc4 \xb0rh\xc1?\x00\x00\x00\x00\x00\x00\x00\x00'
p2365
tp2366
bsVtop_wall_1
p2367
g21
(g22
(I0
tp2368
g24
tp2369
Rp2370
(I1
(I4
tp2371
g296
I00
S'H\xe1z\x14\xaeG\x12@\x80\x14\xaeG\xe1z\xc4?xX\xa85\xcd\xbb\xf2?\x00\x00\x00\x00\x00\x00\x00\x00'
p2372
tp2373
bsVrectangular_packing_box3
p2374
g21
(g22
(I0
tp2375
g24
tp2376
Rp2377
(I1
(I4
tp2378
g296
I00
S'\xea\xee\x15\x965\x90\xdb\xbf\xae\x1a\xc3\xa2r\xb3\x15\xc0L7\x89A`\xe5\xd8?\x8e\t\xa9c\xbc)\xfa?'
p2379
tp2380
bsVshaker
p2381
g21
(g22
(I0
tp2382
g24
tp2383
Rp2384
(I1
(I4
tp2385
g296
I00
S'\n\xd7\xa3p=\n\x01@\x14\xaeG\xe1z\x14\x02@\\\x8f\xc2\xf5(\\\xef?\x00\x00\x00\x00\x00\x00\x00\x00'
p2386
tp2387
bsVc_obst9
p2388
g21
(g22
(I0
tp2389
g24
tp2390
Rp2391
(I1
(I4
tp2392
g296
I00
S"NY\\\xad\x85K\x12@4\x86nC\xba\r\xdc?e\xaa`TR'\xed?\xa6\xa8\xf1~\xf1\x9b\xe9?"
p2393
tp2394
bsVplate_835a
p2395
g21
(g22
(I0
tp2396
g24
tp2397
Rp2398
(I1
(I4
tp2399
g296
I00
S'\xf6(\\\x8f\xc2\xf5\xf0?\\\x8f\xc2\xf5(\\\xe7\xbf\x1b/\xdd$\x06\x81\xed?\x00\x00\x00\x00\x00\x00\x00\x00'
p2400
tp2401
bsVcup_58a2
p2402
g21
(g22
(I0
tp2403
g24
tp2404
Rp2405
(I1
(I4
tp2406
g296
I00
S'\x85\xebQ\xb8\x1e\x85\xe3?\xcd\xcc\xcc\xcc\xcc\xcc\xdc?\x1b/\xdd$\x06\x81\xed?\x00\x00\x00\x00\x00\x00\x00\x00'
p2407
tp2408
bsVleft_wall_1
p2409
g21
(g22
(I0
tp2410
g24
tp2411
Rp2412
(I1
(I4
tp2413
g296
I00
S'H\xe1z\x14\xaeG\x12@S\xb8\x1e\x85\xebQ\xe4?\xcc\x7fH\xbf}\x1d\xed?\x00\x00\x00\x00\x00\x00\x00\x00'
p2414
tp2415
bsVc_obst2
p2416
g21
(g22
(I0
tp2417
g24
tp2418
Rp2419
(I1
(I4
tp2420
g296
I00
S"U\xbe\xacMQG\x12@n\xb2\x15\xb8\x12e\xc3\xbfe\xaa`TR'\xed?\xfc\xe6E\xc9iQ\xe5?"
p2421
tp2422
bsVsquare_packing_box4
p2423
g21
(g22
(I0
tp2424
g24
tp2425
Rp2426
(I1
(I4
tp2427
g296
I00
S'\xcb\xf7\xbf\x17p\x0c\x08@q\xc9\xaf\xd1\xabZ\x1c\xc0L7\x89A`\xe5\xd8?\x7f\x85/KP5\x13@'
p2428
tp2429
bsVrectangular_packing_box1
p2430
g21
(g22
(I0
tp2431
g24
tp2432
Rp2433
(I1
(I4
tp2434
g296
I00
S'\xb6\x98\x80e\xc8\xdb\x0c@~ \x97m\xa4\xce\x17\xc0L7\x89A`\xe5\xd8?\x12\xef\xe6.nD\x11@'
p2435
tp2436
bsVpin_371e
p2437
g21
(g22
(I0
tp2438
g24
tp2439
Rp2440
(I1
(I4
tp2441
g296
I00
S'333333\xf3\xbfffffff\xf6?\xb8\x1e\x85\xebQ\xb8\xee?\x00\x00\x00\x00\x00\x00\x00\x00'
p2442
tp2443
bsVfridge
p2444
g21
(g22
(I0
tp2445
g24
tp2446
Rp2447
(I1
(I4
tp2448
g296
I00
S'\xd7\xa3p=\n\xd7\xeb\xbf\x00\x00\x00\x00\x00\x00\x00\xc0\xcd\xcc\xcc\xcc\xcc\xcc\xf8?\x00\x00\x00\x00\x00\x00\x00\x00'
p2449
tp2450
bsVcup_d441
p2451
g21
(g22
(I0
tp2452
g24
tp2453
Rp2454
(I1
(I4
tp2455
g296
I00
S'\n\xd7\xa3p=\n\xef?\x8f\xc2\xf5(\\\x8f\xe2?\x1b/\xdd$\x06\x81\xed?\x00\x00\x00\x00\x00\x00\x00\x00'
p2456
tp2457
bsVshelf2
p2458
g21
(g22
(I0
tp2459
g24
tp2460
Rp2461
(I1
(I4
tp2462
g296
I00
S'\x00\x00\x00\x00\x00\x00\x0e@\xaeG\xe1z\x14\xae\x07@\x9c\xc4 \xb0rh\xc1?\xd2!3\x7f|\xd9\x12@'
p2463
tp2464
bsVtop_wall_2
p2465
g21
(g22
(I0
tp2466
g24
tp2467
Rp2468
(I1
(I4
tp2469
g296
I00
S'H\xe1z\x14\xaeG\x12@\x80\x14\xaeG\xe1z\xc4?\x16HP\xfc\x18\xf3\xfd?\x00\x00\x00\x00\x00\x00\x00\x00'
p2470
tp2471
bsVc_obst0
p2472
g21
(g22
(I0
tp2473
g24
tp2474
Rp2475
(I1
(I4
tp2476
g296
I00
S"pp\xab<\x19\x9e\x12@\xc8\xd2\xdf)\xf7\x03\xc7\xbfe\xaa`TR'\xed?Y\x92j/j\xf8\x0f@"
p2477
tp2478
bsVshelf1
p2479
g21
(g22
(I0
tp2480
g24
tp2481
Rp2482
(I1
(I4
tp2483
g296
I00
S'\x00\x00\x00\x00\x00\x00\x13@\xaeG\xe1z\x14\xae\x07@\x9c\xc4 \xb0rh\xc1?\xd2!3\x7f|\xd9\x12@'
p2484
tp2485
bsVsink
p2486
g21
(g22
(I0
tp2487
g24
tp2488
Rp2489
(I1
(I4
tp2490
g296
I00
S'ffffff\xd6?333333\x01@\x9a\x99\x99\x99\x99\x99\xb9\xbf\x00\x00\x00\x00\x00\x00\x00\x00'
p2491
tp2492
bsVpr2
p2493
g21
(g22
(I0
tp2494
g24
tp2495
Rp2496
(I1
(I4
tp2497
g296
I00
S'\xe7[s\xc8o\x08\xf4?\xb7\x9dp8]\x7f\x1f\xc0\x9a_\x94\xa0\xbf\xd0\xc1?\x82\\\x1b\x8e\x12\x96\xfe?'
p2498
tp2499
bsVchair_12d0
p2500
g21
(g22
(I0
tp2501
g24
tp2502
Rp2503
(I1
(I4
tp2504
g296
I00
S'\\\xd2\x18\xad\xa3\xaa\xdb?Of\x83L2r\xc6?\x00\x00\x00\x00\x00\x00\x00\x00\xf8\x81\r\x14M\xa6\x17@'
p2505
tp2506
bsVright_wall_2
p2507
g21
(g22
(I0
tp2508
g24
tp2509
Rp2510
(I1
(I4
tp2511
g296
I00
S'H\xe1z\x14\xaeG\x12@&\\\x8f\xc2\xf5(\xd4\xbfxX\xa85\xcd\xbb\xf2?\x00\x00\x00\x00\x00\x00\x00\x00'
p2512
tp2513
bsVknife_block
p2514
g21
(g22
(I0
tp2515
g24
tp2516
Rp2517
(I1
(I4
tp2518
g296
I00
S'R\xb8\x1e\x85\xebQ\xe0\xbfffffff\x02@`\xe5\xd0"\xdb\xf9\xee?\x00\x00\x00\x00\x00\x00\x00\x00'
p2519
tp2520
bsVleft_wall_2
p2521
g21
(g22
(I0
tp2522
g24
tp2523
Rp2524
(I1
(I4
tp2525
g296
I00
S'H\xe1z\x14\xaeG\x12@S\xb8\x1e\x85\xebQ\xe4?xX\xa85\xcd\xbb\xf2?\x00\x00\x00\x00\x00\x00\x00\x00'
p2526
tp2527
bsVleft_wall
p2528
g21
(g22
(I0
tp2529
g24
tp2530
Rp2531
(I1
(I4
tp2532
g296
I00
S'\x9a\x99\x99\x99\x99\x99\x07@H\xe1z\x14\xaeG\xff?\x9c\xc4 \xb0rh\xc1?\x00\x00\x00\x00\x00\x00\x00\x00'
p2533
tp2534
bsVkitchen
p2535
g21
(g22
(I0
tp2536
g24
tp2537
Rp2538
(I1
(I4
tp2539
g296
I00
S'\x00\x00\x00\x00\x00\x00\x00\x00\x00\x00\x00\x00\x00\x00\x00\x00\x00\x00\x00\x00\x00\x00\x00\x00\x00\x00\x00\x00\x00\x00\x00\x00'
p2540
tp2541
bsVtable2
p2542
g21
(g22
(I0
tp2543
g24
tp2544
Rp2545
(I1
(I4
tp2546
g296
I00
S'\x00\x00\x00\x00\x00\x00\x13@\x80\x14\xaeG\xe1z\xc4?S\x96!\x8euq\xec?\xd2!3\x7f|\xd9\x12@'
p2547
tp2548
bsVc_obst8
p2549
g21
(g22
(I0
tp2550
g24
tp2551
Rp2552
(I1
(I4
tp2553
g296
I00
S"\x00\xf82\x8c\\\xaa\x12@\\\x1a\x88\x06\xee#\xbc?e\xaa`TR'\xed?f\x9c\x04\x03\x10\xed\x18@"
p2554
tp2555
bsVplate_b4e7
p2556
g21
(g22
(I0
tp2557
g24
tp2558
Rp2559
(I1
(I4
tp2560
g296
I00
S'\x14\xaeG\xe1z\x14\xf2\xbf\x14\xaeG\xe1z\x14\x00@=\n\xd7\xa3p=\xf2?\x00\x00\x00\x00\x00\x00\x00\x00'
p2561
tp2562
bsVcooker
p2563
g21
(g22
(I0
tp2564
g24
tp2565
Rp2566
(I1
(I4
tp2567
g296
I00
S'\xaeG\xe1z\x14\xae\xff?\x85\xebQ\xb8\x1e\x85\xfb?\x00\x00\x00\x00\x00\x00\xe8?\x00\x00\x00\x00\x00\x00\x00\x00'
p2568
tp2569
bsVpin_a091
p2570
g21
(g22
(I0
tp2571
g24
tp2572
Rp2573
(I1
(I4
tp2574
g296
I00
S'\xdb\xf9~j\xbct\xf7\xbf)\\\x8f\xc2\xf5(\x02@\xb8\x1e\x85\xebQ\xb8\xfa?\x00\x00\x00\x00\x00\x00\x00\x00'
p2575
tp2576
bsVside_wall_2
p2577
g21
(g22
(I0
tp2578
g24
tp2579
Rp2580
(I1
(I4
tp2581
g296
I00
S'\xfa\xff\xff\xff\xff\xff\x14@\x00\x00\x00\x00\x00\x00\x00\x00\x9c\xc4 \xb0rh\xc1?\x18-DT\xfb!\xf9?'
p2582
tp2583
bsVside_wall_3
p2584
g21
(g22
(I0
tp2585
g24
tp2586
Rp2587
(I1
(I4
tp2588
g296
I00
S'\x00\x00\x00\x00\x00\x00\xfc?H\xe1z\x14\xaeG\t@\x9c\xc4 \xb0rh\xc1?\x00\x00\x00\x00\x00\x00\x00\x00'
p2589
tp2590
bsVmixer
p2591
g21
(g22
(I0
tp2592
g24
tp2593
Rp2594
(I1
(I4
tp2595
g296
I00
S'\n\xd7\xa3p=\n\xfb?ffffff\x02@d;\xdfO\x8d\x97\xee?\x00\x00\x00\x00\x00\x00\x00\x00'
p2596
tp2597
bsVside_wall_1
p2598
g21
(g22
(I0
tp2599
g24
tp2600
Rp2601
(I1
(I4
tp2602
g296
I00
S'\xf4\xff\xff\xff\xff\xff\xfb\xbf\x00\x00\x00\x00\x00\x00\x00\x00\x9c\xc4 \xb0rh\xc1?\x18-DT\xfb!\xf9?'
p2603
tp2604
bsVbottom_wall_1
p2605
g21
(g22
(I0
tp2606
g24
tp2607
Rp2608
(I1
(I4
tp2609
g296
I00
S'H\xe1z\x14\xaeG\x12@\x80\x14\xaeG\xe1z\xc4?\xcc\x7fH\xbf}\x1d\xed?\x00\x00\x00\x00\x00\x00\x00\x00'
p2610
tp2611
bsVcan
p2612
g21
(g22
(I0
tp2613
g24
tp2614
Rp2615
(I1
(I4
tp2616
g296
I00
S'\x00\x00\x00\x00\x00\x00\xf4\xbfH\xe1z\x14\xaeG\xe1\xbf\n\xd7\xa3p=\n\xef?\x00\x00\x00\x00\x00\x00\x00\x00'
p2617
tp2618
bsVright_wall
p2619
g21
(g22
(I0
tp2620
g24
tp2621
Rp2622
(I1
(I4
tp2623
g296
I00
S'\x9a\x99\x99\x99\x99\x99\x07@H\xe1z\x14\xaeG\xff\xbf\x9c\xc4 \xb0rh\xc1?\x00\x00\x00\x00\x00\x00\x00\x00'
p2624
tp2625
bsVcoffe_machine
p2626
g21
(g22
(I0
tp2627
g24
tp2628
Rp2629
(I1
(I4
tp2630
g296
I00
S'\\\x8f\xc2\xf5(\\\xf5\xbf\xb8\x1e\x85\xebQ\xb8\xee?\n\xd7\xa3p=\n\xef?\x00\x00\x00\x00\x00\x00\x00\x00'
p2631
tp2632
bsVcomputer_chair
p2633
g21
(g22
(I0
tp2634
g24
tp2635
Rp2636
(I1
(I4
tp2637
g296
I00
S'\xcd\xcc\xcc\xcc\xcc\xcc\x10@\x00\x00\x00\x00\x00\x00\xf8\xbf\xa00\xb6\x10\xe4\xa9\x95\xbf\x00\x00\x00\x00\x00\x00\x00\x00'
p2638
tp2639
bssS'robot_dof_values'
p2640
g21
(g22
(I0
tp2641
g24
tp2642
Rp2643
(I1
(I39
tp2644
g296
I00
S'\x00\x00\x00\x00\x00\x00\x00\x00\x00\x00\x00\x00\x00\x00\x00\x00\x00\x00\x00\x00\x00\x00\x00\x00\x00\x00\x00\x00\x00\x00\x00\x00\x00\x00\x00\x00\x00\x00\x00\x00\x00\x00\x00\x00\x00\x00\x00\x00\x00\x00\x00\x00\x00\x00\x00\x00\x00\x00\x00\x00\x00\x00\x00\x00\x00\x00\x00\x00\x00\x00\x00\x00\x00\x00\x00\x00\x00\x00\x00\x00\x00\x00\x00\x00\x00\x00\x00\x00\x00\x00\x00\x00\x00\x00\x00\x00@d;\xdfO\x8d\x87?\x00\x00\x00\x00\x00\x00\x00\x00\x00\x00\x00\x00\x00\x00\x00\x00\x00\x00\x00\x00\x00\x00\x00\x00\xec\xed\t\xf1\xcc\xa4\xf4?\x00\x00\x00\x00\x00\x00\x00\x00M"\xd0^p\xf8\x00\xc0\x00\x00\x00\x00\x00\x00\x00\x00\x9b\x03\r.\x04V\xe6\xbfH\x0cR\xc3\x84\x1b\xac<\x00\x00\x00\x00\x00\x00\x00\x00\x00\x00\x00\x00\x00\x00\xc7\xbc\x00\x00\x00\x00\x00\x00\x00\x00\x00\x00\x00\x00\x00\x00\xe0\xbc\x00\x00\x00\x00\x00\x00\x00\x00\x00\x00\x00\x00\x00\x00\x00\x00\xec\xed\t\xf1\xcc\xa4\xf4?\x00\x00\x00\x00\x00\x00\xb0\xbcO"\xd0^p\xf8\x00\xc0\x00\x00\x00\x00\x00\x00\x00\x00\x9f\x03\r.\x04V\xe6\xbf\x00\x00\x00\x00\x00\x00\x00\x00\xcb9\xe3\xc17\x89\xe1?\x00\x00\x00\x00\x00\x80\xdb\xbc\x00\x00\x00\x00\x00\x00\x00\x00\x00\x00\x00\x00\x00\x00\xe4\xbc\x00\x00\x00\x00\x00\x00\x00\x00'
p2645
tp2646
bsS'is_holding'
p2647
I00
sbsS'holding_collides'
p2648
NsS'parent_ternary_predicates'
p2649
(dp2650
sS'cached_place_paths'
p2651
(dp2652
(g714
g1349
tp2653
(lp2654
g21
(g22
(I0
tp2655
g24
tp2656
Rp2657
(I1
(I3
tp2658
g296
I00
S'\x05\xf8D\x86\x99^\x07@\xf4\xe6\x1c\xec\xc9\x04\x17\xc0N\xcc\x18\xcbwu\x17@'
p2659
tp2660
bas(g716
g287
tp2661
g338
s(g12
g287
tp2662
g401
s(g715
g1349
tp2663
(lp2664
g21
(g22
(I0
tp2665
g24
tp2666
Rp2667
(I1
(I3
tp2668
g296
I00
S'\xf9\xe4\x10\x1e\x9bK\x0b@\x05E\xe0/\x9a\xc7\x1f\xc0\xac#\xb5J\x03Q\xef?'
p2669
tp2670
bas(g12
g1349
tp2671
(lp2672
g21
(g22
(I0
tp2673
g24
tp2674
Rp2675
(I1
(I3
tp2676
g296
I00
S'\xcc\x88\xbe\xa9-\x88\xd4?\x8drLDD7\x18\xc0\xeeO\xfd\x10\xf2\x0f\xf9?'
p2677
tp2678
bas(g715
g287
tp2679
g569
s(g996
g1349
tp2680
(lp2681
g21
(g22
(I0
tp2682
g24
tp2683
Rp2684
(I1
(I3
tp2685
g296
I00
S'\x08\x05%\x16=\xc1\xef?\x8e\x7f\xf5\xdf\xa3\x8b\x16\xc0\x9b\xb4\xe2\x99\xc0\xe8\xc1?'
p2686
tp2687
bas(g996
g287
tp2688
g479
s(g86
g287
tp2689
g440
s(g861
g287
tp2690
g289
s(g861
g1349
tp2691
(lp2692
g21
(g22
(I0
tp2693
g24
tp2694
Rp2695
(I1
(I3
tp2696
g296
I00
S'\xbc6\xe0\x9ctU\xcc?\x1f2~;K\xa7\x15\xc0j\x18ib\xa9\xac\x08@'
p2697
tp2698
bas(g716
g1349
tp2699
(lp2700
g21
(g22
(I0
tp2701
g24
tp2702
Rp2703
(I1
(I3
tp2704
g296
I00
S'\xd66Z\xe8L\xb1\x06@nEh~\xf54\x19\xc0\xf3\xd5\x80>X\x96\x12@'
p2705
tp2706
bas(g86
g1349
tp2707
(lp2708
g21
(g22
(I0
tp2709
g24
tp2710
Rp2711
(I1
(I3
tp2712
g296
I00
S'\xe1\xfa\x0b\n\xc7\xc8\xc7?X\x13\xeeu\xba\x87\x18\xc0l\x817\xc3\xcbW\xe2?'
p2713
tp2714
bas(g713
g1349
tp2715
(lp2716
g21
(g22
(I0
tp2717
g24
tp2718
Rp2719
(I1
(I3
tp2720
g296
I00
S'\x00/_\x02\xc9\x7f\xea?\xa0\xc0\xec\x8ax|\x18\xc0\xa6\xc8\x1d-\xff\xaf\x11@'
p2721
tp2722
bas(g713
g287
tp2723
g638
s(g714
g287
tp2724
g512
ssS'parent_binary_predicates'
p2725
(dp2726
sS'nodes'
p2727
(dp2728
g1352
(lp2729
I0
aI0
aI0
aI0
aI0
aI0
aI00
aI01
aI00
aI01
aI00
asg1349
(lp2730
I0
aI0
aI0
aI0
aI0
aI0
aI00
aI01
aI00
aI01
aI00
asg287
(lp2731
I0
aI0
aI0
aI0
aI0
aI0
aI00
aI01
aI01
aI01
aI00
asg399
(lp2732
I0
aI0
aI0
ag2046
(g296
S'a\x83\xc1\xa3B\xf8\xe1?'
p2733
tp2734
Rp2735
ag2046
(g296
S'\xad\xae\x00|tY\x15\xc0'
p2736
tp2737
Rp2738
ag2046
(g296
S'\xe8\xfc@x\x90a\x08@'
p2739
tp2740
Rp2741
aI01
aI00
aI00
aI01
aI00
asg636
(lp2742
I0
aI0
aI0
ag2046
(g296
S'V\xe7\xf8\xa8\x93\xf5\xe9?'
p2743
tp2744
Rp2745
ag2046
(g296
S'\xf2\xc5X\xc3\xefR\x1b\xc0'
p2746
tp2747
Rp2748
ag2046
(g296
S'\x9bIld=\x06\x18@'
p2749
tp2750
Rp2751
aI01
aI00
aI00
aI01
aI00
asg286
(lp2752
I0
aI0
aI0
ag2046
(g296
S'\x94Q\x16\x965\x90\xdb\xbf'
p2753
tp2754
Rp2755
ag2046
(g296
S'V3\xc3\xa2r\xb3\x15\xc0'
p2756
tp2757
Rp2758
ag2046
(g296
S'\x90\t\xa9c\xbc)\xfa?'
p2759
tp2760
Rp2761
aI01
aI00
aI00
aI00
aI00
asg510
(lp2762
I0
aI0
aI0
ag2046
(g296
S'S\x93\x80e\xc8\xdb\x0c@'
p2763
tp2764
Rp2765
ag2046
(g296
S'b\x1e\x97m\xa4\xce\x17\xc0'
p2766
tp2767
Rp2768
ag2046
(g296
S'\x11\xef\xe6.nD\x11@'
p2769
tp2770
Rp2771
aI01
aI00
aI00
aI01
aI00
asg477
(lp2772
I0
aI0
aI0
ag2046
(g296
S'\xfe\x90\xd1\xf8x\xf5\xf9?'
p2773
tp2774
Rp2775
ag2046
(g296
S'n\x0f8\x8d\xa7,\x15\xc0'
p2776
tp2777
Rp2778
ag2046
(g296
S'o\xef\xd9\xe9\x0c\xfa\xfb?'
p2779
tp2780
Rp2781
aI01
aI00
aI00
aI00
aI00
asg567
(lp2782
I0
aI0
aI0
ag2046
(g296
S'\x10\xcc\x80\xf8\xbb\xe3\x0e@'
p2783
tp2784
Rp2785
ag2046
(g296
S'\\a@\x88]\x90\x1d\xc0'
p2786
tp2787
Rp2788
ag2046
(g296
S':\x18F\x9bzC\xf3?'
p2789
tp2790
Rp2791
aI01
aI00
aI00
aI01
aI00
asg438
(lp2792
I0
aI0
aI0
ag2046
(g296
S'j\x9f\x1e\x18h\x02\xf0?'
p2793
tp2794
Rp2795
ag2046
(g296
S',z-Q\xe7;\x18\xc0'
p2796
tp2797
Rp2798
ag2046
(g296
S'\xb0\xa1\n^\x118\x0b@'
p2799
tp2800
Rp2801
aI01
aI00
aI01
aI01
aI00
asg336
(lp2802
I0
aI0
aI0
ag2046
(g296
S'\x16\xf7\xbf\x17p\x0c\x08@'
p2803
tp2804
Rp2805
ag2046
(g296
S'\x97\xc8\xaf\xd1\xabZ\x1c\xc0'
p2806
tp2807
Rp2808
ag2046
(g296
S'\x7f\x85/KP5\x13@'
p2809
tp2810
Rp2811
aI01
aI00
aI00
aI01
aI00
assS'mc_place_path'
p2812
(dp2813
sS'parent_state'
p2814
NsS'goal_entities'
p2815
(lp2816
S'square_packing_box1'
p2817
ag287
asS'binary_edges'
p2818
(dp2819
(g477
g336
tp2820
(lp2821
I00
aI00
aI00
as(g477
g399
tp2822
(lp2823
I00
aI00
aI00
as(g286
g567
tp2824
(lp2825
I00
aI00
aI00
as(g286
g286
tp2826
(lp2827
I00
aI00
aI00
as(g636
g567
tp2828
(lp2829
I00
aI00
aI00
as(g636
g286
tp2830
(lp2831
I00
aI01
aI00
as(g336
g636
tp2832
(lp2833
I00
aI00
aI00
as(g477
g438
tp2834
(lp2835
I00
aI00
aI00
as(g510
g286
tp2836
(lp2837
I00
aI00
aI00
as(g399
g399
tp2838
(lp2839
I00
aI00
aI00
as(g636
g1349
tp2840
(lp2841
g2046
(g28
(S'b1'
p2842
I0
I1
tp2843
Rp2844
(I3
S'|'
p2845
NNNI-1
I-1
I0
tp2846
bS'\x01'
p2847
tp2848
Rp2849
aI00
aI01
as(g1352
g1349
tp2850
(lp2851
I00
aI00
aI00
as(g399
g336
tp2852
(lp2853
I00
aI00
aI00
as(g1349
g336
tp2854
(lp2855
I00
aI00
aI00
as(g438
g287
tp2856
(lp2857
I00
aI00
aI00
as(g1352
g636
tp2858
(lp2859
I00
aI00
aI00
as(g636
g336
tp2860
(lp2861
I00
aI00
aI00
as(g286
g1352
tp2862
(lp2863
g2849
aI00
aI00
as(g477
g477
tp2864
(lp2865
I00
aI00
aI00
as(g1349
g477
tp2866
(lp2867
I00
aI00
aI00
as(g567
g636
tp2868
(lp2869
I00
aI00
aI00
as(g636
g287
tp2870
(lp2871
I00
aI00
aI00
as(g510
g567
tp2872
(lp2873
I00
aI00
aI00
as(g399
g510
tp2874
(lp2875
I00
aI00
aI00
as(g438
g438
tp2876
(lp2877
I00
aI00
aI00
as(g636
g1352
tp2878
(lp2879
g2849
aI00
aI00
as(g1349
g636
tp2880
(lp2881
I00
aI00
aI00
as(g1349
g567
tp2882
(lp2883
I00
aI00
aI00
as(g1349
g286
tp2884
(lp2885
I00
aI00
aI00
as(g567
g287
tp2886
(lp2887
I00
aI00
aI00
as(g336
g399
tp2888
(lp2889
I00
aI00
aI00
as(g510
g399
tp2890
(lp2891
I00
aI00
aI00
as(g567
g510
tp2892
(lp2893
I00
aI00
aI00
as(g1349
g399
tp2894
(lp2895
I00
aI00
aI00
as(g1352
g287
tp2896
(lp2897
I00
aI00
aI00
as(g438
g636
tp2898
(lp2899
I00
aI00
aI00
as(g399
g567
tp2900
(lp2901
I00
aI00
aI00
as(g1352
g567
tp2902
(lp2903
I00
aI00
aI00
as(g567
g1352
tp2904
(lp2905
g2849
aI00
aI00
as(g286
g477
tp2906
(lp2907
I00
aI00
aI00
as(g336
g438
tp2908
(lp2909
I00
aI00
aI00
as(g286
g636
tp2910
(lp2911
I00
aI00
aI00
as(g336
g287
tp2912
(lp2913
I00
aI00
aI00
as(g1352
g1352
tp2914
(lp2915
I00
aI00
aI00
as(g567
g399
tp2916
(lp2917
I00
aI00
aI00
as(g438
g477
tp2918
(lp2919
I00
aI01
aI00
as(g287
g438
tp2920
(lp2921
I00
aI00
aI00
as(g510
g1349
tp2922
(lp2923
g2849
aI00
aI01
as(g287
g510
tp2924
(lp2925
I00
aI00
aI00
as(g336
g286
tp2926
(lp2927
I00
aI00
aI00
as(g286
g438
tp2928
(lp2929
I00
aI00
aI00
as(g567
g1349
tp2930
(lp2931
g2849
aI00
aI01
as(g286
g510
tp2932
(lp2933
I00
aI00
aI00
as(g567
g567
tp2934
(lp2935
I00
aI00
aI00
as(g510
g636
tp2936
(lp2937
I00
aI00
aI00
as(g1349
g287
tp2938
(lp2939
I00
aI00
aI00
as(g287
g477
tp2940
(lp2941
I00
aI00
aI00
as(g399
g287
tp2942
(lp2943
I00
aI00
aI00
as(g1352
g510
tp2944
(lp2945
I00
aI00
aI00
as(g287
g336
tp2946
(lp2947
I00
aI00
aI00
as(g286
g336
tp2948
(lp2949
I00
aI00
aI00
as(g510
g1352
tp2950
(lp2951
g2849
aI00
aI00
as(g336
g1349
tp2952
(lp2953
g2849
aI00
aI01
as(g510
g477
tp2954
(lp2955
I00
aI00
aI00
as(g399
g636
tp2956
(lp2957
I00
aI00
aI00
as(g399
g1349
tp2958
(lp2959
g2849
aI00
aI01
as(g287
g286
tp2960
(lp2961
I00
aI00
aI00
as(g1352
g336
tp2962
(lp2963
I00
aI00
aI00
as(g1352
g399
tp2964
(lp2965
I00
aI00
aI00
as(g510
g287
tp2966
(lp2967
I00
aI00
aI00
as(g477
g510
tp2968
(lp2969
I00
aI00
aI00
as(g438
g510
tp2970
(lp2971
I00
aI00
aI00
as(g287
g567
tp2972
(lp2973
I00
aI00
aI00
as(g1349
g1349
tp2974
(lp2975
I00
aI00
aI00
as(g477
g286
tp2976
(lp2977
I00
aI00
aI00
as(g438
g567
tp2978
(lp2979
I00
aI00
aI00
as(g1349
g438
tp2980
(lp2981
I00
aI00
aI00
as(g636
g399
tp2982
(lp2983
I00
aI00
aI00
as(g1349
g510
tp2984
(lp2985
I00
aI00
aI00
as(g438
g1352
tp2986
(lp2987
g2849
aI00
aI00
as(g477
g636
tp2988
(lp2989
I00
aI00
aI00
as(g286
g287
tp2990
(lp2991
I00
aI00
aI00
as(g438
g399
tp2992
(lp2993
I00
aI00
aI00
as(g399
g438
tp2994
(lp2995
I00
aI00
aI00
as(g636
g438
tp2996
(lp2997
I00
aI00
aI00
as(g1352
g477
tp2998
(lp2999
I00
aI00
aI00
as(g636
g510
tp3000
(lp3001
I00
aI00
aI00
as(g567
g477
tp3002
(lp3003
I00
aI00
aI00
as(g477
g1349
tp3004
(lp3005
g2849
aI00
aI01
as(g510
g510
tp3006
(lp3007
I00
aI00
aI00
as(g336
g477
tp3008
(lp3009
I00
aI00
aI00
as(g438
g336
tp3010
(lp3011
I00
aI00
aI00
as(g636
g477
tp3012
(lp3013
I00
aI01
aI00
as(g636
g636
tp3014
(lp3015
I00
aI00
aI00
as(g336
g510
tp3016
(lp3017
I00
aI00
aI00
as(g477
g287
tp3018
(lp3019
I00
aI00
aI00
as(g567
g438
tp3020
(lp3021
I00
aI00
aI00
as(g286
g1349
tp3022
(lp3023
g2849
aI00
aI01
as(g287
g636
tp3024
(lp3025
I00
aI00
aI00
as(g510
g438
tp3026
(lp3027
I00
aI00
aI00
as(g399
g286
tp3028
(lp3029
I00
aI01
aI00
as(g287
g1349
tp3030
(lp3031
I00
aI00
aI00
as(g477
g567
tp3032
(lp3033
I00
aI00
aI00
as(g1352
g286
tp3034
(lp3035
I00
aI00
aI00
as(g477
g1352
tp3036
(lp3037
g2849
aI00
aI00
as(g567
g286
tp3038
(lp3039
I00
aI00
aI00
as(g287
g287
tp3040
(lp3041
I00
aI00
aI00
as(g510
g336
tp3042
(lp3043
I00
aI00
aI00
as(g399
g1352
tp3044
(lp3045
g2849
aI00
aI00
as(g336
g1352
tp3046
(lp3047
g2849
aI00
aI00
as(g287
g1352
tp3048
(lp3049
I00
aI00
aI00
as(g287
g399
tp3050
(lp3051
I00
aI00
aI00
as(g567
g336
tp3052
(lp3053
I00
aI00
aI00
as(g336
g567
tp3054
(lp3055
I00
aI00
aI00
as(g286
g399
tp3056
(lp3057
I00
aI00
aI00
as(g1349
g1352
tp3058
(lp3059
I00
aI00
aI00
as(g438
g286
tp3060
(lp3061
I00
aI01
aI00
as(g399
g477
tp3062
(lp3063
I00
aI01
aI00
as(g336
g336
tp3064
(lp3065
I00
aI00
aI00
as(g438
g1349
tp3066
(lp3067
g2849
aI00
aI01
as(g1352
g438
tp3068
(lp3069
I00
aI00
aI00
assg711
g712
sS'pick_in_way'
p3070
(itrajectory_representation.predicates.pick_in_way
PickInWay
p3071
(dp3072
g284
(dp3073
g399
g765
sg636
g1918
sg286
g1925
sg510
g1950
sg477
g1975
sg567
g2000
sg438
g1153
sg336
g2025
ssg675
(dp3074
g399
(lp3075
sg636
(lp3076
sg286
(lp3077
Vrectangular_packing_box2
p3078
aVsquare_packing_box1
p3079
aVrectangular_packing_box4
p3080
asg510
(lp3081
sg477
(lp3082
Vrectangular_packing_box2
p3083
aVsquare_packing_box1
p3084
aVrectangular_packing_box4
p3085
asg567
(lp3086
sg438
(lp3087
sg336
(lp3088
ssg711
(lp3089
g510
ag636
ag567
ag336
ag399
ag1352
ag287
ag1349
ag438
ag1352
ag287
ag1349
ag1352
ag287
ag1349
ag1352
ag287
ag1349
ag1352
ag287
ag1349
ag1352
ag287
ag1349
ag1352
ag287
ag1349
ag1352
ag287
ag1349
asg717
g718
sg155
(dp3090
sg752
g753
sg1277
Nsg1283
g753
sg1280
(dp3091
sg1282
I8
sg1344
I01
sg1284
Nsg1285
(dp3092
(g477
g336
tp3093
I00
s(g477
g399
tp3094
I00
s(g286
g567
tp3095
I00
s(g286
g286
tp3096
I00
s(g636
g567
tp3097
I00
s(g636
g286
tp3098
I01
s(g336
g636
tp3099
I00
s(g477
g438
tp3100
I00
s(g510
g286
tp3101
I00
s(g399
g399
tp3102
I00
s(g636
g1349
tp3103
I00
s(g1352
g1349
tp3104
I00
s(g399
g336
tp3105
I00
s(g1349
g336
tp3106
I00
s(g438
g287
tp3107
I00
s(g1352
g636
tp3108
I00
s(g636
g336
tp3109
I00
s(g286
g1352
tp3110
I00
s(g477
g477
tp3111
I00
s(g1349
g477
tp3112
I00
s(g567
g636
tp3113
I00
s(g636
g287
tp3114
I00
s(g510
g567
tp3115
I00
s(g399
g510
tp3116
I00
s(g438
g438
tp3117
I00
s(g636
g1352
tp3118
I00
s(g1349
g636
tp3119
I00
s(g1349
g567
tp3120
I00
s(g1349
g286
tp3121
I00
s(g567
g287
tp3122
I00
s(g336
g399
tp3123
I00
s(g510
g399
tp3124
I00
s(g567
g510
tp3125
I00
s(g1349
g399
tp3126
I00
s(g1352
g287
tp3127
I00
s(g438
g636
tp3128
I00
s(g399
g567
tp3129
I00
s(g1352
g567
tp3130
I00
s(g567
g1352
tp3131
I00
s(g286
g477
tp3132
I00
s(g336
g438
tp3133
I00
s(g286
g636
tp3134
I00
s(g336
g287
tp3135
I00
s(g1352
g1352
tp3136
I00
s(g567
g399
tp3137
I00
s(g438
g477
tp3138
I01
s(g287
g438
tp3139
I00
s(g510
g1349
tp3140
I00
s(g287
g510
tp3141
I00
s(g336
g286
tp3142
I00
s(g286
g438
tp3143
I00
s(g567
g1349
tp3144
I00
s(g286
g510
tp3145
I00
s(g567
g567
tp3146
I00
s(g510
g636
tp3147
I00
s(g1349
g287
tp3148
I00
s(g287
g477
tp3149
I00
s(g399
g287
tp3150
I00
s(g1352
g510
tp3151
I00
s(g287
g336
tp3152
I00
s(g286
g336
tp3153
I00
s(g510
g1352
tp3154
I00
s(g336
g1349
tp3155
I00
s(g510
g477
tp3156
I00
s(g399
g636
tp3157
I00
s(g399
g1349
tp3158
I00
s(g287
g286
tp3159
I00
s(g1352
g336
tp3160
I00
s(g1352
g399
tp3161
I00
s(g510
g287
tp3162
I00
s(g477
g510
tp3163
I00
s(g438
g510
tp3164
I00
s(g287
g567
tp3165
I00
s(g1349
g1349
tp3166
I00
s(g477
g286
tp3167
I00
s(g438
g567
tp3168
I00
s(g1349
g438
tp3169
I00
s(g636
g399
tp3170
I00
s(g1349
g510
tp3171
I00
s(g438
g1352
tp3172
I00
s(g477
g636
tp3173
I00
s(g286
g287
tp3174
I00
s(g438
g399
tp3175
I00
s(g399
g438
tp3176
I00
s(g636
g438
tp3177
I00
s(g1352
g477
tp3178
I00
s(g636
g510
tp3179
I00
s(g567
g477
tp3180
I00
s(g477
g1349
tp3181
I00
s(g510
g510
tp3182
I00
s(g336
g477
tp3183
I00
s(g438
g336
tp3184
I00
s(g636
g477
tp3185
I01
s(g636
g636
tp3186
I00
s(g336
g510
tp3187
I00
s(g477
g287
tp3188
I00
s(g567
g438
tp3189
I00
s(g286
g1349
tp3190
I00
s(g287
g636
tp3191
I00
s(g510
g438
tp3192
I00
s(g399
g286
tp3193
I01
s(g287
g1349
tp3194
I00
s(g477
g567
tp3195
I00
s(g1352
g286
tp3196
I00
s(g477
g1352
tp3197
I00
s(g567
g286
tp3198
I00
s(g287
g287
tp3199
I00
s(g510
g336
tp3200
I00
s(g399
g1352
tp3201
I00
s(g336
g1352
tp3202
I00
s(g287
g1352
tp3203
I00
s(g287
g399
tp3204
I00
s(g567
g336
tp3205
I00
s(g336
g567
tp3206
I00
s(g286
g399
tp3207
I00
s(g1349
g1352
tp3208
I00
s(g438
g286
tp3209
I01
s(g399
g477
tp3210
I01
s(g336
g336
tp3211
I00
s(g438
g1349
tp3212
I00
s(g1352
g438
tp3213
I00
ssg1343
NsbsS'robot_pose'
p3214
g21
(g22
(I0
tp3215
g24
tp3216
Rp3217
(I1
(I1
I3
tp3218
g296
I00
S'\xe7[s\xc8o\x08\xf4?\xb7\x9dp8]\x7f\x1f\xc0\x82\\\x1b\x8e\x12\x96\xfe?'
p3219
tp3220
bsS'is_holding_goal_entity'
p3221
(itrajectory_representation.predicates.is_holding_goal_entity
IsHoldingGoalEntity
p3222
(dp3223
g2815
g2816
sg1284
NsbsS'mc_pick_path'
p3224
(dp3225
sS'current_collides'
p3226
g718
sba(itrajectory_representation.shortest_path_pick_and_place_state
ShortestPathPaPState
p3227
(dp3228
g155
(dp3229
g158
(itrajectory_representation.operator
Operator
p3230
(dp3231
g8
I01
sg9
(dp3232
g162
g88
sg11
g157
ssg16
g163
sg18
(dp3233
g20
g21
(g22
(I0
tp3234
g24
tp3235
Rp3236
(I1
(I3
tp3237
g31
I00
S"06|p(\xcd\xf1?\xa0B\xa5\x811\xbc\x03\xc0\xc3\xcb\x9f\x19'\xce\xc1?"
p3238
tp3239
bssg46
(lp3240
g21
(g22
(I0
tp3241
g24
tp3242
Rp3243
(I1
(I3
tp3244
g31
I00
S'p\xfb\x0b\n\xc7\xc8\xc7?Y\x13\xeeu\xba\x87\x18\xc0m\x817\xc3\xcbW\xe2?'
p3245
tp3246
bag21
(g22
(I0
tp3247
g24
tp3248
Rp3249
(I1
(I3
tp3250
g60
I00
S'\xe4\x02R\xd9\x08\x8c\xc7?2\xc1\xd4;\xf6\xf3\x15\xc0>\x8c\x8fa?0\xd8?'
p3251
tp3252
bag21
(g22
(I0
tp3253
g24
tp3254
Rp3255
(I1
(I3
tp3256
g60
I00
S"\xb2&6mg)\xe8?\x99\xe0G'\x16\xe0\x13\xc0\xc8oL\xf5\x17p\xe6\xbf"
p3257
tp3258
bag21
(g22
(I0
tp3259
g24
tp3260
Rp3261
(I1
(I3
tp3262
g60
I00
S'\xb0E\xbb;Cb\xeb?\x9e\xde\xa7\xdd\xbdd\x12\xc0\xc6\xee\xbd\x16\x8c\xaa\xf3\xbf'
p3263
tp3264
bag21
(g22
(I0
tp3265
g24
tp3266
Rp3267
(I1
(I3
tp3268
g60
I00
S'\xec\x12\xec\x03\xdea\xe9?<\xa5t\x82\x15\x9b\x0e\xc0L\xf0\xe0\xffy\x10\xf5\xbf'
p3269
tp3270
bag21
(g22
(I0
tp3271
g24
tp3272
Rp3273
(I1
(I3
tp3274
g60
I00
S'\xceT\x9e/\xb5f\xd8?VQ\xf7\xbeD\xed\x0c\xc0:\xc1\x11<R\xda\xfb\xbf'
p3275
tp3276
bag21
(g22
(I0
tp3277
g24
tp3278
Rp3279
(I1
(I3
tp3280
g60
I00
S'M\x96\xea\xee\x17\x04\xdd?R\xe0T\xecA\xde\x06\xc0\x9a +sW,\xe5\xbf'
p3281
tp3282
bag3236
ag3236
asbssg281
(itrajectory_representation.predicates.place_in_way
PlaceInWay
p3283
(dp3284
g284
(dp3285
(g399
g287
tp3286
(lp3287
g21
(g22
(I0
tp3288
g24
tp3289
Rp3290
(I1
(I3
tp3291
g296
I00
S'\x90\x9dX\xfeM\xfa\xfe?\xab_v(z\x9b\x16\xc0\x89\xd0\xe6\xe4\x99=\xd7?'
p3292
tp3293
bag21
(g22
(I0
tp3294
g24
tp3295
Rp3296
(I1
(I3
tp3297
g307
I00
S'\x12\xfe\xe1\x95\xb8\x19\xf8?\x8c#.~\xd7\xc6\x16\xc0\xfe\xd3A\xf0\xcat\xc0\xbf'
p3298
tp3299
bag21
(g22
(I0
tp3300
g24
tp3301
Rp3302
(I1
(I3
tp3303
g307
I00
S'\xe4\x9e\xb7\xac\xe0!\xeb?\x8a\x83\x10\xb1\xa2\xad\x15\xc0\x9aS\xfbY\xaf\x8f\xd2\xbf'
p3304
tp3305
bag21
(g22
(I0
tp3306
g24
tp3307
Rp3308
(I1
(I3
tp3309
g307
I00
S"\xb2&6mg)\xe8?\x99\xe0G'\x16\xe0\x13\xc0\xc8oL\xf5\x17p\xe6\xbf"
p3310
tp3311
bag21
(g22
(I0
tp3312
g24
tp3313
Rp3314
(I1
(I3
tp3315
g307
I00
S'`\xc8Aw-\x81\xeb?/\xc3\xe6O\x04\xca\x10\xc0\x8a\xb7K)\x91{\xe4\xbf'
p3316
tp3317
bag21
(g22
(I0
tp3318
g24
tp3319
Rp3320
(I1
(I3
tp3321
g307
I00
S'\xe1\xc6\xc7\xa7\x12X\xe7?\x98\x99\xb0\x9a\xfb\xdb\x0b\xc0R\t\x1b)\xeae\xe0\xbf'
p3322
tp3323
bag21
(g22
(I0
tp3324
g24
tp3325
Rp3326
(I1
(I3
tp3327
g307
I00
S'p\xf1\xbdc^\x84\xf1?"\x88LL\xf9D\x06\xc0~w\r\xe9m\x0f\x19@'
p3328
tp3329
bas(g636
g287
tp3330
(lp3331
g21
(g22
(I0
tp3332
g24
tp3333
Rp3334
(I1
(I3
tp3335
g296
I00
S'\xf6._\x02\xc9\x7f\xea?\xa1\xc0\xec\x8ax|\x18\xc0\xa6\xc8\x1d-\xff\xaf\x11@'
p3336
tp3337
bag21
(g22
(I0
tp3338
g24
tp3339
Rp3340
(I1
(I3
tp3341
g307
I00
S'tx\x8as\xa8b\xed?\x9ej\x15\xfa\xf0{\x15\xc0@\xed\x9a-\x9eD\xf2\xbf'
p3342
tp3343
bag21
(g22
(I0
tp3344
g24
tp3345
Rp3346
(I1
(I3
tp3347
g307
I00
S'\xb0E\xbb;Cb\xeb?\x9e\xde\xa7\xdd\xbdd\x12\xc0\xc6\xee\xbd\x16\x8c\xaa\xf3\xbf'
p3348
tp3349
bag21
(g22
(I0
tp3350
g24
tp3351
Rp3352
(I1
(I3
tp3353
g307
I00
S'`\xc8Aw-\x81\xeb?/\xc3\xe6O\x04\xca\x10\xc0\x8a\xb7K)\x91{\xe4\xbf'
p3354
tp3355
bag21
(g22
(I0
tp3356
g24
tp3357
Rp3358
(I1
(I3
tp3359
g307
I00
S'\xe1\xc6\xc7\xa7\x12X\xe7?\x98\x99\xb0\x9a\xfb\xdb\x0b\xc0R\t\x1b)\xeae\xe0\xbf'
p3360
tp3361
bag21
(g22
(I0
tp3362
g24
tp3363
Rp3364
(I1
(I3
tp3365
g307
I00
S'p\xf1\xbdc^\x84\xf1?"\x88LL\xf9D\x06\xc0~w\r\xe9m\x0f\x19@'
p3366
tp3367
bas(g336
g287
tp3368
(lp3369
g21
(g22
(I0
tp3370
g24
tp3371
Rp3372
(I1
(I3
tp3373
g296
I00
S'\xd46Z\xe8L\xb1\x06@lEh~\xf54\x19\xc0\xf4\xd5\x80>X\x96\x12@'
p3374
tp3375
bag21
(g22
(I0
tp3376
g24
tp3377
Rp3378
(I1
(I3
tp3379
g307
I00
S'\x9a\xbe.\\\\1\x02@n\xc71\xde\x16\x1f\x18\xc0\xa5\xb9\xb4\xac*z\xff\xbf'
p3380
tp3381
bag21
(g22
(I0
tp3382
g24
tp3383
Rp3384
(I1
(I3
tp3385
g307
I00
S'\xa1\x0f=\xe0\x1aF\xfc?e&S\xf6\xb5\xfc\x17\xc0s\xad\xdc\xd8h\x9b\x04\xc0'
p3386
tp3387
bag21
(g22
(I0
tp3388
g24
tp3389
Rp3390
(I1
(I3
tp3391
g307
I00
S'R\x12);\xaf\xa5\xf7?\xf3\xf9\xeb\x07c\xef\x15\xc0\xf0V^\xd6\x94\x96\x05\xc0'
p3392
tp3393
bag21
(g22
(I0
tp3394
g24
tp3395
Rp3396
(I1
(I3
tp3397
g307
I00
S'\xd0\xcb\x13\x8f\xaa\x9d\xed?\x90\x01<]3\x06\x16\xc0F\xf1\xe7x32\x02\xc0'
p3398
tp3399
bag21
(g22
(I0
tp3400
g24
tp3401
Rp3402
(I1
(I3
tp3403
g307
I00
S'l[\xc4\x16<\xe6\xe9?\xa6\xa0\x90\x84X\x9f\x13\xc0\xc2\xd74Q\x00\xaf\xff\xbf'
p3404
tp3405
bag21
(g22
(I0
tp3406
g24
tp3407
Rp3408
(I1
(I3
tp3409
g307
I00
S"\xaeJ\xbd\x1936\xec?\x04\x13\xd4'\x9f\x88\x10\xc0\x805qo\xb6\xe6\xff\xbf"
p3410
tp3411
bag21
(g22
(I0
tp3412
g24
tp3413
Rp3414
(I1
(I3
tp3415
g307
I00
S'\xf09\xb6\x1c*\x86\xee?\xc4\n/\x96\xcb\xe3\n\xc0\xa0\xc9\xd6F6\x0f\x00\xc0'
p3416
tp3417
bag21
(g22
(I0
tp3418
g24
tp3419
Rp3420
(I1
(I3
tp3421
g307
I00
S'3\xe9\xaf\x05T\x89\xe7?+~\xcb\xd3\x15\xc7\x04\xc0x6(d5\xed\x07@'
p3422
tp3423
bas(g510
g287
tp3424
(lp3425
g21
(g22
(I0
tp3426
g24
tp3427
Rp3428
(I1
(I3
tp3429
g296
I00
S'\x04\xf8D\x86\x99^\x07@\xf5\xe6\x1c\xec\xc9\x04\x17\xc0N\xcc\x18\xcbwu\x17@'
p3430
tp3431
bag21
(g22
(I0
tp3432
g24
tp3433
Rp3434
(I1
(I3
tp3435
g307
I00
S'\x93\xe8\x9a\xb2\xd1\xfa\x03@\x8aHE%\xee\xed\x15\xc0\xf8hW\x99?x\xfa\xbf'
p3436
tp3437
bag21
(g22
(I0
tp3438
g24
tp3439
Rp3440
(I1
(I3
tp3441
g307
I00
S'!\x83\xc0\xf3W\x85\xff?\xed\x8f\x90/y\xfd\x16\xc06jP\xfe\x98\xf5\xf4\xbf'
p3442
tp3443
bag21
(g22
(I0
tp3444
g24
tp3445
Rp3446
(I1
(I3
tp3447
g307
I00
S'2Z\xe1\xe97J\xf6?\\\x1e`@2v\x16\xc0\xc4\x0c\xcc\x14<\xf9\xf6\xbf'
p3448
tp3449
bag21
(g22
(I0
tp3450
g24
tp3451
Rp3452
(I1
(I3
tp3453
g307
I00
S'tx\x8as\xa8b\xed?\x9ej\x15\xfa\xf0{\x15\xc0@\xed\x9a-\x9eD\xf2\xbf'
p3454
tp3455
bag21
(g22
(I0
tp3456
g24
tp3457
Rp3458
(I1
(I3
tp3459
g307
I00
S"\xb2&6mg)\xe8?\x99\xe0G'\x16\xe0\x13\xc0\xc8oL\xf5\x17p\xe6\xbf"
p3460
tp3461
bag21
(g22
(I0
tp3462
g24
tp3463
Rp3464
(I1
(I3
tp3465
g307
I00
S'`\xc8Aw-\x81\xeb?/\xc3\xe6O\x04\xca\x10\xc0\x8a\xb7K)\x91{\xe4\xbf'
p3466
tp3467
bag21
(g22
(I0
tp3468
g24
tp3469
Rp3470
(I1
(I3
tp3471
g307
I00
S'\xe1\xc6\xc7\xa7\x12X\xe7?\x98\x99\xb0\x9a\xfb\xdb\x0b\xc0R\t\x1b)\xeae\xe0\xbf'
p3472
tp3473
bag21
(g22
(I0
tp3474
g24
tp3475
Rp3476
(I1
(I3
tp3477
g307
I00
S'p\xf1\xbdc^\x84\xf1?"\x88LL\xf9D\x06\xc0~w\r\xe9m\x0f\x19@'
p3478
tp3479
bas(g477
g287
tp3480
(lp3481
g21
(g22
(I0
tp3482
g24
tp3483
Rp3484
(I1
(I3
tp3485
g296
I00
S'\xf8\x04%\x16=\xc1\xef?\x8a\x7f\xf5\xdf\xa3\x8b\x16\xc0\xe6\xb4\xe2\x99\xc0\xe8\xc1?'
p3486
tp3487
bag21
(g22
(I0
tp3488
g24
tp3489
Rp3490
(I1
(I3
tp3491
g307
I00
S"\xb2&6mg)\xe8?\x99\xe0G'\x16\xe0\x13\xc0\xc8oL\xf5\x17p\xe6\xbf"
p3492
tp3493
bag21
(g22
(I0
tp3494
g24
tp3495
Rp3496
(I1
(I3
tp3497
g307
I00
S'`\xc8Aw-\x81\xeb?/\xc3\xe6O\x04\xca\x10\xc0\x8a\xb7K)\x91{\xe4\xbf'
p3498
tp3499
bag21
(g22
(I0
tp3500
g24
tp3501
Rp3502
(I1
(I3
tp3503
g307
I00
S'\xe1\xc6\xc7\xa7\x12X\xe7?\x98\x99\xb0\x9a\xfb\xdb\x0b\xc0R\t\x1b)\xeae\xe0\xbf'
p3504
tp3505
bag21
(g22
(I0
tp3506
g24
tp3507
Rp3508
(I1
(I3
tp3509
g307
I00
S'p\xf1\xbdc^\x84\xf1?"\x88LL\xf9D\x06\xc0~w\r\xe9m\x0f\x19@'
p3510
tp3511
bassg675
(dp3512
(g399
g287
tp3513
(lp3514
Vsquare_packing_box2
p3515
aVsquare_packing_box1
p3516
as(g636
g287
tp3517
(lp3518
Vsquare_packing_box1
p3519
aVsquare_packing_box2
p3520
as(g336
g287
tp3521
(lp3522
Vrectangular_packing_box4
p3523
aVrectangular_packing_box2
p3524
aVsquare_packing_box1
p3525
aVsquare_packing_box2
p3526
as(g510
g287
tp3527
(lp3528
Vrectangular_packing_box4
p3529
aVsquare_packing_box2
p3530
aVsquare_packing_box1
p3531
as(g477
g287
tp3532
(lp3533
Vsquare_packing_box1
p3534
assg711
(lp3535
Vrectangular_packing_box4
p3536
aVrectangular_packing_box2
p3537
aVrectangular_packing_box3
p3538
aVsquare_packing_box2
p3539
aVsquare_packing_box3
p3540
ag86
aVsquare_packing_box4
p3541
asg717
(dp3542
Vrectangular_packing_box4
p3543
g720
((lp3544
I1
aI2
aI3
aI393
aI395
aI144
aI403
aI539
aI541
aI160
aI289
aI37
aI38
aI39
aI40
aI41
aI555
aI302
aI304
aI561
aI178
aI435
aI54
aI62
aI63
aI288
aI454
aI342
aI348
aI605
aI611
aI612
aI550
aI115
aI248
aI377
aI379
aI380
atp3545
Rp3546
sVrectangular_packing_box2
p3547
g727
sVrectangular_packing_box3
p3548
g731
sVrectangular_packing_box1
p3549
g735
sVsquare_packing_box2
p3550
g739
sVsquare_packing_box3
p3551
g743
sVsquare_packing_box1
p3552
g747
sVsquare_packing_box4
p3553
g751
ssg155
g3229
sg752
(dp3554
g3536
(itrajectory_representation.operator
Operator
p3555
(dp3556
g8
I01
sg9
(dp3557
g799
Vrectangular_packing_box4
p3558
ssg16
g801
sg18
(dp3559
g803
(lp3560
g21
(g22
(I0
tp3561
g24
tp3562
Rp3563
(I1
(I3
tp3564
g296
I00
S'\x86\x9dX\xfeM\xfa\xfe?\xab_v(z\x9b\x16\xc0\x86\xd0\xe6\xe4\x99=\xd7?'
p3565
tp3566
bag21
(g22
(I0
tp3567
g24
tp3568
Rp3569
(I1
(I3
tp3570
g296
I00
S'c\x03*E\xbe\xa6\x06@\xb5m\xf5\x01\xb7\x00\x1a\xc0"\xa19}v \xfe?'
p3571
tp3572
bag21
(g22
(I0
tp3573
g24
tp3574
Rp3575
(I1
(I3
tp3576
g296
I00
S'\xf4\x17\x8c\x17\xa1/\x0c@\x1aG\xe3Fy\x1c\x18\xc0\xdd\xae\xc8r\xfb\xd2\x07@'
p3577
tp3578
basg823
I00
ssg46
(lp3579
g21
(g22
(I0
tp3580
g24
tp3581
Rp3582
(I1
(I3
tp3583
g296
I00
S"06|p(\xcd\xf1?\x9cB\xa5\x811\xbc\x03\xc0\xf4\xcd\x9f\x19'\xce\xc1?"
p3584
tp3585
bag21
(g22
(I0
tp3586
g24
tp3587
Rp3588
(I1
(I3
tp3589
g307
I00
S'M\x96\xea\xee\x17\x04\xdd?R\xe0T\xecA\xde\x06\xc0\x9a +sW,\xe5\xbf'
p3590
tp3591
bag21
(g22
(I0
tp3592
g24
tp3593
Rp3594
(I1
(I3
tp3595
g307
I00
S'\xceT\x9e/\xb5f\xd8?VQ\xf7\xbeD\xed\x0c\xc0:\xc1\x11<R\xda\xfb\xbf'
p3596
tp3597
bag21
(g22
(I0
tp3598
g24
tp3599
Rp3600
(I1
(I3
tp3601
g307
I00
S"\xaeJ\xbd\x1936\xec?\x04\x13\xd4'\x9f\x88\x10\xc0\x805qo\xb6\xe6\xff\xbf"
p3602
tp3603
bag21
(g22
(I0
tp3604
g24
tp3605
Rp3606
(I1
(I3
tp3607
g307
I00
S'l[\xc4\x16<\xe6\xe9?\xa6\xa0\x90\x84X\x9f\x13\xc0\xc2\xd74Q\x00\xaf\xff\xbf'
p3608
tp3609
bag21
(g22
(I0
tp3610
g24
tp3611
Rp3612
(I1
(I3
tp3613
g307
I00
S'\xd0\xcb\x13\x8f\xaa\x9d\xed?\x90\x01<]3\x06\x16\xc0F\xf1\xe7x32\x02\xc0'
p3614
tp3615
bag21
(g22
(I0
tp3616
g24
tp3617
Rp3618
(I1
(I3
tp3619
g307
I00
S'\xf8C*\xbe\x14\xcf\xe8?\x81d\xab\xeb\xa8<\x18\xc0\xc8\\\xf4\x8c\xc3\xfa\xfe\xbf'
p3620
tp3621
bag21
(g22
(I0
tp3622
g24
tp3623
Rp3624
(I1
(I3
tp3625
g307
I00
S'4#\xe8i\x80D\xf8?\xdd\x1dlTl\\\x19\xc0m\xc1\x1a\xec\xde\x01\x01\xc0'
p3626
tp3627
bag21
(g22
(I0
tp3628
g24
tp3629
Rp3630
(I1
(I3
tp3631
g307
I00
S'\x84\xa3|.\x10\xee\xfc?\xfc\xc5\t\x9e\xc3\xe9\x1a\xc0\xec\x96S\xb5\x05\x08\x05\xc0'
p3632
tp3633
bag21
(g22
(I0
tp3634
g24
tp3635
Rp3636
(I1
(I3
tp3637
g307
I00
S'\xba\x8d\x1a\xa2f&\x03@$\xbc\xba{lE\x1a\xc0172\n\x8c\xab\x03@'
p3638
tp3639
bag3569
asbsg3537
g796
sg3538
g862
sVrectangular_packing_box1
p3640
g917
sg3539
g997
sg3540
g1052
sg86
(itrajectory_representation.operator
Operator
p3641
(dp3642
g8
I01
sg9
(dp3643
g11
g86
ssg16
g757
sg18
(dp3644
g20
g21
(g22
(I0
tp3645
g24
tp3646
Rp3647
(I1
(I3
tp3648
g31
I00
S'\xa4\xfa\x0b\n\xc7\xc8\xc7?X\x13\xeeu\xba\x87\x18\xc0k\x817\xc3\xcbW\xe2?'
p3649
tp3650
bssg46
(lp3651
g21
(g22
(I0
tp3652
g24
tp3653
Rp3654
(I1
(I3
tp3655
g296
I00
S'\x84\xe5\x19\x10\x94j\x04@\xa0t\xbe\xf9\x1d\xf6\x19\xc0\xd6\x9dL^\xaa\xe9\xf9?'
p3656
tp3657
bag21
(g22
(I0
tp3658
g24
tp3659
Rp3660
(I1
(I3
tp3661
g307
I00
S'\xb9\x81\xdfb\xdf\x92\xfe?\x1a\xe3?2\xb6\xec\x1a\xc0B\x1b\x81\xfa\x93C\xfa?'
p3662
tp3663
bag21
(g22
(I0
tp3664
g24
tp3665
Rp3666
(I1
(I3
tp3667
g307
I00
S'\xad\xa0\xdfFH\xe9\xf6?\xa3\xfc\x14D\x8bb\x1d\xc0\x9e2hH\xc0\xe5\xf0?'
p3668
tp3669
bag21
(g22
(I0
tp3670
g24
tp3671
Rp3672
(I1
(I3
tp3673
g307
I00
S"\xc6S\x92\x8e7i\xef?H}'\xb2\xea\x03\x1f\xc0\x1e\xe8\x98\xe5\t\x12\xf4?"
p3674
tp3675
bag21
(g22
(I0
tp3676
g24
tp3677
Rp3678
(I1
(I3
tp3679
g307
I00
S'\xc4n\xb3\xbcO\x07\xe0?\xd0\x17\x1bE\xa1\xce\x1d\xc0\x95\xcf\xf4\xdc\x03J\xf9?'
p3680
tp3681
bag21
(g22
(I0
tp3682
g24
tp3683
Rp3684
(I1
(I3
tp3685
g307
I00
S'\xfc\x99\xeb\x1fWC\xaa\xbf\xf3Yh@\x08R\x1d\xc0\x97\x885\xa6\x1eW\xf0?'
p3686
tp3687
bag21
(g22
(I0
tp3688
g24
tp3689
Rp3690
(I1
(I3
tp3691
g307
I00
S'\xb0\x11@i\x1f\x12\xb4?\x01\xb6C\x19\x0b\x9d\x1a\xc0\xda \xc5\xc8m8\xeb?'
p3692
tp3693
bag3647
asbsg3541
g1184
ssg1275
(dp3694
sg1277
Nsg1278
(lp3695
sg1280
(dp3696
sg1282
I0
sg1283
g3554
sg1284
Nsg1285
(dp3697
(g399
g567
g287
tp3698
I00
s(g399
g286
g287
tp3699
I00
s(g399
g477
g287
tp3700
I01
s(g399
g636
g287
tp3701
I00
s(g399
g336
g287
tp3702
I00
s(g399
g438
g287
tp3703
I01
s(g336
g399
g287
tp3704
I01
s(g399
g510
g287
tp3705
I00
s(g477
g399
g287
tp3706
I00
s(g636
g399
g287
tp3707
I00
s(g510
g399
g287
tp3708
I01
ssg1343
Nsg1344
I01
sbsg1345
(dp3709
(g636
g636
g287
tp3710
g1348
s(g438
g1349
g1349
tp3711
g1351
s(g1352
g510
g287
tp3712
g1354
s(g477
g336
g1349
tp3713
g1356
s(g287
g287
g287
tp3714
g1358
s(g336
g636
g1349
tp3715
g1360
s(g438
g286
g287
tp3716
g1362
s(g287
g399
g287
tp3717
(lp3718
I00
as(g477
g438
g287
tp3719
g1366
s(g286
g399
g1349
tp3720
(lp3721
I00
as(g287
g336
g1349
tp3722
g1370
s(g477
g1352
g287
tp3723
g1372
s(g1349
g287
g1349
tp3724
g1374
s(g399
g567
g287
tp3725
(lp3726
I00
as(g336
g1352
g287
tp3727
g1378
s(g477
g510
g1349
tp3728
g1380
s(g567
g1349
g287
tp3729
g1382
s(g1352
g636
g1349
tp3730
g1384
s(g287
g1352
g287
tp3731
g1386
s(g636
g1349
g287
tp3732
g1388
s(g567
g1352
g287
tp3733
g1390
s(g438
g438
g1349
tp3734
g1392
s(g1349
g336
g1349
tp3735
g1394
s(g1352
g1349
g287
tp3736
g1396
s(g1352
g477
g287
tp3737
g1398
s(g1349
g1349
g287
tp3738
g1400
s(g567
g399
g1349
tp3739
(lp3740
I00
as(g287
g287
g1349
tp3741
g1404
s(g510
g477
g1349
tp3742
g1406
s(g636
g336
g287
tp3743
g1408
s(g567
g438
g287
tp3744
g1410
s(g510
g287
g1349
tp3745
g1412
s(g287
g636
g1349
tp3746
g1414
s(g510
g286
g1349
tp3747
g1416
s(g286
g510
g287
tp3748
g1418
s(g1349
g438
g1349
tp3749
g1420
s(g336
g477
g1349
tp3750
g1422
s(g636
g636
g1349
tp3751
g1424
s(g1352
g336
g287
tp3752
g1426
s(g1349
g287
g287
tp3753
g1428
s(g399
g636
g287
tp3754
(lp3755
I00
as(g287
g286
g287
tp3756
g1432
s(g477
g510
g287
tp3757
g1434
s(g286
g336
g287
tp3758
g1436
s(g438
g286
g1349
tp3759
g1438
s(g567
g477
g287
tp3760
g1440
s(g477
g438
g1349
tp3761
g1442
s(g477
g636
g1349
tp3762
g1444
s(g1352
g477
g1349
tp3763
g1446
s(g1349
g286
g1349
tp3764
g1448
s(g1352
g287
g287
tp3765
g1450
s(g399
g287
g287
tp3766
(lp3767
I00
as(g1349
g1352
g287
tp3768
g1454
s(g636
g336
g1349
tp3769
g1456
s(g567
g636
g1349
tp3770
g1458
s(g567
g567
g287
tp3771
g1460
s(g510
g286
g287
tp3772
g1462
s(g1352
g636
g287
tp3773
g1464
s(g510
g1349
g1349
tp3774
g1466
s(g336
g438
g287
tp3775
g1468
s(g438
g438
g287
tp3776
g1470
s(g438
g399
g287
tp3777
(lp3778
I00
as(g399
g636
g1349
tp3779
(lp3780
I00
as(g336
g510
g1349
tp3781
g1476
s(g567
g399
g287
tp3782
(lp3783
I00
as(g510
g477
g287
tp3784
g1480
s(g636
g510
g1349
tp3785
g1482
s(g510
g287
g287
tp3786
g1484
s(g477
g636
g287
tp3787
g1486
s(g636
g567
g287
tp3788
g1488
s(g286
g510
g1349
tp3789
g1490
s(g287
g477
g1349
tp3790
g1492
s(g1352
g287
g1349
tp3791
g1494
s(g1352
g336
g1349
tp3792
g1496
s(g567
g636
g287
tp3793
g1498
s(g286
g567
g1349
tp3794
g1500
s(g636
g1352
g1349
tp3795
g1502
s(g510
g1349
g287
tp3796
g1504
s(g567
g477
g1349
tp3797
g1506
s(g567
g510
g1349
tp3798
g1508
s(g336
g438
g1349
tp3799
g1510
s(g287
g286
g1349
tp3800
g1512
s(g1352
g567
g1349
tp3801
g1514
s(g1349
g286
g287
tp3802
g1516
s(g1349
g477
g1349
tp3803
g1518
s(g636
g510
g287
tp3804
g1520
s(g336
g510
g287
tp3805
g1522
s(g1349
g567
g287
tp3806
g1524
s(g636
g567
g1349
tp3807
g1526
s(g636
g399
g1349
tp3808
(lp3809
I00
as(g286
g336
g1349
tp3810
g1530
s(g438
g399
g1349
tp3811
(lp3812
I00
as(g510
g567
g1349
tp3813
g1534
s(g287
g438
g1349
tp3814
g1536
s(g286
g1349
g1349
tp3815
g1538
s(g399
g287
g1349
tp3816
(lp3817
I00
as(g438
g510
g287
tp3818
g1542
s(g636
g1352
g287
tp3819
g1544
s(g399
g477
g1349
tp3820
(lp3821
I00
as(g286
g636
g1349
tp3822
g1548
s(g567
g510
g287
tp3823
g1550
s(g336
g1349
g1349
tp3824
g1552
s(g477
g287
g287
tp3825
g1554
s(g336
g399
g287
tp3826
(lp3827
I01
as(g287
g567
g1349
tp3828
g1558
s(g1349
g510
g1349
tp3829
g1560
s(g1349
g567
g1349
tp3830
g1562
s(g438
g567
g287
tp3831
g1564
s(g510
g567
g287
tp3832
g1566
s(g438
g510
g1349
tp3833
g1568
s(g286
g636
g287
tp3834
g1570
s(g636
g477
g287
tp3835
g1572
s(g286
g287
g1349
tp3836
g1574
s(g336
g1349
g287
tp3837
g1576
s(g1349
g399
g1349
tp3838
(lp3839
I00
as(g636
g399
g287
tp3840
(lp3841
I00
as(g286
g286
g287
tp3842
g1582
s(g399
g399
g287
tp3843
(lp3844
I00
as(g399
g286
g1349
tp3845
(lp3846
I00
as(g286
g1349
g287
tp3847
g1588
s(g567
g336
g287
tp3848
g1590
s(g399
g477
g287
tp3849
(lp3850
I01
as(g477
g1349
g1349
tp3851
g1594
s(g286
g1352
g1349
tp3852
g1596
s(g477
g287
g1349
tp3853
g1598
s(g438
g477
g1349
tp3854
g1600
s(g336
g399
g1349
tp3855
(lp3856
I00
as(g567
g287
g1349
tp3857
g1604
s(g286
g287
g287
tp3858
g1606
s(g1349
g399
g287
tp3859
(lp3860
I00
as(g510
g510
g287
tp3861
g1610
s(g1349
g336
g287
tp3862
g1612
s(g336
g567
g287
tp3863
g1614
s(g438
g636
g287
tp3864
g1616
s(g438
g567
g1349
tp3865
g1618
s(g399
g438
g1349
tp3866
(lp3867
I00
as(g287
g477
g287
tp3868
g1622
s(g1352
g286
g1349
tp3869
g1624
s(g286
g438
g287
tp3870
g1626
s(g510
g1352
g287
tp3871
g1628
s(g567
g336
g1349
tp3872
g1630
s(g567
g286
g1349
tp3873
g1632
s(g399
g510
g287
tp3874
(lp3875
I00
as(g636
g477
g1349
tp3876
g1636
s(g399
g1349
g287
tp3877
(lp3878
I00
as(g286
g1352
g287
tp3879
g1640
s(g336
g286
g1349
tp3880
g1642
s(g636
g438
g287
tp3881
g1644
s(g567
g438
g1349
tp3882
g1646
s(g336
g336
g1349
tp3883
g1648
s(g399
g399
g1349
tp3884
(lp3885
I00
as(g510
g510
g1349
tp3886
g1652
s(g438
g336
g1349
tp3887
g1654
s(g336
g477
g287
tp3888
g1656
s(g1352
g438
g287
tp3889
g1658
s(g287
g1352
g1349
tp3890
g1660
s(g287
g510
g1349
tp3891
g1662
s(g477
g1349
g287
tp3892
g1664
s(g438
g636
g1349
tp3893
g1666
s(g510
g438
g1349
tp3894
g1668
s(g286
g286
g1349
tp3895
g1670
s(g1352
g286
g287
tp3896
g1672
s(g477
g286
g1349
tp3897
g1674
s(g510
g1352
g1349
tp3898
g1676
s(g438
g477
g287
tp3899
g1678
s(g399
g510
g1349
tp3900
(lp3901
I00
as(g399
g286
g287
tp3902
(lp3903
I00
as(g336
g286
g287
tp3904
g1684
s(g438
g287
g1349
tp3905
g1686
s(g477
g567
g287
tp3906
g1688
s(g567
g567
g1349
tp3907
g1690
s(g399
g1352
g287
tp3908
(lp3909
I00
as(g1349
g1352
g1349
tp3910
g1694
s(g336
g567
g1349
tp3911
g1696
s(g1349
g510
g287
tp3912
g1698
s(g1352
g1352
g1349
tp3913
g1700
s(g399
g438
g287
tp3914
(lp3915
I01
as(g438
g336
g287
tp3916
g1704
s(g1349
g636
g1349
tp3917
g1706
s(g286
g438
g1349
tp3918
g1708
s(g567
g287
g287
tp3919
g1710
s(g1352
g438
g1349
tp3920
g1712
s(g567
g286
g287
tp3921
g1714
s(g286
g477
g287
tp3922
g1716
s(g399
g1349
g1349
tp3923
(lp3924
I00
as(g636
g438
g1349
tp3925
g1720
s(g510
g636
g287
tp3926
g1722
s(g1352
g1349
g1349
tp3927
g1724
s(g1349
g636
g287
tp3928
g1726
s(g438
g1352
g287
tp3929
g1728
s(g477
g567
g1349
tp3930
g1730
s(g477
g399
g1349
tp3931
(lp3932
I00
as(g336
g287
g287
tp3933
g1734
s(g399
g1352
g1349
tp3934
(lp3935
I00
as(g399
g336
g287
tp3936
(lp3937
I00
as(g1352
g399
g1349
tp3938
(lp3939
I00
as(g287
g510
g287
tp3940
g1742
s(g287
g567
g287
tp3941
g1744
s(g510
g438
g287
tp3942
g1746
s(g510
g399
g287
tp3943
(lp3944
I01
as(g1352
g567
g287
tp3945
g1750
s(g477
g286
g287
tp3946
g1752
s(g477
g477
g1349
tp3947
g1754
s(g510
g336
g1349
tp3948
g1756
s(g336
g287
g1349
tp3949
g1758
s(g636
g287
g287
tp3950
g1760
s(g438
g287
g287
tp3951
g1762
s(g510
g636
g1349
tp3952
g1764
s(g336
g636
g287
tp3953
g1766
s(g287
g1349
g287
tp3954
g1768
s(g1352
g1352
g287
tp3955
g1770
s(g636
g286
g1349
tp3956
g1772
s(g438
g1352
g1349
tp3957
g1774
s(g1349
g477
g287
tp3958
g1776
s(g286
g399
g287
tp3959
(lp3960
I00
as(g1352
g399
g287
tp3961
(lp3962
I00
as(g438
g1349
g287
tp3963
g1782
s(g286
g477
g1349
tp3964
g1784
s(g287
g438
g287
tp3965
g1786
s(g1352
g510
g1349
tp3966
g1788
s(g336
g1352
g1349
tp3967
g1790
s(g477
g477
g287
tp3968
g1792
s(g510
g336
g287
tp3969
g1794
s(g567
g1352
g1349
tp3970
g1796
s(g477
g399
g287
tp3971
(lp3972
I00
as(g287
g336
g287
tp3973
g1800
s(g286
g567
g287
tp3974
g1802
s(g399
g336
g1349
tp3975
(lp3976
I00
as(g336
g336
g287
tp3977
g1806
s(g510
g399
g1349
tp3978
(lp3979
I00
as(g477
g336
g287
tp3980
g1810
s(g567
g1349
g1349
tp3981
g1812
s(g287
g636
g287
tp3982
g1814
s(g636
g1349
g1349
tp3983
g1816
s(g287
g399
g1349
tp3984
(lp3985
I00
as(g636
g287
g1349
tp3986
g1820
s(g1349
g1349
g1349
tp3987
g1822
s(g477
g1352
g1349
tp3988
g1824
s(g399
g567
g1349
tp3989
(lp3990
I00
as(g287
g1349
g1349
tp3991
g1828
s(g636
g286
g287
tp3992
g1830
s(g1349
g438
g287
tp3993
g1832
ssg752
g3554
sg1833
I01
sg1834
(lp3994
S'square_packing_box1'
p3995
aS'rectangular_packing_box1'
p3996
aS'square_packing_box2'
p3997
aS'rectangular_packing_box2'
p3998
aS'square_packing_box3'
p3999
aS'rectangular_packing_box3'
p4000
aS'square_packing_box4'
p4001
aS'rectangular_packing_box4'
p4002
asg1284
Nsg1844
Nsg1845
(dp4003
Vrectangular_packing_box4
p4004
g21
(g22
(I0
tp4005
g24
tp4006
Rp4007
(I1
(I1
I3
tp4008
g296
I00
S'`PXy\xf3\x08\x06@\xb0\x04\x98\x8d>\x0c\x17\xc0\xdd\xa3\xe8\x9el\xce\x08@'
p4009
tp4010
bsVrectangular_packing_box2
p4011
g21
(g22
(I0
tp4012
g24
tp4013
Rp4014
(I1
(I1
I3
tp4015
g296
I00
S'\xf2\xe6\xf8\xa8\x93\xf5\xe9?\xf0\xc5X\xc3\xefR\x1b\xc0\x9bIld=\x06\x18@'
p4016
tp4017
bsVrectangular_packing_box3
p4018
g21
(g22
(I0
tp4019
g24
tp4020
Rp4021
(I1
(I1
I3
tp4022
g296
I00
S'~R\x16\x965\x90\xdb\xbfh3\xc3\xa2r\xb3\x15\xc0\x90\t\xa9c\xbc)\xfa?'
p4023
tp4024
bsVrectangular_packing_box1
p4025
g21
(g22
(I0
tp4026
g24
tp4027
Rp4028
(I1
(I1
I3
tp4029
g296
I00
S'\xad\x93\x80e\xc8\xdb\x0c@W\x1e\x97m\xa4\xce\x17\xc0\x11\xef\xe6.nD\x11@'
p4030
tp4031
bsVsquare_packing_box2
p4032
g21
(g22
(I0
tp4033
g24
tp4034
Rp4035
(I1
(I1
I3
tp4036
g296
I00
S'\xfe\x90\xd1\xf8x\xf5\xf9?n\x0f8\x8d\xa7,\x15\xc0o\xef\xd9\xe9\x0c\xfa\xfb?'
p4037
tp4038
bsVsquare_packing_box3
p4039
g21
(g22
(I0
tp4040
g24
tp4041
Rp4042
(I1
(I1
I3
tp4043
g296
I00
S'\x1e\xcc\x80\xf8\xbb\xe3\x0e@Qa@\x88]\x90\x1d\xc0:\x18F\x9bzC\xf3?'
p4044
tp4045
bsVsquare_packing_box1
p4046
g21
(g22
(I0
tp4047
g24
tp4048
Rp4049
(I1
(I1
I3
tp4050
g296
I00
S'\x8a\x9f\x1e\x18h\x02\xf0?!z-Q\xe7;\x18\xc0\xb0\xa1\n^\x118\x0b@'
p4051
tp4052
bsVsquare_packing_box4
p4053
g21
(g22
(I0
tp4054
g24
tp4055
Rp4056
(I1
(I1
I3
tp4057
g296
I00
S'\xe8\xf6\xbf\x17p\x0c\x08@c\xc8\xaf\xd1\xabZ\x1c\xc0~\x85/KP5\x13@'
p4058
tp4059
bssg1903
(lp4060
(g3536
g1349
tp4061
a(g3537
g1349
tp4062
a(g3538
g1349
tp4063
a(g3640
g1349
tp4064
a(g3539
g1349
tp4065
a(g3540
g1349
tp4066
a(g86
g1349
tp4067
a(g3541
g1349
tp4068
a(g3538
g287
tp4069
a(g3540
g287
tp4070
a(g86
g287
tp4071
asg1913
(itrajectory_representation.predicates.in_region
InRegion
p4072
(dp4073
g1284
Nsbsg1916
(dp4074
g3536
(lp4075
g21
(g22
(I0
tp4076
g24
tp4077
Rp4078
(I1
(I3
tp4079
g296
I00
S'\x84\xe5\x19\x10\x94j\x04@\xa0t\xbe\xf9\x1d\xf6\x19\xc0\xd6\x9dL^\xaa\xe9\xf9?'
p4080
tp4081
bag3569
asg3537
(lp4082
g21
(g22
(I0
tp4083
g24
tp4084
Rp4085
(I1
(I3
tp4086
g296
I00
S'\x84\xe5\x19\x10\x94j\x04@\xa0t\xbe\xf9\x1d\xf6\x19\xc0\xd6\x9dL^\xaa\xe9\xf9?'
p4087
tp4088
bag21
(g22
(I0
tp4089
g24
tp4090
Rp4091
(I1
(I3
tp4092
g307
I00
S'\xb9\x81\xdfb\xdf\x92\xfe?\x1a\xe3?2\xb6\xec\x1a\xc0B\x1b\x81\xfa\x93C\xfa?'
p4093
tp4094
bag21
(g22
(I0
tp4095
g24
tp4096
Rp4097
(I1
(I3
tp4098
g307
I00
S'\xad\xa0\xdfFH\xe9\xf6?\xa3\xfc\x14D\x8bb\x1d\xc0\x9e2hH\xc0\xe5\xf0?'
p4099
tp4100
bag819
asg3538
(lp4101
g21
(g22
(I0
tp4102
g24
tp4103
Rp4104
(I1
(I3
tp4105
g296
I00
S'\x84\xe5\x19\x10\x94j\x04@\xa0t\xbe\xf9\x1d\xf6\x19\xc0\xd6\x9dL^\xaa\xe9\xf9?'
p4106
tp4107
bag21
(g22
(I0
tp4108
g24
tp4109
Rp4110
(I1
(I3
tp4111
g307
I00
S'\xb9\x81\xdfb\xdf\x92\xfe?\x1a\xe3?2\xb6\xec\x1a\xc0B\x1b\x81\xfa\x93C\xfa?'
p4112
tp4113
bag21
(g22
(I0
tp4114
g24
tp4115
Rp4116
(I1
(I3
tp4117
g307
I00
S'\xad\xa0\xdfFH\xe9\xf6?\xa3\xfc\x14D\x8bb\x1d\xc0\x9e2hH\xc0\xe5\xf0?'
p4118
tp4119
bag21
(g22
(I0
tp4120
g24
tp4121
Rp4122
(I1
(I3
tp4123
g307
I00
S"\xc6S\x92\x8e7i\xef?H}'\xb2\xea\x03\x1f\xc0\x1e\xe8\x98\xe5\t\x12\xf4?"
p4124
tp4125
bag21
(g22
(I0
tp4126
g24
tp4127
Rp4128
(I1
(I3
tp4129
g307
I00
S'\xc4n\xb3\xbcO\x07\xe0?\xd0\x17\x1bE\xa1\xce\x1d\xc0\x95\xcf\xf4\xdc\x03J\xf9?'
p4130
tp4131
bag21
(g22
(I0
tp4132
g24
tp4133
Rp4134
(I1
(I3
tp4135
g307
I00
S'\xfc\x99\xeb\x1fWC\xaa\xbf\xf3Yh@\x08R\x1d\xc0\x97\x885\xa6\x1eW\xf0?'
p4136
tp4137
bag21
(g22
(I0
tp4138
g24
tp4139
Rp4140
(I1
(I3
tp4141
g307
I00
S'\xb0\x11@i\x1f\x12\xb4?\x01\xb6C\x19\x0b\x9d\x1a\xc0\xda \xc5\xc8m8\xeb?'
p4142
tp4143
bag21
(g22
(I0
tp4144
g24
tp4145
Rp4146
(I1
(I3
tp4147
g307
I00
S'\x0c\x8b\xaa\xe9\xe8%\xb0\xbf\xf7\x05\x80\xfb=|\x18\xc0X\xd6!\xf5\xa2\x12\x07@'
p4148
tp4149
bag876
asg3640
(lp4150
g21
(g22
(I0
tp4151
g24
tp4152
Rp4153
(I1
(I3
tp4154
g296
I00
S'\x84\xe5\x19\x10\x94j\x04@\xa0t\xbe\xf9\x1d\xf6\x19\xc0\xd6\x9dL^\xaa\xe9\xf9?'
p4155
tp4156
bag21
(g22
(I0
tp4157
g24
tp4158
Rp4159
(I1
(I3
tp4160
g307
I00
S'\xf0\xc9\xfbt\r)\x06@W\xcf\xbd\x98LA\x17\xc0\x12{h\xe4\xea2\xf8?'
p4161
tp4162
bag21
(g22
(I0
tp4163
g24
tp4164
Rp4165
(I1
(I3
tp4166
g307
I00
S'\xe6rt0\xc6`\x05@\xe8\xf6\xaa\xc7\x03\x10\x17\xc0v\x9e\xc9\x80o\x15\xed\xbf'
p4167
tp4168
bag925
asg3539
(lp4169
g21
(g22
(I0
tp4170
g24
tp4171
Rp4172
(I1
(I3
tp4173
g296
I00
S'\x84\xe5\x19\x10\x94j\x04@\xa0t\xbe\xf9\x1d\xf6\x19\xc0\xd6\x9dL^\xaa\xe9\xf9?'
p4174
tp4175
bag21
(g22
(I0
tp4176
g24
tp4177
Rp4178
(I1
(I3
tp4179
g307
I00
S'\xb9\x81\xdfb\xdf\x92\xfe?\x1a\xe3?2\xb6\xec\x1a\xc0B\x1b\x81\xfa\x93C\xfa?'
p4180
tp4181
bag21
(g22
(I0
tp4182
g24
tp4183
Rp4184
(I1
(I3
tp4185
g307
I00
S'\xad\xa0\xdfFH\xe9\xf6?\xa3\xfc\x14D\x8bb\x1d\xc0\x9e2hH\xc0\xe5\xf0?'
p4186
tp4187
bag21
(g22
(I0
tp4188
g24
tp4189
Rp4190
(I1
(I3
tp4191
g307
I00
S"\xc6S\x92\x8e7i\xef?H}'\xb2\xea\x03\x1f\xc0\x1e\xe8\x98\xe5\t\x12\xf4?"
p4192
tp4193
bag21
(g22
(I0
tp4194
g24
tp4195
Rp4196
(I1
(I3
tp4197
g307
I00
S'\xc4n\xb3\xbcO\x07\xe0?\xd0\x17\x1bE\xa1\xce\x1d\xc0\x95\xcf\xf4\xdc\x03J\xf9?'
p4198
tp4199
bag21
(g22
(I0
tp4200
g24
tp4201
Rp4202
(I1
(I3
tp4203
g307
I00
S'\xfc\x99\xeb\x1fWC\xaa\xbf\xf3Yh@\x08R\x1d\xc0\x97\x885\xa6\x1eW\xf0?'
p4204
tp4205
bag21
(g22
(I0
tp4206
g24
tp4207
Rp4208
(I1
(I3
tp4209
g307
I00
S'\xb0\x11@i\x1f\x12\xb4?\x01\xb6C\x19\x0b\x9d\x1a\xc0\xda \xc5\xc8m8\xeb?'
p4210
tp4211
bag21
(g22
(I0
tp4212
g24
tp4213
Rp4214
(I1
(I3
tp4215
g307
I00
S'Dz\xddx\xe9\xf0\xb4?\x9c\xf2\xf6\xf0\xef \x18\xc0\x03\xe5\x88\xf0JN\xf3?'
p4216
tp4217
bag21
(g22
(I0
tp4218
g24
tp4219
Rp4220
(I1
(I3
tp4221
g307
I00
S'\xbc\xcaD\xb3\xa5\xd0\xda?5\x9e\xd8L\xbc\xff\x15\xc0\x86v/\xef\x06;\xe9\xbf'
p4222
tp4223
bag1011
asg3540
(lp4224
g21
(g22
(I0
tp4225
g24
tp4226
Rp4227
(I1
(I3
tp4228
g296
I00
S'\x84\xe5\x19\x10\x94j\x04@\xa0t\xbe\xf9\x1d\xf6\x19\xc0\xd6\x9dL^\xaa\xe9\xf9?'
p4229
tp4230
bag21
(g22
(I0
tp4231
g24
tp4232
Rp4233
(I1
(I3
tp4234
g307
I00
S'\xba\x8d\x1a\xa2f&\x03@$\xbc\xba{lE\x1a\xc0172\n\x8c\xab\x03@'
p4235
tp4236
bag21
(g22
(I0
tp4237
g24
tp4238
Rp4239
(I1
(I3
tp4240
g307
I00
S'>\xc0\x12$\xd1\xa3\x02@L\xfb\xe9\xe8\x00\xfd\x1c\xc0\x1dL8%\x1b\x13\x04@'
p4241
tp4242
bag21
(g22
(I0
tp4243
g24
tp4244
Rp4245
(I1
(I3
tp4246
g307
I00
S'h\xe5u\t\x19Z\x05@*\x05#\xa8W\x05\x1f\xc0\t\xdeI\x16\xa6\x8a\xee?'
p4247
tp4248
bag1060
asg86
g3651
sg3541
(lp4249
g21
(g22
(I0
tp4250
g24
tp4251
Rp4252
(I1
(I3
tp4253
g296
I00
S'\x84\xe5\x19\x10\x94j\x04@\xa0t\xbe\xf9\x1d\xf6\x19\xc0\xd6\x9dL^\xaa\xe9\xf9?'
p4254
tp4255
bag21
(g22
(I0
tp4256
g24
tp4257
Rp4258
(I1
(I3
tp4259
g307
I00
S'\xb1\x91\x83\xd6J:\x00@X\xbf\x9b\xa3\xf7;\x19\xc0\xb4\xa9\x94\xff\xff\xd1\xec?'
p4260
tp4261
bag21
(g22
(I0
tp4262
g24
tp4263
Rp4264
(I1
(I3
tp4265
g307
I00
S'b\x95[\xf7r*\x00@:\x8f7a\xbf]\x1c\xc0\x98.\xce\xc6\x89M\xf2?'
p4266
tp4267
bag21
(g22
(I0
tp4268
g24
tp4269
Rp4270
(I1
(I3
tp4271
g307
I00
S'\xb9O\xa7Y\x02\x91\x00@\x96d\x95\x0e\xe6\xda\x1e\xc0l\xef\x8e\x11Rk\xeb?'
p4272
tp4273
bag1198
assg717
(dp4274
(Vrectangular_packing_box3
p4275
(g2046
(g296
S'\xcc\xeb\x88C6\x90\xdb\xbf'
p4276
tp4277
Rp4278
g2046
(g296
S'\xe3\x8a\x8b\xa3r\xb3\x15\xc0'
p4279
tp4280
Rp4281
g2046
(g296
S'\x8ev\xdc\xf0\xbb)\xfa?'
p4282
tp4283
Rp4284
tp4285
tp4286
g731
s(Vsquare_packing_box1
p4287
(g2046
(g296
S'\x1eR\x0c\x90h\x02\xf0?'
p4288
tp4289
Rp4290
g2046
(g296
S'\x96C\x8bl\xe7;\x18\xc0'
p4291
tp4292
Rp4293
g2046
(g296
S'\xfdL\xbdn\x118\x0b@'
p4294
tp4295
Rp4296
tp4297
tp4298
g747
s(Vrectangular_packing_box1
p4299
(g2046
(g296
S'F\xb3\xb2}\xc8\xdb\x0c@'
p4300
tp4301
Rp4302
g2046
(g296
S'Gv\xa5e\xa4\xce\x17\xc0'
p4303
tp4304
Rp4305
g2046
(g296
S'\x8c\xf5\rLnD\x11@'
p4306
tp4307
Rp4308
tp4309
tp4310
g735
s(Vrectangular_packing_box4
p4311
(g2046
(g296
S'\x12h\xb0\xa9\xf3\x08\x06@'
p4312
tp4313
Rp4314
g2046
(g296
S'E\xd5\xaft>\x0c\x17\xc0'
p4315
tp4316
Rp4317
g2046
(g296
S'iSu\x8fl\xce\x08@'
p4318
tp4319
Rp4320
tp4321
tp4322
g3546
s(Vsquare_packing_box3
p4323
(g2046
(g296
S'|\x0b\xeb\xc6\xbb\xe3\x0e@'
p4324
tp4325
Rp4326
g2046
(g296
S'wL\xdd\x95]\x90\x1d\xc0'
p4327
tp4328
Rp4329
g2046
(g296
S'\xb6\xbf\xb3=zC\xf3?'
p4330
tp4331
Rp4332
tp4333
tp4334
g743
s(Vsquare_packing_box2
p4335
(g2046
(g296
S'\xda\xc9\xe0(y\xf5\xf9?'
p4336
tp4337
Rp4338
g2046
(g296
S'9`W\x93\xa7,\x15\xc0'
p4339
tp4340
Rp4341
g2046
(g296
S'wMHk\x0c\xfa\xfb?'
p4342
tp4343
Rp4344
tp4345
tp4346
g739
s(Vsquare_packing_box4
p4347
(g2046
(g296
S'\xdf\x1bC\x00p\x0c\x08@'
p4348
tp4349
Rp4350
g2046
(g296
S'7\xc4x\xcd\xabZ\x1c\xc0'
p4351
tp4352
Rp4353
g2046
(g296
S'\x1e2\xe5CP5\x13@'
p4354
tp4355
Rp4356
tp4357
tp4358
g751
s(Vrectangular_packing_box2
p4359
(g2046
(g296
S'\x01/3l\x94\xf5\xe9?'
p4360
tp4361
Rp4362
g2046
(g296
S'\xd9\xd18\xd4\xefR\x1b\xc0'
p4363
tp4364
Rp4365
g2046
(g296
S'\xab\xcej\x81=\x06\x18@'
p4366
tp4367
Rp4368
tp4369
tp4370
g727
ssg2142
(igtamp_utils.utils
CustomStateSaver
p4371
(dp4372
g2145
g21
(g22
(I0
tp4373
g24
tp4374
Rp4375
(I1
(I1
I3
tp4376
g296
I00
S'}\xe5\x19\x10\x94j\x04@\xa1t\xbe\xf9\x1d\xf6\x19\xc0\xd6\x9dL^\xaa\xe9\xf9?'
p4377
tp4378
bsg2152
Nsg2153
g2154
sg2155
I1
sg1845
(dp4379
Vright_wall_1
p4380
g21
(g22
(I0
tp4381
g24
tp4382
Rp4383
(I1
(I4
tp4384
g296
I00
S'H\xe1z\x14\xaeG\x12@&\\\x8f\xc2\xf5(\xd4\xbf\xcc\x7fH\xbf}\x1d\xed?\x00\x00\x00\x00\x00\x00\x00\x00'
p4385
tp4386
bsVc_obst5
p4387
g21
(g22
(I0
tp4388
g24
tp4389
Rp4390
(I1
(I4
tp4391
g296
I00
S"!B\xbe\xb1\xf5&\x12@\x93|9w\x90b\xd3?e\xaa`TR'\xed?E\xd6`1/g\xb3?"
p4392
tp4393
bsVentrance_right
p4394
g21
(g22
(I0
tp4395
g24
tp4396
Rp4397
(I1
(I4
tp4398
g296
I00
S'ffffff\n@H\xe1z\x14\xaeG\t\xc0\x9c\xc4 \xb0rh\xc1?\x00\x00\x00\x00\x00\x00\x00\x00'
p4399
tp4400
bsVcomputer_table
p4401
g21
(g22
(I0
tp4402
g24
tp4403
Rp4404
(I1
(I4
tp4405
g296
I00
S'\x00\x00\x00\x00\x00\x00\x13@\x00\x00\x00\x00\x00\x00\xf8\xbf\x96C\x8bl\xe7\xfb\xe7?\xd2!3\x7f|\xd9\x12@'
p4406
tp4407
bsVchair_6b56
p4408
g21
(g22
(I0
tp4409
g24
tp4410
Rp4411
(I1
(I4
tp4412
g296
I00
S'\x96=\n\xd7\xa3p\xf5?]\xe1z\x14\xaeG\xd1?\x00\x00\x00\x00\x00\x00\x00\x00\xd6$\xfaNBm\n@'
p4413
tp4414
bsVsquare_packing_box3
p4415
g21
(g22
(I0
tp4416
g24
tp4417
Rp4418
(I1
(I4
tp4419
g296
I00
S'\x1e\xcc\x80\xf8\xbb\xe3\x0e@Qa@\x88]\x90\x1d\xc0F7\x89A`\xe5\xd8?:\x18F\x9bzC\xf3?'
p4420
tp4421
bsVsquare_packing_box2
p4422
g21
(g22
(I0
tp4423
g24
tp4424
Rp4425
(I1
(I4
tp4426
g296
I00
S'\xfe\x90\xd1\xf8x\xf5\xf9?n\x0f8\x8d\xa7,\x15\xc0J7\x89A`\xe5\xd8?o\xef\xd9\xe9\x0c\xfa\xfb?'
p4427
tp4428
bsVtable
p4429
g21
(g22
(I0
tp4430
g24
tp4431
Rp4432
(I1
(I4
tp4433
g296
I00
S'\x7f\xf6#EdX\xed?\xac\xffs\x98//\xc0\xbf\x00\x00\x00\x00\x00\x00\x00\x00\x00\x00\x00\x00\x00\x00\x00\x00'
p4434
tp4435
bsVsquare_packing_box1
p4436
g21
(g22
(I0
tp4437
g24
tp4438
Rp4439
(I1
(I4
tp4440
g296
I00
S'\x86\x9f\x1e\x18h\x02\xf0?$z-Q\xe7;\x18\xc0L7\x89A`\xe5\xd8?\xb0\xa1\n^\x118\x0b@'
p4441
tp4442
bsVback_wall_2
p4443
g21
(g22
(I0
tp4444
g24
tp4445
Rp4446
(I1
(I4
tp4447
g296
I00
S'\xaeG\xe1z\x14.\x13@\x80\x14\xaeG\xe1z\xc4?xX\xa85\xcd\xbb\xf2?\x00\x00\x00\x00\x00\x00\x00\x00'
p4448
tp4449
bsVchair_083c
p4450
g21
(g22
(I0
tp4451
g24
tp4452
Rp4453
(I1
(I4
tp4454
g296
I00
S'\xa4p=\n\xd7\xa3\xe0?333333\xe3\xbf\x00\x00\x00\x00\x00\x00\x00\x00\x00\x00\x00\x00\x00\x00\x00\x00'
p4455
tp4456
bsVback_wall_1
p4457
g21
(g22
(I0
tp4458
g24
tp4459
Rp4460
(I1
(I4
tp4461
g296
I00
S'\xaeG\xe1z\x14.\x13@\x80\x14\xaeG\xe1z\xc4?\xcc\x7fH\xbf}\x1d\xed?\x00\x00\x00\x00\x00\x00\x00\x00'
p4462
tp4463
bsVbottom_wall
p4464
g21
(g22
(I0
tp4465
g24
tp4466
Rp4467
(I1
(I4
tp4468
g296
I00
S'\x00\x00\x00\x00\x00\x00\xfc?\x00\x00\x00\x00\x00\x00\x00\x00\x00\x00\x00\x00\x00\x00\x00\x00\x00\x00\x00\x00\x00\x00\x00\x00'
p4469
tp4470
bsVcup_905a
p4471
g21
(g22
(I0
tp4472
g24
tp4473
Rp4474
(I1
(I4
tp4475
g296
I00
S'\x00\x00\x00\x00\x00\x00\xf0?\x83\xc0\xca\xa1E\xb6\xdb?\x1b/\xdd$\x06\x81\xed?\x00\x00\x00\x00\x00\x00\x00\x00'
p4476
tp4477
bsVplate_496f
p4478
g21
(g22
(I0
tp4479
g24
tp4480
Rp4481
(I1
(I4
tp4482
g296
I00
S"q=\n\xd7\xa3p\xe5?\x9dhW!\xe5'\xdd\xbf\x1b/\xdd$\x06\x81\xed?\x00\x00\x00\x00\x00\x00\x00\x00"
p4483
tp4484
bsVtoaster
p4485
g21
(g22
(I0
tp4486
g24
tp4487
Rp4488
(I1
(I4
tp4489
g296
I00
S')\\\x8f\xc2\xf5(\xf4\xbf\xe0z\x14\xaeG\xe1\xf2\xbf\xb8\x1e\x85\xebQ\xb8\xee?\x89/`\x9b\xf8\x8a\xe4?'
p4490
tp4491
bsVc_obst1
p4492
g21
(g22
(I0
tp4493
g24
tp4494
Rp4495
(I1
(I4
tp4496
g296
I00
S"\xa13\xaf\xb4j\xa1\x12@\x1b\xb8K\xc5\x0cm\x0e?e\xaa`TR'\xed?\xc5\xd8D\xf8\x82\x11\x11@"
p4497
tp4498
bsVrectangular_packing_box4
p4499
g21
(g22
(I0
tp4500
g24
tp4501
Rp4502
(I1
(I4
tp4503
g296
I00
S'bPXy\xf3\x08\x06@\xb2\x04\x98\x8d>\x0c\x17\xc0K7\x89A`\xe5\xd8?\xdd\xa3\xe8\x9el\xce\x08@'
p4504
tp4505
bsVmicrowave
p4506
g21
(g22
(I0
tp4507
g24
tp4508
Rp4509
(I1
(I4
tp4510
g296
I00
S'\x9a\x99\x99\x99\x99\x99\xf1\xbf\x00\x00\x00\x00\x00\x00\x00@7\x89A`\xe5\xd0\xee?\x00\x00\x00\x00\x00\x00\x00\x00'
p4511
tp4512
bsVc_obst7
p4513
g21
(g22
(I0
tp4514
g24
tp4515
Rp4516
(I1
(I4
tp4517
g296
I00
S"\xe4\x14\x0c\xa6rS\x12@\xc6sX\x7f\x98A\xc5?e\xaa`TR'\xed?\xb5m\xb1\xbc!\xcc\r@"
p4518
tp4519
bsVc_obst6
p4520
g21
(g22
(I0
tp4521
g24
tp4522
Rp4523
(I1
(I4
tp4524
g296
I00
S"\x92\x1d\x1e]\xe6\x85\x12@\x9d\x06\\\xd0\x88\xdb\xdf?e\xaa`TR'\xed?\x9bq\xc6R9l\xc7?"
p4525
tp4526
bsVcup_b6af
p4527
g21
(g22
(I0
tp4528
g24
tp4529
Rp4530
(I1
(I4
tp4531
g296
I00
S'R\xb8\x1e\x85\xebQ\xe8?\x9a\x99\x99\x99\x99\x99\xe1?\x1b/\xdd$\x06\x81\xed?\x00\x00\x00\x00\x00\x00\x00\x00'
p4532
tp4533
bsVc_obst4
p4534
g21
(g22
(I0
tp4535
g24
tp4536
Rp4537
(I1
(I4
tp4538
g296
I00
S"\x9e\xa6[\xceU7\x12@\x10M\x12\\e\xac\xb7?e\xaa`TR'\xed?Z\xbf}\xd0\xe0\x9a\x11@"
p4539
tp4540
bsVrectangular_packing_box2
p4541
g21
(g22
(I0
tp4542
g24
tp4543
Rp4544
(I1
(I4
tp4545
g296
I00
S'\x05\xe7\xf8\xa8\x93\xf5\xe9?\xf1\xc5X\xc3\xefR\x1b\xc0B7\x89A`\xe5\xd8?\x9bIld=\x06\x18@'
p4546
tp4547
bsVplate_fa76
p4548
g21
(g22
(I0
tp4549
g24
tp4550
Rp4551
(I1
(I4
tp4552
g296
I00
S'=\n\xd7\xa3p=\xf2?\x00\x00\x00\x00\x00\x00\x00\x00\x1b/\xdd$\x06\x81\xed?\x00\x00\x00\x00\x00\x00\x00\x00'
p4553
tp4554
bsVfloorwalls
p4555
g21
(g22
(I0
tp4556
g24
tp4557
Rp4558
(I1
(I4
tp4559
g296
I00
S'\xc7\xcc\xcc\xcc\xcc\xcc\xfc?\x00\x00\x00\x00\x00\x00\x18\xc0H\xe1z\x14\xaeG\xc1?\x16-DT\xfb!\xf9?'
p4560
tp4561
bsVpin_c671
p4562
g21
(g22
(I0
tp4563
g24
tp4564
Rp4565
(I1
(I4
tp4566
g296
I00
S'\xc3\xf5(\\\x8f\xc2\xf1\xbf}?5^\xbaI\x02@\xb8\x1e\x85\xebQ\xb8\xfa?\x00\x00\x00\x00\x00\x00\x00\x00'
p4567
tp4568
bsVc_obst3
p4569
g21
(g22
(I0
tp4570
g24
tp4571
Rp4572
(I1
(I4
tp4573
g296
I00
S"\xde\x9e\x01\xbd(\x89\x12@\xf2L9\xbf1\xf0\xd1?e\xaa`TR'\xed?\xcf\xba\x8f'\xc5i\xf9?"
p4574
tp4575
bsVchair_2e39
p4576
g21
(g22
(I0
tp4577
g24
tp4578
Rp4579
(I1
(I4
tp4580
g296
I00
S'\x98fffff\xee?\x15fffff\xf2\xbf\x00\x00\x00\x00\x00\x00\x00\x00\x07M\xe8QQF\xf3?'
p4581
tp4582
bsVentrance_left
p4583
g21
(g22
(I0
tp4584
g24
tp4585
Rp4586
(I1
(I4
tp4587
g296
I00
S'\x98\x99\x99\x99\x99\x99\xe9\xbfH\xe1z\x14\xaeG\t\xc0\x9c\xc4 \xb0rh\xc1?\x00\x00\x00\x00\x00\x00\x00\x00'
p4588
tp4589
bsVtop_wall_1
p4590
g21
(g22
(I0
tp4591
g24
tp4592
Rp4593
(I1
(I4
tp4594
g296
I00
S'H\xe1z\x14\xaeG\x12@\x80\x14\xaeG\xe1z\xc4?xX\xa85\xcd\xbb\xf2?\x00\x00\x00\x00\x00\x00\x00\x00'
p4595
tp4596
bsVrectangular_packing_box3
p4597
g21
(g22
(I0
tp4598
g24
tp4599
Rp4600
(I1
(I4
tp4601
g296
I00
S'dR\x16\x965\x90\xdb\xbff3\xc3\xa2r\xb3\x15\xc0n7\x89A`\xe5\xd8?\x90\t\xa9c\xbc)\xfa?'
p4602
tp4603
bsVshaker
p4604
g21
(g22
(I0
tp4605
g24
tp4606
Rp4607
(I1
(I4
tp4608
g296
I00
S'\n\xd7\xa3p=\n\x01@\x14\xaeG\xe1z\x14\x02@\\\x8f\xc2\xf5(\\\xef?\x00\x00\x00\x00\x00\x00\x00\x00'
p4609
tp4610
bsVc_obst9
p4611
g21
(g22
(I0
tp4612
g24
tp4613
Rp4614
(I1
(I4
tp4615
g296
I00
S"NY\\\xad\x85K\x12@h\x83nC\xba\r\xdc?e\xaa`TR'\xed?\xa6\xa8\xf1~\xf1\x9b\xe9?"
p4616
tp4617
bsVplate_835a
p4618
g21
(g22
(I0
tp4619
g24
tp4620
Rp4621
(I1
(I4
tp4622
g296
I00
S'\xf6(\\\x8f\xc2\xf5\xf0?\\\x8f\xc2\xf5(\\\xe7\xbf\x1b/\xdd$\x06\x81\xed?\x00\x00\x00\x00\x00\x00\x00\x00'
p4623
tp4624
bsVcup_58a2
p4625
g21
(g22
(I0
tp4626
g24
tp4627
Rp4628
(I1
(I4
tp4629
g296
I00
S'\x85\xebQ\xb8\x1e\x85\xe3?\xcd\xcc\xcc\xcc\xcc\xcc\xdc?\x1b/\xdd$\x06\x81\xed?\x00\x00\x00\x00\x00\x00\x00\x00'
p4630
tp4631
bsVleft_wall_1
p4632
g21
(g22
(I0
tp4633
g24
tp4634
Rp4635
(I1
(I4
tp4636
g296
I00
S'H\xe1z\x14\xaeG\x12@S\xb8\x1e\x85\xebQ\xe4?\xcc\x7fH\xbf}\x1d\xed?\x00\x00\x00\x00\x00\x00\x00\x00'
p4637
tp4638
bsVc_obst2
p4639
g21
(g22
(I0
tp4640
g24
tp4641
Rp4642
(I1
(I4
tp4643
g296
I00
S"T\xbe\xacMQG\x12@\x80\xb2\x15\xb8\x12e\xc3\xbfe\xaa`TR'\xed?\xfc\xe6E\xc9iQ\xe5?"
p4644
tp4645
bsVsquare_packing_box4
p4646
g21
(g22
(I0
tp4647
g24
tp4648
Rp4649
(I1
(I4
tp4650
g296
I00
S'\xe9\xf6\xbf\x17p\x0c\x08@e\xc8\xaf\xd1\xabZ\x1c\xc0L7\x89A`\xe5\xd8?~\x85/KP5\x13@'
p4651
tp4652
bsVrectangular_packing_box1
p4653
g21
(g22
(I0
tp4654
g24
tp4655
Rp4656
(I1
(I4
tp4657
g296
I00
S'\x9f\x93\x80e\xc8\xdb\x0c@T\x1e\x97m\xa4\xce\x17\xc0`7\x89A`\xe5\xd8?\x11\xef\xe6.nD\x11@'
p4658
tp4659
bsVpin_371e
p4660
g21
(g22
(I0
tp4661
g24
tp4662
Rp4663
(I1
(I4
tp4664
g296
I00
S'333333\xf3\xbfffffff\xf6?\xb8\x1e\x85\xebQ\xb8\xee?\x00\x00\x00\x00\x00\x00\x00\x00'
p4665
tp4666
bsVfridge
p4667
g21
(g22
(I0
tp4668
g24
tp4669
Rp4670
(I1
(I4
tp4671
g296
I00
S'\xd7\xa3p=\n\xd7\xeb\xbf\x00\x00\x00\x00\x00\x00\x00\xc0\xcd\xcc\xcc\xcc\xcc\xcc\xf8?\x00\x00\x00\x00\x00\x00\x00\x00'
p4672
tp4673
bsVcup_d441
p4674
g21
(g22
(I0
tp4675
g24
tp4676
Rp4677
(I1
(I4
tp4678
g296
I00
S'\n\xd7\xa3p=\n\xef?\x8f\xc2\xf5(\\\x8f\xe2?\x1b/\xdd$\x06\x81\xed?\x00\x00\x00\x00\x00\x00\x00\x00'
p4679
tp4680
bsVshelf2
p4681
g21
(g22
(I0
tp4682
g24
tp4683
Rp4684
(I1
(I4
tp4685
g296
I00
S'\x00\x00\x00\x00\x00\x00\x0e@\xaeG\xe1z\x14\xae\x07@\x9c\xc4 \xb0rh\xc1?\xd2!3\x7f|\xd9\x12@'
p4686
tp4687
bsVtop_wall_2
p4688
g21
(g22
(I0
tp4689
g24
tp4690
Rp4691
(I1
(I4
tp4692
g296
I00
S'H\xe1z\x14\xaeG\x12@\x80\x14\xaeG\xe1z\xc4?\x16HP\xfc\x18\xf3\xfd?\x00\x00\x00\x00\x00\x00\x00\x00'
p4693
tp4694
bsVc_obst0
p4695
g21
(g22
(I0
tp4696
g24
tp4697
Rp4698
(I1
(I4
tp4699
g296
I00
S"pp\xab<\x19\x9e\x12@\xd0\xd2\xdf)\xf7\x03\xc7\xbfe\xaa`TR'\xed?Y\x92j/j\xf8\x0f@"
p4700
tp4701
bsVshelf1
p4702
g21
(g22
(I0
tp4703
g24
tp4704
Rp4705
(I1
(I4
tp4706
g296
I00
S'\x00\x00\x00\x00\x00\x00\x13@\xaeG\xe1z\x14\xae\x07@\x9c\xc4 \xb0rh\xc1?\xd2!3\x7f|\xd9\x12@'
p4707
tp4708
bsVsink
p4709
g21
(g22
(I0
tp4710
g24
tp4711
Rp4712
(I1
(I4
tp4713
g296
I00
S'ffffff\xd6?333333\x01@\x9a\x99\x99\x99\x99\x99\xb9\xbf\x00\x00\x00\x00\x00\x00\x00\x00'
p4714
tp4715
bsVpr2
p4716
g21
(g22
(I0
tp4717
g24
tp4718
Rp4719
(I1
(I4
tp4720
g296
I00
S'{\xe5\x19\x10\x94j\x04@\xa2t\xbe\xf9\x1d\xf6\x19\xc0\x9a_\x94\xa0\xbf\xd0\xc1?\xd6\x9dL^\xaa\xe9\xf9?'
p4721
tp4722
bsVchair_12d0
p4723
g21
(g22
(I0
tp4724
g24
tp4725
Rp4726
(I1
(I4
tp4727
g296
I00
S'^\xd2\x18\xad\xa3\xaa\xdb?Pf\x83L2r\xc6?\x00\x00\x00\x00\x00\x00\x00\x00\xf8\x81\r\x14M\xa6\x17@'
p4728
tp4729
bsVright_wall_2
p4730
g21
(g22
(I0
tp4731
g24
tp4732
Rp4733
(I1
(I4
tp4734
g296
I00
S'H\xe1z\x14\xaeG\x12@&\\\x8f\xc2\xf5(\xd4\xbfxX\xa85\xcd\xbb\xf2?\x00\x00\x00\x00\x00\x00\x00\x00'
p4735
tp4736
bsVknife_block
p4737
g21
(g22
(I0
tp4738
g24
tp4739
Rp4740
(I1
(I4
tp4741
g296
I00
S'R\xb8\x1e\x85\xebQ\xe0\xbfffffff\x02@`\xe5\xd0"\xdb\xf9\xee?\x00\x00\x00\x00\x00\x00\x00\x00'
p4742
tp4743
bsVleft_wall_2
p4744
g21
(g22
(I0
tp4745
g24
tp4746
Rp4747
(I1
(I4
tp4748
g296
I00
S'H\xe1z\x14\xaeG\x12@S\xb8\x1e\x85\xebQ\xe4?xX\xa85\xcd\xbb\xf2?\x00\x00\x00\x00\x00\x00\x00\x00'
p4749
tp4750
bsVleft_wall
p4751
g21
(g22
(I0
tp4752
g24
tp4753
Rp4754
(I1
(I4
tp4755
g296
I00
S'\x9a\x99\x99\x99\x99\x99\x07@H\xe1z\x14\xaeG\xff?\x9c\xc4 \xb0rh\xc1?\x00\x00\x00\x00\x00\x00\x00\x00'
p4756
tp4757
bsVkitchen
p4758
g21
(g22
(I0
tp4759
g24
tp4760
Rp4761
(I1
(I4
tp4762
g296
I00
S'\x00\x00\x00\x00\x00\x00\x00\x00\x00\x00\x00\x00\x00\x00\x00\x00\x00\x00\x00\x00\x00\x00\x00\x00\x00\x00\x00\x00\x00\x00\x00\x00'
p4763
tp4764
bsVtable2
p4765
g21
(g22
(I0
tp4766
g24
tp4767
Rp4768
(I1
(I4
tp4769
g296
I00
S'\x00\x00\x00\x00\x00\x00\x13@\x80\x14\xaeG\xe1z\xc4?S\x96!\x8euq\xec?\xd2!3\x7f|\xd9\x12@'
p4770
tp4771
bsVc_obst8
p4772
g21
(g22
(I0
tp4773
g24
tp4774
Rp4775
(I1
(I4
tp4776
g296
I00
S"\xee\xf72\x8c\\\xaa\x12@\x8f\x1a\x88\x06\xee#\xbc?e\xaa`TR'\xed?f\x9c\x04\x03\x10\xed\x18@"
p4777
tp4778
bsVplate_b4e7
p4779
g21
(g22
(I0
tp4780
g24
tp4781
Rp4782
(I1
(I4
tp4783
g296
I00
S'\x14\xaeG\xe1z\x14\xf2\xbf\x14\xaeG\xe1z\x14\x00@=\n\xd7\xa3p=\xf2?\x00\x00\x00\x00\x00\x00\x00\x00'
p4784
tp4785
bsVcooker
p4786
g21
(g22
(I0
tp4787
g24
tp4788
Rp4789
(I1
(I4
tp4790
g296
I00
S'\xaeG\xe1z\x14\xae\xff?\x85\xebQ\xb8\x1e\x85\xfb?\x00\x00\x00\x00\x00\x00\xe8?\x00\x00\x00\x00\x00\x00\x00\x00'
p4791
tp4792
bsVpin_a091
p4793
g21
(g22
(I0
tp4794
g24
tp4795
Rp4796
(I1
(I4
tp4797
g296
I00
S'\xdb\xf9~j\xbct\xf7\xbf)\\\x8f\xc2\xf5(\x02@\xb8\x1e\x85\xebQ\xb8\xfa?\x00\x00\x00\x00\x00\x00\x00\x00'
p4798
tp4799
bsVside_wall_2
p4800
g21
(g22
(I0
tp4801
g24
tp4802
Rp4803
(I1
(I4
tp4804
g296
I00
S'\xc9\xff\xff\xff\xff\xff\x14@\xba\xff\xff\xff\xff\xaf#=\x9c\xc4 \xb0rh\xc1?#-DT\xfb!\xf9?'
p4805
tp4806
bsVside_wall_3
p4807
g21
(g22
(I0
tp4808
g24
tp4809
Rp4810
(I1
(I4
tp4811
g296
I00
S'\x00\x00\x00\x00\x00\x00\xfc?H\xe1z\x14\xaeG\t@\x9c\xc4 \xb0rh\xc1?\x00\x00\x00\x00\x00\x00\x00\x00'
p4812
tp4813
bsVmixer
p4814
g21
(g22
(I0
tp4815
g24
tp4816
Rp4817
(I1
(I4
tp4818
g296
I00
S'\n\xd7\xa3p=\n\xfb?ffffff\x02@d;\xdfO\x8d\x97\xee?\x00\x00\x00\x00\x00\x00\x00\x00'
p4819
tp4820
bsVside_wall_1
p4821
g21
(g22
(I0
tp4822
g24
tp4823
Rp4824
(I1
(I4
tp4825
g296
I00
S'\x92\xff\xff\xff\xff\xff\xfb\xbf\x81\xff\xff\xff\xff?\n\xbd\x9c\xc4 \xb0rh\xc1?#-DT\xfb!\xf9?'
p4826
tp4827
bsVbottom_wall_1
p4828
g21
(g22
(I0
tp4829
g24
tp4830
Rp4831
(I1
(I4
tp4832
g296
I00
S'H\xe1z\x14\xaeG\x12@\x80\x14\xaeG\xe1z\xc4?\xcc\x7fH\xbf}\x1d\xed?\x00\x00\x00\x00\x00\x00\x00\x00'
p4833
tp4834
bsVcan
p4835
g21
(g22
(I0
tp4836
g24
tp4837
Rp4838
(I1
(I4
tp4839
g296
I00
S'\x00\x00\x00\x00\x00\x00\xf4\xbfH\xe1z\x14\xaeG\xe1\xbf\n\xd7\xa3p=\n\xef?\x00\x00\x00\x00\x00\x00\x00\x00'
p4840
tp4841
bsVright_wall
p4842
g21
(g22
(I0
tp4843
g24
tp4844
Rp4845
(I1
(I4
tp4846
g296
I00
S'\x9a\x99\x99\x99\x99\x99\x07@H\xe1z\x14\xaeG\xff\xbf\x9c\xc4 \xb0rh\xc1?\x00\x00\x00\x00\x00\x00\x00\x00'
p4847
tp4848
bsVcoffe_machine
p4849
g21
(g22
(I0
tp4850
g24
tp4851
Rp4852
(I1
(I4
tp4853
g296
I00
S'\\\x8f\xc2\xf5(\\\xf5\xbf\xb8\x1e\x85\xebQ\xb8\xee?\n\xd7\xa3p=\n\xef?\x00\x00\x00\x00\x00\x00\x00\x00'
p4854
tp4855
bsVcomputer_chair
p4856
g21
(g22
(I0
tp4857
g24
tp4858
Rp4859
(I1
(I4
tp4860
g296
I00
S'\xcd\xcc\xcc\xcc\xcc\xcc\x10@\x00\x00\x00\x00\x00\x00\xf8\xbf\xa00\xb6\x10\xe4\xa9\x95\xbf\x00\x00\x00\x00\x00\x00\x00\x00'
p4861
tp4862
bssg2640
g21
(g22
(I0
tp4863
g24
tp4864
Rp4865
(I1
(I39
tp4866
g296
I00
S'\x00\x00\x00\x00\x00\x00\x00\x00\xcc;\x7ff\x9e\xa0\xa6<\xcc;\x7ff\x9e\xa0\xa6<\x00\x00\x00\x00\x00\x00\x00\x00\xcc;\x7ff\x9e\xa0\xa6<\xcc;\x7ff\x9e\xa0\xa6<\x00\x00\x00\x00\x00\x00\x00\x00\xcc;\x7ff\x9e\xa0\xa6<\xcc;\x7ff\x9e\xa0\xa6<\x00\x00\x00\x00\x00\x00\x00\x00\xcc;\x7ff\x9e\xa0\xa6<\xcc;\x7ff\x9e\xa0\xa6<@d;\xdfO\x8d\x87?\x00\x00\x00\x00\x00\x00\x00\x00\xcc;\x7ff\x9e\xa0\xa6<\x00\x00\x00\x00\x00\x00\x00\x00\xec\xed\t\xf1\xcc\xa4\xf4?\x00\x00\x00\x00\x00\x00\x00\x00N"\xd0^p\xf8\x00\xc0\x00\x00\x00\x00\x00\x00\x00\x00\x9f\x03\r.\x04V\xe6\xbf\x15\xecEk\x17\x0f\xc1\xbc\x00\x00\x00\x00\x00\x00\x00\x00\x00\x00\x00\x00\x00\xf8\x11\xbd\x00\x00\x00\x00\x00\x00\x00\x00\x00\x00\x00\x00\x00\x00\t\xbd\xcc;\x7ff\x9e\xa0\xa6<\x00\x00\x00\x00\x00\x00\x00\x00\xeb\xed\t\xf1\xcc\xa4\xf4?\x00\x00\x00\x00\x00\x00\x00\x00N"\xd0^p\xf8\x00\xc0\x00\x00\x00\x00\x00\x00\x00\x00\x9f\x03\r.\x04V\xe6\xbfT=\xb2)]s\xa6\xbc\xcc9\xe3\xc17\x89\xe1?\x00\x00\x00\x00\x00\x18\x13\xbd\xce\xa4\x13L\r\xe6\xc1\xbc\x00\x00\x00\x00\x00\x80\x12\xbd\x00\x00\x00\x00\x00\x00\x00\x00'
p4867
tp4868
bsg2647
I00
sbsg2648
Nsg2649
(dp4869
(g636
g636
g287
tp4870
g1348
s(g438
g1349
g1349
tp4871
g1351
s(g1352
g510
g287
tp4872
g1354
s(g477
g336
g1349
tp4873
g1356
s(g287
g287
g287
tp4874
g1358
s(g336
g636
g1349
tp4875
g1360
s(g438
g286
g287
tp4876
g1362
s(g477
g438
g287
tp4877
g1366
s(g287
g336
g1349
tp4878
g1370
s(g477
g1352
g287
tp4879
g1372
s(g1349
g287
g1349
tp4880
g1374
s(g336
g1352
g287
tp4881
g1378
s(g477
g510
g1349
tp4882
g1380
s(g567
g1349
g287
tp4883
g1382
s(g1352
g636
g1349
tp4884
g1384
s(g636
g1349
g287
tp4885
g1388
s(g438
g438
g1349
tp4886
g1392
s(g1349
g336
g1349
tp4887
g1394
s(g1352
g477
g287
tp4888
g1398
s(g1349
g1349
g287
tp4889
g1400
s(g287
g287
g1349
tp4890
g1404
s(g336
g636
g287
tp4891
g1766
s(g510
g477
g1349
tp4892
g1406
s(g636
g336
g287
tp4893
g1408
s(g286
g567
g1349
tp4894
g1500
s(g510
g287
g1349
tp4895
g1412
s(g636
g286
g1349
tp4896
g1772
s(g510
g286
g1349
tp4897
g1416
s(g286
g510
g287
tp4898
g1418
s(g1349
g438
g1349
tp4899
g1420
s(g438
g1352
g1349
tp4900
g1774
s(g636
g636
g1349
tp4901
g1424
s(g1352
g336
g287
tp4902
g1426
s(g1349
g287
g287
tp4903
g1428
s(g477
g510
g287
tp4904
g1434
s(g477
g567
g287
tp4905
g1688
s(g438
g286
g1349
tp4906
g1438
s(g567
g477
g287
tp4907
g1440
s(g477
g438
g1349
tp4908
g1442
s(g477
g636
g1349
tp4909
g1444
s(g1352
g477
g1349
tp4910
g1446
s(g1349
g286
g1349
tp4911
g1448
s(g1352
g287
g287
tp4912
g1450
s(g1349
g1352
g287
tp4913
g1454
s(g636
g336
g1349
tp4914
g1456
s(g567
g636
g1349
tp4915
g1458
s(g567
g567
g287
tp4916
g1460
s(g510
g286
g287
tp4917
g1462
s(g1352
g636
g287
tp4918
g1464
s(g1352
g567
g1349
tp4919
g1514
s(g567
g438
g287
tp4920
g1410
s(g336
g438
g287
tp4921
g1468
s(g438
g438
g287
tp4922
g1470
s(g336
g510
g1349
tp4923
g1476
s(g510
g477
g287
tp4924
g1480
s(g636
g510
g1349
tp4925
g1482
s(g510
g287
g287
tp4926
g1484
s(g477
g636
g287
tp4927
g1486
s(g636
g567
g287
tp4928
g1488
s(g286
g510
g1349
tp4929
g1490
s(g1352
g287
g1349
tp4930
g1494
s(g1352
g336
g1349
tp4931
g1496
s(g567
g636
g287
tp4932
g1498
s(g1349
g510
g287
tp4933
g1698
s(g636
g1352
g1349
tp4934
g1502
s(g477
g567
g1349
tp4935
g1730
s(g510
g1349
g287
tp4936
g1504
s(g567
g477
g1349
tp4937
g1506
s(g567
g510
g1349
tp4938
g1508
s(g336
g438
g1349
tp4939
g1510
s(g438
g477
g287
tp4940
g1678
s(g510
g1349
g1349
tp4941
g1466
s(g1349
g286
g287
tp4942
g1516
s(g636
g510
g287
tp4943
g1520
s(g336
g510
g287
tp4944
g1522
s(g1349
g567
g287
tp4945
g1524
s(g287
g477
g1349
tp4946
g1492
s(g567
g1352
g287
tp4947
g1390
s(g510
g567
g1349
tp4948
g1534
s(g477
g477
g287
tp4949
g1792
s(g286
g1349
g1349
tp4950
g1538
s(g438
g510
g287
tp4951
g1542
s(g636
g1352
g287
tp4952
g1544
s(g286
g636
g1349
tp4953
g1548
s(g567
g510
g287
tp4954
g1550
s(g336
g1349
g1349
tp4955
g1552
s(g477
g287
g287
tp4956
g1554
s(g287
g286
g287
tp4957
g1432
s(g1349
g510
g1349
tp4958
g1560
s(g1349
g567
g1349
tp4959
g1562
s(g438
g567
g287
tp4960
g1564
s(g1352
g1349
g287
tp4961
g1396
s(g438
g510
g1349
tp4962
g1568
s(g286
g636
g287
tp4963
g1570
s(g636
g477
g287
tp4964
g1572
s(g286
g287
g1349
tp4965
g1574
s(g336
g1349
g287
tp4966
g1576
s(g567
g1352
g1349
tp4967
g1796
s(g286
g1349
g287
tp4968
g1588
s(g477
g336
g287
tp4969
g1810
s(g567
g336
g287
tp4970
g1590
s(g477
g1349
g1349
tp4971
g1594
s(g286
g1352
g1349
tp4972
g1596
s(g477
g287
g1349
tp4973
g1598
s(g438
g477
g1349
tp4974
g1600
s(g567
g287
g1349
tp4975
g1604
s(g286
g287
g287
tp4976
g1606
s(g510
g510
g287
tp4977
g1610
s(g438
g567
g1349
tp4978
g1618
s(g336
g567
g287
tp4979
g1614
s(g438
g636
g287
tp4980
g1616
s(g287
g1352
g287
tp4981
g1386
s(g287
g477
g287
tp4982
g1622
s(g1352
g286
g1349
tp4983
g1624
s(g286
g438
g287
tp4984
g1626
s(g510
g1352
g287
tp4985
g1628
s(g567
g336
g1349
tp4986
g1630
s(g567
g286
g1349
tp4987
g1632
s(g1349
g336
g287
tp4988
g1612
s(g287
g567
g1349
tp4989
g1558
s(g286
g1352
g287
tp4990
g1640
s(g336
g286
g1349
tp4991
g1642
s(g636
g477
g1349
tp4992
g1636
s(g286
g567
g287
tp4993
g1802
s(g336
g336
g1349
tp4994
g1648
s(g510
g510
g1349
tp4995
g1652
s(g438
g336
g1349
tp4996
g1654
s(g438
g1352
g287
tp4997
g1728
s(g1352
g438
g287
tp4998
g1658
s(g287
g1352
g1349
tp4999
g1660
s(g287
g510
g1349
tp5000
g1662
s(g477
g1349
g287
tp5001
g1664
s(g438
g636
g1349
tp5002
g1666
s(g510
g438
g1349
tp5003
g1668
s(g1352
g286
g287
tp5004
g1672
s(g636
g438
g287
tp5005
g1644
s(g477
g286
g1349
tp5006
g1674
s(g510
g1352
g1349
tp5007
g1676
s(g1349
g477
g1349
tp5008
g1518
s(g336
g286
g287
tp5009
g1684
s(g438
g287
g1349
tp5010
g1686
s(g286
g336
g287
tp5011
g1436
s(g510
g567
g287
tp5012
g1566
s(g1349
g1352
g1349
tp5013
g1694
s(g336
g567
g1349
tp5014
g1696
s(g1352
g1352
g1349
tp5015
g1700
s(g438
g336
g287
tp5016
g1704
s(g286
g438
g1349
tp5017
g1708
s(g567
g287
g287
tp5018
g1710
s(g1352
g438
g1349
tp5019
g1712
s(g567
g286
g287
tp5020
g1714
s(g286
g477
g287
tp5021
g1716
s(g636
g438
g1349
tp5022
g1720
s(g510
g636
g287
tp5023
g1722
s(g1352
g1349
g1349
tp5024
g1724
s(g336
g477
g287
tp5025
g1656
s(g286
g336
g1349
tp5026
g1530
s(g286
g286
g1349
tp5027
g1670
s(g336
g287
g287
tp5028
g1734
s(g567
g567
g1349
tp5029
g1690
s(g1349
g636
g1349
tp5030
g1706
s(g287
g510
g287
tp5031
g1742
s(g287
g567
g287
tp5032
g1744
s(g510
g438
g287
tp5033
g1746
s(g636
g567
g1349
tp5034
g1526
s(g1352
g567
g287
tp5035
g1750
s(g477
g286
g287
tp5036
g1752
s(g477
g477
g1349
tp5037
g1754
s(g510
g336
g1349
tp5038
g1756
s(g336
g287
g1349
tp5039
g1758
s(g636
g287
g287
tp5040
g1760
s(g438
g287
g287
tp5041
g1762
s(g510
g636
g1349
tp5042
g1764
s(g287
g286
g1349
tp5043
g1512
s(g287
g1349
g287
tp5044
g1768
s(g1352
g1352
g287
tp5045
g1770
s(g287
g636
g1349
tp5046
g1414
s(g336
g477
g1349
tp5047
g1422
s(g1349
g477
g287
tp5048
g1776
s(g1349
g636
g287
tp5049
g1726
s(g438
g1349
g287
tp5050
g1782
s(g286
g477
g1349
tp5051
g1784
s(g287
g438
g287
tp5052
g1786
s(g1352
g510
g1349
tp5053
g1788
s(g336
g1352
g1349
tp5054
g1790
s(g287
g438
g1349
tp5055
g1536
s(g510
g336
g287
tp5056
g1794
s(g286
g286
g287
tp5057
g1582
s(g287
g336
g287
tp5058
g1800
s(g336
g336
g287
tp5059
g1806
s(g567
g438
g1349
tp5060
g1646
s(g567
g1349
g1349
tp5061
g1812
s(g636
g286
g287
tp5062
g1830
s(g636
g1349
g1349
tp5063
g1816
s(g636
g287
g1349
tp5064
g1820
s(g1349
g1349
g1349
tp5065
g1822
s(g477
g1352
g1349
tp5066
g1824
s(g287
g1349
g1349
tp5067
g1828
s(g287
g636
g287
tp5068
g1814
s(g1349
g438
g287
tp5069
g1832
ssg2651
(dp5070
(g3640
g1349
tp5071
(lp5072
g21
(g22
(I0
tp5073
g24
tp5074
Rp5075
(I1
(I3
tp5076
g296
I00
S'\x07\xf8D\x86\x99^\x07@\xf6\xe6\x1c\xec\xc9\x04\x17\xc0N\xcc\x18\xcbwu\x17@'
p5077
tp5078
bas(g3541
g287
tp5079
g3369
s(g3536
g287
tp5080
g3287
s(g3540
g1349
tp5081
(lp5082
g21
(g22
(I0
tp5083
g24
tp5084
Rp5085
(I1
(I3
tp5086
g296
I00
S'\xfb\xe4\x10\x1e\x9bK\x0b@\x05E\xe0/\x9a\xc7\x1f\xc0\xac#\xb5J\x03Q\xef?'
p5087
tp5088
bas(g3536
g1349
tp5089
(lp5090
g21
(g22
(I0
tp5091
g24
tp5092
Rp5093
(I1
(I3
tp5094
g296
I00
S'\x94\x9dX\xfeM\xfa\xfe?\xad_v(z\x9b\x16\xc0\x8e\xd0\xe6\xe4\x99=\xd7?'
p5095
tp5096
bas(g3540
g287
tp5097
(lp5098
g21
(g22
(I0
tp5099
g24
tp5100
Rp5101
(I1
(I3
tp5102
g296
I00
S'\xf8\xe4\x10\x1e\x9bK\x0b@\x05E\xe0/\x9a\xc7\x1f\xc0\xab#\xb5J\x03Q\xef?'
p5103
tp5104
bag21
(g22
(I0
tp5105
g24
tp5106
Rp5107
(I1
(I3
tp5108
g307
I00
S'h\xe5u\t\x19Z\x05@*\x05#\xa8W\x05\x1f\xc0\t\xdeI\x16\xa6\x8a\xee?'
p5109
tp5110
bag21
(g22
(I0
tp5111
g24
tp5112
Rp5113
(I1
(I3
tp5114
g307
I00
S'\xb9O\xa7Y\x02\x91\x00@\x96d\x95\x0e\xe6\xda\x1e\xc0l\xef\x8e\x11Rk\xeb?'
p5115
tp5116
bag21
(g22
(I0
tp5117
g24
tp5118
Rp5119
(I1
(I3
tp5120
g307
I00
S'\xa4\xc8\xcc\x88S\x9f\xf6?N\xeaYik!\x1e\xc0\x00W\xeas\x1a)\xfa?'
p5121
tp5122
bag21
(g22
(I0
tp5123
g24
tp5124
Rp5125
(I1
(I3
tp5126
g307
I00
S'r\xb4\xd66\xb5:\xe6?4\xd2\xb3\xd8Ho\x1f\xc0\x0f\xf8\x05\x85\xe9\x10\x00@'
p5127
tp5128
bag21
(g22
(I0
tp5129
g24
tp5130
Rp5131
(I1
(I3
tp5132
g307
I00
S'\xdb\xee8\xd0\xa2\xfd\xc5?\xb2\x0e(\xac\xe3\xcd\x1d\xc0a\xbax\xf1*\x16\x01@'
p5133
tp5134
bag21
(g22
(I0
tp5135
g24
tp5136
Rp5137
(I1
(I3
tp5138
g307
I00
S'\xc0T\xe2\x97\xaf3h\xbfv\xa30\xd5\xeb\xd1\x1a\xc0\x8a\rz\xc6\xa6z\x04@'
p5139
tp5140
bag21
(g22
(I0
tp5141
g24
tp5142
Rp5143
(I1
(I3
tp5144
g307
I00
S'\x0c\x8b\xaa\xe9\xe8%\xb0\xbf\xf7\x05\x80\xfb=|\x18\xc0X\xd6!\xf5\xa2\x12\x07@'
p5145
tp5146
bag21
(g22
(I0
tp5147
g24
tp5148
Rp5149
(I1
(I3
tp5150
g307
I00
S'\xe4\x02R\xd9\x08\x8c\xc7?2\xc1\xd4;\xf6\xf3\x15\xc0>\x8c\x8fa?0\xd8?'
p5151
tp5152
bag21
(g22
(I0
tp5153
g24
tp5154
Rp5155
(I1
(I3
tp5156
g307
I00
S'\xcc\x87!\x1f\xfb\x05\xe6?\x14;\x08\xf1<\xc6\x13\xc0V!\xac1j\x94\xc8?'
p5157
tp5158
bag21
(g22
(I0
tp5159
g24
tp5160
Rp5161
(I1
(I3
tp5162
g307
I00
S'`\xc8Aw-\x81\xeb?/\xc3\xe6O\x04\xca\x10\xc0\x8a\xb7K)\x91{\xe4\xbf'
p5163
tp5164
bag21
(g22
(I0
tp5165
g24
tp5166
Rp5167
(I1
(I3
tp5168
g307
I00
S'\xe1\xc6\xc7\xa7\x12X\xe7?\x98\x99\xb0\x9a\xfb\xdb\x0b\xc0R\t\x1b)\xeae\xe0\xbf'
p5169
tp5170
bag21
(g22
(I0
tp5171
g24
tp5172
Rp5173
(I1
(I3
tp5174
g307
I00
S'p\xf1\xbdc^\x84\xf1?"\x88LL\xf9D\x06\xc0~w\r\xe9m\x0f\x19@'
p5175
tp5176
bas(g3539
g1349
tp5177
(lp5178
g21
(g22
(I0
tp5179
g24
tp5180
Rp5181
(I1
(I3
tp5182
g296
I00
S'\x06\x05%\x16=\xc1\xef?\x8a\x7f\xf5\xdf\xa3\x8b\x16\xc0\x9b\xb4\xe2\x99\xc0\xe8\xc1?'
p5183
tp5184
bas(g3539
g287
tp5185
g3481
s(g86
g287
tp5186
(lp5187
g21
(g22
(I0
tp5188
g24
tp5189
Rp5190
(I1
(I3
tp5191
g296
I00
S'\xa0\xfa\x0b\n\xc7\xc8\xc7?X\x13\xeeu\xba\x87\x18\xc0k\x817\xc3\xcbW\xe2?'
p5192
tp5193
bag21
(g22
(I0
tp5194
g24
tp5195
Rp5196
(I1
(I3
tp5197
g307
I00
S'\xe4\x02R\xd9\x08\x8c\xc7?2\xc1\xd4;\xf6\xf3\x15\xc0>\x8c\x8fa?0\xd8?'
p5198
tp5199
bag21
(g22
(I0
tp5200
g24
tp5201
Rp5202
(I1
(I3
tp5203
g307
I00
S'\xcc\x87!\x1f\xfb\x05\xe6?\x14;\x08\xf1<\xc6\x13\xc0V!\xac1j\x94\xc8?'
p5204
tp5205
bag21
(g22
(I0
tp5206
g24
tp5207
Rp5208
(I1
(I3
tp5209
g307
I00
S'`\xc8Aw-\x81\xeb?/\xc3\xe6O\x04\xca\x10\xc0\x8a\xb7K)\x91{\xe4\xbf'
p5210
tp5211
bag21
(g22
(I0
tp5212
g24
tp5213
Rp5214
(I1
(I3
tp5215
g307
I00
S'\xe1\xc6\xc7\xa7\x12X\xe7?\x98\x99\xb0\x9a\xfb\xdb\x0b\xc0R\t\x1b)\xeae\xe0\xbf'
p5216
tp5217
bag21
(g22
(I0
tp5218
g24
tp5219
Rp5220
(I1
(I3
tp5221
g307
I00
S'p\xf1\xbdc^\x84\xf1?"\x88LL\xf9D\x06\xc0~w\r\xe9m\x0f\x19@'
p5222
tp5223
bas(g3538
g287
tp5224
(lp5225
g21
(g22
(I0
tp5226
g24
tp5227
Rp5228
(I1
(I3
tp5229
g296
I00
S'\xa06\xe0\x9ctU\xcc?\x1c2~;K\xa7\x15\xc0j\x18ib\xa9\xac\x08@'
p5230
tp5231
bag21
(g22
(I0
tp5232
g24
tp5233
Rp5234
(I1
(I3
tp5235
g307
I00
S'&>c9\x01,\xeb?\xb2\xc2\xf0\x02\xce\x8e\x14\xc0\xd8p\xbb2\x14\xd2\x03@'
p5236
tp5237
bag21
(g22
(I0
tp5238
g24
tp5239
Rp5240
(I1
(I3
tp5241
g307
I00
S'\x97\xff-a\x91r\xf0?\x1a\x15\xfe\xb9:\x1b\x12\xc0\nG\xfe\xfa~y\x05@'
p5242
tp5243
bag21
(g22
(I0
tp5244
g24
tp5245
Rp5246
(I1
(I3
tp5247
g307
I00
S"M\xd6\xa3`\xc0H\xe6?\xcbR\xfc\xee\xb5'\x10\xc0\x08B\x8eh>\x9e\x08@"
p5248
tp5249
bag21
(g22
(I0
tp5250
g24
tp5251
Rp5252
(I1
(I3
tp5253
g307
I00
S'3z\xed\x8eN)\xe4?\x0c\x96\xd4\xa2\x0e\xd0\r\xc0\xbd%\xf5{\xe9\xf9\x03@'
p5254
tp5255
bag21
(g22
(I0
tp5256
g24
tp5257
Rp5258
(I1
(I3
tp5259
g307
I00
S'\xaf0\xe9h\xba~\xee?k\xbb\xd8\xd4\xd0g\t\xc09\x9ey\xed\xb06\x06@'
p5260
tp5261
bag21
(g22
(I0
tp5262
g24
tp5263
Rp5264
(I1
(I3
tp5265
g307
I00
S'\xf4\xfdJ\x1a(#\xec?H"\x9cD\x1aE\x05\xc0.\xa9\x0b\x87\xf8\xe1\x02@'
p5266
tp5267
bas(g3538
g1349
tp5268
(lp5269
g21
(g22
(I0
tp5270
g24
tp5271
Rp5272
(I1
(I3
tp5273
g296
I00
S'z6\xe0\x9ctU\xcc?\x1c2~;K\xa7\x15\xc0j\x18ib\xa9\xac\x08@'
p5274
tp5275
bas(g3541
g1349
tp5276
(lp5277
g21
(g22
(I0
tp5278
g24
tp5279
Rp5280
(I1
(I3
tp5281
g296
I00
S'\xd16Z\xe8L\xb1\x06@mEh~\xf54\x19\xc0\xf3\xd5\x80>X\x96\x12@'
p5282
tp5283
bas(g86
g1349
tp5284
(lp5285
g21
(g22
(I0
tp5286
g24
tp5287
Rp5288
(I1
(I3
tp5289
g296
I00
S'\x89\xfa\x0b\n\xc7\xc8\xc7?X\x13\xeeu\xba\x87\x18\xc0l\x817\xc3\xcbW\xe2?'
p5290
tp5291
bas(g3537
g1349
tp5292
(lp5293
g21
(g22
(I0
tp5294
g24
tp5295
Rp5296
(I1
(I3
tp5297
g296
I00
S'\xec._\x02\xc9\x7f\xea?\x9e\xc0\xec\x8ax|\x18\xc0\xa6\xc8\x1d-\xff\xaf\x11@'
p5298
tp5299
bas(g3537
g287
tp5300
g3331
s(g3640
g287
tp5301
g3425
ssg2725
(dp5302
(g477
g336
tp5303
g2821
s(g286
g286
tp5304
g2827
s(g286
g567
tp5305
g2825
s(g636
g636
tp5306
g3015
s(g636
g567
tp5307
g2829
s(g287
g636
tp5308
g3025
s(g336
g636
tp5309
g2833
s(g477
g438
tp5310
g2835
s(g510
g286
tp5311
g2837
s(g636
g1349
tp5312
g2841
s(g510
g567
tp5313
g2873
s(g1352
g477
tp5314
g2999
s(g438
g287
tp5315
g2857
s(g1352
g636
tp5316
g2859
s(g636
g336
tp5317
g2861
s(g286
g1352
tp5318
g2863
s(g477
g477
tp5319
g2865
s(g1352
g336
tp5320
g2963
s(g567
g636
tp5321
g2869
s(g636
g287
tp5322
g2871
s(g1352
g1349
tp5323
g2851
s(g438
g438
tp5324
g2877
s(g636
g1352
tp5325
g2879
s(g1349
g567
tp5326
g2883
s(g636
g477
tp5327
g3013
s(g1349
g286
tp5328
g2885
s(g567
g287
tp5329
g2887
s(g567
g510
tp5330
g2893
s(g1352
g287
tp5331
g2897
s(g438
g636
tp5332
g2899
s(g1352
g567
tp5333
g2903
s(g567
g1352
tp5334
g2905
s(g286
g477
tp5335
g2907
s(g336
g438
tp5336
g2909
s(g286
g636
tp5337
g2911
s(g336
g287
tp5338
g2913
s(g1352
g1352
tp5339
g2915
s(g636
g286
tp5340
g2831
s(g336
g1352
tp5341
g3047
s(g287
g438
tp5342
g2921
s(g510
g1349
tp5343
g2923
s(g287
g510
tp5344
g2925
s(g336
g286
tp5345
g2927
s(g286
g438
tp5346
g2929
s(g567
g1349
tp5347
g2931
s(g286
g510
tp5348
g2933
s(g567
g567
tp5349
g2935
s(g510
g636
tp5350
g2937
s(g1349
g287
tp5351
g2939
s(g287
g477
tp5352
g2941
s(g1352
g510
tp5353
g2945
s(g287
g336
tp5354
g2947
s(g477
g567
tp5355
g3033
s(g510
g1352
tp5356
g2951
s(g336
g1349
tp5357
g2953
s(g510
g477
tp5358
g2955
s(g1349
g477
tp5359
g2867
s(g1349
g636
tp5360
g2881
s(g510
g287
tp5361
g2967
s(g477
g510
tp5362
g2969
s(g438
g510
tp5363
g2971
s(g1349
g1349
tp5364
g2975
s(g438
g567
tp5365
g2979
s(g1349
g438
tp5366
g2981
s(g1349
g510
tp5367
g2985
s(g438
g1352
tp5368
g2987
s(g477
g636
tp5369
g2989
s(g286
g287
tp5370
g2991
s(g636
g438
tp5371
g2997
s(g1349
g336
tp5372
g2855
s(g636
g510
tp5373
g3001
s(g567
g477
tp5374
g3003
s(g477
g1349
tp5375
g3005
s(g510
g510
tp5376
g3007
s(g336
g477
tp5377
g3009
s(g438
g336
tp5378
g3011
s(g287
g567
tp5379
g2973
s(g287
g286
tp5380
g2961
s(g336
g510
tp5381
g3017
s(g477
g287
tp5382
g3019
s(g567
g438
tp5383
g3021
s(g286
g1349
tp5384
g3023
s(g510
g438
tp5385
g3027
s(g287
g1349
tp5386
g3031
s(g286
g336
tp5387
g2949
s(g1352
g286
tp5388
g3035
s(g477
g1352
tp5389
g3037
s(g567
g286
tp5390
g3039
s(g287
g287
tp5391
g3041
s(g510
g336
tp5392
g3043
s(g438
g477
tp5393
g2919
s(g287
g1352
tp5394
g3049
s(g567
g336
tp5395
g3053
s(g336
g567
tp5396
g3055
s(g477
g286
tp5397
g2977
s(g1349
g1352
tp5398
g3059
s(g438
g286
tp5399
g3061
s(g336
g336
tp5400
g3065
s(g438
g1349
tp5401
g3067
s(g1352
g438
tp5402
g3069
ssg2727
(dp5403
g1352
(lp5404
I0
aI0
aI0
aI0
aI0
aI0
aI00
aI01
aI00
aI01
aI00
asg1349
(lp5405
I0
aI0
aI0
aI0
aI0
aI0
aI00
aI01
aI00
aI01
aI00
asg287
(lp5406
I0
aI0
aI0
aI0
aI0
aI0
aI00
aI01
aI01
aI01
aI00
asg399
(lp5407
I0
aI0
aI0
ag2046
(g296
S'HPXy\xf3\x08\x06@'
p5408
tp5409
Rp5410
ag2046
(g296
S'A\x04\x98\x8d>\x0c\x17\xc0'
p5411
tp5412
Rp5413
ag2046
(g296
S'\xde\xa3\xe8\x9el\xce\x08@'
p5414
tp5415
Rp5416
aI01
aI00
aI00
aI01
aI00
asg636
(lp5417
I0
aI0
aI0
ag2046
(g296
S'\xf9\xe5\xf8\xa8\x93\xf5\xe9?'
p5418
tp5419
Rp5420
ag2046
(g296
S'\xe5\xc5X\xc3\xefR\x1b\xc0'
p5421
tp5422
Rp5423
ag2046
(g296
S'\x9bIld=\x06\x18@'
p5424
tp5425
Rp5426
aI01
aI00
aI00
aI01
aI00
asg286
(lp5427
I0
aI0
aI0
ag2046
(g296
S'\x14T\x16\x965\x90\xdb\xbf'
p5428
tp5429
Rp5430
ag2046
(g296
S'\x863\xc3\xa2r\xb3\x15\xc0'
p5431
tp5432
Rp5433
ag2046
(g296
S'\x90\t\xa9c\xbc)\xfa?'
p5434
tp5435
Rp5436
aI01
aI00
aI00
aI01
aI00
asg510
(lp5437
I0
aI0
aI0
ag2046
(g296
S'6\x94\x80e\xc8\xdb\x0c@'
p5438
tp5439
Rp5440
ag2046
(g296
S'H\x1e\x97m\xa4\xce\x17\xc0'
p5441
tp5442
Rp5443
ag2046
(g296
S'\x10\xef\xe6.nD\x11@'
p5444
tp5445
Rp5446
aI01
aI00
aI00
aI00
aI00
asg477
(lp5447
I0
aI0
aI0
ag2046
(g296
S'\xd1\x90\xd1\xf8x\xf5\xf9?'
p5448
tp5449
Rp5450
ag2046
(g296
S'J\x0f8\x8d\xa7,\x15\xc0'
p5451
tp5452
Rp5453
ag2046
(g296
S'q\xef\xd9\xe9\x0c\xfa\xfb?'
p5454
tp5455
Rp5456
aI01
aI00
aI00
aI01
aI00
asg567
(lp5457
I0
aI0
aI0
ag2046
(g296
S'\x1d\xcc\x80\xf8\xbb\xe3\x0e@'
p5458
tp5459
Rp5460
ag2046
(g296
S'Na@\x88]\x90\x1d\xc0'
p5461
tp5462
Rp5463
ag2046
(g296
S':\x18F\x9bzC\xf3?'
p5464
tp5465
Rp5466
aI01
aI00
aI00
aI01
aI00
asg438
(lp5467
I0
aI0
aI0
ag2046
(g296
S'\xba\x9f\x1e\x18h\x02\xf0?'
p5468
tp5469
Rp5470
ag2046
(g296
S'\x05z-Q\xe7;\x18\xc0'
p5471
tp5472
Rp5473
ag2046
(g296
S'\xb0\xa1\n^\x118\x0b@'
p5474
tp5475
Rp5476
aI01
aI00
aI01
aI01
aI00
asg336
(lp5477
I0
aI0
aI0
ag2046
(g296
S'\xd7\xf6\xbf\x17p\x0c\x08@'
p5478
tp5479
Rp5480
ag2046
(g296
S'A\xc8\xaf\xd1\xabZ\x1c\xc0'
p5481
tp5482
Rp5483
ag2046
(g296
S'~\x85/KP5\x13@'
p5484
tp5485
Rp5486
aI01
aI00
aI00
aI01
aI00
assg2812
(dp5487
sg2814
g153
sg2815
g2816
sg2818
(dp5488
(g477
g336
tp5489
(lp5490
I00
aI00
aI00
as(g477
g399
tp5491
(lp5492
I00
aI00
aI00
as(g286
g567
tp5493
(lp5494
I00
aI00
aI00
as(g286
g286
tp5495
(lp5496
I00
aI00
aI00
as(g636
g567
tp5497
(lp5498
I00
aI00
aI00
as(g636
g286
tp5499
(lp5500
I00
aI00
aI00
as(g336
g636
tp5501
(lp5502
I00
aI00
aI00
as(g477
g438
tp5503
(lp5504
I00
aI00
aI00
as(g510
g286
tp5505
(lp5506
I00
aI00
aI00
as(g399
g399
tp5507
(lp5508
I00
aI00
aI00
as(g636
g1349
tp5509
(lp5510
g2849
aI00
aI01
as(g1352
g1349
tp5511
(lp5512
I00
aI00
aI00
as(g399
g336
tp5513
(lp5514
I00
aI00
aI00
as(g1349
g336
tp5515
(lp5516
I00
aI00
aI00
as(g438
g287
tp5517
(lp5518
I00
aI00
aI01
as(g1352
g636
tp5519
(lp5520
I00
aI00
aI00
as(g636
g336
tp5521
(lp5522
I00
aI00
aI00
as(g286
g1352
tp5523
(lp5524
g2849
aI00
aI00
as(g477
g477
tp5525
(lp5526
I00
aI00
aI00
as(g1349
g477
tp5527
(lp5528
I00
aI00
aI00
as(g567
g636
tp5529
(lp5530
I00
aI00
aI00
as(g636
g287
tp5531
(lp5532
I00
aI00
aI00
as(g510
g567
tp5533
(lp5534
I00
aI00
aI00
as(g399
g510
tp5535
(lp5536
I00
aI01
aI00
as(g438
g438
tp5537
(lp5538
I00
aI00
aI00
as(g636
g1352
tp5539
(lp5540
g2849
aI00
aI00
as(g1349
g636
tp5541
(lp5542
I00
aI00
aI00
as(g1349
g567
tp5543
(lp5544
I00
aI00
aI00
as(g1349
g286
tp5545
(lp5546
I00
aI00
aI00
as(g567
g287
tp5547
(lp5548
I00
aI00
aI01
as(g336
g399
tp5549
(lp5550
I00
aI00
aI00
as(g510
g399
tp5551
(lp5552
I00
aI00
aI00
as(g567
g510
tp5553
(lp5554
I00
aI00
aI00
as(g1349
g399
tp5555
(lp5556
I00
aI00
aI00
as(g1352
g287
tp5557
(lp5558
I00
aI00
aI00
as(g438
g636
tp5559
(lp5560
I00
aI00
aI00
as(g399
g567
tp5561
(lp5562
I00
aI00
aI00
as(g1352
g567
tp5563
(lp5564
I00
aI00
aI00
as(g567
g1352
tp5565
(lp5566
g2849
aI00
aI00
as(g286
g477
tp5567
(lp5568
I00
aI00
aI00
as(g336
g438
tp5569
(lp5570
I00
aI00
aI00
as(g286
g636
tp5571
(lp5572
I00
aI00
aI00
as(g336
g287
tp5573
(lp5574
I00
aI00
aI00
as(g1352
g1352
tp5575
(lp5576
I00
aI00
aI00
as(g567
g399
tp5577
(lp5578
I00
aI00
aI00
as(g438
g477
tp5579
(lp5580
I00
aI00
aI00
as(g287
g438
tp5581
(lp5582
I00
aI00
aI00
as(g510
g1349
tp5583
(lp5584
g2849
aI00
aI01
as(g287
g510
tp5585
(lp5586
I00
aI00
aI00
as(g336
g286
tp5587
(lp5588
I00
aI00
aI00
as(g286
g438
tp5589
(lp5590
I00
aI00
aI00
as(g567
g1349
tp5591
(lp5592
g2849
aI00
aI01
as(g286
g510
tp5593
(lp5594
I00
aI00
aI00
as(g567
g567
tp5595
(lp5596
I00
aI00
aI00
as(g510
g636
tp5597
(lp5598
I00
aI00
aI00
as(g1349
g287
tp5599
(lp5600
I00
aI00
aI00
as(g287
g477
tp5601
(lp5602
I00
aI00
aI00
as(g399
g287
tp5603
(lp5604
I00
aI00
aI00
as(g1352
g510
tp5605
(lp5606
I00
aI00
aI00
as(g287
g336
tp5607
(lp5608
I00
aI00
aI00
as(g286
g336
tp5609
(lp5610
I00
aI00
aI00
as(g510
g1352
tp5611
(lp5612
g2849
aI00
aI00
as(g336
g1349
tp5613
(lp5614
g2849
aI00
aI01
as(g510
g477
tp5615
(lp5616
I00
aI00
aI00
as(g399
g636
tp5617
(lp5618
I00
aI00
aI00
as(g399
g1349
tp5619
(lp5620
g2849
aI00
aI01
as(g287
g286
tp5621
(lp5622
I00
aI00
aI00
as(g1352
g336
tp5623
(lp5624
I00
aI00
aI00
as(g1352
g399
tp5625
(lp5626
I00
aI00
aI00
as(g510
g287
tp5627
(lp5628
I00
aI00
aI00
as(g477
g510
tp5629
(lp5630
I00
aI00
aI00
as(g438
g510
tp5631
(lp5632
I00
aI00
aI00
as(g287
g567
tp5633
(lp5634
I00
aI00
aI00
as(g1349
g1349
tp5635
(lp5636
I00
aI00
aI00
as(g477
g286
tp5637
(lp5638
I00
aI00
aI00
as(g438
g567
tp5639
(lp5640
I00
aI00
aI00
as(g1349
g438
tp5641
(lp5642
I00
aI00
aI00
as(g636
g399
tp5643
(lp5644
I00
aI00
aI00
as(g1349
g510
tp5645
(lp5646
I00
aI00
aI00
as(g438
g1352
tp5647
(lp5648
g2849
aI00
aI00
as(g477
g636
tp5649
(lp5650
I00
aI00
aI00
as(g286
g287
tp5651
(lp5652
I00
aI00
aI01
as(g438
g399
tp5653
(lp5654
I00
aI00
aI00
as(g399
g438
tp5655
(lp5656
I00
aI00
aI00
as(g636
g438
tp5657
(lp5658
I00
aI00
aI00
as(g1352
g477
tp5659
(lp5660
I00
aI00
aI00
as(g636
g510
tp5661
(lp5662
I00
aI00
aI00
as(g567
g477
tp5663
(lp5664
I00
aI00
aI00
as(g477
g1349
tp5665
(lp5666
g2849
aI00
aI01
as(g510
g510
tp5667
(lp5668
I00
aI00
aI00
as(g336
g477
tp5669
(lp5670
I00
aI00
aI00
as(g438
g336
tp5671
(lp5672
I00
aI00
aI00
as(g636
g477
tp5673
(lp5674
I00
aI00
aI00
as(g636
g636
tp5675
(lp5676
I00
aI00
aI00
as(g336
g510
tp5677
(lp5678
I00
aI00
aI00
as(g477
g287
tp5679
(lp5680
I00
aI00
aI00
as(g567
g438
tp5681
(lp5682
I00
aI00
aI00
as(g286
g1349
tp5683
(lp5684
g2849
aI00
aI01
as(g287
g636
tp5685
(lp5686
I00
aI00
aI00
as(g510
g438
tp5687
(lp5688
I00
aI00
aI00
as(g399
g286
tp5689
(lp5690
I00
aI00
aI00
as(g287
g1349
tp5691
(lp5692
I00
aI00
aI00
as(g477
g567
tp5693
(lp5694
I00
aI00
aI00
as(g1352
g286
tp5695
(lp5696
I00
aI00
aI00
as(g477
g1352
tp5697
(lp5698
g2849
aI00
aI00
as(g567
g286
tp5699
(lp5700
I00
aI00
aI00
as(g287
g287
tp5701
(lp5702
I00
aI00
aI00
as(g510
g336
tp5703
(lp5704
I00
aI00
aI00
as(g399
g1352
tp5705
(lp5706
g2849
aI00
aI00
as(g336
g1352
tp5707
(lp5708
g2849
aI00
aI00
as(g287
g1352
tp5709
(lp5710
I00
aI00
aI00
as(g287
g399
tp5711
(lp5712
I00
aI00
aI00
as(g567
g336
tp5713
(lp5714
I00
aI00
aI00
as(g336
g567
tp5715
(lp5716
I00
aI00
aI00
as(g286
g399
tp5717
(lp5718
I00
aI00
aI00
as(g1349
g1352
tp5719
(lp5720
I00
aI00
aI00
as(g438
g286
tp5721
(lp5722
I00
aI00
aI00
as(g399
g477
tp5723
(lp5724
I00
aI00
aI00
as(g336
g336
tp5725
(lp5726
I00
aI00
aI00
as(g438
g1349
tp5727
(lp5728
g2849
aI00
aI01
as(g1352
g438
tp5729
(lp5730
I00
aI00
aI00
assg711
g3535
sg3070
(itrajectory_representation.predicates.pick_in_way
PickInWay
p5731
(dp5732
g284
(dp5733
g399
g4075
sg636
g4082
sg286
g4101
sg510
g4150
sg477
g4169
sg567
g4224
sg438
g3651
sg336
g4249
ssg675
(dp5734
g399
(lp5735
sg636
(lp5736
sg286
(lp5737
sg510
(lp5738
Vrectangular_packing_box4
p5739
asg477
(lp5740
sg567
(lp5741
sg438
(lp5742
sg336
(lp5743
ssg711
(lp5744
g477
ag636
ag567
ag286
ag336
ag399
ag1352
ag287
ag1349
ag438
ag1352
ag287
ag1349
ag1352
ag287
ag1349
ag1352
ag287
ag1349
ag1352
ag287
ag1349
ag1352
ag287
ag1349
ag1352
ag287
ag1349
ag1352
ag287
ag1349
asg717
g3542
sg155
(dp5745
sg752
g3554
sg1277
Nsg1283
g3554
sg1280
(dp5746
sg1282
I8
sg1344
I01
sg1284
Nsg1285
(dp5747
(g477
g336
tp5748
I00
s(g477
g399
tp5749
I00
s(g286
g567
tp5750
I00
s(g286
g286
tp5751
I00
s(g636
g567
tp5752
I00
s(g636
g286
tp5753
I00
s(g336
g636
tp5754
I00
s(g477
g438
tp5755
I00
s(g510
g286
tp5756
I00
s(g399
g399
tp5757
I00
s(g636
g1349
tp5758
I00
s(g1352
g1349
tp5759
I00
s(g399
g336
tp5760
I00
s(g1349
g336
tp5761
I00
s(g438
g287
tp5762
I00
s(g1352
g636
tp5763
I00
s(g636
g336
tp5764
I00
s(g286
g1352
tp5765
I00
s(g477
g477
tp5766
I00
s(g1349
g477
tp5767
I00
s(g567
g636
tp5768
I00
s(g636
g287
tp5769
I00
s(g510
g567
tp5770
I00
s(g399
g510
tp5771
I01
s(g438
g438
tp5772
I00
s(g636
g1352
tp5773
I00
s(g1349
g636
tp5774
I00
s(g1349
g567
tp5775
I00
s(g1349
g286
tp5776
I00
s(g567
g287
tp5777
I00
s(g336
g399
tp5778
I00
s(g510
g399
tp5779
I00
s(g567
g510
tp5780
I00
s(g1349
g399
tp5781
I00
s(g1352
g287
tp5782
I00
s(g438
g636
tp5783
I00
s(g399
g567
tp5784
I00
s(g1352
g567
tp5785
I00
s(g567
g1352
tp5786
I00
s(g286
g477
tp5787
I00
s(g336
g438
tp5788
I00
s(g286
g636
tp5789
I00
s(g336
g287
tp5790
I00
s(g1352
g1352
tp5791
I00
s(g567
g399
tp5792
I00
s(g438
g477
tp5793
I00
s(g287
g438
tp5794
I00
s(g510
g1349
tp5795
I00
s(g287
g510
tp5796
I00
s(g336
g286
tp5797
I00
s(g286
g438
tp5798
I00
s(g567
g1349
tp5799
I00
s(g286
g510
tp5800
I00
s(g567
g567
tp5801
I00
s(g510
g636
tp5802
I00
s(g1349
g287
tp5803
I00
s(g287
g477
tp5804
I00
s(g399
g287
tp5805
I00
s(g1352
g510
tp5806
I00
s(g287
g336
tp5807
I00
s(g286
g336
tp5808
I00
s(g510
g1352
tp5809
I00
s(g336
g1349
tp5810
I00
s(g510
g477
tp5811
I00
s(g399
g636
tp5812
I00
s(g399
g1349
tp5813
I00
s(g287
g286
tp5814
I00
s(g1352
g336
tp5815
I00
s(g1352
g399
tp5816
I00
s(g510
g287
tp5817
I00
s(g477
g510
tp5818
I00
s(g438
g510
tp5819
I00
s(g287
g567
tp5820
I00
s(g1349
g1349
tp5821
I00
s(g477
g286
tp5822
I00
s(g438
g567
tp5823
I00
s(g1349
g438
tp5824
I00
s(g636
g399
tp5825
I00
s(g1349
g510
tp5826
I00
s(g438
g1352
tp5827
I00
s(g477
g636
tp5828
I00
s(g286
g287
tp5829
I00
s(g438
g399
tp5830
I00
s(g399
g438
tp5831
I00
s(g636
g438
tp5832
I00
s(g1352
g477
tp5833
I00
s(g636
g510
tp5834
I00
s(g567
g477
tp5835
I00
s(g477
g1349
tp5836
I00
s(g510
g510
tp5837
I00
s(g336
g477
tp5838
I00
s(g438
g336
tp5839
I00
s(g636
g477
tp5840
I00
s(g636
g636
tp5841
I00
s(g336
g510
tp5842
I00
s(g477
g287
tp5843
I00
s(g567
g438
tp5844
I00
s(g286
g1349
tp5845
I00
s(g287
g636
tp5846
I00
s(g510
g438
tp5847
I00
s(g399
g286
tp5848
I00
s(g287
g1349
tp5849
I00
s(g477
g567
tp5850
I00
s(g1352
g286
tp5851
I00
s(g477
g1352
tp5852
I00
s(g567
g286
tp5853
I00
s(g287
g287
tp5854
I00
s(g510
g336
tp5855
I00
s(g399
g1352
tp5856
I00
s(g336
g1352
tp5857
I00
s(g287
g1352
tp5858
I00
s(g287
g399
tp5859
I00
s(g567
g336
tp5860
I00
s(g336
g567
tp5861
I00
s(g286
g399
tp5862
I00
s(g1349
g1352
tp5863
I00
s(g438
g286
tp5864
I00
s(g399
g477
tp5865
I00
s(g336
g336
tp5866
I00
s(g438
g1349
tp5867
I00
s(g1352
g438
tp5868
I00
ssg1343
Nsbsg3214
g21
(g22
(I0
tp5869
g24
tp5870
Rp5871
(I1
(I1
I3
tp5872
g296
I00
S'\x80\xe5\x19\x10\x94j\x04@\xa0t\xbe\xf9\x1d\xf6\x19\xc0\xd6\x9dL^\xaa\xe9\xf9?'
p5873
tp5874
bsg3221
(itrajectory_representation.predicates.is_holding_goal_entity
IsHoldingGoalEntity
p5875
(dp5876
g2815
g2816
sg1284
Nsbsg3224
(dp5877
sg3226
g3542
sbasS'seed'
p5878
NsS'state_prime'
p5879
(lp5880
g3227
asS'problem_idx'
p5881
I148
sb.