(itrajectory_representation.trajectory
Trajectory
p0
(dp1
S'rewards'
p2
(lp3
I-1
aI10
asS'actions'
p4
(lp5
(itrajectory_representation.operator
Operator
p6
(dp7
S'is_skeleton'
p8
I00
sS'discrete_parameters'
p9
(dp10
S'object'
p11
Vsquare_packing_box4
p12
sS'two_arm_place_region'
p13
S'loading_region'
p14
sS'two_arm_place_object'
p15
g12
ssS'type'
p16
S'two_arm_pick_two_arm_place'
p17
sS'continuous_parameters'
p18
(dp19
S'q_goal'
p20
cnumpy.core.multiarray
_reconstruct
p21
(cnumpy
ndarray
p22
(I0
tp23
S'b'
p24
tp25
Rp26
(I1
(I3
tp27
cnumpy
dtype
p28
(S'f8'
p29
I0
I1
tp30
Rp31
(I3
S'<'
p32
NNNI-1
I-1
I0
tp33
bI00
S'\xcb\x03:\x15[\xc1\xf4?\xd9\xbeC\xa0\xfe; \xc0\xb2\x1cX\x99\x9f5\xfc?'
p34
tp35
bsS'place'
p36
(dp37
g20
g21
(g22
(I0
tp38
g24
tp39
Rp40
(I1
(I3
tp41
g31
I00
S'\x08\xdd\x96K\xa5\x1b\xf3?\xca\x8e$\x9d\xc2|\x1d\xc0\xbfa5\x0c\xa6\x93\x06@'
p42
tp43
bssS'pick'
p44
(dp45
g20
g26
sssS'low_level_motion'
p46
(lp47
g21
(g22
(I0
tp48
g24
tp49
Rp50
(I1
(I3
tp51
g31
I00
S'8b>\xf1\xa9]\xe1?\x1f-I\xc4\xaeB \xc0\xb2\xaa/L\x8f\\\xf7?'
p52
tp53
bag26
ag26
asba(itrajectory_representation.operator
Operator
p54
(dp55
g8
I00
sg9
(dp56
g11
Vsquare_packing_box1
p57
sS'two_arm_place_region'
p58
S'home_region'
p59
sS'two_arm_place_object'
p60
g57
ssg16
S'two_arm_pick_two_arm_place'
p61
sg18
(dp62
g20
g21
(g22
(I0
tp63
g24
tp64
Rp65
(I1
(I3
tp66
g31
I00
S'\x91\x86\xcf\x98\x85\xd9\xfd?\x0f9\x93 \x92W\x16\xc0\x7fJ\xc1\xb2\x1b\xda\x06@'
p67
tp68
bsg36
(dp69
g20
g21
(g22
(I0
tp70
g24
tp71
Rp72
(I1
(I3
tp73
g31
I00
S'\xa0\xaa\x17\xe4\xb6*\xfc?\xa43\x99D]\xa2\x02\xc0~\xc1\x94<=\xcf\xc0\xbf'
p74
tp75
bssg44
(dp76
g20
g65
sssg46
(lp77
g21
(g22
(I0
tp78
g24
tp79
Rp80
(I1
(I3
tp81
g31
I00
S'\x10\xdd\x96K\xa5\x1b\xf3?\xcb\x8e$\x9d\xc2|\x1d\xc0\xbfa5\x0c\xa6\x93\x06@'
p82
tp83
bag21
(g22
(I0
tp84
g24
tp85
Rp86
(I1
(I3
tp87
g28
(S'f8'
p88
I0
I1
tp89
Rp90
(I3
S'<'
p91
NNNI-1
I-1
I0
tp92
bI00
S'zNu~${\xfb?c\xfe\x8c\xbf\x1f\xab\x1b\xc0\x9b\xbb\x05m\x02\x02\x07@'
p93
tp94
bag21
(g22
(I0
tp95
g24
tp96
Rp97
(I1
(I3
tp98
g90
I00
S'\xf60LV\xe8\x96\x00@\x9aEw{a\xe2\x18\xc0^\xa8\x8a,\xa3\x98\x00@'
p99
tp100
bag65
ag65
asbasS'filename'
p101
S''
p102
sS'states'
p103
(lp104
(itrajectory_representation.shortest_path_pick_and_place_state
ShortestPathPaPState
p105
(dp106
S'place_used'
p107
(dp108
(Vsquare_packing_box1
p109
g59
tp110
(itrajectory_representation.operator
Operator
p111
(dp112
g8
I01
sg9
(dp113
S'region'
p114
g59
sg11
g109
ssg16
S'two_arm_place'
p115
sg18
(dp116
g20
g21
(g22
(I0
tp117
g24
tp118
Rp119
(I1
(I3
tp120
g31
I00
S'\xa0\xaa\x17\xe4\xb6*\xfc?\xa43\x99D]\xa2\x02\xc0~\xc1\x94<=\xcf\xc0\xbf'
p121
tp122
bssg46
(lp123
g21
(g22
(I0
tp124
g24
tp125
Rp126
(I1
(I3
tp127
g31
I00
S'n\x86\xcf\x98\x85\xd9\xfd?\x029\x93 \x92W\x16\xc0\x7fJ\xc1\xb2\x1b\xda\x06@'
p128
tp129
bag21
(g22
(I0
tp130
g24
tp131
Rp132
(I1
(I3
tp133
g90
I00
S'\xf60LV\xe8\x96\x00@\x9aEw{a\xe2\x18\xc0^\xa8\x8a,\xa3\x98\x00@'
p134
tp135
bag21
(g22
(I0
tp136
g24
tp137
Rp138
(I1
(I3
tp139
g90
I00
S'\xea\x04A\xf2\x01I\xfa?\x9c\x92\xbb\x02I\xd2\x16\xc0\x1c>3\n\x88\xda\x14@'
p140
tp141
bag21
(g22
(I0
tp142
g24
tp143
Rp144
(I1
(I3
tp145
g90
I00
S'\xd0\xcb\x13\x8f\xaa\x9d\xed?\x90\x01<]3\x06\x16\xc0F\xf1\xe7x32\x02\xc0'
p146
tp147
bag21
(g22
(I0
tp148
g24
tp149
Rp150
(I1
(I3
tp151
g90
I00
S'l[\xc4\x16<\xe6\xe9?\xa6\xa0\x90\x84X\x9f\x13\xc0\xc2\xd74Q\x00\xaf\xff\xbf'
p152
tp153
bag21
(g22
(I0
tp154
g24
tp155
Rp156
(I1
(I3
tp157
g90
I00
S"\xaeJ\xbd\x1936\xec?\x04\x13\xd4'\x9f\x88\x10\xc0\x805qo\xb6\xe6\xff\xbf"
p158
tp159
bag21
(g22
(I0
tp160
g24
tp161
Rp162
(I1
(I3
tp163
g90
I00
S'\xf09\xb6\x1c*\x86\xee?\xc4\n/\x96\xcb\xe3\n\xc0\xa0\xc9\xd6F6\x0f\x00\xc0'
p164
tp165
bag21
(g22
(I0
tp166
g24
tp167
Rp168
(I1
(I3
tp169
g90
I00
S'\x99\x94\xd7\x8f\x10k\xf0?\x7f\xef\xb5\xdcX\xb6\x04\xc0~\xf8\xf4U\x11+\x00\xc0'
p170
tp171
bag21
(g22
(I0
tp172
g24
tp173
Rp174
(I1
(I3
tp175
g90
I00
S'S\xf49\xa2+\x89\xf0?\x90\xc6\x1b\xea\xaco\x04\xc0m\xfeq\x0c\x14\x04\xcf\xbf'
p176
tp177
bag119
ag119
asbs(Vsquare_packing_box4
p178
g14
tp179
(itrajectory_representation.operator
Operator
p180
(dp181
g8
I01
sg9
(dp182
g114
g14
sg11
g178
ssg16
g115
sg18
(dp183
g20
g21
(g22
(I0
tp184
g24
tp185
Rp186
(I1
(I3
tp187
g31
I00
S'\x08\xdd\x96K\xa5\x1b\xf3?\xca\x8e$\x9d\xc2|\x1d\xc0\xbfa5\x0c\xa6\x93\x06@'
p188
tp189
bssg46
(lp190
g21
(g22
(I0
tp191
g24
tp192
Rp193
(I1
(I3
tp194
g31
I00
S'\x94\x03:\x15[\xc1\xf4?\xdc\xbeC\xa0\xfe; \xc0\xad\x1cX\x99\x9f5\xfc?'
p195
tp196
bag21
(g22
(I0
tp197
g24
tp198
Rp199
(I1
(I3
tp200
g90
I00
S'r\xb4\xd66\xb5:\xe6?4\xd2\xb3\xd8Ho\x1f\xc0\x0f\xf8\x05\x85\xe9\x10\x00@'
p201
tp202
bag21
(g22
(I0
tp203
g24
tp204
Rp205
(I1
(I3
tp206
g90
I00
S'\xb5\x99m0\x178\xf0?\x86\xac\x86\xf0\xe37\x1e\xc0\x7f\x06\x9c\xb7E2\x0c@'
p207
tp208
bag186
ag186
asbssS'place_in_way'
p209
(itrajectory_representation.predicates.place_in_way
PlaceInWay
p210
(dp211
S'mc_path_to_entity'
p212
(dp213
(Vrectangular_packing_box3
p214
S'home_region'
p215
tp216
(lp217
g21
(g22
(I0
tp218
g24
tp219
Rp220
(I1
(I3
tp221
g28
(S'f8'
p222
I0
I1
tp223
Rp224
(I3
S'<'
p225
NNNI-1
I-1
I0
tp226
bI00
S'@\xbfT\xd2\xee~\xce\xbf\tR{\xc8\xc6\x9b\x1d\xc0\n\xfd\xd5\xb6al\xee?'
p227
tp228
bag21
(g22
(I0
tp229
g24
tp230
Rp231
(I1
(I3
tp232
g28
(S'f8'
p233
I0
I1
tp234
Rp235
(I3
S'<'
p236
NNNI-1
I-1
I0
tp237
bI00
S'\xfc\x99\xeb\x1fWC\xaa\xbf\xf3Yh@\x08R\x1d\xc0\x97\x885\xa6\x1eW\xf0?'
p238
tp239
bag21
(g22
(I0
tp240
g24
tp241
Rp242
(I1
(I3
tp243
g235
I00
S'\xb0\x11@i\x1f\x12\xb4?\x01\xb6C\x19\x0b\x9d\x1a\xc0\xda \xc5\xc8m8\xeb?'
p244
tp245
bag21
(g22
(I0
tp246
g24
tp247
Rp248
(I1
(I3
tp249
g235
I00
S'T]\x0c\x0e\xd89\xda?\xf4\x992\x11%\\\x18\xc0\x95\x7f\x10B\xb1)\xe3?'
p250
tp251
bag21
(g22
(I0
tp252
g24
tp253
Rp254
(I1
(I3
tp255
g235
I00
S'\xd8\x87\x03p)T\xe4?\xd5\xabI\xb7V\xd0\x15\xc0vWg\x9a\x87\x8a\xec?'
p256
tp257
bag21
(g22
(I0
tp258
g24
tp259
Rp260
(I1
(I3
tp261
g235
I00
S'\xa9\xd9\x1d\x8d\xa6j\xdf?\xa0\x85\x1a\x84\xc6\xec\x12\xc0\x01\xb6 H\xb1\x91\xeb?'
p262
tp263
bag21
(g22
(I0
tp264
g24
tp265
Rp266
(I1
(I3
tp267
g235
I00
S'\x93k\xbc\xee\xc2\x10\xe8?\xab^\x86?\x08D\x10\xc0\x10;2\x00\xe5\t\xde?'
p268
tp269
bag21
(g22
(I0
tp270
g24
tp271
Rp272
(I1
(I3
tp273
g235
I00
S'\xef\xc3u*\xfb\xdb\xeb?\x8d\xa5\n\xfd\x03<\n\xc0\xd8\xfb\xde\x16R\xac\xde?'
p274
tp275
bag21
(g22
(I0
tp276
g24
tp277
Rp278
(I1
(I3
tp279
g235
I00
S'\xf4\xfdJ\x1a(#\xec?H"\x9cD\x1aE\x05\xc0.\xa9\x0b\x87\xf8\xe1\x02@'
p280
tp281
bas(Vsquare_packing_box4
p282
g215
tp283
(lp284
g21
(g22
(I0
tp285
g24
tp286
Rp287
(I1
(I3
tp288
g224
I00
S'\xc9\x03:\x15[\xc1\xf4?\xd8\xbeC\xa0\xfe; \xc0\xb2\x1cX\x99\x9f5\xfc?'
p289
tp290
bag21
(g22
(I0
tp291
g24
tp292
Rp293
(I1
(I3
tp294
g235
I00
S'\xad\xa0\xdfFH\xe9\xf6?\xa3\xfc\x14D\x8bb\x1d\xc0\x9e2hH\xc0\xe5\xf0?'
p295
tp296
bag21
(g22
(I0
tp297
g24
tp298
Rp299
(I1
(I3
tp300
g235
I00
S'JyH\x8ez\xd6\xfa?\xb3\xf7h\x83\xea\xba\x1a\xc0u\xf9Uf\xb7m\xe0?'
p301
tp302
bag21
(g22
(I0
tp303
g24
tp304
Rp305
(I1
(I3
tp306
g235
I00
S'j\xc7\xc0&\x8ag\xf6?h\x9cH4\x7f\xab\x18\xc0\xd8|\x1d\xfc\xcbV\xf2?'
p307
tp308
bag21
(g22
(I0
tp309
g24
tp310
Rp311
(I1
(I3
tp312
g235
I00
S'\x85\\2\xba\x0b5\xf5?I\r\x06\xd10\xfb\x15\xc0\x9e\x11\xee\xd8\xb9\xd7\xf5?'
p313
tp314
bag21
(g22
(I0
tp315
g24
tp316
Rp317
(I1
(I3
tp318
g235
I00
S'v\xb8^\x85\xa7[\xea?x\xbe\xff2t\x8d\x13\xc0\x88\x85\x8cCyH\xf6?'
p319
tp320
bag21
(g22
(I0
tp321
g24
tp322
Rp323
(I1
(I3
tp324
g235
I00
S'\xc2\xda(e\x83\x1a\xeb?\x8au\x8d3\xa6E\x11\xc0\xb4c\x1b\xed_\xfd\xfa?'
p325
tp326
bag21
(g22
(I0
tp327
g24
tp328
Rp329
(I1
(I3
tp330
g235
I00
S'\xe4u**\x0e5\xe9?\xaa\xfd\r\xed\xc4\xf6\r\xc0\x0fDE0\x1f\x0b\xfe?'
p331
tp332
bag21
(g22
(I0
tp333
g24
tp334
Rp335
(I1
(I3
tp336
g235
I00
S'\x06\x11,\xef\x98O\xe7??\x10\x01s=b\t\xc04\x92\xb79o\x8c\x00@'
p337
tp338
bag21
(g22
(I0
tp339
g24
tp340
Rp341
(I1
(I3
tp342
g235
I00
S'\x92\xaf\xf3P\x96O\xc2?(\xa1:\x8er}\x05\xc0\xd4_\x91\xb3\xffL\x02@'
p343
tp344
bas(Vrectangular_packing_box4
p345
g215
tp346
(lp347
g21
(g22
(I0
tp348
g24
tp349
Rp350
(I1
(I3
tp351
g224
I00
S'm\xde\x15\\R\xa6\x06@\xf5q\xec\x9f\xe2\x0f\x1f\xc0\x98&\x05F\x13A\xf4?'
p352
tp353
bag21
(g22
(I0
tp354
g24
tp355
Rp356
(I1
(I3
tp357
g235
I00
S'\xa3\xe7\xb4\x16R\xf0\x07@\xbc\n8\xab\xe3x\x1c\xc0=\x94\xaf\xa7P\t\x01@'
p358
tp359
bag21
(g22
(I0
tp360
g24
tp361
Rp362
(I1
(I3
tp363
g235
I00
S'\xe8[\xb2\xaa\xa5@\x04@(j\r1!I\x1b\xc0Xj\x8bx\xc9`\xfc?'
p364
tp365
bag21
(g22
(I0
tp366
g24
tp367
Rp368
(I1
(I3
tp369
g235
I00
S'\xb9\x81\xdfb\xdf\x92\xfe?\x1a\xe3?2\xb6\xec\x1a\xc0B\x1b\x81\xfa\x93C\xfa?'
p370
tp371
bag21
(g22
(I0
tp372
g24
tp373
Rp374
(I1
(I3
tp375
g235
I00
S'{\xe7\xcc\xce\x02,\xf5?\xeb\x85\xf2\xb4\xc9\x08\x19\xc0\xcd\x97\xf6\xcc\xe4z\x00@'
p376
tp377
bag21
(g22
(I0
tp378
g24
tp379
Rp380
(I1
(I3
tp381
g235
I00
S'o\xd6\x82\xea\x7f\xb2\xed?9\xf2C\x0b?\xfd\x16\xc0(?d\xe9@\xb5\x02@'
p382
tp383
bag21
(g22
(I0
tp384
g24
tp385
Rp386
(I1
(I3
tp387
g235
I00
S'&>c9\x01,\xeb?\xb2\xc2\xf0\x02\xce\x8e\x14\xc0\xd8p\xbb2\x14\xd2\x03@'
p388
tp389
bag21
(g22
(I0
tp390
g24
tp391
Rp392
(I1
(I3
tp393
g235
I00
S'\xc6\x05\xbdtg\xd9\xe2?F\xdf\x9d@\\\xf3\x11\xc0\x1a\xc4.\xbb\xcc\x12\x02@'
p394
tp395
bag21
(g22
(I0
tp396
g24
tp397
Rp398
(I1
(I3
tp399
g235
I00
S'3z\xed\x8eN)\xe4?\x0c\x96\xd4\xa2\x0e\xd0\r\xc0\xbd%\xf5{\xe9\xf9\x03@'
p400
tp401
bag21
(g22
(I0
tp402
g24
tp403
Rp404
(I1
(I3
tp405
g235
I00
S'\xaf0\xe9h\xba~\xee?k\xbb\xd8\xd4\xd0g\t\xc09\x9ey\xed\xb06\x06@'
p406
tp407
bag21
(g22
(I0
tp408
g24
tp409
Rp410
(I1
(I3
tp411
g235
I00
S'\xf4\xfdJ\x1a(#\xec?H"\x9cD\x1aE\x05\xc0.\xa9\x0b\x87\xf8\xe1\x02@'
p412
tp413
bas(Vsquare_packing_box1
p414
g215
tp415
(lp416
g21
(g22
(I0
tp417
g24
tp418
Rp419
(I1
(I3
tp420
g224
I00
S'\x88\x86\xcf\x98\x85\xd9\xfd?\n9\x93 \x92W\x16\xc0\x7fJ\xc1\xb2\x1b\xda\x06@'
p421
tp422
bag21
(g22
(I0
tp423
g24
tp424
Rp425
(I1
(I3
tp426
g235
I00
S'R\x12);\xaf\xa5\xf7?\xf3\xf9\xeb\x07c\xef\x15\xc0\xf0V^\xd6\x94\x96\x05\xc0'
p427
tp428
bag21
(g22
(I0
tp429
g24
tp430
Rp431
(I1
(I3
tp432
g235
I00
S'\xd0\xcb\x13\x8f\xaa\x9d\xed?\x90\x01<]3\x06\x16\xc0F\xf1\xe7x32\x02\xc0'
p433
tp434
bag21
(g22
(I0
tp435
g24
tp436
Rp437
(I1
(I3
tp438
g235
I00
S'l[\xc4\x16<\xe6\xe9?\xa6\xa0\x90\x84X\x9f\x13\xc0\xc2\xd74Q\x00\xaf\xff\xbf'
p439
tp440
bag21
(g22
(I0
tp441
g24
tp442
Rp443
(I1
(I3
tp444
g235
I00
S"\xaeJ\xbd\x1936\xec?\x04\x13\xd4'\x9f\x88\x10\xc0\x805qo\xb6\xe6\xff\xbf"
p445
tp446
bag21
(g22
(I0
tp447
g24
tp448
Rp449
(I1
(I3
tp450
g235
I00
S'\xf09\xb6\x1c*\x86\xee?\xc4\n/\x96\xcb\xe3\n\xc0\xa0\xc9\xd6F6\x0f\x00\xc0'
p451
tp452
bag21
(g22
(I0
tp453
g24
tp454
Rp455
(I1
(I3
tp456
g235
I00
S'3\xe9\xaf\x05T\x89\xe7?+~\xcb\xd3\x15\xc7\x04\xc0x6(d5\xed\x07@'
p457
tp458
bas(Vsquare_packing_box2
p459
g215
tp460
(lp461
g21
(g22
(I0
tp462
g24
tp463
Rp464
(I1
(I3
tp465
g224
I00
S'\xc0F\xde>\xc2e\xd3?\xab\xc4\xe5\xa1\xb7\xfd\x1e\xc0D\xe2\xc6\xb9g$\x0e@'
p466
tp467
bag21
(g22
(I0
tp468
g24
tp469
Rp470
(I1
(I3
tp471
g235
I00
S'\x82\xeb.\xbfl\xf2\xe7?\xb8@O\xd3\x83\xb3\x1d\xc0\xc5\xeb\x9c\xf6Lc\xff\xbf'
p472
tp473
bag21
(g22
(I0
tp474
g24
tp475
Rp476
(I1
(I3
tp477
g235
I00
S'\xf8\xfc\x1a\xd0\xc9l\xe8?\x8a\x897\x8e~\x98\x1a\xc0\xaf\xf7\xb87\xc6\xa7\x01\xc0'
p478
tp479
bag21
(g22
(I0
tp480
g24
tp481
Rp482
(I1
(I3
tp483
g235
I00
S"\xc6'8AN\xb0\xec?\xe0\x975>\x0f\x03\x19\xc0(\xe0e;\x85\x89\x05\xc0"
p484
tp485
bag21
(g22
(I0
tp486
g24
tp487
Rp488
(I1
(I3
tp489
g235
I00
S'\xd0\xcb\x13\x8f\xaa\x9d\xed?\x90\x01<]3\x06\x16\xc0F\xf1\xe7x32\x02\xc0'
p490
tp491
bag21
(g22
(I0
tp492
g24
tp493
Rp494
(I1
(I3
tp495
g235
I00
S'l[\xc4\x16<\xe6\xe9?\xa6\xa0\x90\x84X\x9f\x13\xc0\xc2\xd74Q\x00\xaf\xff\xbf'
p496
tp497
bag21
(g22
(I0
tp498
g24
tp499
Rp500
(I1
(I3
tp501
g235
I00
S"\xaeJ\xbd\x1936\xec?\x04\x13\xd4'\x9f\x88\x10\xc0\x805qo\xb6\xe6\xff\xbf"
p502
tp503
bag21
(g22
(I0
tp504
g24
tp505
Rp506
(I1
(I3
tp507
g235
I00
S'\xf09\xb6\x1c*\x86\xee?\xc4\n/\x96\xcb\xe3\n\xc0\xa0\xc9\xd6F6\x0f\x00\xc0'
p508
tp509
bag21
(g22
(I0
tp510
g24
tp511
Rp512
(I1
(I3
tp513
g235
I00
S'3\xe9\xaf\x05T\x89\xe7?+~\xcb\xd3\x15\xc7\x04\xc0x6(d5\xed\x07@'
p514
tp515
bas(Vsquare_packing_box3
p516
g215
tp517
(lp518
g21
(g22
(I0
tp519
g24
tp520
Rp521
(I1
(I3
tp522
g224
I00
S'\x98\xdag\x97_\xa1\xfe?\xe2\xcfp\xda\x9a\xbb\x1c\xc0?!\xc0\x0e\xd7~\x15@'
p523
tp524
bag21
(g22
(I0
tp525
g24
tp526
Rp527
(I1
(I3
tp528
g235
I00
S'\xba)c\x05l\x93\xf4?\x8f\x0f\xa1<\xee\x05\x1c\xc0\xf9-\x16\x17\xc6`\xf8\xbf'
p529
tp530
bag21
(g22
(I0
tp531
g24
tp532
Rp533
(I1
(I3
tp534
g235
I00
S'\xb0\xcfg\xd5._\xe8?\xd6\x8d\xba\x87\x91D\x1a\xc0\xea!\xf73\x0cB\xf7\xbf'
p535
tp536
bag21
(g22
(I0
tp537
g24
tp538
Rp539
(I1
(I3
tp540
g235
I00
S"\x1aq\xa1\x96-\xd2\xec?\xa2\x8f\xd2'\xa1I\x18\xc0\x06\xea(\x89^*\xf2\xbf"
p541
tp542
bag21
(g22
(I0
tp543
g24
tp544
Rp545
(I1
(I3
tp546
g235
I00
S'tx\x8as\xa8b\xed?\x9ej\x15\xfa\xf0{\x15\xc0@\xed\x9a-\x9eD\xf2\xbf'
p547
tp548
bag21
(g22
(I0
tp549
g24
tp550
Rp551
(I1
(I3
tp552
g235
I00
S'\xb0E\xbb;Cb\xeb?\x9e\xde\xa7\xdd\xbdd\x12\xc0\xc6\xee\xbd\x16\x8c\xaa\xf3\xbf'
p553
tp554
bag21
(g22
(I0
tp555
g24
tp556
Rp557
(I1
(I3
tp558
g235
I00
S'`\xc8Aw-\x81\xeb?/\xc3\xe6O\x04\xca\x10\xc0\x8a\xb7K)\x91{\xe4\xbf'
p559
tp560
bag21
(g22
(I0
tp561
g24
tp562
Rp563
(I1
(I3
tp564
g235
I00
S'\xe1\xc6\xc7\xa7\x12X\xe7?\x98\x99\xb0\x9a\xfb\xdb\x0b\xc0R\t\x1b)\xeae\xe0\xbf'
p565
tp566
bag21
(g22
(I0
tp567
g24
tp568
Rp569
(I1
(I3
tp570
g235
I00
S'p\xf1\xbdc^\x84\xf1?"\x88LL\xf9D\x06\xc0~w\r\xe9m\x0f\x19@'
p571
tp572
bas(Vrectangular_packing_box2
p573
g215
tp574
(lp575
g21
(g22
(I0
tp576
g24
tp577
Rp578
(I1
(I3
tp579
g224
I00
S'\xfc\x16C\xf3*\xb4\x07@j\x16\x86\xfc\xfc\x02\x1a\xc0I\xe9\x92\xe6\x95\x02\xdb?'
p580
tp581
bag21
(g22
(I0
tp582
g24
tp583
Rp584
(I1
(I3
tp585
g235
I00
S'A\xec\xb55+(\x03@v\x14\x1a\xc5J\xca\x18\xc0\xe9\rA\xa0%\xbe\xc7?'
p586
tp587
bag21
(g22
(I0
tp588
g24
tp589
Rp590
(I1
(I3
tp591
g235
I00
S'/\xe1\x02^.|\x00@\xb8\xae\xc5\xcfF\x16\x17\xc0\xf8\x01)d\xc5\xf9\xe2?'
p592
tp593
bag21
(g22
(I0
tp594
g24
tp595
Rp596
(I1
(I3
tp597
g235
I00
S'\x85\\2\xba\x0b5\xf5?I\r\x06\xd10\xfb\x15\xc0\x9e\x11\xee\xd8\xb9\xd7\xf5?'
p598
tp599
bag21
(g22
(I0
tp600
g24
tp601
Rp602
(I1
(I3
tp603
g235
I00
S'v\xb8^\x85\xa7[\xea?x\xbe\xff2t\x8d\x13\xc0\x88\x85\x8cCyH\xf6?'
p604
tp605
bag21
(g22
(I0
tp606
g24
tp607
Rp608
(I1
(I3
tp609
g235
I00
S'\xc2\xda(e\x83\x1a\xeb?\x8au\x8d3\xa6E\x11\xc0\xb4c\x1b\xed_\xfd\xfa?'
p610
tp611
bag21
(g22
(I0
tp612
g24
tp613
Rp614
(I1
(I3
tp615
g235
I00
S'\xe4u**\x0e5\xe9?\xaa\xfd\r\xed\xc4\xf6\r\xc0\x0fDE0\x1f\x0b\xfe?'
p616
tp617
bag21
(g22
(I0
tp618
g24
tp619
Rp620
(I1
(I3
tp621
g235
I00
S'\x06\x11,\xef\x98O\xe7??\x10\x01s=b\t\xc04\x92\xb79o\x8c\x00@'
p622
tp623
bag21
(g22
(I0
tp624
g24
tp625
Rp626
(I1
(I3
tp627
g235
I00
S'\x92\xaf\xf3P\x96O\xc2?(\xa1:\x8er}\x05\xc0\xd4_\x91\xb3\xffL\x02@'
p628
tp629
bassS'mc_to_entity'
p630
(dp631
(g214
g215
tp632
(lp633
Vsquare_packing_box2
p634
aVrectangular_packing_box1
p635
aVsquare_packing_box1
p636
as(g282
g215
tp637
(lp638
Vrectangular_packing_box1
p639
aVsquare_packing_box1
p640
as(g345
g215
tp641
(lp642
Vsquare_packing_box3
p643
aVsquare_packing_box1
p644
aVrectangular_packing_box1
p645
as(g414
g215
tp646
(lp647
Vrectangular_packing_box1
p648
as(g459
g215
tp649
(lp650
Vsquare_packing_box4
p651
aVrectangular_packing_box1
p652
aVrectangular_packing_box3
p653
aVsquare_packing_box1
p654
as(g516
g215
tp655
(lp656
Vsquare_packing_box4
p657
aVrectangular_packing_box1
p658
aVrectangular_packing_box3
p659
aVsquare_packing_box1
p660
as(g573
g215
tp661
(lp662
Vsquare_packing_box1
p663
assS'reachable_entities'
p664
(lp665
Vsquare_packing_box2
p666
ag12
asS'collides'
p667
(dp668
Vrectangular_packing_box4
p669
c__builtin__
set
p670
((lp671
I386
aI179
aI268
aI269
aI270
aI405
aI280
aI548
aI303
aI307
aI436
aI565
aI438
aI440
aI573
aI193
aI68
aI210
aI211
aI212
aI213
aI343
aI91
aI220
aI479
aI354
aI614
aI112
aI113
aI339
aI500
aI245
aI246
aI375
aI340
aI381
aI254
atp672
Rp673
sVrectangular_packing_box2
p674
g670
((lp675
I270
aI144
aI405
aI280
aI545
aI425
aI302
aI303
aI307
aI565
aI438
aI442
aI453
aI457
aI343
aI473
aI474
aI612
aI614
aI367
aI368
aI369
aI500
aI246
aI247
aI377
aI381
atp676
Rp677
sVrectangular_packing_box3
p678
g670
((lp679
I384
aI133
aI6
aI137
aI138
aI523
aI580
aI276
aI152
aI153
aI154
aI155
aI157
aI163
aI164
aI165
aI166
aI424
aI553
aI547
aI308
aI521
aI394
aI452
aI197
aI198
aI518
aI338
aI83
aI84
aI229
aI362
aI107
aI249
aI251
aI383
atp680
Rp681
sVrectangular_packing_box1
p682
g670
((lp683
I4
aI5
aI6
aI137
aI132
aI133
aI34
aI35
aI43
aI517
aI301
aI584
aI310
aI55
aI56
aI570
aI187
aI449
aI70
aI327
aI456
aI202
aI203
aI162
aI595
aI84
aI597
aI93
aI94
aI607
aI355
aI233
aI106
aI107
aI251
aI252
atp684
Rp685
sVsquare_packing_box2
p686
g670
((lp687
I580
aI589
aI564
aI532
aI356
aI478
aI575
atp688
Rp689
sVsquare_packing_box3
p690
g670
((lp691
I256
aI513
aI514
aI259
aI260
aI515
aI406
aI407
aI286
aI543
aI552
aI556
aI429
aI436
aI440
aI443
aI572
aI66
aI67
aI68
aI585
aI119
aI337
aI340
aI610
aI613
aI358
aI117
aI118
aI375
aI123
aI255
atp692
Rp693
sVsquare_packing_box1
p694
g670
((lp695
I43
aI8
aI416
aI33
aI554
aI71
aI44
aI301
aI56
aI186
aI187
aI327
aI456
aI203
aI472
aI94
aI95
aI484
aI233
aI106
aI235
aI108
aI497
aI234
atp696
Rp697
sVsquare_packing_box4
p698
g670
((lp699
I262
aI135
aI136
aI146
aI407
aI134
aI433
aI296
aI263
aI176
aI177
aI448
aI458
aI464
aI81
aI82
aI505
aI346
aI486
aI230
aI593
aI490
aI494
aI240
aI374
aI120
aI121
aI124
aI264
atp700
Rp701
ssg107
g108
sS'pick_used'
p702
(dp703
Vrectangular_packing_box4
p704
(itrajectory_representation.operator
Operator
p705
(dp706
g8
I01
sg9
(dp707
S'object'
p708
Vrectangular_packing_box4
p709
ssg16
S'two_arm_pick'
p710
sg18
(dp711
S'q_goal'
p712
(lp713
g21
(g22
(I0
tp714
g24
tp715
Rp716
(I1
(I3
tp717
g224
I00
S'l\xde\x15\\R\xa6\x06@\xf5q\xec\x9f\xe2\x0f\x1f\xc0\x98&\x05F\x13A\xf4?'
p718
tp719
bag21
(g22
(I0
tp720
g24
tp721
Rp722
(I1
(I3
tp723
g224
I00
S'ut\xde\x81\xa0:\x07@\x0f\x85\x8e\x0bd\x04\x1a\xc0\x0b\x9e\xda~\xa0{\xe1\xbf'
p724
tp725
bag21
(g22
(I0
tp726
g24
tp727
Rp728
(I1
(I3
tp729
g224
I00
S's\xaa\x89\x08k\x1e\x0e@\xc9h\xb5(5\xec\x1f\xc0F\xde8\xa4S\xfb\x01@'
p730
tp731
basS'is_feasible'
p732
I00
ssg46
(lp733
g21
(g22
(I0
tp734
g24
tp735
Rp736
(I1
(I3
tp737
g224
I00
S'\x9e\xaa\x17\xe4\xb6*\xfc?\xa83\x99D]\xa2\x02\xc0\x07\x87_j\x81\x9b\x18@'
p738
tp739
bag21
(g22
(I0
tp740
g24
tp741
Rp742
(I1
(I3
tp743
g235
I00
S'\xb0V\x04\n\x9c\xab\xf4?h\xebm\xaf4T\x05\xc0b\xbc8-\x0bw\xf6\xbf'
p744
tp745
bag21
(g22
(I0
tp746
g24
tp747
Rp748
(I1
(I3
tp749
g235
I00
S'\xf09\xb6\x1c*\x86\xee?\xc4\n/\x96\xcb\xe3\n\xc0\xa0\xc9\xd6F6\x0f\x00\xc0'
p750
tp751
bag21
(g22
(I0
tp752
g24
tp753
Rp754
(I1
(I3
tp755
g235
I00
S"\xaeJ\xbd\x1936\xec?\x04\x13\xd4'\x9f\x88\x10\xc0\x805qo\xb6\xe6\xff\xbf"
p756
tp757
bag21
(g22
(I0
tp758
g24
tp759
Rp760
(I1
(I3
tp761
g235
I00
S'l[\xc4\x16<\xe6\xe9?\xa6\xa0\x90\x84X\x9f\x13\xc0\xc2\xd74Q\x00\xaf\xff\xbf'
p762
tp763
bag21
(g22
(I0
tp764
g24
tp765
Rp766
(I1
(I3
tp767
g235
I00
S'\x85\\2\xba\x0b5\xf5?I\r\x06\xd10\xfb\x15\xc0\x9e\x11\xee\xd8\xb9\xd7\xf5?'
p768
tp769
bag21
(g22
(I0
tp770
g24
tp771
Rp772
(I1
(I3
tp773
g235
I00
S'\xe0 ;\x819w\xfd?\xe7\xcc\xc2\xa0\xa5f\x17\xc04\xedq\x1c\x8eK\xfa?'
p774
tp775
bag21
(g22
(I0
tp776
g24
tp777
Rp778
(I1
(I3
tp779
g235
I00
S'A\xec\xb55+(\x03@v\x14\x1a\xc5J\xca\x18\xc0\xe9\rA\xa0%\xbe\xc7?'
p780
tp781
bag722
asbsVrectangular_packing_box2
p782
(itrajectory_representation.operator
Operator
p783
(dp784
g8
I01
sg9
(dp785
g708
Vrectangular_packing_box2
p786
ssg16
g710
sg18
(dp787
g712
(lp788
g21
(g22
(I0
tp789
g24
tp790
Rp791
(I1
(I3
tp792
g224
I00
S'\xfd\x16C\xf3*\xb4\x07@i\x16\x86\xfc\xfc\x02\x1a\xc0G\xe9\x92\xe6\x95\x02\xdb?'
p793
tp794
bag21
(g22
(I0
tp795
g24
tp796
Rp797
(I1
(I3
tp798
g224
I00
S'=\r(\x03\x0f\x05\x08@\xc7]7\xd5\xde\xcb\x1a\xc0\x89c\xa2\x98\x08\xd7\xcc?'
p799
tp800
bag21
(g22
(I0
tp801
g24
tp802
Rp803
(I1
(I3
tp804
g224
I00
S'\x93.s\xb6\x02\xbe\x0c@q\xa9H\xbb\x7f\n\x17\xc0\xc8!^a\x89\x88\xef\xbf'
p805
tp806
basg732
I00
ssg46
(lp807
g21
(g22
(I0
tp808
g24
tp809
Rp810
(I1
(I3
tp811
g224
I00
S'\x9e\xaa\x17\xe4\xb6*\xfc?\xa83\x99D]\xa2\x02\xc0\x07\x87_j\x81\x9b\x18@'
p812
tp813
bag21
(g22
(I0
tp814
g24
tp815
Rp816
(I1
(I3
tp817
g235
I00
S'\xb0V\x04\n\x9c\xab\xf4?h\xebm\xaf4T\x05\xc0b\xbc8-\x0bw\xf6\xbf'
p818
tp819
bag21
(g22
(I0
tp820
g24
tp821
Rp822
(I1
(I3
tp823
g235
I00
S'\xf09\xb6\x1c*\x86\xee?\xc4\n/\x96\xcb\xe3\n\xc0\xa0\xc9\xd6F6\x0f\x00\xc0'
p824
tp825
bag21
(g22
(I0
tp826
g24
tp827
Rp828
(I1
(I3
tp829
g235
I00
S"\xaeJ\xbd\x1936\xec?\x04\x13\xd4'\x9f\x88\x10\xc0\x805qo\xb6\xe6\xff\xbf"
p830
tp831
bag21
(g22
(I0
tp832
g24
tp833
Rp834
(I1
(I3
tp835
g235
I00
S'l[\xc4\x16<\xe6\xe9?\xa6\xa0\x90\x84X\x9f\x13\xc0\xc2\xd74Q\x00\xaf\xff\xbf'
p836
tp837
bag21
(g22
(I0
tp838
g24
tp839
Rp840
(I1
(I3
tp841
g235
I00
S'\x85\\2\xba\x0b5\xf5?I\r\x06\xd10\xfb\x15\xc0\x9e\x11\xee\xd8\xb9\xd7\xf5?'
p842
tp843
bag21
(g22
(I0
tp844
g24
tp845
Rp846
(I1
(I3
tp847
g235
I00
S'\xe0 ;\x819w\xfd?\xe7\xcc\xc2\xa0\xa5f\x17\xc04\xedq\x1c\x8eK\xfa?'
p848
tp849
bag21
(g22
(I0
tp850
g24
tp851
Rp852
(I1
(I3
tp853
g235
I00
S'A\xec\xb55+(\x03@v\x14\x1a\xc5J\xca\x18\xc0\xe9\rA\xa0%\xbe\xc7?'
p854
tp855
bag791
asbsVrectangular_packing_box3
p856
(itrajectory_representation.operator
Operator
p857
(dp858
g8
I01
sg9
(dp859
g708
Vrectangular_packing_box3
p860
ssg16
g710
sg18
(dp861
g712
(lp862
g21
(g22
(I0
tp863
g24
tp864
Rp865
(I1
(I3
tp866
g224
I00
S'\xe4\xbeT\xd2\xee~\xce\xbf\x08R{\xc8\xc6\x9b\x1d\xc0\x0c\xfd\xd5\xb6al\xee?'
p867
tp868
bag21
(g22
(I0
tp869
g24
tp870
Rp871
(I1
(I3
tp872
g224
I00
S'4-\xc3\xc8\xef\xaf\xe3?\xc1\x8dVf\x01\x8c\x17\xc0z\x16\x13\x83~\xef\x02\xc0'
p873
tp874
bag21
(g22
(I0
tp875
g24
tp876
Rp877
(I1
(I3
tp878
g224
I00
S'\x02n~{\x93S\xe5?H\x9e\xf6\x86\xae)\x18\xc0\x86\xbd/\x83\xa3\xfa\xff\xbf'
p879
tp880
basg732
I00
ssg46
(lp881
g21
(g22
(I0
tp882
g24
tp883
Rp884
(I1
(I3
tp885
g224
I00
S'\x9e\xaa\x17\xe4\xb6*\xfc?\xa83\x99D]\xa2\x02\xc0\x07\x87_j\x81\x9b\x18@'
p886
tp887
bag21
(g22
(I0
tp888
g24
tp889
Rp890
(I1
(I3
tp891
g235
I00
S'\xb0V\x04\n\x9c\xab\xf4?h\xebm\xaf4T\x05\xc0b\xbc8-\x0bw\xf6\xbf'
p892
tp893
bag21
(g22
(I0
tp894
g24
tp895
Rp896
(I1
(I3
tp897
g235
I00
S'(\xe0\x1c\xccxa\xe7?<\x8d\x99I\xafl\x08\xc0\xd2\xf1\x03\xe9gv\xf6\xbf'
p898
tp899
bag21
(g22
(I0
tp900
g24
tp901
Rp902
(I1
(I3
tp903
g235
I00
S'\xec\x12\xec\x03\xdea\xe9?<\xa5t\x82\x15\x9b\x0e\xc0L\xf0\xe0\xffy\x10\xf5\xbf'
p904
tp905
bag21
(g22
(I0
tp906
g24
tp907
Rp908
(I1
(I3
tp909
g235
I00
S'\xb0E\xbb;Cb\xeb?\x9e\xde\xa7\xdd\xbdd\x12\xc0\xc6\xee\xbd\x16\x8c\xaa\xf3\xbf'
p910
tp911
bag21
(g22
(I0
tp912
g24
tp913
Rp914
(I1
(I3
tp915
g235
I00
S'\x90\xfeW\xea\xb8\x0e\xe6?\x9aG\xe1\xa1\xf0\x14\x15\xc0\x94\xb4\xe8\xd7\x90\xa7\x18@'
p916
tp917
bag871
asbsVrectangular_packing_box1
p918
(itrajectory_representation.operator
Operator
p919
(dp920
g8
I01
sg9
(dp921
g708
Vrectangular_packing_box1
p922
ssg16
g710
sg18
(dp923
g712
(lp924
g21
(g22
(I0
tp925
g24
tp926
Rp927
(I1
(I3
tp928
g224
I00
S'\xdaJ\xeb1v~\xe0?\x8b\x04\xaf+\xff\xc9\x16\xc0^\x13\x93\xe0\x06\xfb\xe4\xbf'
p929
tp930
bag21
(g22
(I0
tp931
g24
tp932
Rp933
(I1
(I3
tp934
g224
I00
S'\xc4\xfe\xd596\xd9\xec?\xb5\x1c\xcf\xe7lt\x15\xc0\xe3M\x9d\xde&F\xf0\xbf'
p935
tp936
bag21
(g22
(I0
tp937
g24
tp938
Rp939
(I1
(I3
tp940
g224
I00
S'\xcc\xd7\xda\x19@\xd5\xe8?\x1e\x14\x8d\xe5b\xff\x15\xc0\xa1\x1d\xcc8\xca\x95\xe6\xbf'
p941
tp942
basg732
I00
ssg46
(lp943
g21
(g22
(I0
tp944
g24
tp945
Rp946
(I1
(I3
tp947
g224
I00
S'\x9e\xaa\x17\xe4\xb6*\xfc?\xa83\x99D]\xa2\x02\xc0\x07\x87_j\x81\x9b\x18@'
p948
tp949
bag21
(g22
(I0
tp950
g24
tp951
Rp952
(I1
(I3
tp953
g235
I00
S'\x99\x94\xd7\x8f\x10k\xf0?\x7f\xef\xb5\xdcX\xb6\x04\xc0~\xf8\xf4U\x11+\x00\xc0'
p954
tp955
bag21
(g22
(I0
tp956
g24
tp957
Rp958
(I1
(I3
tp959
g235
I00
S'\xf09\xb6\x1c*\x86\xee?\xc4\n/\x96\xcb\xe3\n\xc0\xa0\xc9\xd6F6\x0f\x00\xc0'
p960
tp961
bag21
(g22
(I0
tp962
g24
tp963
Rp964
(I1
(I3
tp965
g235
I00
S"\xaeJ\xbd\x1936\xec?\x04\x13\xd4'\x9f\x88\x10\xc0\x805qo\xb6\xe6\xff\xbf"
p966
tp967
bag21
(g22
(I0
tp968
g24
tp969
Rp970
(I1
(I3
tp971
g235
I00
S'\xb0E\xbb;Cb\xeb?\x9e\xde\xa7\xdd\xbdd\x12\xc0\xc6\xee\xbd\x16\x8c\xaa\xf3\xbf'
p972
tp973
bag933
asbsg666
(itrajectory_representation.operator
Operator
p974
(dp975
g8
I01
sg9
(dp976
g708
Vsquare_packing_box2
p977
ssg16
g710
sg18
(dp978
g712
(lp979
g21
(g22
(I0
tp980
g24
tp981
Rp982
(I1
(I3
tp983
g224
I00
S'\xa0F\xde>\xc2e\xd3?\xa7\xc4\xe5\xa1\xb7\xfd\x1e\xc0\xecw\xc1\xee\x8e\x1f\x04\xc0'
p984
tp985
bag21
(g22
(I0
tp986
g24
tp987
Rp988
(I1
(I3
tp989
g224
I00
S'\xa2^\xa7\x1c\xcf\x1b\xcb?|:=\xfaK\x08 \xc0\x05\xec;7\x00\x98\x08@'
p990
tp991
bag21
(g22
(I0
tp992
g24
tp993
Rp994
(I1
(I3
tp995
g224
I00
S'I\xe9k\xe9\xfe\xbe\xc3?h\xd8\xefF\x01\x1d \xc0\x0c_\no\xc8\xde\x06@'
p996
tp997
basg732
I00
ssg46
(lp998
g21
(g22
(I0
tp999
g24
tp1000
Rp1001
(I1
(I3
tp1002
g224
I00
S'\x9e\xaa\x17\xe4\xb6*\xfc?\xa83\x99D]\xa2\x02\xc0\x07\x87_j\x81\x9b\x18@'
p1003
tp1004
bag21
(g22
(I0
tp1005
g24
tp1006
Rp1007
(I1
(I3
tp1008
g235
I00
S'\xb0V\x04\n\x9c\xab\xf4?h\xebm\xaf4T\x05\xc0b\xbc8-\x0bw\xf6\xbf'
p1009
tp1010
bag21
(g22
(I0
tp1011
g24
tp1012
Rp1013
(I1
(I3
tp1014
g235
I00
S'\xf09\xb6\x1c*\x86\xee?\xc4\n/\x96\xcb\xe3\n\xc0\xa0\xc9\xd6F6\x0f\x00\xc0'
p1015
tp1016
bag21
(g22
(I0
tp1017
g24
tp1018
Rp1019
(I1
(I3
tp1020
g235
I00
S"\xaeJ\xbd\x1936\xec?\x04\x13\xd4'\x9f\x88\x10\xc0\x805qo\xb6\xe6\xff\xbf"
p1021
tp1022
bag21
(g22
(I0
tp1023
g24
tp1024
Rp1025
(I1
(I3
tp1026
g235
I00
S'l[\xc4\x16<\xe6\xe9?\xa6\xa0\x90\x84X\x9f\x13\xc0\xc2\xd74Q\x00\xaf\xff\xbf'
p1027
tp1028
bag21
(g22
(I0
tp1029
g24
tp1030
Rp1031
(I1
(I3
tp1032
g235
I00
S'\x85\\2\xba\x0b5\xf5?I\r\x06\xd10\xfb\x15\xc0\x9e\x11\xee\xd8\xb9\xd7\xf5?'
p1033
tp1034
bag21
(g22
(I0
tp1035
g24
tp1036
Rp1037
(I1
(I3
tp1038
g235
I00
S'\xe0 ;\x819w\xfd?\xe7\xcc\xc2\xa0\xa5f\x17\xc04\xedq\x1c\x8eK\xfa?'
p1039
tp1040
bag21
(g22
(I0
tp1041
g24
tp1042
Rp1043
(I1
(I3
tp1044
g235
I00
S'\xf60LV\xe8\x96\x00@\x9aEw{a\xe2\x18\xc0^\xa8\x8a,\xa3\x98\x00@'
p1045
tp1046
bag21
(g22
(I0
tp1047
g24
tp1048
Rp1049
(I1
(I3
tp1050
g235
I00
S'\xb9\x81\xdfb\xdf\x92\xfe?\x1a\xe3?2\xb6\xec\x1a\xc0B\x1b\x81\xfa\x93C\xfa?'
p1051
tp1052
bag21
(g22
(I0
tp1053
g24
tp1054
Rp1055
(I1
(I3
tp1056
g235
I00
S'*4\xc9\xb1\x13|\xf5?=~n\xf8\xb0\xf9\x1b\xc0\x97\x8e\x14L\xfds\x01@'
p1057
tp1058
bag21
(g22
(I0
tp1059
g24
tp1060
Rp1061
(I1
(I3
tp1062
g235
I00
S'\x06\xd6\xb9\\\xe7\xcd\xef?f\xceN\xd9ax\x1e\xc0\xb6KP\xe9\ng\x07\xc0'
p1063
tp1064
bag982
asbsVsquare_packing_box3
p1065
(itrajectory_representation.operator
Operator
p1066
(dp1067
g8
I01
sg9
(dp1068
g708
Vsquare_packing_box3
p1069
ssg16
g710
sg18
(dp1070
g712
(lp1071
g21
(g22
(I0
tp1072
g24
tp1073
Rp1074
(I1
(I3
tp1075
g224
I00
S'\x9b\xdag\x97_\xa1\xfe?\xe2\xcfp\xda\x9a\xbb\x1c\xc0\xc6^ ,"\x19\xed\xbf'
p1076
tp1077
bag21
(g22
(I0
tp1078
g24
tp1079
Rp1080
(I1
(I3
tp1081
g224
I00
S'%\x83\xa5\xadO\xad\x07@\x81\n\xa6N\xfc\xce\x1d\xc0*\xf2\x83\x87E<\x06\xc0'
p1082
tp1083
bag21
(g22
(I0
tp1084
g24
tp1085
Rp1086
(I1
(I3
tp1087
g224
I00
S'\xa6p\x11\x13\x9a\xfc\x07@\x0b[;\xfe}\xe3\x1d\xc0\xe5\x9f&H\xc7g\x06\xc0'
p1088
tp1089
basg732
I00
ssg46
(lp1090
g21
(g22
(I0
tp1091
g24
tp1092
Rp1093
(I1
(I3
tp1094
g224
I00
S'\x9e\xaa\x17\xe4\xb6*\xfc?\xa83\x99D]\xa2\x02\xc0\x07\x87_j\x81\x9b\x18@'
p1095
tp1096
bag21
(g22
(I0
tp1097
g24
tp1098
Rp1099
(I1
(I3
tp1100
g235
I00
S'\xb0V\x04\n\x9c\xab\xf4?h\xebm\xaf4T\x05\xc0b\xbc8-\x0bw\xf6\xbf'
p1101
tp1102
bag21
(g22
(I0
tp1103
g24
tp1104
Rp1105
(I1
(I3
tp1106
g235
I00
S'(\xe0\x1c\xccxa\xe7?<\x8d\x99I\xafl\x08\xc0\xd2\xf1\x03\xe9gv\xf6\xbf'
p1107
tp1108
bag21
(g22
(I0
tp1109
g24
tp1110
Rp1111
(I1
(I3
tp1112
g235
I00
S'\xec\x12\xec\x03\xdea\xe9?<\xa5t\x82\x15\x9b\x0e\xc0L\xf0\xe0\xffy\x10\xf5\xbf'
p1113
tp1114
bag21
(g22
(I0
tp1115
g24
tp1116
Rp1117
(I1
(I3
tp1118
g235
I00
S'\xb0E\xbb;Cb\xeb?\x9e\xde\xa7\xdd\xbdd\x12\xc0\xc6\xee\xbd\x16\x8c\xaa\xf3\xbf'
p1119
tp1120
bag21
(g22
(I0
tp1121
g24
tp1122
Rp1123
(I1
(I3
tp1124
g235
I00
S'tx\x8as\xa8b\xed?\x9ej\x15\xfa\xf0{\x15\xc0@\xed\x9a-\x9eD\xf2\xbf'
p1125
tp1126
bag21
(g22
(I0
tp1127
g24
tp1128
Rp1129
(I1
(I3
tp1130
g235
I00
S'\xc2:\x1b=\xad,\xfa?(\x190\xa5<\xab\x16\xc0\x9d\x91\xdc8Kq\x01@'
p1131
tp1132
bag21
(g22
(I0
tp1133
g24
tp1134
Rp1135
(I1
(I3
tp1136
g235
I00
S'\xf60LV\xe8\x96\x00@\x9aEw{a\xe2\x18\xc0^\xa8\x8a,\xa3\x98\x00@'
p1137
tp1138
bag21
(g22
(I0
tp1139
g24
tp1140
Rp1141
(I1
(I3
tp1142
g235
I00
S'\xca\xbc\xd1\x14\xab\xdb\x03@\x1d\xe31\xd0\xab\xb7\x1a\xc0\xbe\x9cO\xe2\x184\x13@'
p1143
tp1144
bag1074
asbsg57
(itrajectory_representation.operator
Operator
p1145
(dp1146
g8
I01
sg9
(dp1147
g11
g57
ssg16
S'two_arm_pick'
p1148
sg18
(dp1149
g20
g21
(g22
(I0
tp1150
g24
tp1151
Rp1152
(I1
(I3
tp1153
g31
I00
S'\x91\x86\xcf\x98\x85\xd9\xfd?\x0f9\x93 \x92W\x16\xc0\x7fJ\xc1\xb2\x1b\xda\x06@'
p1154
tp1155
bssg46
(lp1156
g21
(g22
(I0
tp1157
g24
tp1158
Rp1159
(I1
(I3
tp1160
g224
I00
S'\xc0b>\xf1\xa9]\xe1?\x1b-I\xc4\xaeB \xc0\xb2\xaa/L\x8f\\\xf7?'
p1161
tp1162
bag21
(g22
(I0
tp1163
g24
tp1164
Rp1165
(I1
(I3
tp1166
g235
I00
S'\xb9J\x81M;\x1a\xf3?^=\n\xa9\xb3\x0b\x1f\xc0\xc6oP\x041\xe5\xe2?'
p1167
tp1168
bag21
(g22
(I0
tp1169
g24
tp1170
Rp1171
(I1
(I3
tp1172
g235
I00
S'\xad\xa0\xdfFH\xe9\xf6?\xa3\xfc\x14D\x8bb\x1d\xc0\x9e2hH\xc0\xe5\xf0?'
p1173
tp1174
bag21
(g22
(I0
tp1175
g24
tp1176
Rp1177
(I1
(I3
tp1178
g235
I00
S'JyH\x8ez\xd6\xfa?\xb3\xf7h\x83\xea\xba\x1a\xc0u\xf9Uf\xb7m\xe0?'
p1179
tp1180
bag21
(g22
(I0
tp1181
g24
tp1182
Rp1183
(I1
(I3
tp1184
g235
I00
S'\xa1\x0f=\xe0\x1aF\xfc?e&S\xf6\xb5\xfc\x17\xc0s\xad\xdc\xd8h\x9b\x04\xc0'
p1185
tp1186
bag1152
asbsg12
(itrajectory_representation.operator
Operator
p1187
(dp1188
g8
I01
sg9
(dp1189
g11
g12
ssg16
g1148
sg18
(dp1190
g20
g21
(g22
(I0
tp1191
g24
tp1192
Rp1193
(I1
(I3
tp1194
g31
I00
S'\xcb\x03:\x15[\xc1\xf4?\xd9\xbeC\xa0\xfe; \xc0\xb2\x1cX\x99\x9f5\xfc?'
p1195
tp1196
bssg46
(lp1197
g21
(g22
(I0
tp1198
g24
tp1199
Rp1200
(I1
(I3
tp1201
g224
I00
S'\xc0b>\xf1\xa9]\xe1?\x1b-I\xc4\xaeB \xc0\xb2\xaa/L\x8f\\\xf7?'
p1202
tp1203
bag1193
asbssS'mc_paths'
p1204
(dp1205
sS'robot'
p1206
NsS'reachable_obj_region_pairs'
p1207
(lp1208
sS'sampled_pick_configs_for_objects'
p1209
(dp1210
sS'mc_calls'
p1211
I0
sS'pick_poses'
p1212
g703
sS'problem_env'
p1213
NsS'evaluations'
p1214
(dp1215
(g459
g573
g215
tp1216
I00
s(g573
g516
g215
tp1217
I00
s(g345
g459
g215
tp1218
I00
s(g516
g414
g215
tp1219
I01
s(g282
g459
g215
tp1220
I00
s(g414
g214
g215
tp1221
I00
s(g516
g573
g215
tp1222
I00
s(g345
g282
g215
tp1223
I00
s(g459
g414
g215
tp1224
I01
s(g459
g214
g215
tp1225
I01
s(g345
g516
g215
tp1226
I01
s(g516
g214
g215
tp1227
I01
s(g282
g516
g215
tp1228
I00
s(g414
g573
g215
tp1229
I00
s(g516
g282
g215
tp1230
I01
s(g573
Vrectangular_packing_box1
p1231
g215
tp1232
I00
s(g214
g414
g215
tp1233
I01
s(g282
g1231
g215
tp1234
I01
s(g516
g345
g215
tp1235
I00
s(g573
g414
g215
tp1236
I01
s(g214
g345
g215
tp1237
I00
s(g573
g282
g215
tp1238
I00
s(g345
g1231
g215
tp1239
I01
s(g414
g1231
g215
tp1240
I01
s(g214
g516
g215
tp1241
I00
s(g214
g1231
g215
tp1242
I01
s(g516
g1231
g215
tp1243
I01
s(g282
g573
g215
tp1244
I00
s(g345
g573
g215
tp1245
I00
s(g459
g1231
g215
tp1246
I01
s(g282
g345
g215
tp1247
I00
s(g214
g282
g215
tp1248
I00
s(g459
g345
g215
tp1249
I00
s(g516
g459
g215
tp1250
I00
s(g414
g459
g215
tp1251
I00
s(g459
g282
g215
tp1252
I01
s(g282
g214
g215
tp1253
I00
s(g414
g516
g215
tp1254
I00
s(g459
g516
g215
tp1255
I00
s(g345
g214
g215
tp1256
I00
s(g214
g573
g215
tp1257
I00
s(g573
g459
g215
tp1258
I00
s(g345
g414
g215
tp1259
I01
s(g414
g282
g215
tp1260
I00
s(g282
g414
g215
tp1261
I01
s(g414
g345
g215
tp1262
I00
s(g573
g345
g215
tp1263
I00
s(g214
g459
g215
tp1264
I01
s(g573
g214
g215
tp1265
I00
ssS'paths_to_reachable_entities'
p1266
NsS'use_shortest_path'
p1267
I01
sbsS'ternary_edges'
p1268
(dp1269
(g573
g573
g215
tp1270
(lp1271
I00
as(g414
S'loading_region'
p1272
g1272
tp1273
(lp1274
I00
as(S'entire_region'
p1275
g1231
g215
tp1276
(lp1277
I00
as(g459
g282
g1272
tp1278
(lp1279
I00
as(g215
g215
g215
tp1280
(lp1281
I00
as(g282
g573
g1272
tp1282
(lp1283
I00
as(g414
g214
g215
tp1284
(lp1285
I00
as(g215
g345
g215
tp1286
(lp1287
I00
as(g459
g414
g215
tp1288
(lp1289
I01
as(g214
g345
g1272
tp1290
(lp1291
I00
as(g215
g282
g1272
tp1292
(lp1293
I00
as(g459
g1275
g215
tp1294
(lp1295
I00
as(g1272
g215
g1272
tp1296
(lp1297
I00
as(g345
g516
g215
tp1298
(lp1299
I01
as(g282
g1275
g215
tp1300
(lp1301
I00
as(g459
g1231
g1272
tp1302
(lp1303
I00
as(g516
g1272
g215
tp1304
(lp1305
I00
as(g1275
g573
g1272
tp1306
(lp1307
I00
as(g215
g1275
g215
tp1308
(lp1309
I00
as(g573
g1272
g215
tp1310
(lp1311
I00
as(g516
g1275
g215
tp1312
(lp1313
I00
as(g414
g414
g1272
tp1314
(lp1315
I00
as(g1272
g282
g1272
tp1316
(lp1317
I00
as(g1275
g1272
g215
tp1318
(lp1319
I00
as(g1275
g459
g215
tp1320
(lp1321
I00
as(g1272
g1272
g215
tp1322
(lp1323
I00
as(g516
g345
g1272
tp1324
(lp1325
I00
as(g215
g215
g1272
tp1326
(lp1327
I00
as(g1231
g459
g1272
tp1328
(lp1329
I00
as(g573
g282
g215
tp1330
(lp1331
I00
as(g516
g414
g215
tp1332
(lp1333
I01
as(g1231
g215
g1272
tp1334
(lp1335
I00
as(g215
g573
g1272
tp1336
(lp1337
I00
as(g1231
g214
g1272
tp1338
(lp1339
I00
as(g214
g1231
g215
tp1340
(lp1341
I01
as(g1272
g414
g1272
tp1342
(lp1343
I00
as(g282
g459
g1272
tp1344
(lp1345
I00
as(g573
g573
g1272
tp1346
(lp1347
I00
as(g1275
g282
g215
tp1348
(lp1349
I00
as(g1272
g215
g215
tp1350
(lp1351
I00
as(g345
g573
g215
tp1352
(lp1353
I00
as(g215
g214
g215
tp1354
(lp1355
I00
as(g459
g1231
g215
tp1356
(lp1357
I01
as(g214
g282
g215
tp1358
(lp1359
I00
as(g414
g214
g1272
tp1360
(lp1361
I00
as(g516
g459
g215
tp1362
(lp1363
I00
as(g459
g414
g1272
tp1364
(lp1365
I00
as(g459
g573
g1272
tp1366
(lp1367
I00
as(g1275
g459
g1272
tp1368
(lp1369
I00
as(g1272
g214
g1272
tp1370
(lp1371
I00
as(g1275
g215
g215
tp1372
(lp1373
I00
as(g345
g215
g215
tp1374
(lp1375
I00
as(g1272
g1275
g215
tp1376
(lp1377
I00
as(g573
g282
g1272
tp1378
(lp1379
I00
as(g516
g573
g1272
tp1380
(lp1381
I00
as(g516
g516
g215
tp1382
(lp1383
I00
as(g1231
g214
g215
tp1384
(lp1385
I00
as(g1275
g573
g215
tp1386
(lp1387
I00
as(g1231
g1272
g1272
tp1388
(lp1389
I00
as(g282
g414
g215
tp1390
(lp1391
I01
as(g414
g414
g215
tp1392
(lp1393
I00
as(g414
g345
g215
tp1394
(lp1395
I00
as(g345
g573
g1272
tp1396
(lp1397
I00
as(g282
g1231
g1272
tp1398
(lp1399
I00
as(g516
g345
g215
tp1400
(lp1401
I00
as(g1231
g459
g215
tp1402
(lp1403
I00
as(g573
g1231
g1272
tp1404
(lp1405
I00
as(g1231
g215
g215
tp1406
(lp1407
I00
as(g459
g573
g215
tp1408
(lp1409
I00
as(g573
g516
g215
tp1410
(lp1411
I00
as(g214
g1231
g1272
tp1412
(lp1413
I00
as(g215
g459
g1272
tp1414
(lp1415
I00
as(g1275
g215
g1272
tp1416
(lp1417
I00
as(g1275
g282
g1272
tp1418
(lp1419
I00
as(g516
g573
g215
tp1420
(lp1421
I00
as(g214
g516
g1272
tp1422
(lp1423
I00
as(g573
g1275
g1272
tp1424
(lp1425
I00
as(g1231
g1272
g215
tp1426
(lp1427
I00
as(g516
g459
g1272
tp1428
(lp1429
I00
as(g516
g1231
g1272
tp1430
(lp1431
I00
as(g282
g414
g1272
tp1432
(lp1433
I00
as(g215
g214
g1272
tp1434
(lp1435
I00
as(g1275
g516
g1272
tp1436
(lp1437
I00
as(g1272
g214
g215
tp1438
(lp1439
I00
as(g1272
g459
g1272
tp1440
(lp1441
I00
as(g573
g1231
g215
tp1442
(lp1443
I00
as(g282
g1231
g215
tp1444
(lp1445
I01
as(g1272
g516
g215
tp1446
(lp1447
I00
as(g573
g516
g1272
tp1448
(lp1449
I00
as(g573
g345
g1272
tp1450
(lp1451
I00
as(g214
g282
g1272
tp1452
(lp1453
I00
as(g414
g345
g1272
tp1454
(lp1455
I00
as(g1231
g516
g1272
tp1456
(lp1457
I00
as(g215
g414
g1272
tp1458
(lp1459
I00
as(g214
g1272
g1272
tp1460
(lp1461
I00
as(g345
g215
g1272
tp1462
(lp1463
I00
as(g414
g1231
g215
tp1464
(lp1465
I01
as(g573
g1275
g215
tp1466
(lp1467
I00
as(g345
g459
g1272
tp1468
(lp1469
I00
as(g214
g573
g1272
tp1470
(lp1471
I00
as(g516
g1231
g215
tp1472
(lp1473
I01
as(g282
g1272
g1272
tp1474
(lp1475
I00
as(g459
g215
g215
tp1476
(lp1477
I00
as(g282
g345
g215
tp1478
(lp1479
I00
as(g215
g516
g1272
tp1480
(lp1481
I00
as(g1272
g1231
g1272
tp1482
(lp1483
I00
as(g1272
g516
g1272
tp1484
(lp1485
I00
as(g414
g516
g215
tp1486
(lp1487
I00
as(g1231
g516
g215
tp1488
(lp1489
I00
as(g414
g1231
g1272
tp1490
(lp1491
I00
as(g214
g573
g215
tp1492
(lp1493
I00
as(g573
g459
g215
tp1494
(lp1495
I00
as(g214
g215
g1272
tp1496
(lp1497
I00
as(g282
g1272
g215
tp1498
(lp1499
I00
as(g1272
g345
g1272
tp1500
(lp1501
I00
as(g573
g345
g215
tp1502
(lp1503
I00
as(g214
g214
g215
tp1504
(lp1505
I00
as(g345
g345
g215
tp1506
(lp1507
I00
as(g345
g214
g1272
tp1508
(lp1509
I00
as(g214
g1272
g215
tp1510
(lp1511
I00
as(g516
g282
g215
tp1512
(lp1513
I01
as(g345
g459
g215
tp1514
(lp1515
I00
as(g459
g1272
g1272
tp1516
(lp1517
I00
as(g214
g1275
g1272
tp1518
(lp1519
I00
as(g459
g215
g1272
tp1520
(lp1521
I00
as(g414
g459
g1272
tp1522
(lp1523
I00
as(g282
g345
g1272
tp1524
(lp1525
I00
as(g516
g215
g1272
tp1526
(lp1527
I00
as(g214
g215
g215
tp1528
(lp1529
I00
as(g1272
g345
g215
tp1530
(lp1531
I00
as(g1231
g1231
g215
tp1532
(lp1533
I00
as(g1272
g282
g215
tp1534
(lp1535
I00
as(g282
g516
g215
tp1536
(lp1537
I00
as(g414
g573
g215
tp1538
(lp1539
I00
as(g414
g516
g1272
tp1540
(lp1541
I00
as(g345
g414
g1272
tp1542
(lp1543
I00
as(g215
g459
g215
tp1544
(lp1545
I00
as(g1275
g214
g1272
tp1546
(lp1547
I00
as(g214
g414
g215
tp1548
(lp1549
I01
as(g1231
g1275
g215
tp1550
(lp1551
I00
as(g516
g282
g1272
tp1552
(lp1553
I00
as(g516
g214
g1272
tp1554
(lp1555
I00
as(g345
g1231
g215
tp1556
(lp1557
I01
as(g573
g459
g1272
tp1558
(lp1559
I00
as(g345
g1272
g215
tp1560
(lp1561
I00
as(g214
g1275
g215
tp1562
(lp1563
I00
as(g282
g214
g1272
tp1564
(lp1565
I00
as(g573
g414
g215
tp1566
(lp1567
I01
as(g516
g414
g1272
tp1568
(lp1569
I00
as(g282
g282
g1272
tp1570
(lp1571
I00
as(g345
g345
g1272
tp1572
(lp1573
I00
as(g1231
g1231
g1272
tp1574
(lp1575
I00
as(g414
g282
g1272
tp1576
(lp1577
I00
as(g282
g459
g215
tp1578
(lp1579
I00
as(g1275
g414
g215
tp1580
(lp1581
I00
as(g215
g1275
g1272
tp1582
(lp1583
I00
as(g215
g1231
g1272
tp1584
(lp1585
I00
as(g459
g1272
g215
tp1586
(lp1587
I00
as(g414
g573
g1272
tp1588
(lp1589
I00
as(g1231
g414
g1272
tp1590
(lp1591
I00
as(g214
g214
g1272
tp1592
(lp1593
I00
as(g1275
g214
g215
tp1594
(lp1595
I00
as(g459
g214
g1272
tp1596
(lp1597
I00
as(g1231
g1275
g1272
tp1598
(lp1599
I00
as(g414
g459
g215
tp1600
(lp1601
I00
as(g345
g1231
g1272
tp1602
(lp1603
I00
as(g345
g214
g215
tp1604
(lp1605
I00
as(g282
g214
g215
tp1606
(lp1607
I00
as(g414
g215
g1272
tp1608
(lp1609
I00
as(g459
g516
g215
tp1610
(lp1611
I00
as(g516
g516
g1272
tp1612
(lp1613
I00
as(g345
g1275
g215
tp1614
(lp1615
I00
as(g1272
g1275
g1272
tp1616
(lp1617
I00
as(g282
g516
g1272
tp1618
(lp1619
I00
as(g1272
g1231
g215
tp1620
(lp1621
I00
as(g1275
g1275
g1272
tp1622
(lp1623
I00
as(g345
g414
g215
tp1624
(lp1625
I01
as(g414
g282
g215
tp1626
(lp1627
I00
as(g1272
g573
g1272
tp1628
(lp1629
I00
as(g214
g414
g1272
tp1630
(lp1631
I00
as(g516
g215
g215
tp1632
(lp1633
I00
as(g1275
g414
g1272
tp1634
(lp1635
I00
as(g516
g214
g215
tp1636
(lp1637
I01
as(g214
g459
g215
tp1638
(lp1639
I01
as(g345
g1272
g1272
tp1640
(lp1641
I00
as(g573
g414
g1272
tp1642
(lp1643
I00
as(g1231
g573
g215
tp1644
(lp1645
I00
as(g1275
g1272
g1272
tp1646
(lp1647
I00
as(g1272
g573
g215
tp1648
(lp1649
I00
as(g414
g1275
g215
tp1650
(lp1651
I00
as(g459
g516
g1272
tp1652
(lp1653
I00
as(g459
g345
g1272
tp1654
(lp1655
I00
as(g282
g215
g215
tp1656
(lp1657
I00
as(g345
g1275
g1272
tp1658
(lp1659
I00
as(g345
g282
g215
tp1660
(lp1661
I00
as(g1275
g345
g1272
tp1662
(lp1663
I00
as(g215
g1231
g215
tp1664
(lp1665
I00
as(g215
g516
g215
tp1666
(lp1667
I00
as(g1231
g414
g215
tp1668
(lp1669
I00
as(g1231
g345
g215
tp1670
(lp1671
I00
as(g1275
g516
g215
tp1672
(lp1673
I00
as(g459
g214
g215
tp1674
(lp1675
I01
as(g459
g459
g1272
tp1676
(lp1677
I00
as(g1231
g282
g1272
tp1678
(lp1679
I00
as(g282
g215
g1272
tp1680
(lp1681
I00
as(g573
g215
g215
tp1682
(lp1683
I00
as(g414
g215
g215
tp1684
(lp1685
I00
as(g1231
g573
g1272
tp1686
(lp1687
I00
as(g282
g573
g215
tp1688
(lp1689
I00
as(g215
g1272
g215
tp1690
(lp1691
I00
as(g1275
g1275
g215
tp1692
(lp1693
I00
as(g573
g214
g1272
tp1694
(lp1695
I00
as(g414
g1275
g1272
tp1696
(lp1697
I00
as(g1272
g459
g215
tp1698
(lp1699
I00
as(g214
g345
g215
tp1700
(lp1701
I00
as(g1275
g345
g215
tp1702
(lp1703
I00
as(g414
g1272
g215
tp1704
(lp1705
I00
as(g214
g459
g1272
tp1706
(lp1707
I00
as(g215
g414
g215
tp1708
(lp1709
I00
as(g1275
g1231
g1272
tp1710
(lp1711
I00
as(g282
g1275
g1272
tp1712
(lp1713
I00
as(g459
g459
g215
tp1714
(lp1715
I00
as(g1231
g282
g215
tp1716
(lp1717
I00
as(g516
g1275
g1272
tp1718
(lp1719
I00
as(g459
g345
g215
tp1720
(lp1721
I00
as(g215
g282
g215
tp1722
(lp1723
I00
as(g214
g516
g215
tp1724
(lp1725
I00
as(g345
g282
g1272
tp1726
(lp1727
I00
as(g282
g282
g215
tp1728
(lp1729
I00
as(g1231
g345
g1272
tp1730
(lp1731
I00
as(g459
g282
g215
tp1732
(lp1733
I01
as(g516
g1272
g1272
tp1734
(lp1735
I00
as(g215
g573
g215
tp1736
(lp1737
I00
as(g573
g1272
g1272
tp1738
(lp1739
I00
as(g215
g345
g1272
tp1740
(lp1741
I00
as(g573
g215
g1272
tp1742
(lp1743
I00
as(g1272
g1272
g1272
tp1744
(lp1745
I00
as(g459
g1275
g1272
tp1746
(lp1747
I00
as(g345
g516
g1272
tp1748
(lp1749
I00
as(g215
g1272
g1272
tp1750
(lp1751
I00
as(g573
g214
g215
tp1752
(lp1753
I00
as(g1272
g414
g215
tp1754
(lp1755
I00
assg702
g703
sS'use_prm'
p1756
I01
sS'object_names'
p1757
(lp1758
S'square_packing_box1'
p1759
aS'rectangular_packing_box1'
p1760
aS'square_packing_box2'
p1761
aS'rectangular_packing_box2'
p1762
aS'square_packing_box3'
p1763
aS'rectangular_packing_box3'
p1764
aS'square_packing_box4'
p1765
aS'rectangular_packing_box4'
p1766
asg1213
NsS'current_holding_collides'
p1767
NsS'object_poses'
p1768
(dp1769
Vrectangular_packing_box4
p1770
g21
(g22
(I0
tp1771
g24
tp1772
Rp1773
(I1
(I1
I3
tp1774
g224
I00
S'\x079\x1f\x16X\xb0\n@\xa2\xa4q^\x94\x13\x1d\xc0M\xeb\x0c\xccLN\x03@'
p1775
tp1776
bsVrectangular_packing_box2
p1777
g21
(g22
(I0
tp1778
g24
tp1779
Rp1780
(I1
(I1
I3
tp1781
g224
I00
S'[\x8e\x84\xb4\xa6\x89\r@\x1c\x17f\xb4\xdbK\x1a\xc0\xd6C,\xd4-\xdf\xfa?'
p1782
tp1783
bsVrectangular_packing_box3
p1784
g21
(g22
(I0
tp1785
g24
tp1786
Rp1787
(I1
(I1
I3
tp1788
g224
I00
S'\x10C\x00\xda\xc5g\xd0?\xdf\x1cj\xd5\xdc\xae\x1a\xc0\x03\xff\x04\rz\xc0\xf1?'
p1789
tp1790
bsVrectangular_packing_box1
p1791
g21
(g22
(I0
tp1792
g24
tp1793
Rp1794
(I1
(I1
I3
tp1795
g224
I00
S'\xf3\x00d\xadN\x82\xf2?\xf8\xc6\x85\xd55\xd2\x18\xc0Z\xde\x93D\xc1n\x00@'
p1796
tp1797
bsVsquare_packing_box2
p1798
g21
(g22
(I0
tp1799
g24
tp1800
Rp1801
(I1
(I1
I3
tp1802
g224
I00
S'\xf5j\xe5z\x85a\xdd\xbfe\xa5\x91/\xa7V\x1f\xc0\xa7\xeb\xe9\xf6?\xe6\x12@'
p1803
tp1804
bsVsquare_packing_box3
p1805
g21
(g22
(I0
tp1806
g24
tp1807
Rp1808
(I1
(I1
I3
tp1809
g224
I00
S'\x8c\x9d8\xd3t\xd2\x02@\xde\x0b\xd3\x89h\x1a\x1f\xc0\xb4\xd7\xc2\x9c\x9c(\xe1?'
p1810
tp1811
bsVsquare_packing_box1
p1812
g21
(g22
(I0
tp1813
g24
tp1814
Rp1815
(I1
(I1
I3
tp1816
g224
I00
S'(\xe4\xe4^\xbeS\xf3?B\xd1\xcbf(\x9d\x15\xc0u\xa0\xf6L\xf8q\x16@'
p1817
tp1818
bsVsquare_packing_box4
p1819
g21
(g22
(I0
tp1820
g24
tp1821
Rp1822
(I1
(I1
I3
tp1823
g224
I00
S"Hv\x05\xfb\t\xde\xf3?\xd65\x94\x9c5\xd8\x1d\xc0\xd3'L\x89\xb8f\x0c@"
p1824
tp1825
bssS'reachable_regions_while_holding'
p1826
(lp1827
(g704
g1272
tp1828
a(g782
g1272
tp1829
a(g856
g1272
tp1830
a(g918
g1272
tp1831
a(g666
g1272
tp1832
a(g1065
g1272
tp1833
a(g57
g1272
tp1834
a(g12
g1272
tp1835
a(g918
g215
tp1836
asS'in_region'
p1837
(itrajectory_representation.predicates.in_region
InRegion
p1838
(dp1839
g1213
NsbsS'cached_pick_paths'
p1840
(dp1841
g704
(lp1842
g21
(g22
(I0
tp1843
g24
tp1844
Rp1845
(I1
(I3
tp1846
g224
I00
S'\xc0b>\xf1\xa9]\xe1?\x1b-I\xc4\xaeB \xc0\xb2\xaa/L\x8f\\\xf7?'
p1847
tp1848
bag21
(g22
(I0
tp1849
g24
tp1850
Rp1851
(I1
(I3
tp1852
g235
I00
S"\xc6S\x92\x8e7i\xef?H}'\xb2\xea\x03\x1f\xc0\x1e\xe8\x98\xe5\t\x12\xf4?"
p1853
tp1854
bag21
(g22
(I0
tp1855
g24
tp1856
Rp1857
(I1
(I3
tp1858
g235
I00
S'\xad\xa0\xdfFH\xe9\xf6?\xa3\xfc\x14D\x8bb\x1d\xc0\x9e2hH\xc0\xe5\xf0?'
p1859
tp1860
bag21
(g22
(I0
tp1861
g24
tp1862
Rp1863
(I1
(I3
tp1864
g235
I00
S'\xb9O\xa7Y\x02\x91\x00@\x96d\x95\x0e\xe6\xda\x1e\xc0l\xef\x8e\x11Rk\xeb?'
p1865
tp1866
bag716
asg782
(lp1867
g21
(g22
(I0
tp1868
g24
tp1869
Rp1870
(I1
(I3
tp1871
g224
I00
S'\xc0b>\xf1\xa9]\xe1?\x1b-I\xc4\xaeB \xc0\xb2\xaa/L\x8f\\\xf7?'
p1872
tp1873
bag21
(g22
(I0
tp1874
g24
tp1875
Rp1876
(I1
(I3
tp1877
g235
I00
S'\xb9J\x81M;\x1a\xf3?^=\n\xa9\xb3\x0b\x1f\xc0\xc6oP\x041\xe5\xe2?'
p1878
tp1879
bag21
(g22
(I0
tp1880
g24
tp1881
Rp1882
(I1
(I3
tp1883
g235
I00
S'\xad\xa0\xdfFH\xe9\xf6?\xa3\xfc\x14D\x8bb\x1d\xc0\x9e2hH\xc0\xe5\xf0?'
p1884
tp1885
bag21
(g22
(I0
tp1886
g24
tp1887
Rp1888
(I1
(I3
tp1889
g235
I00
S'b\x95[\xf7r*\x00@:\x8f7a\xbf]\x1c\xc0\x98.\xce\xc6\x89M\xf2?'
p1890
tp1891
bag21
(g22
(I0
tp1892
g24
tp1893
Rp1894
(I1
(I3
tp1895
g235
I00
S'\xc3#\x9b"m=\x05@O\x1c\xaf\xffo\x1c\x1b\xc0\xa4\xc19\xdd\xaa\xea\xdd?'
p1896
tp1897
bag797
asg856
(lp1898
g21
(g22
(I0
tp1899
g24
tp1900
Rp1901
(I1
(I3
tp1902
g224
I00
S'\xc0b>\xf1\xa9]\xe1?\x1b-I\xc4\xaeB \xc0\xb2\xaa/L\x8f\\\xf7?'
p1903
tp1904
bag21
(g22
(I0
tp1905
g24
tp1906
Rp1907
(I1
(I3
tp1908
g235
I00
S'\xc4n\xb3\xbcO\x07\xe0?\xd0\x17\x1bE\xa1\xce\x1d\xc0\x95\xcf\xf4\xdc\x03J\xf9?'
p1909
tp1910
bag21
(g22
(I0
tp1911
g24
tp1912
Rp1913
(I1
(I3
tp1914
g235
I00
S'T\xf4\x83\x991=\xc7\xbf)+n\x89\xcd2\x1e\xc0\x80\x05\x9d\xd4\xb9\x87\xfa?'
p1915
tp1916
bag865
asg918
(lp1917
g21
(g22
(I0
tp1918
g24
tp1919
Rp1920
(I1
(I3
tp1921
g224
I00
S'\xc0b>\xf1\xa9]\xe1?\x1b-I\xc4\xaeB \xc0\xb2\xaa/L\x8f\\\xf7?'
p1922
tp1923
bag21
(g22
(I0
tp1924
g24
tp1925
Rp1926
(I1
(I3
tp1927
g235
I00
S'\xdb\xee8\xd0\xa2\xfd\xc5?\xb2\x0e(\xac\xe3\xcd\x1d\xc0a\xbax\xf1*\x16\x01@'
p1928
tp1929
bag21
(g22
(I0
tp1930
g24
tp1931
Rp1932
(I1
(I3
tp1933
g235
I00
S"f'\x1d)\\\x10\xe6?I\x87\x7f\xab\xf9\x9f\x1b\xc0\x90\xd8HX\xe5\x0e\x04@"
p1934
tp1935
bag21
(g22
(I0
tp1936
g24
tp1937
Rp1938
(I1
(I3
tp1939
g235
I00
S'\x94<e\xf2\x0c\xec\xce?\x96\x12\xae\x90\xe8(\x19\xc0\x0c\n*\xba\xfbb\x16@'
p1940
tp1941
bag927
asg666
(lp1942
g21
(g22
(I0
tp1943
g24
tp1944
Rp1945
(I1
(I3
tp1946
g224
I00
S'\xc0b>\xf1\xa9]\xe1?\x1b-I\xc4\xaeB \xc0\xb2\xaa/L\x8f\\\xf7?'
p1947
tp1948
bag21
(g22
(I0
tp1949
g24
tp1950
Rp1951
(I1
(I3
tp1952
g235
I00
S'\x19Q5\xf7|.\xd4?\xf2\xca\xbb\n\x90\xe7\x1f\xc0,\xe0Dp\x8d\xe5\xe6?'
p1953
tp1954
bag21
(g22
(I0
tp1955
g24
tp1956
Rp1957
(I1
(I3
tp1958
g235
I00
S'F\xec\x9enB\xa6\xc0?\xd9\x05\xaf\xdc\xd3\xdd\x1d\xc0\x9b.r\x0fP\xcf\x12@'
p1959
tp1960
bag982
asg1065
(lp1961
g21
(g22
(I0
tp1962
g24
tp1963
Rp1964
(I1
(I3
tp1965
g224
I00
S'\xc0b>\xf1\xa9]\xe1?\x1b-I\xc4\xaeB \xc0\xb2\xaa/L\x8f\\\xf7?'
p1966
tp1967
bag21
(g22
(I0
tp1968
g24
tp1969
Rp1970
(I1
(I3
tp1971
g235
I00
S'\xc4n\xb3\xbcO\x07\xe0?\xd0\x17\x1bE\xa1\xce\x1d\xc0\x95\xcf\xf4\xdc\x03J\xf9?'
p1972
tp1973
bag21
(g22
(I0
tp1974
g24
tp1975
Rp1976
(I1
(I3
tp1977
g235
I00
S"\x16\x94\x96'9\xeb\xf2?\xa16\xd9K\xf3\xbe\x1d\xc0T\x83\x00\xa9\xa7I\xf0\xbf"
p1978
tp1979
bag1074
asg57
g1156
sg12
g1197
ssg667
(dp1980
(Vrectangular_packing_box2
p1981
(cnumpy.core.multiarray
scalar
p1982
(g224
S'\xa50\xefq\xa6\x89\r@'
p1983
tp1984
Rp1985
g1982
(g224
S'\x96&\xa5\xa0\xdbK\x1a\xc0'
p1986
tp1987
Rp1988
g1982
(g224
S'\x18\xea\xb0\xc2-\xdf\xfa?'
p1989
tp1990
Rp1991
tp1992
tp1993
g677
s(Vsquare_packing_box3
p1994
(g1982
(g224
S'#,*\xe2t\xd2\x02@'
p1995
tp1996
Rp1997
g1982
(g224
S'\xdcb~nh\x1a\x1f\xc0'
p1998
tp1999
Rp2000
g1982
(g224
S'W\\\x1c\x95\x9b(\xe1?'
p2001
tp2002
Rp2003
tp2004
tp2005
g693
s(Vrectangular_packing_box1
p2006
(g1982
(g224
S'\x02g)YN\x82\xf2?'
p2007
tp2008
Rp2009
g1982
(g224
S'\xf6\xb2\xed\xb45\xd2\x18\xc0'
p2010
tp2011
Rp2012
g1982
(g224
S'\x02\xf1\xba~\xc1n\x00@'
p2013
tp2014
Rp2015
tp2016
tp2017
g685
s(Vrectangular_packing_box3
p2018
(g1982
(g224
S'S\x95\xb6\xb8\xc6g\xd0?'
p2019
tp2020
Rp2021
g1982
(g224
S'*V\r\xc2\xdc\xae\x1a\xc0'
p2022
tp2023
Rp2024
g1982
(g224
S"'M\x83\xa2y\xc0\xf1?"
p2025
tp2026
Rp2027
tp2028
tp2029
g681
s(Vrectangular_packing_box4
p2030
(g1982
(g224
S'>\xea\xafWX\xb0\n@'
p2031
tp2032
Rp2033
g1982
(g224
S'\xd2\xaa\x96t\x94\x13\x1d\xc0'
p2034
tp2035
Rp2036
g1982
(g224
S'\x0eI-\x94LN\x03@'
p2037
tp2038
Rp2039
tp2040
tp2041
g673
s(Vsquare_packing_box2
p2042
(g1982
(g224
S'u!V\x7f\x84a\xdd\xbf'
p2043
tp2044
Rp2045
g1982
(g224
S'\xa5\x16J&\xa7V\x1f\xc0'
p2046
tp2047
Rp2048
g1982
(g224
S'E\xa1e\xdd?\xe6\x12@'
p2049
tp2050
Rp2051
tp2052
tp2053
g689
s(Vsquare_packing_box1
p2054
(g1982
(g224
S'\x16\xde\xe5"\xbeS\xf3?'
p2055
tp2056
Rp2057
g1982
(g224
S'-%\xcbI(\x9d\x15\xc0'
p2058
tp2059
Rp2060
g1982
(g224
S']Ot]\xf8q\x16@'
p2061
tp2062
Rp2063
tp2064
tp2065
g697
s(Vsquare_packing_box4
p2066
(g1982
(g224
S'\xbfa\xa2A\n\xde\xf3?'
p2067
tp2068
Rp2069
g1982
(g224
S'\x85?\xc3\x9b5\xd8\x1d\xc0'
p2070
tp2071
Rp2072
g1982
(g224
S'\xe3R\x95\xb6\xb8f\x0c@'
p2073
tp2074
Rp2075
tp2076
tp2077
g701
ssS'state_saver'
p2078
(igtamp_utils.utils
CustomStateSaver
p2079
(dp2080
S'robot_base_pose'
p2081
g21
(g22
(I0
tp2082
g24
tp2083
Rp2084
(I1
(I1
I3
tp2085
g224
I00
S'\x8bb>\xf1\xa9]\xe1?\x1d-I\xc4\xaeB \xc0\xb2\xaa/L\x8f\\\xf7?'
p2086
tp2087
bsS'held_object'
p2088
NsS'robot_name'
p2089
S'pr2'
p2090
sS'env_id'
p2091
I1
sg1768
(dp2092
Vright_wall_1
p2093
g21
(g22
(I0
tp2094
g24
tp2095
Rp2096
(I1
(I4
tp2097
g224
I00
S'H\xe1z\x14\xaeG\x12@&\\\x8f\xc2\xf5(\xd4\xbf\xcc\x7fH\xbf}\x1d\xed?\x00\x00\x00\x00\x00\x00\x00\x00'
p2098
tp2099
bsVc_obst5
p2100
g21
(g22
(I0
tp2101
g24
tp2102
Rp2103
(I1
(I4
tp2104
g224
I00
S"\x94\x89\x1b17\x17\x12@\xd0:e\x1b\x11\x99\xb4\xbfe\xaa`TR'\xed?7}$FH;\x05@"
p2105
tp2106
bsVentrance_right
p2107
g21
(g22
(I0
tp2108
g24
tp2109
Rp2110
(I1
(I4
tp2111
g224
I00
S'ffffff\n@H\xe1z\x14\xaeG\t\xc0\x9c\xc4 \xb0rh\xc1?\x00\x00\x00\x00\x00\x00\x00\x00'
p2112
tp2113
bsVcomputer_table
p2114
g21
(g22
(I0
tp2115
g24
tp2116
Rp2117
(I1
(I4
tp2118
g224
I00
S'\x00\x00\x00\x00\x00\x00\x13@\x00\x00\x00\x00\x00\x00\xf8\xbf\x96C\x8bl\xe7\xfb\xe7?\xd2!3\x7f|\xd9\x12@'
p2119
tp2120
bsVchair_6b56
p2121
g21
(g22
(I0
tp2122
g24
tp2123
Rp2124
(I1
(I4
tp2125
g224
I00
S'u=\n\xd7\xa3p\xf5?K\xe1z\x14\xaeG\xd1?\x00\x00\x00\x00\x00\x00\x00\x00\xd6$\xfaNBm\n@'
p2126
tp2127
bsVsquare_packing_box3
p2128
g21
(g22
(I0
tp2129
g24
tp2130
Rp2131
(I1
(I4
tp2132
g224
I00
S'\x85\x9d8\xd3t\xd2\x02@\xdf\x0b\xd3\x89h\x1a\x1f\xc0L7\x89A`\xe5\xd8?\xb4\xd7\xc2\x9c\x9c(\xe1?'
p2133
tp2134
bsVsquare_packing_box2
p2135
g21
(g22
(I0
tp2136
g24
tp2137
Rp2138
(I1
(I4
tp2139
g224
I00
S'\xfaj\xe5z\x85a\xdd\xbfi\xa5\x91/\xa7V\x1f\xc0L7\x89A`\xe5\xd8?\xa7\xeb\xe9\xf6?\xe6\x12@'
p2140
tp2141
bsVtable
p2142
g21
(g22
(I0
tp2143
g24
tp2144
Rp2145
(I1
(I4
tp2146
g224
I00
S'\x7f\xf6#EdX\xed?\xac\xffs\x98//\xc0\xbf\x00\x00\x00\x00\x00\x00\x00\x00\x00\x00\x00\x00\x00\x00\x00\x00'
p2147
tp2148
bsVsquare_packing_box1
p2149
g21
(g22
(I0
tp2150
g24
tp2151
Rp2152
(I1
(I4
tp2153
g224
I00
S'6\xe4\xe4^\xbeS\xf3?B\xd1\xcbf(\x9d\x15\xc0L7\x89A`\xe5\xd8?u\xa0\xf6L\xf8q\x16@'
p2154
tp2155
bsVback_wall_2
p2156
g21
(g22
(I0
tp2157
g24
tp2158
Rp2159
(I1
(I4
tp2160
g224
I00
S'\xaeG\xe1z\x14.\x13@\x80\x14\xaeG\xe1z\xc4?xX\xa85\xcd\xbb\xf2?\x00\x00\x00\x00\x00\x00\x00\x00'
p2161
tp2162
bsVchair_083c
p2163
g21
(g22
(I0
tp2164
g24
tp2165
Rp2166
(I1
(I4
tp2167
g224
I00
S'\xa4p=\n\xd7\xa3\xe0?333333\xe3\xbf\x00\x00\x00\x00\x00\x00\x00\x00\x00\x00\x00\x00\x00\x00\x00\x00'
p2168
tp2169
bsVback_wall_1
p2170
g21
(g22
(I0
tp2171
g24
tp2172
Rp2173
(I1
(I4
tp2174
g224
I00
S'\xaeG\xe1z\x14.\x13@\x80\x14\xaeG\xe1z\xc4?\xcc\x7fH\xbf}\x1d\xed?\x00\x00\x00\x00\x00\x00\x00\x00'
p2175
tp2176
bsVbottom_wall
p2177
g21
(g22
(I0
tp2178
g24
tp2179
Rp2180
(I1
(I4
tp2181
g224
I00
S'\x00\x00\x00\x00\x00\x00\xfc?\x00\x00\x00\x00\x00\x00\x00\x00\x00\x00\x00\x00\x00\x00\x00\x00\x00\x00\x00\x00\x00\x00\x00\x00'
p2182
tp2183
bsVcup_905a
p2184
g21
(g22
(I0
tp2185
g24
tp2186
Rp2187
(I1
(I4
tp2188
g224
I00
S'\x00\x00\x00\x00\x00\x00\xf0?\x83\xc0\xca\xa1E\xb6\xdb?\x1b/\xdd$\x06\x81\xed?\x00\x00\x00\x00\x00\x00\x00\x00'
p2189
tp2190
bsVplate_496f
p2191
g21
(g22
(I0
tp2192
g24
tp2193
Rp2194
(I1
(I4
tp2195
g224
I00
S"q=\n\xd7\xa3p\xe5?\x9dhW!\xe5'\xdd\xbf\x1b/\xdd$\x06\x81\xed?\x00\x00\x00\x00\x00\x00\x00\x00"
p2196
tp2197
bsVtoaster
p2198
g21
(g22
(I0
tp2199
g24
tp2200
Rp2201
(I1
(I4
tp2202
g224
I00
S')\\\x8f\xc2\xf5(\xf4\xbf\xe0z\x14\xaeG\xe1\xf2\xbf\xb8\x1e\x85\xebQ\xb8\xee?\x89/`\x9b\xf8\x8a\xe4?'
p2203
tp2204
bsVc_obst1
p2205
g21
(g22
(I0
tp2206
g24
tp2207
Rp2208
(I1
(I4
tp2209
g224
I00
S"*0\x87\x17Z\x9b\x12@\xd8\x9a\x99\xf8\xbfi\xd0?e\xaa`TR'\xed?H\xafK\xe8\xb5S\x16@"
p2210
tp2211
bsVrectangular_packing_box4
p2212
g21
(g22
(I0
tp2213
g24
tp2214
Rp2215
(I1
(I4
tp2216
g224
I00
S'\x069\x1f\x16X\xb0\n@\xa7\xa4q^\x94\x13\x1d\xc0L7\x89A`\xe5\xd8?M\xeb\x0c\xccLN\x03@'
p2217
tp2218
bsVmicrowave
p2219
g21
(g22
(I0
tp2220
g24
tp2221
Rp2222
(I1
(I4
tp2223
g224
I00
S'\x9a\x99\x99\x99\x99\x99\xf1\xbf\x00\x00\x00\x00\x00\x00\x00@7\x89A`\xe5\xd0\xee?\x00\x00\x00\x00\x00\x00\x00\x00'
p2224
tp2225
bsVc_obst7
p2226
g21
(g22
(I0
tp2227
g24
tp2228
Rp2229
(I1
(I4
tp2230
g224
I00
S"\x7f\x9c\xb8\xbb\x93_\x12@\xf4\xc3\x95A\x9d\xf5\xda?e\xaa`TR'\xed?\x8e\xb2\x97\xae\xa7:\x08@"
p2231
tp2232
bsVc_obst6
p2233
g21
(g22
(I0
tp2234
g24
tp2235
Rp2236
(I1
(I4
tp2237
g224
I00
S"M\xfe\xb8Q\xc7D\x12@\xf8\x1a\x10E\x10\xc3\xc5\xbfe\xaa`TR'\xed?\xb4\xac+\xac#\xb7\xe3?"
p2238
tp2239
bsVcup_b6af
p2240
g21
(g22
(I0
tp2241
g24
tp2242
Rp2243
(I1
(I4
tp2244
g224
I00
S'R\xb8\x1e\x85\xebQ\xe8?\x9a\x99\x99\x99\x99\x99\xe1?\x1b/\xdd$\x06\x81\xed?\x00\x00\x00\x00\x00\x00\x00\x00'
p2245
tp2246
bsVc_obst4
p2247
g21
(g22
(I0
tp2248
g24
tp2249
Rp2250
(I1
(I4
tp2251
g224
I00
S"\x94\xf7)\xfd\xcc\xf9\x11@\xde0\x8c/\x19\xca\x90\xbfe\xaa`TR'\xed?\x8d\x17)\x1a\xf4\xe4\xe4?"
p2252
tp2253
bsVrectangular_packing_box2
p2254
g21
(g22
(I0
tp2255
g24
tp2256
Rp2257
(I1
(I4
tp2258
g224
I00
S'X\x8e\x84\xb4\xa6\x89\r@\x1d\x17f\xb4\xdbK\x1a\xc0L7\x89A`\xe5\xd8?\xd6C,\xd4-\xdf\xfa?'
p2259
tp2260
bsVplate_fa76
p2261
g21
(g22
(I0
tp2262
g24
tp2263
Rp2264
(I1
(I4
tp2265
g224
I00
S'=\n\xd7\xa3p=\xf2?\x00\x00\x00\x00\x00\x00\x00\x00\x1b/\xdd$\x06\x81\xed?\x00\x00\x00\x00\x00\x00\x00\x00'
p2266
tp2267
bsVfloorwalls
p2268
g21
(g22
(I0
tp2269
g24
tp2270
Rp2271
(I1
(I4
tp2272
g224
I00
S'\xc7\xcc\xcc\xcc\xcc\xcc\xfc?\x00\x00\x00\x00\x00\x00\x18\xc0H\xe1z\x14\xaeG\xc1?\x16-DT\xfb!\xf9?'
p2273
tp2274
bsVpin_c671
p2275
g21
(g22
(I0
tp2276
g24
tp2277
Rp2278
(I1
(I4
tp2279
g224
I00
S'\xc3\xf5(\\\x8f\xc2\xf1\xbf}?5^\xbaI\x02@\xb8\x1e\x85\xebQ\xb8\xfa?\x00\x00\x00\x00\x00\x00\x00\x00'
p2280
tp2281
bsVc_obst3
p2282
g21
(g22
(I0
tp2283
g24
tp2284
Rp2285
(I1
(I4
tp2286
g224
I00
S":\\\xbc\xc4\xfa\x01\x12@\xe8\xb0M\xdcL\xf2\xd7?e\xaa`TR'\xed?*\xb0\x03\xc9\xaf\x91\x0b@"
p2287
tp2288
bsVchair_2e39
p2289
g21
(g22
(I0
tp2290
g24
tp2291
Rp2292
(I1
(I4
tp2293
g224
I00
S'hfffff\xee?cfffff\xf2\xbf\x00\x00\x00\x00\x00\x00\x00\x00\x07M\xe8QQF\xf3?'
p2294
tp2295
bsVentrance_left
p2296
g21
(g22
(I0
tp2297
g24
tp2298
Rp2299
(I1
(I4
tp2300
g224
I00
S'\x98\x99\x99\x99\x99\x99\xe9\xbfH\xe1z\x14\xaeG\t\xc0\x9c\xc4 \xb0rh\xc1?\x00\x00\x00\x00\x00\x00\x00\x00'
p2301
tp2302
bsVtop_wall_1
p2303
g21
(g22
(I0
tp2304
g24
tp2305
Rp2306
(I1
(I4
tp2307
g224
I00
S'H\xe1z\x14\xaeG\x12@\x80\x14\xaeG\xe1z\xc4?xX\xa85\xcd\xbb\xf2?\x00\x00\x00\x00\x00\x00\x00\x00'
p2308
tp2309
bsVrectangular_packing_box3
p2310
g21
(g22
(I0
tp2311
g24
tp2312
Rp2313
(I1
(I4
tp2314
g224
I00
S'\xb4B\x00\xda\xc5g\xd0?\xdf\x1cj\xd5\xdc\xae\x1a\xc0L7\x89A`\xe5\xd8?\x03\xff\x04\rz\xc0\xf1?'
p2315
tp2316
bsVshaker
p2317
g21
(g22
(I0
tp2318
g24
tp2319
Rp2320
(I1
(I4
tp2321
g224
I00
S'\n\xd7\xa3p=\n\x01@\x14\xaeG\xe1z\x14\x02@\\\x8f\xc2\xf5(\\\xef?\x00\x00\x00\x00\x00\x00\x00\x00'
p2322
tp2323
bsVc_obst9
p2324
g21
(g22
(I0
tp2325
g24
tp2326
Rp2327
(I1
(I4
tp2328
g224
I00
S"\xc6\xaep\x06\xb8t\x12@\x00\x11U\t\xcd6\xa6?e\xaa`TR'\xed?08\xa0\x08\x1c\xd9\x0f@"
p2329
tp2330
bsVplate_835a
p2331
g21
(g22
(I0
tp2332
g24
tp2333
Rp2334
(I1
(I4
tp2335
g224
I00
S'\xf6(\\\x8f\xc2\xf5\xf0?\\\x8f\xc2\xf5(\\\xe7\xbf\x1b/\xdd$\x06\x81\xed?\x00\x00\x00\x00\x00\x00\x00\x00'
p2336
tp2337
bsVcup_58a2
p2338
g21
(g22
(I0
tp2339
g24
tp2340
Rp2341
(I1
(I4
tp2342
g224
I00
S'\x85\xebQ\xb8\x1e\x85\xe3?\xcd\xcc\xcc\xcc\xcc\xcc\xdc?\x1b/\xdd$\x06\x81\xed?\x00\x00\x00\x00\x00\x00\x00\x00'
p2343
tp2344
bsVleft_wall_1
p2345
g21
(g22
(I0
tp2346
g24
tp2347
Rp2348
(I1
(I4
tp2349
g224
I00
S'H\xe1z\x14\xaeG\x12@S\xb8\x1e\x85\xebQ\xe4?\xcc\x7fH\xbf}\x1d\xed?\x00\x00\x00\x00\x00\x00\x00\x00'
p2350
tp2351
bsVc_obst2
p2352
g21
(g22
(I0
tp2353
g24
tp2354
Rp2355
(I1
(I4
tp2356
g224
I00
S"Q}\xc4\x03a\x83\x12@\xd8Y\n\xa3eD\xc0\xbfe\xaa`TR'\xed?~a/h\xb8\x8e\x00@"
p2357
tp2358
bsVsquare_packing_box4
p2359
g21
(g22
(I0
tp2360
g24
tp2361
Rp2362
(I1
(I4
tp2363
g224
I00
S"Xv\x05\xfb\t\xde\xf3?\xdb5\x94\x9c5\xd8\x1d\xc0L7\x89A`\xe5\xd8?\xd3'L\x89\xb8f\x0c@"
p2364
tp2365
bsVrectangular_packing_box1
p2366
g21
(g22
(I0
tp2367
g24
tp2368
Rp2369
(I1
(I4
tp2370
g224
I00
S'\x05\x01d\xadN\x82\xf2?\xfa\xc6\x85\xd55\xd2\x18\xc0L7\x89A`\xe5\xd8?Z\xde\x93D\xc1n\x00@'
p2371
tp2372
bsVpin_371e
p2373
g21
(g22
(I0
tp2374
g24
tp2375
Rp2376
(I1
(I4
tp2377
g224
I00
S'333333\xf3\xbfffffff\xf6?\xb8\x1e\x85\xebQ\xb8\xee?\x00\x00\x00\x00\x00\x00\x00\x00'
p2378
tp2379
bsVfridge
p2380
g21
(g22
(I0
tp2381
g24
tp2382
Rp2383
(I1
(I4
tp2384
g224
I00
S'\xd7\xa3p=\n\xd7\xeb\xbf\x00\x00\x00\x00\x00\x00\x00\xc0\xcd\xcc\xcc\xcc\xcc\xcc\xf8?\x00\x00\x00\x00\x00\x00\x00\x00'
p2385
tp2386
bsVcup_d441
p2387
g21
(g22
(I0
tp2388
g24
tp2389
Rp2390
(I1
(I4
tp2391
g224
I00
S'\n\xd7\xa3p=\n\xef?\x8f\xc2\xf5(\\\x8f\xe2?\x1b/\xdd$\x06\x81\xed?\x00\x00\x00\x00\x00\x00\x00\x00'
p2392
tp2393
bsVshelf2
p2394
g21
(g22
(I0
tp2395
g24
tp2396
Rp2397
(I1
(I4
tp2398
g224
I00
S'\x00\x00\x00\x00\x00\x00\x0e@\xaeG\xe1z\x14\xae\x07@\x9c\xc4 \xb0rh\xc1?\xd2!3\x7f|\xd9\x12@'
p2399
tp2400
bsVtop_wall_2
p2401
g21
(g22
(I0
tp2402
g24
tp2403
Rp2404
(I1
(I4
tp2405
g224
I00
S'H\xe1z\x14\xaeG\x12@\x80\x14\xaeG\xe1z\xc4?\x16HP\xfc\x18\xf3\xfd?\x00\x00\x00\x00\x00\x00\x00\x00'
p2406
tp2407
bsVc_obst0
p2408
g21
(g22
(I0
tp2409
g24
tp2410
Rp2411
(I1
(I4
tp2412
g224
I00
S"0\x8e75\x0b\x1b\x12@\x1blHj7\xa7\xdc?e\xaa`TR'\xed?\x8eMe\x80\x8f\xa7\x13@"
p2413
tp2414
bsVshelf1
p2415
g21
(g22
(I0
tp2416
g24
tp2417
Rp2418
(I1
(I4
tp2419
g224
I00
S'\x00\x00\x00\x00\x00\x00\x13@\xaeG\xe1z\x14\xae\x07@\x9c\xc4 \xb0rh\xc1?\xd2!3\x7f|\xd9\x12@'
p2420
tp2421
bsVsink
p2422
g21
(g22
(I0
tp2423
g24
tp2424
Rp2425
(I1
(I4
tp2426
g224
I00
S'ffffff\xd6?333333\x01@\x9a\x99\x99\x99\x99\x99\xb9\xbf\x00\x00\x00\x00\x00\x00\x00\x00'
p2427
tp2428
bsVpr2
p2429
g21
(g22
(I0
tp2430
g24
tp2431
Rp2432
(I1
(I4
tp2433
g224
I00
S'kb>\xf1\xa9]\xe1?\x1f-I\xc4\xaeB \xc0\x9a_\x94\xa0\xbf\xd0\xc1?\xb2\xaa/L\x8f\\\xf7?'
p2434
tp2435
bsVchair_12d0
p2436
g21
(g22
(I0
tp2437
g24
tp2438
Rp2439
(I1
(I4
tp2440
g224
I00
S'\\\xd2\x18\xad\xa3\xaa\xdb?Of\x83L2r\xc6?\x00\x00\x00\x00\x00\x00\x00\x00\xf8\x81\r\x14M\xa6\x17@'
p2441
tp2442
bsVright_wall_2
p2443
g21
(g22
(I0
tp2444
g24
tp2445
Rp2446
(I1
(I4
tp2447
g224
I00
S'H\xe1z\x14\xaeG\x12@&\\\x8f\xc2\xf5(\xd4\xbfxX\xa85\xcd\xbb\xf2?\x00\x00\x00\x00\x00\x00\x00\x00'
p2448
tp2449
bsVknife_block
p2450
g21
(g22
(I0
tp2451
g24
tp2452
Rp2453
(I1
(I4
tp2454
g224
I00
S'R\xb8\x1e\x85\xebQ\xe0\xbfffffff\x02@`\xe5\xd0"\xdb\xf9\xee?\x00\x00\x00\x00\x00\x00\x00\x00'
p2455
tp2456
bsVleft_wall_2
p2457
g21
(g22
(I0
tp2458
g24
tp2459
Rp2460
(I1
(I4
tp2461
g224
I00
S'H\xe1z\x14\xaeG\x12@S\xb8\x1e\x85\xebQ\xe4?xX\xa85\xcd\xbb\xf2?\x00\x00\x00\x00\x00\x00\x00\x00'
p2462
tp2463
bsVleft_wall
p2464
g21
(g22
(I0
tp2465
g24
tp2466
Rp2467
(I1
(I4
tp2468
g224
I00
S'\x9a\x99\x99\x99\x99\x99\x07@H\xe1z\x14\xaeG\xff?\x9c\xc4 \xb0rh\xc1?\x00\x00\x00\x00\x00\x00\x00\x00'
p2469
tp2470
bsVkitchen
p2471
g21
(g22
(I0
tp2472
g24
tp2473
Rp2474
(I1
(I4
tp2475
g224
I00
S'\x00\x00\x00\x00\x00\x00\x00\x00\x00\x00\x00\x00\x00\x00\x00\x00\x00\x00\x00\x00\x00\x00\x00\x00\x00\x00\x00\x00\x00\x00\x00\x00'
p2476
tp2477
bsVtable2
p2478
g21
(g22
(I0
tp2479
g24
tp2480
Rp2481
(I1
(I4
tp2482
g224
I00
S'\x00\x00\x00\x00\x00\x00\x13@\x80\x14\xaeG\xe1z\xc4?S\x96!\x8euq\xec?\xd2!3\x7f|\xd9\x12@'
p2483
tp2484
bsVc_obst8
p2485
g21
(g22
(I0
tp2486
g24
tp2487
Rp2488
(I1
(I4
tp2489
g224
I00
S"7\xdcq'X\x08\x12@\x18\xfa\x19\xf7W\xa0\xbe?e\xaa`TR'\xed?\x11m\x9a\xc0\x96\xf0\x16@"
p2490
tp2491
bsVplate_b4e7
p2492
g21
(g22
(I0
tp2493
g24
tp2494
Rp2495
(I1
(I4
tp2496
g224
I00
S'\x14\xaeG\xe1z\x14\xf2\xbf\x14\xaeG\xe1z\x14\x00@=\n\xd7\xa3p=\xf2?\x00\x00\x00\x00\x00\x00\x00\x00'
p2497
tp2498
bsVcooker
p2499
g21
(g22
(I0
tp2500
g24
tp2501
Rp2502
(I1
(I4
tp2503
g224
I00
S'\xaeG\xe1z\x14\xae\xff?\x85\xebQ\xb8\x1e\x85\xfb?\x00\x00\x00\x00\x00\x00\xe8?\x00\x00\x00\x00\x00\x00\x00\x00'
p2504
tp2505
bsVpin_a091
p2506
g21
(g22
(I0
tp2507
g24
tp2508
Rp2509
(I1
(I4
tp2510
g224
I00
S'\xdb\xf9~j\xbct\xf7\xbf)\\\x8f\xc2\xf5(\x02@\xb8\x1e\x85\xebQ\xb8\xfa?\x00\x00\x00\x00\x00\x00\x00\x00'
p2511
tp2512
bsVside_wall_2
p2513
g21
(g22
(I0
tp2514
g24
tp2515
Rp2516
(I1
(I4
tp2517
g224
I00
S'\xfa\xff\xff\xff\xff\xff\x14@\x00\x00\x00\x00\x00\x00\x00\x00\x9c\xc4 \xb0rh\xc1?\x18-DT\xfb!\xf9?'
p2518
tp2519
bsVside_wall_3
p2520
g21
(g22
(I0
tp2521
g24
tp2522
Rp2523
(I1
(I4
tp2524
g224
I00
S'\x00\x00\x00\x00\x00\x00\xfc?H\xe1z\x14\xaeG\t@\x9c\xc4 \xb0rh\xc1?\x00\x00\x00\x00\x00\x00\x00\x00'
p2525
tp2526
bsVmixer
p2527
g21
(g22
(I0
tp2528
g24
tp2529
Rp2530
(I1
(I4
tp2531
g224
I00
S'\n\xd7\xa3p=\n\xfb?ffffff\x02@d;\xdfO\x8d\x97\xee?\x00\x00\x00\x00\x00\x00\x00\x00'
p2532
tp2533
bsVside_wall_1
p2534
g21
(g22
(I0
tp2535
g24
tp2536
Rp2537
(I1
(I4
tp2538
g224
I00
S'\xf4\xff\xff\xff\xff\xff\xfb\xbf\x00\x00\x00\x00\x00\x00\x00\x00\x9c\xc4 \xb0rh\xc1?\x18-DT\xfb!\xf9?'
p2539
tp2540
bsVbottom_wall_1
p2541
g21
(g22
(I0
tp2542
g24
tp2543
Rp2544
(I1
(I4
tp2545
g224
I00
S'H\xe1z\x14\xaeG\x12@\x80\x14\xaeG\xe1z\xc4?\xcc\x7fH\xbf}\x1d\xed?\x00\x00\x00\x00\x00\x00\x00\x00'
p2546
tp2547
bsVcan
p2548
g21
(g22
(I0
tp2549
g24
tp2550
Rp2551
(I1
(I4
tp2552
g224
I00
S'\x00\x00\x00\x00\x00\x00\xf4\xbfH\xe1z\x14\xaeG\xe1\xbf\n\xd7\xa3p=\n\xef?\x00\x00\x00\x00\x00\x00\x00\x00'
p2553
tp2554
bsVright_wall
p2555
g21
(g22
(I0
tp2556
g24
tp2557
Rp2558
(I1
(I4
tp2559
g224
I00
S'\x9a\x99\x99\x99\x99\x99\x07@H\xe1z\x14\xaeG\xff\xbf\x9c\xc4 \xb0rh\xc1?\x00\x00\x00\x00\x00\x00\x00\x00'
p2560
tp2561
bsVcoffe_machine
p2562
g21
(g22
(I0
tp2563
g24
tp2564
Rp2565
(I1
(I4
tp2566
g224
I00
S'\\\x8f\xc2\xf5(\\\xf5\xbf\xb8\x1e\x85\xebQ\xb8\xee?\n\xd7\xa3p=\n\xef?\x00\x00\x00\x00\x00\x00\x00\x00'
p2567
tp2568
bsVcomputer_chair
p2569
g21
(g22
(I0
tp2570
g24
tp2571
Rp2572
(I1
(I4
tp2573
g224
I00
S'\xcd\xcc\xcc\xcc\xcc\xcc\x10@\x00\x00\x00\x00\x00\x00\xf8\xbf\xa00\xb6\x10\xe4\xa9\x95\xbf\x00\x00\x00\x00\x00\x00\x00\x00'
p2574
tp2575
bssS'robot_dof_values'
p2576
g21
(g22
(I0
tp2577
g24
tp2578
Rp2579
(I1
(I39
tp2580
g224
I00
S'\x00\x00\x00\x00\x00\x00\x00\x00\x00\x00\x00\x00\x00\x00\x00\x00\x00\x00\x00\x00\x00\x00\x00\x00\x00\x00\x00\x00\x00\x00\x00\x00\x00\x00\x00\x00\x00\x00\x00\x00\x00\x00\x00\x00\x00\x00\x00\x00\x00\x00\x00\x00\x00\x00\x00\x00\x00\x00\x00\x00\x00\x00\x00\x00\x00\x00\x00\x00\x00\x00\x00\x00\x00\x00\x00\x00\x00\x00\x00\x00\x00\x00\x00\x00\x00\x00\x00\x00\x00\x00\x00\x00\x00\x00\x00\x00@d;\xdfO\x8d\x87?\x00\x00\x00\x00\x00\x00\x00\x00\x00\x00\x00\x00\x00\x00\x00\x00\x00\x00\x00\x00\x00\x00\x00\x00\xeb\xed\t\xf1\xcc\xa4\xf4?\x00\x00\x00\x00\x00\x00\xb0<N"\xd0^p\xf8\x00\xc0\xd8l\xdf\xccv\xf8\xb0\xbc\x9b\x03\r.\x04V\xe6\xbf\xd1\xf6\x87\x16\x16\x95\xae<\x00\x00\x00\x00\x00\x00\x00\x00\x00\x00\x00\x00\x00\x00\xcf\xbc\x00\x00\x00\x00\x00\x00\x00\x00\x00\x00\x00\x00\x00\x00\xe4\xbc\x00\x00\x00\x00\x00\x00\x00\x00\x00\x00\x00\x00\x00\x00\x00\x00\xec\xed\t\xf1\xcc\xa4\xf4?\x00\x00\x00\x00\x00\x00\x00\x00O"\xd0^p\xf8\x00\xc0\x00\x00\x00\x00\x00\x00\x00\x00\x9f\x03\r.\x04V\xe6\xbf\x04\x17\xb7\x19\xbc\xde\xba\xbc\xcd9\xe3\xc17\x89\xe1?\x00\x00\x00\x00\x00\x80\xdf\xbc\x00\x00\x00\x00\x00\x00\x00\x00\x00\x00\x00\x00\x00\x00\xd4\xbc\x00\x00\x00\x00\x00\x00\x00\x00'
p2581
tp2582
bsS'is_holding'
p2583
I00
sbsS'holding_collides'
p2584
NsS'parent_ternary_predicates'
p2585
(dp2586
sS'cached_place_paths'
p2587
(dp2588
(g918
g1272
tp2589
(lp2590
g21
(g22
(I0
tp2591
g24
tp2592
Rp2593
(I1
(I3
tp2594
g224
I00
S'\xdaJ\xeb1v~\xe0?\x8a\x04\xaf+\xff\xc9\x16\xc0\xac\xca1x\x9a\x82\x16@'
p2595
tp2596
bas(g12
g215
tp2597
g284
s(g704
g215
tp2598
g347
s(g1065
g1272
tp2599
(lp2600
g21
(g22
(I0
tp2601
g24
tp2602
Rp2603
(I1
(I3
tp2604
g224
I00
S'\xa0\xdag\x97_\xa1\xfe?\xe2\xcfp\xda\x9a\xbb\x1c\xc0>!\xc0\x0e\xd7~\x15@'
p2605
tp2606
bas(g704
g1272
tp2607
(lp2608
g21
(g22
(I0
tp2609
g24
tp2610
Rp2611
(I1
(I3
tp2612
g224
I00
S'l\xde\x15\\R\xa6\x06@\xf5q\xec\x9f\xe2\x0f\x1f\xc0\x98&\x05F\x13A\xf4?'
p2613
tp2614
bas(g1065
g215
tp2615
g518
s(g666
g1272
tp2616
(lp2617
g21
(g22
(I0
tp2618
g24
tp2619
Rp2620
(I1
(I3
tp2621
g224
I00
S'\xa1F\xde>\xc2e\xd3?\xac\xc4\xe5\xa1\xb7\xfd\x1e\xc0D\xe2\xc6\xb9g$\x0e@'
p2622
tp2623
bas(g666
g215
tp2624
g461
s(g57
g215
tp2625
g416
s(g856
g215
tp2626
g217
s(g856
g1272
tp2627
(lp2628
g21
(g22
(I0
tp2629
g24
tp2630
Rp2631
(I1
(I3
tp2632
g224
I00
S'k\xbfT\xd2\xee~\xce\xbf\x07R{\xc8\xc6\x9b\x1d\xc0\n\xfd\xd5\xb6al\xee?'
p2633
tp2634
bas(g12
g1272
tp2635
(lp2636
g21
(g22
(I0
tp2637
g24
tp2638
Rp2639
(I1
(I3
tp2640
g224
I00
S'\xc5\x03:\x15[\xc1\xf4?\xd6\xbeC\xa0\xfe; \xc0\xb3\x1cX\x99\x9f5\xfc?'
p2641
tp2642
bas(g57
g1272
tp2643
(lp2644
g21
(g22
(I0
tp2645
g24
tp2646
Rp2647
(I1
(I3
tp2648
g224
I00
S'\x8d\x86\xcf\x98\x85\xd9\xfd?\n9\x93 \x92W\x16\xc0\x7fJ\xc1\xb2\x1b\xda\x06@'
p2649
tp2650
bas(g782
g1272
tp2651
(lp2652
g21
(g22
(I0
tp2653
g24
tp2654
Rp2655
(I1
(I3
tp2656
g224
I00
S'\x02\x17C\xf3*\xb4\x07@i\x16\x86\xfc\xfc\x02\x1a\xc0N\xe9\x92\xe6\x95\x02\xdb?'
p2657
tp2658
bas(g782
g215
tp2659
g575
s(g918
g215
tp2660
(lp2661
g21
(g22
(I0
tp2662
g24
tp2663
Rp2664
(I1
(I3
tp2665
g224
I00
S'\xd0J\xeb1v~\xe0?\x8b\x04\xaf+\xff\xc9\x16\xc0\xac\xca1x\x9a\x82\x16@'
p2666
tp2667
bag21
(g22
(I0
tp2668
g24
tp2669
Rp2670
(I1
(I3
tp2671
g235
I00
S"\xb2&6mg)\xe8?\x99\xe0G'\x16\xe0\x13\xc0\xc8oL\xf5\x17p\xe6\xbf"
p2672
tp2673
bag21
(g22
(I0
tp2674
g24
tp2675
Rp2676
(I1
(I3
tp2677
g235
I00
S'`\xc8Aw-\x81\xeb?/\xc3\xe6O\x04\xca\x10\xc0\x8a\xb7K)\x91{\xe4\xbf'
p2678
tp2679
bag21
(g22
(I0
tp2680
g24
tp2681
Rp2682
(I1
(I3
tp2683
g235
I00
S'\xe1\xc6\xc7\xa7\x12X\xe7?\x98\x99\xb0\x9a\xfb\xdb\x0b\xc0R\t\x1b)\xeae\xe0\xbf'
p2684
tp2685
bag21
(g22
(I0
tp2686
g24
tp2687
Rp2688
(I1
(I3
tp2689
g235
I00
S'p\xf1\xbdc^\x84\xf1?"\x88LL\xf9D\x06\xc0~w\r\xe9m\x0f\x19@'
p2690
tp2691
bassS'parent_binary_predicates'
p2692
(dp2693
sS'nodes'
p2694
(dp2695
g1275
(lp2696
I0
aI0
aI0
aI0
aI0
aI0
aI00
aI01
aI00
aI01
aI00
asg1272
(lp2697
I0
aI0
aI0
aI0
aI0
aI0
aI00
aI01
aI00
aI01
aI00
asg215
(lp2698
I0
aI0
aI0
aI0
aI0
aI0
aI00
aI01
aI01
aI01
aI00
asg345
(lp2699
I0
aI0
aI0
ag1982
(g224
S'k9\x1f\x16X\xb0\n@'
p2700
tp2701
Rp2702
ag1982
(g224
S'\x8e\xa2q^\x94\x13\x1d\xc0'
p2703
tp2704
Rp2705
ag1982
(g224
S'M\xeb\x0c\xccLN\x03@'
p2706
tp2707
Rp2708
aI01
aI00
aI00
aI00
aI00
asg573
(lp2709
I0
aI0
aI0
ag1982
(g224
S'\xa6\x8e\x84\xb4\xa6\x89\r@'
p2710
tp2711
Rp2712
ag1982
(g224
S'#\x17f\xb4\xdbK\x1a\xc0'
p2713
tp2714
Rp2715
ag1982
(g224
S'\xdaC,\xd4-\xdf\xfa?'
p2716
tp2717
Rp2718
aI01
aI00
aI00
aI00
aI00
asg214
(lp2719
I0
aI0
aI0
ag1982
(g224
S'\xd2\x9d\x00\xda\xc5g\xd0?'
p2720
tp2721
Rp2722
ag1982
(g224
S'\xee\x1cj\xd5\xdc\xae\x1a\xc0'
p2723
tp2724
Rp2725
ag1982
(g224
S'\x03\xff\x04\rz\xc0\xf1?'
p2726
tp2727
Rp2728
aI01
aI00
aI00
aI00
aI00
asg1231
(lp2729
I0
aI0
aI0
ag1982
(g224
S'\x06\xfec\xadN\x82\xf2?'
p2730
tp2731
Rp2732
ag1982
(g224
S'\xbd\xc6\x85\xd55\xd2\x18\xc0'
p2733
tp2734
Rp2735
ag1982
(g224
S'Z\xde\x93D\xc1n\x00@'
p2736
tp2737
Rp2738
aI01
aI00
aI00
aI00
aI00
asg459
(lp2739
I0
aI0
aI0
ag1982
(g224
S'Fj\xe5z\x85a\xdd\xbf'
p2740
tp2741
Rp2742
ag1982
(g224
S'^\xa3\x91/\xa7V\x1f\xc0'
p2743
tp2744
Rp2745
ag1982
(g224
S'\xa4\xeb\xe9\xf6?\xe6\x12@'
p2746
tp2747
Rp2748
aI01
aI00
aI00
aI01
aI00
asg516
(lp2749
I0
aI0
aI0
ag1982
(g224
S'\x08\x9f8\xd3t\xd2\x02@'
p2750
tp2751
Rp2752
ag1982
(g224
S'\x86\x0b\xd3\x89h\x1a\x1f\xc0'
p2753
tp2754
Rp2755
ag1982
(g224
S'\xb4\xd7\xc2\x9c\x9c(\xe1?'
p2756
tp2757
Rp2758
aI01
aI00
aI00
aI00
aI00
asg414
(lp2759
I0
aI0
aI0
ag1982
(g224
S'\\\xe3\xe4^\xbeS\xf3?'
p2760
tp2761
Rp2762
ag1982
(g224
S'D\xd1\xcbf(\x9d\x15\xc0'
p2763
tp2764
Rp2765
ag1982
(g224
S'u\xa0\xf6L\xf8q\x16@'
p2766
tp2767
Rp2768
aI01
aI00
aI01
aI00
aI00
asg282
(lp2769
I0
aI0
aI0
ag1982
(g224
S'Wu\x05\xfb\t\xde\xf3?'
p2770
tp2771
Rp2772
ag1982
(g224
S'\x965\x94\x9c5\xd8\x1d\xc0'
p2773
tp2774
Rp2775
ag1982
(g224
S"\xd3'L\x89\xb8f\x0c@"
p2776
tp2777
Rp2778
aI01
aI00
aI00
aI01
aI00
assS'mc_place_path'
p2779
(dp2780
sS'parent_state'
p2781
NsS'goal_entities'
p2782
(lp2783
S'square_packing_box1'
p2784
ag215
asS'binary_edges'
p2785
(dp2786
(g459
g282
tp2787
(lp2788
I00
aI00
aI00
as(g459
g345
tp2789
(lp2790
I00
aI00
aI00
as(g214
g516
tp2791
(lp2792
I00
aI00
aI00
as(g214
g214
tp2793
(lp2794
I00
aI00
aI00
as(g573
g516
tp2795
(lp2796
I00
aI00
aI00
as(g573
g214
tp2797
(lp2798
I00
aI00
aI00
as(g282
g573
tp2799
(lp2800
I00
aI01
aI00
as(g459
g414
tp2801
(lp2802
I00
aI00
aI00
as(g1231
g214
tp2803
(lp2804
I00
aI00
aI00
as(g345
g345
tp2805
(lp2806
I00
aI00
aI00
as(g573
g1272
tp2807
(lp2808
g1982
(g28
(S'b1'
p2809
I0
I1
tp2810
Rp2811
(I3
S'|'
p2812
NNNI-1
I-1
I0
tp2813
bS'\x01'
p2814
tp2815
Rp2816
aI00
aI01
as(g1275
g1272
tp2817
(lp2818
I00
aI00
aI00
as(g345
g282
tp2819
(lp2820
I00
aI00
aI00
as(g1272
g282
tp2821
(lp2822
I00
aI00
aI00
as(g414
g215
tp2823
(lp2824
I00
aI00
aI00
as(g1275
g573
tp2825
(lp2826
I00
aI00
aI00
as(g573
g282
tp2827
(lp2828
I00
aI00
aI00
as(g214
g1275
tp2829
(lp2830
g2816
aI00
aI00
as(g459
g459
tp2831
(lp2832
I00
aI00
aI00
as(g1272
g459
tp2833
(lp2834
I00
aI00
aI00
as(g516
g573
tp2835
(lp2836
I00
aI00
aI00
as(g573
g215
tp2837
(lp2838
I00
aI00
aI00
as(g1231
g516
tp2839
(lp2840
I00
aI00
aI00
as(g345
g1231
tp2841
(lp2842
I00
aI00
aI00
as(g414
g414
tp2843
(lp2844
I00
aI00
aI00
as(g573
g1275
tp2845
(lp2846
g2816
aI00
aI00
as(g1272
g573
tp2847
(lp2848
I00
aI00
aI00
as(g1272
g516
tp2849
(lp2850
I00
aI00
aI00
as(g1272
g214
tp2851
(lp2852
I00
aI00
aI00
as(g516
g215
tp2853
(lp2854
I00
aI00
aI00
as(g282
g345
tp2855
(lp2856
I00
aI01
aI00
as(g1231
g345
tp2857
(lp2858
I00
aI00
aI00
as(g516
g1231
tp2859
(lp2860
I00
aI00
aI00
as(g1272
g345
tp2861
(lp2862
I00
aI00
aI00
as(g1275
g215
tp2863
(lp2864
I00
aI00
aI00
as(g414
g573
tp2865
(lp2866
I00
aI00
aI00
as(g345
g516
tp2867
(lp2868
I00
aI00
aI00
as(g1275
g516
tp2869
(lp2870
I00
aI00
aI00
as(g516
g1275
tp2871
(lp2872
g2816
aI00
aI00
as(g214
g459
tp2873
(lp2874
I00
aI00
aI00
as(g282
g414
tp2875
(lp2876
I00
aI01
aI00
as(g214
g573
tp2877
(lp2878
I00
aI00
aI00
as(g282
g215
tp2879
(lp2880
I00
aI00
aI00
as(g1275
g1275
tp2881
(lp2882
I00
aI00
aI00
as(g516
g345
tp2883
(lp2884
I00
aI01
aI00
as(g414
g459
tp2885
(lp2886
I00
aI00
aI00
as(g215
g414
tp2887
(lp2888
I00
aI00
aI00
as(g1231
g1272
tp2889
(lp2890
g2816
aI00
aI01
as(g215
g1231
tp2891
(lp2892
I00
aI00
aI00
as(g282
g214
tp2893
(lp2894
I00
aI00
aI00
as(g214
g414
tp2895
(lp2896
I00
aI00
aI00
as(g516
g1272
tp2897
(lp2898
g2816
aI00
aI01
as(g214
g1231
tp2899
(lp2900
I00
aI01
aI00
as(g516
g516
tp2901
(lp2902
I00
aI00
aI00
as(g1231
g573
tp2903
(lp2904
I00
aI00
aI00
as(g1272
g215
tp2905
(lp2906
I00
aI00
aI00
as(g215
g459
tp2907
(lp2908
I00
aI00
aI00
as(g345
g215
tp2909
(lp2910
I00
aI00
aI00
as(g1275
g1231
tp2911
(lp2912
I00
aI00
aI00
as(g215
g282
tp2913
(lp2914
I00
aI00
aI00
as(g214
g282
tp2915
(lp2916
I00
aI00
aI00
as(g1231
g1275
tp2917
(lp2918
g2816
aI00
aI00
as(g282
g1272
tp2919
(lp2920
g2816
aI00
aI01
as(g1231
g459
tp2921
(lp2922
I00
aI00
aI00
as(g345
g573
tp2923
(lp2924
I00
aI01
aI00
as(g345
g1272
tp2925
(lp2926
g2816
aI00
aI01
as(g215
g214
tp2927
(lp2928
I00
aI00
aI00
as(g1275
g282
tp2929
(lp2930
I00
aI00
aI00
as(g1275
g345
tp2931
(lp2932
I00
aI00
aI00
as(g1231
g215
tp2933
(lp2934
I00
aI00
aI01
as(g459
g1231
tp2935
(lp2936
I00
aI00
aI00
as(g414
g1231
tp2937
(lp2938
I00
aI00
aI00
as(g215
g516
tp2939
(lp2940
I00
aI00
aI00
as(g1272
g1272
tp2941
(lp2942
I00
aI00
aI00
as(g459
g214
tp2943
(lp2944
I00
aI01
aI00
as(g414
g516
tp2945
(lp2946
I00
aI00
aI00
as(g1272
g414
tp2947
(lp2948
I00
aI00
aI00
as(g573
g345
tp2949
(lp2950
I00
aI00
aI00
as(g1272
g1231
tp2951
(lp2952
I00
aI00
aI00
as(g414
g1275
tp2953
(lp2954
g2816
aI00
aI00
as(g459
g573
tp2955
(lp2956
I00
aI00
aI00
as(g214
g215
tp2957
(lp2958
I00
aI00
aI00
as(g414
g345
tp2959
(lp2960
I00
aI00
aI00
as(g345
g414
tp2961
(lp2962
I00
aI00
aI00
as(g573
g414
tp2963
(lp2964
I00
aI00
aI00
as(g1275
g459
tp2965
(lp2966
I00
aI00
aI00
as(g573
g1231
tp2967
(lp2968
I00
aI00
aI00
as(g516
g459
tp2969
(lp2970
I00
aI00
aI00
as(g459
g1272
tp2971
(lp2972
g2816
aI00
aI01
as(g1231
g1231
tp2973
(lp2974
I00
aI00
aI00
as(g282
g459
tp2975
(lp2976
I00
aI00
aI00
as(g414
g282
tp2977
(lp2978
I00
aI00
aI00
as(g573
g459
tp2979
(lp2980
I00
aI00
aI00
as(g573
g573
tp2981
(lp2982
I00
aI00
aI00
as(g282
g1231
tp2983
(lp2984
I00
aI00
aI00
as(g459
g215
tp2985
(lp2986
I00
aI00
aI00
as(g516
g414
tp2987
(lp2988
I00
aI00
aI00
as(g214
g1272
tp2989
(lp2990
g2816
aI00
aI01
as(g215
g573
tp2991
(lp2992
I00
aI00
aI00
as(g1231
g414
tp2993
(lp2994
I00
aI00
aI00
as(g345
g214
tp2995
(lp2996
I00
aI00
aI00
as(g215
g1272
tp2997
(lp2998
I00
aI00
aI00
as(g459
g516
tp2999
(lp3000
I00
aI00
aI00
as(g1275
g214
tp3001
(lp3002
I00
aI00
aI00
as(g459
g1275
tp3003
(lp3004
g2816
aI00
aI00
as(g516
g214
tp3005
(lp3006
I00
aI00
aI00
as(g215
g215
tp3007
(lp3008
I00
aI00
aI00
as(g1231
g282
tp3009
(lp3010
I00
aI00
aI00
as(g345
g1275
tp3011
(lp3012
g2816
aI00
aI00
as(g282
g1275
tp3013
(lp3014
g2816
aI00
aI00
as(g215
g1275
tp3015
(lp3016
I00
aI00
aI00
as(g215
g345
tp3017
(lp3018
I00
aI00
aI00
as(g516
g282
tp3019
(lp3020
I00
aI00
aI00
as(g282
g516
tp3021
(lp3022
I00
aI01
aI00
as(g214
g345
tp3023
(lp3024
I00
aI00
aI00
as(g1272
g1275
tp3025
(lp3026
I00
aI00
aI00
as(g414
g214
tp3027
(lp3028
I00
aI00
aI00
as(g345
g459
tp3029
(lp3030
I00
aI00
aI00
as(g282
g282
tp3031
(lp3032
I00
aI00
aI00
as(g414
g1272
tp3033
(lp3034
g2816
aI00
aI01
as(g1275
g414
tp3035
(lp3036
I00
aI00
aI00
assg664
g665
sS'pick_in_way'
p3037
(itrajectory_representation.predicates.pick_in_way
PickInWay
p3038
(dp3039
g212
(dp3040
g345
g1842
sg573
g1867
sg214
g1898
sg1231
g1917
sg459
g1942
sg516
g1961
sg414
g1156
sg282
g1197
ssg630
(dp3041
g345
(lp3042
Vsquare_packing_box4
p3043
aVsquare_packing_box3
p3044
asg573
(lp3045
Vsquare_packing_box4
p3046
aVrectangular_packing_box4
p3047
asg214
(lp3048
Vsquare_packing_box2
p3049
asg1231
(lp3050
Vrectangular_packing_box3
p3051
asg459
(lp3052
sg516
(lp3053
Vsquare_packing_box4
p3054
asg414
(lp3055
Vsquare_packing_box4
p3056
asg282
(lp3057
ssg664
(lp3058
g459
ag282
ag1275
ag215
ag1272
ag1275
ag215
ag1272
ag1275
ag215
ag1272
ag1275
ag215
ag1272
ag1275
ag215
ag1272
ag1275
ag215
ag1272
ag1275
ag215
ag1272
ag1275
ag215
ag1272
asg667
g668
sg107
(dp3059
sg702
g703
sg1206
Nsg1212
g703
sg1209
(dp3060
sg1211
I8
sg1267
I01
sg1213
Nsg1214
(dp3061
(g459
g282
tp3062
I00
s(g459
g345
tp3063
I00
s(g214
g516
tp3064
I00
s(g214
g214
tp3065
I00
s(g573
g516
tp3066
I00
s(g573
g214
tp3067
I00
s(g282
g573
tp3068
I01
s(g459
g414
tp3069
I00
s(g1231
g214
tp3070
I00
s(g345
g345
tp3071
I00
s(g573
g1272
tp3072
I00
s(g1275
g1272
tp3073
I00
s(g345
g282
tp3074
I00
s(g1272
g282
tp3075
I00
s(g414
g215
tp3076
I00
s(g1275
g573
tp3077
I00
s(g573
g282
tp3078
I00
s(g214
g1275
tp3079
I00
s(g459
g459
tp3080
I00
s(g1272
g459
tp3081
I00
s(g516
g573
tp3082
I00
s(g573
g215
tp3083
I00
s(g1231
g516
tp3084
I00
s(g345
g1231
tp3085
I00
s(g414
g414
tp3086
I00
s(g573
g1275
tp3087
I00
s(g1272
g573
tp3088
I00
s(g1272
g516
tp3089
I00
s(g1272
g214
tp3090
I00
s(g516
g215
tp3091
I00
s(g282
g345
tp3092
I01
s(g1231
g345
tp3093
I00
s(g516
g1231
tp3094
I00
s(g1272
g345
tp3095
I00
s(g1275
g215
tp3096
I00
s(g414
g573
tp3097
I00
s(g345
g516
tp3098
I00
s(g1275
g516
tp3099
I00
s(g516
g1275
tp3100
I00
s(g214
g459
tp3101
I00
s(g282
g414
tp3102
I01
s(g214
g573
tp3103
I00
s(g282
g215
tp3104
I00
s(g1275
g1275
tp3105
I00
s(g516
g345
tp3106
I01
s(g414
g459
tp3107
I00
s(g215
g414
tp3108
I00
s(g1231
g1272
tp3109
I00
s(g215
g1231
tp3110
I00
s(g282
g214
tp3111
I00
s(g214
g414
tp3112
I00
s(g516
g1272
tp3113
I00
s(g214
g1231
tp3114
I01
s(g516
g516
tp3115
I00
s(g1231
g573
tp3116
I00
s(g1272
g215
tp3117
I00
s(g215
g459
tp3118
I00
s(g345
g215
tp3119
I00
s(g1275
g1231
tp3120
I00
s(g215
g282
tp3121
I00
s(g214
g282
tp3122
I00
s(g1231
g1275
tp3123
I00
s(g282
g1272
tp3124
I00
s(g1231
g459
tp3125
I00
s(g345
g573
tp3126
I01
s(g345
g1272
tp3127
I00
s(g215
g214
tp3128
I00
s(g1275
g282
tp3129
I00
s(g1275
g345
tp3130
I00
s(g1231
g215
tp3131
I00
s(g459
g1231
tp3132
I00
s(g414
g1231
tp3133
I00
s(g215
g516
tp3134
I00
s(g1272
g1272
tp3135
I00
s(g459
g214
tp3136
I01
s(g414
g516
tp3137
I00
s(g1272
g414
tp3138
I00
s(g573
g345
tp3139
I00
s(g1272
g1231
tp3140
I00
s(g414
g1275
tp3141
I00
s(g459
g573
tp3142
I00
s(g214
g215
tp3143
I00
s(g414
g345
tp3144
I00
s(g345
g414
tp3145
I00
s(g573
g414
tp3146
I00
s(g1275
g459
tp3147
I00
s(g573
g1231
tp3148
I00
s(g516
g459
tp3149
I00
s(g459
g1272
tp3150
I00
s(g1231
g1231
tp3151
I00
s(g282
g459
tp3152
I00
s(g414
g282
tp3153
I00
s(g573
g459
tp3154
I00
s(g573
g573
tp3155
I00
s(g282
g1231
tp3156
I00
s(g459
g215
tp3157
I00
s(g516
g414
tp3158
I00
s(g214
g1272
tp3159
I00
s(g215
g573
tp3160
I00
s(g1231
g414
tp3161
I00
s(g345
g214
tp3162
I00
s(g215
g1272
tp3163
I00
s(g459
g516
tp3164
I00
s(g1275
g214
tp3165
I00
s(g459
g1275
tp3166
I00
s(g516
g214
tp3167
I00
s(g215
g215
tp3168
I00
s(g1231
g282
tp3169
I00
s(g345
g1275
tp3170
I00
s(g282
g1275
tp3171
I00
s(g215
g1275
tp3172
I00
s(g215
g345
tp3173
I00
s(g516
g282
tp3174
I00
s(g282
g516
tp3175
I01
s(g214
g345
tp3176
I00
s(g1272
g1275
tp3177
I00
s(g414
g214
tp3178
I00
s(g345
g459
tp3179
I00
s(g282
g282
tp3180
I00
s(g414
g1272
tp3181
I00
s(g1275
g414
tp3182
I00
ssg1266
NsbsS'robot_pose'
p3183
g21
(g22
(I0
tp3184
g24
tp3185
Rp3186
(I1
(I1
I3
tp3187
g224
I00
S'\x9bb>\xf1\xa9]\xe1?\x1c-I\xc4\xaeB \xc0\xb2\xaa/L\x8f\\\xf7?'
p3188
tp3189
bsS'is_holding_goal_entity'
p3190
(itrajectory_representation.predicates.is_holding_goal_entity
IsHoldingGoalEntity
p3191
(dp3192
g2782
g2783
sg1213
NsbsS'mc_pick_path'
p3193
(dp3194
sS'current_collides'
p3195
g668
sba(itrajectory_representation.shortest_path_pick_and_place_state
ShortestPathPaPState
p3196
(dp3197
g107
(dp3198
g110
(itrajectory_representation.operator
Operator
p3199
(dp3200
g8
I01
sg9
(dp3201
g114
g59
sg11
g109
ssg16
g115
sg18
(dp3202
g20
g21
(g22
(I0
tp3203
g24
tp3204
Rp3205
(I1
(I3
tp3206
g31
I00
S'\xa0\xaa\x17\xe4\xb6*\xfc?\xa43\x99D]\xa2\x02\xc0~\xc1\x94<=\xcf\xc0\xbf'
p3207
tp3208
bssg46
(lp3209
g21
(g22
(I0
tp3210
g24
tp3211
Rp3212
(I1
(I3
tp3213
g31
I00
S'n\x86\xcf\x98\x85\xd9\xfd?\x029\x93 \x92W\x16\xc0\x7fJ\xc1\xb2\x1b\xda\x06@'
p3214
tp3215
bag21
(g22
(I0
tp3216
g24
tp3217
Rp3218
(I1
(I3
tp3219
g90
I00
S'\xf60LV\xe8\x96\x00@\x9aEw{a\xe2\x18\xc0^\xa8\x8a,\xa3\x98\x00@'
p3220
tp3221
bag21
(g22
(I0
tp3222
g24
tp3223
Rp3224
(I1
(I3
tp3225
g90
I00
S'\xea\x04A\xf2\x01I\xfa?\x9c\x92\xbb\x02I\xd2\x16\xc0\x1c>3\n\x88\xda\x14@'
p3226
tp3227
bag21
(g22
(I0
tp3228
g24
tp3229
Rp3230
(I1
(I3
tp3231
g90
I00
S'\xd0\xcb\x13\x8f\xaa\x9d\xed?\x90\x01<]3\x06\x16\xc0F\xf1\xe7x32\x02\xc0'
p3232
tp3233
bag21
(g22
(I0
tp3234
g24
tp3235
Rp3236
(I1
(I3
tp3237
g90
I00
S'l[\xc4\x16<\xe6\xe9?\xa6\xa0\x90\x84X\x9f\x13\xc0\xc2\xd74Q\x00\xaf\xff\xbf'
p3238
tp3239
bag21
(g22
(I0
tp3240
g24
tp3241
Rp3242
(I1
(I3
tp3243
g90
I00
S"\xaeJ\xbd\x1936\xec?\x04\x13\xd4'\x9f\x88\x10\xc0\x805qo\xb6\xe6\xff\xbf"
p3244
tp3245
bag21
(g22
(I0
tp3246
g24
tp3247
Rp3248
(I1
(I3
tp3249
g90
I00
S'\xf09\xb6\x1c*\x86\xee?\xc4\n/\x96\xcb\xe3\n\xc0\xa0\xc9\xd6F6\x0f\x00\xc0'
p3250
tp3251
bag21
(g22
(I0
tp3252
g24
tp3253
Rp3254
(I1
(I3
tp3255
g90
I00
S'\x99\x94\xd7\x8f\x10k\xf0?\x7f\xef\xb5\xdcX\xb6\x04\xc0~\xf8\xf4U\x11+\x00\xc0'
p3256
tp3257
bag21
(g22
(I0
tp3258
g24
tp3259
Rp3260
(I1
(I3
tp3261
g90
I00
S'S\xf49\xa2+\x89\xf0?\x90\xc6\x1b\xea\xaco\x04\xc0m\xfeq\x0c\x14\x04\xcf\xbf'
p3262
tp3263
bag3205
ag3205
asbssg209
(itrajectory_representation.predicates.place_in_way
PlaceInWay
p3264
(dp3265
g212
(dp3266
(g214
g215
tp3267
(lp3268
g21
(g22
(I0
tp3269
g24
tp3270
Rp3271
(I1
(I3
tp3272
g224
I00
S' \xbfT\xd2\xee~\xce\xbf\x05R{\xc8\xc6\x9b\x1d\xc0\x0c\xfd\xd5\xb6al\xee?'
p3273
tp3274
bag21
(g22
(I0
tp3275
g24
tp3276
Rp3277
(I1
(I3
tp3278
g235
I00
S'\xfc\x99\xeb\x1fWC\xaa\xbf\xf3Yh@\x08R\x1d\xc0\x97\x885\xa6\x1eW\xf0?'
p3279
tp3280
bag21
(g22
(I0
tp3281
g24
tp3282
Rp3283
(I1
(I3
tp3284
g235
I00
S'\xb0\x11@i\x1f\x12\xb4?\x01\xb6C\x19\x0b\x9d\x1a\xc0\xda \xc5\xc8m8\xeb?'
p3285
tp3286
bag21
(g22
(I0
tp3287
g24
tp3288
Rp3289
(I1
(I3
tp3290
g235
I00
S'T]\x0c\x0e\xd89\xda?\xf4\x992\x11%\\\x18\xc0\x95\x7f\x10B\xb1)\xe3?'
p3291
tp3292
bag21
(g22
(I0
tp3293
g24
tp3294
Rp3295
(I1
(I3
tp3296
g235
I00
S'\xd8\x87\x03p)T\xe4?\xd5\xabI\xb7V\xd0\x15\xc0vWg\x9a\x87\x8a\xec?'
p3297
tp3298
bag21
(g22
(I0
tp3299
g24
tp3300
Rp3301
(I1
(I3
tp3302
g235
I00
S'\xa9\xd9\x1d\x8d\xa6j\xdf?\xa0\x85\x1a\x84\xc6\xec\x12\xc0\x01\xb6 H\xb1\x91\xeb?'
p3303
tp3304
bag21
(g22
(I0
tp3305
g24
tp3306
Rp3307
(I1
(I3
tp3308
g235
I00
S'\x93k\xbc\xee\xc2\x10\xe8?\xab^\x86?\x08D\x10\xc0\x10;2\x00\xe5\t\xde?'
p3309
tp3310
bag21
(g22
(I0
tp3311
g24
tp3312
Rp3313
(I1
(I3
tp3314
g235
I00
S'\xef\xc3u*\xfb\xdb\xeb?\x8d\xa5\n\xfd\x03<\n\xc0\xd8\xfb\xde\x16R\xac\xde?'
p3315
tp3316
bag21
(g22
(I0
tp3317
g24
tp3318
Rp3319
(I1
(I3
tp3320
g235
I00
S'\xf4\xfdJ\x1a(#\xec?H"\x9cD\x1aE\x05\xc0.\xa9\x0b\x87\xf8\xe1\x02@'
p3321
tp3322
bas(g282
g215
tp3323
(lp3324
g21
(g22
(I0
tp3325
g24
tp3326
Rp3327
(I1
(I3
tp3328
g224
I00
S'\x90\x05,\x0b7^\xde?\x04\x17]\x9aqZ\x19\xc0j\x1b2;\x1bP\x12@'
p3329
tp3330
bag21
(g22
(I0
tp3331
g24
tp3332
Rp3333
(I1
(I3
tp3334
g235
I00
S'\xac\xb4\xd5\x83\xbb\xf9\xe0?\xe1\x80\xe9+%\xe6\x16\xc0<\xd6N\xab\x06\xcc\xf7\xbf'
p3335
tp3336
bag21
(g22
(I0
tp3337
g24
tp3338
Rp3339
(I1
(I3
tp3340
g235
I00
S"\xb2&6mg)\xe8?\x99\xe0G'\x16\xe0\x13\xc0\xc8oL\xf5\x17p\xe6\xbf"
p3341
tp3342
bag21
(g22
(I0
tp3343
g24
tp3344
Rp3345
(I1
(I3
tp3346
g235
I00
S'`\xc8Aw-\x81\xeb?/\xc3\xe6O\x04\xca\x10\xc0\x8a\xb7K)\x91{\xe4\xbf'
p3347
tp3348
bag21
(g22
(I0
tp3349
g24
tp3350
Rp3351
(I1
(I3
tp3352
g235
I00
S'\xe1\xc6\xc7\xa7\x12X\xe7?\x98\x99\xb0\x9a\xfb\xdb\x0b\xc0R\t\x1b)\xeae\xe0\xbf'
p3353
tp3354
bag21
(g22
(I0
tp3355
g24
tp3356
Rp3357
(I1
(I3
tp3358
g235
I00
S'p\xf1\xbdc^\x84\xf1?"\x88LL\xf9D\x06\xc0~w\r\xe9m\x0f\x19@'
p3359
tp3360
bas(g345
g215
tp3361
(lp3362
g21
(g22
(I0
tp3363
g24
tp3364
Rp3365
(I1
(I3
tp3366
g224
I00
S'l\xde\x15\\R\xa6\x06@\xf5q\xec\x9f\xe2\x0f\x1f\xc0\x98&\x05F\x13A\xf4?'
p3367
tp3368
bag21
(g22
(I0
tp3369
g24
tp3370
Rp3371
(I1
(I3
tp3372
g235
I00
S'\xa3\xe7\xb4\x16R\xf0\x07@\xbc\n8\xab\xe3x\x1c\xc0=\x94\xaf\xa7P\t\x01@'
p3373
tp3374
bag21
(g22
(I0
tp3375
g24
tp3376
Rp3377
(I1
(I3
tp3378
g235
I00
S'\xe8[\xb2\xaa\xa5@\x04@(j\r1!I\x1b\xc0Xj\x8bx\xc9`\xfc?'
p3379
tp3380
bag21
(g22
(I0
tp3381
g24
tp3382
Rp3383
(I1
(I3
tp3384
g235
I00
S'\xf60LV\xe8\x96\x00@\x9aEw{a\xe2\x18\xc0^\xa8\x8a,\xa3\x98\x00@'
p3385
tp3386
bag21
(g22
(I0
tp3387
g24
tp3388
Rp3389
(I1
(I3
tp3390
g235
I00
S'\xc2:\x1b=\xad,\xfa?(\x190\xa5<\xab\x16\xc0\x9d\x91\xdc8Kq\x01@'
p3391
tp3392
bag21
(g22
(I0
tp3393
g24
tp3394
Rp3395
(I1
(I3
tp3396
g235
I00
S'\x85\\2\xba\x0b5\xf5?I\r\x06\xd10\xfb\x15\xc0\x9e\x11\xee\xd8\xb9\xd7\xf5?'
p3397
tp3398
bag21
(g22
(I0
tp3399
g24
tp3400
Rp3401
(I1
(I3
tp3402
g235
I00
S'v\xb8^\x85\xa7[\xea?x\xbe\xff2t\x8d\x13\xc0\x88\x85\x8cCyH\xf6?'
p3403
tp3404
bag21
(g22
(I0
tp3405
g24
tp3406
Rp3407
(I1
(I3
tp3408
g235
I00
S'\xc2\xda(e\x83\x1a\xeb?\x8au\x8d3\xa6E\x11\xc0\xb4c\x1b\xed_\xfd\xfa?'
p3409
tp3410
bag21
(g22
(I0
tp3411
g24
tp3412
Rp3413
(I1
(I3
tp3414
g235
I00
S'\xe4u**\x0e5\xe9?\xaa\xfd\r\xed\xc4\xf6\r\xc0\x0fDE0\x1f\x0b\xfe?'
p3415
tp3416
bag21
(g22
(I0
tp3417
g24
tp3418
Rp3419
(I1
(I3
tp3420
g235
I00
S'\x06\x11,\xef\x98O\xe7??\x10\x01s=b\t\xc04\x92\xb79o\x8c\x00@'
p3421
tp3422
bag21
(g22
(I0
tp3423
g24
tp3424
Rp3425
(I1
(I3
tp3426
g235
I00
S'\x92\xaf\xf3P\x96O\xc2?(\xa1:\x8er}\x05\xc0\xd4_\x91\xb3\xffL\x02@'
p3427
tp3428
bas(g414
g215
tp3429
(lp3430
g21
(g22
(I0
tp3431
g24
tp3432
Rp3433
(I1
(I3
tp3434
g224
I00
S'\x90\x86\xcf\x98\x85\xd9\xfd?\x0f9\x93 \x92W\x16\xc0\x7fJ\xc1\xb2\x1b\xda\x06@'
p3435
tp3436
bag21
(g22
(I0
tp3437
g24
tp3438
Rp3439
(I1
(I3
tp3440
g235
I00
S'\x84\xa2s4\xa1\xd0\xf6?E=|\xb9\xcam\x17\xc0\xa93^V\xfc\xed\x05@'
p3441
tp3442
bag21
(g22
(I0
tp3443
g24
tp3444
Rp3445
(I1
(I3
tp3446
g235
I00
S'f\xb4\x9c\x07\xac\xbf\xec?n\x96\x96\x9e\x90n\x16\xc0uo!\xa9\x9b\x82\x07@'
p3447
tp3448
bag21
(g22
(I0
tp3449
g24
tp3450
Rp3451
(I1
(I3
tp3452
g235
I00
S'm\xd5h\x072\x03\xea?\xdf\xe5\xe82\xd3\x17\x14\xc0\x08\x9e\xe1\xfbO\x94\x08@'
p3453
tp3454
bag21
(g22
(I0
tp3455
g24
tp3456
Rp3457
(I1
(I3
tp3458
g235
I00
S'\xc6\x05\xbdtg\xd9\xe2?F\xdf\x9d@\\\xf3\x11\xc0\x1a\xc4.\xbb\xcc\x12\x02@'
p3459
tp3460
bag21
(g22
(I0
tp3461
g24
tp3462
Rp3463
(I1
(I3
tp3464
g235
I00
S'3z\xed\x8eN)\xe4?\x0c\x96\xd4\xa2\x0e\xd0\r\xc0\xbd%\xf5{\xe9\xf9\x03@'
p3465
tp3466
bag21
(g22
(I0
tp3467
g24
tp3468
Rp3469
(I1
(I3
tp3470
g235
I00
S'\xaf0\xe9h\xba~\xee?k\xbb\xd8\xd4\xd0g\t\xc09\x9ey\xed\xb06\x06@'
p3471
tp3472
bag21
(g22
(I0
tp3473
g24
tp3474
Rp3475
(I1
(I3
tp3476
g235
I00
S'\xf4\xfdJ\x1a(#\xec?H"\x9cD\x1aE\x05\xc0.\xa9\x0b\x87\xf8\xe1\x02@'
p3477
tp3478
bas(g459
g215
tp3479
(lp3480
g21
(g22
(I0
tp3481
g24
tp3482
Rp3483
(I1
(I3
tp3484
g224
I00
S'\xa0F\xde>\xc2e\xd3?\xa5\xc4\xe5\xa1\xb7\xfd\x1e\xc0C\xe2\xc6\xb9g$\x0e@'
p3485
tp3486
bag21
(g22
(I0
tp3487
g24
tp3488
Rp3489
(I1
(I3
tp3490
g235
I00
S'\x82\xeb.\xbfl\xf2\xe7?\xb8@O\xd3\x83\xb3\x1d\xc0\xc5\xeb\x9c\xf6Lc\xff\xbf'
p3491
tp3492
bag21
(g22
(I0
tp3493
g24
tp3494
Rp3495
(I1
(I3
tp3496
g235
I00
S'\xf8\xfc\x1a\xd0\xc9l\xe8?\x8a\x897\x8e~\x98\x1a\xc0\xaf\xf7\xb87\xc6\xa7\x01\xc0'
p3497
tp3498
bag21
(g22
(I0
tp3499
g24
tp3500
Rp3501
(I1
(I3
tp3502
g235
I00
S'\xf8C*\xbe\x14\xcf\xe8?\x81d\xab\xeb\xa8<\x18\xc0\xc8\\\xf4\x8c\xc3\xfa\xfe\xbf'
p3503
tp3504
bag21
(g22
(I0
tp3505
g24
tp3506
Rp3507
(I1
(I3
tp3508
g235
I00
S'\xd0\xcb\x13\x8f\xaa\x9d\xed?\x90\x01<]3\x06\x16\xc0F\xf1\xe7x32\x02\xc0'
p3509
tp3510
bag21
(g22
(I0
tp3511
g24
tp3512
Rp3513
(I1
(I3
tp3514
g235
I00
S'l[\xc4\x16<\xe6\xe9?\xa6\xa0\x90\x84X\x9f\x13\xc0\xc2\xd74Q\x00\xaf\xff\xbf'
p3515
tp3516
bag21
(g22
(I0
tp3517
g24
tp3518
Rp3519
(I1
(I3
tp3520
g235
I00
S"\xaeJ\xbd\x1936\xec?\x04\x13\xd4'\x9f\x88\x10\xc0\x805qo\xb6\xe6\xff\xbf"
p3521
tp3522
bag21
(g22
(I0
tp3523
g24
tp3524
Rp3525
(I1
(I3
tp3526
g235
I00
S'\xf09\xb6\x1c*\x86\xee?\xc4\n/\x96\xcb\xe3\n\xc0\xa0\xc9\xd6F6\x0f\x00\xc0'
p3527
tp3528
bag21
(g22
(I0
tp3529
g24
tp3530
Rp3531
(I1
(I3
tp3532
g235
I00
S'3\xe9\xaf\x05T\x89\xe7?+~\xcb\xd3\x15\xc7\x04\xc0x6(d5\xed\x07@'
p3533
tp3534
bas(g516
g215
tp3535
(lp3536
g21
(g22
(I0
tp3537
g24
tp3538
Rp3539
(I1
(I3
tp3540
g224
I00
S'\x95\xdag\x97_\xa1\xfe?\xe3\xcfp\xda\x9a\xbb\x1c\xc0?!\xc0\x0e\xd7~\x15@'
p3541
tp3542
bag21
(g22
(I0
tp3543
g24
tp3544
Rp3545
(I1
(I3
tp3546
g235
I00
S'\x84\xa3|.\x10\xee\xfc?\xfc\xc5\t\x9e\xc3\xe9\x1a\xc0\xec\x96S\xb5\x05\x08\x05\xc0'
p3547
tp3548
bag21
(g22
(I0
tp3549
g24
tp3550
Rp3551
(I1
(I3
tp3552
g235
I00
S'\xa1\x0f=\xe0\x1aF\xfc?e&S\xf6\xb5\xfc\x17\xc0s\xad\xdc\xd8h\x9b\x04\xc0'
p3553
tp3554
bag21
(g22
(I0
tp3555
g24
tp3556
Rp3557
(I1
(I3
tp3558
g235
I00
S'R\x12);\xaf\xa5\xf7?\xf3\xf9\xeb\x07c\xef\x15\xc0\xf0V^\xd6\x94\x96\x05\xc0'
p3559
tp3560
bag21
(g22
(I0
tp3561
g24
tp3562
Rp3563
(I1
(I3
tp3564
g235
I00
S'K\x19\xdd\x9a\xe6\xce\xe9?\xe1\x08\xb9\xe6+\xc9\x15\xc0\xeeN\x0e\xdd1/\x08\xc0'
p3565
tp3566
bag21
(g22
(I0
tp3567
g24
tp3568
Rp3569
(I1
(I3
tp3570
g235
I00
S'\x16nfXE \xf2?\x06\xf1|#c\xe6\x12\xc08\x98\x8f,\xc1@\x04\xc0'
p3571
tp3572
bag21
(g22
(I0
tp3573
g24
tp3574
Rp3575
(I1
(I3
tp3576
g235
I00
S'\xc1E\xbb\x1b\xed\x13\xf3?\xca\xdcw\xec\x1a\x18\x10\xc0j\xed\xec2j\x8c\x04\xc0'
p3577
tp3578
bag21
(g22
(I0
tp3579
g24
tp3580
Rp3581
(I1
(I3
tp3582
g235
I00
S'\xf09\xb6\x1c*\x86\xee?\xc4\n/\x96\xcb\xe3\n\xc0\xa0\xc9\xd6F6\x0f\x00\xc0'
p3583
tp3584
bag21
(g22
(I0
tp3585
g24
tp3586
Rp3587
(I1
(I3
tp3588
g235
I00
S'3\xe9\xaf\x05T\x89\xe7?+~\xcb\xd3\x15\xc7\x04\xc0x6(d5\xed\x07@'
p3589
tp3590
bas(g573
g215
tp3591
(lp3592
g21
(g22
(I0
tp3593
g24
tp3594
Rp3595
(I1
(I3
tp3596
g224
I00
S'\xfa\x16C\xf3*\xb4\x07@k\x16\x86\xfc\xfc\x02\x1a\xc0H\xe9\x92\xe6\x95\x02\xdb?'
p3597
tp3598
bag21
(g22
(I0
tp3599
g24
tp3600
Rp3601
(I1
(I3
tp3602
g235
I00
S'A\xec\xb55+(\x03@v\x14\x1a\xc5J\xca\x18\xc0\xe9\rA\xa0%\xbe\xc7?'
p3603
tp3604
bag21
(g22
(I0
tp3605
g24
tp3606
Rp3607
(I1
(I3
tp3608
g235
I00
S'\xe0 ;\x819w\xfd?\xe7\xcc\xc2\xa0\xa5f\x17\xc04\xedq\x1c\x8eK\xfa?'
p3609
tp3610
bag21
(g22
(I0
tp3611
g24
tp3612
Rp3613
(I1
(I3
tp3614
g235
I00
S'\x85\\2\xba\x0b5\xf5?I\r\x06\xd10\xfb\x15\xc0\x9e\x11\xee\xd8\xb9\xd7\xf5?'
p3615
tp3616
bag21
(g22
(I0
tp3617
g24
tp3618
Rp3619
(I1
(I3
tp3620
g235
I00
S'v\xb8^\x85\xa7[\xea?x\xbe\xff2t\x8d\x13\xc0\x88\x85\x8cCyH\xf6?'
p3621
tp3622
bag21
(g22
(I0
tp3623
g24
tp3624
Rp3625
(I1
(I3
tp3626
g235
I00
S'\xc2\xda(e\x83\x1a\xeb?\x8au\x8d3\xa6E\x11\xc0\xb4c\x1b\xed_\xfd\xfa?'
p3627
tp3628
bag21
(g22
(I0
tp3629
g24
tp3630
Rp3631
(I1
(I3
tp3632
g235
I00
S'\xe4u**\x0e5\xe9?\xaa\xfd\r\xed\xc4\xf6\r\xc0\x0fDE0\x1f\x0b\xfe?'
p3633
tp3634
bag21
(g22
(I0
tp3635
g24
tp3636
Rp3637
(I1
(I3
tp3638
g235
I00
S'\x06\x11,\xef\x98O\xe7??\x10\x01s=b\t\xc04\x92\xb79o\x8c\x00@'
p3639
tp3640
bag21
(g22
(I0
tp3641
g24
tp3642
Rp3643
(I1
(I3
tp3644
g235
I00
S'\x92\xaf\xf3P\x96O\xc2?(\xa1:\x8er}\x05\xc0\xd4_\x91\xb3\xffL\x02@'
p3645
tp3646
bassg630
(dp3647
(g214
g215
tp3648
(lp3649
Vsquare_packing_box2
p3650
aVsquare_packing_box4
p3651
aVrectangular_packing_box1
p3652
aVsquare_packing_box1
p3653
as(g282
g215
tp3654
(lp3655
Vrectangular_packing_box3
p3656
aVrectangular_packing_box1
p3657
aVsquare_packing_box1
p3658
as(g345
g215
tp3659
(lp3660
Vsquare_packing_box3
p3661
aVsquare_packing_box1
p3662
as(g414
g215
tp3663
(lp3664
Vrectangular_packing_box1
p3665
as(g459
g215
tp3666
(lp3667
Vsquare_packing_box4
p3668
aVrectangular_packing_box1
p3669
aVrectangular_packing_box3
p3670
aVsquare_packing_box1
p3671
as(g516
g215
tp3672
(lp3673
Vrectangular_packing_box1
p3674
aVsquare_packing_box1
p3675
as(g573
g215
tp3676
(lp3677
Vsquare_packing_box1
p3678
assg664
(lp3679
Vrectangular_packing_box4
p3680
aVrectangular_packing_box2
p3681
aVsquare_packing_box2
p3682
aVsquare_packing_box3
p3683
ag57
aVsquare_packing_box4
p3684
asg667
(dp3685
Vrectangular_packing_box4
p3686
g673
sVrectangular_packing_box2
p3687
g677
sVrectangular_packing_box3
p3688
g681
sVrectangular_packing_box1
p3689
g685
sVsquare_packing_box2
p3690
g689
sVsquare_packing_box3
p3691
g693
sVsquare_packing_box1
p3692
g697
sVsquare_packing_box4
p3693
g670
((lp3694
I384
aI5
aI134
aI135
aI136
aI394
aI523
aI157
aI133
aI163
aI164
aI165
aI296
aI176
aI433
aI308
aI452
aI197
aI583
aI328
aI458
aI589
aI82
aI83
aI229
aI502
aI251
atp3695
Rp3696
ssg107
g3198
sg702
(dp3697
g3680
g705
sg3681
g783
sVrectangular_packing_box3
p3698
g857
sVrectangular_packing_box1
p3699
g919
sg3682
g974
sg3683
g1066
sg57
(itrajectory_representation.operator
Operator
p3700
(dp3701
g8
I01
sg9
(dp3702
g11
g57
ssg16
g1148
sg18
(dp3703
g20
g21
(g22
(I0
tp3704
g24
tp3705
Rp3706
(I1
(I3
tp3707
g31
I00
S'\x91\x86\xcf\x98\x85\xd9\xfd?\x0f9\x93 \x92W\x16\xc0\x7fJ\xc1\xb2\x1b\xda\x06@'
p3708
tp3709
bssg46
(lp3710
g21
(g22
(I0
tp3711
g24
tp3712
Rp3713
(I1
(I3
tp3714
g224
I00
S'\x12\xdd\x96K\xa5\x1b\xf3?\xd1\x8e$\x9d\xc2|\x1d\xc0\xbfa5\x0c\xa6\x93\x06@'
p3715
tp3716
bag21
(g22
(I0
tp3717
g24
tp3718
Rp3719
(I1
(I3
tp3720
g235
I00
S'zNu~${\xfb?c\xfe\x8c\xbf\x1f\xab\x1b\xc0\x9b\xbb\x05m\x02\x02\x07@'
p3721
tp3722
bag21
(g22
(I0
tp3723
g24
tp3724
Rp3725
(I1
(I3
tp3726
g235
I00
S'\xf60LV\xe8\x96\x00@\x9aEw{a\xe2\x18\xc0^\xa8\x8a,\xa3\x98\x00@'
p3727
tp3728
bag3706
asbsg3684
(itrajectory_representation.operator
Operator
p3729
(dp3730
g8
I01
sg9
(dp3731
g708
Vsquare_packing_box4
p3732
ssg16
g710
sg18
(dp3733
g712
(lp3734
g21
(g22
(I0
tp3735
g24
tp3736
Rp3737
(I1
(I3
tp3738
g224
I00
S'\x9c\x05,\x0b7^\xde?\x04\x17]\x9aqZ\x19\xc0\xb9FHd\x80G\xfb\xbf'
p3739
tp3740
bag21
(g22
(I0
tp3741
g24
tp3742
Rp3743
(I1
(I3
tp3744
g224
I00
S',\xd5SOe\xcc\xea?r\x7fT)U\xf9\x1e\xc0\x82\xccf\xa8\x0c\x97\xff?'
p3745
tp3746
bag21
(g22
(I0
tp3747
g24
tp3748
Rp3749
(I1
(I3
tp3750
g224
I00
S'V8\xc9\xc5\x16\xd2\xf4?,S\xf0\xf2\x12\x84\x1c\xc0\x13X\xda\xc9\x0b\xa5\x06@'
p3751
tp3752
basg732
I00
ssg46
(lp3753
g21
(g22
(I0
tp3754
g24
tp3755
Rp3756
(I1
(I3
tp3757
g224
I00
S'\x9e\xaa\x17\xe4\xb6*\xfc?\xa83\x99D]\xa2\x02\xc0\x07\x87_j\x81\x9b\x18@'
p3758
tp3759
bag21
(g22
(I0
tp3760
g24
tp3761
Rp3762
(I1
(I3
tp3763
g235
I00
S'\x99\x94\xd7\x8f\x10k\xf0?\x7f\xef\xb5\xdcX\xb6\x04\xc0~\xf8\xf4U\x11+\x00\xc0'
p3764
tp3765
bag21
(g22
(I0
tp3766
g24
tp3767
Rp3768
(I1
(I3
tp3769
g235
I00
S'\xf09\xb6\x1c*\x86\xee?\xc4\n/\x96\xcb\xe3\n\xc0\xa0\xc9\xd6F6\x0f\x00\xc0'
p3770
tp3771
bag21
(g22
(I0
tp3772
g24
tp3773
Rp3774
(I1
(I3
tp3775
g235
I00
S"\xaeJ\xbd\x1936\xec?\x04\x13\xd4'\x9f\x88\x10\xc0\x805qo\xb6\xe6\xff\xbf"
p3776
tp3777
bag21
(g22
(I0
tp3778
g24
tp3779
Rp3780
(I1
(I3
tp3781
g235
I00
S'l[\xc4\x16<\xe6\xe9?\xa6\xa0\x90\x84X\x9f\x13\xc0\xc2\xd74Q\x00\xaf\xff\xbf'
p3782
tp3783
bag21
(g22
(I0
tp3784
g24
tp3785
Rp3786
(I1
(I3
tp3787
g235
I00
S'\x85\\2\xba\x0b5\xf5?I\r\x06\xd10\xfb\x15\xc0\x9e\x11\xee\xd8\xb9\xd7\xf5?'
p3788
tp3789
bag21
(g22
(I0
tp3790
g24
tp3791
Rp3792
(I1
(I3
tp3793
g235
I00
S'\xe0 ;\x819w\xfd?\xe7\xcc\xc2\xa0\xa5f\x17\xc04\xedq\x1c\x8eK\xfa?'
p3794
tp3795
bag21
(g22
(I0
tp3796
g24
tp3797
Rp3798
(I1
(I3
tp3799
g235
I00
S'\xf60LV\xe8\x96\x00@\x9aEw{a\xe2\x18\xc0^\xa8\x8a,\xa3\x98\x00@'
p3800
tp3801
bag21
(g22
(I0
tp3802
g24
tp3803
Rp3804
(I1
(I3
tp3805
g235
I00
S'\x84\xa3|.\x10\xee\xfc?\xfc\xc5\t\x9e\xc3\xe9\x1a\xc0\xec\x96S\xb5\x05\x08\x05\xc0'
p3806
tp3807
bag3749
asbssg1204
(dp3808
sg1206
Nsg1207
(lp3809
sg1209
(dp3810
sg1211
I0
sg1212
g3697
sg1213
Nsg1214
(dp3811
(g459
g282
g215
tp3812
I01
s(g282
g214
g215
tp3813
I01
s(g214
g282
g215
tp3814
I01
s(g282
g516
g215
tp3815
I00
s(g516
g282
g215
tp3816
I00
s(g282
g573
g215
tp3817
I00
s(g282
g459
g215
tp3818
I00
s(g345
g282
g215
tp3819
I00
s(g282
g1231
g215
tp3820
I01
s(g414
g282
g215
tp3821
I00
s(g282
g345
g215
tp3822
I00
s(g282
g414
g215
tp3823
I01
s(g573
g282
g215
tp3824
I00
ssg1266
Nsg1267
I01
sbsg1268
(dp3825
(g573
g573
g215
tp3826
g1271
s(g414
g1272
g1272
tp3827
g1274
s(g1275
g1231
g215
tp3828
g1277
s(g459
g282
g1272
tp3829
(lp3830
I00
as(g215
g215
g215
tp3831
g1281
s(g282
g573
g1272
tp3832
(lp3833
I00
as(g414
g214
g215
tp3834
g1285
s(g215
g345
g215
tp3835
g1287
s(g459
g414
g215
tp3836
g1289
s(g214
g345
g1272
tp3837
g1291
s(g215
g282
g1272
tp3838
(lp3839
I00
as(g459
g1275
g215
tp3840
g1295
s(g1272
g215
g1272
tp3841
g1297
s(g345
g516
g215
tp3842
g1299
s(g282
g1275
g215
tp3843
(lp3844
I00
as(g459
g1231
g1272
tp3845
g1303
s(g516
g1272
g215
tp3846
g1305
s(g1275
g573
g1272
tp3847
g1307
s(g215
g1275
g215
tp3848
g1309
s(g573
g1272
g215
tp3849
g1311
s(g516
g1275
g215
tp3850
g1313
s(g414
g414
g1272
tp3851
g1315
s(g1272
g282
g1272
tp3852
(lp3853
I00
as(g1275
g1272
g215
tp3854
g1319
s(g1275
g459
g215
tp3855
g1321
s(g1272
g1272
g215
tp3856
g1323
s(g516
g345
g1272
tp3857
g1325
s(g215
g215
g1272
tp3858
g1327
s(g1231
g459
g1272
tp3859
g1329
s(g573
g282
g215
tp3860
(lp3861
I00
as(g516
g414
g215
tp3862
g1333
s(g1231
g215
g1272
tp3863
g1335
s(g215
g573
g1272
tp3864
g1337
s(g1231
g214
g1272
tp3865
g1339
s(g214
g1231
g215
tp3866
g1341
s(g1272
g414
g1272
tp3867
g1343
s(g282
g459
g1272
tp3868
(lp3869
I00
as(g573
g573
g1272
tp3870
g1347
s(g1275
g282
g215
tp3871
(lp3872
I00
as(g1272
g215
g215
tp3873
g1351
s(g345
g573
g215
tp3874
g1353
s(g215
g214
g215
tp3875
g1355
s(g459
g1231
g215
tp3876
g1357
s(g214
g282
g215
tp3877
(lp3878
I01
as(g414
g214
g1272
tp3879
g1361
s(g516
g459
g215
tp3880
g1363
s(g459
g414
g1272
tp3881
g1365
s(g459
g573
g1272
tp3882
g1367
s(g1275
g459
g1272
tp3883
g1369
s(g1272
g214
g1272
tp3884
g1371
s(g1275
g215
g215
tp3885
g1373
s(g345
g215
g215
tp3886
g1375
s(g1272
g1275
g215
tp3887
g1377
s(g573
g282
g1272
tp3888
(lp3889
I00
as(g516
g573
g1272
tp3890
g1381
s(g516
g516
g215
tp3891
g1383
s(g1231
g214
g215
tp3892
g1385
s(g1275
g573
g215
tp3893
g1387
s(g1231
g1272
g1272
tp3894
g1389
s(g282
g414
g215
tp3895
(lp3896
I01
as(g414
g414
g215
tp3897
g1393
s(g414
g345
g215
tp3898
g1395
s(g345
g573
g1272
tp3899
g1397
s(g282
g1231
g1272
tp3900
(lp3901
I00
as(g516
g345
g215
tp3902
g1401
s(g1231
g459
g215
tp3903
g1403
s(g573
g1231
g1272
tp3904
g1405
s(g1231
g215
g215
tp3905
g1407
s(g459
g573
g215
tp3906
g1409
s(g573
g516
g215
tp3907
g1411
s(g214
g1231
g1272
tp3908
g1413
s(g215
g459
g1272
tp3909
g1415
s(g1275
g215
g1272
tp3910
g1417
s(g1275
g282
g1272
tp3911
(lp3912
I00
as(g516
g573
g215
tp3913
g1421
s(g214
g516
g1272
tp3914
g1423
s(g573
g1275
g1272
tp3915
g1425
s(g1231
g1272
g215
tp3916
g1427
s(g516
g459
g1272
tp3917
g1429
s(g516
g1231
g1272
tp3918
g1431
s(g282
g414
g1272
tp3919
(lp3920
I00
as(g215
g214
g1272
tp3921
g1435
s(g1275
g516
g1272
tp3922
g1437
s(g1272
g214
g215
tp3923
g1439
s(g1272
g459
g1272
tp3924
g1441
s(g573
g1231
g215
tp3925
g1443
s(g282
g1231
g215
tp3926
(lp3927
I01
as(g1272
g516
g215
tp3928
g1447
s(g573
g516
g1272
tp3929
g1449
s(g573
g345
g1272
tp3930
g1451
s(g214
g282
g1272
tp3931
(lp3932
I00
as(g414
g345
g1272
tp3933
g1455
s(g1231
g516
g1272
tp3934
g1457
s(g215
g414
g1272
tp3935
g1459
s(g214
g1272
g1272
tp3936
g1461
s(g345
g215
g1272
tp3937
g1463
s(g414
g1231
g215
tp3938
g1465
s(g573
g1275
g215
tp3939
g1467
s(g345
g459
g1272
tp3940
g1469
s(g214
g573
g1272
tp3941
g1471
s(g516
g1231
g215
tp3942
g1473
s(g282
g1272
g1272
tp3943
(lp3944
I00
as(g459
g215
g215
tp3945
g1477
s(g282
g345
g215
tp3946
(lp3947
I00
as(g215
g516
g1272
tp3948
g1481
s(g1272
g1231
g1272
tp3949
g1483
s(g1272
g516
g1272
tp3950
g1485
s(g414
g516
g215
tp3951
g1487
s(g1231
g516
g215
tp3952
g1489
s(g414
g1231
g1272
tp3953
g1491
s(g214
g573
g215
tp3954
g1493
s(g573
g459
g215
tp3955
g1495
s(g214
g215
g1272
tp3956
g1497
s(g282
g1272
g215
tp3957
(lp3958
I00
as(g1272
g345
g1272
tp3959
g1501
s(g573
g345
g215
tp3960
g1503
s(g214
g214
g215
tp3961
g1505
s(g345
g345
g215
tp3962
g1507
s(g345
g214
g1272
tp3963
g1509
s(g214
g1272
g215
tp3964
g1511
s(g516
g282
g215
tp3965
(lp3966
I00
as(g345
g459
g215
tp3967
g1515
s(g459
g1272
g1272
tp3968
g1517
s(g214
g1275
g1272
tp3969
g1519
s(g459
g215
g1272
tp3970
g1521
s(g414
g459
g1272
tp3971
g1523
s(g282
g345
g1272
tp3972
(lp3973
I00
as(g516
g215
g1272
tp3974
g1527
s(g214
g215
g215
tp3975
g1529
s(g1272
g345
g215
tp3976
g1531
s(g1231
g1231
g215
tp3977
g1533
s(g1272
g282
g215
tp3978
(lp3979
I00
as(g282
g516
g215
tp3980
(lp3981
I00
as(g414
g573
g215
tp3982
g1539
s(g414
g516
g1272
tp3983
g1541
s(g345
g414
g1272
tp3984
g1543
s(g215
g459
g215
tp3985
g1545
s(g1275
g214
g1272
tp3986
g1547
s(g214
g414
g215
tp3987
g1549
s(g1231
g1275
g215
tp3988
g1551
s(g516
g282
g1272
tp3989
(lp3990
I00
as(g516
g214
g1272
tp3991
g1555
s(g345
g1231
g215
tp3992
g1557
s(g573
g459
g1272
tp3993
g1559
s(g345
g1272
g215
tp3994
g1561
s(g214
g1275
g215
tp3995
g1563
s(g282
g214
g1272
tp3996
(lp3997
I00
as(g573
g414
g215
tp3998
g1567
s(g516
g414
g1272
tp3999
g1569
s(g282
g282
g1272
tp4000
(lp4001
I00
as(g345
g345
g1272
tp4002
g1573
s(g1231
g1231
g1272
tp4003
g1575
s(g414
g282
g1272
tp4004
(lp4005
I00
as(g282
g459
g215
tp4006
(lp4007
I00
as(g1275
g414
g215
tp4008
g1581
s(g215
g1275
g1272
tp4009
g1583
s(g215
g1231
g1272
tp4010
g1585
s(g459
g1272
g215
tp4011
g1587
s(g414
g573
g1272
tp4012
g1589
s(g1231
g414
g1272
tp4013
g1591
s(g214
g214
g1272
tp4014
g1593
s(g1275
g214
g215
tp4015
g1595
s(g459
g214
g1272
tp4016
g1597
s(g1231
g1275
g1272
tp4017
g1599
s(g414
g459
g215
tp4018
g1601
s(g345
g1231
g1272
tp4019
g1603
s(g345
g214
g215
tp4020
g1605
s(g282
g214
g215
tp4021
(lp4022
I01
as(g414
g215
g1272
tp4023
g1609
s(g459
g516
g215
tp4024
g1611
s(g516
g516
g1272
tp4025
g1613
s(g345
g1275
g215
tp4026
g1615
s(g1272
g1275
g1272
tp4027
g1617
s(g282
g516
g1272
tp4028
(lp4029
I00
as(g1272
g1231
g215
tp4030
g1621
s(g1275
g1275
g1272
tp4031
g1623
s(g345
g414
g215
tp4032
g1625
s(g414
g282
g215
tp4033
(lp4034
I00
as(g1272
g573
g1272
tp4035
g1629
s(g214
g414
g1272
tp4036
g1631
s(g516
g215
g215
tp4037
g1633
s(g1275
g414
g1272
tp4038
g1635
s(g516
g214
g215
tp4039
g1637
s(g214
g459
g215
tp4040
g1639
s(g345
g1272
g1272
tp4041
g1641
s(g573
g414
g1272
tp4042
g1643
s(g1231
g573
g215
tp4043
g1645
s(g1275
g1272
g1272
tp4044
g1647
s(g1272
g573
g215
tp4045
g1649
s(g414
g1275
g215
tp4046
g1651
s(g459
g516
g1272
tp4047
g1653
s(g459
g345
g1272
tp4048
g1655
s(g282
g215
g215
tp4049
(lp4050
I00
as(g345
g1275
g1272
tp4051
g1659
s(g345
g282
g215
tp4052
(lp4053
I00
as(g1275
g345
g1272
tp4054
g1663
s(g215
g1231
g215
tp4055
g1665
s(g215
g516
g215
tp4056
g1667
s(g1231
g414
g215
tp4057
g1669
s(g1231
g345
g215
tp4058
g1671
s(g1275
g516
g215
tp4059
g1673
s(g459
g214
g215
tp4060
g1675
s(g459
g459
g1272
tp4061
g1677
s(g1231
g282
g1272
tp4062
(lp4063
I00
as(g282
g215
g1272
tp4064
(lp4065
I00
as(g573
g215
g215
tp4066
g1683
s(g414
g215
g215
tp4067
g1685
s(g1231
g573
g1272
tp4068
g1687
s(g282
g573
g215
tp4069
(lp4070
I00
as(g215
g1272
g215
tp4071
g1691
s(g1275
g1275
g215
tp4072
g1693
s(g573
g214
g1272
tp4073
g1695
s(g414
g1275
g1272
tp4074
g1697
s(g1272
g459
g215
tp4075
g1699
s(g214
g345
g215
tp4076
g1701
s(g1275
g345
g215
tp4077
g1703
s(g414
g1272
g215
tp4078
g1705
s(g214
g459
g1272
tp4079
g1707
s(g215
g414
g215
tp4080
g1709
s(g1275
g1231
g1272
tp4081
g1711
s(g282
g1275
g1272
tp4082
(lp4083
I00
as(g459
g459
g215
tp4084
g1715
s(g1231
g282
g215
tp4085
(lp4086
I00
as(g516
g1275
g1272
tp4087
g1719
s(g459
g345
g215
tp4088
g1721
s(g215
g282
g215
tp4089
(lp4090
I00
as(g214
g516
g215
tp4091
g1725
s(g345
g282
g1272
tp4092
(lp4093
I00
as(g282
g282
g215
tp4094
(lp4095
I00
as(g1231
g345
g1272
tp4096
g1731
s(g459
g282
g215
tp4097
(lp4098
I01
as(g516
g1272
g1272
tp4099
g1735
s(g215
g573
g215
tp4100
g1737
s(g573
g1272
g1272
tp4101
g1739
s(g215
g345
g1272
tp4102
g1741
s(g573
g215
g1272
tp4103
g1743
s(g1272
g1272
g1272
tp4104
g1745
s(g459
g1275
g1272
tp4105
g1747
s(g345
g516
g1272
tp4106
g1749
s(g215
g1272
g1272
tp4107
g1751
s(g573
g214
g215
tp4108
g1753
s(g1272
g414
g215
tp4109
g1755
ssg702
g3697
sg1756
I01
sg1757
(lp4110
S'square_packing_box1'
p4111
aS'rectangular_packing_box1'
p4112
aS'square_packing_box2'
p4113
aS'rectangular_packing_box2'
p4114
aS'square_packing_box3'
p4115
aS'rectangular_packing_box3'
p4116
aS'square_packing_box4'
p4117
aS'rectangular_packing_box4'
p4118
asg1213
Nsg1767
Nsg1768
(dp4119
Vrectangular_packing_box4
p4120
g21
(g22
(I0
tp4121
g24
tp4122
Rp4123
(I1
(I1
I3
tp4124
g224
I00
S'z9\x1f\x16X\xb0\n@b\xa2q^\x94\x13\x1d\xc0M\xeb\x0c\xccLN\x03@'
p4125
tp4126
bsVrectangular_packing_box2
p4127
g21
(g22
(I0
tp4128
g24
tp4129
Rp4130
(I1
(I1
I3
tp4131
g224
I00
S'\x9e\x8e\x84\xb4\xa6\x89\r@\x02\x17f\xb4\xdbK\x1a\xc0\xe1C,\xd4-\xdf\xfa?'
p4132
tp4133
bsVrectangular_packing_box3
p4134
g21
(g22
(I0
tp4135
g24
tp4136
Rp4137
(I1
(I1
I3
tp4138
g224
I00
S'\xb3\xa0\x00\xda\xc5g\xd0?\xea\x1cj\xd5\xdc\xae\x1a\xc0\x03\xff\x04\rz\xc0\xf1?'
p4139
tp4140
bsVrectangular_packing_box1
p4141
g21
(g22
(I0
tp4142
g24
tp4143
Rp4144
(I1
(I1
I3
tp4145
g224
I00
S'\r\xfec\xadN\x82\xf2?\xa2\xc6\x85\xd55\xd2\x18\xc0Z\xde\x93D\xc1n\x00@'
p4146
tp4147
bsVsquare_packing_box2
p4148
g21
(g22
(I0
tp4149
g24
tp4150
Rp4151
(I1
(I1
I3
tp4152
g224
I00
S'zk\xe5z\x85a\xdd\xbfO\xa3\x91/\xa7V\x1f\xc0\xa4\xeb\xe9\xf6?\xe6\x12@'
p4153
tp4154
bsVsquare_packing_box3
p4155
g21
(g22
(I0
tp4156
g24
tp4157
Rp4158
(I1
(I1
I3
tp4159
g224
I00
S'!\x9f8\xd3t\xd2\x02@\x86\x0b\xd3\x89h\x1a\x1f\xc0\xb4\xd7\xc2\x9c\x9c(\xe1?'
p4160
tp4161
bsVsquare_packing_box1
p4162
g21
(g22
(I0
tp4163
g24
tp4164
Rp4165
(I1
(I1
I3
tp4166
g224
I00
S'\xee\xe2\xe4^\xbeS\xf3?D\xd1\xcbf(\x9d\x15\xc0u\xa0\xf6L\xf8q\x16@'
p4167
tp4168
bsVsquare_packing_box4
p4169
g21
(g22
(I0
tp4170
g24
tp4171
Rp4172
(I1
(I1
I3
tp4173
g224
I00
S'\xeb\x8aP\xcd\x03\x0b\xe3?_;\x7f\x11Oe\x1c\xc0\x9c\xbdjd\xc7o\x12@'
p4174
tp4175
bssg1826
(lp4176
(g3680
g1272
tp4177
a(g3681
g1272
tp4178
a(g3698
g1272
tp4179
a(g3699
g1272
tp4180
a(g3682
g1272
tp4181
a(g3683
g1272
tp4182
a(g57
g1272
tp4183
a(g3684
g1272
tp4184
a(g3699
g215
tp4185
asg1837
(itrajectory_representation.predicates.in_region
InRegion
p4186
(dp4187
g1213
Nsbsg1840
(dp4188
g3680
(lp4189
g21
(g22
(I0
tp4190
g24
tp4191
Rp4192
(I1
(I3
tp4193
g224
I00
S'\x12\xdd\x96K\xa5\x1b\xf3?\xd1\x8e$\x9d\xc2|\x1d\xc0\xbfa5\x0c\xa6\x93\x06@'
p4194
tp4195
bag21
(g22
(I0
tp4196
g24
tp4197
Rp4198
(I1
(I3
tp4199
g235
I00
S'zNu~${\xfb?c\xfe\x8c\xbf\x1f\xab\x1b\xc0\x9b\xbb\x05m\x02\x02\x07@'
p4200
tp4201
bag21
(g22
(I0
tp4202
g24
tp4203
Rp4204
(I1
(I3
tp4205
g235
I00
S'\tf\xd5\xc3\xdb\xc1\x02@y9\xac\xaa\x85r\x1a\xc0n\x19\xc0\xf8c\xa8\xe2\xbf'
p4206
tp4207
bag722
asg3681
(lp4208
g21
(g22
(I0
tp4209
g24
tp4210
Rp4211
(I1
(I3
tp4212
g224
I00
S'\x12\xdd\x96K\xa5\x1b\xf3?\xd1\x8e$\x9d\xc2|\x1d\xc0\xbfa5\x0c\xa6\x93\x06@'
p4213
tp4214
bag21
(g22
(I0
tp4215
g24
tp4216
Rp4217
(I1
(I3
tp4218
g235
I00
S'zNu~${\xfb?c\xfe\x8c\xbf\x1f\xab\x1b\xc0\x9b\xbb\x05m\x02\x02\x07@'
p4219
tp4220
bag21
(g22
(I0
tp4221
g24
tp4222
Rp4223
(I1
(I3
tp4224
g235
I00
S"'DJ\xaet\xe5\x02@&#\x93\x97\x82\xb8\x1b\xc0\xdbM\xcc\xf6#.\x08@"
p4225
tp4226
bag21
(g22
(I0
tp4227
g24
tp4228
Rp4229
(I1
(I3
tp4230
g235
I00
S'A\xec\xb55+(\x03@v\x14\x1a\xc5J\xca\x18\xc0\xe9\rA\xa0%\xbe\xc7?'
p4231
tp4232
bag791
asg3698
(lp4233
g21
(g22
(I0
tp4234
g24
tp4235
Rp4236
(I1
(I3
tp4237
g224
I00
S'\x12\xdd\x96K\xa5\x1b\xf3?\xd1\x8e$\x9d\xc2|\x1d\xc0\xbfa5\x0c\xa6\x93\x06@'
p4238
tp4239
bag21
(g22
(I0
tp4240
g24
tp4241
Rp4242
(I1
(I3
tp4243
g235
I00
S'\x06\xd6\xb9\\\xe7\xcd\xef?f\xceN\xd9ax\x1e\xc0\xb6KP\xe9\ng\x07\xc0'
p4244
tp4245
bag21
(g22
(I0
tp4246
g24
tp4247
Rp4248
(I1
(I3
tp4249
g235
I00
S'\x19Q5\xf7|.\xd4?\xf2\xca\xbb\n\x90\xe7\x1f\xc0,\xe0Dp\x8d\xe5\xe6?'
p4250
tp4251
bag865
asg3699
(lp4252
g21
(g22
(I0
tp4253
g24
tp4254
Rp4255
(I1
(I3
tp4256
g224
I00
S'\x12\xdd\x96K\xa5\x1b\xf3?\xd1\x8e$\x9d\xc2|\x1d\xc0\xbfa5\x0c\xa6\x93\x06@'
p4257
tp4258
bag21
(g22
(I0
tp4259
g24
tp4260
Rp4261
(I1
(I3
tp4262
g235
I00
S"f'\x1d)\\\x10\xe6?I\x87\x7f\xab\xf9\x9f\x1b\xc0\x90\xd8HX\xe5\x0e\x04@"
p4263
tp4264
bag21
(g22
(I0
tp4265
g24
tp4266
Rp4267
(I1
(I3
tp4268
g235
I00
S'\x94<e\xf2\x0c\xec\xce?\x96\x12\xae\x90\xe8(\x19\xc0\x0c\n*\xba\xfbb\x16@'
p4269
tp4270
bag927
asg3682
(lp4271
g21
(g22
(I0
tp4272
g24
tp4273
Rp4274
(I1
(I3
tp4275
g224
I00
S'\x12\xdd\x96K\xa5\x1b\xf3?\xd1\x8e$\x9d\xc2|\x1d\xc0\xbfa5\x0c\xa6\x93\x06@'
p4276
tp4277
bag21
(g22
(I0
tp4278
g24
tp4279
Rp4280
(I1
(I3
tp4281
g235
I00
S'\xack\x86\xecj\xbe\xf2?\x96O\xb7\x87\x84\x85\x1f\xc0\xfa\x84\x19\xd1\xe3\x0c\x04@'
p4282
tp4283
bag21
(g22
(I0
tp4284
g24
tp4285
Rp4286
(I1
(I3
tp4287
g235
I00
S'\x1c\xf4+\x9b\xa6f\xe0?f\xf3\x03\x0b\xb5\xb5\x1f\xc0\xe7\x92UM\xe4\xe4\r@'
p4288
tp4289
bag982
asg3683
(lp4290
g21
(g22
(I0
tp4291
g24
tp4292
Rp4293
(I1
(I3
tp4294
g224
I00
S'\x12\xdd\x96K\xa5\x1b\xf3?\xd1\x8e$\x9d\xc2|\x1d\xc0\xbfa5\x0c\xa6\x93\x06@'
p4295
tp4296
bag21
(g22
(I0
tp4297
g24
tp4298
Rp4299
(I1
(I3
tp4300
g235
I00
S'NK\xd5\xc6\xcfS\xdf?\xed\x1f\xadQ\xd2\xe9\x1e\xc0[\xb0\xd0\x7f\x8f\xf4\x04\xc0'
p4301
tp4302
bag21
(g22
(I0
tp4303
g24
tp4304
Rp4305
(I1
(I3
tp4306
g235
I00
S"\x16\x94\x96'9\xeb\xf2?\xa16\xd9K\xf3\xbe\x1d\xc0T\x83\x00\xa9\xa7I\xf0\xbf"
p4307
tp4308
bag1074
asg57
g3710
sg3684
(lp4309
g21
(g22
(I0
tp4310
g24
tp4311
Rp4312
(I1
(I3
tp4313
g224
I00
S'\x12\xdd\x96K\xa5\x1b\xf3?\xd1\x8e$\x9d\xc2|\x1d\xc0\xbfa5\x0c\xa6\x93\x06@'
p4314
tp4315
bag3743
assg667
(dp4316
(Vrectangular_packing_box2
p4317
(g1982
(g224
S'\xa50\xefq\xa6\x89\r@'
p4318
tp4319
Rp4320
g1982
(g224
S'\x96&\xa5\xa0\xdbK\x1a\xc0'
p4321
tp4322
Rp4323
g1982
(g224
S'\x18\xea\xb0\xc2-\xdf\xfa?'
p4324
tp4325
Rp4326
tp4327
tp4328
g677
s(Vsquare_packing_box3
p4329
(g1982
(g224
S'#,*\xe2t\xd2\x02@'
p4330
tp4331
Rp4332
g1982
(g224
S'\xdcb~nh\x1a\x1f\xc0'
p4333
tp4334
Rp4335
g1982
(g224
S'W\\\x1c\x95\x9b(\xe1?'
p4336
tp4337
Rp4338
tp4339
tp4340
g693
s(Vrectangular_packing_box1
p4341
(g1982
(g224
S'\x02g)YN\x82\xf2?'
p4342
tp4343
Rp4344
g1982
(g224
S'\xf6\xb2\xed\xb45\xd2\x18\xc0'
p4345
tp4346
Rp4347
g1982
(g224
S'\x02\xf1\xba~\xc1n\x00@'
p4348
tp4349
Rp4350
tp4351
tp4352
g685
s(Vrectangular_packing_box3
p4353
(g1982
(g224
S'S\x95\xb6\xb8\xc6g\xd0?'
p4354
tp4355
Rp4356
g1982
(g224
S'*V\r\xc2\xdc\xae\x1a\xc0'
p4357
tp4358
Rp4359
g1982
(g224
S"'M\x83\xa2y\xc0\xf1?"
p4360
tp4361
Rp4362
tp4363
tp4364
g681
s(Vrectangular_packing_box4
p4365
(g1982
(g224
S'>\xea\xafWX\xb0\n@'
p4366
tp4367
Rp4368
g1982
(g224
S'\xd2\xaa\x96t\x94\x13\x1d\xc0'
p4369
tp4370
Rp4371
g1982
(g224
S'\x0eI-\x94LN\x03@'
p4372
tp4373
Rp4374
tp4375
tp4376
g673
s(Vsquare_packing_box2
p4377
(g1982
(g224
S'u!V\x7f\x84a\xdd\xbf'
p4378
tp4379
Rp4380
g1982
(g224
S'\xa5\x16J&\xa7V\x1f\xc0'
p4381
tp4382
Rp4383
g1982
(g224
S'E\xa1e\xdd?\xe6\x12@'
p4384
tp4385
Rp4386
tp4387
tp4388
g689
s(Vsquare_packing_box1
p4389
(g1982
(g224
S'\x16\xde\xe5"\xbeS\xf3?'
p4390
tp4391
Rp4392
g1982
(g224
S'-%\xcbI(\x9d\x15\xc0'
p4393
tp4394
Rp4395
g1982
(g224
S']Ot]\xf8q\x16@'
p4396
tp4397
Rp4398
tp4399
tp4400
g697
s(Vsquare_packing_box4
p4401
(g1982
(g224
S'{k`\xab\x04\x0b\xe3?'
p4402
tp4403
Rp4404
g1982
(g224
S'\x90\xd9Y\xf4Ne\x1c\xc0'
p4405
tp4406
Rp4407
g1982
(g224
S'\x9aA|`\xc7o\x12@'
p4408
tp4409
Rp4410
tp4411
tp4412
g3696
ssg2078
(igtamp_utils.utils
CustomStateSaver
p4413
(dp4414
g2081
g21
(g22
(I0
tp4415
g24
tp4416
Rp4417
(I1
(I1
I3
tp4418
g224
I00
S'\x0c\xdd\x96K\xa5\x1b\xf3?\xce\x8e$\x9d\xc2|\x1d\xc0\xbfa5\x0c\xa6\x93\x06@'
p4419
tp4420
bsg2088
Nsg2089
g2090
sg2091
I1
sg1768
(dp4421
Vright_wall_1
p4422
g21
(g22
(I0
tp4423
g24
tp4424
Rp4425
(I1
(I4
tp4426
g224
I00
S'H\xe1z\x14\xaeG\x12@&\\\x8f\xc2\xf5(\xd4\xbf\xcc\x7fH\xbf}\x1d\xed?\x00\x00\x00\x00\x00\x00\x00\x00'
p4427
tp4428
bsVc_obst5
p4429
g21
(g22
(I0
tp4430
g24
tp4431
Rp4432
(I1
(I4
tp4433
g224
I00
S"6\x8a\x1b17\x17\x12@p;e\x1b\x11\x99\xb4\xbfe\xaa`TR'\xed?7}$FH;\x05@"
p4434
tp4435
bsVentrance_right
p4436
g21
(g22
(I0
tp4437
g24
tp4438
Rp4439
(I1
(I4
tp4440
g224
I00
S'ffffff\n@H\xe1z\x14\xaeG\t\xc0\x9c\xc4 \xb0rh\xc1?\x00\x00\x00\x00\x00\x00\x00\x00'
p4441
tp4442
bsVcomputer_table
p4443
g21
(g22
(I0
tp4444
g24
tp4445
Rp4446
(I1
(I4
tp4447
g224
I00
S'\x00\x00\x00\x00\x00\x00\x13@\x00\x00\x00\x00\x00\x00\xf8\xbf\x96C\x8bl\xe7\xfb\xe7?\xd2!3\x7f|\xd9\x12@'
p4448
tp4449
bsVchair_6b56
p4450
g21
(g22
(I0
tp4451
g24
tp4452
Rp4453
(I1
(I4
tp4454
g224
I00
S'\x96=\n\xd7\xa3p\xf5?]\xe1z\x14\xaeG\xd1?\x00\x00\x00\x00\x00\x00\x00\x00\xd6$\xfaNBm\n@'
p4455
tp4456
bsVsquare_packing_box3
p4457
g21
(g22
(I0
tp4458
g24
tp4459
Rp4460
(I1
(I4
tp4461
g224
I00
S' \x9f8\xd3t\xd2\x02@\x85\x0b\xd3\x89h\x1a\x1f\xc0d7\x89A`\xe5\xd8?\xb4\xd7\xc2\x9c\x9c(\xe1?'
p4462
tp4463
bsVsquare_packing_box2
p4464
g21
(g22
(I0
tp4465
g24
tp4466
Rp4467
(I1
(I4
tp4468
g224
I00
S';k\xe5z\x85a\xdd\xbfQ\xa3\x91/\xa7V\x1f\xc0V7\x89A`\xe5\xd8?\xa4\xeb\xe9\xf6?\xe6\x12@'
p4469
tp4470
bsVtable
p4471
g21
(g22
(I0
tp4472
g24
tp4473
Rp4474
(I1
(I4
tp4475
g224
I00
S'\x7f\xf6#EdX\xed?\xac\xffs\x98//\xc0\xbf\x00\x00\x00\x00\x00\x00\x00\x00\x00\x00\x00\x00\x00\x00\x00\x00'
p4476
tp4477
bsVsquare_packing_box1
p4478
g21
(g22
(I0
tp4479
g24
tp4480
Rp4481
(I1
(I4
tp4482
g224
I00
S'\xfa\xe2\xe4^\xbeS\xf3?D\xd1\xcbf(\x9d\x15\xc0L7\x89A`\xe5\xd8?u\xa0\xf6L\xf8q\x16@'
p4483
tp4484
bsVback_wall_2
p4485
g21
(g22
(I0
tp4486
g24
tp4487
Rp4488
(I1
(I4
tp4489
g224
I00
S'\xaeG\xe1z\x14.\x13@\x80\x14\xaeG\xe1z\xc4?xX\xa85\xcd\xbb\xf2?\x00\x00\x00\x00\x00\x00\x00\x00'
p4490
tp4491
bsVchair_083c
p4492
g21
(g22
(I0
tp4493
g24
tp4494
Rp4495
(I1
(I4
tp4496
g224
I00
S'\xa4p=\n\xd7\xa3\xe0?333333\xe3\xbf\x00\x00\x00\x00\x00\x00\x00\x00\x00\x00\x00\x00\x00\x00\x00\x00'
p4497
tp4498
bsVback_wall_1
p4499
g21
(g22
(I0
tp4500
g24
tp4501
Rp4502
(I1
(I4
tp4503
g224
I00
S'\xaeG\xe1z\x14.\x13@\x80\x14\xaeG\xe1z\xc4?\xcc\x7fH\xbf}\x1d\xed?\x00\x00\x00\x00\x00\x00\x00\x00'
p4504
tp4505
bsVbottom_wall
p4506
g21
(g22
(I0
tp4507
g24
tp4508
Rp4509
(I1
(I4
tp4510
g224
I00
S'\x00\x00\x00\x00\x00\x00\xfc?\x00\x00\x00\x00\x00\x00\x00\x00\x00\x00\x00\x00\x00\x00\x00\x00\x00\x00\x00\x00\x00\x00\x00\x00'
p4511
tp4512
bsVcup_905a
p4513
g21
(g22
(I0
tp4514
g24
tp4515
Rp4516
(I1
(I4
tp4517
g224
I00
S'\x00\x00\x00\x00\x00\x00\xf0?\x83\xc0\xca\xa1E\xb6\xdb?\x1b/\xdd$\x06\x81\xed?\x00\x00\x00\x00\x00\x00\x00\x00'
p4518
tp4519
bsVplate_496f
p4520
g21
(g22
(I0
tp4521
g24
tp4522
Rp4523
(I1
(I4
tp4524
g224
I00
S"q=\n\xd7\xa3p\xe5?\x9dhW!\xe5'\xdd\xbf\x1b/\xdd$\x06\x81\xed?\x00\x00\x00\x00\x00\x00\x00\x00"
p4525
tp4526
bsVtoaster
p4527
g21
(g22
(I0
tp4528
g24
tp4529
Rp4530
(I1
(I4
tp4531
g224
I00
S')\\\x8f\xc2\xf5(\xf4\xbf\xe0z\x14\xaeG\xe1\xf2\xbf\xb8\x1e\x85\xebQ\xb8\xee?\x89/`\x9b\xf8\x8a\xe4?'
p4532
tp4533
bsVc_obst1
p4534
g21
(g22
(I0
tp4535
g24
tp4536
Rp4537
(I1
(I4
tp4538
g224
I00
S"*0\x87\x17Z\x9b\x12@\xd8\x9a\x99\xf8\xbfi\xd0?e\xaa`TR'\xed?H\xafK\xe8\xb5S\x16@"
p4539
tp4540
bsVrectangular_packing_box4
p4541
g21
(g22
(I0
tp4542
g24
tp4543
Rp4544
(I1
(I4
tp4545
g224
I00
S'y9\x1f\x16X\xb0\n@f\xa2q^\x94\x13\x1d\xc0@7\x89A`\xe5\xd8?M\xeb\x0c\xccLN\x03@'
p4546
tp4547
bsVmicrowave
p4548
g21
(g22
(I0
tp4549
g24
tp4550
Rp4551
(I1
(I4
tp4552
g224
I00
S'\x9a\x99\x99\x99\x99\x99\xf1\xbf\x00\x00\x00\x00\x00\x00\x00@7\x89A`\xe5\xd0\xee?\x00\x00\x00\x00\x00\x00\x00\x00'
p4553
tp4554
bsVc_obst7
p4555
g21
(g22
(I0
tp4556
g24
tp4557
Rp4558
(I1
(I4
tp4559
g224
I00
S"\x86\x9c\xb8\xbb\x93_\x12@N\xc3\x95A\x9d\xf5\xda?e\xaa`TR'\xed?\x8e\xb2\x97\xae\xa7:\x08@"
p4560
tp4561
bsVc_obst6
p4562
g21
(g22
(I0
tp4563
g24
tp4564
Rp4565
(I1
(I4
tp4566
g224
I00
S"A\xfe\xb8Q\xc7D\x12@N\x14\x10E\x10\xc3\xc5\xbfe\xaa`TR'\xed?\xb4\xac+\xac#\xb7\xe3?"
p4567
tp4568
bsVcup_b6af
p4569
g21
(g22
(I0
tp4570
g24
tp4571
Rp4572
(I1
(I4
tp4573
g224
I00
S'R\xb8\x1e\x85\xebQ\xe8?\x9a\x99\x99\x99\x99\x99\xe1?\x1b/\xdd$\x06\x81\xed?\x00\x00\x00\x00\x00\x00\x00\x00'
p4574
tp4575
bsVc_obst4
p4576
g21
(g22
(I0
tp4577
g24
tp4578
Rp4579
(I1
(I4
tp4580
g224
I00
S"\x94\xf7)\xfd\xcc\xf9\x11@\x80/\x8c/\x19\xca\x90\xbfe\xaa`TR'\xed?\x8d\x17)\x1a\xf4\xe4\xe4?"
p4581
tp4582
bsVrectangular_packing_box2
p4583
g21
(g22
(I0
tp4584
g24
tp4585
Rp4586
(I1
(I4
tp4587
g224
I00
S'\xa0\x8e\x84\xb4\xa6\x89\r@\x08\x17f\xb4\xdbK\x1a\xc0F7\x89A`\xe5\xd8?\xe1C,\xd4-\xdf\xfa?'
p4588
tp4589
bsVplate_fa76
p4590
g21
(g22
(I0
tp4591
g24
tp4592
Rp4593
(I1
(I4
tp4594
g224
I00
S'=\n\xd7\xa3p=\xf2?\x00\x00\x00\x00\x00\x00\x00\x00\x1b/\xdd$\x06\x81\xed?\x00\x00\x00\x00\x00\x00\x00\x00'
p4595
tp4596
bsVfloorwalls
p4597
g21
(g22
(I0
tp4598
g24
tp4599
Rp4600
(I1
(I4
tp4601
g224
I00
S'\xc7\xcc\xcc\xcc\xcc\xcc\xfc?\x00\x00\x00\x00\x00\x00\x18\xc0H\xe1z\x14\xaeG\xc1?\x16-DT\xfb!\xf9?'
p4602
tp4603
bsVpin_c671
p4604
g21
(g22
(I0
tp4605
g24
tp4606
Rp4607
(I1
(I4
tp4608
g224
I00
S'\xc3\xf5(\\\x8f\xc2\xf1\xbf}?5^\xbaI\x02@\xb8\x1e\x85\xebQ\xb8\xfa?\x00\x00\x00\x00\x00\x00\x00\x00'
p4609
tp4610
bsVc_obst3
p4611
g21
(g22
(I0
tp4612
g24
tp4613
Rp4614
(I1
(I4
tp4615
g224
I00
S":\\\xbc\xc4\xfa\x01\x12@\xe9\xb0M\xdcL\xf2\xd7?e\xaa`TR'\xed?*\xb0\x03\xc9\xaf\x91\x0b@"
p4616
tp4617
bsVchair_2e39
p4618
g21
(g22
(I0
tp4619
g24
tp4620
Rp4621
(I1
(I4
tp4622
g224
I00
S'\x97fffff\xee?\x17fffff\xf2\xbf\x00\x00\x00\x00\x00\x00\x00\x00\x07M\xe8QQF\xf3?'
p4623
tp4624
bsVentrance_left
p4625
g21
(g22
(I0
tp4626
g24
tp4627
Rp4628
(I1
(I4
tp4629
g224
I00
S'\x98\x99\x99\x99\x99\x99\xe9\xbfH\xe1z\x14\xaeG\t\xc0\x9c\xc4 \xb0rh\xc1?\x00\x00\x00\x00\x00\x00\x00\x00'
p4630
tp4631
bsVtop_wall_1
p4632
g21
(g22
(I0
tp4633
g24
tp4634
Rp4635
(I1
(I4
tp4636
g224
I00
S'H\xe1z\x14\xaeG\x12@\x80\x14\xaeG\xe1z\xc4?xX\xa85\xcd\xbb\xf2?\x00\x00\x00\x00\x00\x00\x00\x00'
p4637
tp4638
bsVrectangular_packing_box3
p4639
g21
(g22
(I0
tp4640
g24
tp4641
Rp4642
(I1
(I4
tp4643
g224
I00
S'\x1f\xa0\x00\xda\xc5g\xd0?\xec\x1cj\xd5\xdc\xae\x1a\xc0H7\x89A`\xe5\xd8?\x03\xff\x04\rz\xc0\xf1?'
p4644
tp4645
bsVshaker
p4646
g21
(g22
(I0
tp4647
g24
tp4648
Rp4649
(I1
(I4
tp4650
g224
I00
S'\n\xd7\xa3p=\n\x01@\x14\xaeG\xe1z\x14\x02@\\\x8f\xc2\xf5(\\\xef?\x00\x00\x00\x00\x00\x00\x00\x00'
p4651
tp4652
bsVc_obst9
p4653
g21
(g22
(I0
tp4654
g24
tp4655
Rp4656
(I1
(I4
tp4657
g224
I00
S"\xc6\xaep\x06\xb8t\x12@\x80\x11U\t\xcd6\xa6?e\xaa`TR'\xed?08\xa0\x08\x1c\xd9\x0f@"
p4658
tp4659
bsVplate_835a
p4660
g21
(g22
(I0
tp4661
g24
tp4662
Rp4663
(I1
(I4
tp4664
g224
I00
S'\xf6(\\\x8f\xc2\xf5\xf0?\\\x8f\xc2\xf5(\\\xe7\xbf\x1b/\xdd$\x06\x81\xed?\x00\x00\x00\x00\x00\x00\x00\x00'
p4665
tp4666
bsVcup_58a2
p4667
g21
(g22
(I0
tp4668
g24
tp4669
Rp4670
(I1
(I4
tp4671
g224
I00
S'\x85\xebQ\xb8\x1e\x85\xe3?\xcd\xcc\xcc\xcc\xcc\xcc\xdc?\x1b/\xdd$\x06\x81\xed?\x00\x00\x00\x00\x00\x00\x00\x00'
p4672
tp4673
bsVleft_wall_1
p4674
g21
(g22
(I0
tp4675
g24
tp4676
Rp4677
(I1
(I4
tp4678
g224
I00
S'H\xe1z\x14\xaeG\x12@S\xb8\x1e\x85\xebQ\xe4?\xcc\x7fH\xbf}\x1d\xed?\x00\x00\x00\x00\x00\x00\x00\x00'
p4679
tp4680
bsVc_obst2
p4681
g21
(g22
(I0
tp4682
g24
tp4683
Rp4684
(I1
(I4
tp4685
g224
I00
S"Q}\xc4\x03a\x83\x12@\xd8Y\n\xa3eD\xc0\xbfe\xaa`TR'\xed?~a/h\xb8\x8e\x00@"
p4686
tp4687
bsVsquare_packing_box4
p4688
g21
(g22
(I0
tp4689
g24
tp4690
Rp4691
(I1
(I4
tp4692
g224
I00
S'\xf0\x8aP\xcd\x03\x0b\xe3?c;\x7f\x11Oe\x1c\xc0J7\x89A`\xe5\xd8?\x9c\xbdjd\xc7o\x12@'
p4693
tp4694
bsVrectangular_packing_box1
p4695
g21
(g22
(I0
tp4696
g24
tp4697
Rp4698
(I1
(I4
tp4699
g224
I00
S'\x13\xfec\xadN\x82\xf2?\xa7\xc6\x85\xd55\xd2\x18\xc0V7\x89A`\xe5\xd8?Z\xde\x93D\xc1n\x00@'
p4700
tp4701
bsVpin_371e
p4702
g21
(g22
(I0
tp4703
g24
tp4704
Rp4705
(I1
(I4
tp4706
g224
I00
S'333333\xf3\xbfffffff\xf6?\xb8\x1e\x85\xebQ\xb8\xee?\x00\x00\x00\x00\x00\x00\x00\x00'
p4707
tp4708
bsVfridge
p4709
g21
(g22
(I0
tp4710
g24
tp4711
Rp4712
(I1
(I4
tp4713
g224
I00
S'\xd7\xa3p=\n\xd7\xeb\xbf\x00\x00\x00\x00\x00\x00\x00\xc0\xcd\xcc\xcc\xcc\xcc\xcc\xf8?\x00\x00\x00\x00\x00\x00\x00\x00'
p4714
tp4715
bsVcup_d441
p4716
g21
(g22
(I0
tp4717
g24
tp4718
Rp4719
(I1
(I4
tp4720
g224
I00
S'\n\xd7\xa3p=\n\xef?\x8f\xc2\xf5(\\\x8f\xe2?\x1b/\xdd$\x06\x81\xed?\x00\x00\x00\x00\x00\x00\x00\x00'
p4721
tp4722
bsVshelf2
p4723
g21
(g22
(I0
tp4724
g24
tp4725
Rp4726
(I1
(I4
tp4727
g224
I00
S'\x00\x00\x00\x00\x00\x00\x0e@\xaeG\xe1z\x14\xae\x07@\x9c\xc4 \xb0rh\xc1?\xd2!3\x7f|\xd9\x12@'
p4728
tp4729
bsVtop_wall_2
p4730
g21
(g22
(I0
tp4731
g24
tp4732
Rp4733
(I1
(I4
tp4734
g224
I00
S'H\xe1z\x14\xaeG\x12@\x80\x14\xaeG\xe1z\xc4?\x16HP\xfc\x18\xf3\xfd?\x00\x00\x00\x00\x00\x00\x00\x00'
p4735
tp4736
bsVc_obst0
p4737
g21
(g22
(I0
tp4738
g24
tp4739
Rp4740
(I1
(I4
tp4741
g224
I00
S"\x08\x8e75\x0b\x1b\x12@\xb7hHj7\xa7\xdc?e\xaa`TR'\xed?\x8eMe\x80\x8f\xa7\x13@"
p4742
tp4743
bsVshelf1
p4744
g21
(g22
(I0
tp4745
g24
tp4746
Rp4747
(I1
(I4
tp4748
g224
I00
S'\x00\x00\x00\x00\x00\x00\x13@\xaeG\xe1z\x14\xae\x07@\x9c\xc4 \xb0rh\xc1?\xd2!3\x7f|\xd9\x12@'
p4749
tp4750
bsVsink
p4751
g21
(g22
(I0
tp4752
g24
tp4753
Rp4754
(I1
(I4
tp4755
g224
I00
S'ffffff\xd6?333333\x01@\x9a\x99\x99\x99\x99\x99\xb9\xbf\x00\x00\x00\x00\x00\x00\x00\x00'
p4756
tp4757
bsVpr2
p4758
g21
(g22
(I0
tp4759
g24
tp4760
Rp4761
(I1
(I4
tp4762
g224
I00
S'\n\xdd\x96K\xa5\x1b\xf3?\xca\x8e$\x9d\xc2|\x1d\xc0\x9a_\x94\xa0\xbf\xd0\xc1?\xbfa5\x0c\xa6\x93\x06@'
p4763
tp4764
bsVchair_12d0
p4765
g21
(g22
(I0
tp4766
g24
tp4767
Rp4768
(I1
(I4
tp4769
g224
I00
S'^\xd2\x18\xad\xa3\xaa\xdb?Pf\x83L2r\xc6?\x00\x00\x00\x00\x00\x00\x00\x00\xf8\x81\r\x14M\xa6\x17@'
p4770
tp4771
bsVright_wall_2
p4772
g21
(g22
(I0
tp4773
g24
tp4774
Rp4775
(I1
(I4
tp4776
g224
I00
S'H\xe1z\x14\xaeG\x12@&\\\x8f\xc2\xf5(\xd4\xbfxX\xa85\xcd\xbb\xf2?\x00\x00\x00\x00\x00\x00\x00\x00'
p4777
tp4778
bsVknife_block
p4779
g21
(g22
(I0
tp4780
g24
tp4781
Rp4782
(I1
(I4
tp4783
g224
I00
S'R\xb8\x1e\x85\xebQ\xe0\xbfffffff\x02@`\xe5\xd0"\xdb\xf9\xee?\x00\x00\x00\x00\x00\x00\x00\x00'
p4784
tp4785
bsVleft_wall_2
p4786
g21
(g22
(I0
tp4787
g24
tp4788
Rp4789
(I1
(I4
tp4790
g224
I00
S'H\xe1z\x14\xaeG\x12@S\xb8\x1e\x85\xebQ\xe4?xX\xa85\xcd\xbb\xf2?\x00\x00\x00\x00\x00\x00\x00\x00'
p4791
tp4792
bsVleft_wall
p4793
g21
(g22
(I0
tp4794
g24
tp4795
Rp4796
(I1
(I4
tp4797
g224
I00
S'\x9a\x99\x99\x99\x99\x99\x07@H\xe1z\x14\xaeG\xff?\x9c\xc4 \xb0rh\xc1?\x00\x00\x00\x00\x00\x00\x00\x00'
p4798
tp4799
bsVkitchen
p4800
g21
(g22
(I0
tp4801
g24
tp4802
Rp4803
(I1
(I4
tp4804
g224
I00
S'\x00\x00\x00\x00\x00\x00\x00\x00\x00\x00\x00\x00\x00\x00\x00\x00\x00\x00\x00\x00\x00\x00\x00\x00\x00\x00\x00\x00\x00\x00\x00\x00'
p4805
tp4806
bsVtable2
p4807
g21
(g22
(I0
tp4808
g24
tp4809
Rp4810
(I1
(I4
tp4811
g224
I00
S'\x00\x00\x00\x00\x00\x00\x13@\x80\x14\xaeG\xe1z\xc4?S\x96!\x8euq\xec?\xd2!3\x7f|\xd9\x12@'
p4812
tp4813
bsVc_obst8
p4814
g21
(g22
(I0
tp4815
g24
tp4816
Rp4817
(I1
(I4
tp4818
g224
I00
S"4\xdcq'X\x08\x12@\xac\xec\x19\xf7W\xa0\xbe?e\xaa`TR'\xed?\x11m\x9a\xc0\x96\xf0\x16@"
p4819
tp4820
bsVplate_b4e7
p4821
g21
(g22
(I0
tp4822
g24
tp4823
Rp4824
(I1
(I4
tp4825
g224
I00
S'\x14\xaeG\xe1z\x14\xf2\xbf\x14\xaeG\xe1z\x14\x00@=\n\xd7\xa3p=\xf2?\x00\x00\x00\x00\x00\x00\x00\x00'
p4826
tp4827
bsVcooker
p4828
g21
(g22
(I0
tp4829
g24
tp4830
Rp4831
(I1
(I4
tp4832
g224
I00
S'\xaeG\xe1z\x14\xae\xff?\x85\xebQ\xb8\x1e\x85\xfb?\x00\x00\x00\x00\x00\x00\xe8?\x00\x00\x00\x00\x00\x00\x00\x00'
p4833
tp4834
bsVpin_a091
p4835
g21
(g22
(I0
tp4836
g24
tp4837
Rp4838
(I1
(I4
tp4839
g224
I00
S'\xdb\xf9~j\xbct\xf7\xbf)\\\x8f\xc2\xf5(\x02@\xb8\x1e\x85\xebQ\xb8\xfa?\x00\x00\x00\x00\x00\x00\x00\x00'
p4840
tp4841
bsVside_wall_2
p4842
g21
(g22
(I0
tp4843
g24
tp4844
Rp4845
(I1
(I4
tp4846
g224
I00
S'\xcb\xff\xff\xff\xff\xff\x14@\xbd\xff\xff\xff\xff\x07#=\x9c\xc4 \xb0rh\xc1?#-DT\xfb!\xf9?'
p4847
tp4848
bsVside_wall_3
p4849
g21
(g22
(I0
tp4850
g24
tp4851
Rp4852
(I1
(I4
tp4853
g224
I00
S'\x00\x00\x00\x00\x00\x00\xfc?H\xe1z\x14\xaeG\t@\x9c\xc4 \xb0rh\xc1?\x00\x00\x00\x00\x00\x00\x00\x00'
p4854
tp4855
bsVmixer
p4856
g21
(g22
(I0
tp4857
g24
tp4858
Rp4859
(I1
(I4
tp4860
g224
I00
S'\n\xd7\xa3p=\n\xfb?ffffff\x02@d;\xdfO\x8d\x97\xee?\x00\x00\x00\x00\x00\x00\x00\x00'
p4861
tp4862
bsVside_wall_1
p4863
g21
(g22
(I0
tp4864
g24
tp4865
Rp4866
(I1
(I4
tp4867
g224
I00
S'\x96\xff\xff\xff\xff\xff\xfb\xbf\x8a\xff\xff\xff\xff_\t\xbd\x9c\xc4 \xb0rh\xc1?#-DT\xfb!\xf9?'
p4868
tp4869
bsVbottom_wall_1
p4870
g21
(g22
(I0
tp4871
g24
tp4872
Rp4873
(I1
(I4
tp4874
g224
I00
S'H\xe1z\x14\xaeG\x12@\x80\x14\xaeG\xe1z\xc4?\xcc\x7fH\xbf}\x1d\xed?\x00\x00\x00\x00\x00\x00\x00\x00'
p4875
tp4876
bsVcan
p4877
g21
(g22
(I0
tp4878
g24
tp4879
Rp4880
(I1
(I4
tp4881
g224
I00
S'\x00\x00\x00\x00\x00\x00\xf4\xbfH\xe1z\x14\xaeG\xe1\xbf\n\xd7\xa3p=\n\xef?\x00\x00\x00\x00\x00\x00\x00\x00'
p4882
tp4883
bsVright_wall
p4884
g21
(g22
(I0
tp4885
g24
tp4886
Rp4887
(I1
(I4
tp4888
g224
I00
S'\x9a\x99\x99\x99\x99\x99\x07@H\xe1z\x14\xaeG\xff\xbf\x9c\xc4 \xb0rh\xc1?\x00\x00\x00\x00\x00\x00\x00\x00'
p4889
tp4890
bsVcoffe_machine
p4891
g21
(g22
(I0
tp4892
g24
tp4893
Rp4894
(I1
(I4
tp4895
g224
I00
S'\\\x8f\xc2\xf5(\\\xf5\xbf\xb8\x1e\x85\xebQ\xb8\xee?\n\xd7\xa3p=\n\xef?\x00\x00\x00\x00\x00\x00\x00\x00'
p4896
tp4897
bsVcomputer_chair
p4898
g21
(g22
(I0
tp4899
g24
tp4900
Rp4901
(I1
(I4
tp4902
g224
I00
S'\xcd\xcc\xcc\xcc\xcc\xcc\x10@\x00\x00\x00\x00\x00\x00\xf8\xbf\xa00\xb6\x10\xe4\xa9\x95\xbf\x00\x00\x00\x00\x00\x00\x00\x00'
p4903
tp4904
bssg2576
g21
(g22
(I0
tp4905
g24
tp4906
Rp4907
(I1
(I39
tp4908
g224
I00
S'\x00\x00\x00\x00\x00\x00\x00\x00\x00\x00\x00\x00\x00\x00\x00\x00\x00\x00\x00\x00\x00\x00\x00\x00\x00\x00\x00\x00\x00\x00\x00\x00\x00\x00\x00\x00\x00\x00\x00\x00\x00\x00\x00\x00\x00\x00\x00\x00\x00\x00\x00\x00\x00\x00\x00\x00\x00\x00\x00\x00\x00\x00\x00\x00\x00\x00\x00\x00\x00\x00\x00\x00\x00\x00\x00\x00\x00\x00\x00\x00\x00\x00\x00\x00\x00\x00\x00\x00\x00\x00\x00\x00\x00\x00\x00\x00@d;\xdfO\x8d\x87?\x00\x00\x00\x00\x00\x00\x00\x00\x00\x00\x00\x00\x00\x00\x00\x00\x00\x00\x00\x00\x00\x00\x00\x00\xea\xed\t\xf1\xcc\xa4\xf4?\x00\x00\x00\x00\x00\x00\xb0<N"\xd0^p\xf8\x00\xc0\x00\x00\x00\x00\x00\x00\x00\x00\x9f\x03\r.\x04V\xe6\xbf\x00\x00\x00\x00\x00\x00\x00\x00\x00\x00\x00\x00\x00\x00\x00\x00\x00\x00\x00\x00\x00\xb0\r\xbd\x00\x00\x00\x00\x00\x00\x00\x00\x00\x00\x00\x00\x00\x00\x1b\xbd\x00\x00\x00\x00\x00\x00\x00\x00\x00\x00\x00\x00\x00\x00\x00\x00\xea\xed\t\xf1\xcc\xa4\xf4?\x00\x00\x00\x00\x00\x00\x00\x00O"\xd0^p\xf8\x00\xc0\x00\x00\x00\x00\x00\x00\x00\x00\x9e\x03\r.\x04V\xe6\xbf\x00\x00\x00\x00\x00\x00\x00\x00\xa89\xe3\xc17\x89\xe1?\x00\x00\x00\x00\x00\xf0\x0e\xbd\xdbl\xdf\xccv\xf8\xb0<\x00\x00\x00\x00\x00\x00 \xbd\x00\x00\x00\x00\x00\x00\x00\x00'
p4909
tp4910
bsg2583
I00
sbsg2584
Nsg2585
(dp4911
(g573
g573
g215
tp4912
g1271
s(g414
g1272
g1272
tp4913
g1274
s(g1275
g1231
g215
tp4914
g1277
s(g516
g414
g215
tp4915
g1333
s(g516
g215
g215
tp4916
g1633
s(g215
g215
g215
tp4917
g1281
s(g215
g214
g215
tp4918
g1355
s(g414
g214
g215
tp4919
g1285
s(g215
g345
g215
tp4920
g1287
s(g459
g414
g215
tp4921
g1289
s(g459
g214
g1272
tp4922
g1597
s(g1275
g345
g215
tp4923
g1703
s(g459
g1275
g215
tp4924
g1295
s(g1272
g215
g1272
tp4925
g1297
s(g345
g516
g215
tp4926
g1299
s(g459
g1231
g1272
tp4927
g1303
s(g516
g1272
g215
tp4928
g1305
s(g1275
g573
g1272
tp4929
g1307
s(g573
g1272
g215
tp4930
g1311
s(g573
g345
g1272
tp4931
g1451
s(g414
g414
g1272
tp4932
g1315
s(g1275
g459
g215
tp4933
g1321
s(g1272
g1272
g215
tp4934
g1323
s(g516
g345
g1272
tp4935
g1325
s(g215
g215
g1272
tp4936
g1327
s(g1231
g459
g1272
tp4937
g1329
s(g1272
g1275
g1272
tp4938
g1617
s(g214
g516
g1272
tp4939
g1423
s(g1231
g215
g1272
tp4940
g1335
s(g573
g214
g1272
tp4941
g1695
s(g1231
g214
g1272
tp4942
g1339
s(g214
g1231
g215
tp4943
g1341
s(g1272
g414
g1272
tp4944
g1343
s(g573
g573
g1272
tp4945
g1347
s(g1272
g459
g215
tp4946
g1699
s(g1272
g215
g215
tp4947
g1351
s(g345
g573
g215
tp4948
g1353
s(g459
g1231
g215
tp4949
g1357
s(g414
g214
g1272
tp4950
g1361
s(g516
g459
g215
tp4951
g1363
s(g459
g414
g1272
tp4952
g1365
s(g459
g573
g1272
tp4953
g1367
s(g1275
g459
g1272
tp4954
g1369
s(g1272
g214
g1272
tp4955
g1371
s(g1275
g215
g215
tp4956
g1373
s(g1272
g1275
g215
tp4957
g1377
s(g516
g573
g1272
tp4958
g1381
s(g1231
g516
g1272
tp4959
g1457
s(g1231
g214
g215
tp4960
g1385
s(g1275
g573
g215
tp4961
g1387
s(g1275
g516
g1272
tp4962
g1437
s(g414
g414
g215
tp4963
g1393
s(g414
g345
g215
tp4964
g1395
s(g345
g573
g1272
tp4965
g1397
s(g516
g345
g215
tp4966
g1401
s(g1231
g459
g215
tp4967
g1403
s(g573
g1231
g1272
tp4968
g1405
s(g1231
g215
g215
tp4969
g1407
s(g459
g573
g215
tp4970
g1409
s(g573
g516
g215
tp4971
g1411
s(g214
g1231
g1272
tp4972
g1413
s(g1275
g215
g1272
tp4973
g1417
s(g1272
g459
g1272
tp4974
g1441
s(g516
g573
g215
tp4975
g1421
s(g1272
g1231
g215
tp4976
g1621
s(g573
g1275
g1272
tp4977
g1425
s(g1231
g1272
g215
tp4978
g1427
s(g516
g459
g1272
tp4979
g1429
s(g516
g1231
g1272
tp4980
g1431
s(g1231
g1272
g1272
tp4981
g1389
s(g1272
g214
g215
tp4982
g1439
s(g573
g1231
g215
tp4983
g1443
s(g1272
g516
g215
tp4984
g1447
s(g215
g459
g1272
tp4985
g1415
s(g516
g1275
g215
tp4986
g1313
s(g414
g345
g1272
tp4987
g1455
s(g516
g516
g215
tp4988
g1383
s(g459
g459
g215
tp4989
g1715
s(g214
g1272
g1272
tp4990
g1461
s(g414
g1231
g215
tp4991
g1465
s(g573
g1275
g215
tp4992
g1467
s(g345
g459
g1272
tp4993
g1469
s(g214
g573
g1272
tp4994
g1471
s(g516
g1231
g215
tp4995
g1473
s(g459
g215
g215
tp4996
g1477
s(g1272
g1231
g1272
tp4997
g1483
s(g1272
g516
g1272
tp4998
g1485
s(g414
g516
g215
tp4999
g1487
s(g1275
g1272
g215
tp5000
g1319
s(g414
g1231
g1272
tp5001
g1491
s(g214
g573
g215
tp5002
g1493
s(g573
g459
g215
tp5003
g1495
s(g214
g215
g1272
tp5004
g1497
s(g414
g516
g1272
tp5005
g1541
s(g1272
g345
g1272
tp5006
g1501
s(g573
g345
g215
tp5007
g1503
s(g459
g345
g215
tp5008
g1721
s(g345
g345
g215
tp5009
g1507
s(g345
g214
g1272
tp5010
g1509
s(g214
g1272
g215
tp5011
g1511
s(g345
g459
g215
tp5012
g1515
s(g459
g1272
g1272
tp5013
g1517
s(g214
g1275
g1272
tp5014
g1519
s(g459
g215
g1272
tp5015
g1521
s(g414
g459
g1272
tp5016
g1523
s(g516
g215
g1272
tp5017
g1527
s(g214
g215
g215
tp5018
g1529
s(g1272
g345
g215
tp5019
g1531
s(g1231
g1231
g215
tp5020
g1533
s(g414
g573
g215
tp5021
g1539
s(g215
g1275
g215
tp5022
g1309
s(g345
g414
g1272
tp5023
g1543
s(g215
g459
g215
tp5024
g1545
s(g1275
g214
g1272
tp5025
g1547
s(g214
g414
g215
tp5026
g1549
s(g1231
g1275
g215
tp5027
g1551
s(g516
g214
g1272
tp5028
g1555
s(g345
g1231
g215
tp5029
g1557
s(g215
g516
g1272
tp5030
g1481
s(g345
g1272
g215
tp5031
g1561
s(g214
g1275
g215
tp5032
g1563
s(g573
g459
g1272
tp5033
g1559
s(g214
g516
g215
tp5034
g1725
s(g345
g345
g1272
tp5035
g1573
s(g1231
g1231
g1272
tp5036
g1575
s(g1275
g414
g215
tp5037
g1581
s(g215
g1275
g1272
tp5038
g1583
s(g215
g1231
g1272
tp5039
g1585
s(g459
g1272
g215
tp5040
g1587
s(g414
g573
g1272
tp5041
g1589
s(g1231
g414
g1272
tp5042
g1591
s(g459
g345
g1272
tp5043
g1655
s(g1275
g214
g215
tp5044
g1595
s(g573
g414
g215
tp5045
g1567
s(g214
g345
g1272
tp5046
g1291
s(g1231
g1275
g1272
tp5047
g1599
s(g414
g459
g215
tp5048
g1601
s(g345
g1231
g1272
tp5049
g1603
s(g573
g1272
g1272
tp5050
g1739
s(g214
g345
g215
tp5051
g1701
s(g414
g215
g1272
tp5052
g1609
s(g459
g516
g215
tp5053
g1611
s(g1231
g516
g215
tp5054
g1489
s(g345
g1275
g215
tp5055
g1615
s(g1275
g1275
g1272
tp5056
g1623
s(g345
g414
g215
tp5057
g1625
s(g1275
g345
g1272
tp5058
g1663
s(g214
g414
g1272
tp5059
g1631
s(g345
g215
g1272
tp5060
g1463
s(g1275
g414
g1272
tp5061
g1635
s(g516
g214
g215
tp5062
g1637
s(g214
g459
g215
tp5063
g1639
s(g345
g1272
g1272
tp5064
g1641
s(g573
g414
g1272
tp5065
g1643
s(g1231
g573
g215
tp5066
g1645
s(g1275
g1272
g1272
tp5067
g1647
s(g414
g1275
g215
tp5068
g1651
s(g459
g516
g1272
tp5069
g1653
s(g214
g214
g1272
tp5070
g1593
s(g516
g516
g1272
tp5071
g1613
s(g1272
g573
g1272
tp5072
g1629
s(g215
g1231
g215
tp5073
g1665
s(g215
g516
g215
tp5074
g1667
s(g1231
g345
g215
tp5075
g1671
s(g1231
g414
g215
tp5076
g1669
s(g573
g516
g1272
tp5077
g1449
s(g1275
g516
g215
tp5078
g1673
s(g459
g214
g215
tp5079
g1675
s(g459
g459
g1272
tp5080
g1677
s(g573
g215
g215
tp5081
g1683
s(g414
g215
g215
tp5082
g1685
s(g1231
g573
g1272
tp5083
g1687
s(g345
g1275
g1272
tp5084
g1659
s(g215
g214
g1272
tp5085
g1435
s(g215
g1272
g215
tp5086
g1691
s(g1275
g1275
g215
tp5087
g1693
s(g215
g573
g1272
tp5088
g1337
s(g414
g1275
g1272
tp5089
g1697
s(g345
g215
g215
tp5090
g1375
s(g1272
g573
g215
tp5091
g1649
s(g414
g1272
g215
tp5092
g1705
s(g214
g459
g1272
tp5093
g1707
s(g215
g414
g215
tp5094
g1709
s(g1275
g1231
g1272
tp5095
g1711
s(g215
g414
g1272
tp5096
g1459
s(g516
g1275
g1272
tp5097
g1719
s(g214
g214
g215
tp5098
g1505
s(g1231
g345
g1272
tp5099
g1731
s(g516
g414
g1272
tp5100
g1569
s(g516
g1272
g1272
tp5101
g1735
s(g573
g214
g215
tp5102
g1753
s(g345
g214
g215
tp5103
g1605
s(g215
g345
g1272
tp5104
g1741
s(g573
g215
g1272
tp5105
g1743
s(g1272
g1272
g1272
tp5106
g1745
s(g459
g1275
g1272
tp5107
g1747
s(g345
g516
g1272
tp5108
g1749
s(g215
g1272
g1272
tp5109
g1751
s(g215
g573
g215
tp5110
g1737
s(g1272
g414
g215
tp5111
g1755
ssg2587
(dp5112
(g3699
g1272
tp5113
(lp5114
g21
(g22
(I0
tp5115
g24
tp5116
Rp5117
(I1
(I3
tp5118
g224
I00
S'\xd8J\xeb1v~\xe0?\x8d\x04\xaf+\xff\xc9\x16\xc0\xac\xca1x\x9a\x82\x16@'
p5119
tp5120
bas(g3684
g215
tp5121
g3324
s(g3680
g215
tp5122
g3362
s(g3683
g1272
tp5123
(lp5124
g21
(g22
(I0
tp5125
g24
tp5126
Rp5127
(I1
(I3
tp5128
g224
I00
S'\x88\xdag\x97_\xa1\xfe?\xe4\xcfp\xda\x9a\xbb\x1c\xc0?!\xc0\x0e\xd7~\x15@'
p5129
tp5130
bas(g3680
g1272
tp5131
(lp5132
g21
(g22
(I0
tp5133
g24
tp5134
Rp5135
(I1
(I3
tp5136
g224
I00
S'd\xde\x15\\R\xa6\x06@\xf7q\xec\x9f\xe2\x0f\x1f\xc0\x97&\x05F\x13A\xf4?'
p5137
tp5138
bas(g3683
g215
tp5139
g3536
s(g3682
g1272
tp5140
(lp5141
g21
(g22
(I0
tp5142
g24
tp5143
Rp5144
(I1
(I3
tp5145
g224
I00
S'\x88F\xde>\xc2e\xd3?\xa6\xc4\xe5\xa1\xb7\xfd\x1e\xc0D\xe2\xc6\xb9g$\x0e@'
p5146
tp5147
bas(g3682
g215
tp5148
g3480
s(g57
g215
tp5149
g3430
s(g3698
g215
tp5150
g3268
s(g3698
g1272
tp5151
(lp5152
g21
(g22
(I0
tp5153
g24
tp5154
Rp5155
(I1
(I3
tp5156
g224
I00
S';\xbfT\xd2\xee~\xce\xbf\x06R{\xc8\xc6\x9b\x1d\xc0\n\xfd\xd5\xb6al\xee?'
p5157
tp5158
bas(g3684
g1272
tp5159
(lp5160
g21
(g22
(I0
tp5161
g24
tp5162
Rp5163
(I1
(I3
tp5164
g224
I00
S'\x9e\x05,\x0b7^\xde?\x01\x17]\x9aqZ\x19\xc0j\x1b2;\x1bP\x12@'
p5165
tp5166
bas(g57
g1272
tp5167
(lp5168
g21
(g22
(I0
tp5169
g24
tp5170
Rp5171
(I1
(I3
tp5172
g224
I00
S'\x8b\x86\xcf\x98\x85\xd9\xfd?\x0e9\x93 \x92W\x16\xc0\x7fJ\xc1\xb2\x1b\xda\x06@'
p5173
tp5174
bas(g3681
g1272
tp5175
(lp5176
g21
(g22
(I0
tp5177
g24
tp5178
Rp5179
(I1
(I3
tp5180
g224
I00
S'\xfc\x16C\xf3*\xb4\x07@l\x16\x86\xfc\xfc\x02\x1a\xc0N\xe9\x92\xe6\x95\x02\xdb?'
p5181
tp5182
bas(g3681
g215
tp5183
g3592
s(g3699
g215
tp5184
(lp5185
g21
(g22
(I0
tp5186
g24
tp5187
Rp5188
(I1
(I3
tp5189
g224
I00
S'\xeaJ\xeb1v~\xe0?\x8b\x04\xaf+\xff\xc9\x16\xc0\xac\xca1x\x9a\x82\x16@'
p5190
tp5191
bag21
(g22
(I0
tp5192
g24
tp5193
Rp5194
(I1
(I3
tp5195
g235
I00
S'\xcc\x87!\x1f\xfb\x05\xe6?\x14;\x08\xf1<\xc6\x13\xc0V!\xac1j\x94\xc8?'
p5196
tp5197
bag21
(g22
(I0
tp5198
g24
tp5199
Rp5200
(I1
(I3
tp5201
g235
I00
S'`\xc8Aw-\x81\xeb?/\xc3\xe6O\x04\xca\x10\xc0\x8a\xb7K)\x91{\xe4\xbf'
p5202
tp5203
bag21
(g22
(I0
tp5204
g24
tp5205
Rp5206
(I1
(I3
tp5207
g235
I00
S'\xe1\xc6\xc7\xa7\x12X\xe7?\x98\x99\xb0\x9a\xfb\xdb\x0b\xc0R\t\x1b)\xeae\xe0\xbf'
p5208
tp5209
bag21
(g22
(I0
tp5210
g24
tp5211
Rp5212
(I1
(I3
tp5213
g235
I00
S'p\xf1\xbdc^\x84\xf1?"\x88LL\xf9D\x06\xc0~w\r\xe9m\x0f\x19@'
p5214
tp5215
bassg2692
(dp5216
(g214
g516
tp5217
g2792
s(g459
g345
tp5218
g2790
s(g573
g573
tp5219
g2982
s(g214
g214
tp5220
g2794
s(g573
g516
tp5221
g2796
s(g215
g573
tp5222
g2992
s(g459
g414
tp5223
g2802
s(g1231
g214
tp5224
g2804
s(g345
g345
tp5225
g2806
s(g573
g1272
tp5226
g2808
s(g1231
g516
tp5227
g2840
s(g414
g215
tp5228
g2824
s(g1272
g345
tp5229
g2862
s(g214
g1275
tp5230
g2830
s(g459
g459
tp5231
g2832
s(g516
g573
tp5232
g2836
s(g573
g215
tp5233
g2838
s(g1275
g1272
tp5234
g2818
s(g345
g1231
tp5235
g2842
s(g414
g414
tp5236
g2844
s(g573
g1275
tp5237
g2846
s(g1275
g345
tp5238
g2932
s(g1272
g516
tp5239
g2850
s(g573
g459
tp5240
g2980
s(g1272
g214
tp5241
g2852
s(g516
g215
tp5242
g2854
s(g1231
g345
tp5243
g2858
s(g516
g1231
tp5244
g2860
s(g1275
g215
tp5245
g2864
s(g414
g573
tp5246
g2866
s(g345
g516
tp5247
g2868
s(g1275
g516
tp5248
g2870
s(g516
g1275
tp5249
g2872
s(g214
g459
tp5250
g2874
s(g214
g573
tp5251
g2878
s(g1275
g1275
tp5252
g2882
s(g573
g214
tp5253
g2798
s(g516
g345
tp5254
g2884
s(g215
g1275
tp5255
g3016
s(g215
g414
tp5256
g2888
s(g1231
g1272
tp5257
g2890
s(g215
g1231
tp5258
g2892
s(g214
g414
tp5259
g2896
s(g516
g1272
tp5260
g2898
s(g214
g1231
tp5261
g2900
s(g516
g516
tp5262
g2902
s(g1231
g573
tp5263
g2904
s(g1272
g215
tp5264
g2906
s(g215
g459
tp5265
g2908
s(g345
g215
tp5266
g2910
s(g1275
g1231
tp5267
g2912
s(g459
g516
tp5268
g3000
s(g1231
g1275
tp5269
g2918
s(g1231
g459
tp5270
g2922
s(g345
g573
tp5271
g2924
s(g345
g1272
tp5272
g2926
s(g1272
g459
tp5273
g2834
s(g1272
g573
tp5274
g2848
s(g1231
g215
tp5275
g2934
s(g459
g1231
tp5276
g2936
s(g414
g1231
tp5277
g2938
s(g1272
g1272
tp5278
g2942
s(g214
g345
tp5279
g3024
s(g414
g516
tp5280
g2946
s(g1272
g414
tp5281
g2948
s(g573
g345
tp5282
g2950
s(g1272
g1231
tp5283
g2952
s(g414
g1275
tp5284
g2954
s(g459
g573
tp5285
g2956
s(g214
g215
tp5286
g2958
s(g414
g345
tp5287
g2960
s(g345
g414
tp5288
g2962
s(g573
g414
tp5289
g2964
s(g1275
g459
tp5290
g2966
s(g573
g1231
tp5291
g2968
s(g516
g459
tp5292
g2970
s(g459
g1272
tp5293
g2972
s(g1231
g1231
tp5294
g2974
s(g215
g516
tp5295
g2940
s(g215
g214
tp5296
g2928
s(g459
g215
tp5297
g2986
s(g516
g414
tp5298
g2988
s(g214
g1272
tp5299
g2990
s(g1231
g414
tp5300
g2994
s(g345
g214
tp5301
g2996
s(g215
g1272
tp5302
g2998
s(g1275
g214
tp5303
g3002
s(g459
g1275
tp5304
g3004
s(g516
g214
tp5305
g3006
s(g215
g215
tp5306
g3008
s(g345
g1275
tp5307
g3012
s(g414
g459
tp5308
g2886
s(g1275
g573
tp5309
g2826
s(g215
g345
tp5310
g3018
s(g459
g214
tp5311
g2944
s(g1272
g1275
tp5312
g3026
s(g414
g214
tp5313
g3028
s(g345
g459
tp5314
g3030
s(g414
g1272
tp5315
g3034
s(g1275
g414
tp5316
g3036
ssg2694
(dp5317
g1275
(lp5318
I0
aI0
aI0
aI0
aI0
aI0
aI00
aI01
aI00
aI01
aI00
asg1272
(lp5319
I0
aI0
aI0
aI0
aI0
aI0
aI00
aI01
aI00
aI01
aI00
asg215
(lp5320
I0
aI0
aI0
aI0
aI0
aI0
aI00
aI01
aI01
aI01
aI00
asg345
(lp5321
I0
aI0
aI0
ag1982
(g224
S'\x8a9\x1f\x16X\xb0\n@'
p5322
tp5323
Rp5324
ag1982
(g224
S'\x04\xa2q^\x94\x13\x1d\xc0'
p5325
tp5326
Rp5327
ag1982
(g224
S'M\xeb\x0c\xccLN\x03@'
p5328
tp5329
Rp5330
aI01
aI00
aI00
aI01
aI00
asg573
(lp5331
I0
aI0
aI0
ag1982
(g224
S'l\x8e\x84\xb4\xa6\x89\r@'
p5332
tp5333
Rp5334
ag1982
(g224
S'\xd1\x16f\xb4\xdbK\x1a\xc0'
p5335
tp5336
Rp5337
ag1982
(g224
S'\xe1C,\xd4-\xdf\xfa?'
p5338
tp5339
Rp5340
aI01
aI00
aI00
aI01
aI00
asg214
(lp5341
I0
aI0
aI0
ag1982
(g224
S'\x10\xa2\x00\xda\xc5g\xd0?'
p5342
tp5343
Rp5344
ag1982
(g224
S'\xe9\x1cj\xd5\xdc\xae\x1a\xc0'
p5345
tp5346
Rp5347
ag1982
(g224
S'\x03\xff\x04\rz\xc0\xf1?'
p5348
tp5349
Rp5350
aI01
aI00
aI00
aI00
aI00
asg1231
(lp5351
I0
aI0
aI0
ag1982
(g224
S'(\xfec\xadN\x82\xf2?'
p5352
tp5353
Rp5354
ag1982
(g224
S'j\xc6\x85\xd55\xd2\x18\xc0'
p5355
tp5356
Rp5357
ag1982
(g224
S'Z\xde\x93D\xc1n\x00@'
p5358
tp5359
Rp5360
aI01
aI00
aI00
aI00
aI00
asg459
(lp5361
I0
aI0
aI0
ag1982
(g224
S'\x98m\xe5z\x85a\xdd\xbf'
p5362
tp5363
Rp5364
ag1982
(g224
S'=\xa3\x91/\xa7V\x1f\xc0'
p5365
tp5366
Rp5367
ag1982
(g224
S'\xa4\xeb\xe9\xf6?\xe6\x12@'
p5368
tp5369
Rp5370
aI01
aI00
aI00
aI01
aI00
asg516
(lp5371
I0
aI0
aI0
ag1982
(g224
S'?\x9f8\xd3t\xd2\x02@'
p5372
tp5373
Rp5374
ag1982
(g224
S'\x8f\x0b\xd3\x89h\x1a\x1f\xc0'
p5375
tp5376
Rp5377
ag1982
(g224
S'\xb4\xd7\xc2\x9c\x9c(\xe1?'
p5378
tp5379
Rp5380
aI01
aI00
aI00
aI01
aI00
asg414
(lp5381
I0
aI0
aI0
ag1982
(g224
S'\x12\xe2\xe4^\xbeS\xf3?'
p5382
tp5383
Rp5384
ag1982
(g224
S'D\xd1\xcbf(\x9d\x15\xc0'
p5385
tp5386
Rp5387
ag1982
(g224
S'u\xa0\xf6L\xf8q\x16@'
p5388
tp5389
Rp5390
aI01
aI00
aI01
aI01
aI00
asg282
(lp5391
I0
aI0
aI0
ag1982
(g224
S'\x84\x8aP\xcd\x03\x0b\xe3?'
p5392
tp5393
Rp5394
ag1982
(g224
S'\xcc:\x7f\x11Oe\x1c\xc0'
p5395
tp5396
Rp5397
ag1982
(g224
S'\x9c\xbdjd\xc7o\x12@'
p5398
tp5399
Rp5400
aI01
aI00
aI00
aI01
aI00
assg2779
(dp5401
sg2781
g105
sg2782
g2783
sg2785
(dp5402
(g459
g282
tp5403
(lp5404
I00
aI00
aI00
as(g459
g345
tp5405
(lp5406
I00
aI00
aI00
as(g214
g516
tp5407
(lp5408
I00
aI00
aI00
as(g214
g214
tp5409
(lp5410
I00
aI00
aI00
as(g573
g516
tp5411
(lp5412
I00
aI00
aI00
as(g573
g214
tp5413
(lp5414
I00
aI00
aI00
as(g282
g573
tp5415
(lp5416
I00
aI00
aI00
as(g459
g414
tp5417
(lp5418
I00
aI00
aI00
as(g1231
g214
tp5419
(lp5420
I00
aI00
aI00
as(g345
g345
tp5421
(lp5422
I00
aI00
aI00
as(g573
g1272
tp5423
(lp5424
g2816
aI00
aI01
as(g1275
g1272
tp5425
(lp5426
I00
aI00
aI00
as(g345
g282
tp5427
(lp5428
I00
aI00
aI00
as(g1272
g282
tp5429
(lp5430
I00
aI00
aI00
as(g414
g215
tp5431
(lp5432
I00
aI00
aI00
as(g1275
g573
tp5433
(lp5434
I00
aI00
aI00
as(g573
g282
tp5435
(lp5436
I00
aI00
aI00
as(g214
g1275
tp5437
(lp5438
g2816
aI00
aI00
as(g459
g459
tp5439
(lp5440
I00
aI00
aI00
as(g1272
g459
tp5441
(lp5442
I00
aI00
aI00
as(g516
g573
tp5443
(lp5444
I00
aI00
aI00
as(g573
g215
tp5445
(lp5446
I00
aI00
aI00
as(g1231
g516
tp5447
(lp5448
I00
aI00
aI00
as(g345
g1231
tp5449
(lp5450
I00
aI00
aI00
as(g414
g414
tp5451
(lp5452
I00
aI00
aI00
as(g573
g1275
tp5453
(lp5454
g2816
aI00
aI00
as(g1272
g573
tp5455
(lp5456
I00
aI00
aI00
as(g1272
g516
tp5457
(lp5458
I00
aI00
aI00
as(g1272
g214
tp5459
(lp5460
I00
aI00
aI00
as(g516
g215
tp5461
(lp5462
I00
aI00
aI00
as(g282
g345
tp5463
(lp5464
I00
aI00
aI00
as(g1231
g345
tp5465
(lp5466
I00
aI00
aI00
as(g516
g1231
tp5467
(lp5468
I00
aI00
aI00
as(g1272
g345
tp5469
(lp5470
I00
aI00
aI00
as(g1275
g215
tp5471
(lp5472
I00
aI00
aI00
as(g414
g573
tp5473
(lp5474
I00
aI00
aI00
as(g345
g516
tp5475
(lp5476
I00
aI00
aI00
as(g1275
g516
tp5477
(lp5478
I00
aI00
aI00
as(g516
g1275
tp5479
(lp5480
g2816
aI00
aI00
as(g214
g459
tp5481
(lp5482
I00
aI00
aI00
as(g282
g414
tp5483
(lp5484
I00
aI00
aI00
as(g214
g573
tp5485
(lp5486
I00
aI00
aI00
as(g282
g215
tp5487
(lp5488
I00
aI00
aI00
as(g1275
g1275
tp5489
(lp5490
I00
aI00
aI00
as(g516
g345
tp5491
(lp5492
I00
aI00
aI00
as(g414
g459
tp5493
(lp5494
I00
aI00
aI00
as(g215
g414
tp5495
(lp5496
I00
aI00
aI00
as(g1231
g1272
tp5497
(lp5498
g2816
aI00
aI01
as(g215
g1231
tp5499
(lp5500
I00
aI00
aI00
as(g282
g214
tp5501
(lp5502
I00
aI00
aI00
as(g214
g414
tp5503
(lp5504
I00
aI00
aI00
as(g516
g1272
tp5505
(lp5506
g2816
aI00
aI01
as(g214
g1231
tp5507
(lp5508
I00
aI01
aI00
as(g516
g516
tp5509
(lp5510
I00
aI00
aI00
as(g1231
g573
tp5511
(lp5512
I00
aI00
aI00
as(g1272
g215
tp5513
(lp5514
I00
aI00
aI00
as(g215
g459
tp5515
(lp5516
I00
aI00
aI00
as(g345
g215
tp5517
(lp5518
I00
aI00
aI00
as(g1275
g1231
tp5519
(lp5520
I00
aI00
aI00
as(g215
g282
tp5521
(lp5522
I00
aI00
aI00
as(g214
g282
tp5523
(lp5524
I00
aI00
aI00
as(g1231
g1275
tp5525
(lp5526
g2816
aI00
aI00
as(g282
g1272
tp5527
(lp5528
g2816
aI00
aI01
as(g1231
g459
tp5529
(lp5530
I00
aI00
aI00
as(g345
g573
tp5531
(lp5532
I00
aI00
aI00
as(g345
g1272
tp5533
(lp5534
g2816
aI00
aI01
as(g215
g214
tp5535
(lp5536
I00
aI00
aI00
as(g1275
g282
tp5537
(lp5538
I00
aI00
aI00
as(g1275
g345
tp5539
(lp5540
I00
aI00
aI00
as(g1231
g215
tp5541
(lp5542
I00
aI00
aI01
as(g459
g1231
tp5543
(lp5544
I00
aI00
aI00
as(g414
g1231
tp5545
(lp5546
I00
aI00
aI00
as(g215
g516
tp5547
(lp5548
I00
aI00
aI00
as(g1272
g1272
tp5549
(lp5550
I00
aI00
aI00
as(g459
g214
tp5551
(lp5552
I00
aI01
aI00
as(g414
g516
tp5553
(lp5554
I00
aI00
aI00
as(g1272
g414
tp5555
(lp5556
I00
aI00
aI00
as(g573
g345
tp5557
(lp5558
I00
aI00
aI00
as(g1272
g1231
tp5559
(lp5560
I00
aI00
aI00
as(g414
g1275
tp5561
(lp5562
g2816
aI00
aI00
as(g459
g573
tp5563
(lp5564
I00
aI00
aI00
as(g214
g215
tp5565
(lp5566
I00
aI00
aI00
as(g414
g345
tp5567
(lp5568
I00
aI00
aI00
as(g345
g414
tp5569
(lp5570
I00
aI00
aI00
as(g573
g414
tp5571
(lp5572
I00
aI00
aI00
as(g1275
g459
tp5573
(lp5574
I00
aI00
aI00
as(g573
g1231
tp5575
(lp5576
I00
aI00
aI00
as(g516
g459
tp5577
(lp5578
I00
aI00
aI00
as(g459
g1272
tp5579
(lp5580
g2816
aI00
aI01
as(g1231
g1231
tp5581
(lp5582
I00
aI00
aI00
as(g282
g459
tp5583
(lp5584
I00
aI00
aI00
as(g414
g282
tp5585
(lp5586
I00
aI00
aI00
as(g573
g459
tp5587
(lp5588
I00
aI00
aI00
as(g573
g573
tp5589
(lp5590
I00
aI00
aI00
as(g282
g1231
tp5591
(lp5592
I00
aI01
aI00
as(g459
g215
tp5593
(lp5594
I00
aI00
aI00
as(g516
g414
tp5595
(lp5596
I00
aI00
aI00
as(g214
g1272
tp5597
(lp5598
g2816
aI00
aI01
as(g215
g573
tp5599
(lp5600
I00
aI00
aI00
as(g1231
g414
tp5601
(lp5602
I00
aI00
aI00
as(g345
g214
tp5603
(lp5604
I00
aI00
aI00
as(g215
g1272
tp5605
(lp5606
I00
aI00
aI00
as(g459
g516
tp5607
(lp5608
I00
aI00
aI00
as(g1275
g214
tp5609
(lp5610
I00
aI00
aI00
as(g459
g1275
tp5611
(lp5612
g2816
aI00
aI00
as(g516
g214
tp5613
(lp5614
I00
aI00
aI00
as(g215
g215
tp5615
(lp5616
I00
aI00
aI00
as(g1231
g282
tp5617
(lp5618
I00
aI00
aI00
as(g345
g1275
tp5619
(lp5620
g2816
aI00
aI00
as(g282
g1275
tp5621
(lp5622
g2816
aI00
aI00
as(g215
g1275
tp5623
(lp5624
I00
aI00
aI00
as(g215
g345
tp5625
(lp5626
I00
aI00
aI00
as(g516
g282
tp5627
(lp5628
I00
aI00
aI00
as(g282
g516
tp5629
(lp5630
I00
aI00
aI00
as(g214
g345
tp5631
(lp5632
I00
aI00
aI00
as(g1272
g1275
tp5633
(lp5634
I00
aI00
aI00
as(g414
g214
tp5635
(lp5636
I00
aI00
aI00
as(g345
g459
tp5637
(lp5638
I00
aI00
aI00
as(g282
g282
tp5639
(lp5640
I00
aI00
aI00
as(g414
g1272
tp5641
(lp5642
g2816
aI00
aI01
as(g1275
g414
tp5643
(lp5644
I00
aI00
aI00
assg664
g3679
sg3037
(itrajectory_representation.predicates.pick_in_way
PickInWay
p5645
(dp5646
g212
(dp5647
g345
g4189
sg573
g4208
sg214
g4233
sg1231
g4252
sg459
g4271
sg516
g4290
sg414
g3710
sg282
g4309
ssg630
(dp5648
g345
(lp5649
sg573
(lp5650
sg214
(lp5651
Vsquare_packing_box2
p5652
asg1231
(lp5653
Vrectangular_packing_box3
p5654
aVsquare_packing_box4
p5655
asg459
(lp5656
sg516
(lp5657
sg414
(lp5658
sg282
(lp5659
ssg664
(lp5660
g459
ag573
ag516
ag282
ag345
ag1275
ag215
ag1272
ag414
ag1275
ag215
ag1272
ag1275
ag215
ag1272
ag1275
ag215
ag1272
ag1275
ag215
ag1272
ag1275
ag215
ag1272
ag1275
ag215
ag1272
ag1275
ag215
ag1272
asg667
g3685
sg107
(dp5661
sg702
g3697
sg1206
Nsg1212
g3697
sg1209
(dp5662
sg1211
I8
sg1267
I01
sg1213
Nsg1214
(dp5663
(g459
g282
tp5664
I00
s(g459
g345
tp5665
I00
s(g214
g516
tp5666
I00
s(g214
g214
tp5667
I00
s(g573
g516
tp5668
I00
s(g573
g214
tp5669
I00
s(g282
g573
tp5670
I00
s(g459
g414
tp5671
I00
s(g1231
g214
tp5672
I00
s(g345
g345
tp5673
I00
s(g573
g1272
tp5674
I00
s(g1275
g1272
tp5675
I00
s(g345
g282
tp5676
I00
s(g1272
g282
tp5677
I00
s(g414
g215
tp5678
I00
s(g1275
g573
tp5679
I00
s(g573
g282
tp5680
I00
s(g214
g1275
tp5681
I00
s(g459
g459
tp5682
I00
s(g1272
g459
tp5683
I00
s(g516
g573
tp5684
I00
s(g573
g215
tp5685
I00
s(g1231
g516
tp5686
I00
s(g345
g1231
tp5687
I00
s(g414
g414
tp5688
I00
s(g573
g1275
tp5689
I00
s(g1272
g573
tp5690
I00
s(g1272
g516
tp5691
I00
s(g1272
g214
tp5692
I00
s(g516
g215
tp5693
I00
s(g282
g345
tp5694
I00
s(g1231
g345
tp5695
I00
s(g516
g1231
tp5696
I00
s(g1272
g345
tp5697
I00
s(g1275
g215
tp5698
I00
s(g414
g573
tp5699
I00
s(g345
g516
tp5700
I00
s(g1275
g516
tp5701
I00
s(g516
g1275
tp5702
I00
s(g214
g459
tp5703
I00
s(g282
g414
tp5704
I00
s(g214
g573
tp5705
I00
s(g282
g215
tp5706
I00
s(g1275
g1275
tp5707
I00
s(g516
g345
tp5708
I00
s(g414
g459
tp5709
I00
s(g215
g414
tp5710
I00
s(g1231
g1272
tp5711
I00
s(g215
g1231
tp5712
I00
s(g282
g214
tp5713
I00
s(g214
g414
tp5714
I00
s(g516
g1272
tp5715
I00
s(g214
g1231
tp5716
I01
s(g516
g516
tp5717
I00
s(g1231
g573
tp5718
I00
s(g1272
g215
tp5719
I00
s(g215
g459
tp5720
I00
s(g345
g215
tp5721
I00
s(g1275
g1231
tp5722
I00
s(g215
g282
tp5723
I00
s(g214
g282
tp5724
I00
s(g1231
g1275
tp5725
I00
s(g282
g1272
tp5726
I00
s(g1231
g459
tp5727
I00
s(g345
g573
tp5728
I00
s(g345
g1272
tp5729
I00
s(g215
g214
tp5730
I00
s(g1275
g282
tp5731
I00
s(g1275
g345
tp5732
I00
s(g1231
g215
tp5733
I00
s(g459
g1231
tp5734
I00
s(g414
g1231
tp5735
I00
s(g215
g516
tp5736
I00
s(g1272
g1272
tp5737
I00
s(g459
g214
tp5738
I01
s(g414
g516
tp5739
I00
s(g1272
g414
tp5740
I00
s(g573
g345
tp5741
I00
s(g1272
g1231
tp5742
I00
s(g414
g1275
tp5743
I00
s(g459
g573
tp5744
I00
s(g214
g215
tp5745
I00
s(g414
g345
tp5746
I00
s(g345
g414
tp5747
I00
s(g573
g414
tp5748
I00
s(g1275
g459
tp5749
I00
s(g573
g1231
tp5750
I00
s(g516
g459
tp5751
I00
s(g459
g1272
tp5752
I00
s(g1231
g1231
tp5753
I00
s(g282
g459
tp5754
I00
s(g414
g282
tp5755
I00
s(g573
g459
tp5756
I00
s(g573
g573
tp5757
I00
s(g282
g1231
tp5758
I01
s(g459
g215
tp5759
I00
s(g516
g414
tp5760
I00
s(g214
g1272
tp5761
I00
s(g215
g573
tp5762
I00
s(g1231
g414
tp5763
I00
s(g345
g214
tp5764
I00
s(g215
g1272
tp5765
I00
s(g459
g516
tp5766
I00
s(g1275
g214
tp5767
I00
s(g459
g1275
tp5768
I00
s(g516
g214
tp5769
I00
s(g215
g215
tp5770
I00
s(g1231
g282
tp5771
I00
s(g345
g1275
tp5772
I00
s(g282
g1275
tp5773
I00
s(g215
g1275
tp5774
I00
s(g215
g345
tp5775
I00
s(g516
g282
tp5776
I00
s(g282
g516
tp5777
I00
s(g214
g345
tp5778
I00
s(g1272
g1275
tp5779
I00
s(g414
g214
tp5780
I00
s(g345
g459
tp5781
I00
s(g282
g282
tp5782
I00
s(g414
g1272
tp5783
I00
s(g1275
g414
tp5784
I00
ssg1266
Nsbsg3183
g21
(g22
(I0
tp5785
g24
tp5786
Rp5787
(I1
(I1
I3
tp5788
g224
I00
S'\x0e\xdd\x96K\xa5\x1b\xf3?\xd0\x8e$\x9d\xc2|\x1d\xc0\xbfa5\x0c\xa6\x93\x06@'
p5789
tp5790
bsg3190
(itrajectory_representation.predicates.is_holding_goal_entity
IsHoldingGoalEntity
p5791
(dp5792
g2782
g2783
sg1213
Nsbsg3193
(dp5793
sg3195
g3685
sbasS'seed'
p5794
NsS'state_prime'
p5795
(lp5796
g3196
asS'problem_idx'
p5797
I129
sb.