(itrajectory_representation.trajectory
Trajectory
p0
(dp1
S'rewards'
p2
(lp3
I10
asS'actions'
p4
(lp5
(itrajectory_representation.operator
Operator
p6
(dp7
S'is_skeleton'
p8
I00
sS'discrete_parameters'
p9
(dp10
S'object'
p11
Vsquare_packing_box1
p12
sS'two_arm_place_region'
p13
S'home_region'
p14
sS'two_arm_place_object'
p15
Vsquare_packing_box1
p16
ssS'type'
p17
S'two_arm_pick_two_arm_place'
p18
sS'continuous_parameters'
p19
(dp20
S'q_goal'
p21
cnumpy.core.multiarray
_reconstruct
p22
(cnumpy
ndarray
p23
(I0
tp24
S'b'
p25
tp26
Rp27
(I1
(I3
tp28
cnumpy
dtype
p29
(S'f8'
p30
I0
I1
tp31
Rp32
(I3
S'<'
p33
NNNI-1
I-1
I0
tp34
bI00
S'J\x88\xf6\xd17Y\xf1?\xe6\xfb\xac\xc3\\\xae\x19\xc0>#\xc4\x1fP\xee\xff?'
p35
tp36
bsS'place'
p37
(dp38
g21
g22
(g23
(I0
tp39
g25
tp40
Rp41
(I1
(I3
tp42
g32
I00
S'\x80;\xed\x01\x9d\x1d\xc5\xbf\x1c3V:\xee\xff\xfe\xbf\xda\xda;z\x9cS\xfd\xbf'
p43
tp44
bssS'pick'
p45
(dp46
g21
g27
sssS'low_level_motion'
p47
(lp48
g22
(g23
(I0
tp49
g25
tp50
Rp51
(I1
(I3
tp52
g32
I00
S'\x84#@NL\xef\x02@+g\xab\xa4\xe4\x98\x1b\xc0\xa7\xd9\xedX\xe4\xa4\x12@'
p53
tp54
bag22
(g23
(I0
tp55
g25
tp56
Rp57
(I1
(I3
tp58
g29
(S'f8'
p59
I0
I1
tp60
Rp61
(I3
S'<'
p62
NNNI-1
I-1
I0
tp63
bI00
S'\x05\x83iK\x01\x86\xfb?\x162zB{\xdc\x1a\xc0T\xd8\x04\x17\xd4b\xea\xbf'
p64
tp65
bag22
(g23
(I0
tp66
g25
tp67
Rp68
(I1
(I3
tp69
g61
I00
S'\xcb\xa0\xb6M\xadU\xef?ny]\x1b[.\x1a\xc0\x99\xfe\xc1BBE\xde?'
p70
tp71
bag27
ag27
asbasS'filename'
p72
S''
p73
sS'states'
p74
(lp75
(itrajectory_representation.shortest_path_pick_and_place_state
ShortestPathPaPState
p76
(dp77
S'place_used'
p78
(dp79
(g16
g14
tp80
(itrajectory_representation.operator
Operator
p81
(dp82
g8
I01
sg9
(dp83
S'region'
p84
g14
sg11
g16
ssg17
S'two_arm_place'
p85
sg19
(dp86
g21
g22
(g23
(I0
tp87
g25
tp88
Rp89
(I1
(I3
tp90
g32
I00
S'\x80;\xed\x01\x9d\x1d\xc5\xbf\x1c3V:\xee\xff\xfe\xbf\xda\xda;z\x9cS\xfd\xbf'
p91
tp92
bssg47
(lp93
g22
(g23
(I0
tp94
g25
tp95
Rp96
(I1
(I3
tp97
g32
I00
S'K\x88\xf6\xd17Y\xf1?\xef\xfb\xac\xc3\\\xae\x19\xc0H#\xc4\x1fP\xee\xff?'
p98
tp99
bag22
(g23
(I0
tp100
g25
tp101
Rp102
(I1
(I3
tp103
g61
I00
S'o\xd6\x82\xea\x7f\xb2\xed?9\xf2C\x0b?\xfd\x16\xc0(?d\xe9@\xb5\x02@'
p104
tp105
bag22
(g23
(I0
tp106
g25
tp107
Rp108
(I1
(I3
tp109
g61
I00
S'&>c9\x01,\xeb?\xb2\xc2\xf0\x02\xce\x8e\x14\xc0\xd8p\xbb2\x14\xd2\x03@'
p110
tp111
bag22
(g23
(I0
tp112
g25
tp113
Rp114
(I1
(I3
tp115
g61
I00
S'\xc6\x05\xbdtg\xd9\xe2?F\xdf\x9d@\\\xf3\x11\xc0\x1a\xc4.\xbb\xcc\x12\x02@'
p116
tp117
bag22
(g23
(I0
tp118
g25
tp119
Rp120
(I1
(I3
tp121
g61
I00
S'\xe4u**\x0e5\xe9?\xaa\xfd\r\xed\xc4\xf6\r\xc0\x0fDE0\x1f\x0b\xfe?'
p122
tp123
bag22
(g23
(I0
tp124
g25
tp125
Rp126
(I1
(I3
tp127
g61
I00
S'\x06\x11,\xef\x98O\xe7??\x10\x01s=b\t\xc04\x92\xb79o\x8c\x00@'
p128
tp129
bag22
(g23
(I0
tp130
g25
tp131
Rp132
(I1
(I3
tp133
g61
I00
S'\xf4\xfdJ\x1a(#\xec?H"\x9cD\x1aE\x05\xc0.\xa9\x0b\x87\xf8\xe1\x02@'
p134
tp135
bag22
(g23
(I0
tp136
g25
tp137
Rp138
(I1
(I3
tp139
g61
I00
S'\xd4\xbf\x9b|\x15\xb6\xd9?\xd2e\x86@>\xfd\x01\xc06J\x0bDo=\x00\xc0'
p140
tp141
bag89
ag89
asbssS'place_in_way'
p142
(itrajectory_representation.predicates.place_in_way
PlaceInWay
p143
(dp144
S'mc_path_to_entity'
p145
(dp146
(Vrectangular_packing_box3
p147
S'home_region'
p148
tp149
(lp150
g22
(g23
(I0
tp151
g25
tp152
Rp153
(I1
(I3
tp154
g29
(S'f8'
p155
I0
I1
tp156
Rp157
(I3
S'<'
p158
NNNI-1
I-1
I0
tp159
bI00
S'\xc8Cv\xcbtO\x08@q%1\x9d\xffA\x1c\xc0l\xb3{\xb2p\xbe\x11@'
p160
tp161
bag22
(g23
(I0
tp162
g25
tp163
Rp164
(I1
(I3
tp165
g29
(S'f8'
p166
I0
I1
tp167
Rp168
(I3
S'<'
p169
NNNI-1
I-1
I0
tp170
bI00
S'\xc2Fo\n7\x11\x03@\xb6=Ya.\xe0\x1a\xc0,\x0b\x04&"Y\x07\xc0'
p171
tp172
bag22
(g23
(I0
tp173
g25
tp174
Rp175
(I1
(I3
tp176
g168
I00
S'\x84\xa3|.\x10\xee\xfc?\xfc\xc5\t\x9e\xc3\xe9\x1a\xc0\xec\x96S\xb5\x05\x08\x05\xc0'
p177
tp178
bag22
(g23
(I0
tp179
g25
tp180
Rp181
(I1
(I3
tp182
g168
I00
S'\xa1\x0f=\xe0\x1aF\xfc?e&S\xf6\xb5\xfc\x17\xc0s\xad\xdc\xd8h\x9b\x04\xc0'
p183
tp184
bag22
(g23
(I0
tp185
g25
tp186
Rp187
(I1
(I3
tp188
g168
I00
S'R\x12);\xaf\xa5\xf7?\xf3\xf9\xeb\x07c\xef\x15\xc0\xf0V^\xd6\x94\x96\x05\xc0'
p189
tp190
bag22
(g23
(I0
tp191
g25
tp192
Rp193
(I1
(I3
tp194
g168
I00
S'K\x19\xdd\x9a\xe6\xce\xe9?\xe1\x08\xb9\xe6+\xc9\x15\xc0\xeeN\x0e\xdd1/\x08\xc0'
p195
tp196
bag22
(g23
(I0
tp197
g25
tp198
Rp199
(I1
(I3
tp200
g168
I00
S'\x16nfXE \xf2?\x06\xf1|#c\xe6\x12\xc08\x98\x8f,\xc1@\x04\xc0'
p201
tp202
bag22
(g23
(I0
tp203
g25
tp204
Rp205
(I1
(I3
tp206
g168
I00
S'\xc1E\xbb\x1b\xed\x13\xf3?\xca\xdcw\xec\x1a\x18\x10\xc0j\xed\xec2j\x8c\x04\xc0'
p207
tp208
bag22
(g23
(I0
tp209
g25
tp210
Rp211
(I1
(I3
tp212
g168
I00
S'\xf09\xb6\x1c*\x86\xee?\xc4\n/\x96\xcb\xe3\n\xc0\xa0\xc9\xd6F6\x0f\x00\xc0'
p213
tp214
bag22
(g23
(I0
tp215
g25
tp216
Rp217
(I1
(I3
tp218
g168
I00
S'3\xe9\xaf\x05T\x89\xe7?+~\xcb\xd3\x15\xc7\x04\xc0x6(d5\xed\x07@'
p219
tp220
bas(Vsquare_packing_box4
p221
g148
tp222
(lp223
g22
(g23
(I0
tp224
g25
tp225
Rp226
(I1
(I3
tp227
g157
I00
S'\x00\xbc\x11\x98\x90\xbf\x90?&&\x89\xe3(\xd9\x1e\xc03\xa7}d\xd0k\x17@'
p228
tp229
bag22
(g23
(I0
tp230
g25
tp231
Rp232
(I1
(I3
tp233
g168
I00
S'\xae\x07\x89g\xb1\x14\xca?\xe8\xaf6h\xdc,\x1c\xc0\x8c\xdc\xfdrPU\xf4\xbf'
p234
tp235
bag22
(g23
(I0
tp236
g25
tp237
Rp238
(I1
(I3
tp239
g168
I00
S'\xb0\xcfg\xd5._\xe8?\xd6\x8d\xba\x87\x91D\x1a\xc0\xea!\xf73\x0cB\xf7\xbf'
p240
tp241
bag22
(g23
(I0
tp242
g25
tp243
Rp244
(I1
(I3
tp245
g168
I00
S"\x1aq\xa1\x96-\xd2\xec?\xa2\x8f\xd2'\xa1I\x18\xc0\x06\xea(\x89^*\xf2\xbf"
p246
tp247
bag22
(g23
(I0
tp248
g25
tp249
Rp250
(I1
(I3
tp251
g168
I00
S'tx\x8as\xa8b\xed?\x9ej\x15\xfa\xf0{\x15\xc0@\xed\x9a-\x9eD\xf2\xbf'
p252
tp253
bag22
(g23
(I0
tp254
g25
tp255
Rp256
(I1
(I3
tp257
g168
I00
S'\xb0E\xbb;Cb\xeb?\x9e\xde\xa7\xdd\xbdd\x12\xc0\xc6\xee\xbd\x16\x8c\xaa\xf3\xbf'
p258
tp259
bag22
(g23
(I0
tp260
g25
tp261
Rp262
(I1
(I3
tp263
g168
I00
S'`\xc8Aw-\x81\xeb?/\xc3\xe6O\x04\xca\x10\xc0\x8a\xb7K)\x91{\xe4\xbf'
p264
tp265
bag22
(g23
(I0
tp266
g25
tp267
Rp268
(I1
(I3
tp269
g168
I00
S'\xe1\xc6\xc7\xa7\x12X\xe7?\x98\x99\xb0\x9a\xfb\xdb\x0b\xc0R\t\x1b)\xeae\xe0\xbf'
p270
tp271
bag22
(g23
(I0
tp272
g25
tp273
Rp274
(I1
(I3
tp275
g168
I00
S'p\xf1\xbdc^\x84\xf1?"\x88LL\xf9D\x06\xc0~w\r\xe9m\x0f\x19@'
p276
tp277
bas(Vrectangular_packing_box4
p278
g148
tp279
(lp280
g22
(g23
(I0
tp281
g25
tp282
Rp283
(I1
(I3
tp284
g157
I00
S'\x16\xe3\xec\xc9\xf5k\xfb?_\x9b\xa3\x1d \xc0\x1c\xc0\xbd\xcc\xca\x82\xea\xea\x13@'
p285
tp286
bag22
(g23
(I0
tp287
g25
tp288
Rp289
(I1
(I3
tp290
g168
I00
S'zP\x91@+\x97\xf6?*&V!\xde-\x1a\xc0\xb2Z\x99\x08\xf1Y\x13@'
p291
tp292
bag22
(g23
(I0
tp293
g25
tp294
Rp295
(I1
(I3
tp296
g168
I00
S'\x07\xe5\xeeo\xc2@\xf0?\x80*\x19Ng\xcf\x17\xc0\xccm\xca\xd2+4\x0f@'
p297
tp298
bag22
(g23
(I0
tp299
g25
tp300
Rp301
(I1
(I3
tp302
g168
I00
S'\xa5P\xd1\x87\x88:\xe5?\xd8\xf1\xd1l\xc6\x00\x15\xc0{\xeaM\xb0\xfa\x02\x0e@'
p303
tp304
bag22
(g23
(I0
tp305
g25
tp306
Rp307
(I1
(I3
tp308
g168
I00
S'\xc6\x05\xbdtg\xd9\xe2?F\xdf\x9d@\\\xf3\x11\xc0\x1a\xc4.\xbb\xcc\x12\x02@'
p309
tp310
bag22
(g23
(I0
tp311
g25
tp312
Rp313
(I1
(I3
tp314
g168
I00
S'3z\xed\x8eN)\xe4?\x0c\x96\xd4\xa2\x0e\xd0\r\xc0\xbd%\xf5{\xe9\xf9\x03@'
p315
tp316
bag22
(g23
(I0
tp317
g25
tp318
Rp319
(I1
(I3
tp320
g168
I00
S'\xaf0\xe9h\xba~\xee?k\xbb\xd8\xd4\xd0g\t\xc09\x9ey\xed\xb06\x06@'
p321
tp322
bag22
(g23
(I0
tp323
g25
tp324
Rp325
(I1
(I3
tp326
g168
I00
S'\xf4\xfdJ\x1a(#\xec?H"\x9cD\x1aE\x05\xc0.\xa9\x0b\x87\xf8\xe1\x02@'
p327
tp328
bas(Vsquare_packing_box1
p329
g148
tp330
(lp331
g22
(g23
(I0
tp332
g25
tp333
Rp334
(I1
(I3
tp335
g157
I00
S'H\x88\xf6\xd17Y\xf1?\xe4\xfb\xac\xc3\\\xae\x19\xc0>#\xc4\x1fP\xee\xff?'
p336
tp337
bag22
(g23
(I0
tp338
g25
tp339
Rp340
(I1
(I3
tp341
g168
I00
S'o\xd6\x82\xea\x7f\xb2\xed?9\xf2C\x0b?\xfd\x16\xc0(?d\xe9@\xb5\x02@'
p342
tp343
bag22
(g23
(I0
tp344
g25
tp345
Rp346
(I1
(I3
tp347
g168
I00
S'&>c9\x01,\xeb?\xb2\xc2\xf0\x02\xce\x8e\x14\xc0\xd8p\xbb2\x14\xd2\x03@'
p348
tp349
bag22
(g23
(I0
tp350
g25
tp351
Rp352
(I1
(I3
tp353
g168
I00
S'\xc6\x05\xbdtg\xd9\xe2?F\xdf\x9d@\\\xf3\x11\xc0\x1a\xc4.\xbb\xcc\x12\x02@'
p354
tp355
bag22
(g23
(I0
tp356
g25
tp357
Rp358
(I1
(I3
tp359
g168
I00
S'3z\xed\x8eN)\xe4?\x0c\x96\xd4\xa2\x0e\xd0\r\xc0\xbd%\xf5{\xe9\xf9\x03@'
p360
tp361
bag22
(g23
(I0
tp362
g25
tp363
Rp364
(I1
(I3
tp365
g168
I00
S'\xaf0\xe9h\xba~\xee?k\xbb\xd8\xd4\xd0g\t\xc09\x9ey\xed\xb06\x06@'
p366
tp367
bag22
(g23
(I0
tp368
g25
tp369
Rp370
(I1
(I3
tp371
g168
I00
S'\xf4\xfdJ\x1a(#\xec?H"\x9cD\x1aE\x05\xc0.\xa9\x0b\x87\xf8\xe1\x02@'
p372
tp373
bas(Vsquare_packing_box2
p374
g148
tp375
(lp376
g22
(g23
(I0
tp377
g25
tp378
Rp379
(I1
(I3
tp380
g157
I00
S'\xe8\xd7\x90D\xb5i\xf4?\t\x05%b\t(\x1b\xc0\xdfG7\xd3\xf4~\x15@'
p381
tp382
bag22
(g23
(I0
tp383
g25
tp384
Rp385
(I1
(I3
tp386
g168
I00
S'\xdc\xfdN\xc8J~\xf0?\xc2\xcc\xc4M\xa2\x1d\x1a\xc0\xb4;\xa7?\xcck\xe7\xbf'
p387
tp388
bag22
(g23
(I0
tp389
g25
tp390
Rp391
(I1
(I3
tp392
g168
I00
S'N\xcd\xaa\x1e;\x0f\xee?&\xa8j\x7f\xa2\xe5\x17\xc0\xc1rR\xf6\xd1Y\xe0\xbf'
p393
tp394
bag22
(g23
(I0
tp395
g25
tp396
Rp397
(I1
(I3
tp398
g168
I00
S'\xe4\x9e\xb7\xac\xe0!\xeb?\x8a\x83\x10\xb1\xa2\xad\x15\xc0\x9aS\xfbY\xaf\x8f\xd2\xbf'
p399
tp400
bag22
(g23
(I0
tp401
g25
tp402
Rp403
(I1
(I3
tp404
g168
I00
S"\xb2&6mg)\xe8?\x99\xe0G'\x16\xe0\x13\xc0\xc8oL\xf5\x17p\xe6\xbf"
p405
tp406
bag22
(g23
(I0
tp407
g25
tp408
Rp409
(I1
(I3
tp410
g168
I00
S'`\xc8Aw-\x81\xeb?/\xc3\xe6O\x04\xca\x10\xc0\x8a\xb7K)\x91{\xe4\xbf'
p411
tp412
bag22
(g23
(I0
tp413
g25
tp414
Rp415
(I1
(I3
tp416
g168
I00
S'\xe1\xc6\xc7\xa7\x12X\xe7?\x98\x99\xb0\x9a\xfb\xdb\x0b\xc0R\t\x1b)\xeae\xe0\xbf'
p417
tp418
bag22
(g23
(I0
tp419
g25
tp420
Rp421
(I1
(I3
tp422
g168
I00
S'p\xf1\xbdc^\x84\xf1?"\x88LL\xf9D\x06\xc0~w\r\xe9m\x0f\x19@'
p423
tp424
bas(Vsquare_packing_box3
p425
g148
tp426
(lp427
g22
(g23
(I0
tp428
g25
tp429
Rp430
(I1
(I3
tp431
g157
I00
S'Q\xa4\tM\xd7\xbf\x07@g\xde\xd3\xd4\x81\xa1\x18\xc0\xa2\xce`\xb8\xb6\xe1\x15@'
p432
tp433
bag22
(g23
(I0
tp434
g25
tp435
Rp436
(I1
(I3
tp437
g168
I00
S'\x02:\xde\x84?\xc0\x03@\x16\xfaJE\x8a\x0f\x19\xc0\x13\xc0\x8b\x01\x1d?\xf4\xbf'
p438
tp439
bag22
(g23
(I0
tp440
g25
tp441
Rp442
(I1
(I3
tp443
g168
I00
S'!\x83\xc0\xf3W\x85\xff?\xed\x8f\x90/y\xfd\x16\xc06jP\xfe\x98\xf5\xf4\xbf'
p444
tp445
bag22
(g23
(I0
tp446
g25
tp447
Rp448
(I1
(I3
tp449
g168
I00
S'2Z\xe1\xe97J\xf6?\\\x1e`@2v\x16\xc0\xc4\x0c\xcc\x14<\xf9\xf6\xbf'
p450
tp451
bag22
(g23
(I0
tp452
g25
tp453
Rp454
(I1
(I3
tp455
g168
I00
S'tx\x8as\xa8b\xed?\x9ej\x15\xfa\xf0{\x15\xc0@\xed\x9a-\x9eD\xf2\xbf'
p456
tp457
bag22
(g23
(I0
tp458
g25
tp459
Rp460
(I1
(I3
tp461
g168
I00
S"\xb2&6mg)\xe8?\x99\xe0G'\x16\xe0\x13\xc0\xc8oL\xf5\x17p\xe6\xbf"
p462
tp463
bag22
(g23
(I0
tp464
g25
tp465
Rp466
(I1
(I3
tp467
g168
I00
S'`\xc8Aw-\x81\xeb?/\xc3\xe6O\x04\xca\x10\xc0\x8a\xb7K)\x91{\xe4\xbf'
p468
tp469
bag22
(g23
(I0
tp470
g25
tp471
Rp472
(I1
(I3
tp473
g168
I00
S'\xe1\xc6\xc7\xa7\x12X\xe7?\x98\x99\xb0\x9a\xfb\xdb\x0b\xc0R\t\x1b)\xeae\xe0\xbf'
p474
tp475
bag22
(g23
(I0
tp476
g25
tp477
Rp478
(I1
(I3
tp479
g168
I00
S'p\xf1\xbdc^\x84\xf1?"\x88LL\xf9D\x06\xc0~w\r\xe9m\x0f\x19@'
p480
tp481
bas(Vrectangular_packing_box2
p482
g148
tp483
(lp484
g22
(g23
(I0
tp485
g25
tp486
Rp487
(I1
(I3
tp488
g157
I00
S'\x90oK0\xce\x9b\xf3?\xb0}J\x01\x06\xc4\x18\xc0\xb5\xd8\xdc\x98%\x83\xd4?'
p489
tp490
bag22
(g23
(I0
tp491
g25
tp492
Rp493
(I1
(I3
tp494
g168
I00
S'\x12\xfe\xe1\x95\xb8\x19\xf8?\x8c#.~\xd7\xc6\x16\xc0\xfe\xd3A\xf0\xcat\xc0\xbf'
p495
tp496
bag22
(g23
(I0
tp497
g25
tp498
Rp499
(I1
(I3
tp500
g168
I00
S'\xe4\x9e\xb7\xac\xe0!\xeb?\x8a\x83\x10\xb1\xa2\xad\x15\xc0\x9aS\xfbY\xaf\x8f\xd2\xbf'
p501
tp502
bag22
(g23
(I0
tp503
g25
tp504
Rp505
(I1
(I3
tp506
g168
I00
S'\xcc\x87!\x1f\xfb\x05\xe6?\x14;\x08\xf1<\xc6\x13\xc0V!\xac1j\x94\xc8?'
p507
tp508
bag22
(g23
(I0
tp509
g25
tp510
Rp511
(I1
(I3
tp512
g168
I00
S'`\xc8Aw-\x81\xeb?/\xc3\xe6O\x04\xca\x10\xc0\x8a\xb7K)\x91{\xe4\xbf'
p513
tp514
bag22
(g23
(I0
tp515
g25
tp516
Rp517
(I1
(I3
tp518
g168
I00
S'\xe1\xc6\xc7\xa7\x12X\xe7?\x98\x99\xb0\x9a\xfb\xdb\x0b\xc0R\t\x1b)\xeae\xe0\xbf'
p519
tp520
bag22
(g23
(I0
tp521
g25
tp522
Rp523
(I1
(I3
tp524
g168
I00
S'\xd6\x07{\xd9\x10\xef\xe4?\x1d\xac\x7fu\xfd\xc8\x05\xc0n\xbe\xc6$&8\xd7?'
p525
tp526
bassS'mc_to_entity'
p527
(dp528
(g147
g148
tp529
(lp530
Vsquare_packing_box2
p531
aVrectangular_packing_box2
p532
aVsquare_packing_box1
p533
as(g221
g148
tp534
(lp535
Vrectangular_packing_box1
p536
aVsquare_packing_box1
p537
as(g278
g148
tp538
(lp539
Vsquare_packing_box2
p540
aVsquare_packing_box1
p541
as(g329
g148
tp542
(lp543
s(g374
g148
tp544
(lp545
Vsquare_packing_box1
p546
aVrectangular_packing_box2
p547
as(g425
g148
tp548
(lp549
Vrectangular_packing_box2
p550
aVsquare_packing_box1
p551
as(g482
g148
tp552
(lp553
Vsquare_packing_box1
p554
assS'reachable_entities'
p555
(lp556
Vrectangular_packing_box2
p557
aVrectangular_packing_box3
p558
aVsquare_packing_box2
p559
aVsquare_packing_box3
p560
ag12
asS'collides'
p561
(dp562
Vrectangular_packing_box4
p563
c__builtin__
set
p564
((lp565
I514
aI259
aI135
aI392
aI146
aI406
aI407
aI543
aI556
aI429
aI177
aI443
aI585
aI463
aI464
aI593
aI121
aI610
aI486
aI494
aI240
aI374
aI119
aI120
aI505
atp566
Rp567
sVrectangular_packing_box2
p568
g564
((lp569
I3
aI4
aI449
aI395
aI404
aI160
aI161
aI162
aI37
aI42
aI43
aI301
aI309
aI55
aI56
aI187
aI188
aI416
aI327
aI201
aI202
aI203
aI595
aI611
aI484
aI106
aI497
aI115
aI372
aI379
aI380
aI554
atp570
Rp571
sVrectangular_packing_box3
p572
g564
((lp573
I513
aI386
aI387
aI260
aI269
aI515
aI280
aI552
aI436
aI440
aI572
aI573
aI117
aI193
aI68
aI337
aI339
aI340
aI213
aI479
aI354
aI613
aI617
aI111
aI112
aI113
aI211
aI245
aI375
aI212
aI254
atp574
Rp575
sVrectangular_packing_box1
p576
g564
((lp577
I384
aI133
aI134
aI136
aI394
aI523
aI276
aI580
aI154
aI155
aI157
aI163
aI164
aI165
aI166
aI547
aI308
aI575
aI452
aI197
aI328
aI518
aI589
aI338
aI83
aI356
aI229
aI502
aI251
atp578
Rp579
sVsquare_packing_box2
p580
g564
((lp581
I256
aI514
aI262
aI263
aI392
aI145
aI146
aI406
aI407
aI543
aI422
aI556
aI429
aI177
aI443
aI444
aI67
aI585
aI463
aI80
aI593
aI215
aI464
aI610
aI230
aI240
aI374
aI119
aI120
aI505
aI124
atp582
Rp583
sVsquare_packing_box3
p584
g564
((lp585
I144
aI405
aI545
aI548
aI425
aI302
aI303
aI307
aI565
aI438
aI442
aI453
aI457
aI343
aI473
aI474
aI612
aI614
aI367
aI368
aI500
aI246
aI247
aI377
aI381
atp586
Rp587
sVsquare_packing_box1
p588
g564
((lp589
I132
aI517
aI6
aI8
aI137
aI276
aI33
aI34
aI607
aI327
aI44
aI301
aI584
aI56
aI186
aI187
aI459
aI196
aI198
aI71
aI456
aI203
aI84
aI597
aI93
aI94
aI95
aI484
aI233
aI234
aI107
aI108
aI252
atp590
Rp591
sVsquare_packing_box4
p592
g564
((lp593
I328
aI257
aI532
aI486
aI135
aI264
aI265
aI458
aI583
aI366
aI177
aI448
aI494
aI433
aI121
aI122
aI490
aI346
aI158
aI159
atp594
Rp595
ssg78
g79
sS'pick_used'
p596
(dp597
Vrectangular_packing_box4
p598
(itrajectory_representation.operator
Operator
p599
(dp600
g8
I01
sg9
(dp601
S'object'
p602
Vrectangular_packing_box4
p603
ssg17
S'two_arm_pick'
p604
sg19
(dp605
S'q_goal'
p606
(lp607
g22
(g23
(I0
tp608
g25
tp609
Rp610
(I1
(I3
tp611
g157
I00
S'\x16\xe3\xec\xc9\xf5k\xfb?_\x9b\xa3\x1d \xc0\x1c\xc0j\x81\xe5EC\xdc\xf4\xbf'
p612
tp613
bag22
(g23
(I0
tp614
g25
tp615
Rp616
(I1
(I3
tp617
g157
I00
S'\xae\x89\n$\xcf\xfd\xfd?X\xd78\x8aT\xf3\x1c\xc0~\x04\x8f~Y\x18\xff\xbf'
p618
tp619
bag22
(g23
(I0
tp620
g25
tp621
Rp622
(I1
(I3
tp623
g157
I00
S'\xf4\x11\x9e\x874\xa9\xfb?[\xb3q5\xec\xf0\x1c\xc0\x96\xd31\xee\x82\xd4\xfd\xbf'
p624
tp625
bag22
(g23
(I0
tp626
g25
tp627
Rp628
(I1
(I3
tp629
g157
I00
S'\x8b\xb0B\xc2u;\xfb?-\x7f\xed^\xaa\xaf\x1c\xc0X\xfe\x9e\xcb\xc9\xc1\xff\xbf'
p630
tp631
basS'is_feasible'
p632
I00
ssg47
(lp633
g22
(g23
(I0
tp634
g25
tp635
Rp636
(I1
(I3
tp637
g157
I00
S'\x94#@NL\xef\x02@ g\xab\xa4\xe4\x98\x1b\xc0\xa7\xd9\xedX\xe4\xa4\x12@'
p638
tp639
bag610
asbsg557
(itrajectory_representation.operator
Operator
p640
(dp641
g8
I01
sg9
(dp642
g602
Vrectangular_packing_box2
p643
ssg17
g604
sg19
(dp644
g606
(lp645
g22
(g23
(I0
tp646
g25
tp647
Rp648
(I1
(I3
tp649
g157
I00
S'\x99oK0\xce\x9b\xf3?\xb1}J\x01\x06\xc4\x18\xc0\xb0\xd8\xdc\x98%\x83\xd4?'
p650
tp651
bag22
(g23
(I0
tp652
g25
tp653
Rp654
(I1
(I3
tp655
g157
I00
S'\xe0\x9a\x04\xf0G\xb4\xf4?:\x11\xcf\xf2\xcbH\x19\xc0\xc1\xa4\x94\x94\xcat\xd6?'
p656
tp657
bag22
(g23
(I0
tp658
g25
tp659
Rp660
(I1
(I3
tp661
g157
I00
S'!g\x88\x96\x83\xd1\xf4?\xed\x04MA\xfab\x19\xc0\xab\r\xae\xa8N\xda\xee?'
p662
tp663
bag22
(g23
(I0
tp664
g25
tp665
Rp666
(I1
(I3
tp667
g157
I00
S'\xde\x82\x96\xc6\r\xf3\xf2?\xbd1\x94/\xfd.\x19\xc0\xd6\xfa\x18-\x94\xb0\xcd?'
p668
tp669
bag22
(g23
(I0
tp670
g25
tp671
Rp672
(I1
(I3
tp673
g157
I00
S'I\xc2m\xb1\xba\x0b\xf6?\xeau2\xb2\xa5O\x19\xc0\xce\xd92\xc1.\x1a\xf2?'
p674
tp675
basg632
I00
ssg47
(lp676
g22
(g23
(I0
tp677
g25
tp678
Rp679
(I1
(I3
tp680
g157
I00
S'\x94#@NL\xef\x02@ g\xab\xa4\xe4\x98\x1b\xc0\xa7\xd9\xedX\xe4\xa4\x12@'
p681
tp682
bag22
(g23
(I0
tp683
g25
tp684
Rp685
(I1
(I3
tp686
g168
I00
S'\xc2Fo\n7\x11\x03@\xb6=Ya.\xe0\x1a\xc0,\x0b\x04&"Y\x07\xc0'
p687
tp688
bag22
(g23
(I0
tp689
g25
tp690
Rp691
(I1
(I3
tp692
g168
I00
S'\xb9\x81\xdfb\xdf\x92\xfe?\x1a\xe3?2\xb6\xec\x1a\xc0B\x1b\x81\xfa\x93C\xfa?'
p693
tp694
bag672
asbsg558
(itrajectory_representation.operator
Operator
p695
(dp696
g8
I01
sg9
(dp697
g602
Vrectangular_packing_box3
p698
ssg17
g604
sg19
(dp699
g606
(lp700
g22
(g23
(I0
tp701
g25
tp702
Rp703
(I1
(I3
tp704
g157
I00
S'\xc4Cv\xcbtO\x08@q%1\x9d\xffA\x1c\xc0\xae\xe6!\x87*\x8e\xfd\xbf'
p705
tp706
bag22
(g23
(I0
tp707
g25
tp708
Rp709
(I1
(I3
tp710
g157
I00
S'f\xdaW\xa3DS\t@[\x98\xc6{\x00L\x1c\xc0\xb3\xa5\xc2\xec\xe5\x1e\xf8\xbf'
p711
tp712
bag22
(g23
(I0
tp713
g25
tp714
Rp715
(I1
(I3
tp716
g157
I00
S'/\xbe8)\xcd\x80\x07@\x98\x15[\xdc^\x05\x1c\xc0\x82:\x19\x93\xdb\xa3\xea\xbf'
p717
tp718
bag22
(g23
(I0
tp719
g25
tp720
Rp721
(I1
(I3
tp722
g157
I00
S'BU\x88\xb5\x1e\xf3\x02@5\t\xf0X\x08{\x1f\xc0\x9eJ\xcf\xdbv\xeb\xd6\xbf'
p723
tp724
basg632
I00
ssg47
(lp725
g22
(g23
(I0
tp726
g25
tp727
Rp728
(I1
(I3
tp729
g157
I00
S'\x94#@NL\xef\x02@ g\xab\xa4\xe4\x98\x1b\xc0\xa7\xd9\xedX\xe4\xa4\x12@'
p730
tp731
bag703
asbsVrectangular_packing_box1
p732
(itrajectory_representation.operator
Operator
p733
(dp734
g8
I01
sg9
(dp735
g602
Vrectangular_packing_box1
p736
ssg17
g604
sg19
(dp737
g606
(lp738
g22
(g23
(I0
tp739
g25
tp740
Rp741
(I1
(I3
tp742
g157
I00
S'$\x03,\x89\x01\x84\xad\xbf\xc0\xd8\xbd\x11\x8c\xf7\x18\xc0q\xcf=\x89#\xf8\xf4\xbf'
p743
tp744
bag22
(g23
(I0
tp745
g25
tp746
Rp747
(I1
(I3
tp748
g157
I00
S'd\xfb>\xa0\x18c\xe5?\xc9\xf2\xe9\x8a\xa5.\x1e\xc0\xf5\xe4\x8f\xc8~T\x01@'
p749
tp750
bag22
(g23
(I0
tp751
g25
tp752
Rp753
(I1
(I3
tp754
g157
I00
S'\xee\x88X\x93\xb7\xfc\xe4?\xae{\xfc\xf7\x95\x19\x1e\xc0\xd5\x08\x99f\xd1\x9c\x00@'
p755
tp756
basg632
I00
ssg47
(lp757
g22
(g23
(I0
tp758
g25
tp759
Rp760
(I1
(I3
tp761
g157
I00
S'\x94#@NL\xef\x02@ g\xab\xa4\xe4\x98\x1b\xc0\xa7\xd9\xedX\xe4\xa4\x12@'
p762
tp763
bag22
(g23
(I0
tp764
g25
tp765
Rp766
(I1
(I3
tp767
g168
I00
S'zT\r\xfe&\xfe\xfd?~,i\xf5\xe3\x9c\x1d\xc0\xe2\x1a4?SB\x15@'
p768
tp769
bag22
(g23
(I0
tp770
g25
tp771
Rp772
(I1
(I3
tp773
g168
I00
S'\xa4\xc8\xcc\x88S\x9f\xf6?N\xeaYik!\x1e\xc0\x00W\xeas\x1a)\xfa?'
p774
tp775
bag747
asbsg559
(itrajectory_representation.operator
Operator
p776
(dp777
g8
I01
sg9
(dp778
g602
Vsquare_packing_box2
p779
ssg17
g604
sg19
(dp780
g606
(lp781
g22
(g23
(I0
tp782
g25
tp783
Rp784
(I1
(I3
tp785
g157
I00
S'\xe7\xd7\x90D\xb5i\xf4?\n\x05%b\t(\x1b\xc0\xc7)g\x084\x18\xed\xbf'
p786
tp787
bag22
(g23
(I0
tp788
g25
tp789
Rp790
(I1
(I3
tp791
g157
I00
S'}MW\x18O\x8d\xf6?\x9aW\r"\xb9\xd3\x1a\xc0T\xd4#\x91\xffh\xe9\xbf'
p792
tp793
bag22
(g23
(I0
tp794
g25
tp795
Rp796
(I1
(I3
tp797
g157
I00
S'\xfa\xc4\xc5\xb6\xbd\x07\xf1?\xe0\x1c\x99\xfa\xcc\xd3\x1e\xc0+\x17ie0\xa6\xd6?'
p798
tp799
basg632
I00
ssg47
(lp800
g22
(g23
(I0
tp801
g25
tp802
Rp803
(I1
(I3
tp804
g157
I00
S'\x94#@NL\xef\x02@ g\xab\xa4\xe4\x98\x1b\xc0\xa7\xd9\xedX\xe4\xa4\x12@'
p805
tp806
bag22
(g23
(I0
tp807
g25
tp808
Rp809
(I1
(I3
tp810
g168
I00
S'2]\x933g}\x00@\xebx\x00&R!\x1b\xc0\xce\x170ZD}\x00\xc0'
p811
tp812
bag22
(g23
(I0
tp813
g25
tp814
Rp815
(I1
(I3
tp816
g168
I00
S'zP\x91@+\x97\xf6?*&V!\xde-\x1a\xc0\xb2Z\x99\x08\xf1Y\x13@'
p817
tp818
bag790
asbsg560
(itrajectory_representation.operator
Operator
p819
(dp820
g8
I01
sg9
(dp821
g602
Vsquare_packing_box3
p822
ssg17
g604
sg19
(dp823
g606
(lp824
g22
(g23
(I0
tp825
g25
tp826
Rp827
(I1
(I3
tp828
g157
I00
S'Q\xa4\tM\xd7\xbf\x07@h\xde\xd3\xd4\x81\xa1\x18\xc0\xac\xf3\x1a\xdf$\x02\xea\xbf'
p829
tp830
bag22
(g23
(I0
tp831
g25
tp832
Rp833
(I1
(I3
tp834
g157
I00
S'\xab|\x8f!,x\x08@S{q5\xd6L\x18\xc0\x08\xe4\xa3K\x01\xac\xe6\xbf'
p835
tp836
bag22
(g23
(I0
tp837
g25
tp838
Rp839
(I1
(I3
tp840
g157
I00
S'\x85G$\x9c3\x14\t@*2<y\xc2l\x17\xc0\xdc%\x9ag\xbc\xa1\xe4\xbf'
p841
tp842
bag22
(g23
(I0
tp843
g25
tp844
Rp845
(I1
(I3
tp846
g157
I00
S'\xd6\xd9\xcf\xf0\x9b\x83\t@\x1eUc\xb0X\xb0\x17\xc0L\x04\xba&8\xa8\xf0\xbf'
p847
tp848
bag22
(g23
(I0
tp849
g25
tp850
Rp851
(I1
(I3
tp852
g157
I00
S'\xa7#U\x99\xf9\x99\x07@\x9d\xd1:L\xf8k\x1c\xc0p\xa7\xcf\xe0\xdc\x8c\xe6?'
p853
tp854
basg632
I00
ssg47
(lp855
g22
(g23
(I0
tp856
g25
tp857
Rp858
(I1
(I3
tp859
g157
I00
S'\x94#@NL\xef\x02@ g\xab\xa4\xe4\x98\x1b\xc0\xa7\xd9\xedX\xe4\xa4\x12@'
p860
tp861
bag22
(g23
(I0
tp862
g25
tp863
Rp864
(I1
(I3
tp865
g168
I00
S'\xf9\xba\xbb\xd8\xde<\x02@\x99\xbe:\xeaE5\x1b\xc0!\x7fo\x1e\nW\x0f@'
p866
tp867
bag22
(g23
(I0
tp868
g25
tp869
Rp870
(I1
(I3
tp871
g168
I00
S'\tf\xd5\xc3\xdb\xc1\x02@y9\xac\xaa\x85r\x1a\xc0n\x19\xc0\xf8c\xa8\xe2\xbf'
p872
tp873
bag827
asbsg12
(itrajectory_representation.operator
Operator
p874
(dp875
g8
I01
sg9
(dp876
g11
g12
ssg17
S'two_arm_pick'
p877
sg19
(dp878
g21
g22
(g23
(I0
tp879
g25
tp880
Rp881
(I1
(I3
tp882
g32
I00
S'J\x88\xf6\xd17Y\xf1?\xe6\xfb\xac\xc3\\\xae\x19\xc0>#\xc4\x1fP\xee\xff?'
p883
tp884
bssg47
(lp885
g22
(g23
(I0
tp886
g25
tp887
Rp888
(I1
(I3
tp889
g157
I00
S'\x94#@NL\xef\x02@ g\xab\xa4\xe4\x98\x1b\xc0\xa7\xd9\xedX\xe4\xa4\x12@'
p890
tp891
bag22
(g23
(I0
tp892
g25
tp893
Rp894
(I1
(I3
tp895
g168
I00
S'\x05\x83iK\x01\x86\xfb?\x162zB{\xdc\x1a\xc0T\xd8\x04\x17\xd4b\xea\xbf'
p896
tp897
bag22
(g23
(I0
tp898
g25
tp899
Rp900
(I1
(I3
tp901
g168
I00
S'*4\xc9\xb1\x13|\xf5?=~n\xf8\xb0\xf9\x1b\xc0\x97\x8e\x14L\xfds\x01@'
p902
tp903
bag881
asbsVsquare_packing_box4
p904
(itrajectory_representation.operator
Operator
p905
(dp906
g8
I01
sg9
(dp907
g602
Vsquare_packing_box4
p908
ssg17
g604
sg19
(dp909
g606
(lp910
g22
(g23
(I0
tp911
g25
tp912
Rp913
(I1
(I3
tp914
g157
I00
S'\xa4\xbd\x11\x98\x90\xbf\x90?#&\x89\xe3(\xd9\x1e\xc0N^h\xfc\xaeb\xdb\xbf'
p915
tp916
bag22
(g23
(I0
tp917
g25
tp918
Rp919
(I1
(I3
tp920
g157
I00
S"\x18\x9fs\x9c\xa0\x12\xb8?O]\xd8}Z\x0f\x1e\xc06\x81\x1d'\xd0\xf1\xef\xbf"
p921
tp922
bag22
(g23
(I0
tp923
g25
tp924
Rp925
(I1
(I3
tp926
g157
I00
S'^\xd8\xf3\xbbn\xe6\xba?\x0e\x84\xaa\xd2\xba@\x1e\xc0`\xc5\r\x90\xd3\xc3\xde\xbf'
p927
tp928
bag22
(g23
(I0
tp929
g25
tp930
Rp931
(I1
(I3
tp932
g157
I00
S'M\x8e$kF\xa4\xbb?\x90\xe9\xa1\x89\xcc\xd6\x1d\xc0\xfe4\x10eo\xb6\xe3\xbf'
p933
tp934
basg632
I00
ssg47
(lp935
g22
(g23
(I0
tp936
g25
tp937
Rp938
(I1
(I3
tp939
g157
I00
S'\x94#@NL\xef\x02@ g\xab\xa4\xe4\x98\x1b\xc0\xa7\xd9\xedX\xe4\xa4\x12@'
p940
tp941
bag22
(g23
(I0
tp942
g25
tp943
Rp944
(I1
(I3
tp945
g168
I00
S'\x05\x83iK\x01\x86\xfb?\x162zB{\xdc\x1a\xc0T\xd8\x04\x17\xd4b\xea\xbf'
p946
tp947
bag22
(g23
(I0
tp948
g25
tp949
Rp950
(I1
(I3
tp951
g168
I00
S'\xdc\xfdN\xc8J~\xf0?\xc2\xcc\xc4M\xa2\x1d\x1a\xc0\xb4;\xa7?\xcck\xe7\xbf'
p952
tp953
bag22
(g23
(I0
tp954
g25
tp955
Rp956
(I1
(I3
tp957
g168
I00
S'X\x9b\x8c[e\xe8\xdb?\xdc\xc11jk\x8b\x1b\xc0\xfe\x18\xeb6\xf7\x88\xc3?'
p958
tp959
bag931
asbssS'mc_paths'
p960
(dp961
sS'robot'
p962
NsS'reachable_obj_region_pairs'
p963
(lp964
(g329
g148
tp965
asS'sampled_pick_configs_for_objects'
p966
(dp967
sS'mc_calls'
p968
I0
sS'pick_poses'
p969
g597
sS'problem_env'
p970
NsS'evaluations'
p971
(dp972
(g374
g482
g148
tp973
I01
s(g482
g425
g148
tp974
I00
s(g278
g374
g148
tp975
I01
s(g425
g329
g148
tp976
I01
s(g221
g374
g148
tp977
I00
s(g329
g147
g148
tp978
I00
s(g425
g482
g148
tp979
I01
s(g278
g221
g148
tp980
I00
s(g374
g329
g148
tp981
I01
s(g374
g147
g148
tp982
I00
s(g278
g425
g148
tp983
I00
s(g425
g147
g148
tp984
I00
s(g221
g425
g148
tp985
I00
s(g329
g482
g148
tp986
I00
s(g425
g221
g148
tp987
I00
s(g482
Vrectangular_packing_box1
p988
g148
tp989
I00
s(g147
g329
g148
tp990
I01
s(g221
g988
g148
tp991
I01
s(g425
g278
g148
tp992
I00
s(g482
g329
g148
tp993
I01
s(g147
g278
g148
tp994
I00
s(g482
g221
g148
tp995
I00
s(g278
g988
g148
tp996
I00
s(g329
g988
g148
tp997
I00
s(g147
g425
g148
tp998
I00
s(g147
g988
g148
tp999
I00
s(g425
g988
g148
tp1000
I00
s(g221
g482
g148
tp1001
I00
s(g278
g482
g148
tp1002
I00
s(g374
g988
g148
tp1003
I00
s(g221
g278
g148
tp1004
I00
s(g147
g221
g148
tp1005
I00
s(g374
g278
g148
tp1006
I00
s(g425
g374
g148
tp1007
I00
s(g329
g374
g148
tp1008
I00
s(g374
g221
g148
tp1009
I00
s(g221
g147
g148
tp1010
I00
s(g329
g425
g148
tp1011
I00
s(g374
g425
g148
tp1012
I00
s(g278
g147
g148
tp1013
I00
s(g147
g482
g148
tp1014
I01
s(g482
g374
g148
tp1015
I00
s(g278
g329
g148
tp1016
I01
s(g329
g221
g148
tp1017
I00
s(g221
g329
g148
tp1018
I01
s(g329
g278
g148
tp1019
I00
s(g482
g278
g148
tp1020
I00
s(g147
g374
g148
tp1021
I01
s(g482
g147
g148
tp1022
I00
ssS'paths_to_reachable_entities'
p1023
NsS'use_shortest_path'
p1024
I01
sbsS'ternary_edges'
p1025
(dp1026
(g482
g482
g148
tp1027
(lp1028
I00
as(g329
S'loading_region'
p1029
g1029
tp1030
(lp1031
I00
as(S'entire_region'
p1032
g988
g148
tp1033
(lp1034
I00
as(g374
g221
g1029
tp1035
(lp1036
I00
as(g148
g148
g148
tp1037
(lp1038
I00
as(g221
g482
g1029
tp1039
(lp1040
I00
as(g329
g147
g148
tp1041
(lp1042
I00
as(g148
g278
g148
tp1043
(lp1044
I00
as(g374
g329
g148
tp1045
(lp1046
I01
as(g147
g278
g1029
tp1047
(lp1048
I00
as(g148
g221
g1029
tp1049
(lp1050
I00
as(g374
g1032
g148
tp1051
(lp1052
I00
as(g1029
g148
g1029
tp1053
(lp1054
I00
as(g278
g425
g148
tp1055
(lp1056
I00
as(g221
g1032
g148
tp1057
(lp1058
I00
as(g374
g988
g1029
tp1059
(lp1060
I00
as(g425
g1029
g148
tp1061
(lp1062
I00
as(g1032
g482
g1029
tp1063
(lp1064
I00
as(g148
g1032
g148
tp1065
(lp1066
I00
as(g482
g1029
g148
tp1067
(lp1068
I00
as(g425
g1032
g148
tp1069
(lp1070
I00
as(g329
g329
g1029
tp1071
(lp1072
I00
as(g1029
g221
g1029
tp1073
(lp1074
I00
as(g1032
g1029
g148
tp1075
(lp1076
I00
as(g1032
g374
g148
tp1077
(lp1078
I00
as(g1029
g1029
g148
tp1079
(lp1080
I00
as(g425
g278
g1029
tp1081
(lp1082
I00
as(g148
g148
g1029
tp1083
(lp1084
I00
as(g988
g374
g1029
tp1085
(lp1086
I00
as(g482
g221
g148
tp1087
(lp1088
I00
as(g425
g329
g148
tp1089
(lp1090
I01
as(g988
g148
g1029
tp1091
(lp1092
I00
as(g148
g482
g1029
tp1093
(lp1094
I00
as(g988
g147
g1029
tp1095
(lp1096
I00
as(g147
g988
g148
tp1097
(lp1098
I00
as(g1029
g329
g1029
tp1099
(lp1100
I00
as(g221
g374
g1029
tp1101
(lp1102
I00
as(g482
g482
g1029
tp1103
(lp1104
I00
as(g1032
g221
g148
tp1105
(lp1106
I00
as(g1029
g148
g148
tp1107
(lp1108
I00
as(g278
g482
g148
tp1109
(lp1110
I00
as(g148
g147
g148
tp1111
(lp1112
I00
as(g374
g988
g148
tp1113
(lp1114
I00
as(g147
g221
g148
tp1115
(lp1116
I00
as(g329
g147
g1029
tp1117
(lp1118
I00
as(g425
g374
g148
tp1119
(lp1120
I00
as(g374
g329
g1029
tp1121
(lp1122
I00
as(g374
g482
g1029
tp1123
(lp1124
I00
as(g1032
g374
g1029
tp1125
(lp1126
I00
as(g1029
g147
g1029
tp1127
(lp1128
I00
as(g1032
g148
g148
tp1129
(lp1130
I00
as(g278
g148
g148
tp1131
(lp1132
I00
as(g1029
g1032
g148
tp1133
(lp1134
I00
as(g482
g221
g1029
tp1135
(lp1136
I00
as(g425
g482
g1029
tp1137
(lp1138
I00
as(g425
g425
g148
tp1139
(lp1140
I00
as(g988
g147
g148
tp1141
(lp1142
I00
as(g1032
g482
g148
tp1143
(lp1144
I00
as(g988
g1029
g1029
tp1145
(lp1146
I00
as(g221
g329
g148
tp1147
(lp1148
I01
as(g329
g329
g148
tp1149
(lp1150
I00
as(g329
g278
g148
tp1151
(lp1152
I00
as(g278
g482
g1029
tp1153
(lp1154
I00
as(g221
g988
g1029
tp1155
(lp1156
I00
as(g425
g278
g148
tp1157
(lp1158
I00
as(g988
g374
g148
tp1159
(lp1160
I00
as(g482
g988
g1029
tp1161
(lp1162
I00
as(g988
g148
g148
tp1163
(lp1164
I00
as(g374
g482
g148
tp1165
(lp1166
I01
as(g482
g425
g148
tp1167
(lp1168
I00
as(g147
g988
g1029
tp1169
(lp1170
I00
as(g148
g374
g1029
tp1171
(lp1172
I00
as(g1032
g148
g1029
tp1173
(lp1174
I00
as(g1032
g221
g1029
tp1175
(lp1176
I00
as(g425
g482
g148
tp1177
(lp1178
I01
as(g147
g425
g1029
tp1179
(lp1180
I00
as(g482
g1032
g1029
tp1181
(lp1182
I00
as(g988
g1029
g148
tp1183
(lp1184
I00
as(g425
g374
g1029
tp1185
(lp1186
I00
as(g425
g988
g1029
tp1187
(lp1188
I00
as(g221
g329
g1029
tp1189
(lp1190
I00
as(g148
g147
g1029
tp1191
(lp1192
I00
as(g1032
g425
g1029
tp1193
(lp1194
I00
as(g1029
g147
g148
tp1195
(lp1196
I00
as(g1029
g374
g1029
tp1197
(lp1198
I00
as(g482
g988
g148
tp1199
(lp1200
I00
as(g221
g988
g148
tp1201
(lp1202
I01
as(g1029
g425
g148
tp1203
(lp1204
I00
as(g482
g425
g1029
tp1205
(lp1206
I00
as(g482
g278
g1029
tp1207
(lp1208
I00
as(g147
g221
g1029
tp1209
(lp1210
I00
as(g329
g278
g1029
tp1211
(lp1212
I00
as(g988
g425
g1029
tp1213
(lp1214
I00
as(g148
g329
g1029
tp1215
(lp1216
I00
as(g147
g1029
g1029
tp1217
(lp1218
I00
as(g278
g148
g1029
tp1219
(lp1220
I00
as(g329
g988
g148
tp1221
(lp1222
I00
as(g482
g1032
g148
tp1223
(lp1224
I00
as(g278
g374
g1029
tp1225
(lp1226
I00
as(g147
g482
g1029
tp1227
(lp1228
I00
as(g425
g988
g148
tp1229
(lp1230
I00
as(g221
g1029
g1029
tp1231
(lp1232
I00
as(g374
g148
g148
tp1233
(lp1234
I00
as(g221
g278
g148
tp1235
(lp1236
I00
as(g148
g425
g1029
tp1237
(lp1238
I00
as(g1029
g988
g1029
tp1239
(lp1240
I00
as(g1029
g425
g1029
tp1241
(lp1242
I00
as(g329
g425
g148
tp1243
(lp1244
I00
as(g988
g425
g148
tp1245
(lp1246
I00
as(g329
g988
g1029
tp1247
(lp1248
I00
as(g147
g482
g148
tp1249
(lp1250
I01
as(g482
g374
g148
tp1251
(lp1252
I00
as(g147
g148
g1029
tp1253
(lp1254
I00
as(g221
g1029
g148
tp1255
(lp1256
I00
as(g1029
g278
g1029
tp1257
(lp1258
I00
as(g482
g278
g148
tp1259
(lp1260
I00
as(g147
g147
g148
tp1261
(lp1262
I00
as(g278
g278
g148
tp1263
(lp1264
I00
as(g278
g147
g1029
tp1265
(lp1266
I00
as(g147
g1029
g148
tp1267
(lp1268
I00
as(g425
g221
g148
tp1269
(lp1270
I00
as(g278
g374
g148
tp1271
(lp1272
I01
as(g374
g1029
g1029
tp1273
(lp1274
I00
as(g147
g1032
g1029
tp1275
(lp1276
I00
as(g374
g148
g1029
tp1277
(lp1278
I00
as(g329
g374
g1029
tp1279
(lp1280
I00
as(g221
g278
g1029
tp1281
(lp1282
I00
as(g425
g148
g1029
tp1283
(lp1284
I00
as(g147
g148
g148
tp1285
(lp1286
I00
as(g1029
g278
g148
tp1287
(lp1288
I00
as(g988
g988
g148
tp1289
(lp1290
I00
as(g1029
g221
g148
tp1291
(lp1292
I00
as(g221
g425
g148
tp1293
(lp1294
I00
as(g329
g482
g148
tp1295
(lp1296
I00
as(g329
g425
g1029
tp1297
(lp1298
I00
as(g278
g329
g1029
tp1299
(lp1300
I00
as(g148
g374
g148
tp1301
(lp1302
I00
as(g1032
g147
g1029
tp1303
(lp1304
I00
as(g147
g329
g148
tp1305
(lp1306
I01
as(g988
g1032
g148
tp1307
(lp1308
I00
as(g425
g221
g1029
tp1309
(lp1310
I00
as(g425
g147
g1029
tp1311
(lp1312
I00
as(g278
g988
g148
tp1313
(lp1314
I00
as(g482
g374
g1029
tp1315
(lp1316
I00
as(g278
g1029
g148
tp1317
(lp1318
I00
as(g147
g1032
g148
tp1319
(lp1320
I00
as(g221
g147
g1029
tp1321
(lp1322
I00
as(g482
g329
g148
tp1323
(lp1324
I01
as(g425
g329
g1029
tp1325
(lp1326
I00
as(g221
g221
g1029
tp1327
(lp1328
I00
as(g278
g278
g1029
tp1329
(lp1330
I00
as(g988
g988
g1029
tp1331
(lp1332
I00
as(g329
g221
g1029
tp1333
(lp1334
I00
as(g221
g374
g148
tp1335
(lp1336
I00
as(g1032
g329
g148
tp1337
(lp1338
I00
as(g148
g1032
g1029
tp1339
(lp1340
I00
as(g148
g988
g1029
tp1341
(lp1342
I00
as(g374
g1029
g148
tp1343
(lp1344
I00
as(g329
g482
g1029
tp1345
(lp1346
I00
as(g988
g329
g1029
tp1347
(lp1348
I00
as(g147
g147
g1029
tp1349
(lp1350
I00
as(g1032
g147
g148
tp1351
(lp1352
I00
as(g374
g147
g1029
tp1353
(lp1354
I00
as(g988
g1032
g1029
tp1355
(lp1356
I00
as(g329
g374
g148
tp1357
(lp1358
I00
as(g278
g988
g1029
tp1359
(lp1360
I00
as(g278
g147
g148
tp1361
(lp1362
I00
as(g221
g147
g148
tp1363
(lp1364
I00
as(g329
g148
g1029
tp1365
(lp1366
I00
as(g374
g425
g148
tp1367
(lp1368
I00
as(g425
g425
g1029
tp1369
(lp1370
I00
as(g278
g1032
g148
tp1371
(lp1372
I00
as(g1029
g1032
g1029
tp1373
(lp1374
I00
as(g221
g425
g1029
tp1375
(lp1376
I00
as(g1029
g988
g148
tp1377
(lp1378
I00
as(g1032
g1032
g1029
tp1379
(lp1380
I00
as(g278
g329
g148
tp1381
(lp1382
I01
as(g329
g221
g148
tp1383
(lp1384
I00
as(g1029
g482
g1029
tp1385
(lp1386
I00
as(g147
g329
g1029
tp1387
(lp1388
I00
as(g425
g148
g148
tp1389
(lp1390
I00
as(g1032
g329
g1029
tp1391
(lp1392
I00
as(g425
g147
g148
tp1393
(lp1394
I00
as(g147
g374
g148
tp1395
(lp1396
I01
as(g278
g1029
g1029
tp1397
(lp1398
I00
as(g482
g329
g1029
tp1399
(lp1400
I00
as(g988
g482
g148
tp1401
(lp1402
I00
as(g1032
g1029
g1029
tp1403
(lp1404
I00
as(g1029
g482
g148
tp1405
(lp1406
I00
as(g329
g1032
g148
tp1407
(lp1408
I00
as(g374
g425
g1029
tp1409
(lp1410
I00
as(g374
g278
g1029
tp1411
(lp1412
I00
as(g221
g148
g148
tp1413
(lp1414
I00
as(g278
g1032
g1029
tp1415
(lp1416
I00
as(g278
g221
g148
tp1417
(lp1418
I00
as(g1032
g278
g1029
tp1419
(lp1420
I00
as(g148
g988
g148
tp1421
(lp1422
I00
as(g148
g425
g148
tp1423
(lp1424
I00
as(g988
g329
g148
tp1425
(lp1426
I00
as(g988
g278
g148
tp1427
(lp1428
I00
as(g1032
g425
g148
tp1429
(lp1430
I00
as(g374
g147
g148
tp1431
(lp1432
I00
as(g374
g374
g1029
tp1433
(lp1434
I00
as(g988
g221
g1029
tp1435
(lp1436
I00
as(g221
g148
g1029
tp1437
(lp1438
I00
as(g482
g148
g148
tp1439
(lp1440
I00
as(g329
g148
g148
tp1441
(lp1442
I00
as(g988
g482
g1029
tp1443
(lp1444
I00
as(g221
g482
g148
tp1445
(lp1446
I00
as(g148
g1029
g148
tp1447
(lp1448
I00
as(g1032
g1032
g148
tp1449
(lp1450
I00
as(g482
g147
g1029
tp1451
(lp1452
I00
as(g329
g1032
g1029
tp1453
(lp1454
I00
as(g1029
g374
g148
tp1455
(lp1456
I00
as(g147
g278
g148
tp1457
(lp1458
I00
as(g1032
g278
g148
tp1459
(lp1460
I00
as(g329
g1029
g148
tp1461
(lp1462
I00
as(g147
g374
g1029
tp1463
(lp1464
I00
as(g148
g329
g148
tp1465
(lp1466
I00
as(g1032
g988
g1029
tp1467
(lp1468
I00
as(g221
g1032
g1029
tp1469
(lp1470
I00
as(g374
g374
g148
tp1471
(lp1472
I00
as(g988
g221
g148
tp1473
(lp1474
I00
as(g425
g1032
g1029
tp1475
(lp1476
I00
as(g374
g278
g148
tp1477
(lp1478
I00
as(g148
g221
g148
tp1479
(lp1480
I00
as(g147
g425
g148
tp1481
(lp1482
I00
as(g278
g221
g1029
tp1483
(lp1484
I00
as(g221
g221
g148
tp1485
(lp1486
I00
as(g988
g278
g1029
tp1487
(lp1488
I00
as(g374
g221
g148
tp1489
(lp1490
I00
as(g425
g1029
g1029
tp1491
(lp1492
I00
as(g148
g482
g148
tp1493
(lp1494
I00
as(g482
g1029
g1029
tp1495
(lp1496
I00
as(g148
g278
g1029
tp1497
(lp1498
I00
as(g482
g148
g1029
tp1499
(lp1500
I00
as(g1029
g1029
g1029
tp1501
(lp1502
I00
as(g374
g1032
g1029
tp1503
(lp1504
I00
as(g278
g425
g1029
tp1505
(lp1506
I00
as(g148
g1029
g1029
tp1507
(lp1508
I00
as(g482
g147
g148
tp1509
(lp1510
I00
as(g1029
g329
g148
tp1511
(lp1512
I00
assg596
g597
sS'use_prm'
p1513
I01
sS'object_names'
p1514
(lp1515
S'square_packing_box1'
p1516
aS'rectangular_packing_box1'
p1517
aS'square_packing_box2'
p1518
aS'rectangular_packing_box2'
p1519
aS'square_packing_box3'
p1520
aS'rectangular_packing_box3'
p1521
aS'square_packing_box4'
p1522
aS'rectangular_packing_box4'
p1523
asg970
NsS'current_holding_collides'
p1524
NsS'object_poses'
p1525
(dp1526
Vrectangular_packing_box4
p1527
g22
(g23
(I0
tp1528
g25
tp1529
Rp1530
(I1
(I1
I3
tp1531
g157
I00
S'\xaa\xadLna}\xfa?\xb8cW\xb3\xa4\xd6\x1f\xc0\xe95T\xdb>\x84\x18@'
p1532
tp1533
bsVrectangular_packing_box2
p1534
g22
(g23
(I0
tp1535
g25
tp1536
Rp1537
(I1
(I1
I3
tp1538
g157
I00
S'\xae\xb0\xe5\xc6\x00\xf2\xfc?\xc0\xda\xbf\x1e|)\x17\xc0+\x93\xd3\xbd\xdc\x0b\x03@'
p1539
tp1540
bsVrectangular_packing_box3
p1541
g22
(g23
(I0
tp1542
g25
tp1543
Rp1544
(I1
(I1
I3
tp1545
g157
I00
S'~\x8e\xdb\xc6\xa4z\t@r5v\xbf\xe5:\x1f\xc0z\x7fR\x17\x1a\x80\n@'
p1546
tp1547
bsVrectangular_packing_box1
p1548
g22
(g23
(I0
tp1549
g25
tp1550
Rp1551
(I1
(I1
I3
tp1552
g157
I00
S'\xb0A\x11\x11\xbdS\xd0?"\xfa\x91lc\xbf\x1b\xc0\xc2\xbd_h7\x8c\x0e@'
p1553
tp1554
bsVsquare_packing_box2
p1555
g22
(g23
(I0
tp1556
g25
tp1557
Rp1558
(I1
(I1
I3
tp1559
g157
I00
S"\xe3\xa9\x88~'g\xfb?\xd3\xe9n{]\xda\x1d\xc0\xa8S\xa3\x00\xdb\xfc\x0c@"
p1560
tp1561
bsVsquare_packing_box3
p1562
g22
(g23
(I0
tp1563
g25
tp1564
Rp1565
(I1
(I1
I3
tp1566
g157
I00
S'\x95\xd1\x9c\xf7\xba\xa4\x0c@M\x0f\xf2\xd7\xed"\x1a\xc0\xbb\xdeH\x0e\x16\xae\x01@'
p1567
tp1568
bsVsquare_packing_box1
p1569
g22
(g23
(I0
tp1570
g25
tp1571
Rp1572
(I1
(I1
I3
tp1573
g157
I00
S'L\xf33k)\xad\xeb?\xa8\x81\xdfQ)N\x17\xc0l|\xdf\x8a\x08\xfe\x01@'
p1574
tp1575
bsVsquare_packing_box4
p1576
g22
(g23
(I0
tp1577
g25
tp1578
Rp1579
(I1
(I1
I3
tp1580
g157
I00
S'\x18\x1eFw;5\xe4?CO\xaeZ6\xd4\x1f\xc0\x1ak\xbdW\xf5/\x10@'
p1581
tp1582
bssS'reachable_regions_while_holding'
p1583
(lp1584
(g598
g1029
tp1585
a(g557
g1029
tp1586
a(g558
g1029
tp1587
a(g732
g1029
tp1588
a(g559
g1029
tp1589
a(g560
g1029
tp1590
a(g12
g1029
tp1591
a(g904
g1029
tp1592
a(g732
g148
tp1593
asS'in_region'
p1594
(itrajectory_representation.predicates.in_region
InRegion
p1595
(dp1596
g970
NsbsS'cached_pick_paths'
p1597
(dp1598
g598
g633
sg557
g676
sg558
g725
sg732
g757
sg559
g800
sg560
g855
sg12
g885
sg904
g935
ssg561
(dp1599
(Vrectangular_packing_box3
p1600
(cnumpy.core.multiarray
scalar
p1601
(g157
S'\xed*\xa4\xfc\xa4z\t@'
p1602
tp1603
Rp1604
g1601
(g157
S'+\xdb\x87\xbc\xe5:\x1f\xc0'
p1605
tp1606
Rp1607
g1601
(g157
S'\x1c\xeb\xe26\x1a\x80\n@'
p1608
tp1609
Rp1610
tp1611
tp1612
g575
s(Vrectangular_packing_box2
p1613
(g1601
(g157
S';\xfe\x0b\x04\x01\xf2\xfc?'
p1614
tp1615
Rp1616
g1601
(g157
S'[@h=|)\x17\xc0'
p1617
tp1618
Rp1619
g1601
(g157
S'\xa1\xa0\x14\xad\xdc\x0b\x03@'
p1620
tp1621
Rp1622
tp1623
tp1624
g571
s(Vrectangular_packing_box4
p1625
(g1601
(g157
S'\x93\xe3N\xe9`}\xfa?'
p1626
tp1627
Rp1628
g1601
(g157
S'\x0bDO\xca\xa4\xd6\x1f\xc0'
p1629
tp1630
Rp1631
g1601
(g157
S'\n\xa3Y\xd9>\x84\x18@'
p1632
tp1633
Rp1634
tp1635
tp1636
g567
s(Vrectangular_packing_box1
p1637
(g1601
(g157
S'\ndv\x16\xbdS\xd0?'
p1638
tp1639
Rp1640
g1601
(g157
S'\xdf\x18\x02\x80c\xbf\x1b\xc0'
p1641
tp1642
Rp1643
g1601
(g157
S'y]\xbf`7\x8c\x0e@'
p1644
tp1645
Rp1646
tp1647
tp1648
g579
s(Vsquare_packing_box4
p1649
(g1601
(g157
S';\xa9/K;5\xe4?'
p1650
tp1651
Rp1652
g1601
(g157
S'\xaf\xd2\xddu6\xd4\x1f\xc0'
p1653
tp1654
Rp1655
g1601
(g157
S'\x0b]\x89@\xf5/\x10@'
p1656
tp1657
Rp1658
tp1659
tp1660
g595
s(Vsquare_packing_box3
p1661
(g1601
(g157
S'M\xa1\xf3\x1a\xbb\xa4\x0c@'
p1662
tp1663
Rp1664
g1601
(g157
S'\xc2\xddY\xbb\xed"\x1a\xc0'
p1665
tp1666
Rp1667
g1601
(g157
S'\xbf~\x88\r\x16\xae\x01@'
p1668
tp1669
Rp1670
tp1671
tp1672
g587
s(Vsquare_packing_box1
p1673
(g1601
(g157
S'\xbb}V\x99)\xad\xeb?'
p1674
tp1675
Rp1676
g1601
(g157
S'\x0f\xf2z0)N\x17\xc0'
p1677
tp1678
Rp1679
g1601
(g157
S'\xae*\xfb\xae\x08\xfe\x01@'
p1680
tp1681
Rp1682
tp1683
tp1684
g591
s(Vsquare_packing_box2
p1685
(g1601
(g157
S"\x93\x1e\x86V'g\xfb?"
p1686
tp1687
Rp1688
g1601
(g157
S'e\xe1\xebk]\xda\x1d\xc0'
p1689
tp1690
Rp1691
g1601
(g157
S'\xe9\x9a\xc97\xdb\xfc\x0c@'
p1692
tp1693
Rp1694
tp1695
tp1696
g583
ssS'state_saver'
p1697
(igtamp_utils.utils
CustomStateSaver
p1698
(dp1699
S'robot_base_pose'
p1700
g22
(g23
(I0
tp1701
g25
tp1702
Rp1703
(I1
(I1
I3
tp1704
g157
I00
S'\x90#@NL\xef\x02@"g\xab\xa4\xe4\x98\x1b\xc0\xa7\xd9\xedX\xe4\xa4\x12@'
p1705
tp1706
bsS'held_object'
p1707
NsS'robot_name'
p1708
S'pr2'
p1709
sS'env_id'
p1710
I1
sg1525
(dp1711
Vright_wall_1
p1712
g22
(g23
(I0
tp1713
g25
tp1714
Rp1715
(I1
(I4
tp1716
g157
I00
S'H\xe1z\x14\xaeG\x12@&\\\x8f\xc2\xf5(\xd4\xbf\xcc\x7fH\xbf}\x1d\xed?\x00\x00\x00\x00\x00\x00\x00\x00'
p1717
tp1718
bsVc_obst5
p1719
g22
(g23
(I0
tp1720
g25
tp1721
Rp1722
(I1
(I4
tp1723
g157
I00
S"\xf4\xde\xfc\xa9\xbc\x10\x12@\x18\xfc\x0fT\xc6\xb1\xc4?e\xaa`TR'\xed?\xa0\x82\xb6V\xa4\xcb\xfc?"
p1724
tp1725
bsVentrance_right
p1726
g22
(g23
(I0
tp1727
g25
tp1728
Rp1729
(I1
(I4
tp1730
g157
I00
S'ffffff\n@H\xe1z\x14\xaeG\t\xc0\x9c\xc4 \xb0rh\xc1?\x00\x00\x00\x00\x00\x00\x00\x00'
p1731
tp1732
bsVcomputer_table
p1733
g22
(g23
(I0
tp1734
g25
tp1735
Rp1736
(I1
(I4
tp1737
g157
I00
S'\x00\x00\x00\x00\x00\x00\x13@\x00\x00\x00\x00\x00\x00\xf8\xbf\x96C\x8bl\xe7\xfb\xe7?\xd2!3\x7f|\xd9\x12@'
p1738
tp1739
bsVchair_6b56
p1740
g22
(g23
(I0
tp1741
g25
tp1742
Rp1743
(I1
(I4
tp1744
g157
I00
S'u=\n\xd7\xa3p\xf5?K\xe1z\x14\xaeG\xd1?\x00\x00\x00\x00\x00\x00\x00\x00\xd6$\xfaNBm\n@'
p1745
tp1746
bsVsquare_packing_box3
p1747
g22
(g23
(I0
tp1748
g25
tp1749
Rp1750
(I1
(I4
tp1751
g157
I00
S'\x9d\xd1\x9c\xf7\xba\xa4\x0c@L\x0f\xf2\xd7\xed"\x1a\xc0L7\x89A`\xe5\xd8?\xbb\xdeH\x0e\x16\xae\x01@'
p1752
tp1753
bsVsquare_packing_box2
p1754
g22
(g23
(I0
tp1755
g25
tp1756
Rp1757
(I1
(I4
tp1758
g157
I00
S"\xe7\xa9\x88~'g\xfb?\xda\xe9n{]\xda\x1d\xc0L7\x89A`\xe5\xd8?\xa8S\xa3\x00\xdb\xfc\x0c@"
p1759
tp1760
bsVtable
p1761
g22
(g23
(I0
tp1762
g25
tp1763
Rp1764
(I1
(I4
tp1765
g157
I00
S'\x7f\xf6#EdX\xed?\xac\xffs\x98//\xc0\xbf\x00\x00\x00\x00\x00\x00\x00\x00\x00\x00\x00\x00\x00\x00\x00\x00'
p1766
tp1767
bsVsquare_packing_box1
p1768
g22
(g23
(I0
tp1769
g25
tp1770
Rp1771
(I1
(I4
tp1772
g157
I00
S'L\xf33k)\xad\xeb?\xa8\x81\xdfQ)N\x17\xc0L7\x89A`\xe5\xd8?l|\xdf\x8a\x08\xfe\x01@'
p1773
tp1774
bsVback_wall_2
p1775
g22
(g23
(I0
tp1776
g25
tp1777
Rp1778
(I1
(I4
tp1779
g157
I00
S'\xaeG\xe1z\x14.\x13@\x80\x14\xaeG\xe1z\xc4?xX\xa85\xcd\xbb\xf2?\x00\x00\x00\x00\x00\x00\x00\x00'
p1780
tp1781
bsVchair_083c
p1782
g22
(g23
(I0
tp1783
g25
tp1784
Rp1785
(I1
(I4
tp1786
g157
I00
S'\xa4p=\n\xd7\xa3\xe0?333333\xe3\xbf\x00\x00\x00\x00\x00\x00\x00\x00\x00\x00\x00\x00\x00\x00\x00\x00'
p1787
tp1788
bsVback_wall_1
p1789
g22
(g23
(I0
tp1790
g25
tp1791
Rp1792
(I1
(I4
tp1793
g157
I00
S'\xaeG\xe1z\x14.\x13@\x80\x14\xaeG\xe1z\xc4?\xcc\x7fH\xbf}\x1d\xed?\x00\x00\x00\x00\x00\x00\x00\x00'
p1794
tp1795
bsVbottom_wall
p1796
g22
(g23
(I0
tp1797
g25
tp1798
Rp1799
(I1
(I4
tp1800
g157
I00
S'\x00\x00\x00\x00\x00\x00\xfc?\x00\x00\x00\x00\x00\x00\x00\x00\x00\x00\x00\x00\x00\x00\x00\x00\x00\x00\x00\x00\x00\x00\x00\x00'
p1801
tp1802
bsVcup_905a
p1803
g22
(g23
(I0
tp1804
g25
tp1805
Rp1806
(I1
(I4
tp1807
g157
I00
S'\x00\x00\x00\x00\x00\x00\xf0?\x83\xc0\xca\xa1E\xb6\xdb?\x1b/\xdd$\x06\x81\xed?\x00\x00\x00\x00\x00\x00\x00\x00'
p1808
tp1809
bsVplate_496f
p1810
g22
(g23
(I0
tp1811
g25
tp1812
Rp1813
(I1
(I4
tp1814
g157
I00
S"q=\n\xd7\xa3p\xe5?\x9dhW!\xe5'\xdd\xbf\x1b/\xdd$\x06\x81\xed?\x00\x00\x00\x00\x00\x00\x00\x00"
p1815
tp1816
bsVtoaster
p1817
g22
(g23
(I0
tp1818
g25
tp1819
Rp1820
(I1
(I4
tp1821
g157
I00
S')\\\x8f\xc2\xf5(\xf4\xbf\xe0z\x14\xaeG\xe1\xf2\xbf\xb8\x1e\x85\xebQ\xb8\xee?\x89/`\x9b\xf8\x8a\xe4?'
p1822
tp1823
bsVc_obst1
p1824
g22
(g23
(I0
tp1825
g25
tp1826
Rp1827
(I1
(I4
tp1828
g157
I00
S"`\xe4\x9eDR\x99\x12@Ps}j%)\xc2\xbfe\xaa`TR'\xed?\xf4\xff\xefK\xbf\xa3\r@"
p1829
tp1830
bsVrectangular_packing_box4
p1831
g22
(g23
(I0
tp1832
g25
tp1833
Rp1834
(I1
(I4
tp1835
g157
I00
S'\xaa\xadLna}\xfa?\xb8cW\xb3\xa4\xd6\x1f\xc0L7\x89A`\xe5\xd8?\xe95T\xdb>\x84\x18@'
p1836
tp1837
bsVmicrowave
p1838
g22
(g23
(I0
tp1839
g25
tp1840
Rp1841
(I1
(I4
tp1842
g157
I00
S'\x9a\x99\x99\x99\x99\x99\xf1\xbf\x00\x00\x00\x00\x00\x00\x00@7\x89A`\xe5\xd0\xee?\x00\x00\x00\x00\x00\x00\x00\x00'
p1843
tp1844
bsVc_obst7
p1845
g22
(g23
(I0
tp1846
g25
tp1847
Rp1848
(I1
(I4
tp1849
g157
I00
S"\xde\xa9\x88\xb0\x9ak\x12@ \x1e\xd0\xa8V\xd7\xbc?e\xaa`TR'\xed?4\xa6\xb7\x8a%<\x14@"
p1850
tp1851
bsVc_obst6
p1852
g22
(g23
(I0
tp1853
g25
tp1854
Rp1855
(I1
(I4
tp1856
g157
I00
S"\xe0'\xf8\xb2O>\x12@Dp\xc1dr\x1e\xb3?e\xaa`TR'\xed?gS\x93\xc9\xf4\xca\x15@"
p1857
tp1858
bsVcup_b6af
p1859
g22
(g23
(I0
tp1860
g25
tp1861
Rp1862
(I1
(I4
tp1863
g157
I00
S'R\xb8\x1e\x85\xebQ\xe8?\x9a\x99\x99\x99\x99\x99\xe1?\x1b/\xdd$\x06\x81\xed?\x00\x00\x00\x00\x00\x00\x00\x00'
p1864
tp1865
bsVc_obst4
p1866
g22
(g23
(I0
tp1867
g25
tp1868
Rp1869
(I1
(I4
tp1870
g157
I00
S"b\x0b\xa3}Z$\x12@\xd4\x86\xe1\x94b\xfa\xbd\xbfe\xaa`TR'\xed?\xb6\x99\xee\xbd\xeb\xbf\x11@"
p1871
tp1872
bsVrectangular_packing_box2
p1873
g22
(g23
(I0
tp1874
g25
tp1875
Rp1876
(I1
(I4
tp1877
g157
I00
S'\xb0\xb0\xe5\xc6\x00\xf2\xfc?\xc3\xda\xbf\x1e|)\x17\xc0L7\x89A`\xe5\xd8?+\x93\xd3\xbd\xdc\x0b\x03@'
p1878
tp1879
bsVplate_fa76
p1880
g22
(g23
(I0
tp1881
g25
tp1882
Rp1883
(I1
(I4
tp1884
g157
I00
S'=\n\xd7\xa3p=\xf2?\x00\x00\x00\x00\x00\x00\x00\x00\x1b/\xdd$\x06\x81\xed?\x00\x00\x00\x00\x00\x00\x00\x00'
p1885
tp1886
bsVfloorwalls
p1887
g22
(g23
(I0
tp1888
g25
tp1889
Rp1890
(I1
(I4
tp1891
g157
I00
S'\xc7\xcc\xcc\xcc\xcc\xcc\xfc?\x00\x00\x00\x00\x00\x00\x18\xc0H\xe1z\x14\xaeG\xc1?\x16-DT\xfb!\xf9?'
p1892
tp1893
bsVpin_c671
p1894
g22
(g23
(I0
tp1895
g25
tp1896
Rp1897
(I1
(I4
tp1898
g157
I00
S'\xc3\xf5(\\\x8f\xc2\xf1\xbf}?5^\xbaI\x02@\xb8\x1e\x85\xebQ\xb8\xfa?\x00\x00\x00\x00\x00\x00\x00\x00'
p1899
tp1900
bsVc_obst3
p1901
g22
(g23
(I0
tp1902
g25
tp1903
Rp1904
(I1
(I4
tp1905
g157
I00
S"^O\x04\xe7\xa1t\x12@\xc0\xc6|\x17\x1c*\xdf?e\xaa`TR'\xed?\x81\xb2R\x917$\x00@"
p1906
tp1907
bsVchair_2e39
p1908
g22
(g23
(I0
tp1909
g25
tp1910
Rp1911
(I1
(I4
tp1912
g157
I00
S'hfffff\xee?cfffff\xf2\xbf\x00\x00\x00\x00\x00\x00\x00\x00\x07M\xe8QQF\xf3?'
p1913
tp1914
bsVentrance_left
p1915
g22
(g23
(I0
tp1916
g25
tp1917
Rp1918
(I1
(I4
tp1919
g157
I00
S'\x98\x99\x99\x99\x99\x99\xe9\xbfH\xe1z\x14\xaeG\t\xc0\x9c\xc4 \xb0rh\xc1?\x00\x00\x00\x00\x00\x00\x00\x00'
p1920
tp1921
bsVtop_wall_1
p1922
g22
(g23
(I0
tp1923
g25
tp1924
Rp1925
(I1
(I4
tp1926
g157
I00
S'H\xe1z\x14\xaeG\x12@\x80\x14\xaeG\xe1z\xc4?xX\xa85\xcd\xbb\xf2?\x00\x00\x00\x00\x00\x00\x00\x00'
p1927
tp1928
bsVrectangular_packing_box3
p1929
g22
(g23
(I0
tp1930
g25
tp1931
Rp1932
(I1
(I4
tp1933
g157
I00
S'\x80\x8e\xdb\xc6\xa4z\t@u5v\xbf\xe5:\x1f\xc0L7\x89A`\xe5\xd8?z\x7fR\x17\x1a\x80\n@'
p1934
tp1935
bsVshaker
p1936
g22
(g23
(I0
tp1937
g25
tp1938
Rp1939
(I1
(I4
tp1940
g157
I00
S'\n\xd7\xa3p=\n\x01@\x14\xaeG\xe1z\x14\x02@\\\x8f\xc2\xf5(\\\xef?\x00\x00\x00\x00\x00\x00\x00\x00'
p1941
tp1942
bsVc_obst9
p1943
g22
(g23
(I0
tp1944
g25
tp1945
Rp1946
(I1
(I4
tp1947
g157
I00
S"\x97\x1e\xd8\x0c\x08\xf8\x11@\xdcu:_\xb3n\xc8\xbfe\xaa`TR'\xed?\r-\x06In\xcc\x11@"
p1948
tp1949
bsVplate_835a
p1950
g22
(g23
(I0
tp1951
g25
tp1952
Rp1953
(I1
(I4
tp1954
g157
I00
S'\xf6(\\\x8f\xc2\xf5\xf0?\\\x8f\xc2\xf5(\\\xe7\xbf\x1b/\xdd$\x06\x81\xed?\x00\x00\x00\x00\x00\x00\x00\x00'
p1955
tp1956
bsVcup_58a2
p1957
g22
(g23
(I0
tp1958
g25
tp1959
Rp1960
(I1
(I4
tp1961
g157
I00
S'\x85\xebQ\xb8\x1e\x85\xe3?\xcd\xcc\xcc\xcc\xcc\xcc\xdc?\x1b/\xdd$\x06\x81\xed?\x00\x00\x00\x00\x00\x00\x00\x00'
p1962
tp1963
bsVleft_wall_1
p1964
g22
(g23
(I0
tp1965
g25
tp1966
Rp1967
(I1
(I4
tp1968
g157
I00
S'H\xe1z\x14\xaeG\x12@S\xb8\x1e\x85\xebQ\xe4?\xcc\x7fH\xbf}\x1d\xed?\x00\x00\x00\x00\x00\x00\x00\x00'
p1969
tp1970
bsVc_obst2
p1971
g22
(g23
(I0
tp1972
g25
tp1973
Rp1974
(I1
(I4
tp1975
g157
I00
S"w\xef\xda\x9a=\x12\x12@\x0c\x96c\xc5N=\x9a\xbfe\xaa`TR'\xed?\xe4n\xce\xb22\xed\x13@"
p1976
tp1977
bsVsquare_packing_box4
p1978
g22
(g23
(I0
tp1979
g25
tp1980
Rp1981
(I1
(I4
tp1982
g157
I00
S'4\x1eFw;5\xe4?IO\xaeZ6\xd4\x1f\xc0L7\x89A`\xe5\xd8?\x1ak\xbdW\xf5/\x10@'
p1983
tp1984
bsVrectangular_packing_box1
p1985
g22
(g23
(I0
tp1986
g25
tp1987
Rp1988
(I1
(I4
tp1989
g157
I00
S'\x98A\x11\x11\xbdS\xd0?"\xfa\x91lc\xbf\x1b\xc0L7\x89A`\xe5\xd8?\xc2\xbd_h7\x8c\x0e@'
p1990
tp1991
bsVpin_371e
p1992
g22
(g23
(I0
tp1993
g25
tp1994
Rp1995
(I1
(I4
tp1996
g157
I00
S'333333\xf3\xbfffffff\xf6?\xb8\x1e\x85\xebQ\xb8\xee?\x00\x00\x00\x00\x00\x00\x00\x00'
p1997
tp1998
bsVfridge
p1999
g22
(g23
(I0
tp2000
g25
tp2001
Rp2002
(I1
(I4
tp2003
g157
I00
S'\xd7\xa3p=\n\xd7\xeb\xbf\x00\x00\x00\x00\x00\x00\x00\xc0\xcd\xcc\xcc\xcc\xcc\xcc\xf8?\x00\x00\x00\x00\x00\x00\x00\x00'
p2004
tp2005
bsVcup_d441
p2006
g22
(g23
(I0
tp2007
g25
tp2008
Rp2009
(I1
(I4
tp2010
g157
I00
S'\n\xd7\xa3p=\n\xef?\x8f\xc2\xf5(\\\x8f\xe2?\x1b/\xdd$\x06\x81\xed?\x00\x00\x00\x00\x00\x00\x00\x00'
p2011
tp2012
bsVshelf2
p2013
g22
(g23
(I0
tp2014
g25
tp2015
Rp2016
(I1
(I4
tp2017
g157
I00
S'\x00\x00\x00\x00\x00\x00\x0e@\xaeG\xe1z\x14\xae\x07@\x9c\xc4 \xb0rh\xc1?\xd2!3\x7f|\xd9\x12@'
p2018
tp2019
bsVtop_wall_2
p2020
g22
(g23
(I0
tp2021
g25
tp2022
Rp2023
(I1
(I4
tp2024
g157
I00
S'H\xe1z\x14\xaeG\x12@\x80\x14\xaeG\xe1z\xc4?\x16HP\xfc\x18\xf3\xfd?\x00\x00\x00\x00\x00\x00\x00\x00'
p2025
tp2026
bsVc_obst0
p2027
g22
(g23
(I0
tp2028
g25
tp2029
Rp2030
(I1
(I4
tp2031
g157
I00
S"F\xc7\xd7\x92k\x9d\x12@t\x94}\xb8\xb6\xaa\xd0?e\xaa`TR'\xed?\xe0Q\x0e\x1b\t\xf7\xf2?"
p2032
tp2033
bsVshelf1
p2034
g22
(g23
(I0
tp2035
g25
tp2036
Rp2037
(I1
(I4
tp2038
g157
I00
S'\x00\x00\x00\x00\x00\x00\x13@\xaeG\xe1z\x14\xae\x07@\x9c\xc4 \xb0rh\xc1?\xd2!3\x7f|\xd9\x12@'
p2039
tp2040
bsVsink
p2041
g22
(g23
(I0
tp2042
g25
tp2043
Rp2044
(I1
(I4
tp2045
g157
I00
S'ffffff\xd6?333333\x01@\x9a\x99\x99\x99\x99\x99\xb9\xbf\x00\x00\x00\x00\x00\x00\x00\x00'
p2046
tp2047
bsVpr2
p2048
g22
(g23
(I0
tp2049
g25
tp2050
Rp2051
(I1
(I4
tp2052
g157
I00
S'\x89#@NL\xef\x02@$g\xab\xa4\xe4\x98\x1b\xc0\x9a_\x94\xa0\xbf\xd0\xc1?\xa7\xd9\xedX\xe4\xa4\x12@'
p2053
tp2054
bsVchair_12d0
p2055
g22
(g23
(I0
tp2056
g25
tp2057
Rp2058
(I1
(I4
tp2059
g157
I00
S'\\\xd2\x18\xad\xa3\xaa\xdb?Of\x83L2r\xc6?\x00\x00\x00\x00\x00\x00\x00\x00\xf8\x81\r\x14M\xa6\x17@'
p2060
tp2061
bsVright_wall_2
p2062
g22
(g23
(I0
tp2063
g25
tp2064
Rp2065
(I1
(I4
tp2066
g157
I00
S'H\xe1z\x14\xaeG\x12@&\\\x8f\xc2\xf5(\xd4\xbfxX\xa85\xcd\xbb\xf2?\x00\x00\x00\x00\x00\x00\x00\x00'
p2067
tp2068
bsVknife_block
p2069
g22
(g23
(I0
tp2070
g25
tp2071
Rp2072
(I1
(I4
tp2073
g157
I00
S'R\xb8\x1e\x85\xebQ\xe0\xbfffffff\x02@`\xe5\xd0"\xdb\xf9\xee?\x00\x00\x00\x00\x00\x00\x00\x00'
p2074
tp2075
bsVleft_wall_2
p2076
g22
(g23
(I0
tp2077
g25
tp2078
Rp2079
(I1
(I4
tp2080
g157
I00
S'H\xe1z\x14\xaeG\x12@S\xb8\x1e\x85\xebQ\xe4?xX\xa85\xcd\xbb\xf2?\x00\x00\x00\x00\x00\x00\x00\x00'
p2081
tp2082
bsVleft_wall
p2083
g22
(g23
(I0
tp2084
g25
tp2085
Rp2086
(I1
(I4
tp2087
g157
I00
S'\x9a\x99\x99\x99\x99\x99\x07@H\xe1z\x14\xaeG\xff?\x9c\xc4 \xb0rh\xc1?\x00\x00\x00\x00\x00\x00\x00\x00'
p2088
tp2089
bsVkitchen
p2090
g22
(g23
(I0
tp2091
g25
tp2092
Rp2093
(I1
(I4
tp2094
g157
I00
S'\x00\x00\x00\x00\x00\x00\x00\x00\x00\x00\x00\x00\x00\x00\x00\x00\x00\x00\x00\x00\x00\x00\x00\x00\x00\x00\x00\x00\x00\x00\x00\x00'
p2095
tp2096
bsVtable2
p2097
g22
(g23
(I0
tp2098
g25
tp2099
Rp2100
(I1
(I4
tp2101
g157
I00
S'\x00\x00\x00\x00\x00\x00\x13@\x80\x14\xaeG\xe1z\xc4?S\x96!\x8euq\xec?\xd2!3\x7f|\xd9\x12@'
p2102
tp2103
bsVc_obst8
p2104
g22
(g23
(I0
tp2105
g25
tp2106
Rp2107
(I1
(I4
tp2108
g157
I00
S">;\xa1H\xccO\x12@8\xeb\xfa\xa9\xcd\x01\xda?e\xaa`TR'\xed?\x11\xc0\x00$\nK\x03@"
p2109
tp2110
bsVplate_b4e7
p2111
g22
(g23
(I0
tp2112
g25
tp2113
Rp2114
(I1
(I4
tp2115
g157
I00
S'\x14\xaeG\xe1z\x14\xf2\xbf\x14\xaeG\xe1z\x14\x00@=\n\xd7\xa3p=\xf2?\x00\x00\x00\x00\x00\x00\x00\x00'
p2116
tp2117
bsVcooker
p2118
g22
(g23
(I0
tp2119
g25
tp2120
Rp2121
(I1
(I4
tp2122
g157
I00
S'\xaeG\xe1z\x14\xae\xff?\x85\xebQ\xb8\x1e\x85\xfb?\x00\x00\x00\x00\x00\x00\xe8?\x00\x00\x00\x00\x00\x00\x00\x00'
p2123
tp2124
bsVpin_a091
p2125
g22
(g23
(I0
tp2126
g25
tp2127
Rp2128
(I1
(I4
tp2129
g157
I00
S'\xdb\xf9~j\xbct\xf7\xbf)\\\x8f\xc2\xf5(\x02@\xb8\x1e\x85\xebQ\xb8\xfa?\x00\x00\x00\x00\x00\x00\x00\x00'
p2130
tp2131
bsVside_wall_2
p2132
g22
(g23
(I0
tp2133
g25
tp2134
Rp2135
(I1
(I4
tp2136
g157
I00
S'\xfa\xff\xff\xff\xff\xff\x14@\x00\x00\x00\x00\x00\x00\x00\x00\x9c\xc4 \xb0rh\xc1?\x18-DT\xfb!\xf9?'
p2137
tp2138
bsVside_wall_3
p2139
g22
(g23
(I0
tp2140
g25
tp2141
Rp2142
(I1
(I4
tp2143
g157
I00
S'\x00\x00\x00\x00\x00\x00\xfc?H\xe1z\x14\xaeG\t@\x9c\xc4 \xb0rh\xc1?\x00\x00\x00\x00\x00\x00\x00\x00'
p2144
tp2145
bsVmixer
p2146
g22
(g23
(I0
tp2147
g25
tp2148
Rp2149
(I1
(I4
tp2150
g157
I00
S'\n\xd7\xa3p=\n\xfb?ffffff\x02@d;\xdfO\x8d\x97\xee?\x00\x00\x00\x00\x00\x00\x00\x00'
p2151
tp2152
bsVside_wall_1
p2153
g22
(g23
(I0
tp2154
g25
tp2155
Rp2156
(I1
(I4
tp2157
g157
I00
S'\xf4\xff\xff\xff\xff\xff\xfb\xbf\x00\x00\x00\x00\x00\x00\x00\x00\x9c\xc4 \xb0rh\xc1?\x18-DT\xfb!\xf9?'
p2158
tp2159
bsVbottom_wall_1
p2160
g22
(g23
(I0
tp2161
g25
tp2162
Rp2163
(I1
(I4
tp2164
g157
I00
S'H\xe1z\x14\xaeG\x12@\x80\x14\xaeG\xe1z\xc4?\xcc\x7fH\xbf}\x1d\xed?\x00\x00\x00\x00\x00\x00\x00\x00'
p2165
tp2166
bsVcan
p2167
g22
(g23
(I0
tp2168
g25
tp2169
Rp2170
(I1
(I4
tp2171
g157
I00
S'\x00\x00\x00\x00\x00\x00\xf4\xbfH\xe1z\x14\xaeG\xe1\xbf\n\xd7\xa3p=\n\xef?\x00\x00\x00\x00\x00\x00\x00\x00'
p2172
tp2173
bsVright_wall
p2174
g22
(g23
(I0
tp2175
g25
tp2176
Rp2177
(I1
(I4
tp2178
g157
I00
S'\x9a\x99\x99\x99\x99\x99\x07@H\xe1z\x14\xaeG\xff\xbf\x9c\xc4 \xb0rh\xc1?\x00\x00\x00\x00\x00\x00\x00\x00'
p2179
tp2180
bsVcoffe_machine
p2181
g22
(g23
(I0
tp2182
g25
tp2183
Rp2184
(I1
(I4
tp2185
g157
I00
S'\\\x8f\xc2\xf5(\\\xf5\xbf\xb8\x1e\x85\xebQ\xb8\xee?\n\xd7\xa3p=\n\xef?\x00\x00\x00\x00\x00\x00\x00\x00'
p2186
tp2187
bsVcomputer_chair
p2188
g22
(g23
(I0
tp2189
g25
tp2190
Rp2191
(I1
(I4
tp2192
g157
I00
S'\xcd\xcc\xcc\xcc\xcc\xcc\x10@\x00\x00\x00\x00\x00\x00\xf8\xbf\xa00\xb6\x10\xe4\xa9\x95\xbf\x00\x00\x00\x00\x00\x00\x00\x00'
p2193
tp2194
bssS'robot_dof_values'
p2195
g22
(g23
(I0
tp2196
g25
tp2197
Rp2198
(I1
(I39
tp2199
g157
I00
S'\x00\x00\x00\x00\x00\x00\x00\x00\x00\x00\x00\x00\x00\x00\x00\x00\x00\x00\x00\x00\x00\x00\x00\x00\x00\x00\x00\x00\x00\x00\x00\x00\x00\x00\x00\x00\x00\x00\x00\x00\x00\x00\x00\x00\x00\x00\x00\x00\x00\x00\x00\x00\x00\x00\x00\x00\x00\x00\x00\x00\x00\x00\x00\x00\x00\x00\x00\x00\x00\x00\x00\x00\x00\x00\x00\x00\x00\x00\x00\x00\x00\x00\x00\x00\x00\x00\x00\x00\x00\x00\x00\x00\x00\x00\x00\x00@d;\xdfO\x8d\x87?\x00\x00\x00\x00\x00\x00\x00\x00\x00\x00\x00\x00\x00\x00\x00\x00\x00\x00\x00\x00\x00\x00\x00\x00\xeb\xed\t\xf1\xcc\xa4\xf4?\x00\x00\x00\x00\x00\x00\xc0\xbcM"\xd0^p\xf8\x00\xc0\x00\x00\x00\x00\x00\x00\x00\x00\x9a\x03\r.\x04V\xe6\xbf\x00\x00\x00\x00\x00\x00\x00\x00\x00\x00\x00\x00\x00\x00\x00\x00\x00\x00\x00\x00\x00\x80\xdc<\x00\x00\x00\x00\x00\x00\x00\x00\x00\x00\x00\x00\x00\x00\xe0\xbc\x00\x00\x00\x00\x00\x00\x00\x00\x00\x00\x00\x00\x00\x00\x00\x00\xe8\xed\t\xf1\xcc\xa4\xf4?\x00\x00\x00\x00\x00\x00\x00\x00M"\xd0^p\xf8\x00\xc0ST\xaf\x99\x8a\xcc\xa3<\x9b\x03\r.\x04V\xe6\xbf\x00\x00\x00\x00\x00\x00\x00\x00\xcd9\xe3\xc17\x89\xe1?\x00\x00\x00\x00\x00\x00\xc9<\x00\x00\x00\x00\x00\x00\x00\x00\x00\x00\x00\x00\x00\x00\xc0<\x00\x00\x00\x00\x00\x00\x00\x00'
p2200
tp2201
bsS'is_holding'
p2202
I00
sbsS'holding_collides'
p2203
NsS'parent_ternary_predicates'
p2204
(dp2205
sS'cached_place_paths'
p2206
(dp2207
(g732
g1029
tp2208
(lp2209
g22
(g23
(I0
tp2210
g25
tp2211
Rp2212
(I1
(I3
tp2213
g157
I00
S'\x04\x02,\x89\x01\x84\xad\xbf\xc1\xd8\xbd\x11\x8c\xf7\x18\xc0<\xb9\xf4q\xf2\xe3\x13@'
p2214
tp2215
bas(g904
g148
tp2216
g223
s(g598
g148
tp2217
g280
s(g560
g1029
tp2218
(lp2219
g22
(g23
(I0
tp2220
g25
tp2221
Rp2222
(I1
(I3
tp2223
g157
I00
S'L\xa4\tM\xd7\xbf\x07@h\xde\xd3\xd4\x81\xa1\x18\xc0\xa2\xce`\xb8\xb6\xe1\x15@'
p2224
tp2225
bas(g598
g1029
tp2226
(lp2227
g22
(g23
(I0
tp2228
g25
tp2229
Rp2230
(I1
(I3
tp2231
g157
I00
S'"\xe3\xec\xc9\xf5k\xfb?b\x9b\xa3\x1d \xc0\x1c\xc0\xbe\xcc\xca\x82\xea\xea\x13@'
p2232
tp2233
bas(g560
g148
tp2234
g427
s(g559
g1029
tp2235
(lp2236
g22
(g23
(I0
tp2237
g25
tp2238
Rp2239
(I1
(I3
tp2240
g157
I00
S'\xe3\xd7\x90D\xb5i\xf4?\t\x05%b\t(\x1b\xc0\xdfG7\xd3\xf4~\x15@'
p2241
tp2242
bas(g559
g148
tp2243
g376
s(g12
g148
tp2244
g331
s(g558
g148
tp2245
g150
s(g558
g1029
tp2246
(lp2247
g22
(g23
(I0
tp2248
g25
tp2249
Rp2250
(I1
(I3
tp2251
g157
I00
S'\xd2Cv\xcbtO\x08@v%1\x9d\xffA\x1c\xc0l\xb3{\xb2p\xbe\x11@'
p2252
tp2253
bas(g904
g1029
tp2254
(lp2255
g22
(g23
(I0
tp2256
g25
tp2257
Rp2258
(I1
(I3
tp2259
g157
I00
S'\xfb\xbb\x11\x98\x90\xbf\x90?&&\x89\xe3(\xd9\x1e\xc03\xa7}d\xd0k\x17@'
p2260
tp2261
bas(g12
g1029
tp2262
(lp2263
g22
(g23
(I0
tp2264
g25
tp2265
Rp2266
(I1
(I3
tp2267
g157
I00
S'>\x88\xf6\xd17Y\xf1?\xe2\xfb\xac\xc3\\\xae\x19\xc0>#\xc4\x1fP\xee\xff?'
p2268
tp2269
bas(g557
g1029
tp2270
(lp2271
g22
(g23
(I0
tp2272
g25
tp2273
Rp2274
(I1
(I3
tp2275
g157
I00
S'\x97oK0\xce\x9b\xf3?\xb4}J\x01\x06\xc4\x18\xc0\xb6\xd8\xdc\x98%\x83\xd4?'
p2276
tp2277
bas(g557
g148
tp2278
g484
s(g732
g148
tp2279
(lp2280
g22
(g23
(I0
tp2281
g25
tp2282
Rp2283
(I1
(I3
tp2284
g157
I00
S'\x80\x02,\x89\x01\x84\xad\xbf\xbf\xd8\xbd\x11\x8c\xf7\x18\xc0<\xb9\xf4q\xf2\xe3\x13@'
p2285
tp2286
bag22
(g23
(I0
tp2287
g25
tp2288
Rp2289
(I1
(I3
tp2290
g168
I00
S'\xff\x1dX8\xbe\xd2\xc9?\x91h\xd1{\x1e(\x16\xc0\xee\xfeSI\xc3\xd4\x03\xc0'
p2291
tp2292
bag22
(g23
(I0
tp2293
g25
tp2294
Rp2295
(I1
(I3
tp2296
g168
I00
S"\xb2&6mg)\xe8?\x99\xe0G'\x16\xe0\x13\xc0\xc8oL\xf5\x17p\xe6\xbf"
p2297
tp2298
bag22
(g23
(I0
tp2299
g25
tp2300
Rp2301
(I1
(I3
tp2302
g168
I00
S'`\xc8Aw-\x81\xeb?/\xc3\xe6O\x04\xca\x10\xc0\x8a\xb7K)\x91{\xe4\xbf'
p2303
tp2304
bag22
(g23
(I0
tp2305
g25
tp2306
Rp2307
(I1
(I3
tp2308
g168
I00
S'\xe1\xc6\xc7\xa7\x12X\xe7?\x98\x99\xb0\x9a\xfb\xdb\x0b\xc0R\t\x1b)\xeae\xe0\xbf'
p2309
tp2310
bag22
(g23
(I0
tp2311
g25
tp2312
Rp2313
(I1
(I3
tp2314
g168
I00
S'p\xf1\xbdc^\x84\xf1?"\x88LL\xf9D\x06\xc0~w\r\xe9m\x0f\x19@'
p2315
tp2316
bassS'parent_binary_predicates'
p2317
(dp2318
sS'nodes'
p2319
(dp2320
g1032
(lp2321
I0
aI0
aI0
aI0
aI0
aI0
aI00
aI01
aI00
aI01
aI00
asg1029
(lp2322
I0
aI0
aI0
aI0
aI0
aI0
aI00
aI01
aI00
aI01
aI00
asg148
(lp2323
I0
aI0
aI0
aI0
aI0
aI0
aI00
aI01
aI01
aI01
aI00
asg278
(lp2324
I0
aI0
aI0
ag1601
(g157
S'\xa1\xadLna}\xfa?'
p2325
tp2326
Rp2327
ag1601
(g157
S'zcW\xb3\xa4\xd6\x1f\xc0'
p2328
tp2329
Rp2330
ag1601
(g157
S'\xe95T\xdb>\x84\x18@'
p2331
tp2332
Rp2333
aI01
aI00
aI00
aI00
aI00
asg482
(lp2334
I0
aI0
aI0
ag1601
(g157
S'H\xae\xe5\xc6\x00\xf2\xfc?'
p2335
tp2336
Rp2337
ag1601
(g157
S'0\xdb\xbf\x1e|)\x17\xc0'
p2338
tp2339
Rp2340
ag1601
(g157
S')\x93\xd3\xbd\xdc\x0b\x03@'
p2341
tp2342
Rp2343
aI01
aI00
aI00
aI01
aI00
asg147
(lp2344
I0
aI0
aI0
ag1601
(g157
S'\xb0\x8d\xdb\xc6\xa4z\t@'
p2345
tp2346
Rp2347
ag1601
(g157
S'\xc24v\xbf\xe5:\x1f\xc0'
p2348
tp2349
Rp2350
ag1601
(g157
S'z\x7fR\x17\x1a\x80\n@'
p2351
tp2352
Rp2353
aI01
aI00
aI00
aI01
aI00
asg988
(lp2354
I0
aI0
aI0
ag1601
(g157
S'\xa6B\x11\x11\xbdS\xd0?'
p2355
tp2356
Rp2357
ag1601
(g157
S'\xe0\xf9\x91lc\xbf\x1b\xc0'
p2358
tp2359
Rp2360
ag1601
(g157
S'\xc2\xbd_h7\x8c\x0e@'
p2361
tp2362
Rp2363
aI01
aI00
aI00
aI00
aI00
asg374
(lp2364
I0
aI0
aI0
ag1601
(g157
S"\x11\xa7\x88~'g\xfb?"
p2365
tp2366
Rp2367
ag1601
(g157
S'\xaa\xe6n{]\xda\x1d\xc0'
p2368
tp2369
Rp2370
ag1601
(g157
S'\xa8S\xa3\x00\xdb\xfc\x0c@'
p2371
tp2372
Rp2373
aI01
aI00
aI00
aI01
aI00
asg425
(lp2374
I0
aI0
aI0
ag1601
(g157
S'\xef\xd1\x9c\xf7\xba\xa4\x0c@'
p2375
tp2376
Rp2377
ag1601
(g157
S'\xf5\x0e\xf2\xd7\xed"\x1a\xc0'
p2378
tp2379
Rp2380
ag1601
(g157
S'\xbc\xdeH\x0e\x16\xae\x01@'
p2381
tp2382
Rp2383
aI01
aI00
aI00
aI01
aI00
asg329
(lp2384
I0
aI0
aI0
ag1601
(g157
S'L\xf33k)\xad\xeb?'
p2385
tp2386
Rp2387
ag1601
(g157
S'\x9f\x81\xdfQ)N\x17\xc0'
p2388
tp2389
Rp2390
ag1601
(g157
S'l|\xdf\x8a\x08\xfe\x01@'
p2391
tp2392
Rp2393
aI01
aI00
aI01
aI01
aI00
asg221
(lp2394
I0
aI0
aI0
ag1601
(g157
S'\xc6\x0cFw;5\xe4?'
p2395
tp2396
Rp2397
ag1601
(g157
S'\x1cL\xaeZ6\xd4\x1f\xc0'
p2398
tp2399
Rp2400
ag1601
(g157
S'\x1ak\xbdW\xf5/\x10@'
p2401
tp2402
Rp2403
aI01
aI00
aI00
aI00
aI00
assS'mc_place_path'
p2404
(dp2405
sS'parent_state'
p2406
NsS'goal_entities'
p2407
(lp2408
S'square_packing_box1'
p2409
ag148
asS'binary_edges'
p2410
(dp2411
(g374
g221
tp2412
(lp2413
I00
aI00
aI00
as(g374
g278
tp2414
(lp2415
I00
aI01
aI00
as(g147
g425
tp2416
(lp2417
I00
aI00
aI00
as(g147
g147
tp2418
(lp2419
I00
aI00
aI00
as(g482
g425
tp2420
(lp2421
I00
aI00
aI00
as(g482
g147
tp2422
(lp2423
I00
aI00
aI00
as(g221
g482
tp2424
(lp2425
I00
aI00
aI00
as(g374
g329
tp2426
(lp2427
I00
aI00
aI00
as(g988
g147
tp2428
(lp2429
I00
aI00
aI00
as(g278
g278
tp2430
(lp2431
I00
aI00
aI00
as(g482
g1029
tp2432
(lp2433
g1601
(g29
(S'b1'
p2434
I0
I1
tp2435
Rp2436
(I3
S'|'
p2437
NNNI-1
I-1
I0
tp2438
bS'\x01'
p2439
tp2440
Rp2441
aI00
aI01
as(g1032
g1029
tp2442
(lp2443
I00
aI00
aI00
as(g278
g221
tp2444
(lp2445
I00
aI00
aI00
as(g1029
g221
tp2446
(lp2447
I00
aI00
aI00
as(g329
g148
tp2448
(lp2449
I00
aI00
aI00
as(g1032
g482
tp2450
(lp2451
I00
aI00
aI00
as(g482
g221
tp2452
(lp2453
I00
aI00
aI00
as(g147
g1032
tp2454
(lp2455
g2441
aI00
aI00
as(g374
g374
tp2456
(lp2457
I00
aI00
aI00
as(g1029
g374
tp2458
(lp2459
I00
aI00
aI00
as(g425
g482
tp2460
(lp2461
I00
aI00
aI00
as(g482
g148
tp2462
(lp2463
I00
aI00
aI00
as(g988
g425
tp2464
(lp2465
I00
aI00
aI00
as(g278
g988
tp2466
(lp2467
I00
aI01
aI00
as(g329
g329
tp2468
(lp2469
I00
aI00
aI00
as(g482
g1032
tp2470
(lp2471
g2441
aI00
aI00
as(g1029
g482
tp2472
(lp2473
I00
aI00
aI00
as(g1029
g425
tp2474
(lp2475
I00
aI00
aI00
as(g1029
g147
tp2476
(lp2477
I00
aI00
aI00
as(g425
g148
tp2478
(lp2479
I00
aI00
aI00
as(g221
g278
tp2480
(lp2481
I00
aI00
aI00
as(g988
g278
tp2482
(lp2483
I00
aI00
aI00
as(g425
g988
tp2484
(lp2485
I00
aI00
aI00
as(g1029
g278
tp2486
(lp2487
I00
aI00
aI00
as(g1032
g148
tp2488
(lp2489
I00
aI00
aI00
as(g329
g482
tp2490
(lp2491
I00
aI00
aI00
as(g278
g425
tp2492
(lp2493
I00
aI00
aI00
as(g1032
g425
tp2494
(lp2495
I00
aI00
aI00
as(g425
g1032
tp2496
(lp2497
g2441
aI00
aI00
as(g147
g374
tp2498
(lp2499
I00
aI00
aI00
as(g221
g329
tp2500
(lp2501
I00
aI00
aI00
as(g147
g482
tp2502
(lp2503
I00
aI00
aI00
as(g221
g148
tp2504
(lp2505
I00
aI00
aI00
as(g1032
g1032
tp2506
(lp2507
I00
aI00
aI00
as(g425
g278
tp2508
(lp2509
I00
aI00
aI00
as(g329
g374
tp2510
(lp2511
I00
aI00
aI00
as(g148
g329
tp2512
(lp2513
I00
aI00
aI00
as(g988
g1029
tp2514
(lp2515
g2441
aI00
aI01
as(g148
g988
tp2516
(lp2517
I00
aI00
aI00
as(g221
g147
tp2518
(lp2519
I00
aI00
aI00
as(g147
g329
tp2520
(lp2521
I00
aI00
aI00
as(g425
g1029
tp2522
(lp2523
g2441
aI00
aI01
as(g147
g988
tp2524
(lp2525
I00
aI00
aI00
as(g425
g425
tp2526
(lp2527
I00
aI00
aI00
as(g988
g482
tp2528
(lp2529
I00
aI00
aI00
as(g1029
g148
tp2530
(lp2531
I00
aI00
aI00
as(g148
g374
tp2532
(lp2533
I00
aI00
aI00
as(g278
g148
tp2534
(lp2535
I00
aI00
aI00
as(g1032
g988
tp2536
(lp2537
I00
aI00
aI00
as(g148
g221
tp2538
(lp2539
I00
aI00
aI00
as(g147
g221
tp2540
(lp2541
I00
aI00
aI00
as(g988
g1032
tp2542
(lp2543
g2441
aI00
aI00
as(g221
g1029
tp2544
(lp2545
g2441
aI00
aI01
as(g988
g374
tp2546
(lp2547
I00
aI00
aI00
as(g278
g482
tp2548
(lp2549
I00
aI00
aI00
as(g278
g1029
tp2550
(lp2551
g2441
aI00
aI01
as(g148
g147
tp2552
(lp2553
I00
aI00
aI00
as(g1032
g221
tp2554
(lp2555
I00
aI00
aI00
as(g1032
g278
tp2556
(lp2557
I00
aI00
aI00
as(g988
g148
tp2558
(lp2559
I00
aI00
aI01
as(g374
g988
tp2560
(lp2561
I00
aI01
aI00
as(g329
g988
tp2562
(lp2563
I00
aI00
aI00
as(g148
g425
tp2564
(lp2565
I00
aI00
aI00
as(g1029
g1029
tp2566
(lp2567
I00
aI00
aI00
as(g374
g147
tp2568
(lp2569
I00
aI00
aI00
as(g329
g425
tp2570
(lp2571
I00
aI00
aI00
as(g1029
g329
tp2572
(lp2573
I00
aI00
aI00
as(g482
g278
tp2574
(lp2575
I00
aI00
aI00
as(g1029
g988
tp2576
(lp2577
I00
aI00
aI00
as(g329
g1032
tp2578
(lp2579
g2441
aI00
aI00
as(g374
g482
tp2580
(lp2581
I00
aI00
aI00
as(g147
g148
tp2582
(lp2583
I00
aI00
aI00
as(g329
g278
tp2584
(lp2585
I00
aI00
aI00
as(g278
g329
tp2586
(lp2587
I00
aI00
aI00
as(g482
g329
tp2588
(lp2589
I00
aI00
aI00
as(g1032
g374
tp2590
(lp2591
I00
aI00
aI00
as(g482
g988
tp2592
(lp2593
I00
aI00
aI00
as(g425
g374
tp2594
(lp2595
I00
aI00
aI00
as(g374
g1029
tp2596
(lp2597
g2441
aI00
aI01
as(g988
g988
tp2598
(lp2599
I00
aI00
aI00
as(g221
g374
tp2600
(lp2601
I00
aI00
aI00
as(g329
g221
tp2602
(lp2603
I00
aI00
aI00
as(g482
g374
tp2604
(lp2605
I00
aI00
aI00
as(g482
g482
tp2606
(lp2607
I00
aI00
aI00
as(g221
g988
tp2608
(lp2609
I00
aI01
aI00
as(g374
g148
tp2610
(lp2611
I00
aI00
aI00
as(g425
g329
tp2612
(lp2613
I00
aI00
aI00
as(g147
g1029
tp2614
(lp2615
g2441
aI00
aI01
as(g148
g482
tp2616
(lp2617
I00
aI00
aI00
as(g988
g329
tp2618
(lp2619
I00
aI00
aI00
as(g278
g147
tp2620
(lp2621
I00
aI00
aI00
as(g148
g1029
tp2622
(lp2623
I00
aI00
aI00
as(g374
g425
tp2624
(lp2625
I00
aI00
aI00
as(g1032
g147
tp2626
(lp2627
I00
aI00
aI00
as(g374
g1032
tp2628
(lp2629
g2441
aI00
aI00
as(g425
g147
tp2630
(lp2631
I00
aI00
aI00
as(g148
g148
tp2632
(lp2633
I00
aI00
aI00
as(g988
g221
tp2634
(lp2635
I00
aI01
aI00
as(g278
g1032
tp2636
(lp2637
g2441
aI00
aI00
as(g221
g1032
tp2638
(lp2639
g2441
aI00
aI00
as(g148
g1032
tp2640
(lp2641
I00
aI00
aI00
as(g148
g278
tp2642
(lp2643
I00
aI00
aI00
as(g425
g221
tp2644
(lp2645
I00
aI00
aI00
as(g221
g425
tp2646
(lp2647
I00
aI00
aI00
as(g147
g278
tp2648
(lp2649
I00
aI00
aI00
as(g1029
g1032
tp2650
(lp2651
I00
aI00
aI00
as(g329
g147
tp2652
(lp2653
I00
aI00
aI00
as(g278
g374
tp2654
(lp2655
I00
aI00
aI00
as(g221
g221
tp2656
(lp2657
I00
aI00
aI00
as(g329
g1029
tp2658
(lp2659
g2441
aI00
aI01
as(g1032
g329
tp2660
(lp2661
I00
aI00
aI00
assg555
g556
sS'pick_in_way'
p2662
(itrajectory_representation.predicates.pick_in_way
PickInWay
p2663
(dp2664
g145
(dp2665
g278
g633
sg482
g676
sg147
g725
sg988
g757
sg374
g800
sg425
g855
sg329
g885
sg221
g935
ssg527
(dp2666
g278
(lp2667
Vsquare_packing_box2
p2668
asg482
(lp2669
sg147
(lp2670
sg988
(lp2671
Vsquare_packing_box2
p2672
aVrectangular_packing_box4
p2673
aVsquare_packing_box4
p2674
asg374
(lp2675
sg425
(lp2676
sg329
(lp2677
sg221
(lp2678
Vrectangular_packing_box1
p2679
assg555
(lp2680
g374
ag482
ag425
ag147
ag1032
ag148
ag1029
ag329
ag1032
ag148
ag1029
ag1032
ag148
ag1029
ag1032
ag148
ag1029
ag1032
ag148
ag1029
ag1032
ag148
ag1029
ag1032
ag148
ag1029
ag1032
ag148
ag1029
asg561
g562
sg78
(dp2681
sg596
g597
sg962
Nsg969
g597
sg966
(dp2682
sg968
I8
sg1024
I01
sg970
Nsg971
(dp2683
(g374
g221
tp2684
I00
s(g374
g278
tp2685
I01
s(g147
g425
tp2686
I00
s(g147
g147
tp2687
I00
s(g482
g425
tp2688
I00
s(g482
g147
tp2689
I00
s(g221
g482
tp2690
I00
s(g374
g329
tp2691
I00
s(g988
g147
tp2692
I00
s(g278
g278
tp2693
I00
s(g482
g1029
tp2694
I00
s(g1032
g1029
tp2695
I00
s(g278
g221
tp2696
I00
s(g1029
g221
tp2697
I00
s(g329
g148
tp2698
I00
s(g1032
g482
tp2699
I00
s(g482
g221
tp2700
I00
s(g147
g1032
tp2701
I00
s(g374
g374
tp2702
I00
s(g1029
g374
tp2703
I00
s(g425
g482
tp2704
I00
s(g482
g148
tp2705
I00
s(g988
g425
tp2706
I00
s(g278
g988
tp2707
I01
s(g329
g329
tp2708
I00
s(g482
g1032
tp2709
I00
s(g1029
g482
tp2710
I00
s(g1029
g425
tp2711
I00
s(g1029
g147
tp2712
I00
s(g425
g148
tp2713
I00
s(g221
g278
tp2714
I00
s(g988
g278
tp2715
I00
s(g425
g988
tp2716
I00
s(g1029
g278
tp2717
I00
s(g1032
g148
tp2718
I00
s(g329
g482
tp2719
I00
s(g278
g425
tp2720
I00
s(g1032
g425
tp2721
I00
s(g425
g1032
tp2722
I00
s(g147
g374
tp2723
I00
s(g221
g329
tp2724
I00
s(g147
g482
tp2725
I00
s(g221
g148
tp2726
I00
s(g1032
g1032
tp2727
I00
s(g425
g278
tp2728
I00
s(g329
g374
tp2729
I00
s(g148
g329
tp2730
I00
s(g988
g1029
tp2731
I00
s(g148
g988
tp2732
I00
s(g221
g147
tp2733
I00
s(g147
g329
tp2734
I00
s(g425
g1029
tp2735
I00
s(g147
g988
tp2736
I00
s(g425
g425
tp2737
I00
s(g988
g482
tp2738
I00
s(g1029
g148
tp2739
I00
s(g148
g374
tp2740
I00
s(g278
g148
tp2741
I00
s(g1032
g988
tp2742
I00
s(g148
g221
tp2743
I00
s(g147
g221
tp2744
I00
s(g988
g1032
tp2745
I00
s(g221
g1029
tp2746
I00
s(g988
g374
tp2747
I00
s(g278
g482
tp2748
I00
s(g278
g1029
tp2749
I00
s(g148
g147
tp2750
I00
s(g1032
g221
tp2751
I00
s(g1032
g278
tp2752
I00
s(g988
g148
tp2753
I00
s(g374
g988
tp2754
I01
s(g329
g988
tp2755
I00
s(g148
g425
tp2756
I00
s(g1029
g1029
tp2757
I00
s(g374
g147
tp2758
I00
s(g329
g425
tp2759
I00
s(g1029
g329
tp2760
I00
s(g482
g278
tp2761
I00
s(g1029
g988
tp2762
I00
s(g329
g1032
tp2763
I00
s(g374
g482
tp2764
I00
s(g147
g148
tp2765
I00
s(g329
g278
tp2766
I00
s(g278
g329
tp2767
I00
s(g482
g329
tp2768
I00
s(g1032
g374
tp2769
I00
s(g482
g988
tp2770
I00
s(g425
g374
tp2771
I00
s(g374
g1029
tp2772
I00
s(g988
g988
tp2773
I00
s(g221
g374
tp2774
I00
s(g329
g221
tp2775
I00
s(g482
g374
tp2776
I00
s(g482
g482
tp2777
I00
s(g221
g988
tp2778
I01
s(g374
g148
tp2779
I00
s(g425
g329
tp2780
I00
s(g147
g1029
tp2781
I00
s(g148
g482
tp2782
I00
s(g988
g329
tp2783
I00
s(g278
g147
tp2784
I00
s(g148
g1029
tp2785
I00
s(g374
g425
tp2786
I00
s(g1032
g147
tp2787
I00
s(g374
g1032
tp2788
I00
s(g425
g147
tp2789
I00
s(g148
g148
tp2790
I00
s(g988
g221
tp2791
I01
s(g278
g1032
tp2792
I00
s(g221
g1032
tp2793
I00
s(g148
g1032
tp2794
I00
s(g148
g278
tp2795
I00
s(g425
g221
tp2796
I00
s(g221
g425
tp2797
I00
s(g147
g278
tp2798
I00
s(g1029
g1032
tp2799
I00
s(g329
g147
tp2800
I00
s(g278
g374
tp2801
I00
s(g221
g221
tp2802
I00
s(g329
g1029
tp2803
I00
s(g1032
g329
tp2804
I00
ssg1023
NsbsS'robot_pose'
p2805
g22
(g23
(I0
tp2806
g25
tp2807
Rp2808
(I1
(I1
I3
tp2809
g157
I00
S'\x94#@NL\xef\x02@"g\xab\xa4\xe4\x98\x1b\xc0\xa7\xd9\xedX\xe4\xa4\x12@'
p2810
tp2811
bsS'is_holding_goal_entity'
p2812
(itrajectory_representation.predicates.is_holding_goal_entity
IsHoldingGoalEntity
p2813
(dp2814
g2407
g2408
sg970
NsbsS'mc_pick_path'
p2815
(dp2816
sS'current_collides'
p2817
g562
sbasS'seed'
p2818
NsS'state_prime'
p2819
(lp2820
sS'problem_idx'
p2821
I120
sb.