(itrajectory_representation.trajectory
Trajectory
p0
(dp1
S'rewards'
p2
(lp3
I-1
aI10
asS'actions'
p4
(lp5
(itrajectory_representation.operator
Operator
p6
(dp7
S'is_skeleton'
p8
I00
sS'discrete_parameters'
p9
(dp10
S'object'
p11
Vrectangular_packing_box3
p12
sS'two_arm_place_region'
p13
S'loading_region'
p14
sS'two_arm_place_object'
p15
g12
ssS'type'
p16
S'two_arm_pick_two_arm_place'
p17
sS'continuous_parameters'
p18
(dp19
S'q_goal'
p20
cnumpy.core.multiarray
_reconstruct
p21
(cnumpy
ndarray
p22
(I0
tp23
S'b'
p24
tp25
Rp26
(I1
(I3
tp27
cnumpy
dtype
p28
(S'f8'
p29
I0
I1
tp30
Rp31
(I3
S'<'
p32
NNNI-1
I-1
I0
tp33
bI00
S'0\xa9\x10u#\x9a\xf8?@[*\x9f7\x18\x1f\xc0\x8af\xac]\x99\x1a\xfb?'
p34
tp35
bsS'place'
p36
(dp37
g20
g21
(g22
(I0
tp38
g24
tp39
Rp40
(I1
(I3
tp41
g31
I00
S'\x19\x89\xc8K\xf8\xc3\x03@\xedM\xcc\xae\xe9\xa7\x1b\xc0\xb8O{\xd4\xcfo\xf9?'
p42
tp43
bssS'pick'
p44
(dp45
g20
g26
sssS'low_level_motion'
p46
(lp47
g21
(g22
(I0
tp48
g24
tp49
Rp50
(I1
(I3
tp51
g31
I00
S'\xbc\x94\x8a\xa9\x86\xde\x07@\xc5\x02\xf5\x92C\xc4\x1b\xc0\n\xf5\xe0\x1c\x15H\xda?'
p52
tp53
bag21
(g22
(I0
tp54
g24
tp55
Rp56
(I1
(I3
tp57
g28
(S'f8'
p58
I0
I1
tp59
Rp60
(I3
S'<'
p61
NNNI-1
I-1
I0
tp62
bI00
S'0\xf2\xd6\x9e\xed\xca\x04@\xdc>\xfd\x07B\x8f\x1d\xc0\xe2\xaf5\x16\xb4\x0c\xda?'
p63
tp64
bag21
(g22
(I0
tp65
g24
tp66
Rp67
(I1
(I3
tp68
g60
I00
S'\xb9O\xa7Y\x02\x91\x00@\x96d\x95\x0e\xe6\xda\x1e\xc0l\xef\x8e\x11Rk\xeb?'
p69
tp70
bag26
ag26
asba(itrajectory_representation.operator
Operator
p71
(dp72
g8
I00
sg9
(dp73
g11
Vsquare_packing_box1
p74
sS'two_arm_place_region'
p75
S'home_region'
p76
sS'two_arm_place_object'
p77
g74
ssg16
S'two_arm_pick_two_arm_place'
p78
sg18
(dp79
g20
g21
(g22
(I0
tp80
g24
tp81
Rp82
(I1
(I3
tp83
g31
I00
S'\xc2{P\x92\x7f\x81\x08@\x99V~\xc6\xfe\xdf\x1d\xc0\xc6\x9d\xdb\x07\xa9x\x01\xc0'
p84
tp85
bsg36
(dp86
g20
g21
(g22
(I0
tp87
g24
tp88
Rp89
(I1
(I3
tp90
g31
I00
S'\x18\xdcZ\x80\x02\x17\xbb?\xd0\xc6wrv\x99\x04\xc0K\xf5\x9b\xa0)\xeb\xe2?'
p91
tp92
bssg44
(dp93
g20
g82
sssg46
(lp94
g21
(g22
(I0
tp95
g24
tp96
Rp97
(I1
(I3
tp98
g31
I00
S'\x1d\x89\xc8K\xf8\xc3\x03@\xebM\xcc\xae\xe9\xa7\x1b\xc0\xb9O{\xd4\xcfo\xf9?'
p99
tp100
bag21
(g22
(I0
tp101
g24
tp102
Rp103
(I1
(I3
tp104
g60
I00
S'\xa3\xe7\xb4\x16R\xf0\x07@\xbc\n8\xab\xe3x\x1c\xc0=\x94\xaf\xa7P\t\x01@'
p105
tp106
bag21
(g22
(I0
tp107
g24
tp108
Rp109
(I1
(I3
tp110
g60
I00
S'py\xe7\x92\x10\x1c\x08@_z\xb4M\xdc\xbc\x1b\xc0\xe2\x81s\x12\x81\x12\x08\xc0'
p111
tp112
bag82
ag82
asbasS'filename'
p113
S''
p114
sS'states'
p115
(lp116
(itrajectory_representation.shortest_path_pick_and_place_state
ShortestPathPaPState
p117
(dp118
S'place_used'
p119
(dp120
(Vsquare_packing_box1
p121
g76
tp122
(itrajectory_representation.operator
Operator
p123
(dp124
g8
I01
sg9
(dp125
S'region'
p126
g76
sg11
g121
ssg16
S'two_arm_place'
p127
sg18
(dp128
g20
g21
(g22
(I0
tp129
g24
tp130
Rp131
(I1
(I3
tp132
g31
I00
S'\x18\xdcZ\x80\x02\x17\xbb?\xd0\xc6wrv\x99\x04\xc0K\xf5\x9b\xa0)\xeb\xe2?'
p133
tp134
bssg46
(lp135
g21
(g22
(I0
tp136
g24
tp137
Rp138
(I1
(I3
tp139
g31
I00
S'\xb4{P\x92\x7f\x81\x08@\xa8V~\xc6\xfe\xdf\x1d\xc06^V\xd0\xa6e\x10@'
p140
tp141
bag21
(g22
(I0
tp142
g24
tp143
Rp144
(I1
(I3
tp145
g60
I00
S'^\xcd\x14~%\xc5\x03@\xfel\xd3\x16S\xe0\x1d\xc0\x82\x18\xf2;\xe9\xd6\x07\xc0'
p146
tp147
bag21
(g22
(I0
tp148
g24
tp149
Rp150
(I1
(I3
tp151
g60
I00
S'j3^\x1e\x86u\xff?:\xcbg\xab\x92\xaa\x1f\xc0\x05\x95\xa3X\x1c\x93\x07\xc0'
p152
tp153
bag21
(g22
(I0
tp154
g24
tp155
Rp156
(I1
(I3
tp157
g60
I00
S'S@\xf8l\x95\x08\xf8?\xef\x91If\xa4L\x1e\xc0\x8b\xc5pa\xf4C\x04\xc0'
p158
tp159
bag21
(g22
(I0
tp160
g24
tp161
Rp162
(I1
(I3
tp163
g60
I00
S'\xba)c\x05l\x93\xf4?\x8f\x0f\xa1<\xee\x05\x1c\xc0\xf9-\x16\x17\xc6`\xf8\xbf'
p164
tp165
bag21
(g22
(I0
tp166
g24
tp167
Rp168
(I1
(I3
tp169
g60
I00
S'\xb0\xcfg\xd5._\xe8?\xd6\x8d\xba\x87\x91D\x1a\xc0\xea!\xf73\x0cB\xf7\xbf'
p170
tp171
bag21
(g22
(I0
tp172
g24
tp173
Rp174
(I1
(I3
tp175
g60
I00
S'\x07\xe5\xeeo\xc2@\xf0?\x80*\x19Ng\xcf\x17\xc0\xccm\xca\xd2+4\x0f@'
p176
tp177
bag21
(g22
(I0
tp178
g24
tp179
Rp180
(I1
(I3
tp181
g60
I00
S'tx\x8as\xa8b\xed?\x9ej\x15\xfa\xf0{\x15\xc0@\xed\x9a-\x9eD\xf2\xbf'
p182
tp183
bag21
(g22
(I0
tp184
g24
tp185
Rp186
(I1
(I3
tp187
g60
I00
S'\xb0E\xbb;Cb\xeb?\x9e\xde\xa7\xdd\xbdd\x12\xc0\xc6\xee\xbd\x16\x8c\xaa\xf3\xbf'
p188
tp189
bag21
(g22
(I0
tp190
g24
tp191
Rp192
(I1
(I3
tp193
g60
I00
S'`\xc8Aw-\x81\xeb?/\xc3\xe6O\x04\xca\x10\xc0\x8a\xb7K)\x91{\xe4\xbf'
p194
tp195
bag21
(g22
(I0
tp196
g24
tp197
Rp198
(I1
(I3
tp199
g60
I00
S'\xe1\xc6\xc7\xa7\x12X\xe7?\x98\x99\xb0\x9a\xfb\xdb\x0b\xc0R\t\x1b)\xeae\xe0\xbf'
p200
tp201
bag21
(g22
(I0
tp202
g24
tp203
Rp204
(I1
(I3
tp205
g60
I00
S'X91+\xcd0\xe7?\x10t\x86\x8cV\xe3\x05\xc0\xfe\xb2\xd83\xdc\xcb\xee?'
p206
tp207
bag131
ag131
asbs(Vrectangular_packing_box3
p208
g14
tp209
(itrajectory_representation.operator
Operator
p210
(dp211
g8
I01
sg9
(dp212
g126
g14
sg11
g208
ssg16
g127
sg18
(dp213
g20
g21
(g22
(I0
tp214
g24
tp215
Rp216
(I1
(I3
tp217
g31
I00
S'\x19\x89\xc8K\xf8\xc3\x03@\xedM\xcc\xae\xe9\xa7\x1b\xc0\xb8O{\xd4\xcfo\xf9?'
p218
tp219
bssg46
(lp220
g21
(g22
(I0
tp221
g24
tp222
Rp223
(I1
(I3
tp224
g31
I00
S'L\xa9\x10u#\x9a\xf8?8[*\x9f7\x18\x1f\xc0\x8df\xac]\x99\x1a\xfb?'
p225
tp226
bag21
(g22
(I0
tp227
g24
tp228
Rp229
(I1
(I3
tp230
g60
I00
S'\xb9O\xa7Y\x02\x91\x00@\x96d\x95\x0e\xe6\xda\x1e\xc0l\xef\x8e\x11Rk\xeb?'
p231
tp232
bag21
(g22
(I0
tp233
g24
tp234
Rp235
(I1
(I3
tp236
g60
I00
S'\tAsXx\r\x00@F^\x05/\xfdK\x1d\xc0~\xbbB\x0f\xbe\xe6\xd2?'
p237
tp238
bag21
(g22
(I0
tp239
g24
tp240
Rp241
(I1
(I3
tp242
g60
I00
S'\xe8[\xb2\xaa\xa5@\x04@(j\r1!I\x1b\xc0Xj\x8bx\xc9`\xfc?'
p243
tp244
bag216
ag216
asbssS'place_in_way'
p245
(itrajectory_representation.predicates.place_in_way
PlaceInWay
p246
(dp247
S'mc_path_to_entity'
p248
(dp249
(Vrectangular_packing_box3
p250
S'home_region'
p251
tp252
(lp253
g21
(g22
(I0
tp254
g24
tp255
Rp256
(I1
(I3
tp257
g28
(S'f8'
p258
I0
I1
tp259
Rp260
(I3
S'<'
p261
NNNI-1
I-1
I0
tp262
bI00
S'8\xa9\x10u#\x9a\xf8?>[*\x9f7\x18\x1f\xc0\x89f\xac]\x99\x1a\xfb?'
p263
tp264
bag21
(g22
(I0
tp265
g24
tp266
Rp267
(I1
(I3
tp268
g28
(S'f8'
p269
I0
I1
tp270
Rp271
(I3
S'<'
p272
NNNI-1
I-1
I0
tp273
bI00
S'\xad\xa0\xdfFH\xe9\xf6?\xa3\xfc\x14D\x8bb\x1d\xc0\x9e2hH\xc0\xe5\xf0?'
p274
tp275
bag21
(g22
(I0
tp276
g24
tp277
Rp278
(I1
(I3
tp279
g271
I00
S'JyH\x8ez\xd6\xfa?\xb3\xf7h\x83\xea\xba\x1a\xc0u\xf9Uf\xb7m\xe0?'
p280
tp281
bag21
(g22
(I0
tp282
g24
tp283
Rp284
(I1
(I3
tp285
g271
I00
S'j\xc7\xc0&\x8ag\xf6?h\x9cH4\x7f\xab\x18\xc0\xd8|\x1d\xfc\xcbV\xf2?'
p286
tp287
bag21
(g22
(I0
tp288
g24
tp289
Rp290
(I1
(I3
tp291
g271
I00
S'\x85\\2\xba\x0b5\xf5?I\r\x06\xd10\xfb\x15\xc0\x9e\x11\xee\xd8\xb9\xd7\xf5?'
p292
tp293
bag21
(g22
(I0
tp294
g24
tp295
Rp296
(I1
(I3
tp297
g271
I00
S'v\xb8^\x85\xa7[\xea?x\xbe\xff2t\x8d\x13\xc0\x88\x85\x8cCyH\xf6?'
p298
tp299
bag21
(g22
(I0
tp300
g24
tp301
Rp302
(I1
(I3
tp303
g271
I00
S'\xc2\xda(e\x83\x1a\xeb?\x8au\x8d3\xa6E\x11\xc0\xb4c\x1b\xed_\xfd\xfa?'
p304
tp305
bag21
(g22
(I0
tp306
g24
tp307
Rp308
(I1
(I3
tp309
g271
I00
S'\xe4u**\x0e5\xe9?\xaa\xfd\r\xed\xc4\xf6\r\xc0\x0fDE0\x1f\x0b\xfe?'
p310
tp311
bag21
(g22
(I0
tp312
g24
tp313
Rp314
(I1
(I3
tp315
g271
I00
S'\x06\x11,\xef\x98O\xe7??\x10\x01s=b\t\xc04\x92\xb79o\x8c\x00@'
p316
tp317
bag21
(g22
(I0
tp318
g24
tp319
Rp320
(I1
(I3
tp321
g271
I00
S'\x92\xaf\xf3P\x96O\xc2?(\xa1:\x8er}\x05\xc0\xd4_\x91\xb3\xffL\x02@'
p322
tp323
bas(Vrectangular_packing_box4
p324
g251
tp325
(lp326
g21
(g22
(I0
tp327
g24
tp328
Rp329
(I1
(I3
tp330
g260
I00
S'\xa2}\xe7H)\xa2\x03@^\xc3\xfb%\xa6\xbb\x18\xc0\xa8\x17\xb2H=\x1e\xf3?'
p331
tp332
bag21
(g22
(I0
tp333
g24
tp334
Rp335
(I1
(I3
tp336
g271
I00
S'/\xe1\x02^.|\x00@\xb8\xae\xc5\xcfF\x16\x17\xc0\xf8\x01)d\xc5\xf9\xe2?'
p337
tp338
bag21
(g22
(I0
tp339
g24
tp340
Rp341
(I1
(I3
tp342
g271
I00
S'\x85\\2\xba\x0b5\xf5?I\r\x06\xd10\xfb\x15\xc0\x9e\x11\xee\xd8\xb9\xd7\xf5?'
p343
tp344
bag21
(g22
(I0
tp345
g24
tp346
Rp347
(I1
(I3
tp348
g271
I00
S'v\xb8^\x85\xa7[\xea?x\xbe\xff2t\x8d\x13\xc0\x88\x85\x8cCyH\xf6?'
p349
tp350
bag21
(g22
(I0
tp351
g24
tp352
Rp353
(I1
(I3
tp354
g271
I00
S'\xc2\xda(e\x83\x1a\xeb?\x8au\x8d3\xa6E\x11\xc0\xb4c\x1b\xed_\xfd\xfa?'
p355
tp356
bag21
(g22
(I0
tp357
g24
tp358
Rp359
(I1
(I3
tp360
g271
I00
S'\xe4u**\x0e5\xe9?\xaa\xfd\r\xed\xc4\xf6\r\xc0\x0fDE0\x1f\x0b\xfe?'
p361
tp362
bag21
(g22
(I0
tp363
g24
tp364
Rp365
(I1
(I3
tp366
g271
I00
S'\x06\x11,\xef\x98O\xe7??\x10\x01s=b\t\xc04\x92\xb79o\x8c\x00@'
p367
tp368
bag21
(g22
(I0
tp369
g24
tp370
Rp371
(I1
(I3
tp372
g271
I00
S'\x92\xaf\xf3P\x96O\xc2?(\xa1:\x8er}\x05\xc0\xd4_\x91\xb3\xffL\x02@'
p373
tp374
bas(Vsquare_packing_box1
p375
g251
tp376
(lp377
g21
(g22
(I0
tp378
g24
tp379
Rp380
(I1
(I3
tp381
g260
I00
S'\xc0{P\x92\x7f\x81\x08@\x9aV~\xc6\xfe\xdf\x1d\xc05^V\xd0\xa6e\x10@'
p382
tp383
bag21
(g22
(I0
tp384
g24
tp385
Rp386
(I1
(I3
tp387
g271
I00
S'^\xcd\x14~%\xc5\x03@\xfel\xd3\x16S\xe0\x1d\xc0\x82\x18\xf2;\xe9\xd6\x07\xc0'
p388
tp389
bag21
(g22
(I0
tp390
g24
tp391
Rp392
(I1
(I3
tp393
g271
I00
S'2]\x933g}\x00@\xebx\x00&R!\x1b\xc0\xce\x170ZD}\x00\xc0'
p394
tp395
bag21
(g22
(I0
tp396
g24
tp397
Rp398
(I1
(I3
tp399
g271
I00
S'4#\xe8i\x80D\xf8?\xdd\x1dlTl\\\x19\xc0m\xc1\x1a\xec\xde\x01\x01\xc0'
p400
tp401
bag21
(g22
(I0
tp402
g24
tp403
Rp404
(I1
(I3
tp405
g271
I00
S'\x9f5<Q\xb2\xb3\xf7?\xb3\xd6LI,\xe8\x16\xc0\xc2\x13\xbbtu\x87\x00\xc0'
p406
tp407
bag21
(g22
(I0
tp408
g24
tp409
Rp410
(I1
(I3
tp411
g271
I00
S'\xd0\xcb\x13\x8f\xaa\x9d\xed?\x90\x01<]3\x06\x16\xc0F\xf1\xe7x32\x02\xc0'
p412
tp413
bag21
(g22
(I0
tp414
g24
tp415
Rp416
(I1
(I3
tp417
g271
I00
S'l[\xc4\x16<\xe6\xe9?\xa6\xa0\x90\x84X\x9f\x13\xc0\xc2\xd74Q\x00\xaf\xff\xbf'
p418
tp419
bag21
(g22
(I0
tp420
g24
tp421
Rp422
(I1
(I3
tp423
g271
I00
S"\xaeJ\xbd\x1936\xec?\x04\x13\xd4'\x9f\x88\x10\xc0\x805qo\xb6\xe6\xff\xbf"
p424
tp425
bag21
(g22
(I0
tp426
g24
tp427
Rp428
(I1
(I3
tp429
g271
I00
S'\xf09\xb6\x1c*\x86\xee?\xc4\n/\x96\xcb\xe3\n\xc0\xa0\xc9\xd6F6\x0f\x00\xc0'
p430
tp431
bag21
(g22
(I0
tp432
g24
tp433
Rp434
(I1
(I3
tp435
g271
I00
S'3\xe9\xaf\x05T\x89\xe7?+~\xcb\xd3\x15\xc7\x04\xc0x6(d5\xed\x07@'
p436
tp437
bas(Vsquare_packing_box2
p438
g251
tp439
(lp440
g21
(g22
(I0
tp441
g24
tp442
Rp443
(I1
(I3
tp444
g260
I00
S'\xe0\xf63\xad\xe0\xc6\xd9?|z6uC\xde\x1e\xc0J\x8d\tS\xa4\x07\x02@'
p445
tp446
bag21
(g22
(I0
tp447
g24
tp448
Rp449
(I1
(I3
tp450
g271
I00
S'\x08\x171\xc6\x9f\xd1\xe4?\xb69P\xb8\xb4\x03\x1e\xc0\x00`"#(A\x05@'
p451
tp452
bag21
(g22
(I0
tp453
g24
tp454
Rp455
(I1
(I3
tp456
g271
I00
S'\x0c\x0f=\x82\xe8\x10\xef?\x95;\xd2\x17&\xe7\x1b\xc0\xf2\xbb\xbd\xb4q\x0b\t@'
p457
tp458
bag21
(g22
(I0
tp459
g24
tp460
Rp461
(I1
(I3
tp462
g271
I00
S'\xae\xea\x9e\xa3\xa2\xb1\xed?\xa4\xca\x1d?h\x96\x19\xc0dq\xdf\xb1\x9d\xe4\x05@'
p463
tp464
bag21
(g22
(I0
tp465
g24
tp466
Rp467
(I1
(I3
tp468
g271
I00
S'o\xd6\x82\xea\x7f\xb2\xed?9\xf2C\x0b?\xfd\x16\xc0(?d\xe9@\xb5\x02@'
p469
tp470
bag21
(g22
(I0
tp471
g24
tp472
Rp473
(I1
(I3
tp474
g271
I00
S'&>c9\x01,\xeb?\xb2\xc2\xf0\x02\xce\x8e\x14\xc0\xd8p\xbb2\x14\xd2\x03@'
p475
tp476
bag21
(g22
(I0
tp477
g24
tp478
Rp479
(I1
(I3
tp480
g271
I00
S'\xc6\x05\xbdtg\xd9\xe2?F\xdf\x9d@\\\xf3\x11\xc0\x1a\xc4.\xbb\xcc\x12\x02@'
p481
tp482
bag21
(g22
(I0
tp483
g24
tp484
Rp485
(I1
(I3
tp486
g271
I00
S'3z\xed\x8eN)\xe4?\x0c\x96\xd4\xa2\x0e\xd0\r\xc0\xbd%\xf5{\xe9\xf9\x03@'
p487
tp488
bag21
(g22
(I0
tp489
g24
tp490
Rp491
(I1
(I3
tp492
g271
I00
S'\xaf0\xe9h\xba~\xee?k\xbb\xd8\xd4\xd0g\t\xc09\x9ey\xed\xb06\x06@'
p493
tp494
bag21
(g22
(I0
tp495
g24
tp496
Rp497
(I1
(I3
tp498
g271
I00
S'\xf4\xfdJ\x1a(#\xec?H"\x9cD\x1aE\x05\xc0.\xa9\x0b\x87\xf8\xe1\x02@'
p499
tp500
bas(Vrectangular_packing_box1
p501
g251
tp502
(lp503
g21
(g22
(I0
tp504
g24
tp505
Rp506
(I1
(I3
tp507
g260
I00
S'\xdf\xa1K\x1cZN\x05@\xe2\x07\xc1b<+\x16\xc0\xfd$>,\x94\x15\x0b@'
p508
tp509
bag21
(g22
(I0
tp510
g24
tp511
Rp512
(I1
(I3
tp513
g271
I00
S'_\x1fd\x97D>\x00@W\xf2\x9b\xb2\x92\xd8\x15\xc0\x99\xbc\xd43\xf6\xfa\x08\xc0'
p514
tp515
bag21
(g22
(I0
tp516
g24
tp517
Rp518
(I1
(I3
tp519
g271
I00
S'R\x12);\xaf\xa5\xf7?\xf3\xf9\xeb\x07c\xef\x15\xc0\xf0V^\xd6\x94\x96\x05\xc0'
p520
tp521
bag21
(g22
(I0
tp522
g24
tp523
Rp524
(I1
(I3
tp525
g271
I00
S'\xd0\xcb\x13\x8f\xaa\x9d\xed?\x90\x01<]3\x06\x16\xc0F\xf1\xe7x32\x02\xc0'
p526
tp527
bag21
(g22
(I0
tp528
g24
tp529
Rp530
(I1
(I3
tp531
g271
I00
S'l[\xc4\x16<\xe6\xe9?\xa6\xa0\x90\x84X\x9f\x13\xc0\xc2\xd74Q\x00\xaf\xff\xbf'
p532
tp533
bag21
(g22
(I0
tp534
g24
tp535
Rp536
(I1
(I3
tp537
g271
I00
S"\xaeJ\xbd\x1936\xec?\x04\x13\xd4'\x9f\x88\x10\xc0\x805qo\xb6\xe6\xff\xbf"
p538
tp539
bag21
(g22
(I0
tp540
g24
tp541
Rp542
(I1
(I3
tp543
g271
I00
S'\xf09\xb6\x1c*\x86\xee?\xc4\n/\x96\xcb\xe3\n\xc0\xa0\xc9\xd6F6\x0f\x00\xc0'
p544
tp545
bag21
(g22
(I0
tp546
g24
tp547
Rp548
(I1
(I3
tp549
g271
I00
S'3\xe9\xaf\x05T\x89\xe7?+~\xcb\xd3\x15\xc7\x04\xc0x6(d5\xed\x07@'
p550
tp551
bas(Vsquare_packing_box3
p552
g251
tp553
(lp554
g21
(g22
(I0
tp555
g24
tp556
Rp557
(I1
(I3
tp558
g260
I00
S' \xf7J\xacd\xc5\xed?\xb5\xb88\x91\xbe\xd4\x1d\xc0+{\xf1\rc4\r@'
p559
tp560
bag21
(g22
(I0
tp561
g24
tp562
Rp563
(I1
(I3
tp564
g271
I00
S'X\xa4u\xbc=r\xf6?\x90\xee\xc4\x1eW\xf8\x1b\xc0\xcc: \xa4-\x95\x01\xc0'
p565
tp566
bag21
(g22
(I0
tp567
g24
tp568
Rp569
(I1
(I3
tp570
g271
I00
S'4#\xe8i\x80D\xf8?\xdd\x1dlTl\\\x19\xc0m\xc1\x1a\xec\xde\x01\x01\xc0'
p571
tp572
bag21
(g22
(I0
tp573
g24
tp574
Rp575
(I1
(I3
tp576
g271
I00
S'\x9f5<Q\xb2\xb3\xf7?\xb3\xd6LI,\xe8\x16\xc0\xc2\x13\xbbtu\x87\x00\xc0'
p577
tp578
bag21
(g22
(I0
tp579
g24
tp580
Rp581
(I1
(I3
tp582
g271
I00
S'\xd0\xcb\x13\x8f\xaa\x9d\xed?\x90\x01<]3\x06\x16\xc0F\xf1\xe7x32\x02\xc0'
p583
tp584
bag21
(g22
(I0
tp585
g24
tp586
Rp587
(I1
(I3
tp588
g271
I00
S'l[\xc4\x16<\xe6\xe9?\xa6\xa0\x90\x84X\x9f\x13\xc0\xc2\xd74Q\x00\xaf\xff\xbf'
p589
tp590
bag21
(g22
(I0
tp591
g24
tp592
Rp593
(I1
(I3
tp594
g271
I00
S"\xaeJ\xbd\x1936\xec?\x04\x13\xd4'\x9f\x88\x10\xc0\x805qo\xb6\xe6\xff\xbf"
p595
tp596
bag21
(g22
(I0
tp597
g24
tp598
Rp599
(I1
(I3
tp600
g271
I00
S'\xf09\xb6\x1c*\x86\xee?\xc4\n/\x96\xcb\xe3\n\xc0\xa0\xc9\xd6F6\x0f\x00\xc0'
p601
tp602
bag21
(g22
(I0
tp603
g24
tp604
Rp605
(I1
(I3
tp606
g271
I00
S'3\xe9\xaf\x05T\x89\xe7?+~\xcb\xd3\x15\xc7\x04\xc0x6(d5\xed\x07@'
p607
tp608
bas(Vrectangular_packing_box2
p609
g251
tp610
(lp611
g21
(g22
(I0
tp612
g24
tp613
Rp614
(I1
(I3
tp615
g260
I00
S'@!\x94\xc3\x11\x01\xf7?*\xc0*j\x8cB\x1c\xc0\x08\x8ekmNV\xf4?'
p616
tp617
bag21
(g22
(I0
tp618
g24
tp619
Rp620
(I1
(I3
tp621
g271
I00
S'\xcb\xa0\xb6M\xadU\xef?ny]\x1b[.\x1a\xc0\x99\xfe\xc1BBE\xde?'
p622
tp623
bag21
(g22
(I0
tp624
g24
tp625
Rp626
(I1
(I3
tp627
g271
I00
S'T]\x0c\x0e\xd89\xda?\xf4\x992\x11%\\\x18\xc0\x95\x7f\x10B\xb1)\xe3?'
p628
tp629
bag21
(g22
(I0
tp630
g24
tp631
Rp632
(I1
(I3
tp633
g271
I00
S'\xe4\x02R\xd9\x08\x8c\xc7?2\xc1\xd4;\xf6\xf3\x15\xc0>\x8c\x8fa?0\xd8?'
p634
tp635
bag21
(g22
(I0
tp636
g24
tp637
Rp638
(I1
(I3
tp639
g271
I00
S'\xcc\x87!\x1f\xfb\x05\xe6?\x14;\x08\xf1<\xc6\x13\xc0V!\xac1j\x94\xc8?'
p640
tp641
bag21
(g22
(I0
tp642
g24
tp643
Rp644
(I1
(I3
tp645
g271
I00
S'`\xc8Aw-\x81\xeb?/\xc3\xe6O\x04\xca\x10\xc0\x8a\xb7K)\x91{\xe4\xbf'
p646
tp647
bag21
(g22
(I0
tp648
g24
tp649
Rp650
(I1
(I3
tp651
g271
I00
S'\xe1\xc6\xc7\xa7\x12X\xe7?\x98\x99\xb0\x9a\xfb\xdb\x0b\xc0R\t\x1b)\xeae\xe0\xbf'
p652
tp653
bag21
(g22
(I0
tp654
g24
tp655
Rp656
(I1
(I3
tp657
g271
I00
S'\xd6\x07{\xd9\x10\xef\xe4?\x1d\xac\x7fu\xfd\xc8\x05\xc0n\xbe\xc6$&8\xd7?'
p658
tp659
bassS'mc_to_entity'
p660
(dp661
(g250
g251
tp662
(lp663
Vrectangular_packing_box2
p664
aVrectangular_packing_box1
p665
as(g324
g251
tp666
(lp667
Vrectangular_packing_box1
p668
as(g375
g251
tp669
(lp670
Vrectangular_packing_box2
p671
aVrectangular_packing_box3
p672
aVrectangular_packing_box1
p673
aVsquare_packing_box4
p674
as(g438
g251
tp675
(lp676
Vsquare_packing_box3
p677
aVrectangular_packing_box3
p678
aVsquare_packing_box4
p679
as(g501
g251
tp680
(lp681
Vrectangular_packing_box4
p682
aVsquare_packing_box4
p683
as(g552
g251
tp684
(lp685
Vrectangular_packing_box3
p686
aVrectangular_packing_box2
p687
aVrectangular_packing_box1
p688
aVsquare_packing_box4
p689
as(g609
g251
tp690
(lp691
Vrectangular_packing_box3
p692
aVsquare_packing_box4
p693
assS'reachable_entities'
p694
(lp695
Vrectangular_packing_box4
p696
ag12
ag74
asS'collides'
p697
(dp698
Vrectangular_packing_box4
p699
c__builtin__
set
p700
((lp701
I0
aI1
aI2
aI393
aI144
aI403
aI539
aI541
aI160
aI289
aI38
aI39
aI40
aI41
aI555
aI302
aI304
aI435
aI571
aI62
aI288
aI454
aI342
aI348
aI605
aI611
aI612
aI550
aI248
aI377
aI378
aI380
atp702
Rp703
sVrectangular_packing_box2
p704
g700
((lp705
I3
aI4
aI5
aI145
aI538
aI413
aI162
aI35
aI36
aI422
aI301
aI309
aI310
aI55
aI570
aI187
aI188
aI64
aI449
aI69
aI70
aI327
aI201
aI202
aI205
aI79
aI80
aI81
aI595
aI597
aI215
aI89
aI219
aI92
aI93
aI355
aI115
aI379
aI124
atp706
Rp707
sVrectangular_packing_box3
p708
g700
((lp709
I256
aI262
aI135
aI136
aI145
aI146
aI538
aI413
aI543
aI35
aI36
aI422
aI296
aI263
aI176
aI177
aI570
aI444
aI69
aI205
aI80
aI81
aI82
aI346
aI92
aI464
aI355
aI230
aI593
aI240
aI505
aI124
atp710
Rp711
sVrectangular_packing_box1
p712
g700
((lp713
I3
aI395
aI404
aI160
aI161
aI42
aI43
aI301
aI56
aI187
aI449
aI327
aI201
aI203
aI416
aI484
aI106
aI289
aI497
aI115
aI372
aI380
aI554
atp714
Rp715
sVsquare_packing_box2
p716
g700
((lp717
I384
aI133
aI134
aI521
aI394
aI523
aI580
aI154
aI155
aI157
aI163
aI164
aI165
aI166
aI433
aI308
aI575
aI452
aI197
aI328
aI518
aI589
aI338
aI83
aI478
aI356
aI229
aI502
atp718
Rp719
sVsquare_packing_box3
p720
g700
((lp721
I384
aI257
aI264
aI265
aI394
aI532
aI158
aI159
aI164
aI433
aI564
aI575
aI452
aI583
aI328
aI458
aI589
aI478
aI356
aI229
aI366
aI502
aI122
atp722
Rp723
sVsquare_packing_box1
p724
g700
((lp725
I513
aI610
aI259
aI68
aI406
aI552
aI585
aI556
aI515
aI337
aI67
aI117
aI118
aI375
aI440
aI260
aI123
aI572
aI573
aI286
aI613
atp726
Rp727
sVsquare_packing_box4
p728
g700
((lp729
I491
aI517
aI6
aI7
aI8
aI139
aI275
aI33
aI424
aI44
aI186
aI196
aI198
aI417
aI459
aI349
aI350
aI351
aI234
aI235
aI108
aI503
aI362
aI383
atp730
Rp731
ssg119
g120
sS'pick_used'
p732
(dp733
g696
(itrajectory_representation.operator
Operator
p734
(dp735
g8
I01
sg9
(dp736
S'object'
p737
Vrectangular_packing_box4
p738
ssg16
S'two_arm_pick'
p739
sg18
(dp740
S'q_goal'
p741
(lp742
g21
(g22
(I0
tp743
g24
tp744
Rp745
(I1
(I3
tp746
g260
I00
S'\xa2}\xe7H)\xa2\x03@`\xc3\xfb%\xa6\xbb\x18\xc0\xa8\x17\xb2H=\x1e\xf3?'
p747
tp748
bag21
(g22
(I0
tp749
g24
tp750
Rp751
(I1
(I3
tp752
g260
I00
S'\x9f\xa3\xf4=\xca\xa3\x04@\x8d6&\xb0\x1fZ\x19\xc0\xb3\xcb\xd3Q\x93w\xf8?'
p753
tp754
bag21
(g22
(I0
tp755
g24
tp756
Rp757
(I1
(I3
tp758
g260
I00
S'c\x15)\x01\x9e\xbd\x04@h\xf9\xb4=~&\x19\xc0\xf6l\xef7py\xec?'
p759
tp760
basS'is_feasible'
p761
I00
ssg46
(lp762
g21
(g22
(I0
tp763
g24
tp764
Rp765
(I1
(I3
tp766
g260
I00
S'@\xddZ\x80\x02\x17\xbb?\xdc\xc6wrv\x99\x04\xc0A\xf5\x9b\xa0)\xeb\xe2?'
p767
tp768
bag21
(g22
(I0
tp769
g24
tp770
Rp771
(I1
(I3
tp772
g271
I00
S'X91+\xcd0\xe7?\x10t\x86\x8cV\xe3\x05\xc0\xfe\xb2\xd83\xdc\xcb\xee?'
p773
tp774
bag21
(g22
(I0
tp775
g24
tp776
Rp777
(I1
(I3
tp778
g271
I00
S'\xd1\xaa\x15!\x8c\x06\xed?\x8c\xab\xab^w\xe3\t\xc0~&\xcc\xa2\xcbw\xf6?'
p779
tp780
bag21
(g22
(I0
tp781
g24
tp782
Rp783
(I1
(I3
tp784
g271
I00
S'y\xd4\xbc{`\x0b\xf2?\xb0C6m\xb7\xd6\x0e\xc0\xe8\xe2r\xbe\x16{\xf5?'
p785
tp786
bag21
(g22
(I0
tp787
g24
tp788
Rp789
(I1
(I3
tp790
g271
I00
S'\xf3In\x9c \xb1\xee?\x10D/\xcc\x0f}\x11\xc0\xda0\xdf\x1au:\xf0?'
p791
tp792
bag21
(g22
(I0
tp793
g24
tp794
Rp795
(I1
(I3
tp796
g271
I00
S'v\xb8^\x85\xa7[\xea?x\xbe\xff2t\x8d\x13\xc0\x88\x85\x8cCyH\xf6?'
p797
tp798
bag21
(g22
(I0
tp799
g24
tp800
Rp801
(I1
(I3
tp802
g271
I00
S'\x85\\2\xba\x0b5\xf5?I\r\x06\xd10\xfb\x15\xc0\x9e\x11\xee\xd8\xb9\xd7\xf5?'
p803
tp804
bag21
(g22
(I0
tp805
g24
tp806
Rp807
(I1
(I3
tp808
g271
I00
S'\xe0 ;\x819w\xfd?\xe7\xcc\xc2\xa0\xa5f\x17\xc04\xedq\x1c\x8eK\xfa?'
p809
tp810
bag745
asbsVrectangular_packing_box2
p811
(itrajectory_representation.operator
Operator
p812
(dp813
g8
I01
sg9
(dp814
g737
Vrectangular_packing_box2
p815
ssg16
g739
sg18
(dp816
g741
(lp817
g21
(g22
(I0
tp818
g24
tp819
Rp820
(I1
(I3
tp821
g260
I00
S'=!\x94\xc3\x11\x01\xf7?*\xc0*j\x8cB\x1c\xc0\x08\x8ekmNV\xf4?'
p822
tp823
bag21
(g22
(I0
tp824
g24
tp825
Rp826
(I1
(I3
tp827
g260
I00
S'y\xed#\xea\xcf\xb8\xeb?\x95\xdb+U\x01G\x19\xc0|\xea\xdb\x04\t\xee\xac\xbf'
p828
tp829
bag21
(g22
(I0
tp830
g24
tp831
Rp832
(I1
(I3
tp833
g260
I00
S'$^\xc1)\xf2\xd2\xec?r\xd8}\xea`\x01\x1a\xc0 =\xa9\xb2\x85z\xb0\xbf'
p834
tp835
basg761
I00
ssg46
(lp836
g21
(g22
(I0
tp837
g24
tp838
Rp839
(I1
(I3
tp840
g260
I00
S'@\xddZ\x80\x02\x17\xbb?\xdc\xc6wrv\x99\x04\xc0A\xf5\x9b\xa0)\xeb\xe2?'
p841
tp842
bag21
(g22
(I0
tp843
g24
tp844
Rp845
(I1
(I3
tp846
g271
I00
S'\x9e\x17\xaa-\xa9\xdf\xbc\xbf\x1bL\xaft\xe4\xe9\x03\xc0\xe48\xd6\x91\x9b\xc5\xe9?'
p847
tp848
bag21
(g22
(I0
tp849
g24
tp850
Rp851
(I1
(I3
tp852
g271
I00
S'M\x96\xea\xee\x17\x04\xdd?R\xe0T\xecA\xde\x06\xc0\x9a +sW,\xe5\xbf'
p853
tp854
bag21
(g22
(I0
tp855
g24
tp856
Rp857
(I1
(I3
tp858
g271
I00
S'\xe1\xc6\xc7\xa7\x12X\xe7?\x98\x99\xb0\x9a\xfb\xdb\x0b\xc0R\t\x1b)\xeae\xe0\xbf'
p859
tp860
bag21
(g22
(I0
tp861
g24
tp862
Rp863
(I1
(I3
tp864
g271
I00
S'`\xc8Aw-\x81\xeb?/\xc3\xe6O\x04\xca\x10\xc0\x8a\xb7K)\x91{\xe4\xbf'
p865
tp866
bag21
(g22
(I0
tp867
g24
tp868
Rp869
(I1
(I3
tp870
g271
I00
S"\xb2&6mg)\xe8?\x99\xe0G'\x16\xe0\x13\xc0\xc8oL\xf5\x17p\xe6\xbf"
p871
tp872
bag21
(g22
(I0
tp873
g24
tp874
Rp875
(I1
(I3
tp876
g271
I00
S'tx\x8as\xa8b\xed?\x9ej\x15\xfa\xf0{\x15\xc0@\xed\x9a-\x9eD\xf2\xbf'
p877
tp878
bag21
(g22
(I0
tp879
g24
tp880
Rp881
(I1
(I3
tp882
g271
I00
S'N\xcd\xaa\x1e;\x0f\xee?&\xa8j\x7f\xa2\xe5\x17\xc0\xc1rR\xf6\xd1Y\xe0\xbf'
p883
tp884
bag826
asbsg12
(itrajectory_representation.operator
Operator
p885
(dp886
g8
I01
sg9
(dp887
g11
g12
ssg16
S'two_arm_pick'
p888
sg18
(dp889
g20
g21
(g22
(I0
tp890
g24
tp891
Rp892
(I1
(I3
tp893
g31
I00
S'0\xa9\x10u#\x9a\xf8?@[*\x9f7\x18\x1f\xc0\x8af\xac]\x99\x1a\xfb?'
p894
tp895
bssg46
(lp896
g21
(g22
(I0
tp897
g24
tp898
Rp899
(I1
(I3
tp900
g260
I00
S'\xc4\x94\x8a\xa9\x86\xde\x07@\xc3\x02\xf5\x92C\xc4\x1b\xc0\xcd\xf4\xe0\x1c\x15H\xda?'
p901
tp902
bag21
(g22
(I0
tp903
g24
tp904
Rp905
(I1
(I3
tp906
g271
I00
S'0\xf2\xd6\x9e\xed\xca\x04@\xdc>\xfd\x07B\x8f\x1d\xc0\xe2\xaf5\x16\xb4\x0c\xda?'
p907
tp908
bag21
(g22
(I0
tp909
g24
tp910
Rp911
(I1
(I3
tp912
g271
I00
S'\xb9O\xa7Y\x02\x91\x00@\x96d\x95\x0e\xe6\xda\x1e\xc0l\xef\x8e\x11Rk\xeb?'
p913
tp914
bag892
asbsVrectangular_packing_box1
p915
(itrajectory_representation.operator
Operator
p916
(dp917
g8
I01
sg9
(dp918
g737
Vrectangular_packing_box1
p919
ssg16
g739
sg18
(dp920
g741
(lp921
g21
(g22
(I0
tp922
g24
tp923
Rp924
(I1
(I3
tp925
g260
I00
S'\xe0\xa1K\x1cZN\x05@\xe0\x07\xc1b<+\x16\xc0\xfe$>,\x94\x15\x0b@'
p926
tp927
bag21
(g22
(I0
tp928
g24
tp929
Rp930
(I1
(I3
tp931
g260
I00
S'\xc0\xea\x9b\xd3\x07\x14\xfc?\xd7|\xd9\xca5\xc8\x18\xc0\x97aM\xd8!\xb7\xfc?'
p932
tp933
bag21
(g22
(I0
tp934
g24
tp935
Rp936
(I1
(I3
tp937
g260
I00
S'\x04\x1d\xfd\x8f\x86x\x05@\xb3\\\x86\x01\x93\xf5\x15\xc0\x95\x9c\x1b+8\xce\x07@'
p938
tp939
basg761
I00
ssg46
(lp940
g21
(g22
(I0
tp941
g24
tp942
Rp943
(I1
(I3
tp944
g260
I00
S'@\xddZ\x80\x02\x17\xbb?\xdc\xc6wrv\x99\x04\xc0A\xf5\x9b\xa0)\xeb\xe2?'
p945
tp946
bag21
(g22
(I0
tp947
g24
tp948
Rp949
(I1
(I3
tp950
g271
I00
S'\xd6\x07{\xd9\x10\xef\xe4?\x1d\xac\x7fu\xfd\xc8\x05\xc0n\xbe\xc6$&8\xd7?'
p951
tp952
bag21
(g22
(I0
tp953
g24
tp954
Rp955
(I1
(I3
tp956
g271
I00
S'\xef\xc3u*\xfb\xdb\xeb?\x8d\xa5\n\xfd\x03<\n\xc0\xd8\xfb\xde\x16R\xac\xde?'
p957
tp958
bag21
(g22
(I0
tp959
g24
tp960
Rp961
(I1
(I3
tp962
g271
I00
S'\x93k\xbc\xee\xc2\x10\xe8?\xab^\x86?\x08D\x10\xc0\x10;2\x00\xe5\t\xde?'
p963
tp964
bag21
(g22
(I0
tp965
g24
tp966
Rp967
(I1
(I3
tp968
g271
I00
S'\xa9\xd9\x1d\x8d\xa6j\xdf?\xa0\x85\x1a\x84\xc6\xec\x12\xc0\x01\xb6 H\xb1\x91\xeb?'
p969
tp970
bag21
(g22
(I0
tp971
g24
tp972
Rp973
(I1
(I3
tp974
g271
I00
S'\xd8\x87\x03p)T\xe4?\xd5\xabI\xb7V\xd0\x15\xc0vWg\x9a\x87\x8a\xec?'
p975
tp976
bag21
(g22
(I0
tp977
g24
tp978
Rp979
(I1
(I3
tp980
g271
I00
S'B\x9aa8\x98\xa6\xe8?\xf3\xe9\x94/\xc2\xe4\x18\xc0u\xf8\xb0\x7fO\xb8\xf2?'
p981
tp982
bag21
(g22
(I0
tp983
g24
tp984
Rp985
(I1
(I3
tp986
g271
I00
S'j\xc7\xc0&\x8ag\xf6?h\x9cH4\x7f\xab\x18\xc0\xd8|\x1d\xfc\xcbV\xf2?'
p987
tp988
bag930
asbsVsquare_packing_box2
p989
(itrajectory_representation.operator
Operator
p990
(dp991
g8
I01
sg9
(dp992
g737
Vsquare_packing_box2
p993
ssg16
g739
sg18
(dp994
g741
(lp995
g21
(g22
(I0
tp996
g24
tp997
Rp998
(I1
(I3
tp999
g260
I00
S'\xf8\xf63\xad\xe0\xc6\xd9?zz6uC\xde\x1e\xc0J\x8d\tS\xa4\x07\x02@'
p1000
tp1001
bag21
(g22
(I0
tp1002
g24
tp1003
Rp1004
(I1
(I3
tp1005
g260
I00
S'\xc2\xe4\x04\x1d\xb9\x9b\xea?\xe4\x01\xfa\xfc\x9ec\x1a\xc09{\x8dfZC\x06\xc0'
p1006
tp1007
bag21
(g22
(I0
tp1008
g24
tp1009
Rp1010
(I1
(I3
tp1011
g260
I00
S'\x88$\xe4\x82f\xe4\xa5\xbf\xe3\xac\xa4a\x14\xb8\x18\xc0k\xd1\x83\xbe\xb2\x16\xf5\xbf'
p1012
tp1013
basg761
I00
ssg46
(lp1014
g21
(g22
(I0
tp1015
g24
tp1016
Rp1017
(I1
(I3
tp1018
g260
I00
S'@\xddZ\x80\x02\x17\xbb?\xdc\xc6wrv\x99\x04\xc0A\xf5\x9b\xa0)\xeb\xe2?'
p1019
tp1020
bag21
(g22
(I0
tp1021
g24
tp1022
Rp1023
(I1
(I3
tp1024
g271
I00
S'\x9e\x17\xaa-\xa9\xdf\xbc\xbf\x1bL\xaft\xe4\xe9\x03\xc0\xe48\xd6\x91\x9b\xc5\xe9?'
p1025
tp1026
bag21
(g22
(I0
tp1027
g24
tp1028
Rp1029
(I1
(I3
tp1030
g271
I00
S'M\x96\xea\xee\x17\x04\xdd?R\xe0T\xecA\xde\x06\xc0\x9a +sW,\xe5\xbf'
p1031
tp1032
bag21
(g22
(I0
tp1033
g24
tp1034
Rp1035
(I1
(I3
tp1036
g271
I00
S'\xe1\xc6\xc7\xa7\x12X\xe7?\x98\x99\xb0\x9a\xfb\xdb\x0b\xc0R\t\x1b)\xeae\xe0\xbf'
p1037
tp1038
bag21
(g22
(I0
tp1039
g24
tp1040
Rp1041
(I1
(I3
tp1042
g271
I00
S'`\xc8Aw-\x81\xeb?/\xc3\xe6O\x04\xca\x10\xc0\x8a\xb7K)\x91{\xe4\xbf'
p1043
tp1044
bag21
(g22
(I0
tp1045
g24
tp1046
Rp1047
(I1
(I3
tp1048
g271
I00
S"\xb2&6mg)\xe8?\x99\xe0G'\x16\xe0\x13\xc0\xc8oL\xf5\x17p\xe6\xbf"
p1049
tp1050
bag21
(g22
(I0
tp1051
g24
tp1052
Rp1053
(I1
(I3
tp1054
g271
I00
S'tx\x8as\xa8b\xed?\x9ej\x15\xfa\xf0{\x15\xc0@\xed\x9a-\x9eD\xf2\xbf'
p1055
tp1056
bag21
(g22
(I0
tp1057
g24
tp1058
Rp1059
(I1
(I3
tp1060
g271
I00
S'\xf8C*\xbe\x14\xcf\xe8?\x81d\xab\xeb\xa8<\x18\xc0\xc8\\\xf4\x8c\xc3\xfa\xfe\xbf'
p1061
tp1062
bag1004
asbsVsquare_packing_box3
p1063
(itrajectory_representation.operator
Operator
p1064
(dp1065
g8
I01
sg9
(dp1066
g737
Vsquare_packing_box3
p1067
ssg16
g739
sg18
(dp1068
g741
(lp1069
g21
(g22
(I0
tp1070
g24
tp1071
Rp1072
(I1
(I3
tp1073
g260
I00
S'@\xf7J\xacd\xc5\xed?\xba\xb88\x91\xbe\xd4\x1d\xc0\x05\xdf\x96\x9a\x93\x0f\x05\xc0'
p1074
tp1075
bag21
(g22
(I0
tp1076
g24
tp1077
Rp1078
(I1
(I3
tp1079
g260
I00
S'\xb9\xa57\xf5\xf0\xd4\xd0?\x1e\x9e>J\xbe\xe7\x1b\xc0\x8c\x0e%\xb9\xca\x90\xf6\xbf'
p1080
tp1081
bag21
(g22
(I0
tp1082
g24
tp1083
Rp1084
(I1
(I3
tp1085
g260
I00
S'\xc4Woi\x98*\xd2?\x91~r^c\xf9\x1b\xc0\x0c\xb1\xe2y8o\xfa\xbf'
p1086
tp1087
basg761
I00
ssg46
(lp1088
g21
(g22
(I0
tp1089
g24
tp1090
Rp1091
(I1
(I3
tp1092
g260
I00
S'@\xddZ\x80\x02\x17\xbb?\xdc\xc6wrv\x99\x04\xc0A\xf5\x9b\xa0)\xeb\xe2?'
p1093
tp1094
bag21
(g22
(I0
tp1095
g24
tp1096
Rp1097
(I1
(I3
tp1098
g271
I00
S'\xdd\xa0\xf3\xce:\x01\xcd\xbf\xf9$7\xc9L\xb0\x05\xc0h\xda+\xff\x85x\xa9\xbf'
p1099
tp1100
bag21
(g22
(I0
tp1101
g24
tp1102
Rp1103
(I1
(I3
tp1104
g271
I00
S'M\x96\xea\xee\x17\x04\xdd?R\xe0T\xecA\xde\x06\xc0\x9a +sW,\xe5\xbf'
p1105
tp1106
bag21
(g22
(I0
tp1107
g24
tp1108
Rp1109
(I1
(I3
tp1110
g271
I00
S'\xe1\xc6\xc7\xa7\x12X\xe7?\x98\x99\xb0\x9a\xfb\xdb\x0b\xc0R\t\x1b)\xeae\xe0\xbf'
p1111
tp1112
bag21
(g22
(I0
tp1113
g24
tp1114
Rp1115
(I1
(I3
tp1116
g271
I00
S'`\xc8Aw-\x81\xeb?/\xc3\xe6O\x04\xca\x10\xc0\x8a\xb7K)\x91{\xe4\xbf'
p1117
tp1118
bag21
(g22
(I0
tp1119
g24
tp1120
Rp1121
(I1
(I3
tp1122
g271
I00
S"\xb2&6mg)\xe8?\x99\xe0G'\x16\xe0\x13\xc0\xc8oL\xf5\x17p\xe6\xbf"
p1123
tp1124
bag21
(g22
(I0
tp1125
g24
tp1126
Rp1127
(I1
(I3
tp1128
g271
I00
S'tx\x8as\xa8b\xed?\x9ej\x15\xfa\xf0{\x15\xc0@\xed\x9a-\x9eD\xf2\xbf'
p1129
tp1130
bag21
(g22
(I0
tp1131
g24
tp1132
Rp1133
(I1
(I3
tp1134
g271
I00
S"\x1aq\xa1\x96-\xd2\xec?\xa2\x8f\xd2'\xa1I\x18\xc0\x06\xea(\x89^*\xf2\xbf"
p1135
tp1136
bag21
(g22
(I0
tp1137
g24
tp1138
Rp1139
(I1
(I3
tp1140
g271
I00
S'\xb0\xcfg\xd5._\xe8?\xd6\x8d\xba\x87\x91D\x1a\xc0\xea!\xf73\x0cB\xf7\xbf'
p1141
tp1142
bag21
(g22
(I0
tp1143
g24
tp1144
Rp1145
(I1
(I3
tp1146
g271
I00
S'\x0c\x0f=\x82\xe8\x10\xef?\x95;\xd2\x17&\xe7\x1b\xc0\xf2\xbb\xbd\xb4q\x0b\t@'
p1147
tp1148
bag1072
asbsg74
(itrajectory_representation.operator
Operator
p1149
(dp1150
g8
I01
sg9
(dp1151
g11
g74
ssg16
g888
sg18
(dp1152
g20
g21
(g22
(I0
tp1153
g24
tp1154
Rp1155
(I1
(I3
tp1156
g31
I00
S'\xc2{P\x92\x7f\x81\x08@\x99V~\xc6\xfe\xdf\x1d\xc0\xc6\x9d\xdb\x07\xa9x\x01\xc0'
p1157
tp1158
bssg46
(lp1159
g21
(g22
(I0
tp1160
g24
tp1161
Rp1162
(I1
(I3
tp1163
g260
I00
S'\xc4\x94\x8a\xa9\x86\xde\x07@\xc3\x02\xf5\x92C\xc4\x1b\xc0\xcd\xf4\xe0\x1c\x15H\xda?'
p1164
tp1165
bag21
(g22
(I0
tp1166
g24
tp1167
Rp1168
(I1
(I3
tp1169
g271
I00
S'P\x9d\xdf\x99\xa6e\x04@\x1c`\xb6c\x8e7\x19\xc0@\xf2\xef\xc5\xd3\xc8\x17@'
p1170
tp1171
bag21
(g22
(I0
tp1172
g24
tp1173
Rp1174
(I1
(I3
tp1175
g271
I00
S'\x89\xcfHU\xa1\xf5\x05@\xee\x9b\xa6\x01<)\x1c\xc0W\xa3jE\xe6\xde\x01\xc0'
p1176
tp1177
bag1155
asbsVsquare_packing_box4
p1178
(itrajectory_representation.operator
Operator
p1179
(dp1180
g8
I01
sg9
(dp1181
g737
Vsquare_packing_box4
p1182
ssg16
g739
sg18
(dp1183
g741
(lp1184
g21
(g22
(I0
tp1185
g24
tp1186
Rp1187
(I1
(I3
tp1188
g260
I00
S'\x9dz\xb1/\xd3\x00\xbf\xbf\xf1\x02\x97\xbc\xcd\x7f\x18\xc0K\x01\xc4\x98x\xe3\xeb?'
p1189
tp1190
bag21
(g22
(I0
tp1191
g24
tp1192
Rp1193
(I1
(I3
tp1194
g260
I00
S'\x1b\xf7\x8aB\xd2\x95\xc6\xbf\xd50H\xf3\xe1R\x18\xc0H@\xfc\x90>\xed\xf3?'
p1195
tp1196
bag21
(g22
(I0
tp1197
g24
tp1198
Rp1199
(I1
(I3
tp1200
g260
I00
S'\xee\x0e\xe0\x97\x07\x93\xee?s\xe4\xab8M\xea\x16\xc0\xba\x80\x86\xfbe\xd1\x05@'
p1201
tp1202
basg761
I00
ssg46
(lp1203
g21
(g22
(I0
tp1204
g24
tp1205
Rp1206
(I1
(I3
tp1207
g260
I00
S'@\xddZ\x80\x02\x17\xbb?\xdc\xc6wrv\x99\x04\xc0A\xf5\x9b\xa0)\xeb\xe2?'
p1208
tp1209
bag21
(g22
(I0
tp1210
g24
tp1211
Rp1212
(I1
(I3
tp1213
g271
I00
S'\xdd\xa0\xf3\xce:\x01\xcd\xbf\xf9$7\xc9L\xb0\x05\xc0h\xda+\xff\x85x\xa9\xbf'
p1214
tp1215
bag21
(g22
(I0
tp1216
g24
tp1217
Rp1218
(I1
(I3
tp1219
g271
I00
S'M\x96\xea\xee\x17\x04\xdd?R\xe0T\xecA\xde\x06\xc0\x9a +sW,\xe5\xbf'
p1220
tp1221
bag21
(g22
(I0
tp1222
g24
tp1223
Rp1224
(I1
(I3
tp1225
g271
I00
S'\xe1\xc6\xc7\xa7\x12X\xe7?\x98\x99\xb0\x9a\xfb\xdb\x0b\xc0R\t\x1b)\xeae\xe0\xbf'
p1226
tp1227
bag21
(g22
(I0
tp1228
g24
tp1229
Rp1230
(I1
(I3
tp1231
g271
I00
S'\xb2e(\x1b\xa5\xca\xd7?\xa09H\xb2\xa0G\x10\xc04\x9f\x874j\xde\xd1\xbf'
p1232
tp1233
bag21
(g22
(I0
tp1234
g24
tp1235
Rp1236
(I1
(I3
tp1237
g271
I00
S'\x84\xbf\xf8\xf9m\x80\xeb?\x1dU~\xc98\x83\x11\xc0\x9c\xd2\x8c\xb4xs\xa7\xbf'
p1238
tp1239
bag21
(g22
(I0
tp1240
g24
tp1241
Rp1242
(I1
(I3
tp1243
g271
I00
S'm\xd5h\x072\x03\xea?\xdf\xe5\xe82\xd3\x17\x14\xc0\x08\x9e\xe1\xfbO\x94\x08@'
p1244
tp1245
bag1199
asbssS'mc_paths'
p1246
(dp1247
sS'robot'
p1248
NsS'reachable_obj_region_pairs'
p1249
(lp1250
sS'sampled_pick_configs_for_objects'
p1251
(dp1252
sS'mc_calls'
p1253
I0
sS'pick_poses'
p1254
g733
sS'problem_env'
p1255
NsS'evaluations'
p1256
(dp1257
(g501
g609
g251
tp1258
I00
s(g438
g609
g251
tp1259
I00
s(g609
g552
g251
tp1260
I00
s(g324
g438
g251
tp1261
I00
s(g552
g375
g251
tp1262
I00
s(g375
g250
g251
tp1263
I01
s(g552
g609
g251
tp1264
I01
s(g324
Vsquare_packing_box4
p1265
g251
tp1266
I00
s(g438
g375
g251
tp1267
I00
s(g501
g375
g251
tp1268
I00
s(g501
g324
g251
tp1269
I01
s(g438
g250
g251
tp1270
I01
s(g324
g552
g251
tp1271
I00
s(g552
g250
g251
tp1272
I01
s(g375
g609
g251
tp1273
I01
s(g552
g1265
g251
tp1274
I01
s(g609
g501
g251
tp1275
I00
s(g250
g375
g251
tp1276
I00
s(g552
g324
g251
tp1277
I00
s(g609
g375
g251
tp1278
I00
s(g250
g324
g251
tp1279
I00
s(g609
g1265
g251
tp1280
I01
s(g324
g501
g251
tp1281
I01
s(g375
g501
g251
tp1282
I01
s(g250
g552
g251
tp1283
I00
s(g250
g501
g251
tp1284
I01
s(g552
g501
g251
tp1285
I01
s(g324
g609
g251
tp1286
I00
s(g501
g1265
g251
tp1287
I01
s(g438
g501
g251
tp1288
I00
s(g250
g1265
g251
tp1289
I00
s(g438
g324
g251
tp1290
I00
s(g552
g438
g251
tp1291
I00
s(g375
g438
g251
tp1292
I00
s(g438
g1265
g251
tp1293
I01
s(g375
g552
g251
tp1294
I00
s(g438
g552
g251
tp1295
I01
s(g324
g250
g251
tp1296
I00
s(g501
g552
g251
tp1297
I00
s(g501
g250
g251
tp1298
I00
s(g250
g609
g251
tp1299
I01
s(g609
g438
g251
tp1300
I00
s(g324
g375
g251
tp1301
I00
s(g375
g1265
g251
tp1302
I01
s(g375
g324
g251
tp1303
I00
s(g609
g324
g251
tp1304
I00
s(g250
g438
g251
tp1305
I00
s(g609
g250
g251
tp1306
I01
s(g501
g438
g251
tp1307
I00
ssS'paths_to_reachable_entities'
p1308
NsS'use_shortest_path'
p1309
I01
sbsS'ternary_edges'
p1310
(dp1311
(g609
g609
g251
tp1312
(lp1313
I00
as(g375
S'loading_region'
p1314
g1314
tp1315
(lp1316
I00
as(S'entire_region'
p1317
g501
g251
tp1318
(lp1319
I00
as(g438
g1265
g1314
tp1320
(lp1321
I00
as(g251
g251
g251
tp1322
(lp1323
I00
as(g1265
g609
g1314
tp1324
(lp1325
I00
as(g375
g250
g251
tp1326
(lp1327
I01
as(g251
g324
g251
tp1328
(lp1329
I00
as(g438
g375
g251
tp1330
(lp1331
I00
as(g250
g324
g1314
tp1332
(lp1333
I00
as(g251
g1265
g1314
tp1334
(lp1335
I00
as(g438
g1317
g251
tp1336
(lp1337
I00
as(g1314
g251
g1314
tp1338
(lp1339
I00
as(g324
g552
g251
tp1340
(lp1341
I00
as(g1265
g1317
g251
tp1342
(lp1343
I00
as(g438
g501
g1314
tp1344
(lp1345
I00
as(g552
g1314
g251
tp1346
(lp1347
I00
as(g1317
g609
g1314
tp1348
(lp1349
I00
as(g251
g1317
g251
tp1350
(lp1351
I00
as(g609
g1314
g251
tp1352
(lp1353
I00
as(g552
g1317
g251
tp1354
(lp1355
I00
as(g375
g375
g1314
tp1356
(lp1357
I00
as(g1314
g1265
g1314
tp1358
(lp1359
I00
as(g1317
g1314
g251
tp1360
(lp1361
I00
as(g1317
g438
g251
tp1362
(lp1363
I00
as(g1314
g1314
g251
tp1364
(lp1365
I00
as(g552
g324
g1314
tp1366
(lp1367
I00
as(g251
g251
g1314
tp1368
(lp1369
I00
as(g501
g438
g1314
tp1370
(lp1371
I00
as(g609
g1265
g251
tp1372
(lp1373
I01
as(g552
g375
g251
tp1374
(lp1375
I00
as(g501
g251
g1314
tp1376
(lp1377
I00
as(g251
g609
g1314
tp1378
(lp1379
I00
as(g501
g250
g1314
tp1380
(lp1381
I00
as(g250
g501
g251
tp1382
(lp1383
I01
as(g1314
g375
g1314
tp1384
(lp1385
I00
as(g1265
g438
g1314
tp1386
(lp1387
I00
as(g609
g609
g1314
tp1388
(lp1389
I00
as(g1317
g1265
g251
tp1390
(lp1391
I00
as(g1314
g251
g251
tp1392
(lp1393
I00
as(g324
g609
g251
tp1394
(lp1395
I00
as(g251
g250
g251
tp1396
(lp1397
I00
as(g438
g501
g251
tp1398
(lp1399
I00
as(g250
g1265
g251
tp1400
(lp1401
I00
as(g375
g250
g1314
tp1402
(lp1403
I00
as(g552
g438
g251
tp1404
(lp1405
I00
as(g438
g375
g1314
tp1406
(lp1407
I00
as(g438
g609
g1314
tp1408
(lp1409
I00
as(g1317
g438
g1314
tp1410
(lp1411
I00
as(g1314
g250
g1314
tp1412
(lp1413
I00
as(g1317
g251
g251
tp1414
(lp1415
I00
as(g324
g251
g251
tp1416
(lp1417
I00
as(g1314
g1317
g251
tp1418
(lp1419
I00
as(g609
g1265
g1314
tp1420
(lp1421
I00
as(g552
g609
g1314
tp1422
(lp1423
I00
as(g552
g552
g251
tp1424
(lp1425
I00
as(g501
g250
g251
tp1426
(lp1427
I00
as(g1317
g609
g251
tp1428
(lp1429
I00
as(g501
g1314
g1314
tp1430
(lp1431
I00
as(g1265
g375
g251
tp1432
(lp1433
I00
as(g375
g375
g251
tp1434
(lp1435
I00
as(g375
g324
g251
tp1436
(lp1437
I00
as(g324
g609
g1314
tp1438
(lp1439
I00
as(g1265
g501
g1314
tp1440
(lp1441
I00
as(g552
g324
g251
tp1442
(lp1443
I00
as(g501
g438
g251
tp1444
(lp1445
I00
as(g609
g501
g1314
tp1446
(lp1447
I00
as(g501
g251
g251
tp1448
(lp1449
I00
as(g438
g609
g251
tp1450
(lp1451
I00
as(g609
g552
g251
tp1452
(lp1453
I00
as(g250
g501
g1314
tp1454
(lp1455
I00
as(g251
g438
g1314
tp1456
(lp1457
I00
as(g1317
g251
g1314
tp1458
(lp1459
I00
as(g1317
g1265
g1314
tp1460
(lp1461
I00
as(g552
g609
g251
tp1462
(lp1463
I01
as(g250
g552
g1314
tp1464
(lp1465
I00
as(g609
g1317
g1314
tp1466
(lp1467
I00
as(g501
g1314
g251
tp1468
(lp1469
I00
as(g552
g438
g1314
tp1470
(lp1471
I00
as(g552
g501
g1314
tp1472
(lp1473
I00
as(g1265
g375
g1314
tp1474
(lp1475
I00
as(g251
g250
g1314
tp1476
(lp1477
I00
as(g1317
g552
g1314
tp1478
(lp1479
I00
as(g1314
g250
g251
tp1480
(lp1481
I00
as(g1314
g438
g1314
tp1482
(lp1483
I00
as(g609
g501
g251
tp1484
(lp1485
I00
as(g1265
g501
g251
tp1486
(lp1487
I00
as(g1314
g552
g251
tp1488
(lp1489
I00
as(g609
g552
g1314
tp1490
(lp1491
I00
as(g609
g324
g1314
tp1492
(lp1493
I00
as(g250
g1265
g1314
tp1494
(lp1495
I00
as(g375
g324
g1314
tp1496
(lp1497
I00
as(g501
g552
g1314
tp1498
(lp1499
I00
as(g251
g375
g1314
tp1500
(lp1501
I00
as(g250
g1314
g1314
tp1502
(lp1503
I00
as(g324
g251
g1314
tp1504
(lp1505
I00
as(g375
g501
g251
tp1506
(lp1507
I01
as(g609
g1317
g251
tp1508
(lp1509
I00
as(g324
g438
g1314
tp1510
(lp1511
I00
as(g250
g609
g1314
tp1512
(lp1513
I00
as(g552
g501
g251
tp1514
(lp1515
I01
as(g1265
g1314
g1314
tp1516
(lp1517
I00
as(g438
g251
g251
tp1518
(lp1519
I00
as(g1265
g324
g251
tp1520
(lp1521
I00
as(g251
g552
g1314
tp1522
(lp1523
I00
as(g1314
g501
g1314
tp1524
(lp1525
I00
as(g1314
g552
g1314
tp1526
(lp1527
I00
as(g375
g552
g251
tp1528
(lp1529
I00
as(g501
g552
g251
tp1530
(lp1531
I00
as(g375
g501
g1314
tp1532
(lp1533
I00
as(g250
g609
g251
tp1534
(lp1535
I01
as(g609
g438
g251
tp1536
(lp1537
I00
as(g250
g251
g1314
tp1538
(lp1539
I00
as(g1265
g1314
g251
tp1540
(lp1541
I00
as(g1314
g324
g1314
tp1542
(lp1543
I00
as(g609
g324
g251
tp1544
(lp1545
I00
as(g250
g250
g251
tp1546
(lp1547
I00
as(g324
g324
g251
tp1548
(lp1549
I00
as(g324
g250
g1314
tp1550
(lp1551
I00
as(g250
g1314
g251
tp1552
(lp1553
I00
as(g552
g1265
g251
tp1554
(lp1555
I01
as(g324
g438
g251
tp1556
(lp1557
I00
as(g438
g1314
g1314
tp1558
(lp1559
I00
as(g250
g1317
g1314
tp1560
(lp1561
I00
as(g438
g251
g1314
tp1562
(lp1563
I00
as(g375
g438
g1314
tp1564
(lp1565
I00
as(g1265
g324
g1314
tp1566
(lp1567
I00
as(g552
g251
g1314
tp1568
(lp1569
I00
as(g250
g251
g251
tp1570
(lp1571
I00
as(g1314
g324
g251
tp1572
(lp1573
I00
as(g501
g501
g251
tp1574
(lp1575
I00
as(g1314
g1265
g251
tp1576
(lp1577
I00
as(g1265
g552
g251
tp1578
(lp1579
I00
as(g375
g609
g251
tp1580
(lp1581
I01
as(g375
g552
g1314
tp1582
(lp1583
I00
as(g324
g375
g1314
tp1584
(lp1585
I00
as(g251
g438
g251
tp1586
(lp1587
I00
as(g1317
g250
g1314
tp1588
(lp1589
I00
as(g250
g375
g251
tp1590
(lp1591
I00
as(g501
g1317
g251
tp1592
(lp1593
I00
as(g552
g1265
g1314
tp1594
(lp1595
I00
as(g552
g250
g1314
tp1596
(lp1597
I00
as(g324
g501
g251
tp1598
(lp1599
I01
as(g609
g438
g1314
tp1600
(lp1601
I00
as(g324
g1314
g251
tp1602
(lp1603
I00
as(g250
g1317
g251
tp1604
(lp1605
I00
as(g1265
g250
g1314
tp1606
(lp1607
I00
as(g609
g375
g251
tp1608
(lp1609
I00
as(g552
g375
g1314
tp1610
(lp1611
I00
as(g1265
g1265
g1314
tp1612
(lp1613
I00
as(g324
g324
g1314
tp1614
(lp1615
I00
as(g501
g501
g1314
tp1616
(lp1617
I00
as(g375
g1265
g1314
tp1618
(lp1619
I00
as(g1265
g438
g251
tp1620
(lp1621
I00
as(g1317
g375
g251
tp1622
(lp1623
I00
as(g251
g1317
g1314
tp1624
(lp1625
I00
as(g251
g501
g1314
tp1626
(lp1627
I00
as(g438
g1314
g251
tp1628
(lp1629
I00
as(g375
g609
g1314
tp1630
(lp1631
I00
as(g501
g375
g1314
tp1632
(lp1633
I00
as(g250
g250
g1314
tp1634
(lp1635
I00
as(g1317
g250
g251
tp1636
(lp1637
I00
as(g438
g250
g1314
tp1638
(lp1639
I00
as(g501
g1317
g1314
tp1640
(lp1641
I00
as(g375
g438
g251
tp1642
(lp1643
I00
as(g324
g501
g1314
tp1644
(lp1645
I00
as(g324
g250
g251
tp1646
(lp1647
I00
as(g1265
g250
g251
tp1648
(lp1649
I00
as(g375
g251
g1314
tp1650
(lp1651
I00
as(g438
g552
g251
tp1652
(lp1653
I01
as(g552
g552
g1314
tp1654
(lp1655
I00
as(g324
g1317
g251
tp1656
(lp1657
I00
as(g1314
g1317
g1314
tp1658
(lp1659
I00
as(g1265
g552
g1314
tp1660
(lp1661
I00
as(g1314
g501
g251
tp1662
(lp1663
I00
as(g1317
g1317
g1314
tp1664
(lp1665
I00
as(g324
g375
g251
tp1666
(lp1667
I00
as(g375
g1265
g251
tp1668
(lp1669
I01
as(g1314
g609
g1314
tp1670
(lp1671
I00
as(g250
g375
g1314
tp1672
(lp1673
I00
as(g552
g251
g251
tp1674
(lp1675
I00
as(g1317
g375
g1314
tp1676
(lp1677
I00
as(g552
g250
g251
tp1678
(lp1679
I01
as(g250
g438
g251
tp1680
(lp1681
I00
as(g324
g1314
g1314
tp1682
(lp1683
I00
as(g609
g375
g1314
tp1684
(lp1685
I00
as(g501
g609
g251
tp1686
(lp1687
I00
as(g1317
g1314
g1314
tp1688
(lp1689
I00
as(g1314
g609
g251
tp1690
(lp1691
I00
as(g375
g1317
g251
tp1692
(lp1693
I00
as(g438
g552
g1314
tp1694
(lp1695
I00
as(g438
g324
g1314
tp1696
(lp1697
I00
as(g1265
g251
g251
tp1698
(lp1699
I00
as(g324
g1317
g1314
tp1700
(lp1701
I00
as(g324
g1265
g251
tp1702
(lp1703
I00
as(g1317
g324
g1314
tp1704
(lp1705
I00
as(g251
g501
g251
tp1706
(lp1707
I00
as(g251
g552
g251
tp1708
(lp1709
I00
as(g501
g375
g251
tp1710
(lp1711
I00
as(g501
g324
g251
tp1712
(lp1713
I01
as(g1317
g552
g251
tp1714
(lp1715
I00
as(g438
g250
g251
tp1716
(lp1717
I01
as(g438
g438
g1314
tp1718
(lp1719
I00
as(g501
g1265
g1314
tp1720
(lp1721
I00
as(g1265
g251
g1314
tp1722
(lp1723
I00
as(g609
g251
g251
tp1724
(lp1725
I00
as(g375
g251
g251
tp1726
(lp1727
I00
as(g501
g609
g1314
tp1728
(lp1729
I00
as(g1265
g609
g251
tp1730
(lp1731
I00
as(g251
g1314
g251
tp1732
(lp1733
I00
as(g1317
g1317
g251
tp1734
(lp1735
I00
as(g609
g250
g1314
tp1736
(lp1737
I00
as(g375
g1317
g1314
tp1738
(lp1739
I00
as(g1314
g438
g251
tp1740
(lp1741
I00
as(g250
g324
g251
tp1742
(lp1743
I00
as(g1317
g324
g251
tp1744
(lp1745
I00
as(g375
g1314
g251
tp1746
(lp1747
I00
as(g250
g438
g1314
tp1748
(lp1749
I00
as(g251
g375
g251
tp1750
(lp1751
I00
as(g1317
g501
g1314
tp1752
(lp1753
I00
as(g1265
g1317
g1314
tp1754
(lp1755
I00
as(g438
g438
g251
tp1756
(lp1757
I00
as(g501
g1265
g251
tp1758
(lp1759
I01
as(g552
g1317
g1314
tp1760
(lp1761
I00
as(g438
g324
g251
tp1762
(lp1763
I00
as(g251
g1265
g251
tp1764
(lp1765
I00
as(g250
g552
g251
tp1766
(lp1767
I00
as(g324
g1265
g1314
tp1768
(lp1769
I00
as(g1265
g1265
g251
tp1770
(lp1771
I00
as(g501
g324
g1314
tp1772
(lp1773
I00
as(g438
g1265
g251
tp1774
(lp1775
I01
as(g552
g1314
g1314
tp1776
(lp1777
I00
as(g251
g609
g251
tp1778
(lp1779
I00
as(g609
g1314
g1314
tp1780
(lp1781
I00
as(g251
g324
g1314
tp1782
(lp1783
I00
as(g609
g251
g1314
tp1784
(lp1785
I00
as(g1314
g1314
g1314
tp1786
(lp1787
I00
as(g438
g1317
g1314
tp1788
(lp1789
I00
as(g324
g552
g1314
tp1790
(lp1791
I00
as(g251
g1314
g1314
tp1792
(lp1793
I00
as(g609
g250
g251
tp1794
(lp1795
I01
as(g1314
g375
g251
tp1796
(lp1797
I00
assg732
g733
sS'use_prm'
p1798
I01
sS'object_names'
p1799
(lp1800
S'square_packing_box1'
p1801
aS'rectangular_packing_box1'
p1802
aS'square_packing_box2'
p1803
aS'rectangular_packing_box2'
p1804
aS'square_packing_box3'
p1805
aS'rectangular_packing_box3'
p1806
aS'square_packing_box4'
p1807
aS'rectangular_packing_box4'
p1808
asg1255
NsS'current_holding_collides'
p1809
NsS'object_poses'
p1810
(dp1811
Vrectangular_packing_box4
p1812
g21
(g22
(I0
tp1813
g24
tp1814
Rp1815
(I1
(I1
I3
tp1816
g260
I00
S'\x84&\xfd\xa8\xc8\xba\x06@<\xc2\xf8\x17\xe9i\x16\xc0\x8c\xf3\xa7\x1d\xd0a\x17@'
p1817
tp1818
bsVrectangular_packing_box2
p1819
g21
(g22
(I0
tp1820
g24
tp1821
Rp1822
(I1
(I1
I3
tp1823
g260
I00
S'\x843C=\x9f%\xfb?J\x88\x9ak\xba\xd9\x19\xc0H\xed?\xbc\xd4[\x07@'
p1824
tp1825
bsVrectangular_packing_box3
p1826
g21
(g22
(I0
tp1827
g24
tp1828
Rp1829
(I1
(I1
I3
tp1830
g260
I00
S'\xb7\x98\xe3\x8al\xed\xf6?\xc5B&\xc1Zp\x1c\xc0\x17>7\xb3G\x9b\xc7?'
p1831
tp1832
bsVrectangular_packing_box1
p1833
g21
(g22
(I0
tp1834
g24
tp1835
Rp1836
(I1
(I1
I3
tp1837
g260
I00
S'\xd0\\r\xdc3\xa4\xfd?\xceD\x96S7\xbf\x15\xc0\xf5E&.\xd8\x98\x18@'
p1838
tp1839
bsVsquare_packing_box2
p1840
g21
(g22
(I0
tp1841
g24
tp1842
Rp1843
(I1
(I1
I3
tp1844
g260
I00
S'\xdc\x9b\xe9^\xdc$\xc7?\xf9& \x8d\x1c\x05\x1c\xc0\xd1\xd9z\x1fPg\x14@'
p1845
tp1846
bsVsquare_packing_box3
p1847
g21
(g22
(I0
tp1848
g24
tp1849
Rp1850
(I1
(I1
I3
tp1851
g260
I00
S'pz\xfcwQ\x8b\xcc?h\x03\x02dg\xb1\x1e\xc0:]g}\xc5\xac\x14@'
p1852
tp1853
bsVsquare_packing_box1
p1854
g21
(g22
(I0
tp1855
g24
tp1856
Rp1857
(I1
(I1
I3
tp1858
g260
I00
S'\x00\xb5\x1fC \x07\x05@\xa8\xc5\xb6\xa7\xce\x1b \xc0\xd4\xb2\x82\xd7\x18\xe4\x15@'
p1859
tp1860
bsVsquare_packing_box4
p1861
g21
(g22
(I0
tp1862
g24
tp1863
Rp1864
(I1
(I1
I3
tp1865
g260
I00
S'\x10(Qf\xa1\x9f\xd0?\x10,\xa8\xbaZ\x02\x16\xc0\x85\xaeqv\xa8:\x16@'
p1866
tp1867
bssS'reachable_regions_while_holding'
p1868
(lp1869
(g696
g1314
tp1870
a(g811
g1314
tp1871
a(g12
g1314
tp1872
a(g915
g1314
tp1873
a(g989
g1314
tp1874
a(g1063
g1314
tp1875
a(g74
g1314
tp1876
a(g1178
g1314
tp1877
a(g1178
g251
tp1878
asS'in_region'
p1879
(itrajectory_representation.predicates.in_region
InRegion
p1880
(dp1881
g1255
NsbsS'cached_pick_paths'
p1882
(dp1883
g696
(lp1884
g21
(g22
(I0
tp1885
g24
tp1886
Rp1887
(I1
(I3
tp1888
g260
I00
S'\xc4\x94\x8a\xa9\x86\xde\x07@\xc3\x02\xf5\x92C\xc4\x1b\xc0\xcd\xf4\xe0\x1c\x15H\xda?'
p1889
tp1890
bag757
asg811
(lp1891
g21
(g22
(I0
tp1892
g24
tp1893
Rp1894
(I1
(I3
tp1895
g260
I00
S'\xc4\x94\x8a\xa9\x86\xde\x07@\xc3\x02\xf5\x92C\xc4\x1b\xc0\xcd\xf4\xe0\x1c\x15H\xda?'
p1896
tp1897
bag21
(g22
(I0
tp1898
g24
tp1899
Rp1900
(I1
(I3
tp1901
g271
I00
S'P\x9d\xdf\x99\xa6e\x04@\x1c`\xb6c\x8e7\x19\xc0@\xf2\xef\xc5\xd3\xc8\x17@'
p1902
tp1903
bag21
(g22
(I0
tp1904
g24
tp1905
Rp1906
(I1
(I3
tp1907
g271
I00
S'\xb9\x81\xdfb\xdf\x92\xfe?\x1a\xe3?2\xb6\xec\x1a\xc0B\x1b\x81\xfa\x93C\xfa?'
p1908
tp1909
bag820
asg12
g896
sg915
(lp1910
g21
(g22
(I0
tp1911
g24
tp1912
Rp1913
(I1
(I3
tp1914
g260
I00
S'\xc4\x94\x8a\xa9\x86\xde\x07@\xc3\x02\xf5\x92C\xc4\x1b\xc0\xcd\xf4\xe0\x1c\x15H\xda?'
p1915
tp1916
bag21
(g22
(I0
tp1917
g24
tp1918
Rp1919
(I1
(I3
tp1920
g271
I00
S'\xe2\x90\xda\xb0m\x9a\x0b@7Q\xb0\xf5\xd4\xbe\x19\xc0\xee\xbc\x06\xc4\xdeD\xd0?'
p1921
tp1922
bag21
(g22
(I0
tp1923
g24
tp1924
Rp1925
(I1
(I3
tp1926
g271
I00
S'\xd3\xf0d\xd8 s\t@\x9a\x8b\x95n(`\x17\xc0\x9ay[\x87\xdb\x02\x10@'
p1927
tp1928
bag924
asg989
(lp1929
g21
(g22
(I0
tp1930
g24
tp1931
Rp1932
(I1
(I3
tp1933
g260
I00
S'\xc4\x94\x8a\xa9\x86\xde\x07@\xc3\x02\xf5\x92C\xc4\x1b\xc0\xcd\xf4\xe0\x1c\x15H\xda?'
p1934
tp1935
bag21
(g22
(I0
tp1936
g24
tp1937
Rp1938
(I1
(I3
tp1939
g271
I00
S'\xf6\x9c\xbc\xd8\xea\x86\x05@\xc8\t,\x83\x04\xa9\x1c\xc0HA\x84\xf4\xe0S\xf1?'
p1940
tp1941
bag21
(g22
(I0
tp1942
g24
tp1943
Rp1944
(I1
(I3
tp1945
g271
I00
S'b\x95[\xf7r*\x00@:\x8f7a\xbf]\x1c\xc0\x98.\xce\xc6\x89M\xf2?'
p1946
tp1947
bag21
(g22
(I0
tp1948
g24
tp1949
Rp1950
(I1
(I3
tp1951
g271
I00
S'X\xa4u\xbc=r\xf6?\x90\xee\xc4\x1eW\xf8\x1b\xc0\xcc: \xa4-\x95\x01\xc0'
p1952
tp1953
bag1004
asg1063
(lp1954
g21
(g22
(I0
tp1955
g24
tp1956
Rp1957
(I1
(I3
tp1958
g260
I00
S'\xc4\x94\x8a\xa9\x86\xde\x07@\xc3\x02\xf5\x92C\xc4\x1b\xc0\xcd\xf4\xe0\x1c\x15H\xda?'
p1959
tp1960
bag21
(g22
(I0
tp1961
g24
tp1962
Rp1963
(I1
(I3
tp1964
g271
I00
S'0\xf2\xd6\x9e\xed\xca\x04@\xdc>\xfd\x07B\x8f\x1d\xc0\xe2\xaf5\x16\xb4\x0c\xda?'
p1965
tp1966
bag21
(g22
(I0
tp1967
g24
tp1968
Rp1969
(I1
(I3
tp1970
g271
I00
S'\xb9O\xa7Y\x02\x91\x00@\x96d\x95\x0e\xe6\xda\x1e\xc0l\xef\x8e\x11Rk\xeb?'
p1971
tp1972
bag21
(g22
(I0
tp1973
g24
tp1974
Rp1975
(I1
(I3
tp1976
g271
I00
S'S@\xf8l\x95\x08\xf8?\xef\x91If\xa4L\x1e\xc0\x8b\xc5pa\xf4C\x04\xc0'
p1977
tp1978
bag1072
asg74
g1159
sg1178
(lp1979
g21
(g22
(I0
tp1980
g24
tp1981
Rp1982
(I1
(I3
tp1983
g260
I00
S'\xc4\x94\x8a\xa9\x86\xde\x07@\xc3\x02\xf5\x92C\xc4\x1b\xc0\xcd\xf4\xe0\x1c\x15H\xda?'
p1984
tp1985
bag21
(g22
(I0
tp1986
g24
tp1987
Rp1988
(I1
(I3
tp1989
g271
I00
S'\xc3#\x9b"m=\x05@O\x1c\xaf\xffo\x1c\x1b\xc0\xa4\xc19\xdd\xaa\xea\xdd?'
p1990
tp1991
bag21
(g22
(I0
tp1992
g24
tp1993
Rp1994
(I1
(I3
tp1995
g271
I00
S'\xb1\x91\x83\xd6J:\x00@X\xbf\x9b\xa3\xf7;\x19\xc0\xb4\xa9\x94\xff\xff\xd1\xec?'
p1996
tp1997
bag21
(g22
(I0
tp1998
g24
tp1999
Rp2000
(I1
(I3
tp2001
g271
I00
S'\xc2:\x1b=\xad,\xfa?(\x190\xa5<\xab\x16\xc0\x9d\x91\xdc8Kq\x01@'
p2002
tp2003
bag1199
assg697
(dp2004
(Vsquare_packing_box2
p2005
(cnumpy.core.multiarray
scalar
p2006
(g260
S'\x91\xb7\\\xfd\xd8$\xc7?'
p2007
tp2008
Rp2009
g2006
(g260
S'n\xf7r\x9f\x1c\x05\x1c\xc0'
p2010
tp2011
Rp2012
g2006
(g260
S'N\xb6\x81;Pg\x14@'
p2013
tp2014
Rp2015
tp2016
tp2017
g719
s(Vrectangular_packing_box1
p2018
(g2006
(g260
S'\x98\xde\xfe\\4\xa4\xfd?'
p2019
tp2020
Rp2021
g2006
(g260
S'\x7f4\x9c27\xbf\x15\xc0'
p2022
tp2023
Rp2024
g2006
(g260
S'h$B#\xd8\x98\x18@'
p2025
tp2026
Rp2027
tp2028
tp2029
g715
s(Vsquare_packing_box1
p2030
(g2006
(g260
S'I\x85\xb1\x85 \x07\x05@'
p2031
tp2032
Rp2033
g2006
(g260
S'I\xa0\xc1\xa6\xce\x1b \xc0'
p2034
tp2035
Rp2036
g2006
(g260
S'\xed\x9a\x90\xd6\x18\xe4\x15@'
p2037
tp2038
Rp2039
tp2040
tp2041
g727
s(Vrectangular_packing_box2
p2042
(g2006
(g260
S'\xf6\xd1\xa9+\x9f%\xfb?'
p2043
tp2044
Rp2045
g2006
(g260
S'}?5^\xba\xd9\x19\xc0'
p2046
tp2047
Rp2048
g2006
(g260
S'\xc9\xae\xb4\x8c\xd4[\x07@'
p2049
tp2050
Rp2051
tp2052
tp2053
g707
s(Vrectangular_packing_box3
p2054
(g2006
(g260
S'\x93\x005\xb5l\xed\xf6?'
p2055
tp2056
Rp2057
g2006
(g260
S'\xd8\xbc\xaa\xb3Zp\x1c\xc0'
p2058
tp2059
Rp2060
g2006
(g260
S'\xb9\x1bDkE\x9b\xc7?'
p2061
tp2062
Rp2063
tp2064
tp2065
g711
s(Vsquare_packing_box4
p2066
(g2006
(g260
S'\xfbZ\x97\x1a\xa1\x9f\xd0?'
p2067
tp2068
Rp2069
g2006
(g260
S'\x07AG\xabZ\x02\x16\xc0'
p2070
tp2071
Rp2072
g2006
(g260
S'\x92w\x0ee\xa8:\x16@'
p2073
tp2074
Rp2075
tp2076
tp2077
g731
s(Vsquare_packing_box3
p2078
(g2006
(g260
S'\xdb\xa6x\\T\x8b\xcc?'
p2079
tp2080
Rp2081
g2006
(g260
S'\xb9\xa6@fg\xb1\x1e\xc0'
p2082
tp2083
Rp2084
g2006
(g260
S'}v\xc0u\xc5\xac\x14@'
p2085
tp2086
Rp2087
tp2088
tp2089
g723
s(Vrectangular_packing_box4
p2090
(g2006
(g260
S'p`r\xa3\xc8\xba\x06@'
p2091
tp2092
Rp2093
g2006
(g260
S'w\xf6\x95\x07\xe9i\x16\xc0'
p2094
tp2095
Rp2096
g2006
(g260
S'\xa7t\xb0\xfe\xcfa\x17@'
p2097
tp2098
Rp2099
tp2100
tp2101
g703
ssS'state_saver'
p2102
(igtamp_utils.utils
CustomStateSaver
p2103
(dp2104
S'robot_base_pose'
p2105
g21
(g22
(I0
tp2106
g24
tp2107
Rp2108
(I1
(I1
I3
tp2109
g260
I00
S'\xbf\x94\x8a\xa9\x86\xde\x07@\xc2\x02\xf5\x92C\xc4\x1b\xc0\xcd\xf4\xe0\x1c\x15H\xda?'
p2110
tp2111
bsS'held_object'
p2112
NsS'robot_name'
p2113
S'pr2'
p2114
sS'env_id'
p2115
I1
sg1810
(dp2116
Vright_wall_1
p2117
g21
(g22
(I0
tp2118
g24
tp2119
Rp2120
(I1
(I4
tp2121
g260
I00
S'H\xe1z\x14\xaeG\x12@&\\\x8f\xc2\xf5(\xd4\xbf\xcc\x7fH\xbf}\x1d\xed?\x00\x00\x00\x00\x00\x00\x00\x00'
p2122
tp2123
bsVc_obst5
p2124
g21
(g22
(I0
tp2125
g24
tp2126
Rp2127
(I1
(I4
tp2128
g260
I00
S"\x0f\reX\xce0\x12@>\x01,+\x9b\xc2\xbb?e\xaa`TR'\xed?o\x90\xe3~\x12w\xba?"
p2129
tp2130
bsVentrance_right
p2131
g21
(g22
(I0
tp2132
g24
tp2133
Rp2134
(I1
(I4
tp2135
g260
I00
S'ffffff\n@H\xe1z\x14\xaeG\t\xc0\x9c\xc4 \xb0rh\xc1?\x00\x00\x00\x00\x00\x00\x00\x00'
p2136
tp2137
bsVcomputer_table
p2138
g21
(g22
(I0
tp2139
g24
tp2140
Rp2141
(I1
(I4
tp2142
g260
I00
S'\x00\x00\x00\x00\x00\x00\x13@\x00\x00\x00\x00\x00\x00\xf8\xbf\x96C\x8bl\xe7\xfb\xe7?\xd2!3\x7f|\xd9\x12@'
p2143
tp2144
bsVchair_6b56
p2145
g21
(g22
(I0
tp2146
g24
tp2147
Rp2148
(I1
(I4
tp2149
g260
I00
S'u=\n\xd7\xa3p\xf5?K\xe1z\x14\xaeG\xd1?\x00\x00\x00\x00\x00\x00\x00\x00\xd6$\xfaNBm\n@'
p2150
tp2151
bsVsquare_packing_box3
p2152
g21
(g22
(I0
tp2153
g24
tp2154
Rp2155
(I1
(I4
tp2156
g260
I00
S'lz\xfcwQ\x8b\xcc?j\x03\x02dg\xb1\x1e\xc0L7\x89A`\xe5\xd8?:]g}\xc5\xac\x14@'
p2157
tp2158
bsVsquare_packing_box2
p2159
g21
(g22
(I0
tp2160
g24
tp2161
Rp2162
(I1
(I4
tp2163
g260
I00
S',\x9c\xe9^\xdc$\xc7?\xfa& \x8d\x1c\x05\x1c\xc0L7\x89A`\xe5\xd8?\xd1\xd9z\x1fPg\x14@'
p2164
tp2165
bsVtable
p2166
g21
(g22
(I0
tp2167
g24
tp2168
Rp2169
(I1
(I4
tp2170
g260
I00
S'\x7f\xf6#EdX\xed?\xac\xffs\x98//\xc0\xbf\x00\x00\x00\x00\x00\x00\x00\x00\x00\x00\x00\x00\x00\x00\x00\x00'
p2171
tp2172
bsVsquare_packing_box1
p2173
g21
(g22
(I0
tp2174
g24
tp2175
Rp2176
(I1
(I4
tp2177
g260
I00
S'\x02\xb5\x1fC \x07\x05@\xa8\xc5\xb6\xa7\xce\x1b \xc0L7\x89A`\xe5\xd8?\xd4\xb2\x82\xd7\x18\xe4\x15@'
p2178
tp2179
bsVback_wall_2
p2180
g21
(g22
(I0
tp2181
g24
tp2182
Rp2183
(I1
(I4
tp2184
g260
I00
S'\xaeG\xe1z\x14.\x13@\x80\x14\xaeG\xe1z\xc4?xX\xa85\xcd\xbb\xf2?\x00\x00\x00\x00\x00\x00\x00\x00'
p2185
tp2186
bsVchair_083c
p2187
g21
(g22
(I0
tp2188
g24
tp2189
Rp2190
(I1
(I4
tp2191
g260
I00
S'\xa4p=\n\xd7\xa3\xe0?333333\xe3\xbf\x00\x00\x00\x00\x00\x00\x00\x00\x00\x00\x00\x00\x00\x00\x00\x00'
p2192
tp2193
bsVback_wall_1
p2194
g21
(g22
(I0
tp2195
g24
tp2196
Rp2197
(I1
(I4
tp2198
g260
I00
S'\xaeG\xe1z\x14.\x13@\x80\x14\xaeG\xe1z\xc4?\xcc\x7fH\xbf}\x1d\xed?\x00\x00\x00\x00\x00\x00\x00\x00'
p2199
tp2200
bsVbottom_wall
p2201
g21
(g22
(I0
tp2202
g24
tp2203
Rp2204
(I1
(I4
tp2205
g260
I00
S'\x00\x00\x00\x00\x00\x00\xfc?\x00\x00\x00\x00\x00\x00\x00\x00\x00\x00\x00\x00\x00\x00\x00\x00\x00\x00\x00\x00\x00\x00\x00\x00'
p2206
tp2207
bsVcup_905a
p2208
g21
(g22
(I0
tp2209
g24
tp2210
Rp2211
(I1
(I4
tp2212
g260
I00
S'\x00\x00\x00\x00\x00\x00\xf0?\x83\xc0\xca\xa1E\xb6\xdb?\x1b/\xdd$\x06\x81\xed?\x00\x00\x00\x00\x00\x00\x00\x00'
p2213
tp2214
bsVplate_496f
p2215
g21
(g22
(I0
tp2216
g24
tp2217
Rp2218
(I1
(I4
tp2219
g260
I00
S"q=\n\xd7\xa3p\xe5?\x9dhW!\xe5'\xdd\xbf\x1b/\xdd$\x06\x81\xed?\x00\x00\x00\x00\x00\x00\x00\x00"
p2220
tp2221
bsVtoaster
p2222
g21
(g22
(I0
tp2223
g24
tp2224
Rp2225
(I1
(I4
tp2226
g260
I00
S')\\\x8f\xc2\xf5(\xf4\xbf\xe0z\x14\xaeG\xe1\xf2\xbf\xb8\x1e\x85\xebQ\xb8\xee?\x89/`\x9b\xf8\x8a\xe4?'
p2227
tp2228
bsVc_obst1
p2229
g21
(g22
(I0
tp2230
g24
tp2231
Rp2232
(I1
(I4
tp2233
g260
I00
S'\xd9\xc4-\x19"\x1e\x12@\x94\x01\x8e\xcc\xf4_\xd7?e\xaa`TR\'\xed?\xdc\xcf\xc3\xba\xc1\x0e\x00@'
p2234
tp2235
bsVrectangular_packing_box4
p2236
g21
(g22
(I0
tp2237
g24
tp2238
Rp2239
(I1
(I4
tp2240
g260
I00
S'\x85&\xfd\xa8\xc8\xba\x06@;\xc2\xf8\x17\xe9i\x16\xc0L7\x89A`\xe5\xd8?\x8c\xf3\xa7\x1d\xd0a\x17@'
p2241
tp2242
bsVmicrowave
p2243
g21
(g22
(I0
tp2244
g24
tp2245
Rp2246
(I1
(I4
tp2247
g260
I00
S'\x9a\x99\x99\x99\x99\x99\xf1\xbf\x00\x00\x00\x00\x00\x00\x00@7\x89A`\xe5\xd0\xee?\x00\x00\x00\x00\x00\x00\x00\x00'
p2248
tp2249
bsVc_obst7
p2250
g21
(g22
(I0
tp2251
g24
tp2252
Rp2253
(I1
(I4
tp2254
g260
I00
S"\x99c\x8d\x8bq\xa6\x12@\xa87,\xac|\xfd\xa6?e\xaa`TR'\xed?\xab\x02\r$\xbbJ\x12@"
p2255
tp2256
bsVc_obst6
p2257
g21
(g22
(I0
tp2258
g24
tp2259
Rp2260
(I1
(I4
tp2261
g260
I00
S"\xb3\xd2c\xe5\x91\x18\x12@\xf6\n\x14\xf4\x1fu\xe0?e\xaa`TR'\xed?\x7f8\x81\x03\xce\xde\x17@"
p2262
tp2263
bsVcup_b6af
p2264
g21
(g22
(I0
tp2265
g24
tp2266
Rp2267
(I1
(I4
tp2268
g260
I00
S'R\xb8\x1e\x85\xebQ\xe8?\x9a\x99\x99\x99\x99\x99\xe1?\x1b/\xdd$\x06\x81\xed?\x00\x00\x00\x00\x00\x00\x00\x00'
p2269
tp2270
bsVc_obst4
p2271
g21
(g22
(I0
tp2272
g24
tp2273
Rp2274
(I1
(I4
tp2275
g260
I00
S"\xf3\xf4F5\xe5:\x12@\xb4\x9a\x91\x0e\xe3\x14\xdb?e\xaa`TR'\xed?\xb5\xa4\xeb\xb9[\x90\xf3?"
p2276
tp2277
bsVrectangular_packing_box2
p2278
g21
(g22
(I0
tp2279
g24
tp2280
Rp2281
(I1
(I4
tp2282
g260
I00
S'\x843C=\x9f%\xfb?N\x88\x9ak\xba\xd9\x19\xc0L7\x89A`\xe5\xd8?H\xed?\xbc\xd4[\x07@'
p2283
tp2284
bsVplate_fa76
p2285
g21
(g22
(I0
tp2286
g24
tp2287
Rp2288
(I1
(I4
tp2289
g260
I00
S'=\n\xd7\xa3p=\xf2?\x00\x00\x00\x00\x00\x00\x00\x00\x1b/\xdd$\x06\x81\xed?\x00\x00\x00\x00\x00\x00\x00\x00'
p2290
tp2291
bsVfloorwalls
p2292
g21
(g22
(I0
tp2293
g24
tp2294
Rp2295
(I1
(I4
tp2296
g260
I00
S'\xc7\xcc\xcc\xcc\xcc\xcc\xfc?\x00\x00\x00\x00\x00\x00\x18\xc0H\xe1z\x14\xaeG\xc1?\x16-DT\xfb!\xf9?'
p2297
tp2298
bsVpin_c671
p2299
g21
(g22
(I0
tp2300
g24
tp2301
Rp2302
(I1
(I4
tp2303
g260
I00
S'\xc3\xf5(\\\x8f\xc2\xf1\xbf}?5^\xbaI\x02@\xb8\x1e\x85\xebQ\xb8\xfa?\x00\x00\x00\x00\x00\x00\x00\x00'
p2304
tp2305
bsVc_obst3
p2306
g21
(g22
(I0
tp2307
g24
tp2308
Rp2309
(I1
(I4
tp2310
g260
I00
S"\xc3n\x80Oi\xf0\x11@\xc0\xc1Qbw,\xd4?e\xaa`TR'\xed?\x9a`\x90af9\x02@"
p2311
tp2312
bsVchair_2e39
p2313
g21
(g22
(I0
tp2314
g24
tp2315
Rp2316
(I1
(I4
tp2317
g260
I00
S'hfffff\xee?cfffff\xf2\xbf\x00\x00\x00\x00\x00\x00\x00\x00\x07M\xe8QQF\xf3?'
p2318
tp2319
bsVentrance_left
p2320
g21
(g22
(I0
tp2321
g24
tp2322
Rp2323
(I1
(I4
tp2324
g260
I00
S'\x98\x99\x99\x99\x99\x99\xe9\xbfH\xe1z\x14\xaeG\t\xc0\x9c\xc4 \xb0rh\xc1?\x00\x00\x00\x00\x00\x00\x00\x00'
p2325
tp2326
bsVtop_wall_1
p2327
g21
(g22
(I0
tp2328
g24
tp2329
Rp2330
(I1
(I4
tp2331
g260
I00
S'H\xe1z\x14\xaeG\x12@\x80\x14\xaeG\xe1z\xc4?xX\xa85\xcd\xbb\xf2?\x00\x00\x00\x00\x00\x00\x00\x00'
p2332
tp2333
bsVrectangular_packing_box3
p2334
g21
(g22
(I0
tp2335
g24
tp2336
Rp2337
(I1
(I4
tp2338
g260
I00
S'\xb5\x98\xe3\x8al\xed\xf6?\xc3B&\xc1Zp\x1c\xc0L7\x89A`\xe5\xd8?\x17>7\xb3G\x9b\xc7?'
p2339
tp2340
bsVshaker
p2341
g21
(g22
(I0
tp2342
g24
tp2343
Rp2344
(I1
(I4
tp2345
g260
I00
S'\n\xd7\xa3p=\n\x01@\x14\xaeG\xe1z\x14\x02@\\\x8f\xc2\xf5(\\\xef?\x00\x00\x00\x00\x00\x00\x00\x00'
p2346
tp2347
bsVc_obst9
p2348
g21
(g22
(I0
tp2349
g24
tp2350
Rp2351
(I1
(I4
tp2352
g260
I00
S'\xfe\x95\x95g|\xeb\x11@@\tnZ\xa31\x92?e\xaa`TR\'\xed?p\xd4\xddK\x8a"\x11@'
p2353
tp2354
bsVplate_835a
p2355
g21
(g22
(I0
tp2356
g24
tp2357
Rp2358
(I1
(I4
tp2359
g260
I00
S'\xf6(\\\x8f\xc2\xf5\xf0?\\\x8f\xc2\xf5(\\\xe7\xbf\x1b/\xdd$\x06\x81\xed?\x00\x00\x00\x00\x00\x00\x00\x00'
p2360
tp2361
bsVcup_58a2
p2362
g21
(g22
(I0
tp2363
g24
tp2364
Rp2365
(I1
(I4
tp2366
g260
I00
S'\x85\xebQ\xb8\x1e\x85\xe3?\xcd\xcc\xcc\xcc\xcc\xcc\xdc?\x1b/\xdd$\x06\x81\xed?\x00\x00\x00\x00\x00\x00\x00\x00'
p2367
tp2368
bsVleft_wall_1
p2369
g21
(g22
(I0
tp2370
g24
tp2371
Rp2372
(I1
(I4
tp2373
g260
I00
S'H\xe1z\x14\xaeG\x12@S\xb8\x1e\x85\xebQ\xe4?\xcc\x7fH\xbf}\x1d\xed?\x00\x00\x00\x00\x00\x00\x00\x00'
p2374
tp2375
bsVc_obst2
p2376
g21
(g22
(I0
tp2377
g24
tp2378
Rp2379
(I1
(I4
tp2380
g260
I00
S'y\x1e"\xd5\x13E\x12@\xc4\x98\x14\xcc0E\xb0\xbfe\xaa`TR\'\xed?\xads^\xf6\n\xe0\xec?'
p2381
tp2382
bsVsquare_packing_box4
p2383
g21
(g22
(I0
tp2384
g24
tp2385
Rp2386
(I1
(I4
tp2387
g260
I00
S'\x08(Qf\xa1\x9f\xd0?\r,\xa8\xbaZ\x02\x16\xc0L7\x89A`\xe5\xd8?\x85\xaeqv\xa8:\x16@'
p2388
tp2389
bsVrectangular_packing_box1
p2390
g21
(g22
(I0
tp2391
g24
tp2392
Rp2393
(I1
(I4
tp2394
g260
I00
S'\xcf\\r\xdc3\xa4\xfd?\xccD\x96S7\xbf\x15\xc0L7\x89A`\xe5\xd8?\xf5E&.\xd8\x98\x18@'
p2395
tp2396
bsVpin_371e
p2397
g21
(g22
(I0
tp2398
g24
tp2399
Rp2400
(I1
(I4
tp2401
g260
I00
S'333333\xf3\xbfffffff\xf6?\xb8\x1e\x85\xebQ\xb8\xee?\x00\x00\x00\x00\x00\x00\x00\x00'
p2402
tp2403
bsVfridge
p2404
g21
(g22
(I0
tp2405
g24
tp2406
Rp2407
(I1
(I4
tp2408
g260
I00
S'\xd7\xa3p=\n\xd7\xeb\xbf\x00\x00\x00\x00\x00\x00\x00\xc0\xcd\xcc\xcc\xcc\xcc\xcc\xf8?\x00\x00\x00\x00\x00\x00\x00\x00'
p2409
tp2410
bsVcup_d441
p2411
g21
(g22
(I0
tp2412
g24
tp2413
Rp2414
(I1
(I4
tp2415
g260
I00
S'\n\xd7\xa3p=\n\xef?\x8f\xc2\xf5(\\\x8f\xe2?\x1b/\xdd$\x06\x81\xed?\x00\x00\x00\x00\x00\x00\x00\x00'
p2416
tp2417
bsVshelf2
p2418
g21
(g22
(I0
tp2419
g24
tp2420
Rp2421
(I1
(I4
tp2422
g260
I00
S'\x00\x00\x00\x00\x00\x00\x0e@\xaeG\xe1z\x14\xae\x07@\x9c\xc4 \xb0rh\xc1?\xd2!3\x7f|\xd9\x12@'
p2423
tp2424
bsVtop_wall_2
p2425
g21
(g22
(I0
tp2426
g24
tp2427
Rp2428
(I1
(I4
tp2429
g260
I00
S'H\xe1z\x14\xaeG\x12@\x80\x14\xaeG\xe1z\xc4?\x16HP\xfc\x18\xf3\xfd?\x00\x00\x00\x00\x00\x00\x00\x00'
p2430
tp2431
bsVc_obst0
p2432
g21
(g22
(I0
tp2433
g24
tp2434
Rp2435
(I1
(I4
tp2436
g260
I00
S"\xe9\xc9\x1e\xe7$z\x12@\xc0\xbe\xb5\xf0?\x90\xde?e\xaa`TR'\xed?\x03H\xe7\xa03\xee\xf3?"
p2437
tp2438
bsVshelf1
p2439
g21
(g22
(I0
tp2440
g24
tp2441
Rp2442
(I1
(I4
tp2443
g260
I00
S'\x00\x00\x00\x00\x00\x00\x13@\xaeG\xe1z\x14\xae\x07@\x9c\xc4 \xb0rh\xc1?\xd2!3\x7f|\xd9\x12@'
p2444
tp2445
bsVsink
p2446
g21
(g22
(I0
tp2447
g24
tp2448
Rp2449
(I1
(I4
tp2450
g260
I00
S'ffffff\xd6?333333\x01@\x9a\x99\x99\x99\x99\x99\xb9\xbf\x00\x00\x00\x00\x00\x00\x00\x00'
p2451
tp2452
bsVpr2
p2453
g21
(g22
(I0
tp2454
g24
tp2455
Rp2456
(I1
(I4
tp2457
g260
I00
S'\xbc\x94\x8a\xa9\x86\xde\x07@\xc2\x02\xf5\x92C\xc4\x1b\xc0\x9a_\x94\xa0\xbf\xd0\xc1?\xcd\xf4\xe0\x1c\x15H\xda?'
p2458
tp2459
bsVchair_12d0
p2460
g21
(g22
(I0
tp2461
g24
tp2462
Rp2463
(I1
(I4
tp2464
g260
I00
S'\\\xd2\x18\xad\xa3\xaa\xdb?Of\x83L2r\xc6?\x00\x00\x00\x00\x00\x00\x00\x00\xf8\x81\r\x14M\xa6\x17@'
p2465
tp2466
bsVright_wall_2
p2467
g21
(g22
(I0
tp2468
g24
tp2469
Rp2470
(I1
(I4
tp2471
g260
I00
S'H\xe1z\x14\xaeG\x12@&\\\x8f\xc2\xf5(\xd4\xbfxX\xa85\xcd\xbb\xf2?\x00\x00\x00\x00\x00\x00\x00\x00'
p2472
tp2473
bsVknife_block
p2474
g21
(g22
(I0
tp2475
g24
tp2476
Rp2477
(I1
(I4
tp2478
g260
I00
S'R\xb8\x1e\x85\xebQ\xe0\xbfffffff\x02@`\xe5\xd0"\xdb\xf9\xee?\x00\x00\x00\x00\x00\x00\x00\x00'
p2479
tp2480
bsVleft_wall_2
p2481
g21
(g22
(I0
tp2482
g24
tp2483
Rp2484
(I1
(I4
tp2485
g260
I00
S'H\xe1z\x14\xaeG\x12@S\xb8\x1e\x85\xebQ\xe4?xX\xa85\xcd\xbb\xf2?\x00\x00\x00\x00\x00\x00\x00\x00'
p2486
tp2487
bsVleft_wall
p2488
g21
(g22
(I0
tp2489
g24
tp2490
Rp2491
(I1
(I4
tp2492
g260
I00
S'\x9a\x99\x99\x99\x99\x99\x07@H\xe1z\x14\xaeG\xff?\x9c\xc4 \xb0rh\xc1?\x00\x00\x00\x00\x00\x00\x00\x00'
p2493
tp2494
bsVkitchen
p2495
g21
(g22
(I0
tp2496
g24
tp2497
Rp2498
(I1
(I4
tp2499
g260
I00
S'\x00\x00\x00\x00\x00\x00\x00\x00\x00\x00\x00\x00\x00\x00\x00\x00\x00\x00\x00\x00\x00\x00\x00\x00\x00\x00\x00\x00\x00\x00\x00\x00'
p2500
tp2501
bsVtable2
p2502
g21
(g22
(I0
tp2503
g24
tp2504
Rp2505
(I1
(I4
tp2506
g260
I00
S'\x00\x00\x00\x00\x00\x00\x13@\x80\x14\xaeG\xe1z\xc4?S\x96!\x8euq\xec?\xd2!3\x7f|\xd9\x12@'
p2507
tp2508
bsVc_obst8
p2509
g21
(g22
(I0
tp2510
g24
tp2511
Rp2512
(I1
(I4
tp2513
g260
I00
S"\xc3[\xc1\x10SF\x12@\xc0\re\x1e\x90\xa7\xcd?e\xaa`TR'\xed?h)\xd9\x10\xc3E\xdd?"
p2514
tp2515
bsVplate_b4e7
p2516
g21
(g22
(I0
tp2517
g24
tp2518
Rp2519
(I1
(I4
tp2520
g260
I00
S'\x14\xaeG\xe1z\x14\xf2\xbf\x14\xaeG\xe1z\x14\x00@=\n\xd7\xa3p=\xf2?\x00\x00\x00\x00\x00\x00\x00\x00'
p2521
tp2522
bsVcooker
p2523
g21
(g22
(I0
tp2524
g24
tp2525
Rp2526
(I1
(I4
tp2527
g260
I00
S'\xaeG\xe1z\x14\xae\xff?\x85\xebQ\xb8\x1e\x85\xfb?\x00\x00\x00\x00\x00\x00\xe8?\x00\x00\x00\x00\x00\x00\x00\x00'
p2528
tp2529
bsVpin_a091
p2530
g21
(g22
(I0
tp2531
g24
tp2532
Rp2533
(I1
(I4
tp2534
g260
I00
S'\xdb\xf9~j\xbct\xf7\xbf)\\\x8f\xc2\xf5(\x02@\xb8\x1e\x85\xebQ\xb8\xfa?\x00\x00\x00\x00\x00\x00\x00\x00'
p2535
tp2536
bsVside_wall_2
p2537
g21
(g22
(I0
tp2538
g24
tp2539
Rp2540
(I1
(I4
tp2541
g260
I00
S'\xfa\xff\xff\xff\xff\xff\x14@\x00\x00\x00\x00\x00\x00\x00\x00\x9c\xc4 \xb0rh\xc1?\x18-DT\xfb!\xf9?'
p2542
tp2543
bsVside_wall_3
p2544
g21
(g22
(I0
tp2545
g24
tp2546
Rp2547
(I1
(I4
tp2548
g260
I00
S'\x00\x00\x00\x00\x00\x00\xfc?H\xe1z\x14\xaeG\t@\x9c\xc4 \xb0rh\xc1?\x00\x00\x00\x00\x00\x00\x00\x00'
p2549
tp2550
bsVmixer
p2551
g21
(g22
(I0
tp2552
g24
tp2553
Rp2554
(I1
(I4
tp2555
g260
I00
S'\n\xd7\xa3p=\n\xfb?ffffff\x02@d;\xdfO\x8d\x97\xee?\x00\x00\x00\x00\x00\x00\x00\x00'
p2556
tp2557
bsVside_wall_1
p2558
g21
(g22
(I0
tp2559
g24
tp2560
Rp2561
(I1
(I4
tp2562
g260
I00
S'\xf4\xff\xff\xff\xff\xff\xfb\xbf\x00\x00\x00\x00\x00\x00\x00\x00\x9c\xc4 \xb0rh\xc1?\x18-DT\xfb!\xf9?'
p2563
tp2564
bsVbottom_wall_1
p2565
g21
(g22
(I0
tp2566
g24
tp2567
Rp2568
(I1
(I4
tp2569
g260
I00
S'H\xe1z\x14\xaeG\x12@\x80\x14\xaeG\xe1z\xc4?\xcc\x7fH\xbf}\x1d\xed?\x00\x00\x00\x00\x00\x00\x00\x00'
p2570
tp2571
bsVcan
p2572
g21
(g22
(I0
tp2573
g24
tp2574
Rp2575
(I1
(I4
tp2576
g260
I00
S'\x00\x00\x00\x00\x00\x00\xf4\xbfH\xe1z\x14\xaeG\xe1\xbf\n\xd7\xa3p=\n\xef?\x00\x00\x00\x00\x00\x00\x00\x00'
p2577
tp2578
bsVright_wall
p2579
g21
(g22
(I0
tp2580
g24
tp2581
Rp2582
(I1
(I4
tp2583
g260
I00
S'\x9a\x99\x99\x99\x99\x99\x07@H\xe1z\x14\xaeG\xff\xbf\x9c\xc4 \xb0rh\xc1?\x00\x00\x00\x00\x00\x00\x00\x00'
p2584
tp2585
bsVcoffe_machine
p2586
g21
(g22
(I0
tp2587
g24
tp2588
Rp2589
(I1
(I4
tp2590
g260
I00
S'\\\x8f\xc2\xf5(\\\xf5\xbf\xb8\x1e\x85\xebQ\xb8\xee?\n\xd7\xa3p=\n\xef?\x00\x00\x00\x00\x00\x00\x00\x00'
p2591
tp2592
bsVcomputer_chair
p2593
g21
(g22
(I0
tp2594
g24
tp2595
Rp2596
(I1
(I4
tp2597
g260
I00
S'\xcd\xcc\xcc\xcc\xcc\xcc\x10@\x00\x00\x00\x00\x00\x00\xf8\xbf\xa00\xb6\x10\xe4\xa9\x95\xbf\x00\x00\x00\x00\x00\x00\x00\x00'
p2598
tp2599
bssS'robot_dof_values'
p2600
g21
(g22
(I0
tp2601
g24
tp2602
Rp2603
(I1
(I39
tp2604
g260
I00
S'\x00\x00\x00\x00\x00\x00\x00\x00\x00\x00\x00\x00\x00\x00\x00\x00\x00\x00\x00\x00\x00\x00\x00\x00\x00\x00\x00\x00\x00\x00\x00\x00\x00\x00\x00\x00\x00\x00\x00\x00\x00\x00\x00\x00\x00\x00\x00\x00\x00\x00\x00\x00\x00\x00\x00\x00\x00\x00\x00\x00\x00\x00\x00\x00\x00\x00\x00\x00\x00\x00\x00\x00\x00\x00\x00\x00\x00\x00\x00\x00\x00\x00\x00\x00\x00\x00\x00\x00\x00\x00\x00\x00\x00\x00\x00\x00@d;\xdfO\x8d\x87?\x00\x00\x00\x00\x00\x00\x00\x00\x00\x00\x00\x00\x00\x00\x00\x00\x00\x00\x00\x00\x00\x00\x00\x00\xec\xed\t\xf1\xcc\xa4\xf4?\x00\x00\x00\x00\x00\x00\xb0<M"\xd0^p\xf8\x00\xc0\x00\x00\x00\x00\x00\x00\x00\x00\x9b\x03\r.\x04V\xe6\xbf\x00\x00\x00\x00\x00\x00\x00\x00\x00\x00\x00\x00\x00\x00\x00\x00\x00\x00\x00\x00\x00\x00\xc1<\x00\x00\x00\x00\x00\x00\x00\x00\x00\x00\x00\x00\x00\x00\xe0\xbc\x00\x00\x00\x00\x00\x00\x00\x00\x00\x00\x00\x00\x00\x00\x00\x00\xeb\xed\t\xf1\xcc\xa4\xf4?\x00\x00\x00\x00\x00\x00\xb0<M"\xd0^p\xf8\x00\xc0\x00\x00\x00\x00\x00\x00\x00\x00\xa3\x03\r.\x04V\xe6\xbf\x00\x00\x00\x00\x00\x00\x00\x00\xcd9\xe3\xc17\x89\xe1?\x00\x00\x00\x00\x00\x00\xc3\xbc\x00\x00\x00\x00\x00\x00\x00\x00\x00\x00\x00\x00\x00\x00\x00\x00\x00\x00\x00\x00\x00\x00\x00\x00'
p2605
tp2606
bsS'is_holding'
p2607
I00
sbsS'holding_collides'
p2608
NsS'parent_ternary_predicates'
p2609
(dp2610
sS'cached_place_paths'
p2611
(dp2612
(g915
g1314
tp2613
(lp2614
g21
(g22
(I0
tp2615
g24
tp2616
Rp2617
(I1
(I3
tp2618
g260
I00
S'\xde\xa1K\x1cZN\x05@\xe0\x07\xc1b<+\x16\xc0\xfe$>,\x94\x15\x0b@'
p2619
tp2620
bas(g1178
g251
tp2621
(lp2622
g21
(g22
(I0
tp2623
g24
tp2624
Rp2625
(I1
(I3
tp2626
g260
I00
S'@z\xb1/\xd3\x00\xbf\xbf\xf2\x02\x97\xbc\xcd\x7f\x18\xc0L\x01\xc4\x98x\xe3\xeb?'
p2627
tp2628
bag21
(g22
(I0
tp2629
g24
tp2630
Rp2631
(I1
(I3
tp2632
g271
I00
S'O,\xcb\xfeY\x8e\xc7\xbf\xf0\xf7E?R\xcd\x19\xc0b\x97\xa7\xc3\xfe9\xfa?'
p2633
tp2634
bag21
(g22
(I0
tp2635
g24
tp2636
Rp2637
(I1
(I3
tp2638
g271
I00
S'`$W\xed\x83\x04\xe1?@\xe9\x80h\xcc\xf0\x18\xc0{2\xe8\xfe\xbeY\r@'
p2639
tp2640
bag21
(g22
(I0
tp2641
g24
tp2642
Rp2643
(I1
(I3
tp2644
g271
I00
S'f\xb4\x9c\x07\xac\xbf\xec?n\x96\x96\x9e\x90n\x16\xc0uo!\xa9\x9b\x82\x07@'
p2645
tp2646
bag21
(g22
(I0
tp2647
g24
tp2648
Rp2649
(I1
(I3
tp2650
g271
I00
S'm\xd5h\x072\x03\xea?\xdf\xe5\xe82\xd3\x17\x14\xc0\x08\x9e\xe1\xfbO\x94\x08@'
p2651
tp2652
bag21
(g22
(I0
tp2653
g24
tp2654
Rp2655
(I1
(I3
tp2656
g271
I00
S'\xc6\x05\xbdtg\xd9\xe2?F\xdf\x9d@\\\xf3\x11\xc0\x1a\xc4.\xbb\xcc\x12\x02@'
p2657
tp2658
bag21
(g22
(I0
tp2659
g24
tp2660
Rp2661
(I1
(I3
tp2662
g271
I00
S'3z\xed\x8eN)\xe4?\x0c\x96\xd4\xa2\x0e\xd0\r\xc0\xbd%\xf5{\xe9\xf9\x03@'
p2663
tp2664
bag21
(g22
(I0
tp2665
g24
tp2666
Rp2667
(I1
(I3
tp2668
g271
I00
S'\xaf0\xe9h\xba~\xee?k\xbb\xd8\xd4\xd0g\t\xc09\x9ey\xed\xb06\x06@'
p2669
tp2670
bag21
(g22
(I0
tp2671
g24
tp2672
Rp2673
(I1
(I3
tp2674
g271
I00
S'\xf4\xfdJ\x1a(#\xec?H"\x9cD\x1aE\x05\xc0.\xa9\x0b\x87\xf8\xe1\x02@'
p2675
tp2676
bas(g696
g251
tp2677
g326
s(g1063
g1314
tp2678
(lp2679
g21
(g22
(I0
tp2680
g24
tp2681
Rp2682
(I1
(I3
tp2683
g260
I00
S',\xf7J\xacd\xc5\xed?\xb1\xb88\x91\xbe\xd4\x1d\xc0+{\xf1\rc4\r@'
p2684
tp2685
bas(g696
g1314
tp2686
(lp2687
g21
(g22
(I0
tp2688
g24
tp2689
Rp2690
(I1
(I3
tp2691
g260
I00
S'\xa4}\xe7H)\xa2\x03@a\xc3\xfb%\xa6\xbb\x18\xc0\xa7\x17\xb2H=\x1e\xf3?'
p2692
tp2693
bas(g1063
g251
tp2694
g554
s(g989
g1314
tp2695
(lp2696
g21
(g22
(I0
tp2697
g24
tp2698
Rp2699
(I1
(I3
tp2700
g260
I00
S'\xe8\xf63\xad\xe0\xc6\xd9?zz6uC\xde\x1e\xc0J\x8d\tS\xa4\x07\x02@'
p2701
tp2702
bas(g989
g251
tp2703
g440
s(g74
g251
tp2704
g377
s(g12
g251
tp2705
g253
s(g12
g1314
tp2706
(lp2707
g21
(g22
(I0
tp2708
g24
tp2709
Rp2710
(I1
(I3
tp2711
g260
I00
S'=\xa9\x10u#\x9a\xf8?:[*\x9f7\x18\x1f\xc0\x8bf\xac]\x99\x1a\xfb?'
p2712
tp2713
bas(g1178
g1314
tp2714
(lp2715
g21
(g22
(I0
tp2716
g24
tp2717
Rp2718
(I1
(I3
tp2719
g260
I00
S'oz\xb1/\xd3\x00\xbf\xbf\xf2\x02\x97\xbc\xcd\x7f\x18\xc0M\x01\xc4\x98x\xe3\xeb?'
p2720
tp2721
bas(g74
g1314
tp2722
(lp2723
g21
(g22
(I0
tp2724
g24
tp2725
Rp2726
(I1
(I3
tp2727
g260
I00
S'\xc1{P\x92\x7f\x81\x08@\x9aV~\xc6\xfe\xdf\x1d\xc05^V\xd0\xa6e\x10@'
p2728
tp2729
bas(g811
g1314
tp2730
(lp2731
g21
(g22
(I0
tp2732
g24
tp2733
Rp2734
(I1
(I3
tp2735
g260
I00
S'=!\x94\xc3\x11\x01\xf7?*\xc0*j\x8cB\x1c\xc0\x08\x8ekmNV\xf4?'
p2736
tp2737
bas(g811
g251
tp2738
g611
s(g915
g251
tp2739
g503
ssS'parent_binary_predicates'
p2740
(dp2741
sS'nodes'
p2742
(dp2743
g1317
(lp2744
I0
aI0
aI0
aI0
aI0
aI0
aI00
aI01
aI00
aI01
aI00
asg1314
(lp2745
I0
aI0
aI0
aI0
aI0
aI0
aI00
aI01
aI00
aI01
aI00
asg251
(lp2746
I0
aI0
aI0
aI0
aI0
aI0
aI00
aI01
aI01
aI01
aI00
asg324
(lp2747
I0
aI0
aI0
ag2006
(g260
S'R&\xfd\xa8\xc8\xba\x06@'
p2748
tp2749
Rp2750
ag2006
(g260
S'H\xc2\xf8\x17\xe9i\x16\xc0'
p2751
tp2752
Rp2753
ag2006
(g260
S'\x8c\xf3\xa7\x1d\xd0a\x17@'
p2754
tp2755
Rp2756
aI01
aI00
aI00
aI01
aI00
asg609
(lp2757
I0
aI0
aI0
ag2006
(g260
S'[3C=\x9f%\xfb?'
p2758
tp2759
Rp2760
ag2006
(g260
S'\xfe\x87\x9ak\xba\xd9\x19\xc0'
p2761
tp2762
Rp2763
ag2006
(g260
S'H\xed?\xbc\xd4[\x07@'
p2764
tp2765
Rp2766
aI01
aI00
aI00
aI00
aI00
asg250
(lp2767
I0
aI0
aI0
ag2006
(g260
S'\xd0\x98\xe3\x8al\xed\xf6?'
p2768
tp2769
Rp2770
ag2006
(g260
S'\xe5B&\xc1Zp\x1c\xc0'
p2771
tp2772
Rp2773
ag2006
(g260
S'\x17>7\xb3G\x9b\xc7?'
p2774
tp2775
Rp2776
aI01
aI00
aI00
aI01
aI00
asg501
(lp2777
I0
aI0
aI0
ag2006
(g260
S'\xc9\\r\xdc3\xa4\xfd?'
p2778
tp2779
Rp2780
ag2006
(g260
S'\xf9D\x96S7\xbf\x15\xc0'
p2781
tp2782
Rp2783
ag2006
(g260
S'\xf5E&.\xd8\x98\x18@'
p2784
tp2785
Rp2786
aI01
aI00
aI00
aI00
aI00
asg438
(lp2787
I0
aI0
aI0
ag2006
(g260
S'\xcc\x89\xe9^\xdc$\xc7?'
p2788
tp2789
Rp2790
ag2006
(g260
S'\xda& \x8d\x1c\x05\x1c\xc0'
p2791
tp2792
Rp2793
ag2006
(g260
S'\xd0\xd9z\x1fPg\x14@'
p2794
tp2795
Rp2796
aI01
aI00
aI00
aI00
aI00
asg552
(lp2797
I0
aI0
aI0
ag2006
(g260
S'\x10x\xfcwQ\x8b\xcc?'
p2798
tp2799
Rp2800
ag2006
(g260
S'\xce\x01\x02dg\xb1\x1e\xc0'
p2801
tp2802
Rp2803
ag2006
(g260
S':]g}\xc5\xac\x14@'
p2804
tp2805
Rp2806
aI01
aI00
aI00
aI00
aI00
asg375
(lp2807
I0
aI0
aI0
ag2006
(g260
S'\xee\xb4\x1fC \x07\x05@'
p2808
tp2809
Rp2810
ag2006
(g260
S'\x8f\xc5\xb6\xa7\xce\x1b \xc0'
p2811
tp2812
Rp2813
ag2006
(g260
S'\xd4\xb2\x82\xd7\x18\xe4\x15@'
p2814
tp2815
Rp2816
aI01
aI00
aI01
aI01
aI00
asg1265
(lp2817
I0
aI0
aI0
ag2006
(g260
S'\x1b(Qf\xa1\x9f\xd0?'
p2818
tp2819
Rp2820
ag2006
(g260
S'D,\xa8\xbaZ\x02\x16\xc0'
p2821
tp2822
Rp2823
ag2006
(g260
S'\x85\xaeqv\xa8:\x16@'
p2824
tp2825
Rp2826
aI01
aI00
aI00
aI00
aI00
assS'mc_place_path'
p2827
(dp2828
sS'parent_state'
p2829
NsS'goal_entities'
p2830
(lp2831
S'square_packing_box1'
p2832
ag251
asS'binary_edges'
p2833
(dp2834
(g438
g1265
tp2835
(lp2836
I00
aI00
aI00
as(g438
g324
tp2837
(lp2838
I00
aI00
aI00
as(g250
g552
tp2839
(lp2840
I00
aI01
aI00
as(g250
g250
tp2841
(lp2842
I00
aI00
aI00
as(g609
g552
tp2843
(lp2844
I00
aI00
aI00
as(g609
g250
tp2845
(lp2846
I00
aI00
aI00
as(g1265
g609
tp2847
(lp2848
I00
aI00
aI00
as(g438
g375
tp2849
(lp2850
I00
aI00
aI00
as(g501
g250
tp2851
(lp2852
I00
aI00
aI00
as(g324
g324
tp2853
(lp2854
I00
aI00
aI00
as(g609
g1314
tp2855
(lp2856
g2006
(g28
(S'b1'
p2857
I0
I1
tp2858
Rp2859
(I3
S'|'
p2860
NNNI-1
I-1
I0
tp2861
bS'\x01'
p2862
tp2863
Rp2864
aI00
aI01
as(g1317
g1314
tp2865
(lp2866
I00
aI00
aI00
as(g324
g1265
tp2867
(lp2868
I00
aI00
aI00
as(g1314
g1265
tp2869
(lp2870
I00
aI00
aI00
as(g375
g251
tp2871
(lp2872
I00
aI00
aI00
as(g1317
g609
tp2873
(lp2874
I00
aI00
aI00
as(g609
g1265
tp2875
(lp2876
I00
aI01
aI00
as(g250
g1317
tp2877
(lp2878
g2864
aI00
aI00
as(g438
g438
tp2879
(lp2880
I00
aI00
aI00
as(g1314
g438
tp2881
(lp2882
I00
aI00
aI00
as(g552
g609
tp2883
(lp2884
I00
aI00
aI00
as(g609
g251
tp2885
(lp2886
I00
aI00
aI00
as(g501
g552
tp2887
(lp2888
I00
aI00
aI00
as(g324
g501
tp2889
(lp2890
I00
aI01
aI00
as(g375
g375
tp2891
(lp2892
I00
aI00
aI00
as(g609
g1317
tp2893
(lp2894
g2864
aI00
aI00
as(g1314
g609
tp2895
(lp2896
I00
aI00
aI00
as(g1314
g552
tp2897
(lp2898
I00
aI00
aI00
as(g1314
g250
tp2899
(lp2900
I00
aI00
aI00
as(g552
g251
tp2901
(lp2902
I00
aI00
aI00
as(g1265
g324
tp2903
(lp2904
I00
aI00
aI00
as(g501
g324
tp2905
(lp2906
I00
aI00
aI00
as(g552
g501
tp2907
(lp2908
I00
aI00
aI00
as(g1314
g324
tp2909
(lp2910
I00
aI00
aI00
as(g1317
g251
tp2911
(lp2912
I00
aI00
aI00
as(g375
g609
tp2913
(lp2914
I00
aI00
aI00
as(g324
g552
tp2915
(lp2916
I00
aI00
aI00
as(g1317
g552
tp2917
(lp2918
I00
aI00
aI00
as(g552
g1317
tp2919
(lp2920
g2864
aI00
aI00
as(g250
g438
tp2921
(lp2922
I00
aI01
aI00
as(g1265
g375
tp2923
(lp2924
I00
aI00
aI00
as(g250
g609
tp2925
(lp2926
I00
aI01
aI00
as(g1265
g251
tp2927
(lp2928
I00
aI00
aI01
as(g1317
g1317
tp2929
(lp2930
I00
aI00
aI00
as(g552
g324
tp2931
(lp2932
I00
aI00
aI00
as(g375
g438
tp2933
(lp2934
I00
aI00
aI00
as(g251
g375
tp2935
(lp2936
I00
aI00
aI00
as(g501
g1314
tp2937
(lp2938
g2864
aI00
aI01
as(g251
g501
tp2939
(lp2940
I00
aI00
aI00
as(g1265
g250
tp2941
(lp2942
I00
aI00
aI00
as(g250
g375
tp2943
(lp2944
I00
aI00
aI00
as(g552
g1314
tp2945
(lp2946
g2864
aI00
aI01
as(g250
g501
tp2947
(lp2948
I00
aI00
aI00
as(g552
g552
tp2949
(lp2950
I00
aI00
aI00
as(g501
g609
tp2951
(lp2952
I00
aI00
aI00
as(g1314
g251
tp2953
(lp2954
I00
aI00
aI00
as(g251
g438
tp2955
(lp2956
I00
aI00
aI00
as(g324
g251
tp2957
(lp2958
I00
aI00
aI00
as(g1317
g501
tp2959
(lp2960
I00
aI00
aI00
as(g251
g1265
tp2961
(lp2962
I00
aI00
aI00
as(g250
g1265
tp2963
(lp2964
I00
aI00
aI00
as(g501
g1317
tp2965
(lp2966
g2864
aI00
aI00
as(g1265
g1314
tp2967
(lp2968
g2864
aI00
aI01
as(g501
g438
tp2969
(lp2970
I00
aI00
aI00
as(g324
g609
tp2971
(lp2972
I00
aI00
aI00
as(g324
g1314
tp2973
(lp2974
g2864
aI00
aI01
as(g251
g250
tp2975
(lp2976
I00
aI00
aI00
as(g1317
g1265
tp2977
(lp2978
I00
aI00
aI00
as(g1317
g324
tp2979
(lp2980
I00
aI00
aI00
as(g501
g251
tp2981
(lp2982
I00
aI00
aI00
as(g438
g501
tp2983
(lp2984
I00
aI00
aI00
as(g375
g501
tp2985
(lp2986
I00
aI00
aI00
as(g251
g552
tp2987
(lp2988
I00
aI00
aI00
as(g1314
g1314
tp2989
(lp2990
I00
aI00
aI00
as(g438
g250
tp2991
(lp2992
I00
aI00
aI00
as(g375
g552
tp2993
(lp2994
I00
aI00
aI00
as(g1314
g375
tp2995
(lp2996
I00
aI00
aI00
as(g609
g324
tp2997
(lp2998
I00
aI00
aI00
as(g1314
g501
tp2999
(lp3000
I00
aI00
aI00
as(g375
g1317
tp3001
(lp3002
g2864
aI00
aI00
as(g438
g609
tp3003
(lp3004
I00
aI00
aI00
as(g250
g251
tp3005
(lp3006
I00
aI00
aI00
as(g375
g324
tp3007
(lp3008
I00
aI00
aI00
as(g324
g375
tp3009
(lp3010
I00
aI00
aI00
as(g609
g375
tp3011
(lp3012
I00
aI00
aI00
as(g1317
g438
tp3013
(lp3014
I00
aI00
aI00
as(g609
g501
tp3015
(lp3016
I00
aI00
aI00
as(g552
g438
tp3017
(lp3018
I00
aI00
aI00
as(g438
g1314
tp3019
(lp3020
g2864
aI00
aI01
as(g501
g501
tp3021
(lp3022
I00
aI00
aI00
as(g1265
g438
tp3023
(lp3024
I00
aI00
aI00
as(g375
g1265
tp3025
(lp3026
I00
aI00
aI00
as(g609
g438
tp3027
(lp3028
I00
aI01
aI00
as(g609
g609
tp3029
(lp3030
I00
aI00
aI00
as(g1265
g501
tp3031
(lp3032
I00
aI00
aI00
as(g438
g251
tp3033
(lp3034
I00
aI00
aI00
as(g552
g375
tp3035
(lp3036
I00
aI00
aI00
as(g250
g1314
tp3037
(lp3038
g2864
aI00
aI01
as(g251
g609
tp3039
(lp3040
I00
aI00
aI00
as(g501
g375
tp3041
(lp3042
I00
aI00
aI00
as(g324
g250
tp3043
(lp3044
I00
aI00
aI00
as(g251
g1314
tp3045
(lp3046
I00
aI00
aI00
as(g438
g552
tp3047
(lp3048
I00
aI00
aI00
as(g1317
g250
tp3049
(lp3050
I00
aI00
aI00
as(g438
g1317
tp3051
(lp3052
g2864
aI00
aI00
as(g552
g250
tp3053
(lp3054
I00
aI00
aI00
as(g251
g251
tp3055
(lp3056
I00
aI00
aI00
as(g501
g1265
tp3057
(lp3058
I00
aI01
aI00
as(g324
g1317
tp3059
(lp3060
g2864
aI00
aI00
as(g1265
g1317
tp3061
(lp3062
g2864
aI00
aI00
as(g251
g1317
tp3063
(lp3064
I00
aI00
aI00
as(g251
g324
tp3065
(lp3066
I00
aI00
aI00
as(g552
g1265
tp3067
(lp3068
I00
aI00
aI00
as(g1265
g552
tp3069
(lp3070
I00
aI00
aI00
as(g250
g324
tp3071
(lp3072
I00
aI00
aI00
as(g1314
g1317
tp3073
(lp3074
I00
aI00
aI00
as(g375
g250
tp3075
(lp3076
I00
aI00
aI00
as(g324
g438
tp3077
(lp3078
I00
aI00
aI00
as(g1265
g1265
tp3079
(lp3080
I00
aI00
aI00
as(g375
g1314
tp3081
(lp3082
g2864
aI00
aI01
as(g1317
g375
tp3083
(lp3084
I00
aI00
aI00
assg694
g695
sS'pick_in_way'
p3085
(itrajectory_representation.predicates.pick_in_way
PickInWay
p3086
(dp3087
g248
(dp3088
g324
g1884
sg609
g1891
sg250
g896
sg501
g1910
sg438
g1929
sg552
g1954
sg375
g1159
sg1265
g1979
ssg660
(dp3089
g324
(lp3090
sg609
(lp3091
Vrectangular_packing_box2
p3092
aVrectangular_packing_box3
p3093
asg250
(lp3094
sg501
(lp3095
Vrectangular_packing_box4
p3096
asg438
(lp3097
Vrectangular_packing_box2
p3098
aVrectangular_packing_box3
p3099
asg552
(lp3100
Vrectangular_packing_box3
p3101
asg375
(lp3102
sg1265
(lp3103
Vrectangular_packing_box2
p3104
aVrectangular_packing_box1
p3105
assg694
(lp3106
g250
ag324
ag1317
ag251
ag1314
ag375
ag1317
ag251
ag1314
ag1317
ag251
ag1314
ag1317
ag251
ag1314
ag1317
ag251
ag1314
ag1317
ag251
ag1314
ag1317
ag251
ag1314
ag1317
ag251
ag1314
asg697
g698
sg119
(dp3107
sg732
g733
sg1248
Nsg1254
g733
sg1251
(dp3108
sg1253
I8
sg1309
I01
sg1255
Nsg1256
(dp3109
(g438
g1265
tp3110
I00
s(g438
g324
tp3111
I00
s(g250
g552
tp3112
I01
s(g250
g250
tp3113
I00
s(g609
g552
tp3114
I00
s(g609
g250
tp3115
I00
s(g1265
g609
tp3116
I00
s(g438
g375
tp3117
I00
s(g501
g250
tp3118
I00
s(g324
g324
tp3119
I00
s(g609
g1314
tp3120
I00
s(g1317
g1314
tp3121
I00
s(g324
g1265
tp3122
I00
s(g1314
g1265
tp3123
I00
s(g375
g251
tp3124
I00
s(g1317
g609
tp3125
I00
s(g609
g1265
tp3126
I01
s(g250
g1317
tp3127
I00
s(g438
g438
tp3128
I00
s(g1314
g438
tp3129
I00
s(g552
g609
tp3130
I00
s(g609
g251
tp3131
I00
s(g501
g552
tp3132
I00
s(g324
g501
tp3133
I01
s(g375
g375
tp3134
I00
s(g609
g1317
tp3135
I00
s(g1314
g609
tp3136
I00
s(g1314
g552
tp3137
I00
s(g1314
g250
tp3138
I00
s(g552
g251
tp3139
I00
s(g1265
g324
tp3140
I00
s(g501
g324
tp3141
I00
s(g552
g501
tp3142
I00
s(g1314
g324
tp3143
I00
s(g1317
g251
tp3144
I00
s(g375
g609
tp3145
I00
s(g324
g552
tp3146
I00
s(g1317
g552
tp3147
I00
s(g552
g1317
tp3148
I00
s(g250
g438
tp3149
I01
s(g1265
g375
tp3150
I00
s(g250
g609
tp3151
I01
s(g1265
g251
tp3152
I00
s(g1317
g1317
tp3153
I00
s(g552
g324
tp3154
I00
s(g375
g438
tp3155
I00
s(g251
g375
tp3156
I00
s(g501
g1314
tp3157
I00
s(g251
g501
tp3158
I00
s(g1265
g250
tp3159
I00
s(g250
g375
tp3160
I00
s(g552
g1314
tp3161
I00
s(g250
g501
tp3162
I00
s(g552
g552
tp3163
I00
s(g501
g609
tp3164
I00
s(g1314
g251
tp3165
I00
s(g251
g438
tp3166
I00
s(g324
g251
tp3167
I00
s(g1317
g501
tp3168
I00
s(g251
g1265
tp3169
I00
s(g250
g1265
tp3170
I00
s(g501
g1317
tp3171
I00
s(g1265
g1314
tp3172
I00
s(g501
g438
tp3173
I00
s(g324
g609
tp3174
I00
s(g324
g1314
tp3175
I00
s(g251
g250
tp3176
I00
s(g1317
g1265
tp3177
I00
s(g1317
g324
tp3178
I00
s(g501
g251
tp3179
I00
s(g438
g501
tp3180
I00
s(g375
g501
tp3181
I00
s(g251
g552
tp3182
I00
s(g1314
g1314
tp3183
I00
s(g438
g250
tp3184
I00
s(g375
g552
tp3185
I00
s(g1314
g375
tp3186
I00
s(g609
g324
tp3187
I00
s(g1314
g501
tp3188
I00
s(g375
g1317
tp3189
I00
s(g438
g609
tp3190
I00
s(g250
g251
tp3191
I00
s(g375
g324
tp3192
I00
s(g324
g375
tp3193
I00
s(g609
g375
tp3194
I00
s(g1317
g438
tp3195
I00
s(g609
g501
tp3196
I00
s(g552
g438
tp3197
I00
s(g438
g1314
tp3198
I00
s(g501
g501
tp3199
I00
s(g1265
g438
tp3200
I00
s(g375
g1265
tp3201
I00
s(g609
g438
tp3202
I01
s(g609
g609
tp3203
I00
s(g1265
g501
tp3204
I00
s(g438
g251
tp3205
I00
s(g552
g375
tp3206
I00
s(g250
g1314
tp3207
I00
s(g251
g609
tp3208
I00
s(g501
g375
tp3209
I00
s(g324
g250
tp3210
I00
s(g251
g1314
tp3211
I00
s(g438
g552
tp3212
I00
s(g1317
g250
tp3213
I00
s(g438
g1317
tp3214
I00
s(g552
g250
tp3215
I00
s(g251
g251
tp3216
I00
s(g501
g1265
tp3217
I01
s(g324
g1317
tp3218
I00
s(g1265
g1317
tp3219
I00
s(g251
g1317
tp3220
I00
s(g251
g324
tp3221
I00
s(g552
g1265
tp3222
I00
s(g1265
g552
tp3223
I00
s(g250
g324
tp3224
I00
s(g1314
g1317
tp3225
I00
s(g375
g250
tp3226
I00
s(g324
g438
tp3227
I00
s(g1265
g1265
tp3228
I00
s(g375
g1314
tp3229
I00
s(g1317
g375
tp3230
I00
ssg1308
NsbsS'robot_pose'
p3231
g21
(g22
(I0
tp3232
g24
tp3233
Rp3234
(I1
(I1
I3
tp3235
g260
I00
S'\xc1\x94\x8a\xa9\x86\xde\x07@\xc2\x02\xf5\x92C\xc4\x1b\xc0\xcd\xf4\xe0\x1c\x15H\xda?'
p3236
tp3237
bsS'is_holding_goal_entity'
p3238
(itrajectory_representation.predicates.is_holding_goal_entity
IsHoldingGoalEntity
p3239
(dp3240
g2830
g2831
sg1255
NsbsS'mc_pick_path'
p3241
(dp3242
sS'current_collides'
p3243
g698
sba(itrajectory_representation.shortest_path_pick_and_place_state
ShortestPathPaPState
p3244
(dp3245
g119
(dp3246
g122
(itrajectory_representation.operator
Operator
p3247
(dp3248
g8
I01
sg9
(dp3249
g126
g76
sg11
g121
ssg16
g127
sg18
(dp3250
g20
g21
(g22
(I0
tp3251
g24
tp3252
Rp3253
(I1
(I3
tp3254
g31
I00
S'\x18\xdcZ\x80\x02\x17\xbb?\xd0\xc6wrv\x99\x04\xc0K\xf5\x9b\xa0)\xeb\xe2?'
p3255
tp3256
bssg46
(lp3257
g21
(g22
(I0
tp3258
g24
tp3259
Rp3260
(I1
(I3
tp3261
g31
I00
S'\xb4{P\x92\x7f\x81\x08@\xa8V~\xc6\xfe\xdf\x1d\xc06^V\xd0\xa6e\x10@'
p3262
tp3263
bag21
(g22
(I0
tp3264
g24
tp3265
Rp3266
(I1
(I3
tp3267
g60
I00
S'^\xcd\x14~%\xc5\x03@\xfel\xd3\x16S\xe0\x1d\xc0\x82\x18\xf2;\xe9\xd6\x07\xc0'
p3268
tp3269
bag21
(g22
(I0
tp3270
g24
tp3271
Rp3272
(I1
(I3
tp3273
g60
I00
S'j3^\x1e\x86u\xff?:\xcbg\xab\x92\xaa\x1f\xc0\x05\x95\xa3X\x1c\x93\x07\xc0'
p3274
tp3275
bag21
(g22
(I0
tp3276
g24
tp3277
Rp3278
(I1
(I3
tp3279
g60
I00
S'S@\xf8l\x95\x08\xf8?\xef\x91If\xa4L\x1e\xc0\x8b\xc5pa\xf4C\x04\xc0'
p3280
tp3281
bag21
(g22
(I0
tp3282
g24
tp3283
Rp3284
(I1
(I3
tp3285
g60
I00
S'\xba)c\x05l\x93\xf4?\x8f\x0f\xa1<\xee\x05\x1c\xc0\xf9-\x16\x17\xc6`\xf8\xbf'
p3286
tp3287
bag21
(g22
(I0
tp3288
g24
tp3289
Rp3290
(I1
(I3
tp3291
g60
I00
S'\xb0\xcfg\xd5._\xe8?\xd6\x8d\xba\x87\x91D\x1a\xc0\xea!\xf73\x0cB\xf7\xbf'
p3292
tp3293
bag21
(g22
(I0
tp3294
g24
tp3295
Rp3296
(I1
(I3
tp3297
g60
I00
S'\x07\xe5\xeeo\xc2@\xf0?\x80*\x19Ng\xcf\x17\xc0\xccm\xca\xd2+4\x0f@'
p3298
tp3299
bag21
(g22
(I0
tp3300
g24
tp3301
Rp3302
(I1
(I3
tp3303
g60
I00
S'tx\x8as\xa8b\xed?\x9ej\x15\xfa\xf0{\x15\xc0@\xed\x9a-\x9eD\xf2\xbf'
p3304
tp3305
bag21
(g22
(I0
tp3306
g24
tp3307
Rp3308
(I1
(I3
tp3309
g60
I00
S'\xb0E\xbb;Cb\xeb?\x9e\xde\xa7\xdd\xbdd\x12\xc0\xc6\xee\xbd\x16\x8c\xaa\xf3\xbf'
p3310
tp3311
bag21
(g22
(I0
tp3312
g24
tp3313
Rp3314
(I1
(I3
tp3315
g60
I00
S'`\xc8Aw-\x81\xeb?/\xc3\xe6O\x04\xca\x10\xc0\x8a\xb7K)\x91{\xe4\xbf'
p3316
tp3317
bag21
(g22
(I0
tp3318
g24
tp3319
Rp3320
(I1
(I3
tp3321
g60
I00
S'\xe1\xc6\xc7\xa7\x12X\xe7?\x98\x99\xb0\x9a\xfb\xdb\x0b\xc0R\t\x1b)\xeae\xe0\xbf'
p3322
tp3323
bag21
(g22
(I0
tp3324
g24
tp3325
Rp3326
(I1
(I3
tp3327
g60
I00
S'X91+\xcd0\xe7?\x10t\x86\x8cV\xe3\x05\xc0\xfe\xb2\xd83\xdc\xcb\xee?'
p3328
tp3329
bag3253
ag3253
asbssg245
(itrajectory_representation.predicates.place_in_way
PlaceInWay
p3330
(dp3331
g248
(dp3332
(g324
g251
tp3333
(lp3334
g21
(g22
(I0
tp3335
g24
tp3336
Rp3337
(I1
(I3
tp3338
g260
I00
S'\x9d}\xe7H)\xa2\x03@`\xc3\xfb%\xa6\xbb\x18\xc0\xa8\x17\xb2H=\x1e\xf3?'
p3339
tp3340
bag21
(g22
(I0
tp3341
g24
tp3342
Rp3343
(I1
(I3
tp3344
g271
I00
S'/\xe1\x02^.|\x00@\xb8\xae\xc5\xcfF\x16\x17\xc0\xf8\x01)d\xc5\xf9\xe2?'
p3345
tp3346
bag21
(g22
(I0
tp3347
g24
tp3348
Rp3349
(I1
(I3
tp3350
g271
I00
S'\x85\\2\xba\x0b5\xf5?I\r\x06\xd10\xfb\x15\xc0\x9e\x11\xee\xd8\xb9\xd7\xf5?'
p3351
tp3352
bag21
(g22
(I0
tp3353
g24
tp3354
Rp3355
(I1
(I3
tp3356
g271
I00
S'v\xb8^\x85\xa7[\xea?x\xbe\xff2t\x8d\x13\xc0\x88\x85\x8cCyH\xf6?'
p3357
tp3358
bag21
(g22
(I0
tp3359
g24
tp3360
Rp3361
(I1
(I3
tp3362
g271
I00
S'\xc2\xda(e\x83\x1a\xeb?\x8au\x8d3\xa6E\x11\xc0\xb4c\x1b\xed_\xfd\xfa?'
p3363
tp3364
bag21
(g22
(I0
tp3365
g24
tp3366
Rp3367
(I1
(I3
tp3368
g271
I00
S'\xe4u**\x0e5\xe9?\xaa\xfd\r\xed\xc4\xf6\r\xc0\x0fDE0\x1f\x0b\xfe?'
p3369
tp3370
bag21
(g22
(I0
tp3371
g24
tp3372
Rp3373
(I1
(I3
tp3374
g271
I00
S'\x06\x11,\xef\x98O\xe7??\x10\x01s=b\t\xc04\x92\xb79o\x8c\x00@'
p3375
tp3376
bag21
(g22
(I0
tp3377
g24
tp3378
Rp3379
(I1
(I3
tp3380
g271
I00
S'\x92\xaf\xf3P\x96O\xc2?(\xa1:\x8er}\x05\xc0\xd4_\x91\xb3\xffL\x02@'
p3381
tp3382
bas(g250
g251
tp3383
(lp3384
g21
(g22
(I0
tp3385
g24
tp3386
Rp3387
(I1
(I3
tp3388
g260
I00
S'$\xe5%i\xe3,\xfb?\x10y\xf5D\xc9;\x18\xc0?:\xfbk#\xb4\x18@'
p3389
tp3390
bag21
(g22
(I0
tp3391
g24
tp3392
Rp3393
(I1
(I3
tp3394
g271
I00
S"\x1aq\xa1\x96-\xd2\xec?\xa2\x8f\xd2'\xa1I\x18\xc0\x06\xea(\x89^*\xf2\xbf"
p3395
tp3396
bag21
(g22
(I0
tp3397
g24
tp3398
Rp3399
(I1
(I3
tp3400
g271
I00
S'\xac\xb4\xd5\x83\xbb\xf9\xe0?\xe1\x80\xe9+%\xe6\x16\xc0<\xd6N\xab\x06\xcc\xf7\xbf'
p3401
tp3402
bag21
(g22
(I0
tp3403
g24
tp3404
Rp3405
(I1
(I3
tp3406
g271
I00
S"\xb2&6mg)\xe8?\x99\xe0G'\x16\xe0\x13\xc0\xc8oL\xf5\x17p\xe6\xbf"
p3407
tp3408
bag21
(g22
(I0
tp3409
g24
tp3410
Rp3411
(I1
(I3
tp3412
g271
I00
S'`\xc8Aw-\x81\xeb?/\xc3\xe6O\x04\xca\x10\xc0\x8a\xb7K)\x91{\xe4\xbf'
p3413
tp3414
bag21
(g22
(I0
tp3415
g24
tp3416
Rp3417
(I1
(I3
tp3418
g271
I00
S'\xe1\xc6\xc7\xa7\x12X\xe7?\x98\x99\xb0\x9a\xfb\xdb\x0b\xc0R\t\x1b)\xeae\xe0\xbf'
p3419
tp3420
bag21
(g22
(I0
tp3421
g24
tp3422
Rp3423
(I1
(I3
tp3424
g271
I00
S'p\xf1\xbdc^\x84\xf1?"\x88LL\xf9D\x06\xc0~w\r\xe9m\x0f\x19@'
p3425
tp3426
bas(g501
g251
tp3427
(lp3428
g21
(g22
(I0
tp3429
g24
tp3430
Rp3431
(I1
(I3
tp3432
g260
I00
S'\xde\xa1K\x1cZN\x05@\xde\x07\xc1b<+\x16\xc0\xfe$>,\x94\x15\x0b@'
p3433
tp3434
bag21
(g22
(I0
tp3435
g24
tp3436
Rp3437
(I1
(I3
tp3438
g271
I00
S'_\x1fd\x97D>\x00@W\xf2\x9b\xb2\x92\xd8\x15\xc0\x99\xbc\xd43\xf6\xfa\x08\xc0'
p3439
tp3440
bag21
(g22
(I0
tp3441
g24
tp3442
Rp3443
(I1
(I3
tp3444
g271
I00
S'R\x12);\xaf\xa5\xf7?\xf3\xf9\xeb\x07c\xef\x15\xc0\xf0V^\xd6\x94\x96\x05\xc0'
p3445
tp3446
bag21
(g22
(I0
tp3447
g24
tp3448
Rp3449
(I1
(I3
tp3450
g271
I00
S'\xd0\xcb\x13\x8f\xaa\x9d\xed?\x90\x01<]3\x06\x16\xc0F\xf1\xe7x32\x02\xc0'
p3451
tp3452
bag21
(g22
(I0
tp3453
g24
tp3454
Rp3455
(I1
(I3
tp3456
g271
I00
S'l[\xc4\x16<\xe6\xe9?\xa6\xa0\x90\x84X\x9f\x13\xc0\xc2\xd74Q\x00\xaf\xff\xbf'
p3457
tp3458
bag21
(g22
(I0
tp3459
g24
tp3460
Rp3461
(I1
(I3
tp3462
g271
I00
S"\xaeJ\xbd\x1936\xec?\x04\x13\xd4'\x9f\x88\x10\xc0\x805qo\xb6\xe6\xff\xbf"
p3463
tp3464
bag21
(g22
(I0
tp3465
g24
tp3466
Rp3467
(I1
(I3
tp3468
g271
I00
S'\xf09\xb6\x1c*\x86\xee?\xc4\n/\x96\xcb\xe3\n\xc0\xa0\xc9\xd6F6\x0f\x00\xc0'
p3469
tp3470
bag21
(g22
(I0
tp3471
g24
tp3472
Rp3473
(I1
(I3
tp3474
g271
I00
S'3\xe9\xaf\x05T\x89\xe7?+~\xcb\xd3\x15\xc7\x04\xc0x6(d5\xed\x07@'
p3475
tp3476
bas(g438
g251
tp3477
(lp3478
g21
(g22
(I0
tp3479
g24
tp3480
Rp3481
(I1
(I3
tp3482
g260
I00
S'\x00\xf73\xad\xe0\xc6\xd9?vz6uC\xde\x1e\xc0K\x8d\tS\xa4\x07\x02@'
p3483
tp3484
bag21
(g22
(I0
tp3485
g24
tp3486
Rp3487
(I1
(I3
tp3488
g271
I00
S'\xc4n\xb3\xbcO\x07\xe0?\xd0\x17\x1bE\xa1\xce\x1d\xc0\x95\xcf\xf4\xdc\x03J\xf9?'
p3489
tp3490
bag21
(g22
(I0
tp3491
g24
tp3492
Rp3493
(I1
(I3
tp3494
g271
I00
S'\x00{\xeeM\xfb\x06\xd8?\xa7W\x1e\xc1\xa5F\x1b\xc0\xd0\xcaV\x8a\x88D\xf6?'
p3495
tp3496
bag21
(g22
(I0
tp3497
g24
tp3498
Rp3499
(I1
(I3
tp3500
g271
I00
S'B\x9aa8\x98\xa6\xe8?\xf3\xe9\x94/\xc2\xe4\x18\xc0u\xf8\xb0\x7fO\xb8\xf2?'
p3501
tp3502
bag21
(g22
(I0
tp3503
g24
tp3504
Rp3505
(I1
(I3
tp3506
g271
I00
S'\xd8\x87\x03p)T\xe4?\xd5\xabI\xb7V\xd0\x15\xc0vWg\x9a\x87\x8a\xec?'
p3507
tp3508
bag21
(g22
(I0
tp3509
g24
tp3510
Rp3511
(I1
(I3
tp3512
g271
I00
S'\xa9\xd9\x1d\x8d\xa6j\xdf?\xa0\x85\x1a\x84\xc6\xec\x12\xc0\x01\xb6 H\xb1\x91\xeb?'
p3513
tp3514
bag21
(g22
(I0
tp3515
g24
tp3516
Rp3517
(I1
(I3
tp3518
g271
I00
S'\x93k\xbc\xee\xc2\x10\xe8?\xab^\x86?\x08D\x10\xc0\x10;2\x00\xe5\t\xde?'
p3519
tp3520
bag21
(g22
(I0
tp3521
g24
tp3522
Rp3523
(I1
(I3
tp3524
g271
I00
S'\xef\xc3u*\xfb\xdb\xeb?\x8d\xa5\n\xfd\x03<\n\xc0\xd8\xfb\xde\x16R\xac\xde?'
p3525
tp3526
bag21
(g22
(I0
tp3527
g24
tp3528
Rp3529
(I1
(I3
tp3530
g271
I00
S'\xf4\xfdJ\x1a(#\xec?H"\x9cD\x1aE\x05\xc0.\xa9\x0b\x87\xf8\xe1\x02@'
p3531
tp3532
bassg660
(dp3533
(g324
g251
tp3534
(lp3535
Vrectangular_packing_box3
p3536
aVrectangular_packing_box1
p3537
as(g250
g251
tp3538
(lp3539
Vrectangular_packing_box2
p3540
aVsquare_packing_box4
p3541
aVrectangular_packing_box1
p3542
as(g501
g251
tp3543
(lp3544
Vrectangular_packing_box4
p3545
aVsquare_packing_box4
p3546
as(g438
g251
tp3547
(lp3548
Vsquare_packing_box3
p3549
aVsquare_packing_box4
p3550
assg694
(lp3551
Vrectangular_packing_box2
p3552
aVsquare_packing_box2
p3553
aVsquare_packing_box3
p3554
ag74
aVsquare_packing_box4
p3555
asg697
(dp3556
Vrectangular_packing_box4
p3557
g703
sVrectangular_packing_box2
p3558
g707
sVrectangular_packing_box3
p3559
g700
((lp3560
I2
aI3
aI393
aI395
aI538
aI288
aI161
aI37
aI38
aI39
aI41
aI302
aI561
aI178
aI435
aI309
aI54
aI188
aI62
aI63
aI64
aI577
aI194
aI201
aI79
aI376
aI595
aI348
aI89
aI90
aI219
aI92
aI605
aI611
aI550
aI114
aI115
aI372
aI248
aI379
aI511
atp3561
Rp3562
sVrectangular_packing_box1
p3563
g715
sVsquare_packing_box2
p3564
g719
sVsquare_packing_box3
p3565
g723
sVsquare_packing_box1
p3566
g727
sVsquare_packing_box4
p3567
g731
ssg119
g3246
sg732
(dp3568
Vrectangular_packing_box4
p3569
g734
sg3552
g812
sVrectangular_packing_box3
p3570
(itrajectory_representation.operator
Operator
p3571
(dp3572
g8
I01
sg9
(dp3573
g737
Vrectangular_packing_box3
p3574
ssg16
g739
sg18
(dp3575
g741
(lp3576
g21
(g22
(I0
tp3577
g24
tp3578
Rp3579
(I1
(I3
tp3580
g260
I00
S'!\xe5%i\xe3,\xfb?\x10y\xf5D\xc9;\x18\xc0T\xb6<\x12\xfau\xbb\xbf'
p3581
tp3582
bag21
(g22
(I0
tp3583
g24
tp3584
Rp3585
(I1
(I3
tp3586
g260
I00
S'${\x9bin\x0b\n@\xad\xbd\xbf:\x8f\xe1\x17\xc00\x0f\x0e\xac\x15\xb3\x03\xc0'
p3587
tp3588
bag21
(g22
(I0
tp3589
g24
tp3590
Rp3591
(I1
(I3
tp3592
g260
I00
S'\xd9^\xca\xe3]j\xf9?Bo\x05\xd3z\xed\x18\xc0\xbauu\xf7\x1e\xca\xc6\xbf'
p3593
tp3594
basg761
I00
ssg46
(lp3595
g21
(g22
(I0
tp3596
g24
tp3597
Rp3598
(I1
(I3
tp3599
g260
I00
S'@\xddZ\x80\x02\x17\xbb?\xdc\xc6wrv\x99\x04\xc0A\xf5\x9b\xa0)\xeb\xe2?'
p3600
tp3601
bag21
(g22
(I0
tp3602
g24
tp3603
Rp3604
(I1
(I3
tp3605
g271
I00
S'X91+\xcd0\xe7?\x10t\x86\x8cV\xe3\x05\xc0\xfe\xb2\xd83\xdc\xcb\xee?'
p3606
tp3607
bag21
(g22
(I0
tp3608
g24
tp3609
Rp3610
(I1
(I3
tp3611
g271
I00
S'\xef\xc3u*\xfb\xdb\xeb?\x8d\xa5\n\xfd\x03<\n\xc0\xd8\xfb\xde\x16R\xac\xde?'
p3612
tp3613
bag21
(g22
(I0
tp3614
g24
tp3615
Rp3616
(I1
(I3
tp3617
g271
I00
S'\x93k\xbc\xee\xc2\x10\xe8?\xab^\x86?\x08D\x10\xc0\x10;2\x00\xe5\t\xde?'
p3618
tp3619
bag21
(g22
(I0
tp3620
g24
tp3621
Rp3622
(I1
(I3
tp3623
g271
I00
S'\xa9\xd9\x1d\x8d\xa6j\xdf?\xa0\x85\x1a\x84\xc6\xec\x12\xc0\x01\xb6 H\xb1\x91\xeb?'
p3624
tp3625
bag21
(g22
(I0
tp3626
g24
tp3627
Rp3628
(I1
(I3
tp3629
g271
I00
S'\xd8\x87\x03p)T\xe4?\xd5\xabI\xb7V\xd0\x15\xc0vWg\x9a\x87\x8a\xec?'
p3630
tp3631
bag21
(g22
(I0
tp3632
g24
tp3633
Rp3634
(I1
(I3
tp3635
g271
I00
S'N\xcd\xaa\x1e;\x0f\xee?&\xa8j\x7f\xa2\xe5\x17\xc0\xc1rR\xf6\xd1Y\xe0\xbf'
p3636
tp3637
bag3591
asbsVrectangular_packing_box1
p3638
g916
sg3553
g990
sg3554
g1064
sg74
(itrajectory_representation.operator
Operator
p3639
(dp3640
g8
I01
sg9
(dp3641
g11
g74
ssg16
g888
sg18
(dp3642
g20
g21
(g22
(I0
tp3643
g24
tp3644
Rp3645
(I1
(I3
tp3646
g31
I00
S'\xc2{P\x92\x7f\x81\x08@\x99V~\xc6\xfe\xdf\x1d\xc0\xc6\x9d\xdb\x07\xa9x\x01\xc0'
p3647
tp3648
bssg46
(lp3649
g21
(g22
(I0
tp3650
g24
tp3651
Rp3652
(I1
(I3
tp3653
g260
I00
S'\x14\x89\xc8K\xf8\xc3\x03@\xf4M\xcc\xae\xe9\xa7\x1b\xc0\xb9O{\xd4\xcfo\xf9?'
p3654
tp3655
bag21
(g22
(I0
tp3656
g24
tp3657
Rp3658
(I1
(I3
tp3659
g271
I00
S'\xf6\x9c\xbc\xd8\xea\x86\x05@\xc8\t,\x83\x04\xa9\x1c\xc0HA\x84\xf4\xe0S\xf1?'
p3660
tp3661
bag21
(g22
(I0
tp3662
g24
tp3663
Rp3664
(I1
(I3
tp3665
g271
I00
S'py\xe7\x92\x10\x1c\x08@_z\xb4M\xdc\xbc\x1b\xc0\xe2\x81s\x12\x81\x12\x08\xc0'
p3666
tp3667
bag3645
asbsg3555
g1179
ssg1246
(dp3668
sg1248
Nsg1249
(lp3669
sg1251
(dp3670
sg1253
I0
sg1254
g3568
sg1255
Nsg1256
(dp3671
(g250
g552
g251
tp3672
I00
s(g250
g501
g251
tp3673
I01
s(g250
g1265
g251
tp3674
I01
s(g324
g250
g251
tp3675
I01
s(g501
g250
g251
tp3676
I00
s(g250
g609
g251
tp3677
I01
s(g250
g375
g251
tp3678
I00
s(g250
g438
g251
tp3679
I00
s(g250
g324
g251
tp3680
I00
s(g438
g250
g251
tp3681
I00
ssg1308
Nsg1309
I01
sbsg1310
(dp3682
(g609
g609
g251
tp3683
g1313
s(g375
g1314
g1314
tp3684
g1316
s(g1317
g501
g251
tp3685
g1319
s(g438
g1265
g1314
tp3686
g1321
s(g251
g251
g251
tp3687
g1323
s(g1265
g609
g1314
tp3688
g1325
s(g375
g250
g251
tp3689
(lp3690
I00
as(g251
g324
g251
tp3691
g1329
s(g438
g375
g251
tp3692
g1331
s(g250
g324
g1314
tp3693
(lp3694
I00
as(g251
g1265
g1314
tp3695
g1335
s(g438
g1317
g251
tp3696
g1337
s(g1314
g251
g1314
tp3697
g1339
s(g324
g552
g251
tp3698
g1341
s(g1265
g1317
g251
tp3699
g1343
s(g438
g501
g1314
tp3700
g1345
s(g552
g1314
g251
tp3701
g1347
s(g1317
g609
g1314
tp3702
g1349
s(g251
g1317
g251
tp3703
g1351
s(g609
g1314
g251
tp3704
g1353
s(g552
g1317
g251
tp3705
g1355
s(g375
g375
g1314
tp3706
g1357
s(g1314
g1265
g1314
tp3707
g1359
s(g1317
g1314
g251
tp3708
g1361
s(g1317
g438
g251
tp3709
g1363
s(g1314
g1314
g251
tp3710
g1365
s(g552
g324
g1314
tp3711
g1367
s(g251
g251
g1314
tp3712
g1369
s(g501
g438
g1314
tp3713
g1371
s(g609
g1265
g251
tp3714
g1373
s(g552
g375
g251
tp3715
g1375
s(g501
g251
g1314
tp3716
g1377
s(g251
g609
g1314
tp3717
g1379
s(g501
g250
g1314
tp3718
(lp3719
I00
as(g250
g501
g251
tp3720
(lp3721
I01
as(g1314
g375
g1314
tp3722
g1385
s(g1265
g438
g1314
tp3723
g1387
s(g609
g609
g1314
tp3724
g1389
s(g1317
g1265
g251
tp3725
g1391
s(g1314
g251
g251
tp3726
g1393
s(g324
g609
g251
tp3727
g1395
s(g251
g250
g251
tp3728
(lp3729
I00
as(g438
g501
g251
tp3730
g1399
s(g250
g1265
g251
tp3731
(lp3732
I01
as(g375
g250
g1314
tp3733
(lp3734
I00
as(g552
g438
g251
tp3735
g1405
s(g438
g375
g1314
tp3736
g1407
s(g438
g609
g1314
tp3737
g1409
s(g1317
g438
g1314
tp3738
g1411
s(g1314
g250
g1314
tp3739
(lp3740
I00
as(g1317
g251
g251
tp3741
g1415
s(g324
g251
g251
tp3742
g1417
s(g1314
g1317
g251
tp3743
g1419
s(g609
g1265
g1314
tp3744
g1421
s(g552
g609
g1314
tp3745
g1423
s(g552
g552
g251
tp3746
g1425
s(g501
g250
g251
tp3747
(lp3748
I00
as(g1317
g609
g251
tp3749
g1429
s(g501
g1314
g1314
tp3750
g1431
s(g1265
g375
g251
tp3751
g1433
s(g375
g375
g251
tp3752
g1435
s(g375
g324
g251
tp3753
g1437
s(g324
g609
g1314
tp3754
g1439
s(g1265
g501
g1314
tp3755
g1441
s(g552
g324
g251
tp3756
g1443
s(g501
g438
g251
tp3757
g1445
s(g609
g501
g1314
tp3758
g1447
s(g501
g251
g251
tp3759
g1449
s(g438
g609
g251
tp3760
g1451
s(g609
g552
g251
tp3761
g1453
s(g250
g501
g1314
tp3762
(lp3763
I00
as(g251
g438
g1314
tp3764
g1457
s(g1317
g251
g1314
tp3765
g1459
s(g1317
g1265
g1314
tp3766
g1461
s(g552
g609
g251
tp3767
g1463
s(g250
g552
g1314
tp3768
(lp3769
I00
as(g609
g1317
g1314
tp3770
g1467
s(g501
g1314
g251
tp3771
g1469
s(g552
g438
g1314
tp3772
g1471
s(g552
g501
g1314
tp3773
g1473
s(g1265
g375
g1314
tp3774
g1475
s(g251
g250
g1314
tp3775
(lp3776
I00
as(g1317
g552
g1314
tp3777
g1479
s(g1314
g250
g251
tp3778
(lp3779
I00
as(g1314
g438
g1314
tp3780
g1483
s(g609
g501
g251
tp3781
g1485
s(g1265
g501
g251
tp3782
g1487
s(g1314
g552
g251
tp3783
g1489
s(g609
g552
g1314
tp3784
g1491
s(g609
g324
g1314
tp3785
g1493
s(g250
g1265
g1314
tp3786
(lp3787
I00
as(g375
g324
g1314
tp3788
g1497
s(g501
g552
g1314
tp3789
g1499
s(g251
g375
g1314
tp3790
g1501
s(g250
g1314
g1314
tp3791
(lp3792
I00
as(g324
g251
g1314
tp3793
g1505
s(g375
g501
g251
tp3794
g1507
s(g609
g1317
g251
tp3795
g1509
s(g324
g438
g1314
tp3796
g1511
s(g250
g609
g1314
tp3797
(lp3798
I00
as(g552
g501
g251
tp3799
g1515
s(g1265
g1314
g1314
tp3800
g1517
s(g438
g251
g251
tp3801
g1519
s(g1265
g324
g251
tp3802
g1521
s(g251
g552
g1314
tp3803
g1523
s(g1314
g501
g1314
tp3804
g1525
s(g1314
g552
g1314
tp3805
g1527
s(g375
g552
g251
tp3806
g1529
s(g501
g552
g251
tp3807
g1531
s(g375
g501
g1314
tp3808
g1533
s(g250
g609
g251
tp3809
(lp3810
I01
as(g609
g438
g251
tp3811
g1537
s(g250
g251
g1314
tp3812
(lp3813
I00
as(g1265
g1314
g251
tp3814
g1541
s(g1314
g324
g1314
tp3815
g1543
s(g609
g324
g251
tp3816
g1545
s(g250
g250
g251
tp3817
(lp3818
I00
as(g324
g324
g251
tp3819
g1549
s(g324
g250
g1314
tp3820
(lp3821
I00
as(g250
g1314
g251
tp3822
(lp3823
I00
as(g552
g1265
g251
tp3824
g1555
s(g324
g438
g251
tp3825
g1557
s(g438
g1314
g1314
tp3826
g1559
s(g250
g1317
g1314
tp3827
(lp3828
I00
as(g438
g251
g1314
tp3829
g1563
s(g375
g438
g1314
tp3830
g1565
s(g1265
g324
g1314
tp3831
g1567
s(g552
g251
g1314
tp3832
g1569
s(g250
g251
g251
tp3833
(lp3834
I00
as(g1314
g324
g251
tp3835
g1573
s(g501
g501
g251
tp3836
g1575
s(g1314
g1265
g251
tp3837
g1577
s(g1265
g552
g251
tp3838
g1579
s(g375
g609
g251
tp3839
g1581
s(g375
g552
g1314
tp3840
g1583
s(g324
g375
g1314
tp3841
g1585
s(g251
g438
g251
tp3842
g1587
s(g1317
g250
g1314
tp3843
(lp3844
I00
as(g250
g375
g251
tp3845
(lp3846
I00
as(g501
g1317
g251
tp3847
g1593
s(g552
g1265
g1314
tp3848
g1595
s(g552
g250
g1314
tp3849
(lp3850
I00
as(g324
g501
g251
tp3851
g1599
s(g609
g438
g1314
tp3852
g1601
s(g324
g1314
g251
tp3853
g1603
s(g250
g1317
g251
tp3854
(lp3855
I00
as(g1265
g250
g1314
tp3856
(lp3857
I00
as(g609
g375
g251
tp3858
g1609
s(g552
g375
g1314
tp3859
g1611
s(g1265
g1265
g1314
tp3860
g1613
s(g324
g324
g1314
tp3861
g1615
s(g501
g501
g1314
tp3862
g1617
s(g375
g1265
g1314
tp3863
g1619
s(g1265
g438
g251
tp3864
g1621
s(g1317
g375
g251
tp3865
g1623
s(g251
g1317
g1314
tp3866
g1625
s(g251
g501
g1314
tp3867
g1627
s(g438
g1314
g251
tp3868
g1629
s(g375
g609
g1314
tp3869
g1631
s(g501
g375
g1314
tp3870
g1633
s(g250
g250
g1314
tp3871
(lp3872
I00
as(g1317
g250
g251
tp3873
(lp3874
I00
as(g438
g250
g1314
tp3875
(lp3876
I00
as(g501
g1317
g1314
tp3877
g1641
s(g375
g438
g251
tp3878
g1643
s(g324
g501
g1314
tp3879
g1645
s(g324
g250
g251
tp3880
(lp3881
I01
as(g1265
g250
g251
tp3882
(lp3883
I00
as(g375
g251
g1314
tp3884
g1651
s(g438
g552
g251
tp3885
g1653
s(g552
g552
g1314
tp3886
g1655
s(g324
g1317
g251
tp3887
g1657
s(g1314
g1317
g1314
tp3888
g1659
s(g1265
g552
g1314
tp3889
g1661
s(g1314
g501
g251
tp3890
g1663
s(g1317
g1317
g1314
tp3891
g1665
s(g324
g375
g251
tp3892
g1667
s(g375
g1265
g251
tp3893
g1669
s(g1314
g609
g1314
tp3894
g1671
s(g250
g375
g1314
tp3895
(lp3896
I00
as(g552
g251
g251
tp3897
g1675
s(g1317
g375
g1314
tp3898
g1677
s(g552
g250
g251
tp3899
(lp3900
I00
as(g250
g438
g251
tp3901
(lp3902
I00
as(g324
g1314
g1314
tp3903
g1683
s(g609
g375
g1314
tp3904
g1685
s(g501
g609
g251
tp3905
g1687
s(g1317
g1314
g1314
tp3906
g1689
s(g1314
g609
g251
tp3907
g1691
s(g375
g1317
g251
tp3908
g1693
s(g438
g552
g1314
tp3909
g1695
s(g438
g324
g1314
tp3910
g1697
s(g1265
g251
g251
tp3911
g1699
s(g324
g1317
g1314
tp3912
g1701
s(g324
g1265
g251
tp3913
g1703
s(g1317
g324
g1314
tp3914
g1705
s(g251
g501
g251
tp3915
g1707
s(g251
g552
g251
tp3916
g1709
s(g501
g375
g251
tp3917
g1711
s(g501
g324
g251
tp3918
g1713
s(g1317
g552
g251
tp3919
g1715
s(g438
g250
g251
tp3920
(lp3921
I00
as(g438
g438
g1314
tp3922
g1719
s(g501
g1265
g1314
tp3923
g1721
s(g1265
g251
g1314
tp3924
g1723
s(g609
g251
g251
tp3925
g1725
s(g375
g251
g251
tp3926
g1727
s(g501
g609
g1314
tp3927
g1729
s(g1265
g609
g251
tp3928
g1731
s(g251
g1314
g251
tp3929
g1733
s(g1317
g1317
g251
tp3930
g1735
s(g609
g250
g1314
tp3931
(lp3932
I00
as(g375
g1317
g1314
tp3933
g1739
s(g1314
g438
g251
tp3934
g1741
s(g250
g324
g251
tp3935
(lp3936
I00
as(g1317
g324
g251
tp3937
g1745
s(g375
g1314
g251
tp3938
g1747
s(g250
g438
g1314
tp3939
(lp3940
I00
as(g251
g375
g251
tp3941
g1751
s(g1317
g501
g1314
tp3942
g1753
s(g1265
g1317
g1314
tp3943
g1755
s(g438
g438
g251
tp3944
g1757
s(g501
g1265
g251
tp3945
g1759
s(g552
g1317
g1314
tp3946
g1761
s(g438
g324
g251
tp3947
g1763
s(g251
g1265
g251
tp3948
g1765
s(g250
g552
g251
tp3949
(lp3950
I00
as(g324
g1265
g1314
tp3951
g1769
s(g1265
g1265
g251
tp3952
g1771
s(g501
g324
g1314
tp3953
g1773
s(g438
g1265
g251
tp3954
g1775
s(g552
g1314
g1314
tp3955
g1777
s(g251
g609
g251
tp3956
g1779
s(g609
g1314
g1314
tp3957
g1781
s(g251
g324
g1314
tp3958
g1783
s(g609
g251
g1314
tp3959
g1785
s(g1314
g1314
g1314
tp3960
g1787
s(g438
g1317
g1314
tp3961
g1789
s(g324
g552
g1314
tp3962
g1791
s(g251
g1314
g1314
tp3963
g1793
s(g609
g250
g251
tp3964
(lp3965
I00
as(g1314
g375
g251
tp3966
g1797
ssg732
g3568
sg1798
I01
sg1799
(lp3967
S'square_packing_box1'
p3968
aS'rectangular_packing_box1'
p3969
aS'square_packing_box2'
p3970
aS'rectangular_packing_box2'
p3971
aS'square_packing_box3'
p3972
aS'rectangular_packing_box3'
p3973
aS'square_packing_box4'
p3974
aS'rectangular_packing_box4'
p3975
asg1255
Nsg1809
Nsg1810
(dp3976
Vrectangular_packing_box4
p3977
g21
(g22
(I0
tp3978
g24
tp3979
Rp3980
(I1
(I1
I3
tp3981
g260
I00
S'Q&\xfd\xa8\xc8\xba\x06@I\xc2\xf8\x17\xe9i\x16\xc0\x8c\xf3\xa7\x1d\xd0a\x17@'
p3982
tp3983
bsVrectangular_packing_box2
p3984
g21
(g22
(I0
tp3985
g24
tp3986
Rp3987
(I1
(I1
I3
tp3988
g260
I00
S'_3C=\x9f%\xfb?\xf1\x87\x9ak\xba\xd9\x19\xc0H\xed?\xbc\xd4[\x07@'
p3989
tp3990
bsVrectangular_packing_box3
p3991
g21
(g22
(I0
tp3992
g24
tp3993
Rp3994
(I1
(I1
I3
tp3995
g260
I00
S'\xac\xa1%u2|\x03@\x9a`\xb8\x03\x97\xf8\x18\xc0\x13\x0e]\xd3\xf6\x89\xb4?'
p3996
tp3997
bsVrectangular_packing_box1
p3998
g21
(g22
(I0
tp3999
g24
tp4000
Rp4001
(I1
(I1
I3
tp4002
g260
I00
S'\xc9\\r\xdc3\xa4\xfd?\xf9D\x96S7\xbf\x15\xc0\xf5E&.\xd8\x98\x18@'
p4003
tp4004
bsVsquare_packing_box2
p4005
g21
(g22
(I0
tp4006
g24
tp4007
Rp4008
(I1
(I1
I3
tp4009
g260
I00
S'\x10\x89\xe9^\xdc$\xc7?\xdc& \x8d\x1c\x05\x1c\xc0\xd0\xd9z\x1fPg\x14@'
p4010
tp4011
bsVsquare_packing_box3
p4012
g21
(g22
(I0
tp4013
g24
tp4014
Rp4015
(I1
(I1
I3
tp4016
g260
I00
S'\x10x\xfcwQ\x8b\xcc?\xb0\x01\x02dg\xb1\x1e\xc0:]g}\xc5\xac\x14@'
p4017
tp4018
bsVsquare_packing_box1
p4019
g21
(g22
(I0
tp4020
g24
tp4021
Rp4022
(I1
(I1
I3
tp4023
g260
I00
S'+\xb5\x1fC \x07\x05@\x88\xc5\xb6\xa7\xce\x1b \xc0\xd4\xb2\x82\xd7\x18\xe4\x15@'
p4024
tp4025
bsVsquare_packing_box4
p4026
g21
(g22
(I0
tp4027
g24
tp4028
Rp4029
(I1
(I1
I3
tp4030
g260
I00
S'\xec&Qf\xa1\x9f\xd0?D,\xa8\xbaZ\x02\x16\xc0\x85\xaeqv\xa8:\x16@'
p4031
tp4032
bssg1868
(lp4033
(g3569
g1314
tp4034
a(g3552
g1314
tp4035
a(g3570
g1314
tp4036
a(g3638
g1314
tp4037
a(g3553
g1314
tp4038
a(g3554
g1314
tp4039
a(g74
g1314
tp4040
a(g3555
g1314
tp4041
a(g3552
g251
tp4042
a(g3554
g251
tp4043
a(g74
g251
tp4044
a(g3555
g251
tp4045
asg1879
(itrajectory_representation.predicates.in_region
InRegion
p4046
(dp4047
g1255
Nsbsg1882
(dp4048
g3569
(lp4049
g21
(g22
(I0
tp4050
g24
tp4051
Rp4052
(I1
(I3
tp4053
g260
I00
S'\x14\x89\xc8K\xf8\xc3\x03@\xf4M\xcc\xae\xe9\xa7\x1b\xc0\xb9O{\xd4\xcfo\xf9?'
p4054
tp4055
bag745
asg3552
(lp4056
g21
(g22
(I0
tp4057
g24
tp4058
Rp4059
(I1
(I3
tp4060
g260
I00
S'\x14\x89\xc8K\xf8\xc3\x03@\xf4M\xcc\xae\xe9\xa7\x1b\xc0\xb9O{\xd4\xcfo\xf9?'
p4061
tp4062
bag21
(g22
(I0
tp4063
g24
tp4064
Rp4065
(I1
(I3
tp4066
g271
I00
S'\xf6\x9c\xbc\xd8\xea\x86\x05@\xc8\t,\x83\x04\xa9\x1c\xc0HA\x84\xf4\xe0S\xf1?'
p4067
tp4068
bag21
(g22
(I0
tp4069
g24
tp4070
Rp4071
(I1
(I3
tp4072
g271
I00
S'\tAsXx\r\x00@F^\x05/\xfdK\x1d\xc0~\xbbB\x0f\xbe\xe6\xd2?'
p4073
tp4074
bag21
(g22
(I0
tp4075
g24
tp4076
Rp4077
(I1
(I3
tp4078
g271
I00
S'\xa4\xc8\xcc\x88S\x9f\xf6?N\xeaYik!\x1e\xc0\x00W\xeas\x1a)\xfa?'
p4079
tp4080
bag820
asg3570
(lp4081
g21
(g22
(I0
tp4082
g24
tp4083
Rp4084
(I1
(I3
tp4085
g260
I00
S'\x14\x89\xc8K\xf8\xc3\x03@\xf4M\xcc\xae\xe9\xa7\x1b\xc0\xb9O{\xd4\xcfo\xf9?'
p4086
tp4087
bag21
(g22
(I0
tp4088
g24
tp4089
Rp4090
(I1
(I3
tp4091
g271
I00
S'\xa3\xe7\xb4\x16R\xf0\x07@\xbc\n8\xab\xe3x\x1c\xc0=\x94\xaf\xa7P\t\x01@'
p4092
tp4093
bag21
(g22
(I0
tp4094
g24
tp4095
Rp4096
(I1
(I3
tp4097
g271
I00
S'\xac\x81\x98\xbc\x1b\x7f\x06@8\x1d\xa5\x10)H\x1a\xc0\xcd\xc4]\x0b\xc1`\x10@'
p4098
tp4099
bag3585
asg3638
(lp4100
g21
(g22
(I0
tp4101
g24
tp4102
Rp4103
(I1
(I3
tp4104
g260
I00
S'\x14\x89\xc8K\xf8\xc3\x03@\xf4M\xcc\xae\xe9\xa7\x1b\xc0\xb9O{\xd4\xcfo\xf9?'
p4105
tp4106
bag21
(g22
(I0
tp4107
g24
tp4108
Rp4109
(I1
(I3
tp4110
g271
I00
S'\xf60LV\xe8\x96\x00@\x9aEw{a\xe2\x18\xc0^\xa8\x8a,\xa3\x98\x00@'
p4111
tp4112
bag21
(g22
(I0
tp4113
g24
tp4114
Rp4115
(I1
(I3
tp4116
g271
I00
S'\xc7\xc7\x06s\xd6\xa3\xff?3\x91\xe4\x97\xb5\x07\x16\xc0\x1bW\xbc\xbfY:\x06@'
p4117
tp4118
bag924
asg3553
(lp4119
g21
(g22
(I0
tp4120
g24
tp4121
Rp4122
(I1
(I3
tp4123
g260
I00
S'\x14\x89\xc8K\xf8\xc3\x03@\xf4M\xcc\xae\xe9\xa7\x1b\xc0\xb9O{\xd4\xcfo\xf9?'
p4124
tp4125
bag21
(g22
(I0
tp4126
g24
tp4127
Rp4128
(I1
(I3
tp4129
g271
I00
S'\xf6\x9c\xbc\xd8\xea\x86\x05@\xc8\t,\x83\x04\xa9\x1c\xc0HA\x84\xf4\xe0S\xf1?'
p4130
tp4131
bag21
(g22
(I0
tp4132
g24
tp4133
Rp4134
(I1
(I3
tp4135
g271
I00
S'\tAsXx\r\x00@F^\x05/\xfdK\x1d\xc0~\xbbB\x0f\xbe\xe6\xd2?'
p4136
tp4137
bag21
(g22
(I0
tp4138
g24
tp4139
Rp4140
(I1
(I3
tp4141
g271
I00
S'Sx\x1f\xdc\xa9\xe1\xf5?\xb7\xb2\x19\xd8\xf1{\x1c\xc0\x8c\xd5\xa8XX\x00\x08\xc0'
p4142
tp4143
bag1004
asg3554
(lp4144
g21
(g22
(I0
tp4145
g24
tp4146
Rp4147
(I1
(I3
tp4148
g260
I00
S'\x14\x89\xc8K\xf8\xc3\x03@\xf4M\xcc\xae\xe9\xa7\x1b\xc0\xb9O{\xd4\xcfo\xf9?'
p4149
tp4150
bag21
(g22
(I0
tp4151
g24
tp4152
Rp4153
(I1
(I3
tp4154
g271
I00
S'\xf6\x9c\xbc\xd8\xea\x86\x05@\xc8\t,\x83\x04\xa9\x1c\xc0HA\x84\xf4\xe0S\xf1?'
p4155
tp4156
bag21
(g22
(I0
tp4157
g24
tp4158
Rp4159
(I1
(I3
tp4160
g271
I00
S'\tAsXx\r\x00@F^\x05/\xfdK\x1d\xc0~\xbbB\x0f\xbe\xe6\xd2?'
p4161
tp4162
bag21
(g22
(I0
tp4163
g24
tp4164
Rp4165
(I1
(I3
tp4166
g271
I00
S'S@\xf8l\x95\x08\xf8?\xef\x91If\xa4L\x1e\xc0\x8b\xc5pa\xf4C\x04\xc0'
p4167
tp4168
bag1072
asg74
g3649
sg3555
(lp4169
g21
(g22
(I0
tp4170
g24
tp4171
Rp4172
(I1
(I3
tp4173
g260
I00
S'\x14\x89\xc8K\xf8\xc3\x03@\xf4M\xcc\xae\xe9\xa7\x1b\xc0\xb9O{\xd4\xcfo\xf9?'
p4174
tp4175
bag21
(g22
(I0
tp4176
g24
tp4177
Rp4178
(I1
(I3
tp4179
g271
I00
S'\xf6\x9c\xbc\xd8\xea\x86\x05@\xc8\t,\x83\x04\xa9\x1c\xc0HA\x84\xf4\xe0S\xf1?'
p4180
tp4181
bag21
(g22
(I0
tp4182
g24
tp4183
Rp4184
(I1
(I3
tp4185
g271
I00
S'\tAsXx\r\x00@F^\x05/\xfdK\x1d\xc0~\xbbB\x0f\xbe\xe6\xd2?'
p4186
tp4187
bag21
(g22
(I0
tp4188
g24
tp4189
Rp4190
(I1
(I3
tp4191
g271
I00
S'\xad\xa0\xdfFH\xe9\xf6?\xa3\xfc\x14D\x8bb\x1d\xc0\x9e2hH\xc0\xe5\xf0?'
p4192
tp4193
bag21
(g22
(I0
tp4194
g24
tp4195
Rp4196
(I1
(I3
tp4197
g271
I00
S'\xaf3:\xca\x05\xfa\xee?\x17\xfeO1BH\x1c\xc0&\xc3FV\xf0\xcb\xf7?'
p4198
tp4199
bag21
(g22
(I0
tp4200
g24
tp4201
Rp4202
(I1
(I3
tp4203
g271
I00
S'\xae\xea\x9e\xa3\xa2\xb1\xed?\xa4\xca\x1d?h\x96\x19\xc0dq\xdf\xb1\x9d\xe4\x05@'
p4204
tp4205
bag1199
assg697
(dp4206
(Vsquare_packing_box2
p4207
(g2006
(g260
S'\x91\xb7\\\xfd\xd8$\xc7?'
p4208
tp4209
Rp4210
g2006
(g260
S'n\xf7r\x9f\x1c\x05\x1c\xc0'
p4211
tp4212
Rp4213
g2006
(g260
S'N\xb6\x81;Pg\x14@'
p4214
tp4215
Rp4216
tp4217
tp4218
g719
s(Vrectangular_packing_box1
p4219
(g2006
(g260
S'\x98\xde\xfe\\4\xa4\xfd?'
p4220
tp4221
Rp4222
g2006
(g260
S'\x7f4\x9c27\xbf\x15\xc0'
p4223
tp4224
Rp4225
g2006
(g260
S'h$B#\xd8\x98\x18@'
p4226
tp4227
Rp4228
tp4229
tp4230
g715
s(Vsquare_packing_box1
p4231
(g2006
(g260
S'I\x85\xb1\x85 \x07\x05@'
p4232
tp4233
Rp4234
g2006
(g260
S'I\xa0\xc1\xa6\xce\x1b \xc0'
p4235
tp4236
Rp4237
g2006
(g260
S'\xed\x9a\x90\xd6\x18\xe4\x15@'
p4238
tp4239
Rp4240
tp4241
tp4242
g727
s(Vrectangular_packing_box2
p4243
(g2006
(g260
S'\xf6\xd1\xa9+\x9f%\xfb?'
p4244
tp4245
Rp4246
g2006
(g260
S'}?5^\xba\xd9\x19\xc0'
p4247
tp4248
Rp4249
g2006
(g260
S'\xc9\xae\xb4\x8c\xd4[\x07@'
p4250
tp4251
Rp4252
tp4253
tp4254
g707
s(Vrectangular_packing_box3
p4255
(g2006
(g260
S'\xc2\xd9\xade2|\x03@'
p4256
tp4257
Rp4258
g2006
(g260
S'\xa7\x95B \x97\xf8\x18\xc0'
p4259
tp4260
Rp4261
g2006
(g260
S'\xeew(\n\xf4\x89\xb4?'
p4262
tp4263
Rp4264
tp4265
tp4266
g3562
s(Vsquare_packing_box4
p4267
(g2006
(g260
S'\xfbZ\x97\x1a\xa1\x9f\xd0?'
p4268
tp4269
Rp4270
g2006
(g260
S'\x07AG\xabZ\x02\x16\xc0'
p4271
tp4272
Rp4273
g2006
(g260
S'\x92w\x0ee\xa8:\x16@'
p4274
tp4275
Rp4276
tp4277
tp4278
g731
s(Vsquare_packing_box3
p4279
(g2006
(g260
S'\xdb\xa6x\\T\x8b\xcc?'
p4280
tp4281
Rp4282
g2006
(g260
S'\xb9\xa6@fg\xb1\x1e\xc0'
p4283
tp4284
Rp4285
g2006
(g260
S'}v\xc0u\xc5\xac\x14@'
p4286
tp4287
Rp4288
tp4289
tp4290
g723
s(Vrectangular_packing_box4
p4291
(g2006
(g260
S'p`r\xa3\xc8\xba\x06@'
p4292
tp4293
Rp4294
g2006
(g260
S'w\xf6\x95\x07\xe9i\x16\xc0'
p4295
tp4296
Rp4297
g2006
(g260
S'\xa7t\xb0\xfe\xcfa\x17@'
p4298
tp4299
Rp4300
tp4301
tp4302
g703
ssg2102
(igtamp_utils.utils
CustomStateSaver
p4303
(dp4304
g2105
g21
(g22
(I0
tp4305
g24
tp4306
Rp4307
(I1
(I1
I3
tp4308
g260
I00
S'\x16\x89\xc8K\xf8\xc3\x03@\xf2M\xcc\xae\xe9\xa7\x1b\xc0\xb8O{\xd4\xcfo\xf9?'
p4309
tp4310
bsg2112
Nsg2113
g2114
sg2115
I1
sg1810
(dp4311
Vright_wall_1
p4312
g21
(g22
(I0
tp4313
g24
tp4314
Rp4315
(I1
(I4
tp4316
g260
I00
S'H\xe1z\x14\xaeG\x12@&\\\x8f\xc2\xf5(\xd4\xbf\xcc\x7fH\xbf}\x1d\xed?\x00\x00\x00\x00\x00\x00\x00\x00'
p4317
tp4318
bsVc_obst5
p4319
g21
(g22
(I0
tp4320
g24
tp4321
Rp4322
(I1
(I4
tp4323
g260
I00
S"\x12\reX\xce0\x12@\x18\x02,+\x9b\xc2\xbb?e\xaa`TR'\xed?o\x90\xe3~\x12w\xba?"
p4324
tp4325
bsVentrance_right
p4326
g21
(g22
(I0
tp4327
g24
tp4328
Rp4329
(I1
(I4
tp4330
g260
I00
S'ffffff\n@H\xe1z\x14\xaeG\t\xc0\x9c\xc4 \xb0rh\xc1?\x00\x00\x00\x00\x00\x00\x00\x00'
p4331
tp4332
bsVcomputer_table
p4333
g21
(g22
(I0
tp4334
g24
tp4335
Rp4336
(I1
(I4
tp4337
g260
I00
S'\x00\x00\x00\x00\x00\x00\x13@\x00\x00\x00\x00\x00\x00\xf8\xbf\x96C\x8bl\xe7\xfb\xe7?\xd2!3\x7f|\xd9\x12@'
p4338
tp4339
bsVchair_6b56
p4340
g21
(g22
(I0
tp4341
g24
tp4342
Rp4343
(I1
(I4
tp4344
g260
I00
S'\x96=\n\xd7\xa3p\xf5?]\xe1z\x14\xaeG\xd1?\x00\x00\x00\x00\x00\x00\x00\x00\xd6$\xfaNBm\n@'
p4345
tp4346
bsVsquare_packing_box3
p4347
g21
(g22
(I0
tp4348
g24
tp4349
Rp4350
(I1
(I4
tp4351
g260
I00
S'\x18x\xfcwQ\x8b\xcc?\xb4\x01\x02dg\xb1\x1e\xc0P7\x89A`\xe5\xd8?:]g}\xc5\xac\x14@'
p4352
tp4353
bsVsquare_packing_box2
p4354
g21
(g22
(I0
tp4355
g24
tp4356
Rp4357
(I1
(I4
tp4358
g260
I00
S'\x10\x89\xe9^\xdc$\xc7?\xdc& \x8d\x1c\x05\x1c\xc0.7\x89A`\xe5\xd8?\xd0\xd9z\x1fPg\x14@'
p4359
tp4360
bsVtable
p4361
g21
(g22
(I0
tp4362
g24
tp4363
Rp4364
(I1
(I4
tp4365
g260
I00
S'\x7f\xf6#EdX\xed?\xac\xffs\x98//\xc0\xbf\x00\x00\x00\x00\x00\x00\x00\x00\x00\x00\x00\x00\x00\x00\x00\x00'
p4366
tp4367
bsVsquare_packing_box1
p4368
g21
(g22
(I0
tp4369
g24
tp4370
Rp4371
(I1
(I4
tp4372
g260
I00
S'"\xb5\x1fC \x07\x05@\x89\xc5\xb6\xa7\xce\x1b \xc0L7\x89A`\xe5\xd8?\xd4\xb2\x82\xd7\x18\xe4\x15@'
p4373
tp4374
bsVback_wall_2
p4375
g21
(g22
(I0
tp4376
g24
tp4377
Rp4378
(I1
(I4
tp4379
g260
I00
S'\xaeG\xe1z\x14.\x13@\x80\x14\xaeG\xe1z\xc4?xX\xa85\xcd\xbb\xf2?\x00\x00\x00\x00\x00\x00\x00\x00'
p4380
tp4381
bsVchair_083c
p4382
g21
(g22
(I0
tp4383
g24
tp4384
Rp4385
(I1
(I4
tp4386
g260
I00
S'\xa4p=\n\xd7\xa3\xe0?333333\xe3\xbf\x00\x00\x00\x00\x00\x00\x00\x00\x00\x00\x00\x00\x00\x00\x00\x00'
p4387
tp4388
bsVback_wall_1
p4389
g21
(g22
(I0
tp4390
g24
tp4391
Rp4392
(I1
(I4
tp4393
g260
I00
S'\xaeG\xe1z\x14.\x13@\x80\x14\xaeG\xe1z\xc4?\xcc\x7fH\xbf}\x1d\xed?\x00\x00\x00\x00\x00\x00\x00\x00'
p4394
tp4395
bsVbottom_wall
p4396
g21
(g22
(I0
tp4397
g24
tp4398
Rp4399
(I1
(I4
tp4400
g260
I00
S'\x00\x00\x00\x00\x00\x00\xfc?\x00\x00\x00\x00\x00\x00\x00\x00\x00\x00\x00\x00\x00\x00\x00\x00\x00\x00\x00\x00\x00\x00\x00\x00'
p4401
tp4402
bsVcup_905a
p4403
g21
(g22
(I0
tp4404
g24
tp4405
Rp4406
(I1
(I4
tp4407
g260
I00
S'\x00\x00\x00\x00\x00\x00\xf0?\x83\xc0\xca\xa1E\xb6\xdb?\x1b/\xdd$\x06\x81\xed?\x00\x00\x00\x00\x00\x00\x00\x00'
p4408
tp4409
bsVplate_496f
p4410
g21
(g22
(I0
tp4411
g24
tp4412
Rp4413
(I1
(I4
tp4414
g260
I00
S"q=\n\xd7\xa3p\xe5?\x9dhW!\xe5'\xdd\xbf\x1b/\xdd$\x06\x81\xed?\x00\x00\x00\x00\x00\x00\x00\x00"
p4415
tp4416
bsVtoaster
p4417
g21
(g22
(I0
tp4418
g24
tp4419
Rp4420
(I1
(I4
tp4421
g260
I00
S')\\\x8f\xc2\xf5(\xf4\xbf\xe0z\x14\xaeG\xe1\xf2\xbf\xb8\x1e\x85\xebQ\xb8\xee?\x89/`\x9b\xf8\x8a\xe4?'
p4422
tp4423
bsVc_obst1
p4424
g21
(g22
(I0
tp4425
g24
tp4426
Rp4427
(I1
(I4
tp4428
g260
I00
S'\xcc\xc4-\x19"\x1e\x12@\x94\x01\x8e\xcc\xf4_\xd7?e\xaa`TR\'\xed?\xdc\xcf\xc3\xba\xc1\x0e\x00@'
p4429
tp4430
bsVrectangular_packing_box4
p4431
g21
(g22
(I0
tp4432
g24
tp4433
Rp4434
(I1
(I4
tp4435
g260
I00
S'R&\xfd\xa8\xc8\xba\x06@I\xc2\xf8\x17\xe9i\x16\xc0Z7\x89A`\xe5\xd8?\x8c\xf3\xa7\x1d\xd0a\x17@'
p4436
tp4437
bsVmicrowave
p4438
g21
(g22
(I0
tp4439
g24
tp4440
Rp4441
(I1
(I4
tp4442
g260
I00
S'\x9a\x99\x99\x99\x99\x99\xf1\xbf\x00\x00\x00\x00\x00\x00\x00@7\x89A`\xe5\xd0\xee?\x00\x00\x00\x00\x00\x00\x00\x00'
p4443
tp4444
bsVc_obst7
p4445
g21
(g22
(I0
tp4446
g24
tp4447
Rp4448
(I1
(I4
tp4449
g260
I00
S"\x89c\x8d\x8bq\xa6\x12@\x008,\xac|\xfd\xa6?e\xaa`TR'\xed?\xab\x02\r$\xbbJ\x12@"
p4450
tp4451
bsVc_obst6
p4452
g21
(g22
(I0
tp4453
g24
tp4454
Rp4455
(I1
(I4
tp4456
g260
I00
S"\xb3\xd2c\xe5\x91\x18\x12@\xf6\n\x14\xf4\x1fu\xe0?e\xaa`TR'\xed?\x7f8\x81\x03\xce\xde\x17@"
p4457
tp4458
bsVcup_b6af
p4459
g21
(g22
(I0
tp4460
g24
tp4461
Rp4462
(I1
(I4
tp4463
g260
I00
S'R\xb8\x1e\x85\xebQ\xe8?\x9a\x99\x99\x99\x99\x99\xe1?\x1b/\xdd$\x06\x81\xed?\x00\x00\x00\x00\x00\x00\x00\x00'
p4464
tp4465
bsVc_obst4
p4466
g21
(g22
(I0
tp4467
g24
tp4468
Rp4469
(I1
(I4
tp4470
g260
I00
S"\xae\xf4F5\xe5:\x12@L\x9a\x91\x0e\xe3\x14\xdb?e\xaa`TR'\xed?\xb5\xa4\xeb\xb9[\x90\xf3?"
p4471
tp4472
bsVrectangular_packing_box2
p4473
g21
(g22
(I0
tp4474
g24
tp4475
Rp4476
(I1
(I4
tp4477
g260
I00
S'_3C=\x9f%\xfb?\xf1\x87\x9ak\xba\xd9\x19\xc0H7\x89A`\xe5\xd8?H\xed?\xbc\xd4[\x07@'
p4478
tp4479
bsVplate_fa76
p4480
g21
(g22
(I0
tp4481
g24
tp4482
Rp4483
(I1
(I4
tp4484
g260
I00
S'=\n\xd7\xa3p=\xf2?\x00\x00\x00\x00\x00\x00\x00\x00\x1b/\xdd$\x06\x81\xed?\x00\x00\x00\x00\x00\x00\x00\x00'
p4485
tp4486
bsVfloorwalls
p4487
g21
(g22
(I0
tp4488
g24
tp4489
Rp4490
(I1
(I4
tp4491
g260
I00
S'\xc7\xcc\xcc\xcc\xcc\xcc\xfc?\x00\x00\x00\x00\x00\x00\x18\xc0H\xe1z\x14\xaeG\xc1?\x16-DT\xfb!\xf9?'
p4492
tp4493
bsVpin_c671
p4494
g21
(g22
(I0
tp4495
g24
tp4496
Rp4497
(I1
(I4
tp4498
g260
I00
S'\xc3\xf5(\\\x8f\xc2\xf1\xbf}?5^\xbaI\x02@\xb8\x1e\x85\xebQ\xb8\xfa?\x00\x00\x00\x00\x00\x00\x00\x00'
p4499
tp4500
bsVc_obst3
p4501
g21
(g22
(I0
tp4502
g24
tp4503
Rp4504
(I1
(I4
tp4505
g260
I00
S"\xc3n\x80Oi\xf0\x11@\xc0\xc1Qbw,\xd4?e\xaa`TR'\xed?\x9a`\x90af9\x02@"
p4506
tp4507
bsVchair_2e39
p4508
g21
(g22
(I0
tp4509
g24
tp4510
Rp4511
(I1
(I4
tp4512
g260
I00
S'\x97fffff\xee?\x17fffff\xf2\xbf\x00\x00\x00\x00\x00\x00\x00\x00\x07M\xe8QQF\xf3?'
p4513
tp4514
bsVentrance_left
p4515
g21
(g22
(I0
tp4516
g24
tp4517
Rp4518
(I1
(I4
tp4519
g260
I00
S'\x98\x99\x99\x99\x99\x99\xe9\xbfH\xe1z\x14\xaeG\t\xc0\x9c\xc4 \xb0rh\xc1?\x00\x00\x00\x00\x00\x00\x00\x00'
p4520
tp4521
bsVtop_wall_1
p4522
g21
(g22
(I0
tp4523
g24
tp4524
Rp4525
(I1
(I4
tp4526
g260
I00
S'H\xe1z\x14\xaeG\x12@\x80\x14\xaeG\xe1z\xc4?xX\xa85\xcd\xbb\xf2?\x00\x00\x00\x00\x00\x00\x00\x00'
p4527
tp4528
bsVrectangular_packing_box3
p4529
g21
(g22
(I0
tp4530
g24
tp4531
Rp4532
(I1
(I4
tp4533
g260
I00
S'\xaa\xa1%u2|\x03@\x9a`\xb8\x03\x97\xf8\x18\xc0L7\x89A`\xe5\xd8?\x13\x0e]\xd3\xf6\x89\xb4?'
p4534
tp4535
bsVshaker
p4536
g21
(g22
(I0
tp4537
g24
tp4538
Rp4539
(I1
(I4
tp4540
g260
I00
S'\n\xd7\xa3p=\n\x01@\x14\xaeG\xe1z\x14\x02@\\\x8f\xc2\xf5(\\\xef?\x00\x00\x00\x00\x00\x00\x00\x00'
p4541
tp4542
bsVc_obst9
p4543
g21
(g22
(I0
tp4544
g24
tp4545
Rp4546
(I1
(I4
tp4547
g260
I00
S'\x04\x96\x95g|\xeb\x11@@\x08nZ\xa31\x92?e\xaa`TR\'\xed?p\xd4\xddK\x8a"\x11@'
p4548
tp4549
bsVplate_835a
p4550
g21
(g22
(I0
tp4551
g24
tp4552
Rp4553
(I1
(I4
tp4554
g260
I00
S'\xf6(\\\x8f\xc2\xf5\xf0?\\\x8f\xc2\xf5(\\\xe7\xbf\x1b/\xdd$\x06\x81\xed?\x00\x00\x00\x00\x00\x00\x00\x00'
p4555
tp4556
bsVcup_58a2
p4557
g21
(g22
(I0
tp4558
g24
tp4559
Rp4560
(I1
(I4
tp4561
g260
I00
S'\x85\xebQ\xb8\x1e\x85\xe3?\xcd\xcc\xcc\xcc\xcc\xcc\xdc?\x1b/\xdd$\x06\x81\xed?\x00\x00\x00\x00\x00\x00\x00\x00'
p4562
tp4563
bsVleft_wall_1
p4564
g21
(g22
(I0
tp4565
g24
tp4566
Rp4567
(I1
(I4
tp4568
g260
I00
S'H\xe1z\x14\xaeG\x12@S\xb8\x1e\x85\xebQ\xe4?\xcc\x7fH\xbf}\x1d\xed?\x00\x00\x00\x00\x00\x00\x00\x00'
p4569
tp4570
bsVc_obst2
p4571
g21
(g22
(I0
tp4572
g24
tp4573
Rp4574
(I1
(I4
tp4575
g260
I00
S'\\\x1e"\xd5\x13E\x12@\x9d\x91\x14\xcc0E\xb0\xbfe\xaa`TR\'\xed?\xa9s^\xf6\n\xe0\xec?'
p4576
tp4577
bsVsquare_packing_box4
p4578
g21
(g22
(I0
tp4579
g24
tp4580
Rp4581
(I1
(I4
tp4582
g260
I00
S"\r'Qf\xa1\x9f\xd0?D,\xa8\xbaZ\x02\x16\xc0G7\x89A`\xe5\xd8?\x85\xaeqv\xa8:\x16@"
p4583
tp4584
bsVrectangular_packing_box1
p4585
g21
(g22
(I0
tp4586
g24
tp4587
Rp4588
(I1
(I4
tp4589
g260
I00
S'\xc9\\r\xdc3\xa4\xfd?\xf9D\x96S7\xbf\x15\xc0.7\x89A`\xe5\xd8?\xf5E&.\xd8\x98\x18@'
p4590
tp4591
bsVpin_371e
p4592
g21
(g22
(I0
tp4593
g24
tp4594
Rp4595
(I1
(I4
tp4596
g260
I00
S'333333\xf3\xbfffffff\xf6?\xb8\x1e\x85\xebQ\xb8\xee?\x00\x00\x00\x00\x00\x00\x00\x00'
p4597
tp4598
bsVfridge
p4599
g21
(g22
(I0
tp4600
g24
tp4601
Rp4602
(I1
(I4
tp4603
g260
I00
S'\xd7\xa3p=\n\xd7\xeb\xbf\x00\x00\x00\x00\x00\x00\x00\xc0\xcd\xcc\xcc\xcc\xcc\xcc\xf8?\x00\x00\x00\x00\x00\x00\x00\x00'
p4604
tp4605
bsVcup_d441
p4606
g21
(g22
(I0
tp4607
g24
tp4608
Rp4609
(I1
(I4
tp4610
g260
I00
S'\n\xd7\xa3p=\n\xef?\x8f\xc2\xf5(\\\x8f\xe2?\x1b/\xdd$\x06\x81\xed?\x00\x00\x00\x00\x00\x00\x00\x00'
p4611
tp4612
bsVshelf2
p4613
g21
(g22
(I0
tp4614
g24
tp4615
Rp4616
(I1
(I4
tp4617
g260
I00
S'\x00\x00\x00\x00\x00\x00\x0e@\xaeG\xe1z\x14\xae\x07@\x9c\xc4 \xb0rh\xc1?\xd2!3\x7f|\xd9\x12@'
p4618
tp4619
bsVtop_wall_2
p4620
g21
(g22
(I0
tp4621
g24
tp4622
Rp4623
(I1
(I4
tp4624
g260
I00
S'H\xe1z\x14\xaeG\x12@\x80\x14\xaeG\xe1z\xc4?\x16HP\xfc\x18\xf3\xfd?\x00\x00\x00\x00\x00\x00\x00\x00'
p4625
tp4626
bsVc_obst0
p4627
g21
(g22
(I0
tp4628
g24
tp4629
Rp4630
(I1
(I4
tp4631
g260
I00
S"\xac\xc9\x1e\xe7$z\x12@d\xbe\xb5\xf0?\x90\xde?e\xaa`TR'\xed?\x05H\xe7\xa03\xee\xf3?"
p4632
tp4633
bsVshelf1
p4634
g21
(g22
(I0
tp4635
g24
tp4636
Rp4637
(I1
(I4
tp4638
g260
I00
S'\x00\x00\x00\x00\x00\x00\x13@\xaeG\xe1z\x14\xae\x07@\x9c\xc4 \xb0rh\xc1?\xd2!3\x7f|\xd9\x12@'
p4639
tp4640
bsVsink
p4641
g21
(g22
(I0
tp4642
g24
tp4643
Rp4644
(I1
(I4
tp4645
g260
I00
S'ffffff\xd6?333333\x01@\x9a\x99\x99\x99\x99\x99\xb9\xbf\x00\x00\x00\x00\x00\x00\x00\x00'
p4646
tp4647
bsVpr2
p4648
g21
(g22
(I0
tp4649
g24
tp4650
Rp4651
(I1
(I4
tp4652
g260
I00
S'\x16\x89\xc8K\xf8\xc3\x03@\xf0M\xcc\xae\xe9\xa7\x1b\xc0\x9a_\x94\xa0\xbf\xd0\xc1?\xb8O{\xd4\xcfo\xf9?'
p4653
tp4654
bsVchair_12d0
p4655
g21
(g22
(I0
tp4656
g24
tp4657
Rp4658
(I1
(I4
tp4659
g260
I00
S'^\xd2\x18\xad\xa3\xaa\xdb?Pf\x83L2r\xc6?\x00\x00\x00\x00\x00\x00\x00\x00\xf8\x81\r\x14M\xa6\x17@'
p4660
tp4661
bsVright_wall_2
p4662
g21
(g22
(I0
tp4663
g24
tp4664
Rp4665
(I1
(I4
tp4666
g260
I00
S'H\xe1z\x14\xaeG\x12@&\\\x8f\xc2\xf5(\xd4\xbfxX\xa85\xcd\xbb\xf2?\x00\x00\x00\x00\x00\x00\x00\x00'
p4667
tp4668
bsVknife_block
p4669
g21
(g22
(I0
tp4670
g24
tp4671
Rp4672
(I1
(I4
tp4673
g260
I00
S'R\xb8\x1e\x85\xebQ\xe0\xbfffffff\x02@`\xe5\xd0"\xdb\xf9\xee?\x00\x00\x00\x00\x00\x00\x00\x00'
p4674
tp4675
bsVleft_wall_2
p4676
g21
(g22
(I0
tp4677
g24
tp4678
Rp4679
(I1
(I4
tp4680
g260
I00
S'H\xe1z\x14\xaeG\x12@S\xb8\x1e\x85\xebQ\xe4?xX\xa85\xcd\xbb\xf2?\x00\x00\x00\x00\x00\x00\x00\x00'
p4681
tp4682
bsVleft_wall
p4683
g21
(g22
(I0
tp4684
g24
tp4685
Rp4686
(I1
(I4
tp4687
g260
I00
S'\x9a\x99\x99\x99\x99\x99\x07@H\xe1z\x14\xaeG\xff?\x9c\xc4 \xb0rh\xc1?\x00\x00\x00\x00\x00\x00\x00\x00'
p4688
tp4689
bsVkitchen
p4690
g21
(g22
(I0
tp4691
g24
tp4692
Rp4693
(I1
(I4
tp4694
g260
I00
S'\x00\x00\x00\x00\x00\x00\x00\x00\x00\x00\x00\x00\x00\x00\x00\x00\x00\x00\x00\x00\x00\x00\x00\x00\x00\x00\x00\x00\x00\x00\x00\x00'
p4695
tp4696
bsVtable2
p4697
g21
(g22
(I0
tp4698
g24
tp4699
Rp4700
(I1
(I4
tp4701
g260
I00
S'\x00\x00\x00\x00\x00\x00\x13@\x80\x14\xaeG\xe1z\xc4?S\x96!\x8euq\xec?\xd2!3\x7f|\xd9\x12@'
p4702
tp4703
bsVc_obst8
p4704
g21
(g22
(I0
tp4705
g24
tp4706
Rp4707
(I1
(I4
tp4708
g260
I00
S"\xc4[\xc1\x10SF\x12@\xc0\re\x1e\x90\xa7\xcd?e\xaa`TR'\xed?h)\xd9\x10\xc3E\xdd?"
p4709
tp4710
bsVplate_b4e7
p4711
g21
(g22
(I0
tp4712
g24
tp4713
Rp4714
(I1
(I4
tp4715
g260
I00
S'\x14\xaeG\xe1z\x14\xf2\xbf\x14\xaeG\xe1z\x14\x00@=\n\xd7\xa3p=\xf2?\x00\x00\x00\x00\x00\x00\x00\x00'
p4716
tp4717
bsVcooker
p4718
g21
(g22
(I0
tp4719
g24
tp4720
Rp4721
(I1
(I4
tp4722
g260
I00
S'\xaeG\xe1z\x14\xae\xff?\x85\xebQ\xb8\x1e\x85\xfb?\x00\x00\x00\x00\x00\x00\xe8?\x00\x00\x00\x00\x00\x00\x00\x00'
p4723
tp4724
bsVpin_a091
p4725
g21
(g22
(I0
tp4726
g24
tp4727
Rp4728
(I1
(I4
tp4729
g260
I00
S'\xdb\xf9~j\xbct\xf7\xbf)\\\x8f\xc2\xf5(\x02@\xb8\x1e\x85\xebQ\xb8\xfa?\x00\x00\x00\x00\x00\x00\x00\x00'
p4730
tp4731
bsVside_wall_2
p4732
g21
(g22
(I0
tp4733
g24
tp4734
Rp4735
(I1
(I4
tp4736
g260
I00
S'\xcb\xff\xff\xff\xff\xff\x14@\xbd\xff\xff\xff\xff\x07#=\x9c\xc4 \xb0rh\xc1?#-DT\xfb!\xf9?'
p4737
tp4738
bsVside_wall_3
p4739
g21
(g22
(I0
tp4740
g24
tp4741
Rp4742
(I1
(I4
tp4743
g260
I00
S'\x00\x00\x00\x00\x00\x00\xfc?H\xe1z\x14\xaeG\t@\x9c\xc4 \xb0rh\xc1?\x00\x00\x00\x00\x00\x00\x00\x00'
p4744
tp4745
bsVmixer
p4746
g21
(g22
(I0
tp4747
g24
tp4748
Rp4749
(I1
(I4
tp4750
g260
I00
S'\n\xd7\xa3p=\n\xfb?ffffff\x02@d;\xdfO\x8d\x97\xee?\x00\x00\x00\x00\x00\x00\x00\x00'
p4751
tp4752
bsVside_wall_1
p4753
g21
(g22
(I0
tp4754
g24
tp4755
Rp4756
(I1
(I4
tp4757
g260
I00
S'\x96\xff\xff\xff\xff\xff\xfb\xbf\x8a\xff\xff\xff\xff_\t\xbd\x9c\xc4 \xb0rh\xc1?#-DT\xfb!\xf9?'
p4758
tp4759
bsVbottom_wall_1
p4760
g21
(g22
(I0
tp4761
g24
tp4762
Rp4763
(I1
(I4
tp4764
g260
I00
S'H\xe1z\x14\xaeG\x12@\x80\x14\xaeG\xe1z\xc4?\xcc\x7fH\xbf}\x1d\xed?\x00\x00\x00\x00\x00\x00\x00\x00'
p4765
tp4766
bsVcan
p4767
g21
(g22
(I0
tp4768
g24
tp4769
Rp4770
(I1
(I4
tp4771
g260
I00
S'\x00\x00\x00\x00\x00\x00\xf4\xbfH\xe1z\x14\xaeG\xe1\xbf\n\xd7\xa3p=\n\xef?\x00\x00\x00\x00\x00\x00\x00\x00'
p4772
tp4773
bsVright_wall
p4774
g21
(g22
(I0
tp4775
g24
tp4776
Rp4777
(I1
(I4
tp4778
g260
I00
S'\x9a\x99\x99\x99\x99\x99\x07@H\xe1z\x14\xaeG\xff\xbf\x9c\xc4 \xb0rh\xc1?\x00\x00\x00\x00\x00\x00\x00\x00'
p4779
tp4780
bsVcoffe_machine
p4781
g21
(g22
(I0
tp4782
g24
tp4783
Rp4784
(I1
(I4
tp4785
g260
I00
S'\\\x8f\xc2\xf5(\\\xf5\xbf\xb8\x1e\x85\xebQ\xb8\xee?\n\xd7\xa3p=\n\xef?\x00\x00\x00\x00\x00\x00\x00\x00'
p4786
tp4787
bsVcomputer_chair
p4788
g21
(g22
(I0
tp4789
g24
tp4790
Rp4791
(I1
(I4
tp4792
g260
I00
S'\xcd\xcc\xcc\xcc\xcc\xcc\x10@\x00\x00\x00\x00\x00\x00\xf8\xbf\xa00\xb6\x10\xe4\xa9\x95\xbf\x00\x00\x00\x00\x00\x00\x00\x00'
p4793
tp4794
bssg2600
g21
(g22
(I0
tp4795
g24
tp4796
Rp4797
(I1
(I39
tp4798
g260
I00
S'\x00\x00\x00\x00\x00\x00\x00\x00\x00\x00\x00\x00\x00\x00\x00\x00\x00\x00\x00\x00\x00\x00\x00\x00\x00\x00\x00\x00\x00\x00\x00\x00\x00\x00\x00\x00\x00\x00\x00\x00\x00\x00\x00\x00\x00\x00\x00\x00\x00\x00\x00\x00\x00\x00\x00\x00\x00\x00\x00\x00\x00\x00\x00\x00\x00\x00\x00\x00\x00\x00\x00\x00\x00\x00\x00\x00\x00\x00\x00\x00\x00\x00\x00\x00\x00\x00\x00\x00\x00\x00\x00\x00\x00\x00\x00\x00@d;\xdfO\x8d\x87?\x00\x00\x00\x00\x00\x00\x00\x00\x00\x00\x00\x00\x00\x00\x00\x00\x00\x00\x00\x00\x00\x00\x00\x00\xea\xed\t\xf1\xcc\xa4\xf4?\x00\x00\x00\x00\x00\x00\xc0<N"\xd0^p\xf8\x00\xc0\x00\x00\x00\x00\x00\x00\x00\x00\xa3\x03\r.\x04V\xe6\xbf\x00\x00\x00\x00\x00\x00\x00\x00\x00\x00\x00\x00\x00\x00\x00\x00\x00\x00\x00\x00\x00@\xe3<bn\x12\x905\xcb\xa0<\x00\x00\x00\x00\x00\x00\xfc<\x00\x00\x00\x00\x00\x00\x00\x00\x00\x00\x00\x00\x00\x00\x00\x00\xea\xed\t\xf1\xcc\xa4\xf4?\x00\x00\x00\x00\x00\x00\x00\x00O"\xd0^p\xf8\x00\xc0\xbe\n\x1f\x00\xc6H\xac\xbc\xa2\x03\r.\x04V\xe6\xbf\x00\x00\x00\x00\x00\x00\x00\x00\x8c9\xe3\xc17\x89\xe1?\x00\x00\x00\x00\x00\x10\x00=\xea\x06\xb1m\x85X\xc5\xbc\x00\x00\x00\x00\x00\x80\x13\xbd\x00\x00\x00\x00\x00\x00\x00\x00'
p4799
tp4800
bsg2607
I00
sbsg2608
Nsg2609
(dp4801
(g609
g609
g251
tp4802
g1313
s(g375
g1314
g1314
tp4803
g1316
s(g1317
g501
g251
tp4804
g1319
s(g438
g1265
g1314
tp4805
g1321
s(g552
g251
g251
tp4806
g1675
s(g251
g251
g251
tp4807
g1323
s(g1265
g609
g1314
tp4808
g1325
s(g251
g324
g251
tp4809
g1329
s(g438
g375
g251
tp4810
g1331
s(g1317
g324
g251
tp4811
g1745
s(g251
g1265
g1314
tp4812
g1335
s(g438
g1317
g251
tp4813
g1337
s(g1314
g251
g1314
tp4814
g1339
s(g324
g552
g251
tp4815
g1341
s(g1265
g1317
g251
tp4816
g1343
s(g438
g501
g1314
tp4817
g1345
s(g552
g1314
g251
tp4818
g1347
s(g1317
g609
g1314
tp4819
g1349
s(g609
g1314
g251
tp4820
g1353
s(g552
g1317
g251
tp4821
g1355
s(g375
g375
g1314
tp4822
g1357
s(g1314
g1265
g1314
tp4823
g1359
s(g1317
g438
g251
tp4824
g1363
s(g1314
g1314
g251
tp4825
g1365
s(g552
g324
g1314
tp4826
g1367
s(g251
g251
g1314
tp4827
g1369
s(g501
g438
g1314
tp4828
g1371
s(g609
g1265
g251
tp4829
g1373
s(g552
g375
g251
tp4830
g1375
s(g501
g251
g1314
tp4831
g1377
s(g1314
g375
g1314
tp4832
g1385
s(g375
g1317
g1314
tp4833
g1739
s(g609
g609
g1314
tp4834
g1389
s(g1317
g1265
g251
tp4835
g1391
s(g1314
g251
g251
tp4836
g1393
s(g324
g609
g251
tp4837
g1395
s(g438
g501
g251
tp4838
g1399
s(g552
g438
g251
tp4839
g1405
s(g438
g375
g1314
tp4840
g1407
s(g438
g609
g1314
tp4841
g1409
s(g1317
g438
g1314
tp4842
g1411
s(g1317
g251
g251
tp4843
g1415
s(g1314
g1317
g251
tp4844
g1419
s(g609
g1265
g1314
tp4845
g1421
s(g552
g609
g1314
tp4846
g1423
s(g552
g552
g251
tp4847
g1425
s(g1317
g609
g251
tp4848
g1429
s(g1317
g552
g1314
tp4849
g1479
s(g1265
g375
g251
tp4850
g1433
s(g375
g375
g251
tp4851
g1435
s(g375
g324
g251
tp4852
g1437
s(g324
g609
g1314
tp4853
g1439
s(g1265
g501
g1314
tp4854
g1441
s(g552
g324
g251
tp4855
g1443
s(g501
g438
g251
tp4856
g1445
s(g609
g501
g1314
tp4857
g1447
s(g501
g251
g251
tp4858
g1449
s(g438
g609
g251
tp4859
g1451
s(g609
g552
g251
tp4860
g1453
s(g1317
g251
g1314
tp4861
g1459
s(g1317
g1265
g1314
tp4862
g1461
s(g552
g609
g251
tp4863
g1463
s(g1314
g501
g251
tp4864
g1663
s(g609
g1317
g1314
tp4865
g1467
s(g501
g1314
g251
tp4866
g1469
s(g552
g438
g1314
tp4867
g1471
s(g552
g501
g1314
tp4868
g1473
s(g1265
g375
g1314
tp4869
g1475
s(g375
g438
g251
tp4870
g1643
s(g501
g1314
g1314
tp4871
g1431
s(g609
g501
g251
tp4872
g1485
s(g1265
g501
g251
tp4873
g1487
s(g1314
g552
g251
tp4874
g1489
s(g251
g438
g1314
tp4875
g1457
s(g609
g324
g1314
tp4876
g1493
s(g375
g324
g1314
tp4877
g1497
s(g501
g552
g1314
tp4878
g1499
s(g438
g438
g251
tp4879
g1757
s(g375
g501
g251
tp4880
g1507
s(g609
g1317
g251
tp4881
g1509
s(g324
g438
g1314
tp4882
g1511
s(g1317
g1314
g1314
tp4883
g1689
s(g552
g501
g251
tp4884
g1515
s(g1265
g1314
g1314
tp4885
g1517
s(g438
g251
g251
tp4886
g1519
s(g1265
g324
g251
tp4887
g1521
s(g1314
g501
g1314
tp4888
g1525
s(g1314
g552
g1314
tp4889
g1527
s(g375
g552
g251
tp4890
g1529
s(g1317
g1314
g251
tp4891
g1361
s(g375
g501
g1314
tp4892
g1533
s(g609
g438
g251
tp4893
g1537
s(g1265
g1314
g251
tp4894
g1541
s(g1314
g324
g1314
tp4895
g1543
s(g609
g324
g251
tp4896
g1545
s(g324
g324
g251
tp4897
g1549
s(g552
g1265
g251
tp4898
g1555
s(g324
g438
g251
tp4899
g1557
s(g438
g1314
g1314
tp4900
g1559
s(g438
g251
g1314
tp4901
g1563
s(g375
g438
g1314
tp4902
g1565
s(g1265
g324
g1314
tp4903
g1567
s(g552
g251
g1314
tp4904
g1569
s(g1314
g324
g251
tp4905
g1573
s(g501
g501
g251
tp4906
g1575
s(g375
g552
g1314
tp4907
g1583
s(g1265
g552
g251
tp4908
g1579
s(g375
g609
g251
tp4909
g1581
s(g251
g1317
g251
tp4910
g1351
s(g324
g375
g1314
tp4911
g1585
s(g251
g438
g251
tp4912
g1587
s(g501
g1317
g251
tp4913
g1593
s(g552
g1265
g1314
tp4914
g1595
s(g1314
g1265
g251
tp4915
g1577
s(g251
g552
g1314
tp4916
g1523
s(g324
g1314
g251
tp4917
g1603
s(g609
g438
g1314
tp4918
g1601
s(g438
g1265
g251
tp4919
g1775
s(g1265
g1265
g1314
tp4920
g1613
s(g324
g324
g1314
tp4921
g1615
s(g501
g501
g1314
tp4922
g1617
s(g375
g1265
g1314
tp4923
g1619
s(g375
g1317
g251
tp4924
g1693
s(g1317
g375
g251
tp4925
g1623
s(g251
g1317
g1314
tp4926
g1625
s(g251
g501
g1314
tp4927
g1627
s(g438
g1314
g251
tp4928
g1629
s(g375
g609
g1314
tp4929
g1631
s(g501
g375
g1314
tp4930
g1633
s(g609
g375
g251
tp4931
g1609
s(g501
g1317
g1314
tp4932
g1641
s(g1314
g438
g1314
tp4933
g1483
s(g324
g501
g1314
tp4934
g1645
s(g375
g251
g1314
tp4935
g1651
s(g438
g552
g251
tp4936
g1653
s(g501
g552
g251
tp4937
g1531
s(g324
g1317
g251
tp4938
g1657
s(g1314
g1317
g1314
tp4939
g1659
s(g1265
g552
g1314
tp4940
g1661
s(g1317
g1317
g1314
tp4941
g1665
s(g324
g375
g251
tp4942
g1667
s(g375
g1265
g251
tp4943
g1669
s(g1317
g324
g1314
tp4944
g1705
s(g324
g251
g1314
tp4945
g1505
s(g1317
g375
g1314
tp4946
g1677
s(g324
g1314
g1314
tp4947
g1683
s(g609
g375
g1314
tp4948
g1685
s(g501
g609
g251
tp4949
g1687
s(g1265
g438
g251
tp4950
g1621
s(g438
g552
g1314
tp4951
g1695
s(g438
g324
g1314
tp4952
g1697
s(g1265
g251
g251
tp4953
g1699
s(g552
g552
g1314
tp4954
g1655
s(g324
g1265
g251
tp4955
g1703
s(g1314
g609
g1314
tp4956
g1671
s(g251
g501
g251
tp4957
g1707
s(g251
g552
g251
tp4958
g1709
s(g501
g324
g251
tp4959
g1713
s(g501
g375
g251
tp4960
g1711
s(g609
g552
g1314
tp4961
g1491
s(g1317
g552
g251
tp4962
g1715
s(g438
g438
g1314
tp4963
g1719
s(g501
g1265
g1314
tp4964
g1721
s(g1265
g251
g1314
tp4965
g1723
s(g609
g251
g251
tp4966
g1725
s(g375
g251
g251
tp4967
g1727
s(g501
g609
g1314
tp4968
g1729
s(g324
g1317
g1314
tp4969
g1701
s(g1265
g609
g251
tp4970
g1731
s(g251
g1314
g251
tp4971
g1733
s(g1317
g1317
g251
tp4972
g1735
s(g251
g609
g1314
tp4973
g1379
s(g1265
g438
g1314
tp4974
g1387
s(g1314
g438
g251
tp4975
g1741
s(g324
g251
g251
tp4976
g1417
s(g1314
g609
g251
tp4977
g1691
s(g375
g1314
g251
tp4978
g1747
s(g324
g501
g251
tp4979
g1599
s(g251
g375
g251
tp4980
g1751
s(g1317
g501
g1314
tp4981
g1753
s(g1265
g1317
g1314
tp4982
g1755
s(g251
g375
g1314
tp4983
g1501
s(g501
g1265
g251
tp4984
g1759
s(g552
g1317
g1314
tp4985
g1761
s(g438
g324
g251
tp4986
g1763
s(g251
g1265
g251
tp4987
g1765
s(g324
g1265
g1314
tp4988
g1769
s(g1265
g1265
g251
tp4989
g1771
s(g501
g324
g1314
tp4990
g1773
s(g552
g375
g1314
tp4991
g1611
s(g552
g1314
g1314
tp4992
g1777
s(g609
g1314
g1314
tp4993
g1781
s(g251
g324
g1314
tp4994
g1783
s(g609
g251
g1314
tp4995
g1785
s(g1314
g1314
g1314
tp4996
g1787
s(g438
g1317
g1314
tp4997
g1789
s(g324
g552
g1314
tp4998
g1791
s(g251
g1314
g1314
tp4999
g1793
s(g251
g609
g251
tp5000
g1779
s(g1314
g375
g251
tp5001
g1797
ssg2611
(dp5002
(g3638
g1314
tp5003
(lp5004
g21
(g22
(I0
tp5005
g24
tp5006
Rp5007
(I1
(I3
tp5008
g260
I00
S'\xdc\xa1K\x1cZN\x05@\xdd\x07\xc1b<+\x16\xc0\xff$>,\x94\x15\x0b@'
p5009
tp5010
bas(g3555
g251
tp5011
(lp5012
g21
(g22
(I0
tp5013
g24
tp5014
Rp5015
(I1
(I3
tp5016
g260
I00
S'\x00z\xb1/\xd3\x00\xbf\xbf\xf1\x02\x97\xbc\xcd\x7f\x18\xc0L\x01\xc4\x98x\xe3\xeb?'
p5017
tp5018
bag21
(g22
(I0
tp5019
g24
tp5020
Rp5021
(I1
(I3
tp5022
g271
I00
S'O,\xcb\xfeY\x8e\xc7\xbf\xf0\xf7E?R\xcd\x19\xc0b\x97\xa7\xc3\xfe9\xfa?'
p5023
tp5024
bag21
(g22
(I0
tp5025
g24
tp5026
Rp5027
(I1
(I3
tp5028
g271
I00
S'`$W\xed\x83\x04\xe1?@\xe9\x80h\xcc\xf0\x18\xc0{2\xe8\xfe\xbeY\r@'
p5029
tp5030
bag21
(g22
(I0
tp5031
g24
tp5032
Rp5033
(I1
(I3
tp5034
g271
I00
S'f\xb4\x9c\x07\xac\xbf\xec?n\x96\x96\x9e\x90n\x16\xc0uo!\xa9\x9b\x82\x07@'
p5035
tp5036
bag21
(g22
(I0
tp5037
g24
tp5038
Rp5039
(I1
(I3
tp5040
g271
I00
S'm\xd5h\x072\x03\xea?\xdf\xe5\xe82\xd3\x17\x14\xc0\x08\x9e\xe1\xfbO\x94\x08@'
p5041
tp5042
bag21
(g22
(I0
tp5043
g24
tp5044
Rp5045
(I1
(I3
tp5046
g271
I00
S'\xc6\x05\xbdtg\xd9\xe2?F\xdf\x9d@\\\xf3\x11\xc0\x1a\xc4.\xbb\xcc\x12\x02@'
p5047
tp5048
bag21
(g22
(I0
tp5049
g24
tp5050
Rp5051
(I1
(I3
tp5052
g271
I00
S'3z\xed\x8eN)\xe4?\x0c\x96\xd4\xa2\x0e\xd0\r\xc0\xbd%\xf5{\xe9\xf9\x03@'
p5053
tp5054
bag21
(g22
(I0
tp5055
g24
tp5056
Rp5057
(I1
(I3
tp5058
g271
I00
S'\xaf0\xe9h\xba~\xee?k\xbb\xd8\xd4\xd0g\t\xc09\x9ey\xed\xb06\x06@'
p5059
tp5060
bag21
(g22
(I0
tp5061
g24
tp5062
Rp5063
(I1
(I3
tp5064
g271
I00
S'\xf4\xfdJ\x1a(#\xec?H"\x9cD\x1aE\x05\xc0.\xa9\x0b\x87\xf8\xe1\x02@'
p5065
tp5066
bas(g3569
g251
tp5067
g3334
s(g3554
g1314
tp5068
(lp5069
g21
(g22
(I0
tp5070
g24
tp5071
Rp5072
(I1
(I3
tp5073
g260
I00
S'H\xf7J\xacd\xc5\xed?\xb4\xb88\x91\xbe\xd4\x1d\xc0+{\xf1\rc4\r@'
p5074
tp5075
bas(g3569
g1314
tp5076
(lp5077
g21
(g22
(I0
tp5078
g24
tp5079
Rp5080
(I1
(I3
tp5081
g260
I00
S'\xa1}\xe7H)\xa2\x03@_\xc3\xfb%\xa6\xbb\x18\xc0\xa7\x17\xb2H=\x1e\xf3?'
p5082
tp5083
bas(g3554
g251
tp5084
(lp5085
g21
(g22
(I0
tp5086
g24
tp5087
Rp5088
(I1
(I3
tp5089
g260
I00
S'H\xf7J\xacd\xc5\xed?\xb6\xb88\x91\xbe\xd4\x1d\xc0*{\xf1\rc4\r@'
p5090
tp5091
bag21
(g22
(I0
tp5092
g24
tp5093
Rp5094
(I1
(I3
tp5095
g271
I00
S'\x0c\x0f=\x82\xe8\x10\xef?\x95;\xd2\x17&\xe7\x1b\xc0\xf2\xbb\xbd\xb4q\x0b\t@'
p5096
tp5097
bag21
(g22
(I0
tp5098
g24
tp5099
Rp5100
(I1
(I3
tp5101
g271
I00
S'\xae\xea\x9e\xa3\xa2\xb1\xed?\xa4\xca\x1d?h\x96\x19\xc0dq\xdf\xb1\x9d\xe4\x05@'
p5102
tp5103
bag21
(g22
(I0
tp5104
g24
tp5105
Rp5106
(I1
(I3
tp5107
g271
I00
S'o\xd6\x82\xea\x7f\xb2\xed?9\xf2C\x0b?\xfd\x16\xc0(?d\xe9@\xb5\x02@'
p5108
tp5109
bag21
(g22
(I0
tp5110
g24
tp5111
Rp5112
(I1
(I3
tp5113
g271
I00
S'&>c9\x01,\xeb?\xb2\xc2\xf0\x02\xce\x8e\x14\xc0\xd8p\xbb2\x14\xd2\x03@'
p5114
tp5115
bag21
(g22
(I0
tp5116
g24
tp5117
Rp5118
(I1
(I3
tp5119
g271
I00
S'\xc6\x05\xbdtg\xd9\xe2?F\xdf\x9d@\\\xf3\x11\xc0\x1a\xc4.\xbb\xcc\x12\x02@'
p5120
tp5121
bag21
(g22
(I0
tp5122
g24
tp5123
Rp5124
(I1
(I3
tp5125
g271
I00
S'3z\xed\x8eN)\xe4?\x0c\x96\xd4\xa2\x0e\xd0\r\xc0\xbd%\xf5{\xe9\xf9\x03@'
p5126
tp5127
bag21
(g22
(I0
tp5128
g24
tp5129
Rp5130
(I1
(I3
tp5131
g271
I00
S'\xaf0\xe9h\xba~\xee?k\xbb\xd8\xd4\xd0g\t\xc09\x9ey\xed\xb06\x06@'
p5132
tp5133
bag21
(g22
(I0
tp5134
g24
tp5135
Rp5136
(I1
(I3
tp5137
g271
I00
S'\xf4\xfdJ\x1a(#\xec?H"\x9cD\x1aE\x05\xc0.\xa9\x0b\x87\xf8\xe1\x02@'
p5138
tp5139
bas(g3553
g1314
tp5140
(lp5141
g21
(g22
(I0
tp5142
g24
tp5143
Rp5144
(I1
(I3
tp5145
g260
I00
S'1\xf73\xad\xe0\xc6\xd9?vz6uC\xde\x1e\xc0J\x8d\tS\xa4\x07\x02@'
p5146
tp5147
bas(g3553
g251
tp5148
g3478
s(g74
g251
tp5149
(lp5150
g21
(g22
(I0
tp5151
g24
tp5152
Rp5153
(I1
(I3
tp5154
g260
I00
S'\xc6{P\x92\x7f\x81\x08@\x9dV~\xc6\xfe\xdf\x1d\xc04^V\xd0\xa6e\x10@'
p5155
tp5156
bag21
(g22
(I0
tp5157
g24
tp5158
Rp5159
(I1
(I3
tp5160
g271
I00
S'\x89\xcfHU\xa1\xf5\x05@\xee\x9b\xa6\x01<)\x1c\xc0W\xa3jE\xe6\xde\x01\xc0'
p5161
tp5162
bag21
(g22
(I0
tp5163
g24
tp5164
Rp5165
(I1
(I3
tp5166
g271
I00
S'\xc4_\xf9\x03N\xba\x00@R\xfd8\x1fs\r\x1d\xc0\xa1\xe6w68\xd4\x03\xc0'
p5167
tp5168
bag21
(g22
(I0
tp5169
g24
tp5170
Rp5171
(I1
(I3
tp5172
g271
I00
S'S@\xf8l\x95\x08\xf8?\xef\x91If\xa4L\x1e\xc0\x8b\xc5pa\xf4C\x04\xc0'
p5173
tp5174
bag21
(g22
(I0
tp5175
g24
tp5176
Rp5177
(I1
(I3
tp5178
g271
I00
S'\xba)c\x05l\x93\xf4?\x8f\x0f\xa1<\xee\x05\x1c\xc0\xf9-\x16\x17\xc6`\xf8\xbf'
p5179
tp5180
bag21
(g22
(I0
tp5181
g24
tp5182
Rp5183
(I1
(I3
tp5184
g271
I00
S'\xb0\xcfg\xd5._\xe8?\xd6\x8d\xba\x87\x91D\x1a\xc0\xea!\xf73\x0cB\xf7\xbf'
p5185
tp5186
bag21
(g22
(I0
tp5187
g24
tp5188
Rp5189
(I1
(I3
tp5190
g271
I00
S"\x1aq\xa1\x96-\xd2\xec?\xa2\x8f\xd2'\xa1I\x18\xc0\x06\xea(\x89^*\xf2\xbf"
p5191
tp5192
bag21
(g22
(I0
tp5193
g24
tp5194
Rp5195
(I1
(I3
tp5196
g271
I00
S'tx\x8as\xa8b\xed?\x9ej\x15\xfa\xf0{\x15\xc0@\xed\x9a-\x9eD\xf2\xbf'
p5197
tp5198
bag21
(g22
(I0
tp5199
g24
tp5200
Rp5201
(I1
(I3
tp5202
g271
I00
S"\xb2&6mg)\xe8?\x99\xe0G'\x16\xe0\x13\xc0\xc8oL\xf5\x17p\xe6\xbf"
p5203
tp5204
bag21
(g22
(I0
tp5205
g24
tp5206
Rp5207
(I1
(I3
tp5208
g271
I00
S'`\xc8Aw-\x81\xeb?/\xc3\xe6O\x04\xca\x10\xc0\x8a\xb7K)\x91{\xe4\xbf'
p5209
tp5210
bag21
(g22
(I0
tp5211
g24
tp5212
Rp5213
(I1
(I3
tp5214
g271
I00
S'\xe1\xc6\xc7\xa7\x12X\xe7?\x98\x99\xb0\x9a\xfb\xdb\x0b\xc0R\t\x1b)\xeae\xe0\xbf'
p5215
tp5216
bag21
(g22
(I0
tp5217
g24
tp5218
Rp5219
(I1
(I3
tp5220
g271
I00
S'p\xf1\xbdc^\x84\xf1?"\x88LL\xf9D\x06\xc0~w\r\xe9m\x0f\x19@'
p5221
tp5222
bas(g3570
g251
tp5223
g3384
s(g3570
g1314
tp5224
(lp5225
g21
(g22
(I0
tp5226
g24
tp5227
Rp5228
(I1
(I3
tp5229
g260
I00
S'-\xe5%i\xe3,\xfb?\x13y\xf5D\xc9;\x18\xc0?:\xfbk#\xb4\x18@'
p5230
tp5231
bas(g3555
g1314
tp5232
(lp5233
g21
(g22
(I0
tp5234
g24
tp5235
Rp5236
(I1
(I3
tp5237
g260
I00
S'oy\xb1/\xd3\x00\xbf\xbf\xf0\x02\x97\xbc\xcd\x7f\x18\xc0M\x01\xc4\x98x\xe3\xeb?'
p5238
tp5239
bas(g74
g1314
tp5240
(lp5241
g21
(g22
(I0
tp5242
g24
tp5243
Rp5244
(I1
(I3
tp5245
g260
I00
S'\xc6{P\x92\x7f\x81\x08@\x9eV~\xc6\xfe\xdf\x1d\xc05^V\xd0\xa6e\x10@'
p5246
tp5247
bas(g3552
g1314
tp5248
(lp5249
g21
(g22
(I0
tp5250
g24
tp5251
Rp5252
(I1
(I3
tp5253
g260
I00
S':!\x94\xc3\x11\x01\xf7?*\xc0*j\x8cB\x1c\xc0\x08\x8ekmNV\xf4?'
p5254
tp5255
bas(g3552
g251
tp5256
(lp5257
g21
(g22
(I0
tp5258
g24
tp5259
Rp5260
(I1
(I3
tp5261
g260
I00
S'C!\x94\xc3\x11\x01\xf7?)\xc0*j\x8cB\x1c\xc0\x08\x8ekmNV\xf4?'
p5262
tp5263
bag21
(g22
(I0
tp5264
g24
tp5265
Rp5266
(I1
(I3
tp5267
g271
I00
S'\xaf3:\xca\x05\xfa\xee?\x17\xfeO1BH\x1c\xc0&\xc3FV\xf0\xcb\xf7?'
p5268
tp5269
bag21
(g22
(I0
tp5270
g24
tp5271
Rp5272
(I1
(I3
tp5273
g271
I00
S'\xae\xea\x9e\xa3\xa2\xb1\xed?\xa4\xca\x1d?h\x96\x19\xc0dq\xdf\xb1\x9d\xe4\x05@'
p5274
tp5275
bag21
(g22
(I0
tp5276
g24
tp5277
Rp5278
(I1
(I3
tp5279
g271
I00
S'o\xd6\x82\xea\x7f\xb2\xed?9\xf2C\x0b?\xfd\x16\xc0(?d\xe9@\xb5\x02@'
p5280
tp5281
bag21
(g22
(I0
tp5282
g24
tp5283
Rp5284
(I1
(I3
tp5285
g271
I00
S'&>c9\x01,\xeb?\xb2\xc2\xf0\x02\xce\x8e\x14\xc0\xd8p\xbb2\x14\xd2\x03@'
p5286
tp5287
bag21
(g22
(I0
tp5288
g24
tp5289
Rp5290
(I1
(I3
tp5291
g271
I00
S'\xc6\x05\xbdtg\xd9\xe2?F\xdf\x9d@\\\xf3\x11\xc0\x1a\xc4.\xbb\xcc\x12\x02@'
p5292
tp5293
bag21
(g22
(I0
tp5294
g24
tp5295
Rp5296
(I1
(I3
tp5297
g271
I00
S'3z\xed\x8eN)\xe4?\x0c\x96\xd4\xa2\x0e\xd0\r\xc0\xbd%\xf5{\xe9\xf9\x03@'
p5298
tp5299
bag21
(g22
(I0
tp5300
g24
tp5301
Rp5302
(I1
(I3
tp5303
g271
I00
S'\xaf0\xe9h\xba~\xee?k\xbb\xd8\xd4\xd0g\t\xc09\x9ey\xed\xb06\x06@'
p5304
tp5305
bag21
(g22
(I0
tp5306
g24
tp5307
Rp5308
(I1
(I3
tp5309
g271
I00
S'\xf4\xfdJ\x1a(#\xec?H"\x9cD\x1aE\x05\xc0.\xa9\x0b\x87\xf8\xe1\x02@'
p5310
tp5311
bas(g3638
g251
tp5312
g3428
ssg2740
(dp5313
(g438
g1265
tp5314
g2836
s(g438
g324
tp5315
g2838
s(g609
g552
tp5316
g2844
s(g251
g609
tp5317
g3040
s(g1265
g609
tp5318
g2848
s(g438
g375
tp5319
g2850
s(g324
g324
tp5320
g2854
s(g609
g1314
tp5321
g2856
s(g324
g1265
tp5322
g2868
s(g1317
g438
tp5323
g3014
s(g375
g251
tp5324
g2872
s(g1314
g324
tp5325
g2910
s(g609
g1265
tp5326
g2876
s(g438
g438
tp5327
g2880
s(g1317
g1265
tp5328
g2978
s(g552
g609
tp5329
g2884
s(g609
g251
tp5330
g2886
s(g1317
g1314
tp5331
g2866
s(g324
g501
tp5332
g2890
s(g375
g375
tp5333
g2892
s(g609
g1317
tp5334
g2894
s(g1317
g324
tp5335
g2980
s(g1314
g552
tp5336
g2898
s(g609
g438
tp5337
g3028
s(g552
g251
tp5338
g2902
s(g1265
g324
tp5339
g2904
s(g501
g324
tp5340
g2906
s(g552
g501
tp5341
g2908
s(g1317
g251
tp5342
g2912
s(g375
g609
tp5343
g2914
s(g324
g552
tp5344
g2916
s(g1317
g552
tp5345
g2918
s(g552
g1317
tp5346
g2920
s(g1265
g375
tp5347
g2924
s(g1265
g251
tp5348
g2928
s(g1317
g1317
tp5349
g2930
s(g552
g324
tp5350
g2932
s(g1265
g1317
tp5351
g3062
s(g251
g1317
tp5352
g3064
s(g251
g375
tp5353
g2936
s(g501
g1314
tp5354
g2938
s(g251
g501
tp5355
g2940
s(g552
g1314
tp5356
g2946
s(g1265
g1265
tp5357
g3080
s(g552
g552
tp5358
g2950
s(g501
g609
tp5359
g2952
s(g1314
g251
tp5360
g2954
s(g251
g438
tp5361
g2956
s(g324
g251
tp5362
g2958
s(g1317
g501
tp5363
g2960
s(g251
g1265
tp5364
g2962
s(g438
g552
tp5365
g3048
s(g501
g1317
tp5366
g2966
s(g1265
g1314
tp5367
g2968
s(g501
g438
tp5368
g2970
s(g324
g609
tp5369
g2972
s(g324
g1314
tp5370
g2974
s(g1314
g438
tp5371
g2882
s(g1314
g609
tp5372
g2896
s(g501
g251
tp5373
g2982
s(g438
g501
tp5374
g2984
s(g375
g501
tp5375
g2986
s(g1314
g1314
tp5376
g2990
s(g375
g552
tp5377
g2994
s(g1314
g375
tp5378
g2996
s(g609
g324
tp5379
g2998
s(g501
g552
tp5380
g2888
s(g1314
g501
tp5381
g3000
s(g375
g1317
tp5382
g3002
s(g438
g609
tp5383
g3004
s(g375
g324
tp5384
g3008
s(g324
g375
tp5385
g3010
s(g609
g375
tp5386
g3012
s(g1314
g1265
tp5387
g2870
s(g609
g501
tp5388
g3016
s(g552
g438
tp5389
g3018
s(g438
g1314
tp5390
g3020
s(g501
g501
tp5391
g3022
s(g1265
g438
tp5392
g3024
s(g375
g1265
tp5393
g3026
s(g251
g552
tp5394
g2988
s(g609
g609
tp5395
g3030
s(g1265
g501
tp5396
g3032
s(g438
g251
tp5397
g3034
s(g552
g375
tp5398
g3036
s(g501
g375
tp5399
g3042
s(g251
g1314
tp5400
g3046
s(g438
g1317
tp5401
g3052
s(g251
g251
tp5402
g3056
s(g501
g1265
tp5403
g3058
s(g324
g1317
tp5404
g3060
s(g375
g438
tp5405
g2934
s(g1317
g609
tp5406
g2874
s(g251
g324
tp5407
g3066
s(g552
g1265
tp5408
g3068
s(g1265
g552
tp5409
g3070
s(g1314
g1317
tp5410
g3074
s(g324
g438
tp5411
g3078
s(g375
g1314
tp5412
g3082
s(g1317
g375
tp5413
g3084
ssg2742
(dp5414
g1317
(lp5415
I0
aI0
aI0
aI0
aI0
aI0
aI00
aI01
aI00
aI01
aI00
asg1314
(lp5416
I0
aI0
aI0
aI0
aI0
aI0
aI00
aI01
aI00
aI01
aI00
asg251
(lp5417
I0
aI0
aI0
aI0
aI0
aI0
aI00
aI01
aI01
aI01
aI00
asg324
(lp5418
I0
aI0
aI0
ag2006
(g260
S'P&\xfd\xa8\xc8\xba\x06@'
p5419
tp5420
Rp5421
ag2006
(g260
S'J\xc2\xf8\x17\xe9i\x16\xc0'
p5422
tp5423
Rp5424
ag2006
(g260
S'\x8c\xf3\xa7\x1d\xd0a\x17@'
p5425
tp5426
Rp5427
aI01
aI00
aI00
aI00
aI00
asg609
(lp5428
I0
aI0
aI0
ag2006
(g260
S'73C=\x9f%\xfb?'
p5429
tp5430
Rp5431
ag2006
(g260
S'\xc8\x87\x9ak\xba\xd9\x19\xc0'
p5432
tp5433
Rp5434
ag2006
(g260
S'H\xed?\xbc\xd4[\x07@'
p5435
tp5436
Rp5437
aI01
aI00
aI00
aI01
aI00
asg250
(lp5438
I0
aI0
aI0
ag2006
(g260
S'\x04\xa2%u2|\x03@'
p5439
tp5440
Rp5441
ag2006
(g260
S'\xac`\xb8\x03\x97\xf8\x18\xc0'
p5442
tp5443
Rp5444
ag2006
(g260
S'\x13\x0e]\xd3\xf6\x89\xb4?'
p5445
tp5446
Rp5447
aI01
aI00
aI00
aI00
aI00
asg501
(lp5448
I0
aI0
aI0
ag2006
(g260
S'\xc9\\r\xdc3\xa4\xfd?'
p5449
tp5450
Rp5451
ag2006
(g260
S'\xf9D\x96S7\xbf\x15\xc0'
p5452
tp5453
Rp5454
ag2006
(g260
S'\xf5E&.\xd8\x98\x18@'
p5455
tp5456
Rp5457
aI01
aI00
aI00
aI00
aI00
asg438
(lp5458
I0
aI0
aI0
ag2006
(g260
S'l\x84\xe9^\xdc$\xc7?'
p5459
tp5460
Rp5461
ag2006
(g260
S'\xda& \x8d\x1c\x05\x1c\xc0'
p5462
tp5463
Rp5464
ag2006
(g260
S'\xd0\xd9z\x1fPg\x14@'
p5465
tp5466
Rp5467
aI01
aI00
aI00
aI01
aI00
asg552
(lp5468
I0
aI0
aI0
ag2006
(g260
S'Hx\xfcwQ\x8b\xcc?'
p5469
tp5470
Rp5471
ag2006
(g260
S'~\x01\x02dg\xb1\x1e\xc0'
p5472
tp5473
Rp5474
ag2006
(g260
S':]g}\xc5\xac\x14@'
p5475
tp5476
Rp5477
aI01
aI00
aI00
aI01
aI00
asg375
(lp5478
I0
aI0
aI0
ag2006
(g260
S'[\xb5\x1fC \x07\x05@'
p5479
tp5480
Rp5481
ag2006
(g260
S'x\xc5\xb6\xa7\xce\x1b \xc0'
p5482
tp5483
Rp5484
ag2006
(g260
S'\xd4\xb2\x82\xd7\x18\xe4\x15@'
p5485
tp5486
Rp5487
aI01
aI00
aI01
aI01
aI00
asg1265
(lp5488
I0
aI0
aI0
ag2006
(g260
S'\x03$Qf\xa1\x9f\xd0?'
p5489
tp5490
Rp5491
ag2006
(g260
S'B,\xa8\xbaZ\x02\x16\xc0'
p5492
tp5493
Rp5494
ag2006
(g260
S'\x85\xaeqv\xa8:\x16@'
p5495
tp5496
Rp5497
aI01
aI00
aI00
aI01
aI00
assg2827
(dp5498
sg2829
g117
sg2830
g2831
sg2833
(dp5499
(g438
g1265
tp5500
(lp5501
I00
aI00
aI00
as(g438
g324
tp5502
(lp5503
I00
aI00
aI00
as(g250
g552
tp5504
(lp5505
I00
aI00
aI00
as(g250
g250
tp5506
(lp5507
I00
aI00
aI00
as(g609
g552
tp5508
(lp5509
I00
aI00
aI00
as(g609
g250
tp5510
(lp5511
I00
aI00
aI00
as(g1265
g609
tp5512
(lp5513
I00
aI00
aI00
as(g438
g375
tp5514
(lp5515
I00
aI00
aI00
as(g501
g250
tp5516
(lp5517
I00
aI00
aI00
as(g324
g324
tp5518
(lp5519
I00
aI00
aI00
as(g609
g1314
tp5520
(lp5521
g2864
aI00
aI01
as(g1317
g1314
tp5522
(lp5523
I00
aI00
aI00
as(g324
g1265
tp5524
(lp5525
I00
aI00
aI00
as(g1314
g1265
tp5526
(lp5527
I00
aI00
aI00
as(g375
g251
tp5528
(lp5529
I00
aI00
aI01
as(g1317
g609
tp5530
(lp5531
I00
aI00
aI00
as(g609
g1265
tp5532
(lp5533
I00
aI00
aI00
as(g250
g1317
tp5534
(lp5535
g2864
aI00
aI00
as(g438
g438
tp5536
(lp5537
I00
aI00
aI00
as(g1314
g438
tp5538
(lp5539
I00
aI00
aI00
as(g552
g609
tp5540
(lp5541
I00
aI00
aI00
as(g609
g251
tp5542
(lp5543
I00
aI00
aI01
as(g501
g552
tp5544
(lp5545
I00
aI00
aI00
as(g324
g501
tp5546
(lp5547
I00
aI01
aI00
as(g375
g375
tp5548
(lp5549
I00
aI00
aI00
as(g609
g1317
tp5550
(lp5551
g2864
aI00
aI00
as(g1314
g609
tp5552
(lp5553
I00
aI00
aI00
as(g1314
g552
tp5554
(lp5555
I00
aI00
aI00
as(g1314
g250
tp5556
(lp5557
I00
aI00
aI00
as(g552
g251
tp5558
(lp5559
I00
aI00
aI01
as(g1265
g324
tp5560
(lp5561
I00
aI00
aI00
as(g501
g324
tp5562
(lp5563
I00
aI00
aI00
as(g552
g501
tp5564
(lp5565
I00
aI00
aI00
as(g1314
g324
tp5566
(lp5567
I00
aI00
aI00
as(g1317
g251
tp5568
(lp5569
I00
aI00
aI00
as(g375
g609
tp5570
(lp5571
I00
aI00
aI00
as(g324
g552
tp5572
(lp5573
I00
aI00
aI00
as(g1317
g552
tp5574
(lp5575
I00
aI00
aI00
as(g552
g1317
tp5576
(lp5577
g2864
aI00
aI00
as(g250
g438
tp5578
(lp5579
I00
aI00
aI00
as(g1265
g375
tp5580
(lp5581
I00
aI00
aI00
as(g250
g609
tp5582
(lp5583
I00
aI00
aI00
as(g1265
g251
tp5584
(lp5585
I00
aI00
aI01
as(g1317
g1317
tp5586
(lp5587
I00
aI00
aI00
as(g552
g324
tp5588
(lp5589
I00
aI00
aI00
as(g375
g438
tp5590
(lp5591
I00
aI00
aI00
as(g251
g375
tp5592
(lp5593
I00
aI00
aI00
as(g501
g1314
tp5594
(lp5595
g2864
aI00
aI01
as(g251
g501
tp5596
(lp5597
I00
aI00
aI00
as(g1265
g250
tp5598
(lp5599
I00
aI00
aI00
as(g250
g375
tp5600
(lp5601
I00
aI00
aI00
as(g552
g1314
tp5602
(lp5603
g2864
aI00
aI01
as(g250
g501
tp5604
(lp5605
I00
aI01
aI00
as(g552
g552
tp5606
(lp5607
I00
aI00
aI00
as(g501
g609
tp5608
(lp5609
I00
aI00
aI00
as(g1314
g251
tp5610
(lp5611
I00
aI00
aI00
as(g251
g438
tp5612
(lp5613
I00
aI00
aI00
as(g324
g251
tp5614
(lp5615
I00
aI00
aI00
as(g1317
g501
tp5616
(lp5617
I00
aI00
aI00
as(g251
g1265
tp5618
(lp5619
I00
aI00
aI00
as(g250
g1265
tp5620
(lp5621
I00
aI00
aI00
as(g501
g1317
tp5622
(lp5623
g2864
aI00
aI00
as(g1265
g1314
tp5624
(lp5625
g2864
aI00
aI01
as(g501
g438
tp5626
(lp5627
I00
aI00
aI00
as(g324
g609
tp5628
(lp5629
I00
aI00
aI00
as(g324
g1314
tp5630
(lp5631
g2864
aI00
aI01
as(g251
g250
tp5632
(lp5633
I00
aI00
aI00
as(g1317
g1265
tp5634
(lp5635
I00
aI00
aI00
as(g1317
g324
tp5636
(lp5637
I00
aI00
aI00
as(g501
g251
tp5638
(lp5639
I00
aI00
aI00
as(g438
g501
tp5640
(lp5641
I00
aI00
aI00
as(g375
g501
tp5642
(lp5643
I00
aI00
aI00
as(g251
g552
tp5644
(lp5645
I00
aI00
aI00
as(g1314
g1314
tp5646
(lp5647
I00
aI00
aI00
as(g438
g250
tp5648
(lp5649
I00
aI00
aI00
as(g375
g552
tp5650
(lp5651
I00
aI00
aI00
as(g1314
g375
tp5652
(lp5653
I00
aI00
aI00
as(g609
g324
tp5654
(lp5655
I00
aI00
aI00
as(g1314
g501
tp5656
(lp5657
I00
aI00
aI00
as(g375
g1317
tp5658
(lp5659
g2864
aI00
aI00
as(g438
g609
tp5660
(lp5661
I00
aI00
aI00
as(g250
g251
tp5662
(lp5663
I00
aI00
aI00
as(g375
g324
tp5664
(lp5665
I00
aI00
aI00
as(g324
g375
tp5666
(lp5667
I00
aI00
aI00
as(g609
g375
tp5668
(lp5669
I00
aI00
aI00
as(g1317
g438
tp5670
(lp5671
I00
aI00
aI00
as(g609
g501
tp5672
(lp5673
I00
aI01
aI00
as(g552
g438
tp5674
(lp5675
I00
aI00
aI00
as(g438
g1314
tp5676
(lp5677
g2864
aI00
aI01
as(g501
g501
tp5678
(lp5679
I00
aI00
aI00
as(g1265
g438
tp5680
(lp5681
I00
aI00
aI00
as(g375
g1265
tp5682
(lp5683
I00
aI00
aI00
as(g609
g438
tp5684
(lp5685
I00
aI00
aI00
as(g609
g609
tp5686
(lp5687
I00
aI00
aI00
as(g1265
g501
tp5688
(lp5689
I00
aI00
aI00
as(g438
g251
tp5690
(lp5691
I00
aI00
aI00
as(g552
g375
tp5692
(lp5693
I00
aI00
aI00
as(g250
g1314
tp5694
(lp5695
g2864
aI00
aI01
as(g251
g609
tp5696
(lp5697
I00
aI00
aI00
as(g501
g375
tp5698
(lp5699
I00
aI00
aI00
as(g324
g250
tp5700
(lp5701
I00
aI01
aI00
as(g251
g1314
tp5702
(lp5703
I00
aI00
aI00
as(g438
g552
tp5704
(lp5705
I00
aI00
aI00
as(g1317
g250
tp5706
(lp5707
I00
aI00
aI00
as(g438
g1317
tp5708
(lp5709
g2864
aI00
aI00
as(g552
g250
tp5710
(lp5711
I00
aI00
aI00
as(g251
g251
tp5712
(lp5713
I00
aI00
aI00
as(g501
g1265
tp5714
(lp5715
I00
aI00
aI00
as(g324
g1317
tp5716
(lp5717
g2864
aI00
aI00
as(g1265
g1317
tp5718
(lp5719
g2864
aI00
aI00
as(g251
g1317
tp5720
(lp5721
I00
aI00
aI00
as(g251
g324
tp5722
(lp5723
I00
aI00
aI00
as(g552
g1265
tp5724
(lp5725
I00
aI00
aI00
as(g1265
g552
tp5726
(lp5727
I00
aI00
aI00
as(g250
g324
tp5728
(lp5729
I00
aI01
aI00
as(g1314
g1317
tp5730
(lp5731
I00
aI00
aI00
as(g375
g250
tp5732
(lp5733
I00
aI00
aI00
as(g324
g438
tp5734
(lp5735
I00
aI00
aI00
as(g1265
g1265
tp5736
(lp5737
I00
aI00
aI00
as(g375
g1314
tp5738
(lp5739
g2864
aI00
aI01
as(g1317
g375
tp5740
(lp5741
I00
aI00
aI00
assg694
g3551
sg3085
(itrajectory_representation.predicates.pick_in_way
PickInWay
p5742
(dp5743
g248
(dp5744
g324
g4049
sg609
g4056
sg250
g4081
sg501
g4100
sg438
g4119
sg552
g4144
sg375
g3649
sg1265
g4169
ssg660
(dp5745
g324
(lp5746
Vrectangular_packing_box3
p5747
asg609
(lp5748
sg250
(lp5749
Vrectangular_packing_box3
p5750
aVrectangular_packing_box4
p5751
asg501
(lp5752
Vrectangular_packing_box2
p5753
aVrectangular_packing_box3
p5754
aVrectangular_packing_box1
p5755
aVrectangular_packing_box4
p5756
asg438
(lp5757
sg552
(lp5758
sg375
(lp5759
sg1265
(lp5760
ssg694
(lp5761
g438
ag609
ag552
ag1265
ag1317
ag251
ag1314
ag375
ag1317
ag251
ag1314
ag1317
ag251
ag1314
ag1317
ag251
ag1314
ag1317
ag251
ag1314
ag1317
ag251
ag1314
ag1317
ag251
ag1314
ag1317
ag251
ag1314
asg697
g3556
sg119
(dp5762
sg732
g3568
sg1248
Nsg1254
g3568
sg1251
(dp5763
sg1253
I8
sg1309
I01
sg1255
Nsg1256
(dp5764
(g438
g1265
tp5765
I00
s(g438
g324
tp5766
I00
s(g250
g552
tp5767
I00
s(g250
g250
tp5768
I00
s(g609
g552
tp5769
I00
s(g609
g250
tp5770
I00
s(g1265
g609
tp5771
I00
s(g438
g375
tp5772
I00
s(g501
g250
tp5773
I00
s(g324
g324
tp5774
I00
s(g609
g1314
tp5775
I00
s(g1317
g1314
tp5776
I00
s(g324
g1265
tp5777
I00
s(g1314
g1265
tp5778
I00
s(g375
g251
tp5779
I00
s(g1317
g609
tp5780
I00
s(g609
g1265
tp5781
I00
s(g250
g1317
tp5782
I00
s(g438
g438
tp5783
I00
s(g1314
g438
tp5784
I00
s(g552
g609
tp5785
I00
s(g609
g251
tp5786
I00
s(g501
g552
tp5787
I00
s(g324
g501
tp5788
I01
s(g375
g375
tp5789
I00
s(g609
g1317
tp5790
I00
s(g1314
g609
tp5791
I00
s(g1314
g552
tp5792
I00
s(g1314
g250
tp5793
I00
s(g552
g251
tp5794
I00
s(g1265
g324
tp5795
I00
s(g501
g324
tp5796
I00
s(g552
g501
tp5797
I00
s(g1314
g324
tp5798
I00
s(g1317
g251
tp5799
I00
s(g375
g609
tp5800
I00
s(g324
g552
tp5801
I00
s(g1317
g552
tp5802
I00
s(g552
g1317
tp5803
I00
s(g250
g438
tp5804
I00
s(g1265
g375
tp5805
I00
s(g250
g609
tp5806
I00
s(g1265
g251
tp5807
I00
s(g1317
g1317
tp5808
I00
s(g552
g324
tp5809
I00
s(g375
g438
tp5810
I00
s(g251
g375
tp5811
I00
s(g501
g1314
tp5812
I00
s(g251
g501
tp5813
I00
s(g1265
g250
tp5814
I00
s(g250
g375
tp5815
I00
s(g552
g1314
tp5816
I00
s(g250
g501
tp5817
I01
s(g552
g552
tp5818
I00
s(g501
g609
tp5819
I00
s(g1314
g251
tp5820
I00
s(g251
g438
tp5821
I00
s(g324
g251
tp5822
I00
s(g1317
g501
tp5823
I00
s(g251
g1265
tp5824
I00
s(g250
g1265
tp5825
I00
s(g501
g1317
tp5826
I00
s(g1265
g1314
tp5827
I00
s(g501
g438
tp5828
I00
s(g324
g609
tp5829
I00
s(g324
g1314
tp5830
I00
s(g251
g250
tp5831
I00
s(g1317
g1265
tp5832
I00
s(g1317
g324
tp5833
I00
s(g501
g251
tp5834
I00
s(g438
g501
tp5835
I00
s(g375
g501
tp5836
I00
s(g251
g552
tp5837
I00
s(g1314
g1314
tp5838
I00
s(g438
g250
tp5839
I00
s(g375
g552
tp5840
I00
s(g1314
g375
tp5841
I00
s(g609
g324
tp5842
I00
s(g1314
g501
tp5843
I00
s(g375
g1317
tp5844
I00
s(g438
g609
tp5845
I00
s(g250
g251
tp5846
I00
s(g375
g324
tp5847
I00
s(g324
g375
tp5848
I00
s(g609
g375
tp5849
I00
s(g1317
g438
tp5850
I00
s(g609
g501
tp5851
I01
s(g552
g438
tp5852
I00
s(g438
g1314
tp5853
I00
s(g501
g501
tp5854
I00
s(g1265
g438
tp5855
I00
s(g375
g1265
tp5856
I00
s(g609
g438
tp5857
I00
s(g609
g609
tp5858
I00
s(g1265
g501
tp5859
I00
s(g438
g251
tp5860
I00
s(g552
g375
tp5861
I00
s(g250
g1314
tp5862
I00
s(g251
g609
tp5863
I00
s(g501
g375
tp5864
I00
s(g324
g250
tp5865
I01
s(g251
g1314
tp5866
I00
s(g438
g552
tp5867
I00
s(g1317
g250
tp5868
I00
s(g438
g1317
tp5869
I00
s(g552
g250
tp5870
I00
s(g251
g251
tp5871
I00
s(g501
g1265
tp5872
I00
s(g324
g1317
tp5873
I00
s(g1265
g1317
tp5874
I00
s(g251
g1317
tp5875
I00
s(g251
g324
tp5876
I00
s(g552
g1265
tp5877
I00
s(g1265
g552
tp5878
I00
s(g250
g324
tp5879
I01
s(g1314
g1317
tp5880
I00
s(g375
g250
tp5881
I00
s(g324
g438
tp5882
I00
s(g1265
g1265
tp5883
I00
s(g375
g1314
tp5884
I00
s(g1317
g375
tp5885
I00
ssg1308
Nsbsg3231
g21
(g22
(I0
tp5886
g24
tp5887
Rp5888
(I1
(I1
I3
tp5889
g260
I00
S'\x15\x89\xc8K\xf8\xc3\x03@\xf3M\xcc\xae\xe9\xa7\x1b\xc0\xb8O{\xd4\xcfo\xf9?'
p5890
tp5891
bsg3238
(itrajectory_representation.predicates.is_holding_goal_entity
IsHoldingGoalEntity
p5892
(dp5893
g2830
g2831
sg1255
Nsbsg3241
(dp5894
sg3243
g3556
sbasS'seed'
p5895
NsS'state_prime'
p5896
(lp5897
g3244
asS'problem_idx'
p5898
I276
sb.