(itrajectory_representation.trajectory
Trajectory
p0
(dp1
S'rewards'
p2
(lp3
I0
aI10
asS'actions'
p4
(lp5
(itrajectory_representation.operator
Operator
p6
(dp7
S'is_skeleton'
p8
I00
sS'discrete_parameters'
p9
(dp10
S'object'
p11
Vrectangular_packing_box4
p12
sS'two_arm_place_region'
p13
S'loading_region'
p14
sS'two_arm_place_object'
p15
g12
ssS'type'
p16
S'two_arm_pick_two_arm_place'
p17
sS'continuous_parameters'
p18
(dp19
S'q_goal'
p20
cnumpy.core.multiarray
_reconstruct
p21
(cnumpy
ndarray
p22
(I0
tp23
S'b'
p24
tp25
Rp26
(I1
(I3
tp27
cnumpy
dtype
p28
(S'f8'
p29
I0
I1
tp30
Rp31
(I3
S'<'
p32
NNNI-1
I-1
I0
tp33
bI00
S'H\x99{U\xb0\x86\xfc?\x1e\xd2o\xb4\n\xa0\x18\xc0\x9c\x99\xc9\x05\xf6\xbe\x02@'
p34
tp35
bsS'place'
p36
(dp37
g20
g21
(g22
(I0
tp38
g24
tp39
Rp40
(I1
(I3
tp41
g31
I00
S'r\xa6\x88\xd3\xc13\n@\x83\xad=\xf6\xb7\x80\x1a\xc0\xda"\xf2G^?\xb2\xbf'
p42
tp43
bssS'pick'
p44
(dp45
g20
g26
sssS'low_level_motion'
p46
(lp47
g21
(g22
(I0
tp48
g24
tp49
Rp50
(I1
(I3
tp51
g31
I00
S'\xd3=`\xfece\x07@\x97;\xab6h\x99\x18\xc0^\xc0\xe2\x95[\x82\xfc?'
p52
tp53
bag21
(g22
(I0
tp54
g24
tp55
Rp56
(I1
(I3
tp57
g28
(S'f8'
p58
I0
I1
tp59
Rp60
(I3
S'<'
p61
NNNI-1
I-1
I0
tp62
bI00
S'\xba\x8d\x1a\xa2f&\x03@$\xbc\xba{lE\x1a\xc0172\n\x8c\xab\x03@'
p63
tp64
bag21
(g22
(I0
tp65
g24
tp66
Rp67
(I1
(I3
tp68
g60
I00
S'\xac)\x94\xc9\xc1\xda\x03@>\xa9\\\xfe\x1d\xeb\x18\xc0\x03\xc0\n\xd21\x11\x08@'
p69
tp70
bag26
ag26
asba(itrajectory_representation.operator
Operator
p71
(dp72
g8
I00
sg9
(dp73
g11
Vsquare_packing_box1
p74
sS'two_arm_place_region'
p75
S'home_region'
p76
sS'two_arm_place_object'
p77
g74
ssg16
S'two_arm_pick_two_arm_place'
p78
sg18
(dp79
g20
g21
(g22
(I0
tp80
g24
tp81
Rp82
(I1
(I3
tp83
g31
I00
S'\x04l\x14\x0b\xb6\x9b\x08@%9\xe3\xf1\xdb\xbe\x1c\xc0\x14\x82D\xa9D\xd9\xf2\xbf'
p84
tp85
bsg36
(dp86
g20
g21
(g22
(I0
tp87
g24
tp88
Rp89
(I1
(I3
tp90
g31
I00
S'x>\xed\x01\x9d\x1d\xc5\xbf,3V:\xee\xff\xfe\xbf\xe6\xda;z\x9cS\xfd\xbf'
p91
tp92
bssg44
(dp93
g20
g82
sssg46
(lp94
g21
(g22
(I0
tp95
g24
tp96
Rp97
(I1
(I3
tp98
g31
I00
S'l\xa6\x88\xd3\xc13\n@\x7f\xad=\xf6\xb7\x80\x1a\xc0\x8dd$\xdb\xfd\xd8\x18@'
p99
tp100
bag82
ag82
asbasS'filename'
p101
S''
p102
sS'states'
p103
(lp104
(itrajectory_representation.shortest_path_pick_and_place_state
ShortestPathPaPState
p105
(dp106
S'place_used'
p107
(dp108
(Vsquare_packing_box1
p109
g76
tp110
(itrajectory_representation.operator
Operator
p111
(dp112
g8
I01
sg9
(dp113
S'region'
p114
g76
sg11
g109
ssg16
S'two_arm_place'
p115
sg18
(dp116
g20
g21
(g22
(I0
tp117
g24
tp118
Rp119
(I1
(I3
tp120
g31
I00
S'x>\xed\x01\x9d\x1d\xc5\xbf,3V:\xee\xff\xfe\xbf\xe6\xda;z\x9cS\xfd\xbf'
p121
tp122
bssg46
(lp123
g21
(g22
(I0
tp124
g24
tp125
Rp126
(I1
(I3
tp127
g31
I00
S'\x08l\x14\x0b\xb6\x9b\x08@*9\xe3\xf1\xdb\xbe\x1c\xc0\x1b\x82D\xa9D\xd9\xf2\xbf'
p128
tp129
bag21
(g22
(I0
tp130
g24
tp131
Rp132
(I1
(I3
tp133
g60
I00
S'/\x08\xfbO\x0f\xe3\x04@j\xb9\xdeR\x8bv\x1a\xc0Nw\xbd\xbe\xd2\x01\xfd\xbf'
p134
tp135
bag21
(g22
(I0
tp136
g24
tp137
Rp138
(I1
(I3
tp139
g60
I00
S'2]\x933g}\x00@\xebx\x00&R!\x1b\xc0\xce\x170ZD}\x00\xc0'
p140
tp141
bag21
(g22
(I0
tp142
g24
tp143
Rp144
(I1
(I3
tp145
g60
I00
S'4#\xe8i\x80D\xf8?\xdd\x1dlTl\\\x19\xc0m\xc1\x1a\xec\xde\x01\x01\xc0'
p146
tp147
bag21
(g22
(I0
tp148
g24
tp149
Rp150
(I1
(I3
tp151
g60
I00
S'\x9f5<Q\xb2\xb3\xf7?\xb3\xd6LI,\xe8\x16\xc0\xc2\x13\xbbtu\x87\x00\xc0'
p152
tp153
bag21
(g22
(I0
tp154
g24
tp155
Rp156
(I1
(I3
tp157
g60
I00
S'\xd0\xcb\x13\x8f\xaa\x9d\xed?\x90\x01<]3\x06\x16\xc0F\xf1\xe7x32\x02\xc0'
p158
tp159
bag21
(g22
(I0
tp160
g24
tp161
Rp162
(I1
(I3
tp163
g60
I00
S'l[\xc4\x16<\xe6\xe9?\xa6\xa0\x90\x84X\x9f\x13\xc0\xc2\xd74Q\x00\xaf\xff\xbf'
p164
tp165
bag21
(g22
(I0
tp166
g24
tp167
Rp168
(I1
(I3
tp169
g60
I00
S"\xaeJ\xbd\x1936\xec?\x04\x13\xd4'\x9f\x88\x10\xc0\x805qo\xb6\xe6\xff\xbf"
p170
tp171
bag21
(g22
(I0
tp172
g24
tp173
Rp174
(I1
(I3
tp175
g60
I00
S'\xf09\xb6\x1c*\x86\xee?\xc4\n/\x96\xcb\xe3\n\xc0\xa0\xc9\xd6F6\x0f\x00\xc0'
p176
tp177
bag21
(g22
(I0
tp178
g24
tp179
Rp180
(I1
(I3
tp181
g60
I00
S'\x99\x94\xd7\x8f\x10k\xf0?\x7f\xef\xb5\xdcX\xb6\x04\xc0~\xf8\xf4U\x11+\x00\xc0'
p182
tp183
bag21
(g22
(I0
tp184
g24
tp185
Rp186
(I1
(I3
tp187
g60
I00
S'\xbfD\x8f#\x1b\xd1\xe1?\x066\xdeJ\xf6\xf0\x01\xc0\\:\x82\xb77H\x15@'
p188
tp189
bag119
ag119
asbs(Vrectangular_packing_box4
p190
g14
tp191
(itrajectory_representation.operator
Operator
p192
(dp193
g8
I01
sg9
(dp194
g114
g14
sg11
g190
ssg16
g115
sg18
(dp195
g20
g21
(g22
(I0
tp196
g24
tp197
Rp198
(I1
(I3
tp199
g31
I00
S'r\xa6\x88\xd3\xc13\n@\x83\xad=\xf6\xb7\x80\x1a\xc0\xda"\xf2G^?\xb2\xbf'
p200
tp201
bssg46
(lp202
g21
(g22
(I0
tp203
g24
tp204
Rp205
(I1
(I3
tp206
g31
I00
S'@\x99{U\xb0\x86\xfc?"\xd2o\xb4\n\xa0\x18\xc0\x9a\x99\xc9\x05\xf6\xbe\x02@'
p207
tp208
bag21
(g22
(I0
tp209
g24
tp210
Rp211
(I1
(I3
tp212
g60
I00
S'\xba\x8d\x1a\xa2f&\x03@$\xbc\xba{lE\x1a\xc0172\n\x8c\xab\x03@'
p213
tp214
bag21
(g22
(I0
tp215
g24
tp216
Rp217
(I1
(I3
tp218
g60
I00
S'P\x9d\xdf\x99\xa6e\x04@\x1c`\xb6c\x8e7\x19\xc0@\xf2\xef\xc5\xd3\xc8\x17@'
p219
tp220
bag198
ag198
asbssS'place_in_way'
p221
(itrajectory_representation.predicates.place_in_way
PlaceInWay
p222
(dp223
S'mc_path_to_entity'
p224
(dp225
(Vrectangular_packing_box3
p226
S'home_region'
p227
tp228
(lp229
g21
(g22
(I0
tp230
g24
tp231
Rp232
(I1
(I3
tp233
g28
(S'f8'
p234
I0
I1
tp235
Rp236
(I3
S'<'
p237
NNNI-1
I-1
I0
tp238
bI00
S'eg\xa4\xb4J\x9c\x01@\x11T\x97G\x08\xd0\x18\xc0v\xc1\xb8\x11h\x9f\xf4?'
p239
tp240
bag21
(g22
(I0
tp241
g24
tp242
Rp243
(I1
(I3
tp244
g28
(S'f8'
p245
I0
I1
tp246
Rp247
(I3
S'<'
p248
NNNI-1
I-1
I0
tp249
bI00
S'\xe0 ;\x819w\xfd?\xe7\xcc\xc2\xa0\xa5f\x17\xc04\xedq\x1c\x8eK\xfa?'
p250
tp251
bag21
(g22
(I0
tp252
g24
tp253
Rp254
(I1
(I3
tp255
g247
I00
S'\x85\\2\xba\x0b5\xf5?I\r\x06\xd10\xfb\x15\xc0\x9e\x11\xee\xd8\xb9\xd7\xf5?'
p256
tp257
bag21
(g22
(I0
tp258
g24
tp259
Rp260
(I1
(I3
tp261
g247
I00
S'v\xb8^\x85\xa7[\xea?x\xbe\xff2t\x8d\x13\xc0\x88\x85\x8cCyH\xf6?'
p262
tp263
bag21
(g22
(I0
tp264
g24
tp265
Rp266
(I1
(I3
tp267
g247
I00
S'\xc2\xda(e\x83\x1a\xeb?\x8au\x8d3\xa6E\x11\xc0\xb4c\x1b\xed_\xfd\xfa?'
p268
tp269
bag21
(g22
(I0
tp270
g24
tp271
Rp272
(I1
(I3
tp273
g247
I00
S'\xe4u**\x0e5\xe9?\xaa\xfd\r\xed\xc4\xf6\r\xc0\x0fDE0\x1f\x0b\xfe?'
p274
tp275
bag21
(g22
(I0
tp276
g24
tp277
Rp278
(I1
(I3
tp279
g247
I00
S'\x06\x11,\xef\x98O\xe7??\x10\x01s=b\t\xc04\x92\xb79o\x8c\x00@'
p280
tp281
bag21
(g22
(I0
tp282
g24
tp283
Rp284
(I1
(I3
tp285
g247
I00
S'\x92\xaf\xf3P\x96O\xc2?(\xa1:\x8er}\x05\xc0\xd4_\x91\xb3\xffL\x02@'
p286
tp287
bas(Vsquare_packing_box4
p288
g227
tp289
(lp290
g21
(g22
(I0
tp291
g24
tp292
Rp293
(I1
(I3
tp294
g236
I00
S'\xbd\x0b\xdaU\x97j\n@\xb0\xcb\xa3\x019\xe0\x19\xc0+\xb3\xae\xc0\xd1\x8a\xf4?'
p295
tp296
bag21
(g22
(I0
tp297
g24
tp298
Rp299
(I1
(I3
tp300
g247
I00
S'\x80e\xcc\t\x9a\xde\x04@<\x13[@\x0e\xa9\x19\xc0\xca\xb9\x9c\x08\r\xad\xf4?'
p301
tp302
bag21
(g22
(I0
tp303
g24
tp304
Rp305
(I1
(I3
tp306
g247
I00
S'\xb1\x91\x83\xd6J:\x00@X\xbf\x9b\xa3\xf7;\x19\xc0\xb4\xa9\x94\xff\xff\xd1\xec?'
p307
tp308
bag21
(g22
(I0
tp309
g24
tp310
Rp311
(I1
(I3
tp312
g247
I00
S'j\xc7\xc0&\x8ag\xf6?h\x9cH4\x7f\xab\x18\xc0\xd8|\x1d\xfc\xcbV\xf2?'
p313
tp314
bag21
(g22
(I0
tp315
g24
tp316
Rp317
(I1
(I3
tp318
g247
I00
S'\x85\\2\xba\x0b5\xf5?I\r\x06\xd10\xfb\x15\xc0\x9e\x11\xee\xd8\xb9\xd7\xf5?'
p319
tp320
bag21
(g22
(I0
tp321
g24
tp322
Rp323
(I1
(I3
tp324
g247
I00
S'v\xb8^\x85\xa7[\xea?x\xbe\xff2t\x8d\x13\xc0\x88\x85\x8cCyH\xf6?'
p325
tp326
bag21
(g22
(I0
tp327
g24
tp328
Rp329
(I1
(I3
tp330
g247
I00
S'\xc2\xda(e\x83\x1a\xeb?\x8au\x8d3\xa6E\x11\xc0\xb4c\x1b\xed_\xfd\xfa?'
p331
tp332
bag21
(g22
(I0
tp333
g24
tp334
Rp335
(I1
(I3
tp336
g247
I00
S'\xe4u**\x0e5\xe9?\xaa\xfd\r\xed\xc4\xf6\r\xc0\x0fDE0\x1f\x0b\xfe?'
p337
tp338
bag21
(g22
(I0
tp339
g24
tp340
Rp341
(I1
(I3
tp342
g247
I00
S'\x06\x11,\xef\x98O\xe7??\x10\x01s=b\t\xc04\x92\xb79o\x8c\x00@'
p343
tp344
bag21
(g22
(I0
tp345
g24
tp346
Rp347
(I1
(I3
tp348
g247
I00
S'\x92\xaf\xf3P\x96O\xc2?(\xa1:\x8er}\x05\xc0\xd4_\x91\xb3\xffL\x02@'
p349
tp350
bas(Vrectangular_packing_box4
p351
g227
tp352
(lp353
g21
(g22
(I0
tp354
g24
tp355
Rp356
(I1
(I3
tp357
g236
I00
S'D\x99{U\xb0\x86\xfc?\x1f\xd2o\xb4\n\xa0\x18\xc0\x9c\x99\xc9\x05\xf6\xbe\x02@'
p358
tp359
bag21
(g22
(I0
tp360
g24
tp361
Rp362
(I1
(I3
tp363
g247
I00
S'\xc2:\x1b=\xad,\xfa?(\x190\xa5<\xab\x16\xc0\x9d\x91\xdc8Kq\x01@'
p364
tp365
bag21
(g22
(I0
tp366
g24
tp367
Rp368
(I1
(I3
tp369
g247
I00
S'o\xd6\x82\xea\x7f\xb2\xed?9\xf2C\x0b?\xfd\x16\xc0(?d\xe9@\xb5\x02@'
p370
tp371
bag21
(g22
(I0
tp372
g24
tp373
Rp374
(I1
(I3
tp375
g247
I00
S'&>c9\x01,\xeb?\xb2\xc2\xf0\x02\xce\x8e\x14\xc0\xd8p\xbb2\x14\xd2\x03@'
p376
tp377
bag21
(g22
(I0
tp378
g24
tp379
Rp380
(I1
(I3
tp381
g247
I00
S'\xc6\x05\xbdtg\xd9\xe2?F\xdf\x9d@\\\xf3\x11\xc0\x1a\xc4.\xbb\xcc\x12\x02@'
p382
tp383
bag21
(g22
(I0
tp384
g24
tp385
Rp386
(I1
(I3
tp387
g247
I00
S'3z\xed\x8eN)\xe4?\x0c\x96\xd4\xa2\x0e\xd0\r\xc0\xbd%\xf5{\xe9\xf9\x03@'
p388
tp389
bag21
(g22
(I0
tp390
g24
tp391
Rp392
(I1
(I3
tp393
g247
I00
S'\xaf0\xe9h\xba~\xee?k\xbb\xd8\xd4\xd0g\t\xc09\x9ey\xed\xb06\x06@'
p394
tp395
bag21
(g22
(I0
tp396
g24
tp397
Rp398
(I1
(I3
tp399
g247
I00
S'\xf4\xfdJ\x1a(#\xec?H"\x9cD\x1aE\x05\xc0.\xa9\x0b\x87\xf8\xe1\x02@'
p400
tp401
bas(Vsquare_packing_box1
p402
g227
tp403
(lp404
g21
(g22
(I0
tp405
g24
tp406
Rp407
(I1
(I3
tp408
g236
I00
S'\xffk\x14\x0b\xb6\x9b\x08@&9\xe3\xf1\xdb\xbe\x1c\xc0\x92\x0c\xf3)\xaak\x14@'
p409
tp410
bag21
(g22
(I0
tp411
g24
tp412
Rp413
(I1
(I3
tp414
g247
I00
S'\x98\x1b)\xc7\xadp\x07@\xe0a\x03*\x00_\x1b\xc0\xe8\xec\xcc63\x8c\xf0\xbf'
p415
tp416
bag21
(g22
(I0
tp417
g24
tp418
Rp419
(I1
(I3
tp420
g247
I00
S'\x02:\xde\x84?\xc0\x03@\x16\xfaJE\x8a\x0f\x19\xc0\x13\xc0\x8b\x01\x1d?\xf4\xbf'
p421
tp422
bag21
(g22
(I0
tp423
g24
tp424
Rp425
(I1
(I3
tp426
g247
I00
S'!\x83\xc0\xf3W\x85\xff?\xed\x8f\x90/y\xfd\x16\xc06jP\xfe\x98\xf5\xf4\xbf'
p427
tp428
bag21
(g22
(I0
tp429
g24
tp430
Rp431
(I1
(I3
tp432
g247
I00
S'2Z\xe1\xe97J\xf6?\\\x1e`@2v\x16\xc0\xc4\x0c\xcc\x14<\xf9\xf6\xbf'
p433
tp434
bag21
(g22
(I0
tp435
g24
tp436
Rp437
(I1
(I3
tp438
g247
I00
S'tx\x8as\xa8b\xed?\x9ej\x15\xfa\xf0{\x15\xc0@\xed\x9a-\x9eD\xf2\xbf'
p439
tp440
bag21
(g22
(I0
tp441
g24
tp442
Rp443
(I1
(I3
tp444
g247
I00
S"\xb2&6mg)\xe8?\x99\xe0G'\x16\xe0\x13\xc0\xc8oL\xf5\x17p\xe6\xbf"
p445
tp446
bag21
(g22
(I0
tp447
g24
tp448
Rp449
(I1
(I3
tp450
g247
I00
S'`\xc8Aw-\x81\xeb?/\xc3\xe6O\x04\xca\x10\xc0\x8a\xb7K)\x91{\xe4\xbf'
p451
tp452
bag21
(g22
(I0
tp453
g24
tp454
Rp455
(I1
(I3
tp456
g247
I00
S'\xe1\xc6\xc7\xa7\x12X\xe7?\x98\x99\xb0\x9a\xfb\xdb\x0b\xc0R\t\x1b)\xeae\xe0\xbf'
p457
tp458
bag21
(g22
(I0
tp459
g24
tp460
Rp461
(I1
(I3
tp462
g247
I00
S'p\xf1\xbdc^\x84\xf1?"\x88LL\xf9D\x06\xc0~w\r\xe9m\x0f\x19@'
p463
tp464
bas(Vsquare_packing_box2
p465
g227
tp466
(lp467
g21
(g22
(I0
tp468
g24
tp469
Rp470
(I1
(I3
tp471
g236
I00
S'\xe0=\xd6\xd5f5\xbe\xbf\xbb\xbf\xc8i\xa50\x16\xc0(=\x89\xa3\x19\xc7\x13@'
p472
tp473
bag21
(g22
(I0
tp474
g24
tp475
Rp476
(I1
(I3
tp477
g247
I00
S'\xbc\xcaD\xb3\xa5\xd0\xda?5\x9e\xd8L\xbc\xff\x15\xc0\x86v/\xef\x06;\xe9\xbf'
p478
tp479
bag21
(g22
(I0
tp480
g24
tp481
Rp482
(I1
(I3
tp483
g247
I00
S"\xb2&6mg)\xe8?\x99\xe0G'\x16\xe0\x13\xc0\xc8oL\xf5\x17p\xe6\xbf"
p484
tp485
bag21
(g22
(I0
tp486
g24
tp487
Rp488
(I1
(I3
tp489
g247
I00
S'`\xc8Aw-\x81\xeb?/\xc3\xe6O\x04\xca\x10\xc0\x8a\xb7K)\x91{\xe4\xbf'
p490
tp491
bag21
(g22
(I0
tp492
g24
tp493
Rp494
(I1
(I3
tp495
g247
I00
S'\xe1\xc6\xc7\xa7\x12X\xe7?\x98\x99\xb0\x9a\xfb\xdb\x0b\xc0R\t\x1b)\xeae\xe0\xbf'
p496
tp497
bag21
(g22
(I0
tp498
g24
tp499
Rp500
(I1
(I3
tp501
g247
I00
S'p\xf1\xbdc^\x84\xf1?"\x88LL\xf9D\x06\xc0~w\r\xe9m\x0f\x19@'
p502
tp503
bas(Vrectangular_packing_box1
p504
g227
tp505
(lp506
g21
(g22
(I0
tp507
g24
tp508
Rp509
(I1
(I3
tp510
g236
I00
S'\x08;9\xd0\xd3o\xf1?ZT\x89\xfc\x91\xd7\x1b\xc0:\x9e\x02y\xa1\xd0\x05@'
p511
tp512
bag21
(g22
(I0
tp513
g24
tp514
Rp515
(I1
(I3
tp516
g247
I00
S"\xc6'8AN\xb0\xec?\xe0\x975>\x0f\x03\x19\xc0(\xe0e;\x85\x89\x05\xc0"
p517
tp518
bag21
(g22
(I0
tp519
g24
tp520
Rp521
(I1
(I3
tp522
g247
I00
S'\xd0\xcb\x13\x8f\xaa\x9d\xed?\x90\x01<]3\x06\x16\xc0F\xf1\xe7x32\x02\xc0'
p523
tp524
bag21
(g22
(I0
tp525
g24
tp526
Rp527
(I1
(I3
tp528
g247
I00
S'l[\xc4\x16<\xe6\xe9?\xa6\xa0\x90\x84X\x9f\x13\xc0\xc2\xd74Q\x00\xaf\xff\xbf'
p529
tp530
bag21
(g22
(I0
tp531
g24
tp532
Rp533
(I1
(I3
tp534
g247
I00
S"\xaeJ\xbd\x1936\xec?\x04\x13\xd4'\x9f\x88\x10\xc0\x805qo\xb6\xe6\xff\xbf"
p535
tp536
bag21
(g22
(I0
tp537
g24
tp538
Rp539
(I1
(I3
tp540
g247
I00
S'\xf09\xb6\x1c*\x86\xee?\xc4\n/\x96\xcb\xe3\n\xc0\xa0\xc9\xd6F6\x0f\x00\xc0'
p541
tp542
bag21
(g22
(I0
tp543
g24
tp544
Rp545
(I1
(I3
tp546
g247
I00
S'3\xe9\xaf\x05T\x89\xe7?+~\xcb\xd3\x15\xc7\x04\xc0x6(d5\xed\x07@'
p547
tp548
bas(Vsquare_packing_box3
p549
g227
tp550
(lp551
g21
(g22
(I0
tp552
g24
tp553
Rp554
(I1
(I3
tp555
g236
I00
S"\xc0'\xf5\x17\xe4~\xc3?\xd7d\xebI);\x18\xc0\x87\xc3\xff\x9f-N\xf9?"
p556
tp557
bag21
(g22
(I0
tp558
g24
tp559
Rp560
(I1
(I3
tp561
g247
I00
S'\xd8\x87\x03p)T\xe4?\xd5\xabI\xb7V\xd0\x15\xc0vWg\x9a\x87\x8a\xec?'
p562
tp563
bag21
(g22
(I0
tp564
g24
tp565
Rp566
(I1
(I3
tp567
g247
I00
S'\xa9\xd9\x1d\x8d\xa6j\xdf?\xa0\x85\x1a\x84\xc6\xec\x12\xc0\x01\xb6 H\xb1\x91\xeb?'
p568
tp569
bag21
(g22
(I0
tp570
g24
tp571
Rp572
(I1
(I3
tp573
g247
I00
S'\x93k\xbc\xee\xc2\x10\xe8?\xab^\x86?\x08D\x10\xc0\x10;2\x00\xe5\t\xde?'
p574
tp575
bag21
(g22
(I0
tp576
g24
tp577
Rp578
(I1
(I3
tp579
g247
I00
S'\xef\xc3u*\xfb\xdb\xeb?\x8d\xa5\n\xfd\x03<\n\xc0\xd8\xfb\xde\x16R\xac\xde?'
p580
tp581
bag21
(g22
(I0
tp582
g24
tp583
Rp584
(I1
(I3
tp585
g247
I00
S'\xf4\xfdJ\x1a(#\xec?H"\x9cD\x1aE\x05\xc0.\xa9\x0b\x87\xf8\xe1\x02@'
p586
tp587
bas(Vrectangular_packing_box2
p588
g227
tp589
(lp590
g21
(g22
(I0
tp591
g24
tp592
Rp593
(I1
(I3
tp594
g236
I00
S'4\xbf\x80\x16\x06I\xfc?\xac\x82\x18\x16\x86\xdd\x1c\xc0^\x18\xd5*\x81\n\x14@'
p595
tp596
bag21
(g22
(I0
tp597
g24
tp598
Rp599
(I1
(I3
tp600
g247
I00
S'zP\x91@+\x97\xf6?*&V!\xde-\x1a\xc0\xb2Z\x99\x08\xf1Y\x13@'
p601
tp602
bag21
(g22
(I0
tp603
g24
tp604
Rp605
(I1
(I3
tp606
g247
I00
S'\x07\xe5\xeeo\xc2@\xf0?\x80*\x19Ng\xcf\x17\xc0\xccm\xca\xd2+4\x0f@'
p607
tp608
bag21
(g22
(I0
tp609
g24
tp610
Rp611
(I1
(I3
tp612
g247
I00
S'\xa5P\xd1\x87\x88:\xe5?\xd8\xf1\xd1l\xc6\x00\x15\xc0{\xeaM\xb0\xfa\x02\x0e@'
p613
tp614
bag21
(g22
(I0
tp615
g24
tp616
Rp617
(I1
(I3
tp618
g247
I00
S'\xc6\x05\xbdtg\xd9\xe2?F\xdf\x9d@\\\xf3\x11\xc0\x1a\xc4.\xbb\xcc\x12\x02@'
p619
tp620
bag21
(g22
(I0
tp621
g24
tp622
Rp623
(I1
(I3
tp624
g247
I00
S'3z\xed\x8eN)\xe4?\x0c\x96\xd4\xa2\x0e\xd0\r\xc0\xbd%\xf5{\xe9\xf9\x03@'
p625
tp626
bag21
(g22
(I0
tp627
g24
tp628
Rp629
(I1
(I3
tp630
g247
I00
S'\xaf0\xe9h\xba~\xee?k\xbb\xd8\xd4\xd0g\t\xc09\x9ey\xed\xb06\x06@'
p631
tp632
bag21
(g22
(I0
tp633
g24
tp634
Rp635
(I1
(I3
tp636
g247
I00
S'\xf4\xfdJ\x1a(#\xec?H"\x9cD\x1aE\x05\xc0.\xa9\x0b\x87\xf8\xe1\x02@'
p637
tp638
bassS'mc_to_entity'
p639
(dp640
(g226
g227
tp641
(lp642
Vrectangular_packing_box4
p643
as(g288
g227
tp644
(lp645
Vrectangular_packing_box3
p646
aVrectangular_packing_box4
p647
as(g351
g227
tp648
(lp649
Vsquare_packing_box3
p650
as(g402
g227
tp651
(lp652
Vrectangular_packing_box3
p653
aVrectangular_packing_box4
p654
as(g465
g227
tp655
(lp656
Vsquare_packing_box3
p657
aVrectangular_packing_box4
p658
as(g504
g227
tp659
(lp660
Vrectangular_packing_box4
p661
aVsquare_packing_box2
p662
as(g549
g227
tp663
(lp664
Vsquare_packing_box2
p665
as(g588
g227
tp666
(lp667
Vrectangular_packing_box1
p668
aVrectangular_packing_box4
p669
aVsquare_packing_box2
p670
aVsquare_packing_box3
p671
assS'reachable_entities'
p672
(lp673
g12
aVrectangular_packing_box2
p674
aVrectangular_packing_box3
p675
aVrectangular_packing_box1
p676
ag74
aVsquare_packing_box4
p677
asS'collides'
p678
(dp679
Vrectangular_packing_box4
p680
c__builtin__
set
p681
((lp682
I4
aI5
aI137
aI132
aI517
aI416
aI33
aI34
aI35
aI554
aI43
aI44
aI301
aI584
aI310
aI55
aI56
aI187
aI449
aI196
aI70
aI71
aI456
aI201
aI202
aI203
aI162
aI84
aI597
aI93
aI94
aI607
aI327
aI484
aI161
aI106
aI107
aI108
aI497
aI233
aI252
aI234
atp683
Rp684
sVrectangular_packing_box2
p685
g681
((lp686
I256
aI513
aI514
aI259
aI260
aI392
aI515
aI406
aI407
aI286
aI543
aI552
aI556
aI429
aI436
aI440
aI443
aI444
aI66
aI67
aI118
aI585
aI119
aI463
aI593
aI610
aI613
aI358
aI572
aI374
aI375
aI120
aI123
aI255
atp687
Rp688
sVrectangular_packing_box3
p689
g681
((lp690
I160
aI288
aI2
aI539
aI454
aI38
aI39
aI40
aI41
aI42
aI395
aI289
aI304
aI115
aI372
aI393
aI404
aI379
aI380
aI611
atp691
Rp692
sVrectangular_packing_box1
p693
g681
((lp694
I384
aI5
aI134
aI136
aI521
aI394
aI523
aI276
aI152
aI153
aI154
aI155
aI157
aI133
aI163
aI165
aI166
aI296
aI553
aI433
aI308
aI197
aI458
aI338
aI83
aI362
aI82
aI518
aI547
aI249
aI251
atp695
Rp696
sVsquare_packing_box2
p697
g681
((lp698
I6
aI521
aI138
aI139
aI276
aI152
aI153
aI154
aI155
aI417
aI547
aI518
aI166
aI424
aI553
aI198
aI338
aI349
aI350
aI351
aI362
aI491
aI503
aI249
aI383
atp699
Rp700
sVsquare_packing_box3
p701
g681
((lp702
I417
aI235
aI503
aI7
aI139
aI275
aI459
aI491
aI349
aI350
aI351
atp703
Rp704
sVsquare_packing_box1
p705
g681
((lp706
I513
aI386
aI387
aI260
aI269
aI280
aI565
aI440
aI572
aI573
aI193
aI68
aI337
aI339
aI340
aI213
aI479
aI354
aI613
aI617
aI111
aI112
aI211
aI117
aI375
aI212
aI254
atp707
Rp708
sVsquare_packing_box4
p709
g681
((lp710
I0
aI1
aI546
aI453
aI545
aI425
aI555
aI403
aI367
aI368
aI369
aI370
aI371
aI342
aI377
aI378
aI571
aI541
aI474
atp711
Rp712
ssg107
g108
sS'pick_used'
p713
(dp714
g12
(itrajectory_representation.operator
Operator
p715
(dp716
g8
I01
sg9
(dp717
g11
g12
ssg16
S'two_arm_pick'
p718
sg18
(dp719
g20
g21
(g22
(I0
tp720
g24
tp721
Rp722
(I1
(I3
tp723
g31
I00
S'H\x99{U\xb0\x86\xfc?\x1e\xd2o\xb4\n\xa0\x18\xc0\x9c\x99\xc9\x05\xf6\xbe\x02@'
p724
tp725
bssg46
(lp726
g21
(g22
(I0
tp727
g24
tp728
Rp729
(I1
(I3
tp730
g236
I00
S'\xd4=`\xfece\x07@\xa4;\xab6h\x99\x18\xc0]\xc0\xe2\x95[\x82\xfc?'
p731
tp732
bag21
(g22
(I0
tp733
g24
tp734
Rp735
(I1
(I3
tp736
g247
I00
S'\xd8\xd6B\xff\x18\xb2\x05@\xf2%;\x9a\xab\xd5\x18\xc0\xce\xc8,\xa0\x8a\x9a\x00@'
p737
tp738
bag21
(g22
(I0
tp739
g24
tp740
Rp741
(I1
(I3
tp742
g247
I00
S'\xac)\x94\xc9\xc1\xda\x03@>\xa9\\\xfe\x1d\xeb\x18\xc0\x03\xc0\n\xd21\x11\x08@'
p743
tp744
bag722
asbsg674
(itrajectory_representation.operator
Operator
p745
(dp746
g8
I01
sg9
(dp747
S'object'
p748
Vrectangular_packing_box2
p749
ssg16
S'two_arm_pick'
p750
sg18
(dp751
S'q_goal'
p752
(lp753
g21
(g22
(I0
tp754
g24
tp755
Rp756
(I1
(I3
tp757
g236
I00
S'1\xbf\x80\x16\x06I\xfc?\xaa\x82\x18\x16\x86\xdd\x1c\xc0\xe8R\xbc\xa5\xe8]\xf4\xbf'
p758
tp759
bag21
(g22
(I0
tp760
g24
tp761
Rp762
(I1
(I3
tp763
g236
I00
S'\xb6\xbf"j\xec\xd7\xfb?U\xd4\r\x02\xa1\\\x1d\xc0p\x10\x02h\xbdh\xea\xbf'
p764
tp765
bag21
(g22
(I0
tp766
g24
tp767
Rp768
(I1
(I3
tp769
g236
I00
S"\x13\xfdQD\xc7'\xfa?\x06NPp\xc1\x80\x1c\xc0=\xd3\x0f\x1a\x9b\xf2\xe1\xbf"
p770
tp771
basS'is_feasible'
p772
I00
ssg46
(lp773
g21
(g22
(I0
tp774
g24
tp775
Rp776
(I1
(I3
tp777
g236
I00
S'@>\xed\x01\x9d\x1d\xc5\xbf*3V:\xee\xff\xfe\xbf[6\xb55\x14\xcd\x11@'
p778
tp779
bag21
(g22
(I0
tp780
g24
tp781
Rp782
(I1
(I3
tp783
g247
I00
S'\xa9\x926\xa9\xf3h\xdd?jHQlcB\x03\xc0\xfas\xdf\xb2\xb3\xde\x08\xc0'
p784
tp785
bag21
(g22
(I0
tp786
g24
tp787
Rp788
(I1
(I3
tp789
g247
I00
S'(\xe0\x1c\xccxa\xe7?<\x8d\x99I\xafl\x08\xc0\xd2\xf1\x03\xe9gv\xf6\xbf'
p790
tp791
bag21
(g22
(I0
tp792
g24
tp793
Rp794
(I1
(I3
tp795
g247
I00
S'\xec\x12\xec\x03\xdea\xe9?<\xa5t\x82\x15\x9b\x0e\xc0L\xf0\xe0\xffy\x10\xf5\xbf'
p796
tp797
bag21
(g22
(I0
tp798
g24
tp799
Rp800
(I1
(I3
tp801
g247
I00
S'\xb0E\xbb;Cb\xeb?\x9e\xde\xa7\xdd\xbdd\x12\xc0\xc6\xee\xbd\x16\x8c\xaa\xf3\xbf'
p802
tp803
bag21
(g22
(I0
tp804
g24
tp805
Rp806
(I1
(I3
tp807
g247
I00
S'tx\x8as\xa8b\xed?\x9ej\x15\xfa\xf0{\x15\xc0@\xed\x9a-\x9eD\xf2\xbf'
p808
tp809
bag21
(g22
(I0
tp810
g24
tp811
Rp812
(I1
(I3
tp813
g247
I00
S"\x1aq\xa1\x96-\xd2\xec?\xa2\x8f\xd2'\xa1I\x18\xc0\x06\xea(\x89^*\xf2\xbf"
p814
tp815
bag21
(g22
(I0
tp816
g24
tp817
Rp818
(I1
(I3
tp819
g247
I00
S'zP\x91@+\x97\xf6?*&V!\xde-\x1a\xc0\xb2Z\x99\x08\xf1Y\x13@'
p820
tp821
bag768
asbsg675
(itrajectory_representation.operator
Operator
p822
(dp823
g8
I01
sg9
(dp824
g748
Vrectangular_packing_box3
p825
ssg16
g750
sg18
(dp826
g752
(lp827
g21
(g22
(I0
tp828
g24
tp829
Rp830
(I1
(I3
tp831
g236
I00
S'dg\xa4\xb4J\x9c\x01@\x14T\x97G\x08\xd0\x18\xc0v\xc1\xb8\x11h\x9f\xf4?'
p832
tp833
bag21
(g22
(I0
tp834
g24
tp835
Rp836
(I1
(I3
tp837
g236
I00
S"I\x81'\xed\xc0\xba\t@\x01\xdb\xd9\xbf\x9e\x8e\x17\xc0G\xa8\xf8\xb4\xf93\x01@"
p838
tp839
bag21
(g22
(I0
tp840
g24
tp841
Rp842
(I1
(I3
tp843
g236
I00
S'= \xba\n\xe2D\t@~4}\xbe{\xf4\x16\xc0\xb5D/\xd4W\x88\x03@'
p844
tp845
basg772
I00
ssg46
(lp846
g21
(g22
(I0
tp847
g24
tp848
Rp849
(I1
(I3
tp850
g236
I00
S'@>\xed\x01\x9d\x1d\xc5\xbf*3V:\xee\xff\xfe\xbf[6\xb55\x14\xcd\x11@'
p851
tp852
bag21
(g22
(I0
tp853
g24
tp854
Rp855
(I1
(I3
tp856
g247
I00
S'\xd4\xbf\x9b|\x15\xb6\xd9?\xd2e\x86@>\xfd\x01\xc06J\x0bDo=\x00\xc0'
p857
tp858
bag21
(g22
(I0
tp859
g24
tp860
Rp861
(I1
(I3
tp862
g247
I00
S'\x99\x94\xd7\x8f\x10k\xf0?\x7f\xef\xb5\xdcX\xb6\x04\xc0~\xf8\xf4U\x11+\x00\xc0'
p863
tp864
bag21
(g22
(I0
tp865
g24
tp866
Rp867
(I1
(I3
tp868
g247
I00
S'\xf09\xb6\x1c*\x86\xee?\xc4\n/\x96\xcb\xe3\n\xc0\xa0\xc9\xd6F6\x0f\x00\xc0'
p869
tp870
bag21
(g22
(I0
tp871
g24
tp872
Rp873
(I1
(I3
tp874
g247
I00
S"\xaeJ\xbd\x1936\xec?\x04\x13\xd4'\x9f\x88\x10\xc0\x805qo\xb6\xe6\xff\xbf"
p875
tp876
bag21
(g22
(I0
tp877
g24
tp878
Rp879
(I1
(I3
tp880
g247
I00
S'l[\xc4\x16<\xe6\xe9?\xa6\xa0\x90\x84X\x9f\x13\xc0\xc2\xd74Q\x00\xaf\xff\xbf'
p881
tp882
bag21
(g22
(I0
tp883
g24
tp884
Rp885
(I1
(I3
tp886
g247
I00
S'\xd0\xcb\x13\x8f\xaa\x9d\xed?\x90\x01<]3\x06\x16\xc0F\xf1\xe7x32\x02\xc0'
p887
tp888
bag21
(g22
(I0
tp889
g24
tp890
Rp891
(I1
(I3
tp892
g247
I00
S'\x9f5<Q\xb2\xb3\xf7?\xb3\xd6LI,\xe8\x16\xc0\xc2\x13\xbbtu\x87\x00\xc0'
p893
tp894
bag21
(g22
(I0
tp895
g24
tp896
Rp897
(I1
(I3
tp898
g247
I00
S'\xe0 ;\x819w\xfd?\xe7\xcc\xc2\xa0\xa5f\x17\xc04\xedq\x1c\x8eK\xfa?'
p899
tp900
bag830
asbsg676
(itrajectory_representation.operator
Operator
p901
(dp902
g8
I01
sg9
(dp903
g748
Vrectangular_packing_box1
p904
ssg16
g750
sg18
(dp905
g752
(lp906
g21
(g22
(I0
tp907
g24
tp908
Rp909
(I1
(I3
tp910
g236
I00
S'\x0b;9\xd0\xd3o\xf1?ZT\x89\xfc\x91\xd7\x1b\xc0:\x9e\x02y\xa1\xd0\x05@'
p911
tp912
bag21
(g22
(I0
tp913
g24
tp914
Rp915
(I1
(I3
tp916
g236
I00
S'\x8a\xd4x\r\x7f6\xf1?\xe9\xc7\xeb\x0f\xfb\x00\x1d\xc0Y1\xafH?e\x05@'
p917
tp918
bag21
(g22
(I0
tp919
g24
tp920
Rp921
(I1
(I3
tp922
g236
I00
S'\xbb\x92\x83Jb\x17\xec?\xf214\x8f2\x86\x18\xc0\x9c\xf1\x14\xa4P\x8f\x04\xc0'
p923
tp924
basg772
I00
ssg46
(lp925
g21
(g22
(I0
tp926
g24
tp927
Rp928
(I1
(I3
tp929
g236
I00
S'@>\xed\x01\x9d\x1d\xc5\xbf*3V:\xee\xff\xfe\xbf[6\xb55\x14\xcd\x11@'
p930
tp931
bag21
(g22
(I0
tp932
g24
tp933
Rp934
(I1
(I3
tp935
g247
I00
S'\xa9\x926\xa9\xf3h\xdd?jHQlcB\x03\xc0\xfas\xdf\xb2\xb3\xde\x08\xc0'
p936
tp937
bag21
(g22
(I0
tp938
g24
tp939
Rp940
(I1
(I3
tp941
g247
I00
S'{\xaa2 U\x1e\xf1?RG\x9d\xd8Q\xfe\x05\xc0JC\x0e\x08/\xff\x08\xc0'
p942
tp943
bag21
(g22
(I0
tp944
g24
tp945
Rp946
(I1
(I3
tp947
g247
I00
S'\xf09\xb6\x1c*\x86\xee?\xc4\n/\x96\xcb\xe3\n\xc0\xa0\xc9\xd6F6\x0f\x00\xc0'
p948
tp949
bag21
(g22
(I0
tp950
g24
tp951
Rp952
(I1
(I3
tp953
g247
I00
S"\xaeJ\xbd\x1936\xec?\x04\x13\xd4'\x9f\x88\x10\xc0\x805qo\xb6\xe6\xff\xbf"
p954
tp955
bag21
(g22
(I0
tp956
g24
tp957
Rp958
(I1
(I3
tp959
g247
I00
S'l[\xc4\x16<\xe6\xe9?\xa6\xa0\x90\x84X\x9f\x13\xc0\xc2\xd74Q\x00\xaf\xff\xbf'
p960
tp961
bag21
(g22
(I0
tp962
g24
tp963
Rp964
(I1
(I3
tp965
g247
I00
S'f\xb4\x9c\x07\xac\xbf\xec?n\x96\x96\x9e\x90n\x16\xc0uo!\xa9\x9b\x82\x07@'
p966
tp967
bag921
asbsVsquare_packing_box2
p968
(itrajectory_representation.operator
Operator
p969
(dp970
g8
I01
sg9
(dp971
g748
Vsquare_packing_box2
p972
ssg16
g750
sg18
(dp973
g752
(lp974
g21
(g22
(I0
tp975
g24
tp976
Rp977
(I1
(I3
tp978
g236
I00
S'8=\xd6\xd5f5\xbe\xbf\xbc\xbf\xc8i\xa50\x16\xc0\xbc\xbf\xeb\xc2\x86k\xf5\xbf'
p979
tp980
bag21
(g22
(I0
tp981
g24
tp982
Rp983
(I1
(I3
tp984
g236
I00
S'\xf2m3\xee#"\xba\xbf\x04\xfd\x7fa\x00.\x16\xc0\xf9\xc7\x0f{wZ\xf6\xbf'
p985
tp986
bag21
(g22
(I0
tp987
g24
tp988
Rp989
(I1
(I3
tp990
g236
I00
S'\x99\xf6\xd7zW\xc5\xe3?\xb5p\xee\xb9\xcf\x0b\x17\xc0\x00p\xf4\xe7\x88\xf9\x04\xc0'
p991
tp992
basg772
I00
ssg46
(lp993
g21
(g22
(I0
tp994
g24
tp995
Rp996
(I1
(I3
tp997
g236
I00
S'@>\xed\x01\x9d\x1d\xc5\xbf*3V:\xee\xff\xfe\xbf[6\xb55\x14\xcd\x11@'
p998
tp999
bag21
(g22
(I0
tp1000
g24
tp1001
Rp1002
(I1
(I3
tp1003
g247
I00
S'\xa9\x926\xa9\xf3h\xdd?jHQlcB\x03\xc0\xfas\xdf\xb2\xb3\xde\x08\xc0'
p1004
tp1005
bag21
(g22
(I0
tp1006
g24
tp1007
Rp1008
(I1
(I3
tp1009
g247
I00
S'\xe9\xca\xa9P\xc7p\xea?\x95\x90<\xe4\xba+\x08\xc0)\x87n\x0cR\xb7\x04\xc0'
p1010
tp1011
bag21
(g22
(I0
tp1012
g24
tp1013
Rp1014
(I1
(I3
tp1015
g247
I00
S'\xceT\x9e/\xb5f\xd8?VQ\xf7\xbeD\xed\x0c\xc0:\xc1\x11<R\xda\xfb\xbf'
p1016
tp1017
bag21
(g22
(I0
tp1018
g24
tp1019
Rp1020
(I1
(I3
tp1021
g247
I00
S'\xb5\xe3\x18\xc8\x9f\xf5\xd7?\xac\xb7\x0f\x9d\xa7\x8c\x11\xc0`\xf2\xb76\xda\xcb\xfa\xbf'
p1022
tp1023
bag21
(g22
(I0
tp1024
g24
tp1025
Rp1026
(I1
(I3
tp1027
g247
I00
S'm\xd5h\x072\x03\xea?\xdf\xe5\xe82\xd3\x17\x14\xc0\x08\x9e\xe1\xfbO\x94\x08@'
p1028
tp1029
bag989
asbsVsquare_packing_box3
p1030
(itrajectory_representation.operator
Operator
p1031
(dp1032
g8
I01
sg9
(dp1033
g748
Vsquare_packing_box3
p1034
ssg16
g750
sg18
(dp1035
g752
(lp1036
g21
(g22
(I0
tp1037
g24
tp1038
Rp1039
(I1
(I3
tp1040
g236
I00
S"\x80'\xf5\x17\xe4~\xc3?\xdad\xebI);\x18\xc0\x87\xc3\xff\x9f-N\xf9?"
p1041
tp1042
bag21
(g22
(I0
tp1043
g24
tp1044
Rp1045
(I1
(I3
tp1046
g236
I00
S"NeayM\xbd\xe6?\xd9\xe4\x8b\x0f\xc6)\x16\xc0'B\xd9\xb6oW\t@"
p1047
tp1048
bag21
(g22
(I0
tp1049
g24
tp1050
Rp1051
(I1
(I3
tp1052
g236
I00
S'\xbe\xa1\x99\x9ewa\xe6?kI\xc8\x89\x81\xea\x15\xc0\xeecj?\xed)\t@'
p1053
tp1054
basg772
I00
ssg46
(lp1055
g21
(g22
(I0
tp1056
g24
tp1057
Rp1058
(I1
(I3
tp1059
g236
I00
S'@>\xed\x01\x9d\x1d\xc5\xbf*3V:\xee\xff\xfe\xbf[6\xb55\x14\xcd\x11@'
p1060
tp1061
bag21
(g22
(I0
tp1062
g24
tp1063
Rp1064
(I1
(I3
tp1065
g247
I00
S'\xa9\x926\xa9\xf3h\xdd?jHQlcB\x03\xc0\xfas\xdf\xb2\xb3\xde\x08\xc0'
p1066
tp1067
bag21
(g22
(I0
tp1068
g24
tp1069
Rp1070
(I1
(I3
tp1071
g247
I00
S'\xe9\xca\xa9P\xc7p\xea?\x95\x90<\xe4\xba+\x08\xc0)\x87n\x0cR\xb7\x04\xc0'
p1072
tp1073
bag21
(g22
(I0
tp1074
g24
tp1075
Rp1076
(I1
(I3
tp1077
g247
I00
S'\xceT\x9e/\xb5f\xd8?VQ\xf7\xbeD\xed\x0c\xc0:\xc1\x11<R\xda\xfb\xbf'
p1078
tp1079
bag21
(g22
(I0
tp1080
g24
tp1081
Rp1082
(I1
(I3
tp1083
g247
I00
S'\xb5\xe3\x18\xc8\x9f\xf5\xd7?\xac\xb7\x0f\x9d\xa7\x8c\x11\xc0`\xf2\xb76\xda\xcb\xfa\xbf'
p1084
tp1085
bag21
(g22
(I0
tp1086
g24
tp1087
Rp1088
(I1
(I3
tp1089
g247
I00
S'm\xd5h\x072\x03\xea?\xdf\xe5\xe82\xd3\x17\x14\xc0\x08\x9e\xe1\xfbO\x94\x08@'
p1090
tp1091
bag1051
asbsg74
(itrajectory_representation.operator
Operator
p1092
(dp1093
g8
I01
sg9
(dp1094
g11
g74
ssg16
g718
sg18
(dp1095
g20
g21
(g22
(I0
tp1096
g24
tp1097
Rp1098
(I1
(I3
tp1099
g31
I00
S'\x04l\x14\x0b\xb6\x9b\x08@%9\xe3\xf1\xdb\xbe\x1c\xc0\x14\x82D\xa9D\xd9\xf2\xbf'
p1100
tp1101
bssg46
(lp1102
g21
(g22
(I0
tp1103
g24
tp1104
Rp1105
(I1
(I3
tp1106
g236
I00
S'\xd4=`\xfece\x07@\xa4;\xab6h\x99\x18\xc0]\xc0\xe2\x95[\x82\xfc?'
p1107
tp1108
bag21
(g22
(I0
tp1109
g24
tp1110
Rp1111
(I1
(I3
tp1112
g247
I00
S'\xd3s\x0b\xfa\xdf\xd9\x08@\xc52\xb7\xa7\x86L\x1b\xc0\xca\xe2\x95Rh\xea\xf6?'
p1113
tp1114
bag21
(g22
(I0
tp1115
g24
tp1116
Rp1117
(I1
(I3
tp1118
g247
I00
S'\xca\xbc\xd1\x14\xab\xdb\x03@\x1d\xe31\xd0\xab\xb7\x1a\xc0\xbe\x9cO\xe2\x184\x13@'
p1119
tp1120
bag1098
asbsg677
(itrajectory_representation.operator
Operator
p1121
(dp1122
g8
I01
sg9
(dp1123
g748
Vsquare_packing_box4
p1124
ssg16
g750
sg18
(dp1125
g752
(lp1126
g21
(g22
(I0
tp1127
g24
tp1128
Rp1129
(I1
(I3
tp1130
g236
I00
S'\xb7\x0b\xdaU\x97j\n@\xb5\xcb\xa3\x019\xe0\x19\xc0*\xb3\xae\xc0\xd1\x8a\xf4?'
p1131
tp1132
bag21
(g22
(I0
tp1133
g24
tp1134
Rp1135
(I1
(I3
tp1136
g236
I00
S'\x88F\xdd\xe7\xfc\x8f\x08@_\xe9u\xb2\x0e\xb2\x18\xc0\xadr\x10$I.\xdb?'
p1137
tp1138
bag21
(g22
(I0
tp1139
g24
tp1140
Rp1141
(I1
(I3
tp1142
g236
I00
S'\x7fY\xe3\x96\xf2\x85\t@\x11\x1ba}\x04\x84\x19\xc0JA_\x00R\x88\xf2?'
p1143
tp1144
basg772
I00
ssg46
(lp1145
g21
(g22
(I0
tp1146
g24
tp1147
Rp1148
(I1
(I3
tp1149
g236
I00
S'@>\xed\x01\x9d\x1d\xc5\xbf*3V:\xee\xff\xfe\xbf[6\xb55\x14\xcd\x11@'
p1150
tp1151
bag21
(g22
(I0
tp1152
g24
tp1153
Rp1154
(I1
(I3
tp1155
g247
I00
S'\xa9\x926\xa9\xf3h\xdd?jHQlcB\x03\xc0\xfas\xdf\xb2\xb3\xde\x08\xc0'
p1156
tp1157
bag21
(g22
(I0
tp1158
g24
tp1159
Rp1160
(I1
(I3
tp1161
g247
I00
S'(\xe0\x1c\xccxa\xe7?<\x8d\x99I\xafl\x08\xc0\xd2\xf1\x03\xe9gv\xf6\xbf'
p1162
tp1163
bag21
(g22
(I0
tp1164
g24
tp1165
Rp1166
(I1
(I3
tp1167
g247
I00
S'\xec\x12\xec\x03\xdea\xe9?<\xa5t\x82\x15\x9b\x0e\xc0L\xf0\xe0\xffy\x10\xf5\xbf'
p1168
tp1169
bag21
(g22
(I0
tp1170
g24
tp1171
Rp1172
(I1
(I3
tp1173
g247
I00
S'\xb0E\xbb;Cb\xeb?\x9e\xde\xa7\xdd\xbdd\x12\xc0\xc6\xee\xbd\x16\x8c\xaa\xf3\xbf'
p1174
tp1175
bag21
(g22
(I0
tp1176
g24
tp1177
Rp1178
(I1
(I3
tp1179
g247
I00
S'tx\x8as\xa8b\xed?\x9ej\x15\xfa\xf0{\x15\xc0@\xed\x9a-\x9eD\xf2\xbf'
p1180
tp1181
bag21
(g22
(I0
tp1182
g24
tp1183
Rp1184
(I1
(I3
tp1185
g247
I00
S'v%D\x97w\xd1\xf7?Z\xadP\x90\x08<\x17\xc0-\xca\x8a\t\xe2p\xe7\xbf'
p1186
tp1187
bag21
(g22
(I0
tp1188
g24
tp1189
Rp1190
(I1
(I3
tp1191
g247
I00
S'\x00\xda\x1c<\xfd\xdc\x00@j"\x91\xe3 \x1a\x18\xc0i~!@)\xb0\xdc\xbf'
p1192
tp1193
bag21
(g22
(I0
tp1194
g24
tp1195
Rp1196
(I1
(I3
tp1197
g247
I00
S'A\xec\xb55+(\x03@v\x14\x1a\xc5J\xca\x18\xc0\xe9\rA\xa0%\xbe\xc7?'
p1198
tp1199
bag1135
asbssS'mc_paths'
p1200
(dp1201
sS'robot'
p1202
NsS'reachable_obj_region_pairs'
p1203
(lp1204
sS'sampled_pick_configs_for_objects'
p1205
(dp1206
sS'mc_calls'
p1207
I0
sS'pick_poses'
p1208
g714
sS'problem_env'
p1209
NsS'evaluations'
p1210
(dp1211
(g504
g588
g227
tp1212
I00
s(g465
g588
g227
tp1213
I00
s(g588
g549
g227
tp1214
I01
s(g351
g465
g227
tp1215
I00
s(g549
g402
g227
tp1216
I00
s(g288
g465
g227
tp1217
I00
s(g402
g226
g227
tp1218
I01
s(g549
g588
g227
tp1219
I00
s(g351
g288
g227
tp1220
I00
s(g465
g402
g227
tp1221
I00
s(g504
g402
g227
tp1222
I00
s(g504
g351
g227
tp1223
I01
s(g465
g226
g227
tp1224
I00
s(g351
g549
g227
tp1225
I01
s(g549
g226
g227
tp1226
I00
s(g288
g549
g227
tp1227
I00
s(g402
g588
g227
tp1228
I00
s(g549
g288
g227
tp1229
I00
s(g588
g504
g227
tp1230
I01
s(g226
g402
g227
tp1231
I00
s(g288
g504
g227
tp1232
I00
s(g549
g351
g227
tp1233
I00
s(g588
g402
g227
tp1234
I00
s(g226
g351
g227
tp1235
I01
s(g588
g288
g227
tp1236
I00
s(g351
g504
g227
tp1237
I00
s(g402
g504
g227
tp1238
I00
s(g226
g549
g227
tp1239
I00
s(g226
g504
g227
tp1240
I00
s(g549
g504
g227
tp1241
I00
s(g288
g588
g227
tp1242
I00
s(g351
g588
g227
tp1243
I00
s(g504
g288
g227
tp1244
I00
s(g465
g504
g227
tp1245
I00
s(g288
g351
g227
tp1246
I01
s(g226
g288
g227
tp1247
I00
s(g465
g351
g227
tp1248
I01
s(g549
g465
g227
tp1249
I01
s(g402
g465
g227
tp1250
I00
s(g465
g288
g227
tp1251
I00
s(g288
g226
g227
tp1252
I01
s(g402
g549
g227
tp1253
I00
s(g465
g549
g227
tp1254
I01
s(g351
g226
g227
tp1255
I00
s(g504
g549
g227
tp1256
I00
s(g504
g226
g227
tp1257
I00
s(g226
g588
g227
tp1258
I00
s(g588
g465
g227
tp1259
I01
s(g351
g402
g227
tp1260
I00
s(g402
g288
g227
tp1261
I00
s(g288
g402
g227
tp1262
I00
s(g402
g351
g227
tp1263
I01
s(g588
g351
g227
tp1264
I01
s(g226
g465
g227
tp1265
I00
s(g588
g226
g227
tp1266
I00
s(g504
g465
g227
tp1267
I01
ssS'paths_to_reachable_entities'
p1268
NsS'use_shortest_path'
p1269
I01
sbsS'ternary_edges'
p1270
(dp1271
(g588
g588
g227
tp1272
(lp1273
I00
as(g402
S'loading_region'
p1274
g1274
tp1275
(lp1276
I00
as(S'entire_region'
p1277
g504
g227
tp1278
(lp1279
I00
as(g465
g288
g1274
tp1280
(lp1281
I00
as(g227
g227
g227
tp1282
(lp1283
I00
as(g288
g588
g1274
tp1284
(lp1285
I00
as(g402
g226
g227
tp1286
(lp1287
I01
as(g227
g351
g227
tp1288
(lp1289
I00
as(g465
g402
g227
tp1290
(lp1291
I00
as(g226
g351
g1274
tp1292
(lp1293
I00
as(g227
g288
g1274
tp1294
(lp1295
I00
as(g465
g1277
g227
tp1296
(lp1297
I00
as(g1274
g227
g1274
tp1298
(lp1299
I00
as(g351
g549
g227
tp1300
(lp1301
I01
as(g288
g1277
g227
tp1302
(lp1303
I00
as(g465
g504
g1274
tp1304
(lp1305
I00
as(g549
g1274
g227
tp1306
(lp1307
I00
as(g1277
g588
g1274
tp1308
(lp1309
I00
as(g227
g1277
g227
tp1310
(lp1311
I00
as(g588
g1274
g227
tp1312
(lp1313
I00
as(g549
g1277
g227
tp1314
(lp1315
I00
as(g402
g402
g1274
tp1316
(lp1317
I00
as(g1274
g288
g1274
tp1318
(lp1319
I00
as(g1277
g1274
g227
tp1320
(lp1321
I00
as(g1277
g465
g227
tp1322
(lp1323
I00
as(g1274
g1274
g227
tp1324
(lp1325
I00
as(g549
g351
g1274
tp1326
(lp1327
I00
as(g227
g227
g1274
tp1328
(lp1329
I00
as(g504
g465
g1274
tp1330
(lp1331
I00
as(g588
g288
g227
tp1332
(lp1333
I00
as(g549
g402
g227
tp1334
(lp1335
I00
as(g504
g227
g1274
tp1336
(lp1337
I00
as(g227
g588
g1274
tp1338
(lp1339
I00
as(g504
g226
g1274
tp1340
(lp1341
I00
as(g226
g504
g227
tp1342
(lp1343
I00
as(g1274
g402
g1274
tp1344
(lp1345
I00
as(g288
g465
g1274
tp1346
(lp1347
I00
as(g588
g588
g1274
tp1348
(lp1349
I00
as(g1277
g288
g227
tp1350
(lp1351
I00
as(g1274
g227
g227
tp1352
(lp1353
I00
as(g351
g588
g227
tp1354
(lp1355
I00
as(g227
g226
g227
tp1356
(lp1357
I00
as(g465
g504
g227
tp1358
(lp1359
I00
as(g226
g288
g227
tp1360
(lp1361
I00
as(g402
g226
g1274
tp1362
(lp1363
I00
as(g549
g465
g227
tp1364
(lp1365
I01
as(g465
g402
g1274
tp1366
(lp1367
I00
as(g465
g588
g1274
tp1368
(lp1369
I00
as(g1277
g465
g1274
tp1370
(lp1371
I00
as(g1274
g226
g1274
tp1372
(lp1373
I00
as(g1277
g227
g227
tp1374
(lp1375
I00
as(g351
g227
g227
tp1376
(lp1377
I00
as(g1274
g1277
g227
tp1378
(lp1379
I00
as(g588
g288
g1274
tp1380
(lp1381
I00
as(g549
g588
g1274
tp1382
(lp1383
I00
as(g549
g549
g227
tp1384
(lp1385
I00
as(g504
g226
g227
tp1386
(lp1387
I00
as(g1277
g588
g227
tp1388
(lp1389
I00
as(g504
g1274
g1274
tp1390
(lp1391
I00
as(g288
g402
g227
tp1392
(lp1393
I00
as(g402
g402
g227
tp1394
(lp1395
I00
as(g402
g351
g227
tp1396
(lp1397
I01
as(g351
g588
g1274
tp1398
(lp1399
I00
as(g288
g504
g1274
tp1400
(lp1401
I00
as(g549
g351
g227
tp1402
(lp1403
I00
as(g504
g465
g227
tp1404
(lp1405
I01
as(g588
g504
g1274
tp1406
(lp1407
I00
as(g504
g227
g227
tp1408
(lp1409
I00
as(g465
g588
g227
tp1410
(lp1411
I00
as(g588
g549
g227
tp1412
(lp1413
I01
as(g226
g504
g1274
tp1414
(lp1415
I00
as(g227
g465
g1274
tp1416
(lp1417
I00
as(g1277
g227
g1274
tp1418
(lp1419
I00
as(g1277
g288
g1274
tp1420
(lp1421
I00
as(g549
g588
g227
tp1422
(lp1423
I00
as(g226
g549
g1274
tp1424
(lp1425
I00
as(g588
g1277
g1274
tp1426
(lp1427
I00
as(g504
g1274
g227
tp1428
(lp1429
I00
as(g549
g465
g1274
tp1430
(lp1431
I00
as(g549
g504
g1274
tp1432
(lp1433
I00
as(g288
g402
g1274
tp1434
(lp1435
I00
as(g227
g226
g1274
tp1436
(lp1437
I00
as(g1277
g549
g1274
tp1438
(lp1439
I00
as(g1274
g226
g227
tp1440
(lp1441
I00
as(g1274
g465
g1274
tp1442
(lp1443
I00
as(g588
g504
g227
tp1444
(lp1445
I01
as(g288
g504
g227
tp1446
(lp1447
I00
as(g1274
g549
g227
tp1448
(lp1449
I00
as(g588
g549
g1274
tp1450
(lp1451
I00
as(g588
g351
g1274
tp1452
(lp1453
I00
as(g226
g288
g1274
tp1454
(lp1455
I00
as(g402
g351
g1274
tp1456
(lp1457
I00
as(g504
g549
g1274
tp1458
(lp1459
I00
as(g227
g402
g1274
tp1460
(lp1461
I00
as(g226
g1274
g1274
tp1462
(lp1463
I00
as(g351
g227
g1274
tp1464
(lp1465
I00
as(g402
g504
g227
tp1466
(lp1467
I00
as(g588
g1277
g227
tp1468
(lp1469
I00
as(g351
g465
g1274
tp1470
(lp1471
I00
as(g226
g588
g1274
tp1472
(lp1473
I00
as(g549
g504
g227
tp1474
(lp1475
I00
as(g288
g1274
g1274
tp1476
(lp1477
I00
as(g465
g227
g227
tp1478
(lp1479
I00
as(g288
g351
g227
tp1480
(lp1481
I01
as(g227
g549
g1274
tp1482
(lp1483
I00
as(g1274
g504
g1274
tp1484
(lp1485
I00
as(g1274
g549
g1274
tp1486
(lp1487
I00
as(g402
g549
g227
tp1488
(lp1489
I00
as(g504
g549
g227
tp1490
(lp1491
I00
as(g402
g504
g1274
tp1492
(lp1493
I00
as(g226
g588
g227
tp1494
(lp1495
I00
as(g588
g465
g227
tp1496
(lp1497
I01
as(g226
g227
g1274
tp1498
(lp1499
I00
as(g288
g1274
g227
tp1500
(lp1501
I00
as(g1274
g351
g1274
tp1502
(lp1503
I00
as(g588
g351
g227
tp1504
(lp1505
I01
as(g226
g226
g227
tp1506
(lp1507
I00
as(g351
g351
g227
tp1508
(lp1509
I00
as(g351
g226
g1274
tp1510
(lp1511
I00
as(g226
g1274
g227
tp1512
(lp1513
I00
as(g549
g288
g227
tp1514
(lp1515
I00
as(g351
g465
g227
tp1516
(lp1517
I00
as(g465
g1274
g1274
tp1518
(lp1519
I00
as(g226
g1277
g1274
tp1520
(lp1521
I00
as(g465
g227
g1274
tp1522
(lp1523
I00
as(g402
g465
g1274
tp1524
(lp1525
I00
as(g288
g351
g1274
tp1526
(lp1527
I00
as(g549
g227
g1274
tp1528
(lp1529
I00
as(g226
g227
g227
tp1530
(lp1531
I00
as(g1274
g351
g227
tp1532
(lp1533
I00
as(g504
g504
g227
tp1534
(lp1535
I00
as(g1274
g288
g227
tp1536
(lp1537
I00
as(g288
g549
g227
tp1538
(lp1539
I00
as(g402
g588
g227
tp1540
(lp1541
I00
as(g402
g549
g1274
tp1542
(lp1543
I00
as(g351
g402
g1274
tp1544
(lp1545
I00
as(g227
g465
g227
tp1546
(lp1547
I00
as(g1277
g226
g1274
tp1548
(lp1549
I00
as(g226
g402
g227
tp1550
(lp1551
I00
as(g504
g1277
g227
tp1552
(lp1553
I00
as(g549
g288
g1274
tp1554
(lp1555
I00
as(g549
g226
g1274
tp1556
(lp1557
I00
as(g351
g504
g227
tp1558
(lp1559
I00
as(g588
g465
g1274
tp1560
(lp1561
I00
as(g351
g1274
g227
tp1562
(lp1563
I00
as(g226
g1277
g227
tp1564
(lp1565
I00
as(g288
g226
g1274
tp1566
(lp1567
I00
as(g588
g402
g227
tp1568
(lp1569
I00
as(g549
g402
g1274
tp1570
(lp1571
I00
as(g288
g288
g1274
tp1572
(lp1573
I00
as(g351
g351
g1274
tp1574
(lp1575
I00
as(g504
g504
g1274
tp1576
(lp1577
I00
as(g402
g288
g1274
tp1578
(lp1579
I00
as(g288
g465
g227
tp1580
(lp1581
I00
as(g1277
g402
g227
tp1582
(lp1583
I00
as(g227
g1277
g1274
tp1584
(lp1585
I00
as(g227
g504
g1274
tp1586
(lp1587
I00
as(g465
g1274
g227
tp1588
(lp1589
I00
as(g402
g588
g1274
tp1590
(lp1591
I00
as(g504
g402
g1274
tp1592
(lp1593
I00
as(g226
g226
g1274
tp1594
(lp1595
I00
as(g1277
g226
g227
tp1596
(lp1597
I00
as(g465
g226
g1274
tp1598
(lp1599
I00
as(g504
g1277
g1274
tp1600
(lp1601
I00
as(g402
g465
g227
tp1602
(lp1603
I00
as(g351
g504
g1274
tp1604
(lp1605
I00
as(g351
g226
g227
tp1606
(lp1607
I00
as(g288
g226
g227
tp1608
(lp1609
I01
as(g402
g227
g1274
tp1610
(lp1611
I00
as(g465
g549
g227
tp1612
(lp1613
I01
as(g549
g549
g1274
tp1614
(lp1615
I00
as(g351
g1277
g227
tp1616
(lp1617
I00
as(g1274
g1277
g1274
tp1618
(lp1619
I00
as(g288
g549
g1274
tp1620
(lp1621
I00
as(g1274
g504
g227
tp1622
(lp1623
I00
as(g1277
g1277
g1274
tp1624
(lp1625
I00
as(g351
g402
g227
tp1626
(lp1627
I00
as(g402
g288
g227
tp1628
(lp1629
I00
as(g1274
g588
g1274
tp1630
(lp1631
I00
as(g226
g402
g1274
tp1632
(lp1633
I00
as(g549
g227
g227
tp1634
(lp1635
I00
as(g1277
g402
g1274
tp1636
(lp1637
I00
as(g549
g226
g227
tp1638
(lp1639
I00
as(g226
g465
g227
tp1640
(lp1641
I00
as(g351
g1274
g1274
tp1642
(lp1643
I00
as(g588
g402
g1274
tp1644
(lp1645
I00
as(g504
g588
g227
tp1646
(lp1647
I00
as(g1277
g1274
g1274
tp1648
(lp1649
I00
as(g1274
g588
g227
tp1650
(lp1651
I00
as(g402
g1277
g227
tp1652
(lp1653
I00
as(g465
g549
g1274
tp1654
(lp1655
I00
as(g465
g351
g1274
tp1656
(lp1657
I00
as(g288
g227
g227
tp1658
(lp1659
I00
as(g351
g1277
g1274
tp1660
(lp1661
I00
as(g351
g288
g227
tp1662
(lp1663
I00
as(g1277
g351
g1274
tp1664
(lp1665
I00
as(g227
g504
g227
tp1666
(lp1667
I00
as(g227
g549
g227
tp1668
(lp1669
I00
as(g504
g402
g227
tp1670
(lp1671
I00
as(g504
g351
g227
tp1672
(lp1673
I01
as(g1277
g549
g227
tp1674
(lp1675
I00
as(g465
g226
g227
tp1676
(lp1677
I00
as(g465
g465
g1274
tp1678
(lp1679
I00
as(g504
g288
g1274
tp1680
(lp1681
I00
as(g288
g227
g1274
tp1682
(lp1683
I00
as(g588
g227
g227
tp1684
(lp1685
I00
as(g402
g227
g227
tp1686
(lp1687
I00
as(g504
g588
g1274
tp1688
(lp1689
I00
as(g288
g588
g227
tp1690
(lp1691
I00
as(g227
g1274
g227
tp1692
(lp1693
I00
as(g1277
g1277
g227
tp1694
(lp1695
I00
as(g588
g226
g1274
tp1696
(lp1697
I00
as(g402
g1277
g1274
tp1698
(lp1699
I00
as(g1274
g465
g227
tp1700
(lp1701
I00
as(g226
g351
g227
tp1702
(lp1703
I01
as(g1277
g351
g227
tp1704
(lp1705
I00
as(g402
g1274
g227
tp1706
(lp1707
I00
as(g226
g465
g1274
tp1708
(lp1709
I00
as(g227
g402
g227
tp1710
(lp1711
I00
as(g1277
g504
g1274
tp1712
(lp1713
I00
as(g288
g1277
g1274
tp1714
(lp1715
I00
as(g465
g465
g227
tp1716
(lp1717
I00
as(g504
g288
g227
tp1718
(lp1719
I00
as(g549
g1277
g1274
tp1720
(lp1721
I00
as(g465
g351
g227
tp1722
(lp1723
I01
as(g227
g288
g227
tp1724
(lp1725
I00
as(g226
g549
g227
tp1726
(lp1727
I00
as(g351
g288
g1274
tp1728
(lp1729
I00
as(g288
g288
g227
tp1730
(lp1731
I00
as(g504
g351
g1274
tp1732
(lp1733
I00
as(g465
g288
g227
tp1734
(lp1735
I00
as(g549
g1274
g1274
tp1736
(lp1737
I00
as(g227
g588
g227
tp1738
(lp1739
I00
as(g588
g1274
g1274
tp1740
(lp1741
I00
as(g227
g351
g1274
tp1742
(lp1743
I00
as(g588
g227
g1274
tp1744
(lp1745
I00
as(g1274
g1274
g1274
tp1746
(lp1747
I00
as(g465
g1277
g1274
tp1748
(lp1749
I00
as(g351
g549
g1274
tp1750
(lp1751
I00
as(g227
g1274
g1274
tp1752
(lp1753
I00
as(g588
g226
g227
tp1754
(lp1755
I00
as(g1274
g402
g227
tp1756
(lp1757
I00
assg713
g714
sS'use_prm'
p1758
I01
sS'object_names'
p1759
(lp1760
S'square_packing_box1'
p1761
aS'rectangular_packing_box1'
p1762
aS'square_packing_box2'
p1763
aS'rectangular_packing_box2'
p1764
aS'square_packing_box3'
p1765
aS'rectangular_packing_box3'
p1766
aS'square_packing_box4'
p1767
aS'rectangular_packing_box4'
p1768
asg1209
NsS'current_holding_collides'
p1769
NsS'object_poses'
p1770
(dp1771
Vrectangular_packing_box4
p1772
g21
(g22
(I0
tp1773
g24
tp1774
Rp1775
(I1
(I1
I3
tp1776
g236
I00
S'\x96\xf5\xf7\x8c\x83,\xf3?P\xe9\xa6\x13\xfdR\x17\xc0~]2\xb5\x9cD\x0e@'
p1777
tp1778
bsVrectangular_packing_box2
p1779
g21
(g22
(I0
tp1780
g24
tp1781
Rp1782
(I1
(I1
I3
tp1783
g236
I00
S'\xb0\xc9\xb8\x06\xbd\x9e\x01@\xb6\x08\x0b=\x03#\x1f\xc0\xb1m\xa9\xe4\xd7\xb6\x0e@'
p1784
tp1785
bsVrectangular_packing_box3
p1786
g21
(g22
(I0
tp1787
g24
tp1788
Rp1789
(I1
(I1
I3
tp1790
g236
I00
S"\x08H'3;\x11\x04@\xfe$\xc3\x1d\x06\xc2\x15\xc0\x8b\xb8m\x1d\xc7\xc2\x10@"
p1791
tp1792
bsVrectangular_packing_box1
p1793
g21
(g22
(I0
tp1794
g24
tp1795
Rp1796
(I1
(I1
I3
tp1797
g236
I00
S'\xc0B\x82\xfb\x8f:\xd8?\x8aS\xf8\x00+%\x1b\xc0\xc5\x00\x8f0,\xfe\x16@'
p1798
tp1799
bsVsquare_packing_box2
p1800
g21
(g22
(I0
tp1801
g24
tp1802
Rp1803
(I1
(I1
I3
tp1804
g236
I00
S'\xe0iK\x80\x91\x1bh\xbf\xab?Og\x01\xbc\x18\xc0P\xc7J\xf9\x17\xcd\xe0?'
p1805
tp1806
bsVsquare_packing_box3
p1807
g21
(g22
(I0
tp1808
g24
tp1809
Rp1810
(I1
(I1
I3
tp1811
g236
I00
S'\xb0c\x0e]\xec\x91\x9e?\x93\xd7\x90H+H\x15\xc0O\x9c\x0c\x99\xbfq\x11@'
p1812
tp1813
bsVsquare_packing_box1
p1814
g21
(g22
(I0
tp1815
g24
tp1816
Rp1817
(I1
(I1
I3
tp1818
g236
I00
S'\xa4\x10\xec\xb0\xb75\n@\x14\x83\x17\xc4\xf6%\x1f\xc0\xfa\xc1qg\x1ao\x15@'
p1819
tp1820
bsVsquare_packing_box4
p1821
g21
(g22
(I0
tp1822
g24
tp1823
Rp1824
(I1
(I1
I3
tp1825
g236
I00
S'\x9d\xb5\xd6\xe72\xb5\r@<?N\xe4D\x19\x17\xc089\xcc|\xdby\x16@'
p1826
tp1827
bssS'reachable_regions_while_holding'
p1828
(lp1829
(g12
g1274
tp1830
a(g674
g1274
tp1831
a(g675
g1274
tp1832
a(g676
g1274
tp1833
a(g968
g1274
tp1834
a(g1030
g1274
tp1835
a(g74
g1274
tp1836
a(g677
g1274
tp1837
asS'in_region'
p1838
(itrajectory_representation.predicates.in_region
InRegion
p1839
(dp1840
g1209
NsbsS'cached_pick_paths'
p1841
(dp1842
g12
g726
sg674
(lp1843
g21
(g22
(I0
tp1844
g24
tp1845
Rp1846
(I1
(I3
tp1847
g236
I00
S'\xd4=`\xfece\x07@\xa4;\xab6h\x99\x18\xc0]\xc0\xe2\x95[\x82\xfc?'
p1848
tp1849
bag21
(g22
(I0
tp1850
g24
tp1851
Rp1852
(I1
(I3
tp1853
g247
I00
S'\xe8[\xb2\xaa\xa5@\x04@(j\r1!I\x1b\xc0Xj\x8bx\xc9`\xfc?'
p1854
tp1855
bag21
(g22
(I0
tp1856
g24
tp1857
Rp1858
(I1
(I3
tp1859
g247
I00
S'2]\x933g}\x00@\xebx\x00&R!\x1b\xc0\xce\x170ZD}\x00\xc0'
p1860
tp1861
bag756
asg675
(lp1862
g21
(g22
(I0
tp1863
g24
tp1864
Rp1865
(I1
(I3
tp1866
g236
I00
S'\xd4=`\xfece\x07@\xa4;\xab6h\x99\x18\xc0]\xc0\xe2\x95[\x82\xfc?'
p1867
tp1868
bag830
asg676
(lp1869
g21
(g22
(I0
tp1870
g24
tp1871
Rp1872
(I1
(I3
tp1873
g236
I00
S'\xd4=`\xfece\x07@\xa4;\xab6h\x99\x18\xc0]\xc0\xe2\x95[\x82\xfc?'
p1874
tp1875
bag21
(g22
(I0
tp1876
g24
tp1877
Rp1878
(I1
(I3
tp1879
g247
I00
S'\xba\x8d\x1a\xa2f&\x03@$\xbc\xba{lE\x1a\xc0172\n\x8c\xab\x03@'
p1880
tp1881
bag21
(g22
(I0
tp1882
g24
tp1883
Rp1884
(I1
(I3
tp1885
g247
I00
S'zNu~${\xfb?c\xfe\x8c\xbf\x1f\xab\x1b\xc0\x9b\xbb\x05m\x02\x02\x07@'
p1886
tp1887
bag909
asg968
(lp1888
g21
(g22
(I0
tp1889
g24
tp1890
Rp1891
(I1
(I3
tp1892
g236
I00
S'\xd4=`\xfece\x07@\xa4;\xab6h\x99\x18\xc0]\xc0\xe2\x95[\x82\xfc?'
p1893
tp1894
bag21
(g22
(I0
tp1895
g24
tp1896
Rp1897
(I1
(I3
tp1898
g247
I00
S'\xd8\xd6B\xff\x18\xb2\x05@\xf2%;\x9a\xab\xd5\x18\xc0\xce\xc8,\xa0\x8a\x9a\x00@'
p1899
tp1900
bag21
(g22
(I0
tp1901
g24
tp1902
Rp1903
(I1
(I3
tp1904
g247
I00
S'\xf60LV\xe8\x96\x00@\x9aEw{a\xe2\x18\xc0^\xa8\x8a,\xa3\x98\x00@'
p1905
tp1906
bag21
(g22
(I0
tp1907
g24
tp1908
Rp1909
(I1
(I3
tp1910
g247
I00
S'\xc2:\x1b=\xad,\xfa?(\x190\xa5<\xab\x16\xc0\x9d\x91\xdc8Kq\x01@'
p1911
tp1912
bag21
(g22
(I0
tp1913
g24
tp1914
Rp1915
(I1
(I3
tp1916
g247
I00
S'\x07\xe5\xeeo\xc2@\xf0?\x80*\x19Ng\xcf\x17\xc0\xccm\xca\xd2+4\x0f@'
p1917
tp1918
bag989
asg1030
(lp1919
g21
(g22
(I0
tp1920
g24
tp1921
Rp1922
(I1
(I3
tp1923
g236
I00
S'\xd4=`\xfece\x07@\xa4;\xab6h\x99\x18\xc0]\xc0\xe2\x95[\x82\xfc?'
p1924
tp1925
bag21
(g22
(I0
tp1926
g24
tp1927
Rp1928
(I1
(I3
tp1929
g247
I00
S'\xba\x8d\x1a\xa2f&\x03@$\xbc\xba{lE\x1a\xc0172\n\x8c\xab\x03@'
p1930
tp1931
bag21
(g22
(I0
tp1932
g24
tp1933
Rp1934
(I1
(I3
tp1935
g247
I00
S'\xf60LV\xe8\x96\x00@\x9aEw{a\xe2\x18\xc0^\xa8\x8a,\xa3\x98\x00@'
p1936
tp1937
bag21
(g22
(I0
tp1938
g24
tp1939
Rp1940
(I1
(I3
tp1941
g247
I00
S'\x84\xa2s4\xa1\xd0\xf6?E=|\xb9\xcam\x17\xc0\xa93^V\xfc\xed\x05@'
p1942
tp1943
bag1045
asg74
g1102
sg677
(lp1944
g21
(g22
(I0
tp1945
g24
tp1946
Rp1947
(I1
(I3
tp1948
g236
I00
S'\xd4=`\xfece\x07@\xa4;\xab6h\x99\x18\xc0]\xc0\xe2\x95[\x82\xfc?'
p1949
tp1950
bag1129
assg678
(dp1951
(Vrectangular_packing_box4
p1952
(cnumpy.core.multiarray
scalar
p1953
(g236
S'\xb7*\x89\xec\x83,\xf3?'
p1954
tp1955
Rp1956
g1953
(g236
S'\xea%\xc62\xfdR\x17\xc0'
p1957
tp1958
Rp1959
g1953
(g236
S'\x03\xceR\xb2\x9cD\x0e@'
p1960
tp1961
Rp1962
tp1963
tp1964
g684
s(Vsquare_packing_box3
p1965
(g1953
(g236
S'\xb2\x7f\x9e\x06\x0c\x92\x9e?'
p1966
tp1967
Rp1968
g1953
(g236
S'\x96Y\x84b+H\x15\xc0'
p1969
tp1970
Rp1971
g1953
(g236
S't\xb2\xd4z\xbfq\x11@'
p1972
tp1973
Rp1974
tp1975
tp1976
g704
s(Vrectangular_packing_box3
p1977
(g1953
(g236
S'\xdc\xa0\xf6[;\x11\x04@'
p1978
tp1979
Rp1980
g1953
(g236
S'\xf1\x81\x1d\xff\x05\xc2\x15\xc0'
p1981
tp1982
Rp1983
g1953
(g236
S'\xa0\x18Y2\xc7\xc2\x10@'
p1984
tp1985
Rp1986
tp1987
tp1988
g692
s(Vsquare_packing_box4
p1989
(g1953
(g236
S'\xe0\xd8\xb3\xe72\xb5\r@'
p1990
tp1991
Rp1992
g1953
(g236
S'\x83\xdao\xedD\x19\x17\xc0'
p1993
tp1994
Rp1995
g1953
(g236
S'\xe3\xc3\xece\xdby\x16@'
p1996
tp1997
Rp1998
tp1999
tp2000
g712
s(Vrectangular_packing_box1
p2001
(g1953
(g236
S'\xf9jGq\x8e:\xd8?'
p2002
tp2003
Rp2004
g1953
(g236
S'\x8b\xc5o\n+%\x1b\xc0'
p2005
tp2006
Rp2007
g1953
(g236
S'\xae\x81\xad\x12,\xfe\x16@'
p2008
tp2009
Rp2010
tp2011
tp2012
g696
s(Vsquare_packing_box2
p2013
(g1953
(g236
S'\xbdn\x11\x18\xeb\x1bh\xbf'
p2014
tp2015
Rp2016
g1953
(g236
S'/PR`\x01\xbc\x18\xc0'
p2017
tp2018
Rp2019
g1953
(g236
S"\xff\x1f'L\x18\xcd\xe0?"
p2020
tp2021
Rp2022
tp2023
tp2024
g700
s(Vsquare_packing_box1
p2025
(g1953
(g236
S'~\xa7\xc9\x8c\xb75\n@'
p2026
tp2027
Rp2028
g1953
(g236
S'\xab \x06\xba\xf6%\x1f\xc0'
p2029
tp2030
Rp2031
g1953
(g236
S'F\x98\xa2\\\x1ao\x15@'
p2032
tp2033
Rp2034
tp2035
tp2036
g708
s(Vrectangular_packing_box2
p2037
(g1953
(g236
S'R*\xe1\t\xbd\x9e\x01@'
p2038
tp2039
Rp2040
g1953
(g236
S'\xab#G:\x03#\x1f\xc0'
p2041
tp2042
Rp2043
g1953
(g236
S'\xb5\xc1\x89\xe8\xd7\xb6\x0e@'
p2044
tp2045
Rp2046
tp2047
tp2048
g688
ssS'state_saver'
p2049
(igtamp_utils.utils
CustomStateSaver
p2050
(dp2051
S'robot_base_pose'
p2052
g21
(g22
(I0
tp2053
g24
tp2054
Rp2055
(I1
(I1
I3
tp2056
g236
I00
S'\xd2=`\xfece\x07@\xa2;\xab6h\x99\x18\xc0^\xc0\xe2\x95[\x82\xfc?'
p2057
tp2058
bsS'held_object'
p2059
NsS'robot_name'
p2060
S'pr2'
p2061
sS'env_id'
p2062
I1
sg1770
(dp2063
Vright_wall_1
p2064
g21
(g22
(I0
tp2065
g24
tp2066
Rp2067
(I1
(I4
tp2068
g236
I00
S'H\xe1z\x14\xaeG\x12@&\\\x8f\xc2\xf5(\xd4\xbf\xcc\x7fH\xbf}\x1d\xed?\x00\x00\x00\x00\x00\x00\x00\x00'
p2069
tp2070
bsVc_obst5
p2071
g21
(g22
(I0
tp2072
g24
tp2073
Rp2074
(I1
(I4
tp2075
g236
I00
S"\x7f\xc4\xf7.\xcd\xeb\x11@>\x05e\xad\x90\x18\xa9?e\xaa`TR'\xed?\xb8\xb68\xec\xa5]\x12@"
p2076
tp2077
bsVentrance_right
p2078
g21
(g22
(I0
tp2079
g24
tp2080
Rp2081
(I1
(I4
tp2082
g236
I00
S'ffffff\n@H\xe1z\x14\xaeG\t\xc0\x9c\xc4 \xb0rh\xc1?\x00\x00\x00\x00\x00\x00\x00\x00'
p2083
tp2084
bsVcomputer_table
p2085
g21
(g22
(I0
tp2086
g24
tp2087
Rp2088
(I1
(I4
tp2089
g236
I00
S'\x00\x00\x00\x00\x00\x00\x13@\x00\x00\x00\x00\x00\x00\xf8\xbf\x96C\x8bl\xe7\xfb\xe7?\xd2!3\x7f|\xd9\x12@'
p2090
tp2091
bsVchair_6b56
p2092
g21
(g22
(I0
tp2093
g24
tp2094
Rp2095
(I1
(I4
tp2096
g236
I00
S'u=\n\xd7\xa3p\xf5?K\xe1z\x14\xaeG\xd1?\x00\x00\x00\x00\x00\x00\x00\x00\xd6$\xfaNBm\n@'
p2097
tp2098
bsVsquare_packing_box3
p2099
g21
(g22
(I0
tp2100
g24
tp2101
Rp2102
(I1
(I4
tp2103
g236
I00
S'\xdcc\x0e]\xec\x91\x9e?\x90\xd7\x90H+H\x15\xc0L7\x89A`\xe5\xd8?O\x9c\x0c\x99\xbfq\x11@'
p2104
tp2105
bsVsquare_packing_box2
p2106
g21
(g22
(I0
tp2107
g24
tp2108
Rp2109
(I1
(I4
tp2110
g236
I00
S'xeK\x80\x91\x1bh\xbf\xab?Og\x01\xbc\x18\xc0L7\x89A`\xe5\xd8?P\xc7J\xf9\x17\xcd\xe0?'
p2111
tp2112
bsVtable
p2113
g21
(g22
(I0
tp2114
g24
tp2115
Rp2116
(I1
(I4
tp2117
g236
I00
S'\x7f\xf6#EdX\xed?\xac\xffs\x98//\xc0\xbf\x00\x00\x00\x00\x00\x00\x00\x00\x00\x00\x00\x00\x00\x00\x00\x00'
p2118
tp2119
bsVsquare_packing_box1
p2120
g21
(g22
(I0
tp2121
g24
tp2122
Rp2123
(I1
(I4
tp2124
g236
I00
S'\xa4\x10\xec\xb0\xb75\n@\x14\x83\x17\xc4\xf6%\x1f\xc0L7\x89A`\xe5\xd8?\xfa\xc1qg\x1ao\x15@'
p2125
tp2126
bsVback_wall_2
p2127
g21
(g22
(I0
tp2128
g24
tp2129
Rp2130
(I1
(I4
tp2131
g236
I00
S'\xaeG\xe1z\x14.\x13@\x80\x14\xaeG\xe1z\xc4?xX\xa85\xcd\xbb\xf2?\x00\x00\x00\x00\x00\x00\x00\x00'
p2132
tp2133
bsVchair_083c
p2134
g21
(g22
(I0
tp2135
g24
tp2136
Rp2137
(I1
(I4
tp2138
g236
I00
S'\xa4p=\n\xd7\xa3\xe0?333333\xe3\xbf\x00\x00\x00\x00\x00\x00\x00\x00\x00\x00\x00\x00\x00\x00\x00\x00'
p2139
tp2140
bsVback_wall_1
p2141
g21
(g22
(I0
tp2142
g24
tp2143
Rp2144
(I1
(I4
tp2145
g236
I00
S'\xaeG\xe1z\x14.\x13@\x80\x14\xaeG\xe1z\xc4?\xcc\x7fH\xbf}\x1d\xed?\x00\x00\x00\x00\x00\x00\x00\x00'
p2146
tp2147
bsVbottom_wall
p2148
g21
(g22
(I0
tp2149
g24
tp2150
Rp2151
(I1
(I4
tp2152
g236
I00
S'\x00\x00\x00\x00\x00\x00\xfc?\x00\x00\x00\x00\x00\x00\x00\x00\x00\x00\x00\x00\x00\x00\x00\x00\x00\x00\x00\x00\x00\x00\x00\x00'
p2153
tp2154
bsVcup_905a
p2155
g21
(g22
(I0
tp2156
g24
tp2157
Rp2158
(I1
(I4
tp2159
g236
I00
S'\x00\x00\x00\x00\x00\x00\xf0?\x83\xc0\xca\xa1E\xb6\xdb?\x1b/\xdd$\x06\x81\xed?\x00\x00\x00\x00\x00\x00\x00\x00'
p2160
tp2161
bsVplate_496f
p2162
g21
(g22
(I0
tp2163
g24
tp2164
Rp2165
(I1
(I4
tp2166
g236
I00
S"q=\n\xd7\xa3p\xe5?\x9dhW!\xe5'\xdd\xbf\x1b/\xdd$\x06\x81\xed?\x00\x00\x00\x00\x00\x00\x00\x00"
p2167
tp2168
bsVtoaster
p2169
g21
(g22
(I0
tp2170
g24
tp2171
Rp2172
(I1
(I4
tp2173
g236
I00
S')\\\x8f\xc2\xf5(\xf4\xbf\xe0z\x14\xaeG\xe1\xf2\xbf\xb8\x1e\x85\xebQ\xb8\xee?\x89/`\x9b\xf8\x8a\xe4?'
p2174
tp2175
bsVc_obst1
p2176
g21
(g22
(I0
tp2177
g24
tp2178
Rp2179
(I1
(I4
tp2180
g236
I00
S"*%T#\xa3\x15\x12@\xc8\xe8\x04\xba*n\xdc?e\xaa`TR'\xed?\x13a\x83\x95\x8f\xa4\x0b@"
p2181
tp2182
bsVrectangular_packing_box4
p2183
g21
(g22
(I0
tp2184
g24
tp2185
Rp2186
(I1
(I4
tp2187
g236
I00
S'\x96\xf5\xf7\x8c\x83,\xf3?P\xe9\xa6\x13\xfdR\x17\xc0L7\x89A`\xe5\xd8?~]2\xb5\x9cD\x0e@'
p2188
tp2189
bsVmicrowave
p2190
g21
(g22
(I0
tp2191
g24
tp2192
Rp2193
(I1
(I4
tp2194
g236
I00
S'\x9a\x99\x99\x99\x99\x99\xf1\xbf\x00\x00\x00\x00\x00\x00\x00@7\x89A`\xe5\xd0\xee?\x00\x00\x00\x00\x00\x00\x00\x00'
p2195
tp2196
bsVc_obst7
p2197
g21
(g22
(I0
tp2198
g24
tp2199
Rp2200
(I1
(I4
tp2201
g236
I00
S"\x15$[@\xa2i\x12@\xa0\xcd\xe7\xd5\x7fg\xb6\xbfe\xaa`TR'\xed?v\xe5\x96\x14\xac?\x10@"
p2202
tp2203
bsVc_obst6
p2204
g21
(g22
(I0
tp2205
g24
tp2206
Rp2207
(I1
(I4
tp2208
g236
I00
S"[\x90\xc6\x9b\xb4z\x12@\xae\xd4\xb5\xe0\xb6\xab\xce?e\xaa`TR'\xed?\xacb\x16\x86\xf0S\x18@"
p2209
tp2210
bsVcup_b6af
p2211
g21
(g22
(I0
tp2212
g24
tp2213
Rp2214
(I1
(I4
tp2215
g236
I00
S'R\xb8\x1e\x85\xebQ\xe8?\x9a\x99\x99\x99\x99\x99\xe1?\x1b/\xdd$\x06\x81\xed?\x00\x00\x00\x00\x00\x00\x00\x00'
p2216
tp2217
bsVc_obst4
p2218
g21
(g22
(I0
tp2219
g24
tp2220
Rp2221
(I1
(I4
tp2222
g236
I00
S"\xd2\xfa~f\xafA\x12@\xb87\xed\x89\x90\x92\xdf?e\xaa`TR'\xed?U\xd5\xb3\xc0\x89\xd7\x03@"
p2223
tp2224
bsVrectangular_packing_box2
p2225
g21
(g22
(I0
tp2226
g24
tp2227
Rp2228
(I1
(I4
tp2229
g236
I00
S'\xb0\xc9\xb8\x06\xbd\x9e\x01@\xb6\x08\x0b=\x03#\x1f\xc0L7\x89A`\xe5\xd8?\xb1m\xa9\xe4\xd7\xb6\x0e@'
p2230
tp2231
bsVplate_fa76
p2232
g21
(g22
(I0
tp2233
g24
tp2234
Rp2235
(I1
(I4
tp2236
g236
I00
S'=\n\xd7\xa3p=\xf2?\x00\x00\x00\x00\x00\x00\x00\x00\x1b/\xdd$\x06\x81\xed?\x00\x00\x00\x00\x00\x00\x00\x00'
p2237
tp2238
bsVfloorwalls
p2239
g21
(g22
(I0
tp2240
g24
tp2241
Rp2242
(I1
(I4
tp2243
g236
I00
S'\xc7\xcc\xcc\xcc\xcc\xcc\xfc?\x00\x00\x00\x00\x00\x00\x18\xc0H\xe1z\x14\xaeG\xc1?\x16-DT\xfb!\xf9?'
p2244
tp2245
bsVpin_c671
p2246
g21
(g22
(I0
tp2247
g24
tp2248
Rp2249
(I1
(I4
tp2250
g236
I00
S'\xc3\xf5(\\\x8f\xc2\xf1\xbf}?5^\xbaI\x02@\xb8\x1e\x85\xebQ\xb8\xfa?\x00\x00\x00\x00\x00\x00\x00\x00'
p2251
tp2252
bsVc_obst3
p2253
g21
(g22
(I0
tp2254
g24
tp2255
Rp2256
(I1
(I4
tp2257
g236
I00
S"\xca\x19\x90\xc6F\x1b\x12@\xd8\xd5\xcbf\xd4\x02\xbc?e\xaa`TR'\xed?\xd6\xd1\xb7\\\xb4\xe0\x08@"
p2258
tp2259
bsVchair_2e39
p2260
g21
(g22
(I0
tp2261
g24
tp2262
Rp2263
(I1
(I4
tp2264
g236
I00
S'hfffff\xee?cfffff\xf2\xbf\x00\x00\x00\x00\x00\x00\x00\x00\x07M\xe8QQF\xf3?'
p2265
tp2266
bsVentrance_left
p2267
g21
(g22
(I0
tp2268
g24
tp2269
Rp2270
(I1
(I4
tp2271
g236
I00
S'\x98\x99\x99\x99\x99\x99\xe9\xbfH\xe1z\x14\xaeG\t\xc0\x9c\xc4 \xb0rh\xc1?\x00\x00\x00\x00\x00\x00\x00\x00'
p2272
tp2273
bsVtop_wall_1
p2274
g21
(g22
(I0
tp2275
g24
tp2276
Rp2277
(I1
(I4
tp2278
g236
I00
S'H\xe1z\x14\xaeG\x12@\x80\x14\xaeG\xe1z\xc4?xX\xa85\xcd\xbb\xf2?\x00\x00\x00\x00\x00\x00\x00\x00'
p2279
tp2280
bsVrectangular_packing_box3
p2281
g21
(g22
(I0
tp2282
g24
tp2283
Rp2284
(I1
(I4
tp2285
g236
I00
S"\tH'3;\x11\x04@\x00%\xc3\x1d\x06\xc2\x15\xc0L7\x89A`\xe5\xd8?\x8c\xb8m\x1d\xc7\xc2\x10@"
p2286
tp2287
bsVshaker
p2288
g21
(g22
(I0
tp2289
g24
tp2290
Rp2291
(I1
(I4
tp2292
g236
I00
S'\n\xd7\xa3p=\n\x01@\x14\xaeG\xe1z\x14\x02@\\\x8f\xc2\xf5(\\\xef?\x00\x00\x00\x00\x00\x00\x00\x00'
p2293
tp2294
bsVc_obst9
p2295
g21
(g22
(I0
tp2296
g24
tp2297
Rp2298
(I1
(I4
tp2299
g236
I00
S"\xaa\xb5i\xd4\xfd\x93\x12@Z\x91\\\x8a\xb9_\x8a?e\xaa`TR'\xed?\x15 \x04\xb8\t\xd8\x11@"
p2300
tp2301
bsVplate_835a
p2302
g21
(g22
(I0
tp2303
g24
tp2304
Rp2305
(I1
(I4
tp2306
g236
I00
S'\xf6(\\\x8f\xc2\xf5\xf0?\\\x8f\xc2\xf5(\\\xe7\xbf\x1b/\xdd$\x06\x81\xed?\x00\x00\x00\x00\x00\x00\x00\x00'
p2307
tp2308
bsVcup_58a2
p2309
g21
(g22
(I0
tp2310
g24
tp2311
Rp2312
(I1
(I4
tp2313
g236
I00
S'\x85\xebQ\xb8\x1e\x85\xe3?\xcd\xcc\xcc\xcc\xcc\xcc\xdc?\x1b/\xdd$\x06\x81\xed?\x00\x00\x00\x00\x00\x00\x00\x00'
p2314
tp2315
bsVleft_wall_1
p2316
g21
(g22
(I0
tp2317
g24
tp2318
Rp2319
(I1
(I4
tp2320
g236
I00
S'H\xe1z\x14\xaeG\x12@S\xb8\x1e\x85\xebQ\xe4?\xcc\x7fH\xbf}\x1d\xed?\x00\x00\x00\x00\x00\x00\x00\x00'
p2321
tp2322
bsVc_obst2
p2323
g21
(g22
(I0
tp2324
g24
tp2325
Rp2326
(I1
(I4
tp2327
g236
I00
S'_O\xb1^"#\x12@\xd8\x1edf\x8d\xc7\xcd?e\xaa`TR\'\xed?\xb7[e\x07\xb8s\x15@'
p2328
tp2329
bsVsquare_packing_box4
p2330
g21
(g22
(I0
tp2331
g24
tp2332
Rp2333
(I1
(I4
tp2334
g236
I00
S'\x9d\xb5\xd6\xe72\xb5\r@<?N\xe4D\x19\x17\xc0L7\x89A`\xe5\xd8?89\xcc|\xdby\x16@'
p2335
tp2336
bsVrectangular_packing_box1
p2337
g21
(g22
(I0
tp2338
g24
tp2339
Rp2340
(I1
(I4
tp2341
g236
I00
S'\xc0B\x82\xfb\x8f:\xd8?\x8bS\xf8\x00+%\x1b\xc0L7\x89A`\xe5\xd8?\xc5\x00\x8f0,\xfe\x16@'
p2342
tp2343
bsVpin_371e
p2344
g21
(g22
(I0
tp2345
g24
tp2346
Rp2347
(I1
(I4
tp2348
g236
I00
S'333333\xf3\xbfffffff\xf6?\xb8\x1e\x85\xebQ\xb8\xee?\x00\x00\x00\x00\x00\x00\x00\x00'
p2349
tp2350
bsVfridge
p2351
g21
(g22
(I0
tp2352
g24
tp2353
Rp2354
(I1
(I4
tp2355
g236
I00
S'\xd7\xa3p=\n\xd7\xeb\xbf\x00\x00\x00\x00\x00\x00\x00\xc0\xcd\xcc\xcc\xcc\xcc\xcc\xf8?\x00\x00\x00\x00\x00\x00\x00\x00'
p2356
tp2357
bsVcup_d441
p2358
g21
(g22
(I0
tp2359
g24
tp2360
Rp2361
(I1
(I4
tp2362
g236
I00
S'\n\xd7\xa3p=\n\xef?\x8f\xc2\xf5(\\\x8f\xe2?\x1b/\xdd$\x06\x81\xed?\x00\x00\x00\x00\x00\x00\x00\x00'
p2363
tp2364
bsVshelf2
p2365
g21
(g22
(I0
tp2366
g24
tp2367
Rp2368
(I1
(I4
tp2369
g236
I00
S'\x00\x00\x00\x00\x00\x00\x0e@\xaeG\xe1z\x14\xae\x07@\x9c\xc4 \xb0rh\xc1?\xd2!3\x7f|\xd9\x12@'
p2370
tp2371
bsVtop_wall_2
p2372
g21
(g22
(I0
tp2373
g24
tp2374
Rp2375
(I1
(I4
tp2376
g236
I00
S'H\xe1z\x14\xaeG\x12@\x80\x14\xaeG\xe1z\xc4?\x16HP\xfc\x18\xf3\xfd?\x00\x00\x00\x00\x00\x00\x00\x00'
p2377
tp2378
bsVc_obst0
p2379
g21
(g22
(I0
tp2380
g24
tp2381
Rp2382
(I1
(I4
tp2383
g236
I00
S"\xeb\xa7\xc0\xfewp\x12@\x90\x1e\n\x96X\xfe\xc8\xbfe\xaa`TR'\xed?\xd0\x8c\x8e\x16=\xce\x15@"
p2384
tp2385
bsVshelf1
p2386
g21
(g22
(I0
tp2387
g24
tp2388
Rp2389
(I1
(I4
tp2390
g236
I00
S'\x00\x00\x00\x00\x00\x00\x13@\xaeG\xe1z\x14\xae\x07@\x9c\xc4 \xb0rh\xc1?\xd2!3\x7f|\xd9\x12@'
p2391
tp2392
bsVsink
p2393
g21
(g22
(I0
tp2394
g24
tp2395
Rp2396
(I1
(I4
tp2397
g236
I00
S'ffffff\xd6?333333\x01@\x9a\x99\x99\x99\x99\x99\xb9\xbf\x00\x00\x00\x00\x00\x00\x00\x00'
p2398
tp2399
bsVpr2
p2400
g21
(g22
(I0
tp2401
g24
tp2402
Rp2403
(I1
(I4
tp2404
g236
I00
S'\xd2=`\xfece\x07@\xa0;\xab6h\x99\x18\xc0\x9a_\x94\xa0\xbf\xd0\xc1?^\xc0\xe2\x95[\x82\xfc?'
p2405
tp2406
bsVchair_12d0
p2407
g21
(g22
(I0
tp2408
g24
tp2409
Rp2410
(I1
(I4
tp2411
g236
I00
S'\\\xd2\x18\xad\xa3\xaa\xdb?Of\x83L2r\xc6?\x00\x00\x00\x00\x00\x00\x00\x00\xf8\x81\r\x14M\xa6\x17@'
p2412
tp2413
bsVright_wall_2
p2414
g21
(g22
(I0
tp2415
g24
tp2416
Rp2417
(I1
(I4
tp2418
g236
I00
S'H\xe1z\x14\xaeG\x12@&\\\x8f\xc2\xf5(\xd4\xbfxX\xa85\xcd\xbb\xf2?\x00\x00\x00\x00\x00\x00\x00\x00'
p2419
tp2420
bsVknife_block
p2421
g21
(g22
(I0
tp2422
g24
tp2423
Rp2424
(I1
(I4
tp2425
g236
I00
S'R\xb8\x1e\x85\xebQ\xe0\xbfffffff\x02@`\xe5\xd0"\xdb\xf9\xee?\x00\x00\x00\x00\x00\x00\x00\x00'
p2426
tp2427
bsVleft_wall_2
p2428
g21
(g22
(I0
tp2429
g24
tp2430
Rp2431
(I1
(I4
tp2432
g236
I00
S'H\xe1z\x14\xaeG\x12@S\xb8\x1e\x85\xebQ\xe4?xX\xa85\xcd\xbb\xf2?\x00\x00\x00\x00\x00\x00\x00\x00'
p2433
tp2434
bsVleft_wall
p2435
g21
(g22
(I0
tp2436
g24
tp2437
Rp2438
(I1
(I4
tp2439
g236
I00
S'\x9a\x99\x99\x99\x99\x99\x07@H\xe1z\x14\xaeG\xff?\x9c\xc4 \xb0rh\xc1?\x00\x00\x00\x00\x00\x00\x00\x00'
p2440
tp2441
bsVkitchen
p2442
g21
(g22
(I0
tp2443
g24
tp2444
Rp2445
(I1
(I4
tp2446
g236
I00
S'\x00\x00\x00\x00\x00\x00\x00\x00\x00\x00\x00\x00\x00\x00\x00\x00\x00\x00\x00\x00\x00\x00\x00\x00\x00\x00\x00\x00\x00\x00\x00\x00'
p2447
tp2448
bsVtable2
p2449
g21
(g22
(I0
tp2450
g24
tp2451
Rp2452
(I1
(I4
tp2453
g236
I00
S'\x00\x00\x00\x00\x00\x00\x13@\x80\x14\xaeG\xe1z\xc4?S\x96!\x8euq\xec?\xd2!3\x7f|\xd9\x12@'
p2454
tp2455
bsVc_obst8
p2456
g21
(g22
(I0
tp2457
g24
tp2458
Rp2459
(I1
(I4
tp2460
g236
I00
S"\x1aL\nQ\x8d\x1e\x12@\x00\x17.n\x0eA\xb1\xbfe\xaa`TR'\xed?\xa6lzn\xe4p\x04@"
p2461
tp2462
bsVplate_b4e7
p2463
g21
(g22
(I0
tp2464
g24
tp2465
Rp2466
(I1
(I4
tp2467
g236
I00
S'\x14\xaeG\xe1z\x14\xf2\xbf\x14\xaeG\xe1z\x14\x00@=\n\xd7\xa3p=\xf2?\x00\x00\x00\x00\x00\x00\x00\x00'
p2468
tp2469
bsVcooker
p2470
g21
(g22
(I0
tp2471
g24
tp2472
Rp2473
(I1
(I4
tp2474
g236
I00
S'\xaeG\xe1z\x14\xae\xff?\x85\xebQ\xb8\x1e\x85\xfb?\x00\x00\x00\x00\x00\x00\xe8?\x00\x00\x00\x00\x00\x00\x00\x00'
p2475
tp2476
bsVpin_a091
p2477
g21
(g22
(I0
tp2478
g24
tp2479
Rp2480
(I1
(I4
tp2481
g236
I00
S'\xdb\xf9~j\xbct\xf7\xbf)\\\x8f\xc2\xf5(\x02@\xb8\x1e\x85\xebQ\xb8\xfa?\x00\x00\x00\x00\x00\x00\x00\x00'
p2482
tp2483
bsVside_wall_2
p2484
g21
(g22
(I0
tp2485
g24
tp2486
Rp2487
(I1
(I4
tp2488
g236
I00
S'\xfa\xff\xff\xff\xff\xff\x14@\x00\x00\x00\x00\x00\x00\x00\x00\x9c\xc4 \xb0rh\xc1?\x18-DT\xfb!\xf9?'
p2489
tp2490
bsVside_wall_3
p2491
g21
(g22
(I0
tp2492
g24
tp2493
Rp2494
(I1
(I4
tp2495
g236
I00
S'\x00\x00\x00\x00\x00\x00\xfc?H\xe1z\x14\xaeG\t@\x9c\xc4 \xb0rh\xc1?\x00\x00\x00\x00\x00\x00\x00\x00'
p2496
tp2497
bsVmixer
p2498
g21
(g22
(I0
tp2499
g24
tp2500
Rp2501
(I1
(I4
tp2502
g236
I00
S'\n\xd7\xa3p=\n\xfb?ffffff\x02@d;\xdfO\x8d\x97\xee?\x00\x00\x00\x00\x00\x00\x00\x00'
p2503
tp2504
bsVside_wall_1
p2505
g21
(g22
(I0
tp2506
g24
tp2507
Rp2508
(I1
(I4
tp2509
g236
I00
S'\xf4\xff\xff\xff\xff\xff\xfb\xbf\x00\x00\x00\x00\x00\x00\x00\x00\x9c\xc4 \xb0rh\xc1?\x18-DT\xfb!\xf9?'
p2510
tp2511
bsVbottom_wall_1
p2512
g21
(g22
(I0
tp2513
g24
tp2514
Rp2515
(I1
(I4
tp2516
g236
I00
S'H\xe1z\x14\xaeG\x12@\x80\x14\xaeG\xe1z\xc4?\xcc\x7fH\xbf}\x1d\xed?\x00\x00\x00\x00\x00\x00\x00\x00'
p2517
tp2518
bsVcan
p2519
g21
(g22
(I0
tp2520
g24
tp2521
Rp2522
(I1
(I4
tp2523
g236
I00
S'\x00\x00\x00\x00\x00\x00\xf4\xbfH\xe1z\x14\xaeG\xe1\xbf\n\xd7\xa3p=\n\xef?\x00\x00\x00\x00\x00\x00\x00\x00'
p2524
tp2525
bsVright_wall
p2526
g21
(g22
(I0
tp2527
g24
tp2528
Rp2529
(I1
(I4
tp2530
g236
I00
S'\x9a\x99\x99\x99\x99\x99\x07@H\xe1z\x14\xaeG\xff\xbf\x9c\xc4 \xb0rh\xc1?\x00\x00\x00\x00\x00\x00\x00\x00'
p2531
tp2532
bsVcoffe_machine
p2533
g21
(g22
(I0
tp2534
g24
tp2535
Rp2536
(I1
(I4
tp2537
g236
I00
S'\\\x8f\xc2\xf5(\\\xf5\xbf\xb8\x1e\x85\xebQ\xb8\xee?\n\xd7\xa3p=\n\xef?\x00\x00\x00\x00\x00\x00\x00\x00'
p2538
tp2539
bsVcomputer_chair
p2540
g21
(g22
(I0
tp2541
g24
tp2542
Rp2543
(I1
(I4
tp2544
g236
I00
S'\xcd\xcc\xcc\xcc\xcc\xcc\x10@\x00\x00\x00\x00\x00\x00\xf8\xbf\xa00\xb6\x10\xe4\xa9\x95\xbf\x00\x00\x00\x00\x00\x00\x00\x00'
p2545
tp2546
bssS'robot_dof_values'
p2547
g21
(g22
(I0
tp2548
g24
tp2549
Rp2550
(I1
(I39
tp2551
g236
I00
S'\x00\x00\x00\x00\x00\x00\x00\x00\x00\x00\x00\x00\x00\x00\x00\x00\x00\x00\x00\x00\x00\x00\x00\x00\x00\x00\x00\x00\x00\x00\x00\x00\x00\x00\x00\x00\x00\x00\x00\x00\x00\x00\x00\x00\x00\x00\x00\x00\x00\x00\x00\x00\x00\x00\x00\x00\x00\x00\x00\x00\x00\x00\x00\x00\x00\x00\x00\x00\x00\x00\x00\x00\x00\x00\x00\x00\x00\x00\x00\x00\x00\x00\x00\x00\x00\x00\x00\x00\x00\x00\x00\x00\x00\x00\x00\x00@d;\xdfO\x8d\x87?\x00\x00\x00\x00\x00\x00\x00\x00\x00\x00\x00\x00\x00\x00\x00\x00\x00\x00\x00\x00\x00\x00\x00\x00\xec\xed\t\xf1\xcc\xa4\xf4?\x00\x00\x00\x00\x00\x00\x00\x00O"\xd0^p\xf8\x00\xc0\x00\x00\x00\x00\x00\x00\x00\x00\x9a\x03\r.\x04V\xe6\xbf\x00\x00\x00\x00\x00\x00\x00\x00\x00\x00\x00\x00\x00\x00\x00\x00\x00\x00\x00\x00\x00\x80\xdd\xbc\x00\x00\x00\x00\x00\x00\x00\x00\x00\x00\x00\x00\x00\x00\xd4\xbc\x00\x00\x00\x00\x00\x00\x00\x00\x00\x00\x00\x00\x00\x00\x00\x00\xec\xed\t\xf1\xcc\xa4\xf4?\x00\x00\x00\x00\x00\x00\xb0\xbcN"\xd0^p\xf8\x00\xc0TT\xaf\x99\x8a\xcc\xa3\xbc\xa0\x03\r.\x04V\xe6\xbf\x00\x00\x00\x00\x00\x00\x00\x00\xcc9\xe3\xc17\x89\xe1?\x00\x00\x00\x00\x00\x00\xc3\xbc\x00\x00\x00\x00\x00\x00\x00\x00\x00\x00\x00\x00\x00\x00\xee\xbc\x00\x00\x00\x00\x00\x00\x00\x00'
p2552
tp2553
bsS'is_holding'
p2554
I00
sbsS'holding_collides'
p2555
NsS'parent_ternary_predicates'
p2556
(dp2557
sS'cached_place_paths'
p2558
(dp2559
(g676
g1274
tp2560
(lp2561
g21
(g22
(I0
tp2562
g24
tp2563
Rp2564
(I1
(I3
tp2565
g236
I00
S'\x05;9\xd0\xd3o\xf1?VT\x89\xfc\x91\xd7\x1b\xc0:\x9e\x02y\xa1\xd0\x05@'
p2566
tp2567
bas(g677
g227
tp2568
g290
s(g12
g227
tp2569
g353
s(g1030
g1274
tp2570
(lp2571
g21
(g22
(I0
tp2572
g24
tp2573
Rp2574
(I1
(I3
tp2575
g236
I00
S"\xd8'\xf5\x17\xe4~\xc3?\xd7d\xebI);\x18\xc0\x87\xc3\xff\x9f-N\xf9?"
p2576
tp2577
bas(g12
g1274
tp2578
(lp2579
g21
(g22
(I0
tp2580
g24
tp2581
Rp2582
(I1
(I3
tp2583
g236
I00
S'H\x99{U\xb0\x86\xfc?\x1f\xd2o\xb4\n\xa0\x18\xc0\x9c\x99\xc9\x05\xf6\xbe\x02@'
p2584
tp2585
bas(g1030
g227
tp2586
g551
s(g968
g1274
tp2587
(lp2588
g21
(g22
(I0
tp2589
g24
tp2590
Rp2591
(I1
(I3
tp2592
g236
I00
S'`>\xd6\xd5f5\xbe\xbf\xbc\xbf\xc8i\xa50\x16\xc0)=\x89\xa3\x19\xc7\x13@'
p2593
tp2594
bas(g968
g227
tp2595
g467
s(g74
g227
tp2596
g404
s(g675
g227
tp2597
g229
s(g675
g1274
tp2598
(lp2599
g21
(g22
(I0
tp2600
g24
tp2601
Rp2602
(I1
(I3
tp2603
g236
I00
S'gg\xa4\xb4J\x9c\x01@\x10T\x97G\x08\xd0\x18\xc0v\xc1\xb8\x11h\x9f\xf4?'
p2604
tp2605
bas(g677
g1274
tp2606
(lp2607
g21
(g22
(I0
tp2608
g24
tp2609
Rp2610
(I1
(I3
tp2611
g236
I00
S'\xba\x0b\xdaU\x97j\n@\xb3\xcb\xa3\x019\xe0\x19\xc0(\xb3\xae\xc0\xd1\x8a\xf4?'
p2612
tp2613
bas(g74
g1274
tp2614
(lp2615
g21
(g22
(I0
tp2616
g24
tp2617
Rp2618
(I1
(I3
tp2619
g236
I00
S'\xfdk\x14\x0b\xb6\x9b\x08@(9\xe3\xf1\xdb\xbe\x1c\xc0\x92\x0c\xf3)\xaak\x14@'
p2620
tp2621
bas(g674
g1274
tp2622
(lp2623
g21
(g22
(I0
tp2624
g24
tp2625
Rp2626
(I1
(I3
tp2627
g236
I00
S'4\xbf\x80\x16\x06I\xfc?\xb0\x82\x18\x16\x86\xdd\x1c\xc0^\x18\xd5*\x81\n\x14@'
p2628
tp2629
bas(g674
g227
tp2630
g590
s(g676
g227
tp2631
g506
ssS'parent_binary_predicates'
p2632
(dp2633
sS'nodes'
p2634
(dp2635
g1277
(lp2636
I0
aI0
aI0
aI0
aI0
aI0
aI00
aI01
aI00
aI01
aI00
asg1274
(lp2637
I0
aI0
aI0
aI0
aI0
aI0
aI00
aI01
aI00
aI01
aI00
asg227
(lp2638
I0
aI0
aI0
aI0
aI0
aI0
aI00
aI01
aI01
aI01
aI00
asg351
(lp2639
I0
aI0
aI0
ag1953
(g236
S'z\xf5\xf7\x8c\x83,\xf3?'
p2640
tp2641
Rp2642
ag1953
(g236
S'6\xe9\xa6\x13\xfdR\x17\xc0'
p2643
tp2644
Rp2645
ag1953
(g236
S'~]2\xb5\x9cD\x0e@'
p2646
tp2647
Rp2648
aI01
aI00
aI00
aI01
aI00
asg588
(lp2649
I0
aI0
aI0
ag1953
(g236
S'\x93\xc6\xb8\x06\xbd\x9e\x01@'
p2650
tp2651
Rp2652
ag1953
(g236
S'\x8e\x07\x0b=\x03#\x1f\xc0'
p2653
tp2654
Rp2655
ag1953
(g236
S'\xb1m\xa9\xe4\xd7\xb6\x0e@'
p2656
tp2657
Rp2658
aI01
aI00
aI00
aI01
aI00
asg226
(lp2659
I0
aI0
aI0
ag1953
(g236
S"\xdfE'3;\x11\x04@"
p2660
tp2661
Rp2662
ag1953
(g236
S'\xa5"\xc3\x1d\x06\xc2\x15\xc0'
p2663
tp2664
Rp2665
ag1953
(g236
S'\x87\xb8m\x1d\xc7\xc2\x10@'
p2666
tp2667
Rp2668
aI01
aI00
aI00
aI01
aI00
asg504
(lp2669
I0
aI0
aI0
ag1953
(g236
S'\xe6B\x82\xfb\x8f:\xd8?'
p2670
tp2671
Rp2672
ag1953
(g236
S'\x82S\xf8\x00+%\x1b\xc0'
p2673
tp2674
Rp2675
ag1953
(g236
S'\xc2\x00\x8f0,\xfe\x16@'
p2676
tp2677
Rp2678
aI01
aI00
aI00
aI01
aI00
asg465
(lp2679
I0
aI0
aI0
ag1953
(g236
S'P\xbfK\x80\x91\x1bh\xbf'
p2680
tp2681
Rp2682
ag1953
(g236
S'\xb8?Og\x01\xbc\x18\xc0'
p2683
tp2684
Rp2685
ag1953
(g236
S'P\xc7J\xf9\x17\xcd\xe0?'
p2686
tp2687
Rp2688
aI01
aI00
aI00
aI00
aI00
asg549
(lp2689
I0
aI0
aI0
ag1953
(g236
S'@f\x0e]\xec\x91\x9e?'
p2690
tp2691
Rp2692
ag1953
(g236
S'\xe8\xd7\x90H+H\x15\xc0'
p2693
tp2694
Rp2695
ag1953
(g236
S'O\x9c\x0c\x99\xbfq\x11@'
p2696
tp2697
Rp2698
aI01
aI00
aI00
aI00
aI00
asg402
(lp2699
I0
aI0
aI0
ag1953
(g236
S'\xa4\x10\xec\xb0\xb75\n@'
p2700
tp2701
Rp2702
ag1953
(g236
S'\x14\x83\x17\xc4\xf6%\x1f\xc0'
p2703
tp2704
Rp2705
ag1953
(g236
S'\xfa\xc1qg\x1ao\x15@'
p2706
tp2707
Rp2708
aI01
aI00
aI01
aI01
aI00
asg288
(lp2709
I0
aI0
aI0
ag1953
(g236
S'\x90\xb5\xd6\xe72\xb5\r@'
p2710
tp2711
Rp2712
ag1953
(g236
S'A?N\xe4D\x19\x17\xc0'
p2713
tp2714
Rp2715
ag1953
(g236
S'89\xcc|\xdby\x16@'
p2716
tp2717
Rp2718
aI01
aI00
aI00
aI01
aI00
assS'mc_place_path'
p2719
(dp2720
sS'parent_state'
p2721
NsS'goal_entities'
p2722
(lp2723
S'square_packing_box1'
p2724
ag227
asS'binary_edges'
p2725
(dp2726
(g465
g288
tp2727
(lp2728
I00
aI00
aI00
as(g465
g351
tp2729
(lp2730
I00
aI00
aI00
as(g226
g549
tp2731
(lp2732
I00
aI00
aI00
as(g226
g226
tp2733
(lp2734
I00
aI00
aI00
as(g588
g549
tp2735
(lp2736
I00
aI00
aI00
as(g588
g226
tp2737
(lp2738
I00
aI00
aI00
as(g288
g588
tp2739
(lp2740
I00
aI00
aI00
as(g465
g402
tp2741
(lp2742
I00
aI00
aI00
as(g504
g226
tp2743
(lp2744
I00
aI00
aI00
as(g351
g351
tp2745
(lp2746
I00
aI00
aI00
as(g588
g1274
tp2747
(lp2748
g1953
(g28
(S'b1'
p2749
I0
I1
tp2750
Rp2751
(I3
S'|'
p2752
NNNI-1
I-1
I0
tp2753
bS'\x01'
p2754
tp2755
Rp2756
aI00
aI01
as(g1277
g1274
tp2757
(lp2758
I00
aI00
aI00
as(g351
g288
tp2759
(lp2760
I00
aI00
aI00
as(g1274
g288
tp2761
(lp2762
I00
aI00
aI00
as(g402
g227
tp2763
(lp2764
I00
aI00
aI00
as(g1277
g588
tp2765
(lp2766
I00
aI00
aI00
as(g588
g288
tp2767
(lp2768
I00
aI00
aI00
as(g226
g1277
tp2769
(lp2770
g2756
aI00
aI00
as(g465
g465
tp2771
(lp2772
I00
aI00
aI00
as(g1274
g465
tp2773
(lp2774
I00
aI00
aI00
as(g549
g588
tp2775
(lp2776
I00
aI00
aI00
as(g588
g227
tp2777
(lp2778
I00
aI00
aI00
as(g504
g549
tp2779
(lp2780
I00
aI00
aI00
as(g351
g504
tp2781
(lp2782
I00
aI00
aI00
as(g402
g402
tp2783
(lp2784
I00
aI00
aI00
as(g588
g1277
tp2785
(lp2786
g2756
aI00
aI00
as(g1274
g588
tp2787
(lp2788
I00
aI00
aI00
as(g1274
g549
tp2789
(lp2790
I00
aI00
aI00
as(g1274
g226
tp2791
(lp2792
I00
aI00
aI00
as(g549
g227
tp2793
(lp2794
I00
aI00
aI00
as(g288
g351
tp2795
(lp2796
I00
aI00
aI00
as(g504
g351
tp2797
(lp2798
I00
aI00
aI00
as(g549
g504
tp2799
(lp2800
I00
aI00
aI00
as(g1274
g351
tp2801
(lp2802
I00
aI00
aI00
as(g1277
g227
tp2803
(lp2804
I00
aI00
aI00
as(g402
g588
tp2805
(lp2806
I00
aI00
aI00
as(g351
g549
tp2807
(lp2808
I00
aI01
aI00
as(g1277
g549
tp2809
(lp2810
I00
aI00
aI00
as(g549
g1277
tp2811
(lp2812
g2756
aI00
aI00
as(g226
g465
tp2813
(lp2814
I00
aI00
aI00
as(g288
g402
tp2815
(lp2816
I00
aI00
aI00
as(g226
g588
tp2817
(lp2818
I00
aI00
aI00
as(g288
g227
tp2819
(lp2820
I00
aI00
aI00
as(g1277
g1277
tp2821
(lp2822
I00
aI00
aI00
as(g549
g351
tp2823
(lp2824
I00
aI00
aI00
as(g402
g465
tp2825
(lp2826
I00
aI00
aI00
as(g227
g402
tp2827
(lp2828
I00
aI00
aI00
as(g504
g1274
tp2829
(lp2830
g2756
aI00
aI01
as(g227
g504
tp2831
(lp2832
I00
aI00
aI00
as(g288
g226
tp2833
(lp2834
I00
aI00
aI00
as(g226
g402
tp2835
(lp2836
I00
aI00
aI00
as(g549
g1274
tp2837
(lp2838
g2756
aI00
aI01
as(g226
g504
tp2839
(lp2840
I00
aI00
aI00
as(g549
g549
tp2841
(lp2842
I00
aI00
aI00
as(g504
g588
tp2843
(lp2844
I00
aI00
aI00
as(g1274
g227
tp2845
(lp2846
I00
aI00
aI00
as(g227
g465
tp2847
(lp2848
I00
aI00
aI00
as(g351
g227
tp2849
(lp2850
I00
aI00
aI00
as(g1277
g504
tp2851
(lp2852
I00
aI00
aI00
as(g227
g288
tp2853
(lp2854
I00
aI00
aI00
as(g226
g288
tp2855
(lp2856
I00
aI00
aI00
as(g504
g1277
tp2857
(lp2858
g2756
aI00
aI00
as(g288
g1274
tp2859
(lp2860
g2756
aI00
aI01
as(g504
g465
tp2861
(lp2862
I00
aI00
aI00
as(g351
g588
tp2863
(lp2864
I00
aI00
aI00
as(g351
g1274
tp2865
(lp2866
g2756
aI00
aI01
as(g227
g226
tp2867
(lp2868
I00
aI00
aI00
as(g1277
g288
tp2869
(lp2870
I00
aI00
aI00
as(g1277
g351
tp2871
(lp2872
I00
aI00
aI00
as(g504
g227
tp2873
(lp2874
I00
aI00
aI00
as(g465
g504
tp2875
(lp2876
I00
aI00
aI00
as(g402
g504
tp2877
(lp2878
I00
aI00
aI00
as(g227
g549
tp2879
(lp2880
I00
aI00
aI00
as(g1274
g1274
tp2881
(lp2882
I00
aI00
aI00
as(g465
g226
tp2883
(lp2884
I00
aI00
aI00
as(g402
g549
tp2885
(lp2886
I00
aI00
aI00
as(g1274
g402
tp2887
(lp2888
I00
aI00
aI00
as(g588
g351
tp2889
(lp2890
I00
aI00
aI00
as(g1274
g504
tp2891
(lp2892
I00
aI00
aI00
as(g402
g1277
tp2893
(lp2894
g2756
aI00
aI00
as(g465
g588
tp2895
(lp2896
I00
aI00
aI00
as(g226
g227
tp2897
(lp2898
I00
aI00
aI00
as(g402
g351
tp2899
(lp2900
I00
aI00
aI00
as(g351
g402
tp2901
(lp2902
I00
aI00
aI00
as(g588
g402
tp2903
(lp2904
I00
aI00
aI00
as(g1277
g465
tp2905
(lp2906
I00
aI00
aI00
as(g588
g504
tp2907
(lp2908
I00
aI00
aI00
as(g549
g465
tp2909
(lp2910
I00
aI00
aI00
as(g465
g1274
tp2911
(lp2912
g2756
aI00
aI01
as(g504
g504
tp2913
(lp2914
I00
aI00
aI00
as(g288
g465
tp2915
(lp2916
I00
aI00
aI00
as(g402
g288
tp2917
(lp2918
I00
aI00
aI00
as(g588
g465
tp2919
(lp2920
I00
aI00
aI00
as(g588
g588
tp2921
(lp2922
I00
aI00
aI00
as(g288
g504
tp2923
(lp2924
I00
aI00
aI00
as(g465
g227
tp2925
(lp2926
I00
aI00
aI00
as(g549
g402
tp2927
(lp2928
I00
aI00
aI00
as(g226
g1274
tp2929
(lp2930
g2756
aI00
aI01
as(g227
g588
tp2931
(lp2932
I00
aI00
aI00
as(g504
g402
tp2933
(lp2934
I00
aI00
aI00
as(g351
g226
tp2935
(lp2936
I00
aI00
aI00
as(g227
g1274
tp2937
(lp2938
I00
aI00
aI00
as(g465
g549
tp2939
(lp2940
I00
aI00
aI00
as(g1277
g226
tp2941
(lp2942
I00
aI00
aI00
as(g465
g1277
tp2943
(lp2944
g2756
aI00
aI00
as(g549
g226
tp2945
(lp2946
I00
aI00
aI00
as(g227
g227
tp2947
(lp2948
I00
aI00
aI00
as(g504
g288
tp2949
(lp2950
I00
aI00
aI00
as(g351
g1277
tp2951
(lp2952
g2756
aI00
aI00
as(g288
g1277
tp2953
(lp2954
g2756
aI00
aI00
as(g227
g1277
tp2955
(lp2956
I00
aI00
aI00
as(g227
g351
tp2957
(lp2958
I00
aI00
aI00
as(g549
g288
tp2959
(lp2960
I00
aI00
aI00
as(g288
g549
tp2961
(lp2962
I00
aI00
aI00
as(g226
g351
tp2963
(lp2964
I00
aI00
aI00
as(g1274
g1277
tp2965
(lp2966
I00
aI00
aI00
as(g402
g226
tp2967
(lp2968
I00
aI00
aI00
as(g351
g465
tp2969
(lp2970
I00
aI01
aI00
as(g288
g288
tp2971
(lp2972
I00
aI00
aI00
as(g402
g1274
tp2973
(lp2974
g2756
aI00
aI01
as(g1277
g402
tp2975
(lp2976
I00
aI00
aI00
assg672
g673
sS'pick_in_way'
p2977
(itrajectory_representation.predicates.pick_in_way
PickInWay
p2978
(dp2979
g224
(dp2980
g351
g726
sg588
g1843
sg226
g1862
sg504
g1869
sg465
g1888
sg549
g1919
sg402
g1102
sg288
g1944
ssg639
(dp2981
g351
(lp2982
sg588
(lp2983
sg226
(lp2984
sg504
(lp2985
sg465
(lp2986
Vrectangular_packing_box4
p2987
asg549
(lp2988
Vrectangular_packing_box4
p2989
asg402
(lp2990
sg288
(lp2991
ssg672
(lp2992
g504
ag588
ag226
ag288
ag351
ag1277
ag227
ag1274
ag402
ag1277
ag227
ag1274
ag1277
ag227
ag1274
ag1277
ag227
ag1274
ag1277
ag227
ag1274
ag1277
ag227
ag1274
ag1277
ag227
ag1274
ag1277
ag227
ag1274
asg678
g679
sg107
(dp2993
sg713
g714
sg1202
Nsg1208
g714
sg1205
(dp2994
sg1207
I8
sg1269
I01
sg1209
Nsg1210
(dp2995
(g465
g288
tp2996
I00
s(g465
g351
tp2997
I00
s(g226
g549
tp2998
I00
s(g226
g226
tp2999
I00
s(g588
g549
tp3000
I00
s(g588
g226
tp3001
I00
s(g288
g588
tp3002
I00
s(g465
g402
tp3003
I00
s(g504
g226
tp3004
I00
s(g351
g351
tp3005
I00
s(g588
g1274
tp3006
I00
s(g1277
g1274
tp3007
I00
s(g351
g288
tp3008
I00
s(g1274
g288
tp3009
I00
s(g402
g227
tp3010
I00
s(g1277
g588
tp3011
I00
s(g588
g288
tp3012
I00
s(g226
g1277
tp3013
I00
s(g465
g465
tp3014
I00
s(g1274
g465
tp3015
I00
s(g549
g588
tp3016
I00
s(g588
g227
tp3017
I00
s(g504
g549
tp3018
I00
s(g351
g504
tp3019
I00
s(g402
g402
tp3020
I00
s(g588
g1277
tp3021
I00
s(g1274
g588
tp3022
I00
s(g1274
g549
tp3023
I00
s(g1274
g226
tp3024
I00
s(g549
g227
tp3025
I00
s(g288
g351
tp3026
I00
s(g504
g351
tp3027
I00
s(g549
g504
tp3028
I00
s(g1274
g351
tp3029
I00
s(g1277
g227
tp3030
I00
s(g402
g588
tp3031
I00
s(g351
g549
tp3032
I01
s(g1277
g549
tp3033
I00
s(g549
g1277
tp3034
I00
s(g226
g465
tp3035
I00
s(g288
g402
tp3036
I00
s(g226
g588
tp3037
I00
s(g288
g227
tp3038
I00
s(g1277
g1277
tp3039
I00
s(g549
g351
tp3040
I00
s(g402
g465
tp3041
I00
s(g227
g402
tp3042
I00
s(g504
g1274
tp3043
I00
s(g227
g504
tp3044
I00
s(g288
g226
tp3045
I00
s(g226
g402
tp3046
I00
s(g549
g1274
tp3047
I00
s(g226
g504
tp3048
I00
s(g549
g549
tp3049
I00
s(g504
g588
tp3050
I00
s(g1274
g227
tp3051
I00
s(g227
g465
tp3052
I00
s(g351
g227
tp3053
I00
s(g1277
g504
tp3054
I00
s(g227
g288
tp3055
I00
s(g226
g288
tp3056
I00
s(g504
g1277
tp3057
I00
s(g288
g1274
tp3058
I00
s(g504
g465
tp3059
I00
s(g351
g588
tp3060
I00
s(g351
g1274
tp3061
I00
s(g227
g226
tp3062
I00
s(g1277
g288
tp3063
I00
s(g1277
g351
tp3064
I00
s(g504
g227
tp3065
I00
s(g465
g504
tp3066
I00
s(g402
g504
tp3067
I00
s(g227
g549
tp3068
I00
s(g1274
g1274
tp3069
I00
s(g465
g226
tp3070
I00
s(g402
g549
tp3071
I00
s(g1274
g402
tp3072
I00
s(g588
g351
tp3073
I00
s(g1274
g504
tp3074
I00
s(g402
g1277
tp3075
I00
s(g465
g588
tp3076
I00
s(g226
g227
tp3077
I00
s(g402
g351
tp3078
I00
s(g351
g402
tp3079
I00
s(g588
g402
tp3080
I00
s(g1277
g465
tp3081
I00
s(g588
g504
tp3082
I00
s(g549
g465
tp3083
I00
s(g465
g1274
tp3084
I00
s(g504
g504
tp3085
I00
s(g288
g465
tp3086
I00
s(g402
g288
tp3087
I00
s(g588
g465
tp3088
I00
s(g588
g588
tp3089
I00
s(g288
g504
tp3090
I00
s(g465
g227
tp3091
I00
s(g549
g402
tp3092
I00
s(g226
g1274
tp3093
I00
s(g227
g588
tp3094
I00
s(g504
g402
tp3095
I00
s(g351
g226
tp3096
I00
s(g227
g1274
tp3097
I00
s(g465
g549
tp3098
I00
s(g1277
g226
tp3099
I00
s(g465
g1277
tp3100
I00
s(g549
g226
tp3101
I00
s(g227
g227
tp3102
I00
s(g504
g288
tp3103
I00
s(g351
g1277
tp3104
I00
s(g288
g1277
tp3105
I00
s(g227
g1277
tp3106
I00
s(g227
g351
tp3107
I00
s(g549
g288
tp3108
I00
s(g288
g549
tp3109
I00
s(g226
g351
tp3110
I00
s(g1274
g1277
tp3111
I00
s(g402
g226
tp3112
I00
s(g351
g465
tp3113
I01
s(g288
g288
tp3114
I00
s(g402
g1274
tp3115
I00
s(g1277
g402
tp3116
I00
ssg1268
NsbsS'robot_pose'
p3117
g21
(g22
(I0
tp3118
g24
tp3119
Rp3120
(I1
(I1
I3
tp3121
g236
I00
S'\xd2=`\xfece\x07@\xa3;\xab6h\x99\x18\xc0^\xc0\xe2\x95[\x82\xfc?'
p3122
tp3123
bsS'is_holding_goal_entity'
p3124
(itrajectory_representation.predicates.is_holding_goal_entity
IsHoldingGoalEntity
p3125
(dp3126
g2722
g2723
sg1209
NsbsS'mc_pick_path'
p3127
(dp3128
sS'current_collides'
p3129
g679
sba(itrajectory_representation.shortest_path_pick_and_place_state
ShortestPathPaPState
p3130
(dp3131
g107
(dp3132
g110
(itrajectory_representation.operator
Operator
p3133
(dp3134
g8
I01
sg9
(dp3135
g114
g76
sg11
g109
ssg16
g115
sg18
(dp3136
g20
g21
(g22
(I0
tp3137
g24
tp3138
Rp3139
(I1
(I3
tp3140
g31
I00
S'x>\xed\x01\x9d\x1d\xc5\xbf,3V:\xee\xff\xfe\xbf\xe6\xda;z\x9cS\xfd\xbf'
p3141
tp3142
bssg46
(lp3143
g21
(g22
(I0
tp3144
g24
tp3145
Rp3146
(I1
(I3
tp3147
g31
I00
S'\x08l\x14\x0b\xb6\x9b\x08@*9\xe3\xf1\xdb\xbe\x1c\xc0\x1b\x82D\xa9D\xd9\xf2\xbf'
p3148
tp3149
bag21
(g22
(I0
tp3150
g24
tp3151
Rp3152
(I1
(I3
tp3153
g60
I00
S'/\x08\xfbO\x0f\xe3\x04@j\xb9\xdeR\x8bv\x1a\xc0Nw\xbd\xbe\xd2\x01\xfd\xbf'
p3154
tp3155
bag21
(g22
(I0
tp3156
g24
tp3157
Rp3158
(I1
(I3
tp3159
g60
I00
S'2]\x933g}\x00@\xebx\x00&R!\x1b\xc0\xce\x170ZD}\x00\xc0'
p3160
tp3161
bag21
(g22
(I0
tp3162
g24
tp3163
Rp3164
(I1
(I3
tp3165
g60
I00
S'4#\xe8i\x80D\xf8?\xdd\x1dlTl\\\x19\xc0m\xc1\x1a\xec\xde\x01\x01\xc0'
p3166
tp3167
bag21
(g22
(I0
tp3168
g24
tp3169
Rp3170
(I1
(I3
tp3171
g60
I00
S'\x9f5<Q\xb2\xb3\xf7?\xb3\xd6LI,\xe8\x16\xc0\xc2\x13\xbbtu\x87\x00\xc0'
p3172
tp3173
bag21
(g22
(I0
tp3174
g24
tp3175
Rp3176
(I1
(I3
tp3177
g60
I00
S'\xd0\xcb\x13\x8f\xaa\x9d\xed?\x90\x01<]3\x06\x16\xc0F\xf1\xe7x32\x02\xc0'
p3178
tp3179
bag21
(g22
(I0
tp3180
g24
tp3181
Rp3182
(I1
(I3
tp3183
g60
I00
S'l[\xc4\x16<\xe6\xe9?\xa6\xa0\x90\x84X\x9f\x13\xc0\xc2\xd74Q\x00\xaf\xff\xbf'
p3184
tp3185
bag21
(g22
(I0
tp3186
g24
tp3187
Rp3188
(I1
(I3
tp3189
g60
I00
S"\xaeJ\xbd\x1936\xec?\x04\x13\xd4'\x9f\x88\x10\xc0\x805qo\xb6\xe6\xff\xbf"
p3190
tp3191
bag21
(g22
(I0
tp3192
g24
tp3193
Rp3194
(I1
(I3
tp3195
g60
I00
S'\xf09\xb6\x1c*\x86\xee?\xc4\n/\x96\xcb\xe3\n\xc0\xa0\xc9\xd6F6\x0f\x00\xc0'
p3196
tp3197
bag21
(g22
(I0
tp3198
g24
tp3199
Rp3200
(I1
(I3
tp3201
g60
I00
S'\x99\x94\xd7\x8f\x10k\xf0?\x7f\xef\xb5\xdcX\xb6\x04\xc0~\xf8\xf4U\x11+\x00\xc0'
p3202
tp3203
bag21
(g22
(I0
tp3204
g24
tp3205
Rp3206
(I1
(I3
tp3207
g60
I00
S'\xbfD\x8f#\x1b\xd1\xe1?\x066\xdeJ\xf6\xf0\x01\xc0\\:\x82\xb77H\x15@'
p3208
tp3209
bag3139
ag3139
asbssg221
(itrajectory_representation.predicates.place_in_way
PlaceInWay
p3210
(dp3211
g224
(dp3212
(g465
g227
tp3213
(lp3214
g21
(g22
(I0
tp3215
g24
tp3216
Rp3217
(I1
(I3
tp3218
g236
I00
S'\x00>\xd6\xd5f5\xbe\xbf\xbd\xbf\xc8i\xa50\x16\xc0)=\x89\xa3\x19\xc7\x13@'
p3219
tp3220
bag21
(g22
(I0
tp3221
g24
tp3222
Rp3223
(I1
(I3
tp3224
g247
I00
S'\xbc\xcaD\xb3\xa5\xd0\xda?5\x9e\xd8L\xbc\xff\x15\xc0\x86v/\xef\x06;\xe9\xbf'
p3225
tp3226
bag21
(g22
(I0
tp3227
g24
tp3228
Rp3229
(I1
(I3
tp3230
g247
I00
S"\xb2&6mg)\xe8?\x99\xe0G'\x16\xe0\x13\xc0\xc8oL\xf5\x17p\xe6\xbf"
p3231
tp3232
bag21
(g22
(I0
tp3233
g24
tp3234
Rp3235
(I1
(I3
tp3236
g247
I00
S'`\xc8Aw-\x81\xeb?/\xc3\xe6O\x04\xca\x10\xc0\x8a\xb7K)\x91{\xe4\xbf'
p3237
tp3238
bag21
(g22
(I0
tp3239
g24
tp3240
Rp3241
(I1
(I3
tp3242
g247
I00
S'\xe1\xc6\xc7\xa7\x12X\xe7?\x98\x99\xb0\x9a\xfb\xdb\x0b\xc0R\t\x1b)\xeae\xe0\xbf'
p3243
tp3244
bag21
(g22
(I0
tp3245
g24
tp3246
Rp3247
(I1
(I3
tp3248
g247
I00
S'p\xf1\xbdc^\x84\xf1?"\x88LL\xf9D\x06\xc0~w\r\xe9m\x0f\x19@'
p3249
tp3250
bas(g549
g227
tp3251
(lp3252
g21
(g22
(I0
tp3253
g24
tp3254
Rp3255
(I1
(I3
tp3256
g236
I00
S"\xa0'\xf5\x17\xe4~\xc3?\xdad\xebI);\x18\xc0\x85\xc3\xff\x9f-N\xf9?"
p3257
tp3258
bag21
(g22
(I0
tp3259
g24
tp3260
Rp3261
(I1
(I3
tp3262
g247
I00
S'\xd8\x87\x03p)T\xe4?\xd5\xabI\xb7V\xd0\x15\xc0vWg\x9a\x87\x8a\xec?'
p3263
tp3264
bag21
(g22
(I0
tp3265
g24
tp3266
Rp3267
(I1
(I3
tp3268
g247
I00
S'\xa9\xd9\x1d\x8d\xa6j\xdf?\xa0\x85\x1a\x84\xc6\xec\x12\xc0\x01\xb6 H\xb1\x91\xeb?'
p3269
tp3270
bag21
(g22
(I0
tp3271
g24
tp3272
Rp3273
(I1
(I3
tp3274
g247
I00
S'\x93k\xbc\xee\xc2\x10\xe8?\xab^\x86?\x08D\x10\xc0\x10;2\x00\xe5\t\xde?'
p3275
tp3276
bag21
(g22
(I0
tp3277
g24
tp3278
Rp3279
(I1
(I3
tp3280
g247
I00
S'\xef\xc3u*\xfb\xdb\xeb?\x8d\xa5\n\xfd\x03<\n\xc0\xd8\xfb\xde\x16R\xac\xde?'
p3281
tp3282
bag21
(g22
(I0
tp3283
g24
tp3284
Rp3285
(I1
(I3
tp3286
g247
I00
S'\xf4\xfdJ\x1a(#\xec?H"\x9cD\x1aE\x05\xc0.\xa9\x0b\x87\xf8\xe1\x02@'
p3287
tp3288
bassg639
(dp3289
(g465
g227
tp3290
(lp3291
Vsquare_packing_box3
p3292
as(g549
g227
tp3293
(lp3294
Vsquare_packing_box2
p3295
assg672
(lp3296
Vrectangular_packing_box4
p3297
aVrectangular_packing_box2
p3298
aVrectangular_packing_box3
p3299
aVrectangular_packing_box1
p3300
aVsquare_packing_box2
p3301
aVsquare_packing_box3
p3302
ag74
aVsquare_packing_box4
p3303
asg678
(dp3304
Vrectangular_packing_box4
p3305
g681
((lp3306
I545
aI457
aI453
aI614
aI425
aI247
aI367
aI368
aI369
aI307
aI246
aI343
aI473
aI377
aI442
aI474
atp3307
Rp3308
sVrectangular_packing_box2
p3309
g688
sVrectangular_packing_box3
p3310
g692
sVrectangular_packing_box1
p3311
g696
sVsquare_packing_box2
p3312
g700
sVsquare_packing_box3
p3313
g704
sVsquare_packing_box1
p3314
g708
sVsquare_packing_box4
p3315
g712
ssg107
g3132
sg713
(dp3316
g3297
(itrajectory_representation.operator
Operator
p3317
(dp3318
g8
I01
sg9
(dp3319
g748
Vrectangular_packing_box4
p3320
ssg16
g750
sg18
(dp3321
g752
(lp3322
g21
(g22
(I0
tp3323
g24
tp3324
Rp3325
(I1
(I3
tp3326
g236
I00
S'\xec\x06\xa2OW\xf0\t@B\x96\x98F\x00i\x19\xc0g\xe3C\xc6T\xa3\xc0?'
p3327
tp3328
bag21
(g22
(I0
tp3329
g24
tp3330
Rp3331
(I1
(I3
tp3332
g236
I00
S'\xd4\xec\x83\xba\xdb\x18\x0e@\xa82D\t\xbfD\x1d\xc0fW\x9fA\xdc\x1d\xf1?'
p3333
tp3334
bag21
(g22
(I0
tp3335
g24
tp3336
Rp3337
(I1
(I3
tp3338
g236
I00
S'\xe8\x9fY\xc3&n\n@p\x9d |\xbb\xb2\x18\xc0\xfad\x8eH!:\xdd\xbf'
p3339
tp3340
basg772
I00
ssg46
(lp3341
g21
(g22
(I0
tp3342
g24
tp3343
Rp3344
(I1
(I3
tp3345
g236
I00
S'@>\xed\x01\x9d\x1d\xc5\xbf*3V:\xee\xff\xfe\xbf[6\xb55\x14\xcd\x11@'
p3346
tp3347
bag21
(g22
(I0
tp3348
g24
tp3349
Rp3350
(I1
(I3
tp3351
g247
I00
S'\xa9\x926\xa9\xf3h\xdd?jHQlcB\x03\xc0\xfas\xdf\xb2\xb3\xde\x08\xc0'
p3352
tp3353
bag21
(g22
(I0
tp3354
g24
tp3355
Rp3356
(I1
(I3
tp3357
g247
I00
S'\xe9\xca\xa9P\xc7p\xea?\x95\x90<\xe4\xba+\x08\xc0)\x87n\x0cR\xb7\x04\xc0'
p3358
tp3359
bag21
(g22
(I0
tp3360
g24
tp3361
Rp3362
(I1
(I3
tp3363
g247
I00
S'\xf09\xb6\x1c*\x86\xee?\xc4\n/\x96\xcb\xe3\n\xc0\xa0\xc9\xd6F6\x0f\x00\xc0'
p3364
tp3365
bag21
(g22
(I0
tp3366
g24
tp3367
Rp3368
(I1
(I3
tp3369
g247
I00
S"\xaeJ\xbd\x1936\xec?\x04\x13\xd4'\x9f\x88\x10\xc0\x805qo\xb6\xe6\xff\xbf"
p3370
tp3371
bag21
(g22
(I0
tp3372
g24
tp3373
Rp3374
(I1
(I3
tp3375
g247
I00
S'l[\xc4\x16<\xe6\xe9?\xa6\xa0\x90\x84X\x9f\x13\xc0\xc2\xd74Q\x00\xaf\xff\xbf'
p3376
tp3377
bag21
(g22
(I0
tp3378
g24
tp3379
Rp3380
(I1
(I3
tp3381
g247
I00
S'\xd0\xcb\x13\x8f\xaa\x9d\xed?\x90\x01<]3\x06\x16\xc0F\xf1\xe7x32\x02\xc0'
p3382
tp3383
bag21
(g22
(I0
tp3384
g24
tp3385
Rp3386
(I1
(I3
tp3387
g247
I00
S'\x9f5<Q\xb2\xb3\xf7?\xb3\xd6LI,\xe8\x16\xc0\xc2\x13\xbbtu\x87\x00\xc0'
p3388
tp3389
bag21
(g22
(I0
tp3390
g24
tp3391
Rp3392
(I1
(I3
tp3393
g247
I00
S'4#\xe8i\x80D\xf8?\xdd\x1dlTl\\\x19\xc0m\xc1\x1a\xec\xde\x01\x01\xc0'
p3394
tp3395
bag21
(g22
(I0
tp3396
g24
tp3397
Rp3398
(I1
(I3
tp3399
g247
I00
S'2]\x933g}\x00@\xebx\x00&R!\x1b\xc0\xce\x170ZD}\x00\xc0'
p3400
tp3401
bag21
(g22
(I0
tp3402
g24
tp3403
Rp3404
(I1
(I3
tp3405
g247
I00
S'\xc3#\x9b"m=\x05@O\x1c\xaf\xffo\x1c\x1b\xc0\xa4\xc19\xdd\xaa\xea\xdd?'
p3406
tp3407
bag3325
asbsg3298
g745
sg3299
g822
sg3300
g901
sg3301
g969
sg3302
g1031
sg74
(itrajectory_representation.operator
Operator
p3408
(dp3409
g8
I01
sg9
(dp3410
g11
g74
ssg16
g718
sg18
(dp3411
g20
g21
(g22
(I0
tp3412
g24
tp3413
Rp3414
(I1
(I3
tp3415
g31
I00
S'\x04l\x14\x0b\xb6\x9b\x08@%9\xe3\xf1\xdb\xbe\x1c\xc0\x14\x82D\xa9D\xd9\xf2\xbf'
p3416
tp3417
bssg46
(lp3418
g21
(g22
(I0
tp3419
g24
tp3420
Rp3421
(I1
(I3
tp3422
g236
I00
S'x\xa6\x88\xd3\xc13\n@\x86\xad=\xf6\xb7\x80\x1a\xc0\x8dd$\xdb\xfd\xd8\x18@'
p3423
tp3424
bag3414
asbsg3303
g1121
ssg1200
(dp3425
sg1202
Nsg1203
(lp3426
sg1205
(dp3427
sg1207
I0
sg1208
g3316
sg1209
Nsg1210
(dp3428
(g549
g351
g227
tp3429
I00
s(g465
g351
g227
tp3430
I00
ssg1268
Nsg1269
I01
sbsg1270
(dp3431
(g588
g588
g227
tp3432
g1273
s(g402
g1274
g1274
tp3433
g1276
s(g1277
g504
g227
tp3434
g1279
s(g465
g288
g1274
tp3435
g1281
s(g227
g227
g227
tp3436
g1283
s(g288
g588
g1274
tp3437
g1285
s(g402
g226
g227
tp3438
g1287
s(g227
g351
g227
tp3439
(lp3440
I00
as(g465
g402
g227
tp3441
g1291
s(g226
g351
g1274
tp3442
(lp3443
I00
as(g227
g288
g1274
tp3444
g1295
s(g465
g1277
g227
tp3445
g1297
s(g1274
g227
g1274
tp3446
g1299
s(g351
g549
g227
tp3447
(lp3448
I00
as(g288
g1277
g227
tp3449
g1303
s(g465
g504
g1274
tp3450
g1305
s(g549
g1274
g227
tp3451
g1307
s(g1277
g588
g1274
tp3452
g1309
s(g227
g1277
g227
tp3453
g1311
s(g588
g1274
g227
tp3454
g1313
s(g549
g1277
g227
tp3455
g1315
s(g402
g402
g1274
tp3456
g1317
s(g1274
g288
g1274
tp3457
g1319
s(g1277
g1274
g227
tp3458
g1321
s(g1277
g465
g227
tp3459
g1323
s(g1274
g1274
g227
tp3460
g1325
s(g549
g351
g1274
tp3461
(lp3462
I00
as(g227
g227
g1274
tp3463
g1329
s(g504
g465
g1274
tp3464
g1331
s(g588
g288
g227
tp3465
g1333
s(g549
g402
g227
tp3466
g1335
s(g504
g227
g1274
tp3467
g1337
s(g227
g588
g1274
tp3468
g1339
s(g504
g226
g1274
tp3469
g1341
s(g226
g504
g227
tp3470
g1343
s(g1274
g402
g1274
tp3471
g1345
s(g288
g465
g1274
tp3472
g1347
s(g588
g588
g1274
tp3473
g1349
s(g1277
g288
g227
tp3474
g1351
s(g1274
g227
g227
tp3475
g1353
s(g351
g588
g227
tp3476
(lp3477
I00
as(g227
g226
g227
tp3478
g1357
s(g465
g504
g227
tp3479
g1359
s(g226
g288
g227
tp3480
g1361
s(g402
g226
g1274
tp3481
g1363
s(g549
g465
g227
tp3482
g1365
s(g465
g402
g1274
tp3483
g1367
s(g465
g588
g1274
tp3484
g1369
s(g1277
g465
g1274
tp3485
g1371
s(g1274
g226
g1274
tp3486
g1373
s(g1277
g227
g227
tp3487
g1375
s(g351
g227
g227
tp3488
(lp3489
I00
as(g1274
g1277
g227
tp3490
g1379
s(g588
g288
g1274
tp3491
g1381
s(g549
g588
g1274
tp3492
g1383
s(g549
g549
g227
tp3493
g1385
s(g504
g226
g227
tp3494
g1387
s(g1277
g588
g227
tp3495
g1389
s(g504
g1274
g1274
tp3496
g1391
s(g288
g402
g227
tp3497
g1393
s(g402
g402
g227
tp3498
g1395
s(g402
g351
g227
tp3499
(lp3500
I00
as(g351
g588
g1274
tp3501
(lp3502
I00
as(g288
g504
g1274
tp3503
g1401
s(g549
g351
g227
tp3504
(lp3505
I00
as(g504
g465
g227
tp3506
g1405
s(g588
g504
g1274
tp3507
g1407
s(g504
g227
g227
tp3508
g1409
s(g465
g588
g227
tp3509
g1411
s(g588
g549
g227
tp3510
g1413
s(g226
g504
g1274
tp3511
g1415
s(g227
g465
g1274
tp3512
g1417
s(g1277
g227
g1274
tp3513
g1419
s(g1277
g288
g1274
tp3514
g1421
s(g549
g588
g227
tp3515
g1423
s(g226
g549
g1274
tp3516
g1425
s(g588
g1277
g1274
tp3517
g1427
s(g504
g1274
g227
tp3518
g1429
s(g549
g465
g1274
tp3519
g1431
s(g549
g504
g1274
tp3520
g1433
s(g288
g402
g1274
tp3521
g1435
s(g227
g226
g1274
tp3522
g1437
s(g1277
g549
g1274
tp3523
g1439
s(g1274
g226
g227
tp3524
g1441
s(g1274
g465
g1274
tp3525
g1443
s(g588
g504
g227
tp3526
g1445
s(g288
g504
g227
tp3527
g1447
s(g1274
g549
g227
tp3528
g1449
s(g588
g549
g1274
tp3529
g1451
s(g588
g351
g1274
tp3530
(lp3531
I00
as(g226
g288
g1274
tp3532
g1455
s(g402
g351
g1274
tp3533
(lp3534
I00
as(g504
g549
g1274
tp3535
g1459
s(g227
g402
g1274
tp3536
g1461
s(g226
g1274
g1274
tp3537
g1463
s(g351
g227
g1274
tp3538
(lp3539
I00
as(g402
g504
g227
tp3540
g1467
s(g588
g1277
g227
tp3541
g1469
s(g351
g465
g1274
tp3542
(lp3543
I00
as(g226
g588
g1274
tp3544
g1473
s(g549
g504
g227
tp3545
g1475
s(g288
g1274
g1274
tp3546
g1477
s(g465
g227
g227
tp3547
g1479
s(g288
g351
g227
tp3548
(lp3549
I00
as(g227
g549
g1274
tp3550
g1483
s(g1274
g504
g1274
tp3551
g1485
s(g1274
g549
g1274
tp3552
g1487
s(g402
g549
g227
tp3553
g1489
s(g504
g549
g227
tp3554
g1491
s(g402
g504
g1274
tp3555
g1493
s(g226
g588
g227
tp3556
g1495
s(g588
g465
g227
tp3557
g1497
s(g226
g227
g1274
tp3558
g1499
s(g288
g1274
g227
tp3559
g1501
s(g1274
g351
g1274
tp3560
(lp3561
I00
as(g588
g351
g227
tp3562
(lp3563
I00
as(g226
g226
g227
tp3564
g1507
s(g351
g351
g227
tp3565
(lp3566
I00
as(g351
g226
g1274
tp3567
(lp3568
I00
as(g226
g1274
g227
tp3569
g1513
s(g549
g288
g227
tp3570
g1515
s(g351
g465
g227
tp3571
(lp3572
I00
as(g465
g1274
g1274
tp3573
g1519
s(g226
g1277
g1274
tp3574
g1521
s(g465
g227
g1274
tp3575
g1523
s(g402
g465
g1274
tp3576
g1525
s(g288
g351
g1274
tp3577
(lp3578
I00
as(g549
g227
g1274
tp3579
g1529
s(g226
g227
g227
tp3580
g1531
s(g1274
g351
g227
tp3581
(lp3582
I00
as(g504
g504
g227
tp3583
g1535
s(g1274
g288
g227
tp3584
g1537
s(g288
g549
g227
tp3585
g1539
s(g402
g588
g227
tp3586
g1541
s(g402
g549
g1274
tp3587
g1543
s(g351
g402
g1274
tp3588
(lp3589
I00
as(g227
g465
g227
tp3590
g1547
s(g1277
g226
g1274
tp3591
g1549
s(g226
g402
g227
tp3592
g1551
s(g504
g1277
g227
tp3593
g1553
s(g549
g288
g1274
tp3594
g1555
s(g549
g226
g1274
tp3595
g1557
s(g351
g504
g227
tp3596
(lp3597
I00
as(g588
g465
g1274
tp3598
g1561
s(g351
g1274
g227
tp3599
(lp3600
I00
as(g226
g1277
g227
tp3601
g1565
s(g288
g226
g1274
tp3602
g1567
s(g588
g402
g227
tp3603
g1569
s(g549
g402
g1274
tp3604
g1571
s(g288
g288
g1274
tp3605
g1573
s(g351
g351
g1274
tp3606
(lp3607
I00
as(g504
g504
g1274
tp3608
g1577
s(g402
g288
g1274
tp3609
g1579
s(g288
g465
g227
tp3610
g1581
s(g1277
g402
g227
tp3611
g1583
s(g227
g1277
g1274
tp3612
g1585
s(g227
g504
g1274
tp3613
g1587
s(g465
g1274
g227
tp3614
g1589
s(g402
g588
g1274
tp3615
g1591
s(g504
g402
g1274
tp3616
g1593
s(g226
g226
g1274
tp3617
g1595
s(g1277
g226
g227
tp3618
g1597
s(g465
g226
g1274
tp3619
g1599
s(g504
g1277
g1274
tp3620
g1601
s(g402
g465
g227
tp3621
g1603
s(g351
g504
g1274
tp3622
(lp3623
I00
as(g351
g226
g227
tp3624
(lp3625
I00
as(g288
g226
g227
tp3626
g1609
s(g402
g227
g1274
tp3627
g1611
s(g465
g549
g227
tp3628
g1613
s(g549
g549
g1274
tp3629
g1615
s(g351
g1277
g227
tp3630
(lp3631
I00
as(g1274
g1277
g1274
tp3632
g1619
s(g288
g549
g1274
tp3633
g1621
s(g1274
g504
g227
tp3634
g1623
s(g1277
g1277
g1274
tp3635
g1625
s(g351
g402
g227
tp3636
(lp3637
I00
as(g402
g288
g227
tp3638
g1629
s(g1274
g588
g1274
tp3639
g1631
s(g226
g402
g1274
tp3640
g1633
s(g549
g227
g227
tp3641
g1635
s(g1277
g402
g1274
tp3642
g1637
s(g549
g226
g227
tp3643
g1639
s(g226
g465
g227
tp3644
g1641
s(g351
g1274
g1274
tp3645
(lp3646
I00
as(g588
g402
g1274
tp3647
g1645
s(g504
g588
g227
tp3648
g1647
s(g1277
g1274
g1274
tp3649
g1649
s(g1274
g588
g227
tp3650
g1651
s(g402
g1277
g227
tp3651
g1653
s(g465
g549
g1274
tp3652
g1655
s(g465
g351
g1274
tp3653
(lp3654
I00
as(g288
g227
g227
tp3655
g1659
s(g351
g1277
g1274
tp3656
(lp3657
I00
as(g351
g288
g227
tp3658
(lp3659
I00
as(g1277
g351
g1274
tp3660
(lp3661
I00
as(g227
g504
g227
tp3662
g1667
s(g227
g549
g227
tp3663
g1669
s(g504
g402
g227
tp3664
g1671
s(g504
g351
g227
tp3665
(lp3666
I00
as(g1277
g549
g227
tp3667
g1675
s(g465
g226
g227
tp3668
g1677
s(g465
g465
g1274
tp3669
g1679
s(g504
g288
g1274
tp3670
g1681
s(g288
g227
g1274
tp3671
g1683
s(g588
g227
g227
tp3672
g1685
s(g402
g227
g227
tp3673
g1687
s(g504
g588
g1274
tp3674
g1689
s(g288
g588
g227
tp3675
g1691
s(g227
g1274
g227
tp3676
g1693
s(g1277
g1277
g227
tp3677
g1695
s(g588
g226
g1274
tp3678
g1697
s(g402
g1277
g1274
tp3679
g1699
s(g1274
g465
g227
tp3680
g1701
s(g226
g351
g227
tp3681
(lp3682
I00
as(g1277
g351
g227
tp3683
(lp3684
I00
as(g402
g1274
g227
tp3685
g1707
s(g226
g465
g1274
tp3686
g1709
s(g227
g402
g227
tp3687
g1711
s(g1277
g504
g1274
tp3688
g1713
s(g288
g1277
g1274
tp3689
g1715
s(g465
g465
g227
tp3690
g1717
s(g504
g288
g227
tp3691
g1719
s(g549
g1277
g1274
tp3692
g1721
s(g465
g351
g227
tp3693
(lp3694
I00
as(g227
g288
g227
tp3695
g1725
s(g226
g549
g227
tp3696
g1727
s(g351
g288
g1274
tp3697
(lp3698
I00
as(g288
g288
g227
tp3699
g1731
s(g504
g351
g1274
tp3700
(lp3701
I00
as(g465
g288
g227
tp3702
g1735
s(g549
g1274
g1274
tp3703
g1737
s(g227
g588
g227
tp3704
g1739
s(g588
g1274
g1274
tp3705
g1741
s(g227
g351
g1274
tp3706
(lp3707
I00
as(g588
g227
g1274
tp3708
g1745
s(g1274
g1274
g1274
tp3709
g1747
s(g465
g1277
g1274
tp3710
g1749
s(g351
g549
g1274
tp3711
(lp3712
I00
as(g227
g1274
g1274
tp3713
g1753
s(g588
g226
g227
tp3714
g1755
s(g1274
g402
g227
tp3715
g1757
ssg713
g3316
sg1758
I01
sg1759
(lp3716
S'square_packing_box1'
p3717
aS'rectangular_packing_box1'
p3718
aS'square_packing_box2'
p3719
aS'rectangular_packing_box2'
p3720
aS'square_packing_box3'
p3721
aS'rectangular_packing_box3'
p3722
aS'square_packing_box4'
p3723
aS'rectangular_packing_box4'
p3724
asg1209
Nsg1769
Nsg1770
(dp3725
Vrectangular_packing_box4
p3726
g21
(g22
(I0
tp3727
g24
tp3728
Rp3729
(I1
(I1
I3
tp3730
g236
I00
S'>\x7f\xbf\x8a\xe1l\x0f@\x89\xc6\xf4e\xb5\xeb\x19\xc0\x9aeRzW\xe7\xf5?'
p3731
tp3732
bsVrectangular_packing_box2
p3733
g21
(g22
(I0
tp3734
g24
tp3735
Rp3736
(I1
(I1
I3
tp3737
g236
I00
S'l\xc6\xb8\x06\xbd\x9e\x01@|\x07\x0b=\x03#\x1f\xc0\xb1m\xa9\xe4\xd7\xb6\x0e@'
p3738
tp3739
bsVrectangular_packing_box3
p3740
g21
(g22
(I0
tp3741
g24
tp3742
Rp3743
(I1
(I1
I3
tp3744
g236
I00
S'\xafE\'3;\x11\x04@f"\xc3\x1d\x06\xc2\x15\xc0\x87\xb8m\x1d\xc7\xc2\x10@'
p3745
tp3746
bsVrectangular_packing_box1
p3747
g21
(g22
(I0
tp3748
g24
tp3749
Rp3750
(I1
(I1
I3
tp3751
g236
I00
S'\xe8B\x82\xfb\x8f:\xd8?\x84S\xf8\x00+%\x1b\xc0\xc2\x00\x8f0,\xfe\x16@'
p3752
tp3753
bsVsquare_packing_box2
p3754
g21
(g22
(I0
tp3755
g24
tp3756
Rp3757
(I1
(I1
I3
tp3758
g236
I00
S'\x00\xc4K\x80\x91\x1bh\xbf\xb8?Og\x01\xbc\x18\xc0P\xc7J\xf9\x17\xcd\xe0?'
p3759
tp3760
bsVsquare_packing_box3
p3761
g21
(g22
(I0
tp3762
g24
tp3763
Rp3764
(I1
(I1
I3
tp3765
g236
I00
S'`d\x0e]\xec\x91\x9e?\xf0\xd7\x90H+H\x15\xc0M\x9c\x0c\x99\xbfq\x11@'
p3766
tp3767
bsVsquare_packing_box1
p3768
g21
(g22
(I0
tp3769
g24
tp3770
Rp3771
(I1
(I1
I3
tp3772
g236
I00
S'\xa4\x10\xec\xb0\xb75\n@\x16\x83\x17\xc4\xf6%\x1f\xc0\xfa\xc1qg\x1ao\x15@'
p3773
tp3774
bsVsquare_packing_box4
p3775
g21
(g22
(I0
tp3776
g24
tp3777
Rp3778
(I1
(I1
I3
tp3779
g236
I00
S'\x90\xb5\xd6\xe72\xb5\r@A?N\xe4D\x19\x17\xc089\xcc|\xdby\x16@'
p3780
tp3781
bssg1828
(lp3782
(g3297
g1274
tp3783
a(g3298
g1274
tp3784
a(g3299
g1274
tp3785
a(g3300
g1274
tp3786
a(g3301
g1274
tp3787
a(g3302
g1274
tp3788
a(g74
g1274
tp3789
a(g3303
g1274
tp3790
a(g3297
g227
tp3791
a(g3298
g227
tp3792
a(g3299
g227
tp3793
a(g3300
g227
tp3794
a(g74
g227
tp3795
a(g3303
g227
tp3796
asg1838
(itrajectory_representation.predicates.in_region
InRegion
p3797
(dp3798
g1209
Nsbsg1841
(dp3799
g3297
(lp3800
g21
(g22
(I0
tp3801
g24
tp3802
Rp3803
(I1
(I3
tp3804
g236
I00
S'x\xa6\x88\xd3\xc13\n@\x86\xad=\xf6\xb7\x80\x1a\xc0\x8dd$\xdb\xfd\xd8\x18@'
p3805
tp3806
bag3325
asg3298
(lp3807
g21
(g22
(I0
tp3808
g24
tp3809
Rp3810
(I1
(I3
tp3811
g236
I00
S'x\xa6\x88\xd3\xc13\n@\x86\xad=\xf6\xb7\x80\x1a\xc0\x8dd$\xdb\xfd\xd8\x18@'
p3812
tp3813
bag21
(g22
(I0
tp3814
g24
tp3815
Rp3816
(I1
(I3
tp3817
g247
I00
S'P\x9d\xdf\x99\xa6e\x04@\x1c`\xb6c\x8e7\x19\xc0@\xf2\xef\xc5\xd3\xc8\x17@'
p3818
tp3819
bag21
(g22
(I0
tp3820
g24
tp3821
Rp3822
(I1
(I3
tp3823
g247
I00
S'2]\x933g}\x00@\xebx\x00&R!\x1b\xc0\xce\x170ZD}\x00\xc0'
p3824
tp3825
bag756
asg3299
(lp3826
g21
(g22
(I0
tp3827
g24
tp3828
Rp3829
(I1
(I3
tp3830
g236
I00
S'x\xa6\x88\xd3\xc13\n@\x86\xad=\xf6\xb7\x80\x1a\xc0\x8dd$\xdb\xfd\xd8\x18@'
p3831
tp3832
bag21
(g22
(I0
tp3833
g24
tp3834
Rp3835
(I1
(I3
tp3836
g247
I00
S'py\xe7\x92\x10\x1c\x08@_z\xb4M\xdc\xbc\x1b\xc0\xe2\x81s\x12\x81\x12\x08\xc0'
p3837
tp3838
bag21
(g22
(I0
tp3839
g24
tp3840
Rp3841
(I1
(I3
tp3842
g247
I00
S'\xd8\xd6B\xff\x18\xb2\x05@\xf2%;\x9a\xab\xd5\x18\xc0\xce\xc8,\xa0\x8a\x9a\x00@'
p3843
tp3844
bag830
asg3300
(lp3845
g21
(g22
(I0
tp3846
g24
tp3847
Rp3848
(I1
(I3
tp3849
g236
I00
S'x\xa6\x88\xd3\xc13\n@\x86\xad=\xf6\xb7\x80\x1a\xc0\x8dd$\xdb\xfd\xd8\x18@'
p3850
tp3851
bag21
(g22
(I0
tp3852
g24
tp3853
Rp3854
(I1
(I3
tp3855
g247
I00
S'/\x08\xfbO\x0f\xe3\x04@j\xb9\xdeR\x8bv\x1a\xc0Nw\xbd\xbe\xd2\x01\xfd\xbf'
p3856
tp3857
bag21
(g22
(I0
tp3858
g24
tp3859
Rp3860
(I1
(I3
tp3861
g247
I00
S'2]\x933g}\x00@\xebx\x00&R!\x1b\xc0\xce\x170ZD}\x00\xc0'
p3862
tp3863
bag21
(g22
(I0
tp3864
g24
tp3865
Rp3866
(I1
(I3
tp3867
g247
I00
S'Sx\x1f\xdc\xa9\xe1\xf5?\xb7\xb2\x19\xd8\xf1{\x1c\xc0\x8c\xd5\xa8XX\x00\x08\xc0'
p3868
tp3869
bag915
asg3301
(lp3870
g21
(g22
(I0
tp3871
g24
tp3872
Rp3873
(I1
(I3
tp3874
g236
I00
S'x\xa6\x88\xd3\xc13\n@\x86\xad=\xf6\xb7\x80\x1a\xc0\x8dd$\xdb\xfd\xd8\x18@'
p3875
tp3876
bag21
(g22
(I0
tp3877
g24
tp3878
Rp3879
(I1
(I3
tp3880
g247
I00
S'\xc3#\x9b"m=\x05@O\x1c\xaf\xffo\x1c\x1b\xc0\xa4\xc19\xdd\xaa\xea\xdd?'
p3881
tp3882
bag21
(g22
(I0
tp3883
g24
tp3884
Rp3885
(I1
(I3
tp3886
g247
I00
S'<|\xa2\xc3\xfag\xfe?Q\xd0\th}W\x1b\xc0\x8b\xe36n\xc16\xce\xbf'
p3887
tp3888
bag21
(g22
(I0
tp3889
g24
tp3890
Rp3891
(I1
(I3
tp3892
g247
I00
S'3\x82\x8a\x8fh\xb2\xf8?\xecMw\xff=$\x19\xc0\x10\x03\x08*\x90Q\x89?'
p3893
tp3894
bag21
(g22
(I0
tp3895
g24
tp3896
Rp3897
(I1
(I3
tp3898
g247
I00
S'\x07\xe5\xeeo\xc2@\xf0?\x80*\x19Ng\xcf\x17\xc0\xccm\xca\xd2+4\x0f@'
p3899
tp3900
bag989
asg3302
(lp3901
g21
(g22
(I0
tp3902
g24
tp3903
Rp3904
(I1
(I3
tp3905
g236
I00
S'x\xa6\x88\xd3\xc13\n@\x86\xad=\xf6\xb7\x80\x1a\xc0\x8dd$\xdb\xfd\xd8\x18@'
p3906
tp3907
bag21
(g22
(I0
tp3908
g24
tp3909
Rp3910
(I1
(I3
tp3911
g247
I00
S'\x00O\xfd4U\xed\x06@>#>\xa9c\x95\x18\xc0\xeb\xe4n\xb8\x98\xa5\xc9\xbf'
p3912
tp3913
bag21
(g22
(I0
tp3914
g24
tp3915
Rp3916
(I1
(I3
tp3917
g247
I00
S'\x00\xda\x1c<\xfd\xdc\x00@j"\x91\xe3 \x1a\x18\xc0i~!@)\xb0\xdc\xbf'
p3918
tp3919
bag21
(g22
(I0
tp3920
g24
tp3921
Rp3922
(I1
(I3
tp3923
g247
I00
S'\x84\xa2s4\xa1\xd0\xf6?E=|\xb9\xcam\x17\xc0\xa93^V\xfc\xed\x05@'
p3924
tp3925
bag1045
asg74
g3418
sg3303
(lp3926
g21
(g22
(I0
tp3927
g24
tp3928
Rp3929
(I1
(I3
tp3930
g236
I00
S'x\xa6\x88\xd3\xc13\n@\x86\xad=\xf6\xb7\x80\x1a\xc0\x8dd$\xdb\xfd\xd8\x18@'
p3931
tp3932
bag1135
assg678
(dp3933
(Vsquare_packing_box3
p3934
(g1953
(g236
S'\xb2\x7f\x9e\x06\x0c\x92\x9e?'
p3935
tp3936
Rp3937
g1953
(g236
S'\x96Y\x84b+H\x15\xc0'
p3938
tp3939
Rp3940
g1953
(g236
S't\xb2\xd4z\xbfq\x11@'
p3941
tp3942
Rp3943
tp3944
tp3945
g704
s(Vrectangular_packing_box3
p3946
(g1953
(g236
S'\xdc\xa0\xf6[;\x11\x04@'
p3947
tp3948
Rp3949
g1953
(g236
S'\xf1\x81\x1d\xff\x05\xc2\x15\xc0'
p3950
tp3951
Rp3952
g1953
(g236
S'\xa0\x18Y2\xc7\xc2\x10@'
p3953
tp3954
Rp3955
tp3956
tp3957
g692
s(Vrectangular_packing_box4
p3958
(g1953
(g236
S'\xb0U\x82\xc5\xe1l\x0f@'
p3959
tp3960
Rp3961
g1953
(g236
S'\xf7?\xc0Z\xb5\xeb\x19\xc0'
p3962
tp3963
Rp3964
g1953
(g236
S'\x9e\x0c\x8e\x92W\xe7\xf5?'
p3965
tp3966
Rp3967
tp3968
tp3969
g3308
s(Vsquare_packing_box4
p3970
(g1953
(g236
S'\xe0\xd8\xb3\xe72\xb5\r@'
p3971
tp3972
Rp3973
g1953
(g236
S'\x83\xdao\xedD\x19\x17\xc0'
p3974
tp3975
Rp3976
g1953
(g236
S'\xe3\xc3\xece\xdby\x16@'
p3977
tp3978
Rp3979
tp3980
tp3981
g712
s(Vrectangular_packing_box1
p3982
(g1953
(g236
S'\xf9jGq\x8e:\xd8?'
p3983
tp3984
Rp3985
g1953
(g236
S'\x8b\xc5o\n+%\x1b\xc0'
p3986
tp3987
Rp3988
g1953
(g236
S'\xae\x81\xad\x12,\xfe\x16@'
p3989
tp3990
Rp3991
tp3992
tp3993
g696
s(Vsquare_packing_box2
p3994
(g1953
(g236
S'\xbdn\x11\x18\xeb\x1bh\xbf'
p3995
tp3996
Rp3997
g1953
(g236
S'/PR`\x01\xbc\x18\xc0'
p3998
tp3999
Rp4000
g1953
(g236
S"\xff\x1f'L\x18\xcd\xe0?"
p4001
tp4002
Rp4003
tp4004
tp4005
g700
s(Vsquare_packing_box1
p4006
(g1953
(g236
S'~\xa7\xc9\x8c\xb75\n@'
p4007
tp4008
Rp4009
g1953
(g236
S'\xab \x06\xba\xf6%\x1f\xc0'
p4010
tp4011
Rp4012
g1953
(g236
S'F\x98\xa2\\\x1ao\x15@'
p4013
tp4014
Rp4015
tp4016
tp4017
g708
s(Vrectangular_packing_box2
p4018
(g1953
(g236
S'R*\xe1\t\xbd\x9e\x01@'
p4019
tp4020
Rp4021
g1953
(g236
S'\xab#G:\x03#\x1f\xc0'
p4022
tp4023
Rp4024
g1953
(g236
S'\xb5\xc1\x89\xe8\xd7\xb6\x0e@'
p4025
tp4026
Rp4027
tp4028
tp4029
g688
ssg2049
(igtamp_utils.utils
CustomStateSaver
p4030
(dp4031
g2052
g21
(g22
(I0
tp4032
g24
tp4033
Rp4034
(I1
(I1
I3
tp4035
g236
I00
S'y\xa6\x88\xd3\xc13\n@\x84\xad=\xf6\xb7\x80\x1a\xc0\x8dd$\xdb\xfd\xd8\x18@'
p4036
tp4037
bsg2059
Nsg2060
g2061
sg2062
I1
sg1770
(dp4038
Vright_wall_1
p4039
g21
(g22
(I0
tp4040
g24
tp4041
Rp4042
(I1
(I4
tp4043
g236
I00
S'H\xe1z\x14\xaeG\x12@&\\\x8f\xc2\xf5(\xd4\xbf\xcc\x7fH\xbf}\x1d\xed?\x00\x00\x00\x00\x00\x00\x00\x00'
p4044
tp4045
bsVc_obst5
p4046
g21
(g22
(I0
tp4047
g24
tp4048
Rp4049
(I1
(I4
tp4050
g236
I00
S"\x88\xc4\xf7.\xcd\xeb\x11@(\x0ce\xad\x90\x18\xa9?e\xaa`TR'\xed?\xb8\xb68\xec\xa5]\x12@"
p4051
tp4052
bsVentrance_right
p4053
g21
(g22
(I0
tp4054
g24
tp4055
Rp4056
(I1
(I4
tp4057
g236
I00
S'ffffff\n@H\xe1z\x14\xaeG\t\xc0\x9c\xc4 \xb0rh\xc1?\x00\x00\x00\x00\x00\x00\x00\x00'
p4058
tp4059
bsVcomputer_table
p4060
g21
(g22
(I0
tp4061
g24
tp4062
Rp4063
(I1
(I4
tp4064
g236
I00
S'\x00\x00\x00\x00\x00\x00\x13@\x00\x00\x00\x00\x00\x00\xf8\xbf\x96C\x8bl\xe7\xfb\xe7?\xd2!3\x7f|\xd9\x12@'
p4065
tp4066
bsVchair_6b56
p4067
g21
(g22
(I0
tp4068
g24
tp4069
Rp4070
(I1
(I4
tp4071
g236
I00
S'\x96=\n\xd7\xa3p\xf5?]\xe1z\x14\xaeG\xd1?\x00\x00\x00\x00\x00\x00\x00\x00\xd6$\xfaNBm\n@'
p4072
tp4073
bsVsquare_packing_box3
p4074
g21
(g22
(I0
tp4075
g24
tp4076
Rp4077
(I1
(I4
tp4078
g236
I00
S'\xa8d\x0e]\xec\x91\x9e?\xf1\xd7\x90H+H\x15\xc0B7\x89A`\xe5\xd8?M\x9c\x0c\x99\xbfq\x11@'
p4079
tp4080
bsVsquare_packing_box2
p4081
g21
(g22
(I0
tp4082
g24
tp4083
Rp4084
(I1
(I4
tp4085
g236
I00
S'\x00\xc4K\x80\x91\x1bh\xbf\xb8?Og\x01\xbc\x18\xc0P7\x89A`\xe5\xd8?P\xc7J\xf9\x17\xcd\xe0?'
p4086
tp4087
bsVtable
p4088
g21
(g22
(I0
tp4089
g24
tp4090
Rp4091
(I1
(I4
tp4092
g236
I00
S'\x7f\xf6#EdX\xed?\xac\xffs\x98//\xc0\xbf\x00\x00\x00\x00\x00\x00\x00\x00\x00\x00\x00\x00\x00\x00\x00\x00'
p4093
tp4094
bsVsquare_packing_box1
p4095
g21
(g22
(I0
tp4096
g24
tp4097
Rp4098
(I1
(I4
tp4099
g236
I00
S'\xa4\x10\xec\xb0\xb75\n@\x16\x83\x17\xc4\xf6%\x1f\xc0L7\x89A`\xe5\xd8?\xfa\xc1qg\x1ao\x15@'
p4100
tp4101
bsVback_wall_2
p4102
g21
(g22
(I0
tp4103
g24
tp4104
Rp4105
(I1
(I4
tp4106
g236
I00
S'\xaeG\xe1z\x14.\x13@\x80\x14\xaeG\xe1z\xc4?xX\xa85\xcd\xbb\xf2?\x00\x00\x00\x00\x00\x00\x00\x00'
p4107
tp4108
bsVchair_083c
p4109
g21
(g22
(I0
tp4110
g24
tp4111
Rp4112
(I1
(I4
tp4113
g236
I00
S'\xa4p=\n\xd7\xa3\xe0?333333\xe3\xbf\x00\x00\x00\x00\x00\x00\x00\x00\x00\x00\x00\x00\x00\x00\x00\x00'
p4114
tp4115
bsVback_wall_1
p4116
g21
(g22
(I0
tp4117
g24
tp4118
Rp4119
(I1
(I4
tp4120
g236
I00
S'\xaeG\xe1z\x14.\x13@\x80\x14\xaeG\xe1z\xc4?\xcc\x7fH\xbf}\x1d\xed?\x00\x00\x00\x00\x00\x00\x00\x00'
p4121
tp4122
bsVbottom_wall
p4123
g21
(g22
(I0
tp4124
g24
tp4125
Rp4126
(I1
(I4
tp4127
g236
I00
S'\x00\x00\x00\x00\x00\x00\xfc?\x00\x00\x00\x00\x00\x00\x00\x00\x00\x00\x00\x00\x00\x00\x00\x00\x00\x00\x00\x00\x00\x00\x00\x00'
p4128
tp4129
bsVcup_905a
p4130
g21
(g22
(I0
tp4131
g24
tp4132
Rp4133
(I1
(I4
tp4134
g236
I00
S'\x00\x00\x00\x00\x00\x00\xf0?\x83\xc0\xca\xa1E\xb6\xdb?\x1b/\xdd$\x06\x81\xed?\x00\x00\x00\x00\x00\x00\x00\x00'
p4135
tp4136
bsVplate_496f
p4137
g21
(g22
(I0
tp4138
g24
tp4139
Rp4140
(I1
(I4
tp4141
g236
I00
S"q=\n\xd7\xa3p\xe5?\x9dhW!\xe5'\xdd\xbf\x1b/\xdd$\x06\x81\xed?\x00\x00\x00\x00\x00\x00\x00\x00"
p4142
tp4143
bsVtoaster
p4144
g21
(g22
(I0
tp4145
g24
tp4146
Rp4147
(I1
(I4
tp4148
g236
I00
S')\\\x8f\xc2\xf5(\xf4\xbf\xe0z\x14\xaeG\xe1\xf2\xbf\xb8\x1e\x85\xebQ\xb8\xee?\x89/`\x9b\xf8\x8a\xe4?'
p4149
tp4150
bsVc_obst1
p4151
g21
(g22
(I0
tp4152
g24
tp4153
Rp4154
(I1
(I4
tp4155
g236
I00
S" %T#\xa3\x15\x12@\x98\xe8\x04\xba*n\xdc?e\xaa`TR'\xed?\x13a\x83\x95\x8f\xa4\x0b@"
p4156
tp4157
bsVrectangular_packing_box4
p4158
g21
(g22
(I0
tp4159
g24
tp4160
Rp4161
(I1
(I4
tp4162
g236
I00
S'@\x7f\xbf\x8a\xe1l\x0f@\x87\xc6\xf4e\xb5\xeb\x19\xc0L7\x89A`\xe5\xd8?\x9aeRzW\xe7\xf5?'
p4163
tp4164
bsVmicrowave
p4165
g21
(g22
(I0
tp4166
g24
tp4167
Rp4168
(I1
(I4
tp4169
g236
I00
S'\x9a\x99\x99\x99\x99\x99\xf1\xbf\x00\x00\x00\x00\x00\x00\x00@7\x89A`\xe5\xd0\xee?\x00\x00\x00\x00\x00\x00\x00\x00'
p4170
tp4171
bsVc_obst7
p4172
g21
(g22
(I0
tp4173
g24
tp4174
Rp4175
(I1
(I4
tp4176
g236
I00
S"\x15$[@\xa2i\x12@\xa0\xcd\xe7\xd5\x7fg\xb6\xbfe\xaa`TR'\xed?v\xe5\x96\x14\xac?\x10@"
p4177
tp4178
bsVc_obst6
p4179
g21
(g22
(I0
tp4180
g24
tp4181
Rp4182
(I1
(I4
tp4183
g236
I00
S"`\x90\xc6\x9b\xb4z\x12@D\xd3\xb5\xe0\xb6\xab\xce?e\xaa`TR'\xed?\xacb\x16\x86\xf0S\x18@"
p4184
tp4185
bsVcup_b6af
p4186
g21
(g22
(I0
tp4187
g24
tp4188
Rp4189
(I1
(I4
tp4190
g236
I00
S'R\xb8\x1e\x85\xebQ\xe8?\x9a\x99\x99\x99\x99\x99\xe1?\x1b/\xdd$\x06\x81\xed?\x00\x00\x00\x00\x00\x00\x00\x00'
p4191
tp4192
bsVc_obst4
p4193
g21
(g22
(I0
tp4194
g24
tp4195
Rp4196
(I1
(I4
tp4197
g236
I00
S"|\xfa~f\xafA\x12@(7\xed\x89\x90\x92\xdf?e\xaa`TR'\xed?U\xd5\xb3\xc0\x89\xd7\x03@"
p4198
tp4199
bsVrectangular_packing_box2
p4200
g21
(g22
(I0
tp4201
g24
tp4202
Rp4203
(I1
(I4
tp4204
g236
I00
S'l\xc6\xb8\x06\xbd\x9e\x01@|\x07\x0b=\x03#\x1f\xc087\x89A`\xe5\xd8?\xb1m\xa9\xe4\xd7\xb6\x0e@'
p4205
tp4206
bsVplate_fa76
p4207
g21
(g22
(I0
tp4208
g24
tp4209
Rp4210
(I1
(I4
tp4211
g236
I00
S'=\n\xd7\xa3p=\xf2?\x00\x00\x00\x00\x00\x00\x00\x00\x1b/\xdd$\x06\x81\xed?\x00\x00\x00\x00\x00\x00\x00\x00'
p4212
tp4213
bsVfloorwalls
p4214
g21
(g22
(I0
tp4215
g24
tp4216
Rp4217
(I1
(I4
tp4218
g236
I00
S'\xc7\xcc\xcc\xcc\xcc\xcc\xfc?\x00\x00\x00\x00\x00\x00\x18\xc0H\xe1z\x14\xaeG\xc1?\x16-DT\xfb!\xf9?'
p4219
tp4220
bsVpin_c671
p4221
g21
(g22
(I0
tp4222
g24
tp4223
Rp4224
(I1
(I4
tp4225
g236
I00
S'\xc3\xf5(\\\x8f\xc2\xf1\xbf}?5^\xbaI\x02@\xb8\x1e\x85\xebQ\xb8\xfa?\x00\x00\x00\x00\x00\x00\x00\x00'
p4226
tp4227
bsVc_obst3
p4228
g21
(g22
(I0
tp4229
g24
tp4230
Rp4231
(I1
(I4
tp4232
g236
I00
S"\xca\x19\x90\xc6F\x1b\x12@\xd8\xd5\xcbf\xd4\x02\xbc?e\xaa`TR'\xed?\xd6\xd1\xb7\\\xb4\xe0\x08@"
p4233
tp4234
bsVchair_2e39
p4235
g21
(g22
(I0
tp4236
g24
tp4237
Rp4238
(I1
(I4
tp4239
g236
I00
S'\x98fffff\xee?\x15fffff\xf2\xbf\x00\x00\x00\x00\x00\x00\x00\x00\x07M\xe8QQF\xf3?'
p4240
tp4241
bsVentrance_left
p4242
g21
(g22
(I0
tp4243
g24
tp4244
Rp4245
(I1
(I4
tp4246
g236
I00
S'\x98\x99\x99\x99\x99\x99\xe9\xbfH\xe1z\x14\xaeG\t\xc0\x9c\xc4 \xb0rh\xc1?\x00\x00\x00\x00\x00\x00\x00\x00'
p4247
tp4248
bsVtop_wall_1
p4249
g21
(g22
(I0
tp4250
g24
tp4251
Rp4252
(I1
(I4
tp4253
g236
I00
S'H\xe1z\x14\xaeG\x12@\x80\x14\xaeG\xe1z\xc4?xX\xa85\xcd\xbb\xf2?\x00\x00\x00\x00\x00\x00\x00\x00'
p4254
tp4255
bsVrectangular_packing_box3
p4256
g21
(g22
(I0
tp4257
g24
tp4258
Rp4259
(I1
(I4
tp4260
g236
I00
S'\xafE\'3;\x11\x04@j"\xc3\x1d\x06\xc2\x15\xc0V7\x89A`\xe5\xd8?\x87\xb8m\x1d\xc7\xc2\x10@'
p4261
tp4262
bsVshaker
p4263
g21
(g22
(I0
tp4264
g24
tp4265
Rp4266
(I1
(I4
tp4267
g236
I00
S'\n\xd7\xa3p=\n\x01@\x14\xaeG\xe1z\x14\x02@\\\x8f\xc2\xf5(\\\xef?\x00\x00\x00\x00\x00\x00\x00\x00'
p4268
tp4269
bsVc_obst9
p4270
g21
(g22
(I0
tp4271
g24
tp4272
Rp4273
(I1
(I4
tp4274
g236
I00
S"\xaa\xb5i\xd4\xfd\x93\x12@\x00\x90\\\x8a\xb9_\x8a?e\xaa`TR'\xed?\x15 \x04\xb8\t\xd8\x11@"
p4275
tp4276
bsVplate_835a
p4277
g21
(g22
(I0
tp4278
g24
tp4279
Rp4280
(I1
(I4
tp4281
g236
I00
S'\xf6(\\\x8f\xc2\xf5\xf0?\\\x8f\xc2\xf5(\\\xe7\xbf\x1b/\xdd$\x06\x81\xed?\x00\x00\x00\x00\x00\x00\x00\x00'
p4282
tp4283
bsVcup_58a2
p4284
g21
(g22
(I0
tp4285
g24
tp4286
Rp4287
(I1
(I4
tp4288
g236
I00
S'\x85\xebQ\xb8\x1e\x85\xe3?\xcd\xcc\xcc\xcc\xcc\xcc\xdc?\x1b/\xdd$\x06\x81\xed?\x00\x00\x00\x00\x00\x00\x00\x00'
p4289
tp4290
bsVleft_wall_1
p4291
g21
(g22
(I0
tp4292
g24
tp4293
Rp4294
(I1
(I4
tp4295
g236
I00
S'H\xe1z\x14\xaeG\x12@S\xb8\x1e\x85\xebQ\xe4?\xcc\x7fH\xbf}\x1d\xed?\x00\x00\x00\x00\x00\x00\x00\x00'
p4296
tp4297
bsVc_obst2
p4298
g21
(g22
(I0
tp4299
g24
tp4300
Rp4301
(I1
(I4
tp4302
g236
I00
S'[O\xb1^"#\x12@\xd0\x1edf\x8d\xc7\xcd?e\xaa`TR\'\xed?\xb7[e\x07\xb8s\x15@'
p4303
tp4304
bsVsquare_packing_box4
p4305
g21
(g22
(I0
tp4306
g24
tp4307
Rp4308
(I1
(I4
tp4309
g236
I00
S'\x90\xb5\xd6\xe72\xb5\r@A?N\xe4D\x19\x17\xc0=7\x89A`\xe5\xd8?89\xcc|\xdby\x16@'
p4310
tp4311
bsVrectangular_packing_box1
p4312
g21
(g22
(I0
tp4313
g24
tp4314
Rp4315
(I1
(I4
tp4316
g236
I00
S'\xe8B\x82\xfb\x8f:\xd8?\x84S\xf8\x00+%\x1b\xc0N7\x89A`\xe5\xd8?\xc2\x00\x8f0,\xfe\x16@'
p4317
tp4318
bsVpin_371e
p4319
g21
(g22
(I0
tp4320
g24
tp4321
Rp4322
(I1
(I4
tp4323
g236
I00
S'333333\xf3\xbfffffff\xf6?\xb8\x1e\x85\xebQ\xb8\xee?\x00\x00\x00\x00\x00\x00\x00\x00'
p4324
tp4325
bsVfridge
p4326
g21
(g22
(I0
tp4327
g24
tp4328
Rp4329
(I1
(I4
tp4330
g236
I00
S'\xd7\xa3p=\n\xd7\xeb\xbf\x00\x00\x00\x00\x00\x00\x00\xc0\xcd\xcc\xcc\xcc\xcc\xcc\xf8?\x00\x00\x00\x00\x00\x00\x00\x00'
p4331
tp4332
bsVcup_d441
p4333
g21
(g22
(I0
tp4334
g24
tp4335
Rp4336
(I1
(I4
tp4337
g236
I00
S'\n\xd7\xa3p=\n\xef?\x8f\xc2\xf5(\\\x8f\xe2?\x1b/\xdd$\x06\x81\xed?\x00\x00\x00\x00\x00\x00\x00\x00'
p4338
tp4339
bsVshelf2
p4340
g21
(g22
(I0
tp4341
g24
tp4342
Rp4343
(I1
(I4
tp4344
g236
I00
S'\x00\x00\x00\x00\x00\x00\x0e@\xaeG\xe1z\x14\xae\x07@\x9c\xc4 \xb0rh\xc1?\xd2!3\x7f|\xd9\x12@'
p4345
tp4346
bsVtop_wall_2
p4347
g21
(g22
(I0
tp4348
g24
tp4349
Rp4350
(I1
(I4
tp4351
g236
I00
S'H\xe1z\x14\xaeG\x12@\x80\x14\xaeG\xe1z\xc4?\x16HP\xfc\x18\xf3\xfd?\x00\x00\x00\x00\x00\x00\x00\x00'
p4352
tp4353
bsVc_obst0
p4354
g21
(g22
(I0
tp4355
g24
tp4356
Rp4357
(I1
(I4
tp4358
g236
I00
S"\xe8\xa7\xc0\xfewp\x12@\x80\x1e\n\x96X\xfe\xc8\xbfe\xaa`TR'\xed?\xd0\x8c\x8e\x16=\xce\x15@"
p4359
tp4360
bsVshelf1
p4361
g21
(g22
(I0
tp4362
g24
tp4363
Rp4364
(I1
(I4
tp4365
g236
I00
S'\x00\x00\x00\x00\x00\x00\x13@\xaeG\xe1z\x14\xae\x07@\x9c\xc4 \xb0rh\xc1?\xd2!3\x7f|\xd9\x12@'
p4366
tp4367
bsVsink
p4368
g21
(g22
(I0
tp4369
g24
tp4370
Rp4371
(I1
(I4
tp4372
g236
I00
S'ffffff\xd6?333333\x01@\x9a\x99\x99\x99\x99\x99\xb9\xbf\x00\x00\x00\x00\x00\x00\x00\x00'
p4373
tp4374
bsVpr2
p4375
g21
(g22
(I0
tp4376
g24
tp4377
Rp4378
(I1
(I4
tp4379
g236
I00
S'y\xa6\x88\xd3\xc13\n@\x84\xad=\xf6\xb7\x80\x1a\xc0\x9a_\x94\xa0\xbf\xd0\xc1?\x8dd$\xdb\xfd\xd8\x18@'
p4380
tp4381
bsVchair_12d0
p4382
g21
(g22
(I0
tp4383
g24
tp4384
Rp4385
(I1
(I4
tp4386
g236
I00
S'^\xd2\x18\xad\xa3\xaa\xdb?Pf\x83L2r\xc6?\x00\x00\x00\x00\x00\x00\x00\x00\xf8\x81\r\x14M\xa6\x17@'
p4387
tp4388
bsVright_wall_2
p4389
g21
(g22
(I0
tp4390
g24
tp4391
Rp4392
(I1
(I4
tp4393
g236
I00
S'H\xe1z\x14\xaeG\x12@&\\\x8f\xc2\xf5(\xd4\xbfxX\xa85\xcd\xbb\xf2?\x00\x00\x00\x00\x00\x00\x00\x00'
p4394
tp4395
bsVknife_block
p4396
g21
(g22
(I0
tp4397
g24
tp4398
Rp4399
(I1
(I4
tp4400
g236
I00
S'R\xb8\x1e\x85\xebQ\xe0\xbfffffff\x02@`\xe5\xd0"\xdb\xf9\xee?\x00\x00\x00\x00\x00\x00\x00\x00'
p4401
tp4402
bsVleft_wall_2
p4403
g21
(g22
(I0
tp4404
g24
tp4405
Rp4406
(I1
(I4
tp4407
g236
I00
S'H\xe1z\x14\xaeG\x12@S\xb8\x1e\x85\xebQ\xe4?xX\xa85\xcd\xbb\xf2?\x00\x00\x00\x00\x00\x00\x00\x00'
p4408
tp4409
bsVleft_wall
p4410
g21
(g22
(I0
tp4411
g24
tp4412
Rp4413
(I1
(I4
tp4414
g236
I00
S'\x9a\x99\x99\x99\x99\x99\x07@H\xe1z\x14\xaeG\xff?\x9c\xc4 \xb0rh\xc1?\x00\x00\x00\x00\x00\x00\x00\x00'
p4415
tp4416
bsVkitchen
p4417
g21
(g22
(I0
tp4418
g24
tp4419
Rp4420
(I1
(I4
tp4421
g236
I00
S'\x00\x00\x00\x00\x00\x00\x00\x00\x00\x00\x00\x00\x00\x00\x00\x00\x00\x00\x00\x00\x00\x00\x00\x00\x00\x00\x00\x00\x00\x00\x00\x00'
p4422
tp4423
bsVtable2
p4424
g21
(g22
(I0
tp4425
g24
tp4426
Rp4427
(I1
(I4
tp4428
g236
I00
S'\x00\x00\x00\x00\x00\x00\x13@\x80\x14\xaeG\xe1z\xc4?S\x96!\x8euq\xec?\xd2!3\x7f|\xd9\x12@'
p4429
tp4430
bsVc_obst8
p4431
g21
(g22
(I0
tp4432
g24
tp4433
Rp4434
(I1
(I4
tp4435
g236
I00
S"\xeaK\nQ\x8d\x1e\x12@\xe0\x0e.n\x0eA\xb1\xbfe\xaa`TR'\xed?\xa6lzn\xe4p\x04@"
p4436
tp4437
bsVplate_b4e7
p4438
g21
(g22
(I0
tp4439
g24
tp4440
Rp4441
(I1
(I4
tp4442
g236
I00
S'\x14\xaeG\xe1z\x14\xf2\xbf\x14\xaeG\xe1z\x14\x00@=\n\xd7\xa3p=\xf2?\x00\x00\x00\x00\x00\x00\x00\x00'
p4443
tp4444
bsVcooker
p4445
g21
(g22
(I0
tp4446
g24
tp4447
Rp4448
(I1
(I4
tp4449
g236
I00
S'\xaeG\xe1z\x14\xae\xff?\x85\xebQ\xb8\x1e\x85\xfb?\x00\x00\x00\x00\x00\x00\xe8?\x00\x00\x00\x00\x00\x00\x00\x00'
p4450
tp4451
bsVpin_a091
p4452
g21
(g22
(I0
tp4453
g24
tp4454
Rp4455
(I1
(I4
tp4456
g236
I00
S'\xdb\xf9~j\xbct\xf7\xbf)\\\x8f\xc2\xf5(\x02@\xb8\x1e\x85\xebQ\xb8\xfa?\x00\x00\x00\x00\x00\x00\x00\x00'
p4457
tp4458
bsVside_wall_2
p4459
g21
(g22
(I0
tp4460
g24
tp4461
Rp4462
(I1
(I4
tp4463
g236
I00
S'\xc9\xff\xff\xff\xff\xff\x14@\xba\xff\xff\xff\xff\xaf#=\x9c\xc4 \xb0rh\xc1?#-DT\xfb!\xf9?'
p4464
tp4465
bsVside_wall_3
p4466
g21
(g22
(I0
tp4467
g24
tp4468
Rp4469
(I1
(I4
tp4470
g236
I00
S'\x00\x00\x00\x00\x00\x00\xfc?H\xe1z\x14\xaeG\t@\x9c\xc4 \xb0rh\xc1?\x00\x00\x00\x00\x00\x00\x00\x00'
p4471
tp4472
bsVmixer
p4473
g21
(g22
(I0
tp4474
g24
tp4475
Rp4476
(I1
(I4
tp4477
g236
I00
S'\n\xd7\xa3p=\n\xfb?ffffff\x02@d;\xdfO\x8d\x97\xee?\x00\x00\x00\x00\x00\x00\x00\x00'
p4478
tp4479
bsVside_wall_1
p4480
g21
(g22
(I0
tp4481
g24
tp4482
Rp4483
(I1
(I4
tp4484
g236
I00
S'\x92\xff\xff\xff\xff\xff\xfb\xbf\x81\xff\xff\xff\xff?\n\xbd\x9c\xc4 \xb0rh\xc1?#-DT\xfb!\xf9?'
p4485
tp4486
bsVbottom_wall_1
p4487
g21
(g22
(I0
tp4488
g24
tp4489
Rp4490
(I1
(I4
tp4491
g236
I00
S'H\xe1z\x14\xaeG\x12@\x80\x14\xaeG\xe1z\xc4?\xcc\x7fH\xbf}\x1d\xed?\x00\x00\x00\x00\x00\x00\x00\x00'
p4492
tp4493
bsVcan
p4494
g21
(g22
(I0
tp4495
g24
tp4496
Rp4497
(I1
(I4
tp4498
g236
I00
S'\x00\x00\x00\x00\x00\x00\xf4\xbfH\xe1z\x14\xaeG\xe1\xbf\n\xd7\xa3p=\n\xef?\x00\x00\x00\x00\x00\x00\x00\x00'
p4499
tp4500
bsVright_wall
p4501
g21
(g22
(I0
tp4502
g24
tp4503
Rp4504
(I1
(I4
tp4505
g236
I00
S'\x9a\x99\x99\x99\x99\x99\x07@H\xe1z\x14\xaeG\xff\xbf\x9c\xc4 \xb0rh\xc1?\x00\x00\x00\x00\x00\x00\x00\x00'
p4506
tp4507
bsVcoffe_machine
p4508
g21
(g22
(I0
tp4509
g24
tp4510
Rp4511
(I1
(I4
tp4512
g236
I00
S'\\\x8f\xc2\xf5(\\\xf5\xbf\xb8\x1e\x85\xebQ\xb8\xee?\n\xd7\xa3p=\n\xef?\x00\x00\x00\x00\x00\x00\x00\x00'
p4513
tp4514
bsVcomputer_chair
p4515
g21
(g22
(I0
tp4516
g24
tp4517
Rp4518
(I1
(I4
tp4519
g236
I00
S'\xcd\xcc\xcc\xcc\xcc\xcc\x10@\x00\x00\x00\x00\x00\x00\xf8\xbf\xa00\xb6\x10\xe4\xa9\x95\xbf\x00\x00\x00\x00\x00\x00\x00\x00'
p4520
tp4521
bssg2547
g21
(g22
(I0
tp4522
g24
tp4523
Rp4524
(I1
(I39
tp4525
g236
I00
S'\x00\x00\x00\x00\x00\x00\x00\x00\x00\x00\x00\x00\x00\x00\x00\x00\x00\x00\x00\x00\x00\x00\x00\x00\x00\x00\x00\x00\x00\x00\x00\x00\x00\x00\x00\x00\x00\x00\x00\x00\x00\x00\x00\x00\x00\x00\x00\x00\x00\x00\x00\x00\x00\x00\x00\x00\x00\x00\x00\x00\x00\x00\x00\x00\x00\x00\x00\x00\x00\x00\x00\x00\x00\x00\x00\x00\x00\x00\x00\x00\x00\x00\x00\x00\x00\x00\x00\x00\x00\x00\x00\x00\x00\x00\x00\x00@d;\xdfO\x8d\x87?\x00\x00\x00\x00\x00\x00\x00\x00\x00\x00\x00\x00\x00\x00\x00\x00\x00\x00\x00\x00\x00\x00\x00\x00\xec\xed\t\xf1\xcc\xa4\xf4?\x00\x00\x00\x00\x00\x00\x00\x00N"\xd0^p\xf8\x00\xc0\x00\x00\x00\x00\x00\x00\x00\x00\x9e\x03\r.\x04V\xe6\xbf\x00\x00\x00\x00\x00\x00\x00\x00\x00\x00\x00\x00\x00\x00\x00\x00\x00\x00\x00\x00\x00p\x04\xbd\x00\x00\x00\x00\x00\x00\x00\x00\x00\x00\x00\x00\x00\x00\xf0\xbc\x00\x00\x00\x00\x00\x00\x00\x00\x00\x00\x00\x00\x00\x00\x00\x00\xea\xed\t\xf1\xcc\xa4\xf4?\x00\x00\x00\x00\x00\x00\xb0\xbcM"\xd0^p\xf8\x00\xc0\x00\x00\x00\x00\x00\x00\x00\x00\xa0\x03\r.\x04V\xe6\xbf\x00\x00\x00\x00\x00\x00\x00\x00\xb29\xe3\xc17\x89\xe1?\x00\x00\x00\x00\x00\x00\x80<\x83\xa2\xb5\xd1R\x8b\xc9\xbc\x00\x00\x00\x00\x00\x00\x13\xbd\x00\x00\x00\x00\x00\x00\x00\x00'
p4526
tp4527
bsg2554
I00
sbsg2555
Nsg2556
(dp4528
(g588
g588
g227
tp4529
g1273
s(g402
g1274
g1274
tp4530
g1276
s(g1277
g504
g227
tp4531
g1279
s(g465
g288
g1274
tp4532
g1281
s(g227
g227
g227
tp4533
g1283
s(g288
g588
g1274
tp4534
g1285
s(g402
g226
g227
tp4535
g1287
s(g465
g402
g227
tp4536
g1291
s(g227
g288
g1274
tp4537
g1295
s(g465
g1277
g227
tp4538
g1297
s(g1274
g227
g1274
tp4539
g1299
s(g288
g1277
g227
tp4540
g1303
s(g465
g504
g1274
tp4541
g1305
s(g549
g1274
g227
tp4542
g1307
s(g1277
g588
g1274
tp4543
g1309
s(g588
g1274
g227
tp4544
g1313
s(g402
g402
g1274
tp4545
g1317
s(g1274
g288
g1274
tp4546
g1319
s(g1277
g465
g227
tp4547
g1323
s(g1274
g1274
g227
tp4548
g1325
s(g227
g227
g1274
tp4549
g1329
s(g288
g588
g227
tp4550
g1691
s(g504
g465
g1274
tp4551
g1331
s(g588
g288
g227
tp4552
g1333
s(g226
g549
g1274
tp4553
g1425
s(g504
g227
g1274
tp4554
g1337
s(g588
g226
g1274
tp4555
g1697
s(g504
g226
g1274
tp4556
g1341
s(g226
g504
g227
tp4557
g1343
s(g1274
g402
g1274
tp4558
g1345
s(g402
g1277
g1274
tp4559
g1699
s(g588
g588
g1274
tp4560
g1349
s(g1277
g288
g227
tp4561
g1351
s(g1274
g227
g227
tp4562
g1353
s(g465
g504
g227
tp4563
g1359
s(g465
g549
g227
tp4564
g1613
s(g402
g226
g1274
tp4565
g1363
s(g549
g465
g227
tp4566
g1365
s(g465
g402
g1274
tp4567
g1367
s(g465
g588
g1274
tp4568
g1369
s(g1277
g465
g1274
tp4569
g1371
s(g1274
g226
g1274
tp4570
g1373
s(g1277
g227
g227
tp4571
g1375
s(g1274
g1277
g227
tp4572
g1379
s(g588
g288
g1274
tp4573
g1381
s(g549
g588
g1274
tp4574
g1383
s(g549
g549
g227
tp4575
g1385
s(g504
g226
g227
tp4576
g1387
s(g1277
g588
g227
tp4577
g1389
s(g1277
g549
g1274
tp4578
g1439
s(g549
g402
g227
tp4579
g1335
s(g288
g402
g227
tp4580
g1393
s(g402
g402
g227
tp4581
g1395
s(g288
g504
g1274
tp4582
g1401
s(g504
g465
g227
tp4583
g1405
s(g588
g504
g1274
tp4584
g1407
s(g504
g227
g227
tp4585
g1409
s(g465
g588
g227
tp4586
g1411
s(g588
g549
g227
tp4587
g1413
s(g226
g504
g1274
tp4588
g1415
s(g1277
g227
g1274
tp4589
g1419
s(g1277
g288
g1274
tp4590
g1421
s(g549
g588
g227
tp4591
g1423
s(g1274
g504
g227
tp4592
g1623
s(g588
g1277
g1274
tp4593
g1427
s(g465
g549
g1274
tp4594
g1655
s(g504
g1274
g227
tp4595
g1429
s(g549
g465
g1274
tp4596
g1431
s(g549
g504
g1274
tp4597
g1433
s(g288
g402
g1274
tp4598
g1435
s(g402
g465
g227
tp4599
g1603
s(g504
g1274
g1274
tp4600
g1391
s(g1274
g226
g227
tp4601
g1441
s(g588
g504
g227
tp4602
g1445
s(g288
g504
g227
tp4603
g1447
s(g1274
g549
g227
tp4604
g1449
s(g227
g465
g1274
tp4605
g1417
s(g549
g1277
g227
tp4606
g1315
s(g504
g549
g1274
tp4607
g1459
s(g465
g465
g227
tp4608
g1717
s(g226
g1274
g1274
tp4609
g1463
s(g402
g504
g227
tp4610
g1467
s(g588
g1277
g227
tp4611
g1469
s(g226
g588
g1274
tp4612
g1473
s(g549
g504
g227
tp4613
g1475
s(g288
g1274
g1274
tp4614
g1477
s(g465
g227
g227
tp4615
g1479
s(g227
g226
g227
tp4616
g1357
s(g1274
g504
g1274
tp4617
g1485
s(g1274
g549
g1274
tp4618
g1487
s(g402
g549
g227
tp4619
g1489
s(g1277
g1274
g227
tp4620
g1321
s(g402
g504
g1274
tp4621
g1493
s(g226
g588
g227
tp4622
g1495
s(g588
g465
g227
tp4623
g1497
s(g226
g227
g1274
tp4624
g1499
s(g288
g1274
g227
tp4625
g1501
s(g549
g1277
g1274
tp4626
g1721
s(g226
g1274
g227
tp4627
g1513
s(g465
g288
g227
tp4628
g1735
s(g549
g288
g227
tp4629
g1515
s(g465
g1274
g1274
tp4630
g1519
s(g226
g1277
g1274
tp4631
g1521
s(g465
g227
g1274
tp4632
g1523
s(g402
g465
g1274
tp4633
g1525
s(g549
g227
g1274
tp4634
g1529
s(g226
g227
g227
tp4635
g1531
s(g504
g504
g227
tp4636
g1535
s(g402
g549
g1274
tp4637
g1543
s(g288
g549
g227
tp4638
g1539
s(g402
g588
g227
tp4639
g1541
s(g227
g1277
g227
tp4640
g1311
s(g227
g465
g227
tp4641
g1547
s(g1277
g226
g1274
tp4642
g1549
s(g226
g402
g227
tp4643
g1551
s(g504
g1277
g227
tp4644
g1553
s(g549
g288
g1274
tp4645
g1555
s(g549
g226
g1274
tp4646
g1557
s(g1274
g288
g227
tp4647
g1537
s(g227
g549
g1274
tp4648
g1483
s(g226
g1277
g227
tp4649
g1565
s(g288
g226
g1274
tp4650
g1567
s(g588
g465
g1274
tp4651
g1561
s(g226
g549
g227
tp4652
g1727
s(g288
g288
g1274
tp4653
g1573
s(g504
g504
g1274
tp4654
g1577
s(g402
g288
g1274
tp4655
g1579
s(g402
g1277
g227
tp4656
g1653
s(g1277
g402
g227
tp4657
g1583
s(g227
g1277
g1274
tp4658
g1585
s(g227
g504
g1274
tp4659
g1587
s(g465
g1274
g227
tp4660
g1589
s(g402
g588
g1274
tp4661
g1591
s(g504
g402
g1274
tp4662
g1593
s(g1277
g226
g227
tp4663
g1597
s(g588
g402
g227
tp4664
g1569
s(g465
g226
g1274
tp4665
g1599
s(g504
g1277
g1274
tp4666
g1601
s(g1274
g465
g1274
tp4667
g1443
s(g288
g226
g227
tp4668
g1609
s(g402
g227
g1274
tp4669
g1611
s(g226
g288
g227
tp4670
g1361
s(g504
g549
g227
tp4671
g1491
s(g1274
g1277
g1274
tp4672
g1619
s(g288
g549
g1274
tp4673
g1621
s(g1277
g1277
g1274
tp4674
g1625
s(g402
g288
g227
tp4675
g1629
s(g226
g402
g1274
tp4676
g1633
s(g549
g227
g227
tp4677
g1635
s(g1277
g402
g1274
tp4678
g1637
s(g549
g226
g227
tp4679
g1639
s(g226
g465
g227
tp4680
g1641
s(g588
g402
g1274
tp4681
g1645
s(g504
g588
g227
tp4682
g1647
s(g1277
g1274
g1274
tp4683
g1649
s(g288
g465
g227
tp4684
g1581
s(g226
g288
g1274
tp4685
g1455
s(g226
g226
g1274
tp4686
g1595
s(g288
g227
g227
tp4687
g1659
s(g549
g549
g1274
tp4688
g1615
s(g1274
g588
g1274
tp4689
g1631
s(g227
g504
g227
tp4690
g1667
s(g227
g549
g227
tp4691
g1669
s(g504
g402
g227
tp4692
g1671
s(g588
g549
g1274
tp4693
g1451
s(g1277
g549
g227
tp4694
g1675
s(g465
g226
g227
tp4695
g1677
s(g465
g465
g1274
tp4696
g1679
s(g504
g288
g1274
tp4697
g1681
s(g288
g227
g1274
tp4698
g1683
s(g588
g227
g227
tp4699
g1685
s(g402
g227
g227
tp4700
g1687
s(g504
g588
g1274
tp4701
g1689
s(g227
g226
g1274
tp4702
g1437
s(g227
g1274
g227
tp4703
g1693
s(g1277
g1277
g227
tp4704
g1695
s(g227
g588
g1274
tp4705
g1339
s(g288
g465
g1274
tp4706
g1347
s(g1274
g465
g227
tp4707
g1701
s(g1274
g588
g227
tp4708
g1651
s(g402
g1274
g227
tp4709
g1707
s(g226
g465
g1274
tp4710
g1709
s(g227
g402
g227
tp4711
g1711
s(g1277
g504
g1274
tp4712
g1713
s(g288
g1277
g1274
tp4713
g1715
s(g227
g402
g1274
tp4714
g1461
s(g504
g288
g227
tp4715
g1719
s(g226
g226
g227
tp4716
g1507
s(g227
g288
g227
tp4717
g1725
s(g288
g288
g227
tp4718
g1731
s(g549
g402
g1274
tp4719
g1571
s(g549
g1274
g1274
tp4720
g1737
s(g588
g226
g227
tp4721
g1755
s(g588
g1274
g1274
tp4722
g1741
s(g588
g227
g1274
tp4723
g1745
s(g1274
g1274
g1274
tp4724
g1747
s(g465
g1277
g1274
tp4725
g1749
s(g227
g1274
g1274
tp4726
g1753
s(g227
g588
g227
tp4727
g1739
s(g1274
g402
g227
tp4728
g1757
ssg2558
(dp4729
(g3300
g1274
tp4730
(lp4731
g21
(g22
(I0
tp4732
g24
tp4733
Rp4734
(I1
(I3
tp4735
g236
I00
S'\n;9\xd0\xd3o\xf1?VT\x89\xfc\x91\xd7\x1b\xc0:\x9e\x02y\xa1\xd0\x05@'
p4736
tp4737
bas(g3303
g227
tp4738
(lp4739
g21
(g22
(I0
tp4740
g24
tp4741
Rp4742
(I1
(I3
tp4743
g236
I00
S'\xb9\x0b\xdaU\x97j\n@\xb4\xcb\xa3\x019\xe0\x19\xc0+\xb3\xae\xc0\xd1\x8a\xf4?'
p4744
tp4745
bag21
(g22
(I0
tp4746
g24
tp4747
Rp4748
(I1
(I3
tp4749
g247
I00
S'\xc3#\x9b"m=\x05@O\x1c\xaf\xffo\x1c\x1b\xc0\xa4\xc19\xdd\xaa\xea\xdd?'
p4750
tp4751
bag21
(g22
(I0
tp4752
g24
tp4753
Rp4754
(I1
(I3
tp4755
g247
I00
S'\xb1\x91\x83\xd6J:\x00@X\xbf\x9b\xa3\xf7;\x19\xc0\xb4\xa9\x94\xff\xff\xd1\xec?'
p4756
tp4757
bag21
(g22
(I0
tp4758
g24
tp4759
Rp4760
(I1
(I3
tp4761
g247
I00
S'j\xc7\xc0&\x8ag\xf6?h\x9cH4\x7f\xab\x18\xc0\xd8|\x1d\xfc\xcbV\xf2?'
p4762
tp4763
bag21
(g22
(I0
tp4764
g24
tp4765
Rp4766
(I1
(I3
tp4767
g247
I00
S'\x85\\2\xba\x0b5\xf5?I\r\x06\xd10\xfb\x15\xc0\x9e\x11\xee\xd8\xb9\xd7\xf5?'
p4768
tp4769
bag21
(g22
(I0
tp4770
g24
tp4771
Rp4772
(I1
(I3
tp4773
g247
I00
S'v\xb8^\x85\xa7[\xea?x\xbe\xff2t\x8d\x13\xc0\x88\x85\x8cCyH\xf6?'
p4774
tp4775
bag21
(g22
(I0
tp4776
g24
tp4777
Rp4778
(I1
(I3
tp4779
g247
I00
S'\xc2\xda(e\x83\x1a\xeb?\x8au\x8d3\xa6E\x11\xc0\xb4c\x1b\xed_\xfd\xfa?'
p4780
tp4781
bag21
(g22
(I0
tp4782
g24
tp4783
Rp4784
(I1
(I3
tp4785
g247
I00
S'\xe4u**\x0e5\xe9?\xaa\xfd\r\xed\xc4\xf6\r\xc0\x0fDE0\x1f\x0b\xfe?'
p4786
tp4787
bag21
(g22
(I0
tp4788
g24
tp4789
Rp4790
(I1
(I3
tp4791
g247
I00
S'\x06\x11,\xef\x98O\xe7??\x10\x01s=b\t\xc04\x92\xb79o\x8c\x00@'
p4792
tp4793
bag21
(g22
(I0
tp4794
g24
tp4795
Rp4796
(I1
(I3
tp4797
g247
I00
S'\x92\xaf\xf3P\x96O\xc2?(\xa1:\x8er}\x05\xc0\xd4_\x91\xb3\xffL\x02@'
p4798
tp4799
bas(g3297
g227
tp4800
(lp4801
g21
(g22
(I0
tp4802
g24
tp4803
Rp4804
(I1
(I3
tp4805
g236
I00
S'\xea\x06\xa2OW\xf0\t@C\x96\x98F\x00i\x19\xc0f\xe3C\xc6T\xa3\xc0?'
p4806
tp4807
bag21
(g22
(I0
tp4808
g24
tp4809
Rp4810
(I1
(I3
tp4811
g247
I00
S'\x00O\xfd4U\xed\x06@>#>\xa9c\x95\x18\xc0\xeb\xe4n\xb8\x98\xa5\xc9\xbf'
p4812
tp4813
bag21
(g22
(I0
tp4814
g24
tp4815
Rp4816
(I1
(I3
tp4817
g247
I00
S'\x00\xda\x1c<\xfd\xdc\x00@j"\x91\xe3 \x1a\x18\xc0i~!@)\xb0\xdc\xbf'
p4818
tp4819
bag21
(g22
(I0
tp4820
g24
tp4821
Rp4822
(I1
(I3
tp4823
g247
I00
S'v%D\x97w\xd1\xf7?Z\xadP\x90\x08<\x17\xc0-\xca\x8a\t\xe2p\xe7\xbf'
p4824
tp4825
bag21
(g22
(I0
tp4826
g24
tp4827
Rp4828
(I1
(I3
tp4829
g247
I00
S'tx\x8as\xa8b\xed?\x9ej\x15\xfa\xf0{\x15\xc0@\xed\x9a-\x9eD\xf2\xbf'
p4830
tp4831
bag21
(g22
(I0
tp4832
g24
tp4833
Rp4834
(I1
(I3
tp4835
g247
I00
S"\xb2&6mg)\xe8?\x99\xe0G'\x16\xe0\x13\xc0\xc8oL\xf5\x17p\xe6\xbf"
p4836
tp4837
bag21
(g22
(I0
tp4838
g24
tp4839
Rp4840
(I1
(I3
tp4841
g247
I00
S'`\xc8Aw-\x81\xeb?/\xc3\xe6O\x04\xca\x10\xc0\x8a\xb7K)\x91{\xe4\xbf'
p4842
tp4843
bag21
(g22
(I0
tp4844
g24
tp4845
Rp4846
(I1
(I3
tp4847
g247
I00
S'\xe1\xc6\xc7\xa7\x12X\xe7?\x98\x99\xb0\x9a\xfb\xdb\x0b\xc0R\t\x1b)\xeae\xe0\xbf'
p4848
tp4849
bag21
(g22
(I0
tp4850
g24
tp4851
Rp4852
(I1
(I3
tp4853
g247
I00
S'p\xf1\xbdc^\x84\xf1?"\x88LL\xf9D\x06\xc0~w\r\xe9m\x0f\x19@'
p4854
tp4855
bas(g3302
g1274
tp4856
(lp4857
g21
(g22
(I0
tp4858
g24
tp4859
Rp4860
(I1
(I3
tp4861
g236
I00
S"\xcf'\xf5\x17\xe4~\xc3?\xd9d\xebI);\x18\xc0\x87\xc3\xff\x9f-N\xf9?"
p4862
tp4863
bas(g3297
g1274
tp4864
(lp4865
g21
(g22
(I0
tp4866
g24
tp4867
Rp4868
(I1
(I3
tp4869
g236
I00
S'\xea\x06\xa2OW\xf0\t@A\x96\x98F\x00i\x19\xc0\xb2\xe3C\xc6T\xa3\xc0?'
p4870
tp4871
bas(g3302
g227
tp4872
g3252
s(g3301
g1274
tp4873
(lp4874
g21
(g22
(I0
tp4875
g24
tp4876
Rp4877
(I1
(I3
tp4878
g236
I00
S'\x00>\xd6\xd5f5\xbe\xbf\xbd\xbf\xc8i\xa50\x16\xc0)=\x89\xa3\x19\xc7\x13@'
p4879
tp4880
bas(g3301
g227
tp4881
g3214
s(g74
g227
tp4882
(lp4883
g21
(g22
(I0
tp4884
g24
tp4885
Rp4886
(I1
(I3
tp4887
g236
I00
S'\xfek\x14\x0b\xb6\x9b\x08@$9\xe3\xf1\xdb\xbe\x1c\xc0\x92\x0c\xf3)\xaak\x14@'
p4888
tp4889
bag21
(g22
(I0
tp4890
g24
tp4891
Rp4892
(I1
(I3
tp4893
g247
I00
S'\xca\xbc\xd1\x14\xab\xdb\x03@\x1d\xe31\xd0\xab\xb7\x1a\xc0\xbe\x9cO\xe2\x184\x13@'
p4894
tp4895
bag21
(g22
(I0
tp4896
g24
tp4897
Rp4898
(I1
(I3
tp4899
g247
I00
S'\xff\xd7C\xaa\x9ac\xff?\x86\x0e\xb5\xc1\xc7\x12\x1c\xc0\xd6\x18\x81\xcfC-\x12@'
p4900
tp4901
bag21
(g22
(I0
tp4902
g24
tp4903
Rp4904
(I1
(I3
tp4905
g247
I00
S'zP\x91@+\x97\xf6?*&V!\xde-\x1a\xc0\xb2Z\x99\x08\xf1Y\x13@'
p4906
tp4907
bag21
(g22
(I0
tp4908
g24
tp4909
Rp4910
(I1
(I3
tp4911
g247
I00
S'\x07\xe5\xeeo\xc2@\xf0?\x80*\x19Ng\xcf\x17\xc0\xccm\xca\xd2+4\x0f@'
p4912
tp4913
bag21
(g22
(I0
tp4914
g24
tp4915
Rp4916
(I1
(I3
tp4917
g247
I00
S'f\xb4\x9c\x07\xac\xbf\xec?n\x96\x96\x9e\x90n\x16\xc0uo!\xa9\x9b\x82\x07@'
p4918
tp4919
bag21
(g22
(I0
tp4920
g24
tp4921
Rp4922
(I1
(I3
tp4923
g247
I00
S'm\xd5h\x072\x03\xea?\xdf\xe5\xe82\xd3\x17\x14\xc0\x08\x9e\xe1\xfbO\x94\x08@'
p4924
tp4925
bag21
(g22
(I0
tp4926
g24
tp4927
Rp4928
(I1
(I3
tp4929
g247
I00
S'\xc6\x05\xbdtg\xd9\xe2?F\xdf\x9d@\\\xf3\x11\xc0\x1a\xc4.\xbb\xcc\x12\x02@'
p4930
tp4931
bag21
(g22
(I0
tp4932
g24
tp4933
Rp4934
(I1
(I3
tp4935
g247
I00
S'3z\xed\x8eN)\xe4?\x0c\x96\xd4\xa2\x0e\xd0\r\xc0\xbd%\xf5{\xe9\xf9\x03@'
p4936
tp4937
bag21
(g22
(I0
tp4938
g24
tp4939
Rp4940
(I1
(I3
tp4941
g247
I00
S'\xaf0\xe9h\xba~\xee?k\xbb\xd8\xd4\xd0g\t\xc09\x9ey\xed\xb06\x06@'
p4942
tp4943
bag21
(g22
(I0
tp4944
g24
tp4945
Rp4946
(I1
(I3
tp4947
g247
I00
S'\xf4\xfdJ\x1a(#\xec?H"\x9cD\x1aE\x05\xc0.\xa9\x0b\x87\xf8\xe1\x02@'
p4948
tp4949
bas(g3299
g227
tp4950
(lp4951
g21
(g22
(I0
tp4952
g24
tp4953
Rp4954
(I1
(I3
tp4955
g236
I00
S'fg\xa4\xb4J\x9c\x01@\x14T\x97G\x08\xd0\x18\xc0w\xc1\xb8\x11h\x9f\xf4?'
p4956
tp4957
bag21
(g22
(I0
tp4958
g24
tp4959
Rp4960
(I1
(I3
tp4961
g247
I00
S'\xe0 ;\x819w\xfd?\xe7\xcc\xc2\xa0\xa5f\x17\xc04\xedq\x1c\x8eK\xfa?'
p4962
tp4963
bag21
(g22
(I0
tp4964
g24
tp4965
Rp4966
(I1
(I3
tp4967
g247
I00
S'\x85\\2\xba\x0b5\xf5?I\r\x06\xd10\xfb\x15\xc0\x9e\x11\xee\xd8\xb9\xd7\xf5?'
p4968
tp4969
bag21
(g22
(I0
tp4970
g24
tp4971
Rp4972
(I1
(I3
tp4973
g247
I00
S'v\xb8^\x85\xa7[\xea?x\xbe\xff2t\x8d\x13\xc0\x88\x85\x8cCyH\xf6?'
p4974
tp4975
bag21
(g22
(I0
tp4976
g24
tp4977
Rp4978
(I1
(I3
tp4979
g247
I00
S'\xc2\xda(e\x83\x1a\xeb?\x8au\x8d3\xa6E\x11\xc0\xb4c\x1b\xed_\xfd\xfa?'
p4980
tp4981
bag21
(g22
(I0
tp4982
g24
tp4983
Rp4984
(I1
(I3
tp4985
g247
I00
S'\xe4u**\x0e5\xe9?\xaa\xfd\r\xed\xc4\xf6\r\xc0\x0fDE0\x1f\x0b\xfe?'
p4986
tp4987
bag21
(g22
(I0
tp4988
g24
tp4989
Rp4990
(I1
(I3
tp4991
g247
I00
S'\x06\x11,\xef\x98O\xe7??\x10\x01s=b\t\xc04\x92\xb79o\x8c\x00@'
p4992
tp4993
bag21
(g22
(I0
tp4994
g24
tp4995
Rp4996
(I1
(I3
tp4997
g247
I00
S'\x92\xaf\xf3P\x96O\xc2?(\xa1:\x8er}\x05\xc0\xd4_\x91\xb3\xffL\x02@'
p4998
tp4999
bas(g3299
g1274
tp5000
(lp5001
g21
(g22
(I0
tp5002
g24
tp5003
Rp5004
(I1
(I3
tp5005
g236
I00
S'dg\xa4\xb4J\x9c\x01@\x17T\x97G\x08\xd0\x18\xc0v\xc1\xb8\x11h\x9f\xf4?'
p5006
tp5007
bas(g3303
g1274
tp5008
(lp5009
g21
(g22
(I0
tp5010
g24
tp5011
Rp5012
(I1
(I3
tp5013
g236
I00
S'\xb5\x0b\xdaU\x97j\n@\xb6\xcb\xa3\x019\xe0\x19\xc0*\xb3\xae\xc0\xd1\x8a\xf4?'
p5014
tp5015
bas(g74
g1274
tp5016
(lp5017
g21
(g22
(I0
tp5018
g24
tp5019
Rp5020
(I1
(I3
tp5021
g236
I00
S'\xffk\x14\x0b\xb6\x9b\x08@%9\xe3\xf1\xdb\xbe\x1c\xc0\x92\x0c\xf3)\xaak\x14@'
p5022
tp5023
bas(g3298
g1274
tp5024
(lp5025
g21
(g22
(I0
tp5026
g24
tp5027
Rp5028
(I1
(I3
tp5029
g236
I00
S'!\xbf\x80\x16\x06I\xfc?\xac\x82\x18\x16\x86\xdd\x1c\xc0]\x18\xd5*\x81\n\x14@'
p5030
tp5031
bas(g3298
g227
tp5032
(lp5033
g21
(g22
(I0
tp5034
g24
tp5035
Rp5036
(I1
(I3
tp5037
g236
I00
S' \xbf\x80\x16\x06I\xfc?\xa8\x82\x18\x16\x86\xdd\x1c\xc0]\x18\xd5*\x81\n\x14@'
p5038
tp5039
bag21
(g22
(I0
tp5040
g24
tp5041
Rp5042
(I1
(I3
tp5043
g247
I00
S'zP\x91@+\x97\xf6?*&V!\xde-\x1a\xc0\xb2Z\x99\x08\xf1Y\x13@'
p5044
tp5045
bag21
(g22
(I0
tp5046
g24
tp5047
Rp5048
(I1
(I3
tp5049
g247
I00
S'\x07\xe5\xeeo\xc2@\xf0?\x80*\x19Ng\xcf\x17\xc0\xccm\xca\xd2+4\x0f@'
p5050
tp5051
bag21
(g22
(I0
tp5052
g24
tp5053
Rp5054
(I1
(I3
tp5055
g247
I00
S'f\xb4\x9c\x07\xac\xbf\xec?n\x96\x96\x9e\x90n\x16\xc0uo!\xa9\x9b\x82\x07@'
p5056
tp5057
bag21
(g22
(I0
tp5058
g24
tp5059
Rp5060
(I1
(I3
tp5061
g247
I00
S'm\xd5h\x072\x03\xea?\xdf\xe5\xe82\xd3\x17\x14\xc0\x08\x9e\xe1\xfbO\x94\x08@'
p5062
tp5063
bag21
(g22
(I0
tp5064
g24
tp5065
Rp5066
(I1
(I3
tp5067
g247
I00
S'\xc6\x05\xbdtg\xd9\xe2?F\xdf\x9d@\\\xf3\x11\xc0\x1a\xc4.\xbb\xcc\x12\x02@'
p5068
tp5069
bag21
(g22
(I0
tp5070
g24
tp5071
Rp5072
(I1
(I3
tp5073
g247
I00
S'3z\xed\x8eN)\xe4?\x0c\x96\xd4\xa2\x0e\xd0\r\xc0\xbd%\xf5{\xe9\xf9\x03@'
p5074
tp5075
bag21
(g22
(I0
tp5076
g24
tp5077
Rp5078
(I1
(I3
tp5079
g247
I00
S'\xaf0\xe9h\xba~\xee?k\xbb\xd8\xd4\xd0g\t\xc09\x9ey\xed\xb06\x06@'
p5080
tp5081
bag21
(g22
(I0
tp5082
g24
tp5083
Rp5084
(I1
(I3
tp5085
g247
I00
S'\xf4\xfdJ\x1a(#\xec?H"\x9cD\x1aE\x05\xc0.\xa9\x0b\x87\xf8\xe1\x02@'
p5086
tp5087
bas(g3300
g227
tp5088
(lp5089
g21
(g22
(I0
tp5090
g24
tp5091
Rp5092
(I1
(I3
tp5093
g236
I00
S'\t;9\xd0\xd3o\xf1?VT\x89\xfc\x91\xd7\x1b\xc0:\x9e\x02y\xa1\xd0\x05@'
p5094
tp5095
bag21
(g22
(I0
tp5096
g24
tp5097
Rp5098
(I1
(I3
tp5099
g247
I00
S"\xc6'8AN\xb0\xec?\xe0\x975>\x0f\x03\x19\xc0(\xe0e;\x85\x89\x05\xc0"
p5100
tp5101
bag21
(g22
(I0
tp5102
g24
tp5103
Rp5104
(I1
(I3
tp5105
g247
I00
S'\xd0\xcb\x13\x8f\xaa\x9d\xed?\x90\x01<]3\x06\x16\xc0F\xf1\xe7x32\x02\xc0'
p5106
tp5107
bag21
(g22
(I0
tp5108
g24
tp5109
Rp5110
(I1
(I3
tp5111
g247
I00
S'l[\xc4\x16<\xe6\xe9?\xa6\xa0\x90\x84X\x9f\x13\xc0\xc2\xd74Q\x00\xaf\xff\xbf'
p5112
tp5113
bag21
(g22
(I0
tp5114
g24
tp5115
Rp5116
(I1
(I3
tp5117
g247
I00
S"\xaeJ\xbd\x1936\xec?\x04\x13\xd4'\x9f\x88\x10\xc0\x805qo\xb6\xe6\xff\xbf"
p5118
tp5119
bag21
(g22
(I0
tp5120
g24
tp5121
Rp5122
(I1
(I3
tp5123
g247
I00
S'\xf09\xb6\x1c*\x86\xee?\xc4\n/\x96\xcb\xe3\n\xc0\xa0\xc9\xd6F6\x0f\x00\xc0'
p5124
tp5125
bag21
(g22
(I0
tp5126
g24
tp5127
Rp5128
(I1
(I3
tp5129
g247
I00
S'3\xe9\xaf\x05T\x89\xe7?+~\xcb\xd3\x15\xc7\x04\xc0x6(d5\xed\x07@'
p5130
tp5131
bassg2632
(dp5132
(g465
g288
tp5133
g2728
s(g226
g226
tp5134
g2734
s(g226
g549
tp5135
g2732
s(g588
g588
tp5136
g2922
s(g588
g549
tp5137
g2736
s(g227
g588
tp5138
g2932
s(g288
g588
tp5139
g2740
s(g465
g402
tp5140
g2742
s(g504
g226
tp5141
g2744
s(g588
g1274
tp5142
g2748
s(g504
g549
tp5143
g2780
s(g1277
g465
tp5144
g2906
s(g402
g227
tp5145
g2764
s(g1277
g588
tp5146
g2766
s(g588
g288
tp5147
g2768
s(g226
g1277
tp5148
g2770
s(g465
g465
tp5149
g2772
s(g1277
g288
tp5150
g2870
s(g549
g588
tp5151
g2776
s(g588
g227
tp5152
g2778
s(g1277
g1274
tp5153
g2758
s(g402
g402
tp5154
g2784
s(g588
g1277
tp5155
g2786
s(g1274
g549
tp5156
g2790
s(g588
g465
tp5157
g2920
s(g1274
g226
tp5158
g2792
s(g549
g227
tp5159
g2794
s(g549
g504
tp5160
g2800
s(g1277
g227
tp5161
g2804
s(g402
g588
tp5162
g2806
s(g1277
g549
tp5163
g2810
s(g549
g1277
tp5164
g2812
s(g226
g465
tp5165
g2814
s(g288
g402
tp5166
g2816
s(g226
g588
tp5167
g2818
s(g288
g227
tp5168
g2820
s(g1277
g1277
tp5169
g2822
s(g588
g226
tp5170
g2738
s(g288
g1277
tp5171
g2954
s(g227
g402
tp5172
g2828
s(g504
g1274
tp5173
g2830
s(g227
g504
tp5174
g2832
s(g288
g226
tp5175
g2834
s(g226
g402
tp5176
g2836
s(g549
g1274
tp5177
g2838
s(g226
g504
tp5178
g2840
s(g549
g549
tp5179
g2842
s(g504
g588
tp5180
g2844
s(g1274
g227
tp5181
g2846
s(g227
g465
tp5182
g2848
s(g1277
g504
tp5183
g2852
s(g227
g288
tp5184
g2854
s(g465
g549
tp5185
g2940
s(g504
g1277
tp5186
g2858
s(g288
g1274
tp5187
g2860
s(g504
g465
tp5188
g2862
s(g1274
g465
tp5189
g2774
s(g1274
g588
tp5190
g2788
s(g504
g227
tp5191
g2874
s(g465
g504
tp5192
g2876
s(g402
g504
tp5193
g2878
s(g1274
g1274
tp5194
g2882
s(g402
g549
tp5195
g2886
s(g1274
g402
tp5196
g2888
s(g1274
g504
tp5197
g2892
s(g402
g1277
tp5198
g2894
s(g465
g588
tp5199
g2896
s(g226
g227
tp5200
g2898
s(g588
g402
tp5201
g2904
s(g1274
g288
tp5202
g2762
s(g588
g504
tp5203
g2908
s(g549
g465
tp5204
g2910
s(g465
g1274
tp5205
g2912
s(g504
g504
tp5206
g2914
s(g288
g465
tp5207
g2916
s(g402
g288
tp5208
g2918
s(g227
g549
tp5209
g2880
s(g227
g226
tp5210
g2868
s(g288
g504
tp5211
g2924
s(g465
g227
tp5212
g2926
s(g549
g402
tp5213
g2928
s(g226
g1274
tp5214
g2930
s(g504
g402
tp5215
g2934
s(g227
g1274
tp5216
g2938
s(g226
g288
tp5217
g2856
s(g1277
g226
tp5218
g2942
s(g465
g1277
tp5219
g2944
s(g549
g226
tp5220
g2946
s(g227
g227
tp5221
g2948
s(g504
g288
tp5222
g2950
s(g402
g465
tp5223
g2826
s(g227
g1277
tp5224
g2956
s(g549
g288
tp5225
g2960
s(g288
g549
tp5226
g2962
s(g465
g226
tp5227
g2884
s(g1274
g1277
tp5228
g2966
s(g402
g226
tp5229
g2968
s(g288
g288
tp5230
g2972
s(g402
g1274
tp5231
g2974
s(g1277
g402
tp5232
g2976
ssg2634
(dp5233
g1277
(lp5234
I0
aI0
aI0
aI0
aI0
aI0
aI00
aI01
aI00
aI01
aI00
asg1274
(lp5235
I0
aI0
aI0
aI0
aI0
aI0
aI00
aI01
aI00
aI01
aI00
asg227
(lp5236
I0
aI0
aI0
aI0
aI0
aI0
aI00
aI01
aI01
aI01
aI00
asg351
(lp5237
I0
aI0
aI0
ag1953
(g236
S'\xf9}\xbf\x8a\xe1l\x0f@'
p5238
tp5239
Rp5240
ag1953
(g236
S'\xef\xc6\xf4e\xb5\xeb\x19\xc0'
p5241
tp5242
Rp5243
ag1953
(g236
S'\x9aeRzW\xe7\xf5?'
p5244
tp5245
Rp5246
aI01
aI00
aI00
aI01
aI00
asg588
(lp5247
I0
aI0
aI0
ag1953
(g236
S'\xb6\xc5\xb8\x06\xbd\x9e\x01@'
p5248
tp5249
Rp5250
ag1953
(g236
S'6\x07\x0b=\x03#\x1f\xc0'
p5251
tp5252
Rp5253
ag1953
(g236
S'\xb1m\xa9\xe4\xd7\xb6\x0e@'
p5254
tp5255
Rp5256
aI01
aI00
aI00
aI01
aI00
asg226
(lp5257
I0
aI0
aI0
ag1953
(g236
S"\xb7E'3;\x11\x04@"
p5258
tp5259
Rp5260
ag1953
(g236
S'+"\xc3\x1d\x06\xc2\x15\xc0'
p5261
tp5262
Rp5263
ag1953
(g236
S'\x87\xb8m\x1d\xc7\xc2\x10@'
p5264
tp5265
Rp5266
aI01
aI00
aI00
aI01
aI00
asg504
(lp5267
I0
aI0
aI0
ag1953
(g236
S'\xe8B\x82\xfb\x8f:\xd8?'
p5268
tp5269
Rp5270
ag1953
(g236
S'\x84S\xf8\x00+%\x1b\xc0'
p5271
tp5272
Rp5273
ag1953
(g236
S'\xc2\x00\x8f0,\xfe\x16@'
p5274
tp5275
Rp5276
aI01
aI00
aI00
aI01
aI00
asg465
(lp5277
I0
aI0
aI0
ag1953
(g236
S'\xe0\xe0K\x80\x91\x1bh\xbf'
p5278
tp5279
Rp5280
ag1953
(g236
S'\xb8?Og\x01\xbc\x18\xc0'
p5281
tp5282
Rp5283
ag1953
(g236
S'P\xc7J\xf9\x17\xcd\xe0?'
p5284
tp5285
Rp5286
aI01
aI00
aI00
aI01
aI00
asg549
(lp5287
I0
aI0
aI0
ag1953
(g236
S'\x90`\x0e]\xec\x91\x9e?'
p5288
tp5289
Rp5290
ag1953
(g236
S'\xd3\xd7\x90H+H\x15\xc0'
p5291
tp5292
Rp5293
ag1953
(g236
S'M\x9c\x0c\x99\xbfq\x11@'
p5294
tp5295
Rp5296
aI01
aI00
aI00
aI01
aI00
asg402
(lp5297
I0
aI0
aI0
ag1953
(g236
S'\xa6\x10\xec\xb0\xb75\n@'
p5298
tp5299
Rp5300
ag1953
(g236
S'\x1c\x83\x17\xc4\xf6%\x1f\xc0'
p5301
tp5302
Rp5303
ag1953
(g236
S'\xfa\xc1qg\x1ao\x15@'
p5304
tp5305
Rp5306
aI01
aI00
aI01
aI01
aI00
asg288
(lp5307
I0
aI0
aI0
ag1953
(g236
S'\x8f\xb5\xd6\xe72\xb5\r@'
p5308
tp5309
Rp5310
ag1953
(g236
S'A?N\xe4D\x19\x17\xc0'
p5311
tp5312
Rp5313
ag1953
(g236
S'89\xcc|\xdby\x16@'
p5314
tp5315
Rp5316
aI01
aI00
aI00
aI01
aI00
assg2719
(dp5317
sg2721
g105
sg2722
g2723
sg2725
(dp5318
(g465
g288
tp5319
(lp5320
I00
aI00
aI00
as(g465
g351
tp5321
(lp5322
I00
aI00
aI00
as(g226
g549
tp5323
(lp5324
I00
aI00
aI00
as(g226
g226
tp5325
(lp5326
I00
aI00
aI00
as(g588
g549
tp5327
(lp5328
I00
aI00
aI00
as(g588
g226
tp5329
(lp5330
I00
aI00
aI00
as(g288
g588
tp5331
(lp5332
I00
aI00
aI00
as(g465
g402
tp5333
(lp5334
I00
aI00
aI00
as(g504
g226
tp5335
(lp5336
I00
aI00
aI00
as(g351
g351
tp5337
(lp5338
I00
aI00
aI00
as(g588
g1274
tp5339
(lp5340
g2756
aI00
aI01
as(g1277
g1274
tp5341
(lp5342
I00
aI00
aI00
as(g351
g288
tp5343
(lp5344
I00
aI00
aI00
as(g1274
g288
tp5345
(lp5346
I00
aI00
aI00
as(g402
g227
tp5347
(lp5348
I00
aI00
aI01
as(g1277
g588
tp5349
(lp5350
I00
aI00
aI00
as(g588
g288
tp5351
(lp5352
I00
aI00
aI00
as(g226
g1277
tp5353
(lp5354
g2756
aI00
aI00
as(g465
g465
tp5355
(lp5356
I00
aI00
aI00
as(g1274
g465
tp5357
(lp5358
I00
aI00
aI00
as(g549
g588
tp5359
(lp5360
I00
aI00
aI00
as(g588
g227
tp5361
(lp5362
I00
aI00
aI01
as(g504
g549
tp5363
(lp5364
I00
aI00
aI00
as(g351
g504
tp5365
(lp5366
I00
aI00
aI00
as(g402
g402
tp5367
(lp5368
I00
aI00
aI00
as(g588
g1277
tp5369
(lp5370
g2756
aI00
aI00
as(g1274
g588
tp5371
(lp5372
I00
aI00
aI00
as(g1274
g549
tp5373
(lp5374
I00
aI00
aI00
as(g1274
g226
tp5375
(lp5376
I00
aI00
aI00
as(g549
g227
tp5377
(lp5378
I00
aI00
aI00
as(g288
g351
tp5379
(lp5380
I00
aI00
aI00
as(g504
g351
tp5381
(lp5382
I00
aI00
aI00
as(g549
g504
tp5383
(lp5384
I00
aI00
aI00
as(g1274
g351
tp5385
(lp5386
I00
aI00
aI00
as(g1277
g227
tp5387
(lp5388
I00
aI00
aI00
as(g402
g588
tp5389
(lp5390
I00
aI00
aI00
as(g351
g549
tp5391
(lp5392
I00
aI00
aI00
as(g1277
g549
tp5393
(lp5394
I00
aI00
aI00
as(g549
g1277
tp5395
(lp5396
g2756
aI00
aI00
as(g226
g465
tp5397
(lp5398
I00
aI00
aI00
as(g288
g402
tp5399
(lp5400
I00
aI00
aI00
as(g226
g588
tp5401
(lp5402
I00
aI00
aI00
as(g288
g227
tp5403
(lp5404
I00
aI00
aI01
as(g1277
g1277
tp5405
(lp5406
I00
aI00
aI00
as(g549
g351
tp5407
(lp5408
I00
aI00
aI00
as(g402
g465
tp5409
(lp5410
I00
aI00
aI00
as(g227
g402
tp5411
(lp5412
I00
aI00
aI00
as(g504
g1274
tp5413
(lp5414
g2756
aI00
aI01
as(g227
g504
tp5415
(lp5416
I00
aI00
aI00
as(g288
g226
tp5417
(lp5418
I00
aI00
aI00
as(g226
g402
tp5419
(lp5420
I00
aI00
aI00
as(g549
g1274
tp5421
(lp5422
g2756
aI00
aI01
as(g226
g504
tp5423
(lp5424
I00
aI00
aI00
as(g549
g549
tp5425
(lp5426
I00
aI00
aI00
as(g504
g588
tp5427
(lp5428
I00
aI00
aI00
as(g1274
g227
tp5429
(lp5430
I00
aI00
aI00
as(g227
g465
tp5431
(lp5432
I00
aI00
aI00
as(g351
g227
tp5433
(lp5434
I00
aI00
aI01
as(g1277
g504
tp5435
(lp5436
I00
aI00
aI00
as(g227
g288
tp5437
(lp5438
I00
aI00
aI00
as(g226
g288
tp5439
(lp5440
I00
aI00
aI00
as(g504
g1277
tp5441
(lp5442
g2756
aI00
aI00
as(g288
g1274
tp5443
(lp5444
g2756
aI00
aI01
as(g504
g465
tp5445
(lp5446
I00
aI00
aI00
as(g351
g588
tp5447
(lp5448
I00
aI00
aI00
as(g351
g1274
tp5449
(lp5450
g2756
aI00
aI01
as(g227
g226
tp5451
(lp5452
I00
aI00
aI00
as(g1277
g288
tp5453
(lp5454
I00
aI00
aI00
as(g1277
g351
tp5455
(lp5456
I00
aI00
aI00
as(g504
g227
tp5457
(lp5458
I00
aI00
aI01
as(g465
g504
tp5459
(lp5460
I00
aI00
aI00
as(g402
g504
tp5461
(lp5462
I00
aI00
aI00
as(g227
g549
tp5463
(lp5464
I00
aI00
aI00
as(g1274
g1274
tp5465
(lp5466
I00
aI00
aI00
as(g465
g226
tp5467
(lp5468
I00
aI00
aI00
as(g402
g549
tp5469
(lp5470
I00
aI00
aI00
as(g1274
g402
tp5471
(lp5472
I00
aI00
aI00
as(g588
g351
tp5473
(lp5474
I00
aI00
aI00
as(g1274
g504
tp5475
(lp5476
I00
aI00
aI00
as(g402
g1277
tp5477
(lp5478
g2756
aI00
aI00
as(g465
g588
tp5479
(lp5480
I00
aI00
aI00
as(g226
g227
tp5481
(lp5482
I00
aI00
aI01
as(g402
g351
tp5483
(lp5484
I00
aI00
aI00
as(g351
g402
tp5485
(lp5486
I00
aI00
aI00
as(g588
g402
tp5487
(lp5488
I00
aI00
aI00
as(g1277
g465
tp5489
(lp5490
I00
aI00
aI00
as(g588
g504
tp5491
(lp5492
I00
aI00
aI00
as(g549
g465
tp5493
(lp5494
I00
aI00
aI00
as(g465
g1274
tp5495
(lp5496
g2756
aI00
aI01
as(g504
g504
tp5497
(lp5498
I00
aI00
aI00
as(g288
g465
tp5499
(lp5500
I00
aI00
aI00
as(g402
g288
tp5501
(lp5502
I00
aI00
aI00
as(g588
g465
tp5503
(lp5504
I00
aI00
aI00
as(g588
g588
tp5505
(lp5506
I00
aI00
aI00
as(g288
g504
tp5507
(lp5508
I00
aI00
aI00
as(g465
g227
tp5509
(lp5510
I00
aI00
aI00
as(g549
g402
tp5511
(lp5512
I00
aI00
aI00
as(g226
g1274
tp5513
(lp5514
g2756
aI00
aI01
as(g227
g588
tp5515
(lp5516
I00
aI00
aI00
as(g504
g402
tp5517
(lp5518
I00
aI00
aI00
as(g351
g226
tp5519
(lp5520
I00
aI00
aI00
as(g227
g1274
tp5521
(lp5522
I00
aI00
aI00
as(g465
g549
tp5523
(lp5524
I00
aI00
aI00
as(g1277
g226
tp5525
(lp5526
I00
aI00
aI00
as(g465
g1277
tp5527
(lp5528
g2756
aI00
aI00
as(g549
g226
tp5529
(lp5530
I00
aI00
aI00
as(g227
g227
tp5531
(lp5532
I00
aI00
aI00
as(g504
g288
tp5533
(lp5534
I00
aI00
aI00
as(g351
g1277
tp5535
(lp5536
g2756
aI00
aI00
as(g288
g1277
tp5537
(lp5538
g2756
aI00
aI00
as(g227
g1277
tp5539
(lp5540
I00
aI00
aI00
as(g227
g351
tp5541
(lp5542
I00
aI00
aI00
as(g549
g288
tp5543
(lp5544
I00
aI00
aI00
as(g288
g549
tp5545
(lp5546
I00
aI00
aI00
as(g226
g351
tp5547
(lp5548
I00
aI00
aI00
as(g1274
g1277
tp5549
(lp5550
I00
aI00
aI00
as(g402
g226
tp5551
(lp5552
I00
aI00
aI00
as(g351
g465
tp5553
(lp5554
I00
aI00
aI00
as(g288
g288
tp5555
(lp5556
I00
aI00
aI00
as(g402
g1274
tp5557
(lp5558
g2756
aI00
aI01
as(g1277
g402
tp5559
(lp5560
I00
aI00
aI00
assg672
g3296
sg2977
(itrajectory_representation.predicates.pick_in_way
PickInWay
p5561
(dp5562
g224
(dp5563
g351
g3800
sg588
g3807
sg226
g3826
sg504
g3845
sg465
g3870
sg549
g3901
sg402
g3418
sg288
g3926
ssg639
(dp5564
g351
(lp5565
sg588
(lp5566
sg226
(lp5567
sg504
(lp5568
sg465
(lp5569
sg549
(lp5570
sg402
(lp5571
sg288
(lp5572
ssg672
(lp5573
g504
ag465
ag588
ag549
ag226
ag288
ag351
ag1277
ag227
ag1274
ag402
ag1277
ag227
ag1274
ag1277
ag227
ag1274
ag1277
ag227
ag1274
ag1277
ag227
ag1274
ag1277
ag227
ag1274
ag1277
ag227
ag1274
ag1277
ag227
ag1274
asg678
g3304
sg107
(dp5574
sg713
g3316
sg1202
Nsg1208
g3316
sg1205
(dp5575
sg1207
I8
sg1269
I01
sg1209
Nsg1210
(dp5576
(g465
g288
tp5577
I00
s(g465
g351
tp5578
I00
s(g226
g549
tp5579
I00
s(g226
g226
tp5580
I00
s(g588
g549
tp5581
I00
s(g588
g226
tp5582
I00
s(g288
g588
tp5583
I00
s(g465
g402
tp5584
I00
s(g504
g226
tp5585
I00
s(g351
g351
tp5586
I00
s(g588
g1274
tp5587
I00
s(g1277
g1274
tp5588
I00
s(g351
g288
tp5589
I00
s(g1274
g288
tp5590
I00
s(g402
g227
tp5591
I00
s(g1277
g588
tp5592
I00
s(g588
g288
tp5593
I00
s(g226
g1277
tp5594
I00
s(g465
g465
tp5595
I00
s(g1274
g465
tp5596
I00
s(g549
g588
tp5597
I00
s(g588
g227
tp5598
I00
s(g504
g549
tp5599
I00
s(g351
g504
tp5600
I00
s(g402
g402
tp5601
I00
s(g588
g1277
tp5602
I00
s(g1274
g588
tp5603
I00
s(g1274
g549
tp5604
I00
s(g1274
g226
tp5605
I00
s(g549
g227
tp5606
I00
s(g288
g351
tp5607
I00
s(g504
g351
tp5608
I00
s(g549
g504
tp5609
I00
s(g1274
g351
tp5610
I00
s(g1277
g227
tp5611
I00
s(g402
g588
tp5612
I00
s(g351
g549
tp5613
I00
s(g1277
g549
tp5614
I00
s(g549
g1277
tp5615
I00
s(g226
g465
tp5616
I00
s(g288
g402
tp5617
I00
s(g226
g588
tp5618
I00
s(g288
g227
tp5619
I00
s(g1277
g1277
tp5620
I00
s(g549
g351
tp5621
I00
s(g402
g465
tp5622
I00
s(g227
g402
tp5623
I00
s(g504
g1274
tp5624
I00
s(g227
g504
tp5625
I00
s(g288
g226
tp5626
I00
s(g226
g402
tp5627
I00
s(g549
g1274
tp5628
I00
s(g226
g504
tp5629
I00
s(g549
g549
tp5630
I00
s(g504
g588
tp5631
I00
s(g1274
g227
tp5632
I00
s(g227
g465
tp5633
I00
s(g351
g227
tp5634
I00
s(g1277
g504
tp5635
I00
s(g227
g288
tp5636
I00
s(g226
g288
tp5637
I00
s(g504
g1277
tp5638
I00
s(g288
g1274
tp5639
I00
s(g504
g465
tp5640
I00
s(g351
g588
tp5641
I00
s(g351
g1274
tp5642
I00
s(g227
g226
tp5643
I00
s(g1277
g288
tp5644
I00
s(g1277
g351
tp5645
I00
s(g504
g227
tp5646
I00
s(g465
g504
tp5647
I00
s(g402
g504
tp5648
I00
s(g227
g549
tp5649
I00
s(g1274
g1274
tp5650
I00
s(g465
g226
tp5651
I00
s(g402
g549
tp5652
I00
s(g1274
g402
tp5653
I00
s(g588
g351
tp5654
I00
s(g1274
g504
tp5655
I00
s(g402
g1277
tp5656
I00
s(g465
g588
tp5657
I00
s(g226
g227
tp5658
I00
s(g402
g351
tp5659
I00
s(g351
g402
tp5660
I00
s(g588
g402
tp5661
I00
s(g1277
g465
tp5662
I00
s(g588
g504
tp5663
I00
s(g549
g465
tp5664
I00
s(g465
g1274
tp5665
I00
s(g504
g504
tp5666
I00
s(g288
g465
tp5667
I00
s(g402
g288
tp5668
I00
s(g588
g465
tp5669
I00
s(g588
g588
tp5670
I00
s(g288
g504
tp5671
I00
s(g465
g227
tp5672
I00
s(g549
g402
tp5673
I00
s(g226
g1274
tp5674
I00
s(g227
g588
tp5675
I00
s(g504
g402
tp5676
I00
s(g351
g226
tp5677
I00
s(g227
g1274
tp5678
I00
s(g465
g549
tp5679
I00
s(g1277
g226
tp5680
I00
s(g465
g1277
tp5681
I00
s(g549
g226
tp5682
I00
s(g227
g227
tp5683
I00
s(g504
g288
tp5684
I00
s(g351
g1277
tp5685
I00
s(g288
g1277
tp5686
I00
s(g227
g1277
tp5687
I00
s(g227
g351
tp5688
I00
s(g549
g288
tp5689
I00
s(g288
g549
tp5690
I00
s(g226
g351
tp5691
I00
s(g1274
g1277
tp5692
I00
s(g402
g226
tp5693
I00
s(g351
g465
tp5694
I00
s(g288
g288
tp5695
I00
s(g402
g1274
tp5696
I00
s(g1277
g402
tp5697
I00
ssg1268
Nsbsg3117
g21
(g22
(I0
tp5698
g24
tp5699
Rp5700
(I1
(I1
I3
tp5701
g236
I00
S'y\xa6\x88\xd3\xc13\n@\x84\xad=\xf6\xb7\x80\x1a\xc0\x8dd$\xdb\xfd\xd8\x18@'
p5702
tp5703
bsg3124
(itrajectory_representation.predicates.is_holding_goal_entity
IsHoldingGoalEntity
p5704
(dp5705
g2722
g2723
sg1209
Nsbsg3127
(dp5706
sg3129
g3304
sbasS'seed'
p5707
NsS'state_prime'
p5708
(lp5709
g3130
asS'problem_idx'
p5710
I113
sb.