(itrajectory_representation.trajectory
Trajectory
p0
(dp1
S'rewards'
p2
(lp3
I10
asS'actions'
p4
(lp5
(itrajectory_representation.operator
Operator
p6
(dp7
S'is_skeleton'
p8
I00
sS'discrete_parameters'
p9
(dp10
S'object'
p11
Vsquare_packing_box1
p12
sS'two_arm_place_region'
p13
S'home_region'
p14
sS'two_arm_place_object'
p15
Vsquare_packing_box1
p16
ssS'type'
p17
S'two_arm_pick_two_arm_place'
p18
sS'continuous_parameters'
p19
(dp20
S'q_goal'
p21
cnumpy.core.multiarray
_reconstruct
p22
(cnumpy
ndarray
p23
(I0
tp24
S'b'
p25
tp26
Rp27
(I1
(I3
tp28
cnumpy
dtype
p29
(S'f8'
p30
I0
I1
tp31
Rp32
(I3
S'<'
p33
NNNI-1
I-1
I0
tp34
bI00
S'\xeaT]t\x8b8\xee?3\x95Yi\xda\xb3\x18\xc0N\xaf\x04p"\x12\x00@'
p35
tp36
bsS'place'
p37
(dp38
g21
g22
(g23
(I0
tp39
g25
tp40
Rp41
(I1
(I3
tp42
g32
I00
S'\x90\xbbg\xd3Z\xa3\xe9?\x1c\x18Z~\xe9\x01\xfe\xbf\xf2\xa6\xffY\xe4{\xe5\xbf'
p43
tp44
bssS'pick'
p45
(dp46
g21
g27
sssS'low_level_motion'
p47
(lp48
g22
(g23
(I0
tp49
g25
tp50
Rp51
(I1
(I3
tp52
g32
I00
S'v\x88\x01\x92\xf8\xcb\xfc?\x08E\xf3d;f\x1b\xc0Y\x8c\x84\x08\x15\xa7\xd2?'
p53
tp54
bag22
(g23
(I0
tp55
g25
tp56
Rp57
(I1
(I3
tp58
g29
(S'f8'
p59
I0
I1
tp60
Rp61
(I3
S'<'
p62
NNNI-1
I-1
I0
tp63
bI00
S'j\xc7\xc0&\x8ag\xf6?h\x9cH4\x7f\xab\x18\xc0\xd8|\x1d\xfc\xcbV\xf2?'
p64
tp65
bag22
(g23
(I0
tp66
g25
tp67
Rp68
(I1
(I3
tp69
g61
I00
S'\xae\xea\x9e\xa3\xa2\xb1\xed?\xa4\xca\x1d?h\x96\x19\xc0dq\xdf\xb1\x9d\xe4\x05@'
p70
tp71
bag27
ag27
asbasS'filename'
p72
S''
p73
sS'states'
p74
(lp75
(itrajectory_representation.shortest_path_pick_and_place_state
ShortestPathPaPState
p76
(dp77
S'place_used'
p78
(dp79
(g16
g14
tp80
(itrajectory_representation.operator
Operator
p81
(dp82
g8
I01
sg9
(dp83
S'region'
p84
g14
sg11
g16
ssg17
S'two_arm_place'
p85
sg19
(dp86
g21
g22
(g23
(I0
tp87
g25
tp88
Rp89
(I1
(I3
tp90
g32
I00
S'\x90\xbbg\xd3Z\xa3\xe9?\x1c\x18Z~\xe9\x01\xfe\xbf\xf2\xa6\xffY\xe4{\xe5\xbf'
p91
tp92
bssg47
(lp93
g22
(g23
(I0
tp94
g25
tp95
Rp96
(I1
(I3
tp97
g32
I00
S'\xceT]t\x8b8\xee?0\x95Yi\xda\xb3\x18\xc0S\xaf\x04p"\x12\x00@'
p98
tp99
bag22
(g23
(I0
tp100
g25
tp101
Rp102
(I1
(I3
tp103
g61
I00
S'E6\xa2Z]\x01\xe8?\x8b\x06T\x92\xa7\x82\x16\xc0q\xc1\x9f~\xe7\n\xfb?'
p104
tp105
bag22
(g23
(I0
tp106
g25
tp107
Rp108
(I1
(I3
tp109
g61
I00
S'v\xb8^\x85\xa7[\xea?x\xbe\xff2t\x8d\x13\xc0\x88\x85\x8cCyH\xf6?'
p110
tp111
bag22
(g23
(I0
tp112
g25
tp113
Rp114
(I1
(I3
tp115
g61
I00
S'\xc2\xda(e\x83\x1a\xeb?\x8au\x8d3\xa6E\x11\xc0\xb4c\x1b\xed_\xfd\xfa?'
p116
tp117
bag22
(g23
(I0
tp118
g25
tp119
Rp120
(I1
(I3
tp121
g61
I00
S'\xe4u**\x0e5\xe9?\xaa\xfd\r\xed\xc4\xf6\r\xc0\x0fDE0\x1f\x0b\xfe?'
p122
tp123
bag22
(g23
(I0
tp124
g25
tp125
Rp126
(I1
(I3
tp127
g61
I00
S'\x06\x11,\xef\x98O\xe7??\x10\x01s=b\t\xc04\x92\xb79o\x8c\x00@'
p128
tp129
bag22
(g23
(I0
tp130
g25
tp131
Rp132
(I1
(I3
tp133
g61
I00
S'\xf4\xfdJ\x1a(#\xec?H"\x9cD\x1aE\x05\xc0.\xa9\x0b\x87\xf8\xe1\x02@'
p134
tp135
bag22
(g23
(I0
tp136
g25
tp137
Rp138
(I1
(I3
tp139
g61
I00
S'\xc8\x80ij\x0cn\xf2?\x84^4\x9bO\xf5\xfe\xbf\xfe\x8e\xc9\xd2\xe3<\x16@'
p140
tp141
bag89
ag89
asbssS'place_in_way'
p142
(itrajectory_representation.predicates.place_in_way
PlaceInWay
p143
(dp144
S'mc_path_to_entity'
p145
(dp146
(Vrectangular_packing_box3
p147
S'home_region'
p148
tp149
(lp150
g22
(g23
(I0
tp151
g25
tp152
Rp153
(I1
(I3
tp154
g29
(S'f8'
p155
I0
I1
tp156
Rp157
(I3
S'<'
p158
NNNI-1
I-1
I0
tp159
bI00
S'x\x83W\xd9\x80s\xe4?h~7\xfe}\xef\x1e\xc0b\x03q=Bf\x0c@'
p160
tp161
bag22
(g23
(I0
tp162
g25
tp163
Rp164
(I1
(I3
tp165
g29
(S'f8'
p166
I0
I1
tp167
Rp168
(I3
S'<'
p169
NNNI-1
I-1
I0
tp170
bI00
S'\x82\xeb.\xbfl\xf2\xe7?\xb8@O\xd3\x83\xb3\x1d\xc0\xc5\xeb\x9c\xf6Lc\xff\xbf'
p171
tp172
bag22
(g23
(I0
tp173
g25
tp174
Rp175
(I1
(I3
tp176
g168
I00
S'\xf8\xfc\x1a\xd0\xc9l\xe8?\x8a\x897\x8e~\x98\x1a\xc0\xaf\xf7\xb87\xc6\xa7\x01\xc0'
p177
tp178
bag22
(g23
(I0
tp179
g25
tp180
Rp181
(I1
(I3
tp182
g168
I00
S'\xf8C*\xbe\x14\xcf\xe8?\x81d\xab\xeb\xa8<\x18\xc0\xc8\\\xf4\x8c\xc3\xfa\xfe\xbf'
p183
tp184
bag22
(g23
(I0
tp185
g25
tp186
Rp187
(I1
(I3
tp188
g168
I00
S'\xd0\xcb\x13\x8f\xaa\x9d\xed?\x90\x01<]3\x06\x16\xc0F\xf1\xe7x32\x02\xc0'
p189
tp190
bag22
(g23
(I0
tp191
g25
tp192
Rp193
(I1
(I3
tp194
g168
I00
S'l[\xc4\x16<\xe6\xe9?\xa6\xa0\x90\x84X\x9f\x13\xc0\xc2\xd74Q\x00\xaf\xff\xbf'
p195
tp196
bag22
(g23
(I0
tp197
g25
tp198
Rp199
(I1
(I3
tp200
g168
I00
S"\xaeJ\xbd\x1936\xec?\x04\x13\xd4'\x9f\x88\x10\xc0\x805qo\xb6\xe6\xff\xbf"
p201
tp202
bag22
(g23
(I0
tp203
g25
tp204
Rp205
(I1
(I3
tp206
g168
I00
S'\xf09\xb6\x1c*\x86\xee?\xc4\n/\x96\xcb\xe3\n\xc0\xa0\xc9\xd6F6\x0f\x00\xc0'
p207
tp208
bag22
(g23
(I0
tp209
g25
tp210
Rp211
(I1
(I3
tp212
g168
I00
S'3\xe9\xaf\x05T\x89\xe7?+~\xcb\xd3\x15\xc7\x04\xc0x6(d5\xed\x07@'
p213
tp214
bas(Vsquare_packing_box4
p215
g148
tp216
(lp217
g22
(g23
(I0
tp218
g25
tp219
Rp220
(I1
(I3
tp221
g157
I00
S'/\x96\x03\x8d\n5\n@\xb6\x8fS\t\x9dh\x18\xc0\x14\xf1\xf6~\x94\xeb\x17@'
p222
tp223
bag22
(g23
(I0
tp224
g25
tp225
Rp226
(I1
(I3
tp227
g168
I00
S'nv\xf9k\xe2Y\x05@\xbf\xa3\xf80pj\x16\xc0\x85\x14\xd6\xdd\x83\x18\x04\xc0'
p228
tp229
bag22
(g23
(I0
tp230
g25
tp231
Rp232
(I1
(I3
tp233
g168
I00
S'_\x1fd\x97D>\x00@W\xf2\x9b\xb2\x92\xd8\x15\xc0\x99\xbc\xd43\xf6\xfa\x08\xc0'
p234
tp235
bag22
(g23
(I0
tp236
g25
tp237
Rp238
(I1
(I3
tp239
g168
I00
S'R\x12);\xaf\xa5\xf7?\xf3\xf9\xeb\x07c\xef\x15\xc0\xf0V^\xd6\x94\x96\x05\xc0'
p240
tp241
bag22
(g23
(I0
tp242
g25
tp243
Rp244
(I1
(I3
tp245
g168
I00
S'\xd0\xcb\x13\x8f\xaa\x9d\xed?\x90\x01<]3\x06\x16\xc0F\xf1\xe7x32\x02\xc0'
p246
tp247
bag22
(g23
(I0
tp248
g25
tp249
Rp250
(I1
(I3
tp251
g168
I00
S'l[\xc4\x16<\xe6\xe9?\xa6\xa0\x90\x84X\x9f\x13\xc0\xc2\xd74Q\x00\xaf\xff\xbf'
p252
tp253
bag22
(g23
(I0
tp254
g25
tp255
Rp256
(I1
(I3
tp257
g168
I00
S"\xaeJ\xbd\x1936\xec?\x04\x13\xd4'\x9f\x88\x10\xc0\x805qo\xb6\xe6\xff\xbf"
p258
tp259
bag22
(g23
(I0
tp260
g25
tp261
Rp262
(I1
(I3
tp263
g168
I00
S'\xf09\xb6\x1c*\x86\xee?\xc4\n/\x96\xcb\xe3\n\xc0\xa0\xc9\xd6F6\x0f\x00\xc0'
p264
tp265
bag22
(g23
(I0
tp266
g25
tp267
Rp268
(I1
(I3
tp269
g168
I00
S'3\xe9\xaf\x05T\x89\xe7?+~\xcb\xd3\x15\xc7\x04\xc0x6(d5\xed\x07@'
p270
tp271
bas(Vrectangular_packing_box4
p272
g148
tp273
(lp274
g22
(g23
(I0
tp275
g25
tp276
Rp277
(I1
(I3
tp278
g157
I00
S'\xf90\x7f\xc2\xd2=\t@u\x03\x8ak\x0e\xcf\x1d\xc0\x96p\xb4O\r\xfa\x16@'
p279
tp280
bag22
(g23
(I0
tp281
g25
tp282
Rp283
(I1
(I3
tp284
g168
I00
S'\x89\xcfHU\xa1\xf5\x05@\xee\x9b\xa6\x01<)\x1c\xc0W\xa3jE\xe6\xde\x01\xc0'
p285
tp286
bag22
(g23
(I0
tp287
g25
tp288
Rp289
(I1
(I3
tp290
g168
I00
S'2]\x933g}\x00@\xebx\x00&R!\x1b\xc0\xce\x170ZD}\x00\xc0'
p291
tp292
bag22
(g23
(I0
tp293
g25
tp294
Rp295
(I1
(I3
tp296
g168
I00
S'4#\xe8i\x80D\xf8?\xdd\x1dlTl\\\x19\xc0m\xc1\x1a\xec\xde\x01\x01\xc0'
p297
tp298
bag22
(g23
(I0
tp299
g25
tp300
Rp301
(I1
(I3
tp302
g168
I00
S'\x9f5<Q\xb2\xb3\xf7?\xb3\xd6LI,\xe8\x16\xc0\xc2\x13\xbbtu\x87\x00\xc0'
p303
tp304
bag22
(g23
(I0
tp305
g25
tp306
Rp307
(I1
(I3
tp308
g168
I00
S'\xd0\xcb\x13\x8f\xaa\x9d\xed?\x90\x01<]3\x06\x16\xc0F\xf1\xe7x32\x02\xc0'
p309
tp310
bag22
(g23
(I0
tp311
g25
tp312
Rp313
(I1
(I3
tp314
g168
I00
S'l[\xc4\x16<\xe6\xe9?\xa6\xa0\x90\x84X\x9f\x13\xc0\xc2\xd74Q\x00\xaf\xff\xbf'
p315
tp316
bag22
(g23
(I0
tp317
g25
tp318
Rp319
(I1
(I3
tp320
g168
I00
S"\xaeJ\xbd\x1936\xec?\x04\x13\xd4'\x9f\x88\x10\xc0\x805qo\xb6\xe6\xff\xbf"
p321
tp322
bag22
(g23
(I0
tp323
g25
tp324
Rp325
(I1
(I3
tp326
g168
I00
S'\xf09\xb6\x1c*\x86\xee?\xc4\n/\x96\xcb\xe3\n\xc0\xa0\xc9\xd6F6\x0f\x00\xc0'
p327
tp328
bag22
(g23
(I0
tp329
g25
tp330
Rp331
(I1
(I3
tp332
g168
I00
S'3\xe9\xaf\x05T\x89\xe7?+~\xcb\xd3\x15\xc7\x04\xc0x6(d5\xed\x07@'
p333
tp334
bas(Vsquare_packing_box1
p335
g148
tp336
(lp337
g22
(g23
(I0
tp338
g25
tp339
Rp340
(I1
(I3
tp341
g157
I00
S'\xf8T]t\x8b8\xee?0\x95Yi\xda\xb3\x18\xc0N\xaf\x04p"\x12\x00@'
p342
tp343
bag22
(g23
(I0
tp344
g25
tp345
Rp346
(I1
(I3
tp347
g168
I00
S'\x85\\2\xba\x0b5\xf5?I\r\x06\xd10\xfb\x15\xc0\x9e\x11\xee\xd8\xb9\xd7\xf5?'
p348
tp349
bag22
(g23
(I0
tp350
g25
tp351
Rp352
(I1
(I3
tp353
g168
I00
S'v\xb8^\x85\xa7[\xea?x\xbe\xff2t\x8d\x13\xc0\x88\x85\x8cCyH\xf6?'
p354
tp355
bag22
(g23
(I0
tp356
g25
tp357
Rp358
(I1
(I3
tp359
g168
I00
S'\xc2\xda(e\x83\x1a\xeb?\x8au\x8d3\xa6E\x11\xc0\xb4c\x1b\xed_\xfd\xfa?'
p360
tp361
bag22
(g23
(I0
tp362
g25
tp363
Rp364
(I1
(I3
tp365
g168
I00
S'\xe4u**\x0e5\xe9?\xaa\xfd\r\xed\xc4\xf6\r\xc0\x0fDE0\x1f\x0b\xfe?'
p366
tp367
bag22
(g23
(I0
tp368
g25
tp369
Rp370
(I1
(I3
tp371
g168
I00
S'\x06\x11,\xef\x98O\xe7??\x10\x01s=b\t\xc04\x92\xb79o\x8c\x00@'
p372
tp373
bag22
(g23
(I0
tp374
g25
tp375
Rp376
(I1
(I3
tp377
g168
I00
S'\x92\xaf\xf3P\x96O\xc2?(\xa1:\x8er}\x05\xc0\xd4_\x91\xb3\xffL\x02@'
p378
tp379
bas(Vsquare_packing_box2
p380
g148
tp381
(lp382
g22
(g23
(I0
tp383
g25
tp384
Rp385
(I1
(I3
tp386
g157
I00
S'\xba\x0f\xeaf\xcf\xc3\x04@\x7f\t\xa4\x83\xffd\x1f\xc03\xb2\x1az\x97\xad\xf5?'
p387
tp388
bag22
(g23
(I0
tp389
g25
tp390
Rp391
(I1
(I3
tp392
g168
I00
S'\xf6\x9c\xbc\xd8\xea\x86\x05@\xc8\t,\x83\x04\xa9\x1c\xc0HA\x84\xf4\xe0S\xf1?'
p393
tp394
bag22
(g23
(I0
tp395
g25
tp396
Rp397
(I1
(I3
tp398
g168
I00
S'\x80e\xcc\t\x9a\xde\x04@<\x13[@\x0e\xa9\x19\xc0\xca\xb9\x9c\x08\r\xad\xf4?'
p399
tp400
bag22
(g23
(I0
tp401
g25
tp402
Rp403
(I1
(I3
tp404
g168
I00
S'\x19\xdbXU\x9c\xa8\x04@\xe6\xf1\xeb\xae\xcb\x05\x18\xc0\xce\x9cp\x98\xaf*\xeb?'
p405
tp406
bag22
(g23
(I0
tp407
g25
tp408
Rp409
(I1
(I3
tp410
g168
I00
S'/\xe1\x02^.|\x00@\xb8\xae\xc5\xcfF\x16\x17\xc0\xf8\x01)d\xc5\xf9\xe2?'
p411
tp412
bag22
(g23
(I0
tp413
g25
tp414
Rp415
(I1
(I3
tp416
g168
I00
S'\x85\\2\xba\x0b5\xf5?I\r\x06\xd10\xfb\x15\xc0\x9e\x11\xee\xd8\xb9\xd7\xf5?'
p417
tp418
bag22
(g23
(I0
tp419
g25
tp420
Rp421
(I1
(I3
tp422
g168
I00
S'v\xb8^\x85\xa7[\xea?x\xbe\xff2t\x8d\x13\xc0\x88\x85\x8cCyH\xf6?'
p423
tp424
bag22
(g23
(I0
tp425
g25
tp426
Rp427
(I1
(I3
tp428
g168
I00
S'\xc2\xda(e\x83\x1a\xeb?\x8au\x8d3\xa6E\x11\xc0\xb4c\x1b\xed_\xfd\xfa?'
p429
tp430
bag22
(g23
(I0
tp431
g25
tp432
Rp433
(I1
(I3
tp434
g168
I00
S'\xe4u**\x0e5\xe9?\xaa\xfd\r\xed\xc4\xf6\r\xc0\x0fDE0\x1f\x0b\xfe?'
p435
tp436
bag22
(g23
(I0
tp437
g25
tp438
Rp439
(I1
(I3
tp440
g168
I00
S'\x06\x11,\xef\x98O\xe7??\x10\x01s=b\t\xc04\x92\xb79o\x8c\x00@'
p441
tp442
bag22
(g23
(I0
tp443
g25
tp444
Rp445
(I1
(I3
tp446
g168
I00
S'\x92\xaf\xf3P\x96O\xc2?(\xa1:\x8er}\x05\xc0\xd4_\x91\xb3\xffL\x02@'
p447
tp448
bas(Vrectangular_packing_box1
p449
g148
tp450
(lp451
g22
(g23
(I0
tp452
g25
tp453
Rp454
(I1
(I3
tp455
g157
I00
S'WFT\x11\x89\x08\t@Q\xd9\x7f\x9a1y\x18\xc0\xf6\xc4\xcaG\xf0\x90\x00@'
p456
tp457
bag22
(g23
(I0
tp458
g25
tp459
Rp460
(I1
(I3
tp461
g168
I00
S'\xf8d\x877\x12\xfd\x04@h\xdbW\x9a\x83\x8e\x16\xc0\x87\xf16\xb9\x03k\x05@'
p462
tp463
bag22
(g23
(I0
tp464
g25
tp465
Rp466
(I1
(I3
tp467
g168
I00
S'\xc7\xc7\x06s\xd6\xa3\xff?3\x91\xe4\x97\xb5\x07\x16\xc0\x1bW\xbc\xbfY:\x06@'
p468
tp469
bag22
(g23
(I0
tp470
g25
tp471
Rp472
(I1
(I3
tp473
g168
I00
S'\x84\xa2s4\xa1\xd0\xf6?E=|\xb9\xcam\x17\xc0\xa93^V\xfc\xed\x05@'
p474
tp475
bag22
(g23
(I0
tp476
g25
tp477
Rp478
(I1
(I3
tp479
g168
I00
S'f\xb4\x9c\x07\xac\xbf\xec?n\x96\x96\x9e\x90n\x16\xc0uo!\xa9\x9b\x82\x07@'
p480
tp481
bag22
(g23
(I0
tp482
g25
tp483
Rp484
(I1
(I3
tp485
g168
I00
S'm\xd5h\x072\x03\xea?\xdf\xe5\xe82\xd3\x17\x14\xc0\x08\x9e\xe1\xfbO\x94\x08@'
p486
tp487
bag22
(g23
(I0
tp488
g25
tp489
Rp490
(I1
(I3
tp491
g168
I00
S'\xc6\x05\xbdtg\xd9\xe2?F\xdf\x9d@\\\xf3\x11\xc0\x1a\xc4.\xbb\xcc\x12\x02@'
p492
tp493
bag22
(g23
(I0
tp494
g25
tp495
Rp496
(I1
(I3
tp497
g168
I00
S'3z\xed\x8eN)\xe4?\x0c\x96\xd4\xa2\x0e\xd0\r\xc0\xbd%\xf5{\xe9\xf9\x03@'
p498
tp499
bag22
(g23
(I0
tp500
g25
tp501
Rp502
(I1
(I3
tp503
g168
I00
S'\xaf0\xe9h\xba~\xee?k\xbb\xd8\xd4\xd0g\t\xc09\x9ey\xed\xb06\x06@'
p504
tp505
bag22
(g23
(I0
tp506
g25
tp507
Rp508
(I1
(I3
tp509
g168
I00
S'\xf4\xfdJ\x1a(#\xec?H"\x9cD\x1aE\x05\xc0.\xa9\x0b\x87\xf8\xe1\x02@'
p510
tp511
bas(Vsquare_packing_box3
p512
g148
tp513
(lp514
g22
(g23
(I0
tp515
g25
tp516
Rp517
(I1
(I3
tp518
g157
I00
S'h\x13\x84\xce\xbe\xe7\x07@\x7f\x99j\xdck\xc1\x1b\xc0\xf4\x1149\x0f\xa8\xf9?'
p519
tp520
bag22
(g23
(I0
tp521
g25
tp522
Rp523
(I1
(I3
tp524
g168
I00
S'\x80e\xcc\t\x9a\xde\x04@<\x13[@\x0e\xa9\x19\xc0\xca\xb9\x9c\x08\r\xad\xf4?'
p525
tp526
bag22
(g23
(I0
tp527
g25
tp528
Rp529
(I1
(I3
tp530
g168
I00
S'\xb1\x91\x83\xd6J:\x00@X\xbf\x9b\xa3\xf7;\x19\xc0\xb4\xa9\x94\xff\xff\xd1\xec?'
p531
tp532
bag22
(g23
(I0
tp533
g25
tp534
Rp535
(I1
(I3
tp536
g168
I00
S'j\xc7\xc0&\x8ag\xf6?h\x9cH4\x7f\xab\x18\xc0\xd8|\x1d\xfc\xcbV\xf2?'
p537
tp538
bag22
(g23
(I0
tp539
g25
tp540
Rp541
(I1
(I3
tp542
g168
I00
S'\x85\\2\xba\x0b5\xf5?I\r\x06\xd10\xfb\x15\xc0\x9e\x11\xee\xd8\xb9\xd7\xf5?'
p543
tp544
bag22
(g23
(I0
tp545
g25
tp546
Rp547
(I1
(I3
tp548
g168
I00
S'v\xb8^\x85\xa7[\xea?x\xbe\xff2t\x8d\x13\xc0\x88\x85\x8cCyH\xf6?'
p549
tp550
bag22
(g23
(I0
tp551
g25
tp552
Rp553
(I1
(I3
tp554
g168
I00
S'\xc2\xda(e\x83\x1a\xeb?\x8au\x8d3\xa6E\x11\xc0\xb4c\x1b\xed_\xfd\xfa?'
p555
tp556
bag22
(g23
(I0
tp557
g25
tp558
Rp559
(I1
(I3
tp560
g168
I00
S'\xe4u**\x0e5\xe9?\xaa\xfd\r\xed\xc4\xf6\r\xc0\x0fDE0\x1f\x0b\xfe?'
p561
tp562
bag22
(g23
(I0
tp563
g25
tp564
Rp565
(I1
(I3
tp566
g168
I00
S'\x06\x11,\xef\x98O\xe7??\x10\x01s=b\t\xc04\x92\xb79o\x8c\x00@'
p567
tp568
bag22
(g23
(I0
tp569
g25
tp570
Rp571
(I1
(I3
tp572
g168
I00
S'\x92\xaf\xf3P\x96O\xc2?(\xa1:\x8er}\x05\xc0\xd4_\x91\xb3\xffL\x02@'
p573
tp574
bas(Vrectangular_packing_box2
p575
g148
tp576
(lp577
g22
(g23
(I0
tp578
g25
tp579
Rp580
(I1
(I3
tp581
g157
I00
S'\x845\x06*\x16\xc3\xe8?*\x16\xb1[$v\x1e\xc0\xeb\xae\xf5\xc1\x8c\xdb\x04@'
p582
tp583
bag22
(g23
(I0
tp584
g25
tp585
Rp586
(I1
(I3
tp587
g168
I00
S'\x0c\x0f=\x82\xe8\x10\xef?\x95;\xd2\x17&\xe7\x1b\xc0\xf2\xbb\xbd\xb4q\x0b\t@'
p588
tp589
bag22
(g23
(I0
tp590
g25
tp591
Rp592
(I1
(I3
tp593
g168
I00
S'\xae\xea\x9e\xa3\xa2\xb1\xed?\xa4\xca\x1d?h\x96\x19\xc0dq\xdf\xb1\x9d\xe4\x05@'
p594
tp595
bag22
(g23
(I0
tp596
g25
tp597
Rp598
(I1
(I3
tp599
g168
I00
S'o\xd6\x82\xea\x7f\xb2\xed?9\xf2C\x0b?\xfd\x16\xc0(?d\xe9@\xb5\x02@'
p600
tp601
bag22
(g23
(I0
tp602
g25
tp603
Rp604
(I1
(I3
tp605
g168
I00
S'&>c9\x01,\xeb?\xb2\xc2\xf0\x02\xce\x8e\x14\xc0\xd8p\xbb2\x14\xd2\x03@'
p606
tp607
bag22
(g23
(I0
tp608
g25
tp609
Rp610
(I1
(I3
tp611
g168
I00
S'\xc6\x05\xbdtg\xd9\xe2?F\xdf\x9d@\\\xf3\x11\xc0\x1a\xc4.\xbb\xcc\x12\x02@'
p612
tp613
bag22
(g23
(I0
tp614
g25
tp615
Rp616
(I1
(I3
tp617
g168
I00
S'3z\xed\x8eN)\xe4?\x0c\x96\xd4\xa2\x0e\xd0\r\xc0\xbd%\xf5{\xe9\xf9\x03@'
p618
tp619
bag22
(g23
(I0
tp620
g25
tp621
Rp622
(I1
(I3
tp623
g168
I00
S'\xaf0\xe9h\xba~\xee?k\xbb\xd8\xd4\xd0g\t\xc09\x9ey\xed\xb06\x06@'
p624
tp625
bag22
(g23
(I0
tp626
g25
tp627
Rp628
(I1
(I3
tp629
g168
I00
S'\xf4\xfdJ\x1a(#\xec?H"\x9cD\x1aE\x05\xc0.\xa9\x0b\x87\xf8\xe1\x02@'
p630
tp631
bassS'mc_to_entity'
p632
(dp633
(g147
g148
tp634
(lp635
Vrectangular_packing_box2
p636
aVsquare_packing_box1
p637
as(g215
g148
tp638
(lp639
Vsquare_packing_box3
p640
aVrectangular_packing_box1
p641
aVsquare_packing_box1
p642
as(g272
g148
tp643
(lp644
Vsquare_packing_box2
p645
aVsquare_packing_box1
p646
as(g335
g148
tp647
(lp648
s(g380
g148
tp649
(lp650
Vsquare_packing_box3
p651
aVrectangular_packing_box1
p652
aVsquare_packing_box1
p653
as(g449
g148
tp654
(lp655
Vsquare_packing_box3
p656
aVsquare_packing_box1
p657
as(g512
g148
tp658
(lp659
Vsquare_packing_box2
p660
aVrectangular_packing_box1
p661
aVsquare_packing_box1
p662
as(g575
g148
tp663
(lp664
Vsquare_packing_box1
p665
assS'reachable_entities'
p666
(lp667
Vrectangular_packing_box2
p668
aVrectangular_packing_box3
p669
aVsquare_packing_box2
p670
ag12
asS'collides'
p671
(dp672
Vrectangular_packing_box4
p673
c__builtin__
set
p674
((lp675
I193
aI565
aI387
aI614
aI617
aI269
aI270
aI111
aI339
aI212
aI245
aI246
aI280
aI479
aI381
aI213
atp676
Rp677
sVrectangular_packing_box2
p678
g674
((lp679
I384
aI257
aI134
aI394
aI523
aI532
aI580
aI155
aI157
aI158
aI163
aI164
aI165
aI433
aI308
aI575
aI452
aI197
aI583
aI328
aI458
aI589
aI338
aI83
aI478
aI356
aI229
aI518
aI502
atp680
Rp681
sVrectangular_packing_box3
p682
g674
((lp683
I257
aI356
aI229
aI265
aI589
aI366
aI564
aI532
aI478
aI502
aI452
aI158
aI159
atp684
Rp685
sVrectangular_packing_box1
p686
g674
((lp687
I1
aI2
aI393
aI395
aI403
aI539
aI541
aI160
aI289
aI37
aI38
aI39
aI40
aI41
aI42
aI555
aI304
aI435
aI62
aI288
aI454
aI348
aI611
aI550
aI115
aI248
aI380
atp688
Rp689
sVsquare_packing_box2
p690
g674
((lp691
I513
aI260
aI577
aI268
aI194
aI405
aI548
aI511
aI179
aI436
aI440
aI65
aI66
aI68
aI210
aI211
aI340
aI90
aI91
aI220
aI479
aI354
aI613
aI358
aI113
aI114
aI375
aI212
aI123
aI254
aI255
atp692
Rp693
sVsquare_packing_box3
p694
g674
((lp695
I2
aI393
aI435
aI144
aI403
aI548
aI37
aI38
aI39
aI40
aI41
aI302
aI303
aI561
aI178
aI307
aI54
aI442
aI62
aI63
aI577
aI194
aI438
aI376
aI220
aI342
aI343
aI348
aI605
aI611
aI612
aI550
aI367
aI114
aI500
aI247
aI248
aI377
aI511
atp696
Rp697
sVsquare_packing_box1
p698
g674
((lp699
I517
aI7
aI8
aI9
aI32
aI33
aI34
aI43
aI44
aI45
aI56
aI186
aI189
aI196
aI71
aI456
aI459
aI472
aI94
aI95
aI484
aI233
aI234
aI235
aI108
atp700
Rp701
sVsquare_packing_box4
p702
g674
((lp703
I545
aI546
aI453
aI425
aI367
aI368
aI369
aI370
aI371
aI474
aI571
atp704
Rp705
ssg78
g79
sS'pick_used'
p706
(dp707
Vrectangular_packing_box4
p708
(itrajectory_representation.operator
Operator
p709
(dp710
g8
I01
sg9
(dp711
S'object'
p712
Vrectangular_packing_box4
p713
ssg17
S'two_arm_pick'
p714
sg19
(dp715
S'q_goal'
p716
(lp717
g22
(g23
(I0
tp718
g25
tp719
Rp720
(I1
(I3
tp721
g157
I00
S'\xf80\x7f\xc2\xd2=\t@v\x03\x8ak\x0e\xcf\x1d\xc0\x12\xe4}$p?\xe1\xbf'
p722
tp723
bag22
(g23
(I0
tp724
g25
tp725
Rp726
(I1
(I3
tp727
g157
I00
S'1-.\xe2\xba\xdd\t@\xf4\xf0d\xdaoA\x1d\xc0\xc3y/2\x02\x0c\xd6\xbf'
p728
tp729
bag22
(g23
(I0
tp730
g25
tp731
Rp732
(I1
(I3
tp733
g157
I00
S"\xd0m0\x11t\xd7\t@\xab\x1d\xfa\xee\x80\xc0\x1d\xc0\xf6\t\xf5'\xa1\x8f\xdb\xbf"
p734
tp735
bag22
(g23
(I0
tp736
g25
tp737
Rp738
(I1
(I3
tp739
g157
I00
S'p_/\\\x0c\xbd\t@\xc8\xee#\x109\x94\x1d\xc0&X\x10\t\x08\xa6\xd6\xbf'
p740
tp741
bag22
(g23
(I0
tp742
g25
tp743
Rp744
(I1
(I3
tp745
g157
I00
S'\x03\x98lG\xf5T\n@\x19H\x9a\x969\x91\x1c\xc0\x1cC`\x19Jk\xca\xbf'
p746
tp747
basS'is_feasible'
p748
I00
ssg47
(lp749
g22
(g23
(I0
tp750
g25
tp751
Rp752
(I1
(I3
tp753
g157
I00
S'|\x88\x01\x92\xf8\xcb\xfc?\nE\xf3d;f\x1b\xc0Y\x8c\x84\x08\x15\xa7\xd2?'
p754
tp755
bag22
(g23
(I0
tp756
g25
tp757
Rp758
(I1
(I3
tp759
g168
I00
S'b\x95[\xf7r*\x00@:\x8f7a\xbf]\x1c\xc0\x98.\xce\xc6\x89M\xf2?'
p760
tp761
bag22
(g23
(I0
tp762
g25
tp763
Rp764
(I1
(I3
tp765
g168
I00
S'0\xf2\xd6\x9e\xed\xca\x04@\xdc>\xfd\x07B\x8f\x1d\xc0\xe2\xaf5\x16\xb4\x0c\xda?'
p766
tp767
bag720
asbsg668
(itrajectory_representation.operator
Operator
p768
(dp769
g8
I01
sg9
(dp770
g712
Vrectangular_packing_box2
p771
ssg17
g714
sg19
(dp772
g716
(lp773
g22
(g23
(I0
tp774
g25
tp775
Rp776
(I1
(I3
tp777
g157
I00
S'\x845\x06*\x16\xc3\xe8?+\x16\xb1[$v\x1e\xc0\xeb\xae\xf5\xc1\x8c\xdb\x04@'
p778
tp779
bag22
(g23
(I0
tp780
g25
tp781
Rp782
(I1
(I3
tp783
g157
I00
S'u\x93\xffH\\!\xe8?L\\\xd4j>\xf7\x1e\xc0sH\x98\xe1\xaa\xc4\x00@'
p784
tp785
bag22
(g23
(I0
tp786
g25
tp787
Rp788
(I1
(I3
tp789
g157
I00
S"\xc4\xaf'\x9bCe\xe9?\xdby\xe7\xc3\xcbo\x1e\xc0Zy\t\x8aM\xa9\x04@"
p790
tp791
bag22
(g23
(I0
tp792
g25
tp793
Rp794
(I1
(I3
tp795
g157
I00
S'\xbd\xf9\x7f\x0f\xd3\x05\xe0?\xc3)\xd8\xea(\xe6\x19\xc0\x8f\xe9\xf9\x96\xe9\xa1\x01\xc0'
p796
tp797
basg748
I00
ssg47
(lp798
g22
(g23
(I0
tp799
g25
tp800
Rp801
(I1
(I3
tp802
g157
I00
S'|\x88\x01\x92\xf8\xcb\xfc?\nE\xf3d;f\x1b\xc0Y\x8c\x84\x08\x15\xa7\xd2?'
p803
tp804
bag22
(g23
(I0
tp805
g25
tp806
Rp807
(I1
(I3
tp808
g168
I00
S'<|\xa2\xc3\xfag\xfe?Q\xd0\th}W\x1b\xc0\x8b\xe36n\xc16\xce\xbf'
p809
tp810
bag22
(g23
(I0
tp811
g25
tp812
Rp813
(I1
(I3
tp814
g168
I00
S'Sx\x1f\xdc\xa9\xe1\xf5?\xb7\xb2\x19\xd8\xf1{\x1c\xc0\x8c\xd5\xa8XX\x00\x08\xc0'
p815
tp816
bag788
asbsg669
(itrajectory_representation.operator
Operator
p817
(dp818
g8
I01
sg9
(dp819
g712
Vrectangular_packing_box3
p820
ssg17
g714
sg19
(dp821
g716
(lp822
g22
(g23
(I0
tp823
g25
tp824
Rp825
(I1
(I3
tp826
g157
I00
S'x\x83W\xd9\x80s\xe4?h~7\xfe}\xef\x1e\xc0\xcdV\x17k\xb4\xdd\x05\xc0'
p827
tp828
bag22
(g23
(I0
tp829
g25
tp830
Rp831
(I1
(I3
tp832
g157
I00
S'\xa4\xeeu\xad\x05\x06\xe1?_\xb5\xe0\x96jA\x1e\xc0\xb3\xf3\xa4\x86+\x06\x02\xc0'
p833
tp834
bag22
(g23
(I0
tp835
g25
tp836
Rp837
(I1
(I3
tp838
g157
I00
S'i\r\x17\xcd\xe7z\xe6?\x1b\xf3sq\r&\x1f\xc0d\x00\x15[\xf5{\x03\xc0'
p839
tp840
bag22
(g23
(I0
tp841
g25
tp842
Rp843
(I1
(I3
tp844
g157
I00
S'\xf4\x85\xc2J\x04\xc8\xe6?\x0b\xe3\x85\x17\xc1\xdd\x1e\xc0\t\xc0\x9bsmO\x05\xc0'
p845
tp846
basg748
I00
ssg47
(lp847
g22
(g23
(I0
tp848
g25
tp849
Rp850
(I1
(I3
tp851
g157
I00
S'|\x88\x01\x92\xf8\xcb\xfc?\nE\xf3d;f\x1b\xc0Y\x8c\x84\x08\x15\xa7\xd2?'
p852
tp853
bag22
(g23
(I0
tp854
g25
tp855
Rp856
(I1
(I3
tp857
g168
I00
S'JyH\x8ez\xd6\xfa?\xb3\xf7h\x83\xea\xba\x1a\xc0u\xf9Uf\xb7m\xe0?'
p858
tp859
bag22
(g23
(I0
tp860
g25
tp861
Rp862
(I1
(I3
tp863
g168
I00
S'\x0c\x0f=\x82\xe8\x10\xef?\x95;\xd2\x17&\xe7\x1b\xc0\xf2\xbb\xbd\xb4q\x0b\t@'
p864
tp865
bag843
asbsVrectangular_packing_box1
p866
(itrajectory_representation.operator
Operator
p867
(dp868
g8
I01
sg9
(dp869
g712
Vrectangular_packing_box1
p870
ssg17
g714
sg19
(dp871
g716
(lp872
g22
(g23
(I0
tp873
g25
tp874
Rp875
(I1
(I3
tp876
g157
I00
S'UFT\x11\x89\x08\t@S\xd9\x7f\x9a1y\x18\xc0\xf6\xc4\xcaG\xf0\x90\x00@'
p877
tp878
bag22
(g23
(I0
tp879
g25
tp880
Rp881
(I1
(I3
tp882
g157
I00
S'\x1a\xed\xc8\xfc\x80\x99\t@\xc6\xb0B\x1e\x9f=\x18\xc0~\x086\xd8~N\x03@'
p883
tp884
bag22
(g23
(I0
tp885
g25
tp886
Rp887
(I1
(I3
tp888
g157
I00
S'#.I\x98\x7fU\t@\xf5\x97\xa9\x92\xa3H\x18\xc0\xb5m\xb1mJ\xfd\x00@'
p889
tp890
basg748
I00
ssg47
(lp891
g22
(g23
(I0
tp892
g25
tp893
Rp894
(I1
(I3
tp895
g157
I00
S'|\x88\x01\x92\xf8\xcb\xfc?\nE\xf3d;f\x1b\xc0Y\x8c\x84\x08\x15\xa7\xd2?'
p896
tp897
bag22
(g23
(I0
tp898
g25
tp899
Rp900
(I1
(I3
tp901
g168
I00
S'\xb1\x91\x83\xd6J:\x00@X\xbf\x9b\xa3\xf7;\x19\xc0\xb4\xa9\x94\xff\xff\xd1\xec?'
p902
tp903
bag22
(g23
(I0
tp904
g25
tp905
Rp906
(I1
(I3
tp907
g168
I00
S'\xac)\x94\xc9\xc1\xda\x03@>\xa9\\\xfe\x1d\xeb\x18\xc0\x03\xc0\n\xd21\x11\x08@'
p908
tp909
bag875
asbsg670
(itrajectory_representation.operator
Operator
p910
(dp911
g8
I01
sg9
(dp912
g712
Vsquare_packing_box2
p913
ssg17
g714
sg19
(dp914
g716
(lp915
g22
(g23
(I0
tp916
g25
tp917
Rp918
(I1
(I3
tp919
g157
I00
S'\xb6\x0f\xeaf\xcf\xc3\x04@\x80\t\xa4\x83\xffd\x1f\xc03\xb2\x1az\x97\xad\xf5?'
p920
tp921
bag22
(g23
(I0
tp922
g25
tp923
Rp924
(I1
(I3
tp925
g157
I00
S'\xa5>x\xf3\xf0h\xff?\x04[\x90\xdaa\xce\x1d\xc0\x08\x98x\x16"\t\xa8\xbf'
p926
tp927
bag22
(g23
(I0
tp928
g25
tp929
Rp930
(I1
(I3
tp931
g157
I00
S'\xa0\x0c)\xe8,\x84\xff?\x1a\xeds;[\x1c\x1e\xc0\xb8\xf9\x87\xce\xfcT\xec?'
p932
tp933
bag22
(g23
(I0
tp934
g25
tp935
Rp936
(I1
(I3
tp937
g157
I00
S'\xfe\xaf\xf5J\x11\xa0\x0b@\xa5R\x1bw\xdd,\x1c\xc0\xba\xbb) \xea\xbc\n\xc0'
p938
tp939
basg748
I00
ssg47
(lp940
g22
(g23
(I0
tp941
g25
tp942
Rp943
(I1
(I3
tp944
g157
I00
S'|\x88\x01\x92\xf8\xcb\xfc?\nE\xf3d;f\x1b\xc0Y\x8c\x84\x08\x15\xa7\xd2?'
p945
tp946
bag924
asbsVsquare_packing_box3
p947
(itrajectory_representation.operator
Operator
p948
(dp949
g8
I01
sg9
(dp950
g712
Vsquare_packing_box3
p951
ssg17
g714
sg19
(dp952
g716
(lp953
g22
(g23
(I0
tp954
g25
tp955
Rp956
(I1
(I3
tp957
g157
I00
S'b\x13\x84\xce\xbe\xe7\x07@\x81\x99j\xdck\xc1\x1b\xc0\xf4\x1149\x0f\xa8\xf9?'
p958
tp959
bag22
(g23
(I0
tp960
g25
tp961
Rp962
(I1
(I3
tp963
g157
I00
S'\xf4\xc5\x05~V\x11\r@v,6\xf4\xaa\x9a\x19\xc0\x04tvKH!\x07@'
p964
tp965
bag22
(g23
(I0
tp966
g25
tp967
Rp968
(I1
(I3
tp969
g157
I00
S'\x1c\x06G\x07<\xd7\r@JD\x97\xbb\xcf,\x19\xc0&\xa5\xba\xaen\x13\x06@'
p970
tp971
basg748
I00
ssg47
(lp972
g22
(g23
(I0
tp973
g25
tp974
Rp975
(I1
(I3
tp976
g157
I00
S'|\x88\x01\x92\xf8\xcb\xfc?\nE\xf3d;f\x1b\xc0Y\x8c\x84\x08\x15\xa7\xd2?'
p977
tp978
bag22
(g23
(I0
tp979
g25
tp980
Rp981
(I1
(I3
tp982
g168
I00
S'\xb1\x91\x83\xd6J:\x00@X\xbf\x9b\xa3\xf7;\x19\xc0\xb4\xa9\x94\xff\xff\xd1\xec?'
p983
tp984
bag22
(g23
(I0
tp985
g25
tp986
Rp987
(I1
(I3
tp988
g168
I00
S'\xd8\xd6B\xff\x18\xb2\x05@\xf2%;\x9a\xab\xd5\x18\xc0\xce\xc8,\xa0\x8a\x9a\x00@'
p989
tp990
bag956
asbsg12
(itrajectory_representation.operator
Operator
p991
(dp992
g8
I01
sg9
(dp993
g11
g12
ssg17
S'two_arm_pick'
p994
sg19
(dp995
g21
g22
(g23
(I0
tp996
g25
tp997
Rp998
(I1
(I3
tp999
g32
I00
S'\xeaT]t\x8b8\xee?3\x95Yi\xda\xb3\x18\xc0N\xaf\x04p"\x12\x00@'
p1000
tp1001
bssg47
(lp1002
g22
(g23
(I0
tp1003
g25
tp1004
Rp1005
(I1
(I3
tp1006
g157
I00
S'|\x88\x01\x92\xf8\xcb\xfc?\nE\xf3d;f\x1b\xc0Y\x8c\x84\x08\x15\xa7\xd2?'
p1007
tp1008
bag22
(g23
(I0
tp1009
g25
tp1010
Rp1011
(I1
(I3
tp1012
g168
I00
S'\xb1\x91\x83\xd6J:\x00@X\xbf\x9b\xa3\xf7;\x19\xc0\xb4\xa9\x94\xff\xff\xd1\xec?'
p1013
tp1014
bag22
(g23
(I0
tp1015
g25
tp1016
Rp1017
(I1
(I3
tp1018
g168
I00
S'\x84\xa2s4\xa1\xd0\xf6?E=|\xb9\xcam\x17\xc0\xa93^V\xfc\xed\x05@'
p1019
tp1020
bag998
asbsVsquare_packing_box4
p1021
(itrajectory_representation.operator
Operator
p1022
(dp1023
g8
I01
sg9
(dp1024
g712
Vsquare_packing_box4
p1025
ssg17
g714
sg19
(dp1026
g716
(lp1027
g22
(g23
(I0
tp1028
g25
tp1029
Rp1030
(I1
(I3
tp1031
g157
I00
S'0\x96\x03\x8d\n5\n@\xb4\x8fS\t\x9dh\x18\xc0@\xc0\xd3Tmf\xd3\xbf'
p1032
tp1033
bag22
(g23
(I0
tp1034
g25
tp1035
Rp1036
(I1
(I3
tp1037
g157
I00
S'\xd0\x08\xaaB\xee\xcc\n@\x00\x05\x1f\xc4;|\x19\xc0\x0c\xf9\x02\xf3\xd4Y\xc5?'
p1038
tp1039
bag22
(g23
(I0
tp1040
g25
tp1041
Rp1042
(I1
(I3
tp1043
g157
I00
S'z\x0f\xe2=*\xbb\n@\xe3&\xc8\xa3O\x81\x17\xc0\xe6u67\xce\x9d\xbe?'
p1044
tp1045
bag22
(g23
(I0
tp1046
g25
tp1047
Rp1048
(I1
(I3
tp1049
g157
I00
S'g:h\x8ar\xdf\x08@9\x13\x80\x90eZ\x18\xc0\xb0\xf8b\xc4j\x80\xbb?'
p1050
tp1051
bag22
(g23
(I0
tp1052
g25
tp1053
Rp1054
(I1
(I3
tp1055
g157
I00
S'r\xfa\xd1m\xc1\xe8\t@\xa1Q\x90\xf2Ow\x17\xc0\xdb\xd8\xe6\x8d\xf6\xa5\xdd\xbf'
p1056
tp1057
basg748
I00
ssg47
(lp1058
g22
(g23
(I0
tp1059
g25
tp1060
Rp1061
(I1
(I3
tp1062
g157
I00
S'|\x88\x01\x92\xf8\xcb\xfc?\nE\xf3d;f\x1b\xc0Y\x8c\x84\x08\x15\xa7\xd2?'
p1063
tp1064
bag22
(g23
(I0
tp1065
g25
tp1066
Rp1067
(I1
(I3
tp1068
g168
I00
S'\xb1\x91\x83\xd6J:\x00@X\xbf\x9b\xa3\xf7;\x19\xc0\xb4\xa9\x94\xff\xff\xd1\xec?'
p1069
tp1070
bag22
(g23
(I0
tp1071
g25
tp1072
Rp1073
(I1
(I3
tp1074
g168
I00
S'A\xec\xb55+(\x03@v\x14\x1a\xc5J\xca\x18\xc0\xe9\rA\xa0%\xbe\xc7?'
p1075
tp1076
bag1048
asbssS'mc_paths'
p1077
(dp1078
sS'robot'
p1079
NsS'reachable_obj_region_pairs'
p1080
(lp1081
(g335
g148
tp1082
asS'sampled_pick_configs_for_objects'
p1083
(dp1084
sS'mc_calls'
p1085
I0
sS'pick_poses'
p1086
g707
sS'problem_env'
p1087
NsS'evaluations'
p1088
(dp1089
(g449
g575
g148
tp1090
I00
s(g380
g575
g148
tp1091
I00
s(g575
g512
g148
tp1092
I00
s(g272
g380
g148
tp1093
I01
s(g512
g335
g148
tp1094
I01
s(g215
g380
g148
tp1095
I00
s(g335
g147
g148
tp1096
I00
s(g512
g575
g148
tp1097
I00
s(g272
g215
g148
tp1098
I00
s(g380
g335
g148
tp1099
I01
s(g449
g335
g148
tp1100
I01
s(g449
g272
g148
tp1101
I00
s(g380
g147
g148
tp1102
I00
s(g272
g512
g148
tp1103
I00
s(g512
g147
g148
tp1104
I00
s(g215
g512
g148
tp1105
I01
s(g335
g575
g148
tp1106
I00
s(g512
g215
g148
tp1107
I00
s(g575
g449
g148
tp1108
I00
s(g147
g335
g148
tp1109
I01
s(g215
g449
g148
tp1110
I01
s(g512
g272
g148
tp1111
I00
s(g575
g335
g148
tp1112
I01
s(g147
g272
g148
tp1113
I00
s(g575
g215
g148
tp1114
I00
s(g272
g449
g148
tp1115
I00
s(g335
g449
g148
tp1116
I00
s(g147
g512
g148
tp1117
I00
s(g147
g449
g148
tp1118
I00
s(g512
g449
g148
tp1119
I01
s(g215
g575
g148
tp1120
I00
s(g272
g575
g148
tp1121
I00
s(g449
g215
g148
tp1122
I00
s(g380
g449
g148
tp1123
I01
s(g215
g272
g148
tp1124
I00
s(g147
g215
g148
tp1125
I00
s(g380
g272
g148
tp1126
I00
s(g512
g380
g148
tp1127
I01
s(g335
g380
g148
tp1128
I00
s(g380
g215
g148
tp1129
I00
s(g215
g147
g148
tp1130
I00
s(g335
g512
g148
tp1131
I00
s(g380
g512
g148
tp1132
I01
s(g272
g147
g148
tp1133
I00
s(g449
g512
g148
tp1134
I01
s(g449
g147
g148
tp1135
I00
s(g147
g575
g148
tp1136
I01
s(g575
g380
g148
tp1137
I00
s(g272
g335
g148
tp1138
I01
s(g335
g215
g148
tp1139
I00
s(g215
g335
g148
tp1140
I01
s(g335
g272
g148
tp1141
I00
s(g575
g272
g148
tp1142
I00
s(g147
g380
g148
tp1143
I00
s(g575
g147
g148
tp1144
I00
s(g449
g380
g148
tp1145
I00
ssS'paths_to_reachable_entities'
p1146
NsS'use_shortest_path'
p1147
I01
sbsS'ternary_edges'
p1148
(dp1149
(g575
g575
g148
tp1150
(lp1151
I00
as(g335
S'loading_region'
p1152
g1152
tp1153
(lp1154
I00
as(S'entire_region'
p1155
g449
g148
tp1156
(lp1157
I00
as(g380
g215
g1152
tp1158
(lp1159
I00
as(g148
g148
g148
tp1160
(lp1161
I00
as(g215
g575
g1152
tp1162
(lp1163
I00
as(g335
g147
g148
tp1164
(lp1165
I00
as(g148
g272
g148
tp1166
(lp1167
I00
as(g380
g335
g148
tp1168
(lp1169
I01
as(g147
g272
g1152
tp1170
(lp1171
I00
as(g148
g215
g1152
tp1172
(lp1173
I00
as(g380
g1155
g148
tp1174
(lp1175
I00
as(g1152
g148
g1152
tp1176
(lp1177
I00
as(g272
g512
g148
tp1178
(lp1179
I00
as(g215
g1155
g148
tp1180
(lp1181
I00
as(g380
g449
g1152
tp1182
(lp1183
I00
as(g512
g1152
g148
tp1184
(lp1185
I00
as(g1155
g575
g1152
tp1186
(lp1187
I00
as(g148
g1155
g148
tp1188
(lp1189
I00
as(g575
g1152
g148
tp1190
(lp1191
I00
as(g512
g1155
g148
tp1192
(lp1193
I00
as(g335
g335
g1152
tp1194
(lp1195
I00
as(g1152
g215
g1152
tp1196
(lp1197
I00
as(g1155
g1152
g148
tp1198
(lp1199
I00
as(g1155
g380
g148
tp1200
(lp1201
I00
as(g1152
g1152
g148
tp1202
(lp1203
I00
as(g512
g272
g1152
tp1204
(lp1205
I00
as(g148
g148
g1152
tp1206
(lp1207
I00
as(g449
g380
g1152
tp1208
(lp1209
I00
as(g575
g215
g148
tp1210
(lp1211
I00
as(g512
g335
g148
tp1212
(lp1213
I01
as(g449
g148
g1152
tp1214
(lp1215
I00
as(g148
g575
g1152
tp1216
(lp1217
I00
as(g449
g147
g1152
tp1218
(lp1219
I00
as(g147
g449
g148
tp1220
(lp1221
I00
as(g1152
g335
g1152
tp1222
(lp1223
I00
as(g215
g380
g1152
tp1224
(lp1225
I00
as(g575
g575
g1152
tp1226
(lp1227
I00
as(g1155
g215
g148
tp1228
(lp1229
I00
as(g1152
g148
g148
tp1230
(lp1231
I00
as(g272
g575
g148
tp1232
(lp1233
I00
as(g148
g147
g148
tp1234
(lp1235
I00
as(g380
g449
g148
tp1236
(lp1237
I01
as(g147
g215
g148
tp1238
(lp1239
I00
as(g335
g147
g1152
tp1240
(lp1241
I00
as(g512
g380
g148
tp1242
(lp1243
I01
as(g380
g335
g1152
tp1244
(lp1245
I00
as(g380
g575
g1152
tp1246
(lp1247
I00
as(g1155
g380
g1152
tp1248
(lp1249
I00
as(g1152
g147
g1152
tp1250
(lp1251
I00
as(g1155
g148
g148
tp1252
(lp1253
I00
as(g272
g148
g148
tp1254
(lp1255
I00
as(g1152
g1155
g148
tp1256
(lp1257
I00
as(g575
g215
g1152
tp1258
(lp1259
I00
as(g512
g575
g1152
tp1260
(lp1261
I00
as(g512
g512
g148
tp1262
(lp1263
I00
as(g449
g147
g148
tp1264
(lp1265
I00
as(g1155
g575
g148
tp1266
(lp1267
I00
as(g449
g1152
g1152
tp1268
(lp1269
I00
as(g215
g335
g148
tp1270
(lp1271
I01
as(g335
g335
g148
tp1272
(lp1273
I00
as(g335
g272
g148
tp1274
(lp1275
I00
as(g272
g575
g1152
tp1276
(lp1277
I00
as(g215
g449
g1152
tp1278
(lp1279
I00
as(g512
g272
g148
tp1280
(lp1281
I00
as(g449
g380
g148
tp1282
(lp1283
I00
as(g575
g449
g1152
tp1284
(lp1285
I00
as(g449
g148
g148
tp1286
(lp1287
I00
as(g380
g575
g148
tp1288
(lp1289
I00
as(g575
g512
g148
tp1290
(lp1291
I00
as(g147
g449
g1152
tp1292
(lp1293
I00
as(g148
g380
g1152
tp1294
(lp1295
I00
as(g1155
g148
g1152
tp1296
(lp1297
I00
as(g1155
g215
g1152
tp1298
(lp1299
I00
as(g512
g575
g148
tp1300
(lp1301
I00
as(g147
g512
g1152
tp1302
(lp1303
I00
as(g575
g1155
g1152
tp1304
(lp1305
I00
as(g449
g1152
g148
tp1306
(lp1307
I00
as(g512
g380
g1152
tp1308
(lp1309
I00
as(g512
g449
g1152
tp1310
(lp1311
I00
as(g215
g335
g1152
tp1312
(lp1313
I00
as(g148
g147
g1152
tp1314
(lp1315
I00
as(g1155
g512
g1152
tp1316
(lp1317
I00
as(g1152
g147
g148
tp1318
(lp1319
I00
as(g1152
g380
g1152
tp1320
(lp1321
I00
as(g575
g449
g148
tp1322
(lp1323
I00
as(g215
g449
g148
tp1324
(lp1325
I01
as(g1152
g512
g148
tp1326
(lp1327
I00
as(g575
g512
g1152
tp1328
(lp1329
I00
as(g575
g272
g1152
tp1330
(lp1331
I00
as(g147
g215
g1152
tp1332
(lp1333
I00
as(g335
g272
g1152
tp1334
(lp1335
I00
as(g449
g512
g1152
tp1336
(lp1337
I00
as(g148
g335
g1152
tp1338
(lp1339
I00
as(g147
g1152
g1152
tp1340
(lp1341
I00
as(g272
g148
g1152
tp1342
(lp1343
I00
as(g335
g449
g148
tp1344
(lp1345
I00
as(g575
g1155
g148
tp1346
(lp1347
I00
as(g272
g380
g1152
tp1348
(lp1349
I00
as(g147
g575
g1152
tp1350
(lp1351
I00
as(g512
g449
g148
tp1352
(lp1353
I01
as(g215
g1152
g1152
tp1354
(lp1355
I00
as(g380
g148
g148
tp1356
(lp1357
I00
as(g215
g272
g148
tp1358
(lp1359
I00
as(g148
g512
g1152
tp1360
(lp1361
I00
as(g1152
g449
g1152
tp1362
(lp1363
I00
as(g1152
g512
g1152
tp1364
(lp1365
I00
as(g335
g512
g148
tp1366
(lp1367
I00
as(g449
g512
g148
tp1368
(lp1369
I01
as(g335
g449
g1152
tp1370
(lp1371
I00
as(g147
g575
g148
tp1372
(lp1373
I01
as(g575
g380
g148
tp1374
(lp1375
I00
as(g147
g148
g1152
tp1376
(lp1377
I00
as(g215
g1152
g148
tp1378
(lp1379
I00
as(g1152
g272
g1152
tp1380
(lp1381
I00
as(g575
g272
g148
tp1382
(lp1383
I00
as(g147
g147
g148
tp1384
(lp1385
I00
as(g272
g272
g148
tp1386
(lp1387
I00
as(g272
g147
g1152
tp1388
(lp1389
I00
as(g147
g1152
g148
tp1390
(lp1391
I00
as(g512
g215
g148
tp1392
(lp1393
I00
as(g272
g380
g148
tp1394
(lp1395
I01
as(g380
g1152
g1152
tp1396
(lp1397
I00
as(g147
g1155
g1152
tp1398
(lp1399
I00
as(g380
g148
g1152
tp1400
(lp1401
I00
as(g335
g380
g1152
tp1402
(lp1403
I00
as(g215
g272
g1152
tp1404
(lp1405
I00
as(g512
g148
g1152
tp1406
(lp1407
I00
as(g147
g148
g148
tp1408
(lp1409
I00
as(g1152
g272
g148
tp1410
(lp1411
I00
as(g449
g449
g148
tp1412
(lp1413
I00
as(g1152
g215
g148
tp1414
(lp1415
I00
as(g215
g512
g148
tp1416
(lp1417
I01
as(g335
g575
g148
tp1418
(lp1419
I00
as(g335
g512
g1152
tp1420
(lp1421
I00
as(g272
g335
g1152
tp1422
(lp1423
I00
as(g148
g380
g148
tp1424
(lp1425
I00
as(g1155
g147
g1152
tp1426
(lp1427
I00
as(g147
g335
g148
tp1428
(lp1429
I01
as(g449
g1155
g148
tp1430
(lp1431
I00
as(g512
g215
g1152
tp1432
(lp1433
I00
as(g512
g147
g1152
tp1434
(lp1435
I00
as(g272
g449
g148
tp1436
(lp1437
I00
as(g575
g380
g1152
tp1438
(lp1439
I00
as(g272
g1152
g148
tp1440
(lp1441
I00
as(g147
g1155
g148
tp1442
(lp1443
I00
as(g215
g147
g1152
tp1444
(lp1445
I00
as(g575
g335
g148
tp1446
(lp1447
I01
as(g512
g335
g1152
tp1448
(lp1449
I00
as(g215
g215
g1152
tp1450
(lp1451
I00
as(g272
g272
g1152
tp1452
(lp1453
I00
as(g449
g449
g1152
tp1454
(lp1455
I00
as(g335
g215
g1152
tp1456
(lp1457
I00
as(g215
g380
g148
tp1458
(lp1459
I00
as(g1155
g335
g148
tp1460
(lp1461
I00
as(g148
g1155
g1152
tp1462
(lp1463
I00
as(g148
g449
g1152
tp1464
(lp1465
I00
as(g380
g1152
g148
tp1466
(lp1467
I00
as(g335
g575
g1152
tp1468
(lp1469
I00
as(g449
g335
g1152
tp1470
(lp1471
I00
as(g147
g147
g1152
tp1472
(lp1473
I00
as(g1155
g147
g148
tp1474
(lp1475
I00
as(g380
g147
g1152
tp1476
(lp1477
I00
as(g449
g1155
g1152
tp1478
(lp1479
I00
as(g335
g380
g148
tp1480
(lp1481
I00
as(g272
g449
g1152
tp1482
(lp1483
I00
as(g272
g147
g148
tp1484
(lp1485
I00
as(g215
g147
g148
tp1486
(lp1487
I00
as(g335
g148
g1152
tp1488
(lp1489
I00
as(g380
g512
g148
tp1490
(lp1491
I01
as(g512
g512
g1152
tp1492
(lp1493
I00
as(g272
g1155
g148
tp1494
(lp1495
I00
as(g1152
g1155
g1152
tp1496
(lp1497
I00
as(g215
g512
g1152
tp1498
(lp1499
I00
as(g1152
g449
g148
tp1500
(lp1501
I00
as(g1155
g1155
g1152
tp1502
(lp1503
I00
as(g272
g335
g148
tp1504
(lp1505
I01
as(g335
g215
g148
tp1506
(lp1507
I00
as(g1152
g575
g1152
tp1508
(lp1509
I00
as(g147
g335
g1152
tp1510
(lp1511
I00
as(g512
g148
g148
tp1512
(lp1513
I00
as(g1155
g335
g1152
tp1514
(lp1515
I00
as(g512
g147
g148
tp1516
(lp1517
I00
as(g147
g380
g148
tp1518
(lp1519
I00
as(g272
g1152
g1152
tp1520
(lp1521
I00
as(g575
g335
g1152
tp1522
(lp1523
I00
as(g449
g575
g148
tp1524
(lp1525
I00
as(g1155
g1152
g1152
tp1526
(lp1527
I00
as(g1152
g575
g148
tp1528
(lp1529
I00
as(g335
g1155
g148
tp1530
(lp1531
I00
as(g380
g512
g1152
tp1532
(lp1533
I00
as(g380
g272
g1152
tp1534
(lp1535
I00
as(g215
g148
g148
tp1536
(lp1537
I00
as(g272
g1155
g1152
tp1538
(lp1539
I00
as(g272
g215
g148
tp1540
(lp1541
I00
as(g1155
g272
g1152
tp1542
(lp1543
I00
as(g148
g449
g148
tp1544
(lp1545
I00
as(g148
g512
g148
tp1546
(lp1547
I00
as(g449
g335
g148
tp1548
(lp1549
I01
as(g449
g272
g148
tp1550
(lp1551
I00
as(g1155
g512
g148
tp1552
(lp1553
I00
as(g380
g147
g148
tp1554
(lp1555
I00
as(g380
g380
g1152
tp1556
(lp1557
I00
as(g449
g215
g1152
tp1558
(lp1559
I00
as(g215
g148
g1152
tp1560
(lp1561
I00
as(g575
g148
g148
tp1562
(lp1563
I00
as(g335
g148
g148
tp1564
(lp1565
I00
as(g449
g575
g1152
tp1566
(lp1567
I00
as(g215
g575
g148
tp1568
(lp1569
I00
as(g148
g1152
g148
tp1570
(lp1571
I00
as(g1155
g1155
g148
tp1572
(lp1573
I00
as(g575
g147
g1152
tp1574
(lp1575
I00
as(g335
g1155
g1152
tp1576
(lp1577
I00
as(g1152
g380
g148
tp1578
(lp1579
I00
as(g147
g272
g148
tp1580
(lp1581
I00
as(g1155
g272
g148
tp1582
(lp1583
I00
as(g335
g1152
g148
tp1584
(lp1585
I00
as(g147
g380
g1152
tp1586
(lp1587
I00
as(g148
g335
g148
tp1588
(lp1589
I00
as(g1155
g449
g1152
tp1590
(lp1591
I00
as(g215
g1155
g1152
tp1592
(lp1593
I00
as(g380
g380
g148
tp1594
(lp1595
I00
as(g449
g215
g148
tp1596
(lp1597
I00
as(g512
g1155
g1152
tp1598
(lp1599
I00
as(g380
g272
g148
tp1600
(lp1601
I00
as(g148
g215
g148
tp1602
(lp1603
I00
as(g147
g512
g148
tp1604
(lp1605
I00
as(g272
g215
g1152
tp1606
(lp1607
I00
as(g215
g215
g148
tp1608
(lp1609
I00
as(g449
g272
g1152
tp1610
(lp1611
I00
as(g380
g215
g148
tp1612
(lp1613
I00
as(g512
g1152
g1152
tp1614
(lp1615
I00
as(g148
g575
g148
tp1616
(lp1617
I00
as(g575
g1152
g1152
tp1618
(lp1619
I00
as(g148
g272
g1152
tp1620
(lp1621
I00
as(g575
g148
g1152
tp1622
(lp1623
I00
as(g1152
g1152
g1152
tp1624
(lp1625
I00
as(g380
g1155
g1152
tp1626
(lp1627
I00
as(g272
g512
g1152
tp1628
(lp1629
I00
as(g148
g1152
g1152
tp1630
(lp1631
I00
as(g575
g147
g148
tp1632
(lp1633
I00
as(g1152
g335
g148
tp1634
(lp1635
I00
assg706
g707
sS'use_prm'
p1636
I01
sS'object_names'
p1637
(lp1638
S'square_packing_box1'
p1639
aS'rectangular_packing_box1'
p1640
aS'square_packing_box2'
p1641
aS'rectangular_packing_box2'
p1642
aS'square_packing_box3'
p1643
aS'rectangular_packing_box3'
p1644
aS'square_packing_box4'
p1645
aS'rectangular_packing_box4'
p1646
asg1087
NsS'current_holding_collides'
p1647
NsS'object_poses'
p1648
(dp1649
Vrectangular_packing_box4
p1650
g22
(g23
(I0
tp1651
g25
tp1652
Rp1653
(I1
(I1
I3
tp1654
g157
I00
S'\x00\x00#\xc6\x1eC\x0f@\x9e89\x11h\x1e\x1e\xc0j\xee\xa7HPO\xf5?'
p1655
tp1656
bsVrectangular_packing_box2
p1657
g22
(g23
(I0
tp1658
g25
tp1659
Rp1660
(I1
(I1
I3
tp1661
g157
I00
S'\xa0/\x13\xd6\x8d\xf5\xc3?iM\x87\xc2:\xbb\x1c\xc0,\xb3 \x14\xd0\x83\x06@'
p1662
tp1663
bsVrectangular_packing_box3
p1664
g22
(g23
(I0
tp1665
g25
tp1666
Rp1667
(I1
(I1
I3
tp1668
g157
I00
S"\x80\xc3\x89\xf0%\xe3\xb2?\xbd\x1fz'\xb02 \xc0#'\xf0v\xa8B\x02@"
p1669
tp1670
bsVrectangular_packing_box1
p1671
g22
(g23
(I0
tp1672
g25
tp1673
Rp1674
(I1
(I1
I3
tp1675
g157
I00
S'\x00$\x0e\x17\x81\xce\x05@\r\xc6\xc4\xbd`\x04\x16\xc0\xd4IO;&=\xe5?'
p1676
tp1677
bsVsquare_packing_box2
p1678
g22
(g23
(I0
tp1679
g25
tp1680
Rp1681
(I1
(I1
I3
tp1682
g157
I00
S'x\xc5\x8cb\xc4\x13\x06@\x8c\x93{7H\xc4\x1c\xc0\xd2;\x11\xf3tw\x14@'
p1683
tp1684
bsVsquare_packing_box3
p1685
g22
(g23
(I0
tp1686
g25
tp1687
Rp1688
(I1
(I1
I3
tp1689
g157
I00
S'\xf1\xb8\x13\xe4S\xd5\x07@\xb7\xdc\x1c5\xcd\xea\x18\xc0\xdf\xb2\xef6p\x99\x18@'
p1690
tp1691
bsVsquare_packing_box1
p1692
g22
(g23
(I0
tp1693
g25
tp1694
Rp1695
(I1
(I1
I3
tp1696
g157
I00
S'\x90\xe9\xf4g\x1b\xc1\xea?e\x94C\xeb\x8b\xc9\x15\xc0\xfe`\x80\x94t\x00\x19@'
p1697
tp1698
bsVsquare_packing_box4
p1699
g22
(g23
(I0
tp1700
g25
tp1701
Rp1702
(I1
(I1
I3
tp1703
g157
I00
S'\xb2\x89\xcf\xc0\x1a\xda\x0f@\x06t:\xc6\x87\xc8\x17\xc0\xa7W\x13M-o\x0b@'
p1704
tp1705
bssS'reachable_regions_while_holding'
p1706
(lp1707
(g708
g1152
tp1708
a(g668
g1152
tp1709
a(g669
g1152
tp1710
a(g866
g1152
tp1711
a(g670
g1152
tp1712
a(g947
g1152
tp1713
a(g12
g1152
tp1714
a(g1021
g1152
tp1715
asS'in_region'
p1716
(itrajectory_representation.predicates.in_region
InRegion
p1717
(dp1718
g1087
NsbsS'cached_pick_paths'
p1719
(dp1720
g708
g749
sg668
g798
sg669
g847
sg866
g891
sg670
g940
sg947
g972
sg12
g1002
sg1021
g1058
ssg671
(dp1721
(Vrectangular_packing_box4
p1722
(cnumpy.core.multiarray
scalar
p1723
(g157
S'\xd8E\xd1\x03\x1fC\x0f@'
p1724
tp1725
Rp1726
g1723
(g157
S'\xb9\x8c\x9b\x1ah\x1e\x1e\xc0'
p1727
tp1728
Rp1729
g1723
(g157
S'\x12\x84+\xa0PO\xf5?'
p1730
tp1731
Rp1732
tp1733
tp1734
g677
s(Vsquare_packing_box2
p1735
(g1723
(g157
S'Z\xba\x82m\xc4\x13\x06@'
p1736
tp1737
Rp1738
g1723
(g157
S'p\xedDIH\xc4\x1c\xc0'
p1739
tp1740
Rp1741
g1723
(g157
S'\xdce\xbf\xeetw\x14@'
p1742
tp1743
Rp1744
tp1745
tp1746
g693
s(Vsquare_packing_box4
p1747
(g1723
(g157
S'\x10=)\x93\x1a\xda\x0f@'
p1748
tp1749
Rp1750
g1723
(g157
S'\x7fM\xd6\xa8\x87\xc8\x17\xc0'
p1751
tp1752
Rp1753
g1723
(g157
S'\x95\x0b\x95\x7f-o\x0b@'
p1754
tp1755
Rp1756
tp1757
tp1758
g705
s(Vrectangular_packing_box2
p1759
(g1723
(g157
S'\xa6^\xb7\x08\x8c\xf5\xc3?'
p1760
tp1761
Rp1762
g1723
(g157
S'\xc4x\xcd\xab:\xbb\x1c\xc0'
p1763
tp1764
Rp1765
g1723
(g157
S'Z\xd7h9\xd0\x83\x06@'
p1766
tp1767
Rp1768
tp1769
tp1770
g681
s(Vrectangular_packing_box3
p1771
(g1723
(g157
S'}\xaf!8.\xe3\xb2?'
p1772
tp1773
Rp1774
g1723
(g157
S'\xa6\x9b\xc4 \xb02 \xc0'
p1775
tp1776
Rp1777
g1723
(g157
S'\xd3f\x9c\x86\xa8B\x02@'
p1778
tp1779
Rp1780
tp1781
tp1782
g685
s(Vrectangular_packing_box1
p1783
(g1723
(g157
S'G\x1f\xf3\x01\x81\xce\x05@'
p1784
tp1785
Rp1786
g1723
(g157
S'\xf8\xc2d\xaa`\x04\x16\xc0'
p1787
tp1788
Rp1789
g1723
(g157
S'"\xab[=\'=\xe5?'
p1790
tp1791
Rp1792
tp1793
tp1794
g689
s(Vsquare_packing_box3
p1795
(g1723
(g157
S'F]k\xefS\xd5\x07@'
p1796
tp1797
Rp1798
g1723
(g157
S" 'L\x18\xcd\xea\x18\xc0"
p1799
tp1800
Rp1801
g1723
(g157
S'\xd8Df.p\x99\x18@'
p1802
tp1803
Rp1804
tp1805
tp1806
g697
s(Vsquare_packing_box1
p1807
(g1723
(g157
S'\t2\x02*\x1c\xc1\xea?'
p1808
tp1809
Rp1810
g1723
(g157
S'\x06g\xf0\xf7\x8b\xc9\x15\xc0'
p1811
tp1812
Rp1813
g1723
(g157
S'q\xc9q\xa7t\x00\x19@'
p1814
tp1815
Rp1816
tp1817
tp1818
g701
ssS'state_saver'
p1819
(igtamp_utils.utils
CustomStateSaver
p1820
(dp1821
S'robot_base_pose'
p1822
g22
(g23
(I0
tp1823
g25
tp1824
Rp1825
(I1
(I1
I3
tp1826
g157
I00
S'{\x88\x01\x92\xf8\xcb\xfc?\x08E\xf3d;f\x1b\xc0Y\x8c\x84\x08\x15\xa7\xd2?'
p1827
tp1828
bsS'held_object'
p1829
NsS'robot_name'
p1830
S'pr2'
p1831
sS'env_id'
p1832
I1
sg1648
(dp1833
Vright_wall_1
p1834
g22
(g23
(I0
tp1835
g25
tp1836
Rp1837
(I1
(I4
tp1838
g157
I00
S'H\xe1z\x14\xaeG\x12@&\\\x8f\xc2\xf5(\xd4\xbf\xcc\x7fH\xbf}\x1d\xed?\x00\x00\x00\x00\x00\x00\x00\x00'
p1839
tp1840
bsVc_obst5
p1841
g22
(g23
(I0
tp1842
g25
tp1843
Rp1844
(I1
(I4
tp1845
g157
I00
S"\xcb\xceC\xdb\xaa\x90\x12@\xe0\x96>\xf1\xa9`\xb2?e\xaa`TR'\xed?\x87\x9ck\x9e\xc5\xb6\x08@"
p1846
tp1847
bsVentrance_right
p1848
g22
(g23
(I0
tp1849
g25
tp1850
Rp1851
(I1
(I4
tp1852
g157
I00
S'ffffff\n@H\xe1z\x14\xaeG\t\xc0\x9c\xc4 \xb0rh\xc1?\x00\x00\x00\x00\x00\x00\x00\x00'
p1853
tp1854
bsVcomputer_table
p1855
g22
(g23
(I0
tp1856
g25
tp1857
Rp1858
(I1
(I4
tp1859
g157
I00
S'\x00\x00\x00\x00\x00\x00\x13@\x00\x00\x00\x00\x00\x00\xf8\xbf\x96C\x8bl\xe7\xfb\xe7?\xd2!3\x7f|\xd9\x12@'
p1860
tp1861
bsVchair_6b56
p1862
g22
(g23
(I0
tp1863
g25
tp1864
Rp1865
(I1
(I4
tp1866
g157
I00
S'u=\n\xd7\xa3p\xf5?K\xe1z\x14\xaeG\xd1?\x00\x00\x00\x00\x00\x00\x00\x00\xd6$\xfaNBm\n@'
p1867
tp1868
bsVsquare_packing_box3
p1869
g22
(g23
(I0
tp1870
g25
tp1871
Rp1872
(I1
(I4
tp1873
g157
I00
S'\xf1\xb8\x13\xe4S\xd5\x07@\xb7\xdc\x1c5\xcd\xea\x18\xc0L7\x89A`\xe5\xd8?\xdf\xb2\xef6p\x99\x18@'
p1874
tp1875
bsVsquare_packing_box2
p1876
g22
(g23
(I0
tp1877
g25
tp1878
Rp1879
(I1
(I4
tp1880
g157
I00
S'x\xc5\x8cb\xc4\x13\x06@\x8c\x93{7H\xc4\x1c\xc0L7\x89A`\xe5\xd8?\xd2;\x11\xf3tw\x14@'
p1881
tp1882
bsVtable
p1883
g22
(g23
(I0
tp1884
g25
tp1885
Rp1886
(I1
(I4
tp1887
g157
I00
S'\x7f\xf6#EdX\xed?\xac\xffs\x98//\xc0\xbf\x00\x00\x00\x00\x00\x00\x00\x00\x00\x00\x00\x00\x00\x00\x00\x00'
p1888
tp1889
bsVsquare_packing_box1
p1890
g22
(g23
(I0
tp1891
g25
tp1892
Rp1893
(I1
(I4
tp1894
g157
I00
S'\x90\xe9\xf4g\x1b\xc1\xea?e\x94C\xeb\x8b\xc9\x15\xc0L7\x89A`\xe5\xd8?\xfe`\x80\x94t\x00\x19@'
p1895
tp1896
bsVback_wall_2
p1897
g22
(g23
(I0
tp1898
g25
tp1899
Rp1900
(I1
(I4
tp1901
g157
I00
S'\xaeG\xe1z\x14.\x13@\x80\x14\xaeG\xe1z\xc4?xX\xa85\xcd\xbb\xf2?\x00\x00\x00\x00\x00\x00\x00\x00'
p1902
tp1903
bsVchair_083c
p1904
g22
(g23
(I0
tp1905
g25
tp1906
Rp1907
(I1
(I4
tp1908
g157
I00
S'\xa4p=\n\xd7\xa3\xe0?333333\xe3\xbf\x00\x00\x00\x00\x00\x00\x00\x00\x00\x00\x00\x00\x00\x00\x00\x00'
p1909
tp1910
bsVback_wall_1
p1911
g22
(g23
(I0
tp1912
g25
tp1913
Rp1914
(I1
(I4
tp1915
g157
I00
S'\xaeG\xe1z\x14.\x13@\x80\x14\xaeG\xe1z\xc4?\xcc\x7fH\xbf}\x1d\xed?\x00\x00\x00\x00\x00\x00\x00\x00'
p1916
tp1917
bsVbottom_wall
p1918
g22
(g23
(I0
tp1919
g25
tp1920
Rp1921
(I1
(I4
tp1922
g157
I00
S'\x00\x00\x00\x00\x00\x00\xfc?\x00\x00\x00\x00\x00\x00\x00\x00\x00\x00\x00\x00\x00\x00\x00\x00\x00\x00\x00\x00\x00\x00\x00\x00'
p1923
tp1924
bsVcup_905a
p1925
g22
(g23
(I0
tp1926
g25
tp1927
Rp1928
(I1
(I4
tp1929
g157
I00
S'\x00\x00\x00\x00\x00\x00\xf0?\x83\xc0\xca\xa1E\xb6\xdb?\x1b/\xdd$\x06\x81\xed?\x00\x00\x00\x00\x00\x00\x00\x00'
p1930
tp1931
bsVplate_496f
p1932
g22
(g23
(I0
tp1933
g25
tp1934
Rp1935
(I1
(I4
tp1936
g157
I00
S"q=\n\xd7\xa3p\xe5?\x9dhW!\xe5'\xdd\xbf\x1b/\xdd$\x06\x81\xed?\x00\x00\x00\x00\x00\x00\x00\x00"
p1937
tp1938
bsVtoaster
p1939
g22
(g23
(I0
tp1940
g25
tp1941
Rp1942
(I1
(I4
tp1943
g157
I00
S')\\\x8f\xc2\xf5(\xf4\xbf\xe0z\x14\xaeG\xe1\xf2\xbf\xb8\x1e\x85\xebQ\xb8\xee?\x89/`\x9b\xf8\x8a\xe4?'
p1944
tp1945
bsVc_obst1
p1946
g22
(g23
(I0
tp1947
g25
tp1948
Rp1949
(I1
(I4
tp1950
g157
I00
S"3zL{\xc6\x1c\x12@\x18-R\x13\xb3\x9c\xc9\xbfe\xaa`TR'\xed?\xf7DF\x85K\x9d\x15@"
p1951
tp1952
bsVrectangular_packing_box4
p1953
g22
(g23
(I0
tp1954
g25
tp1955
Rp1956
(I1
(I4
tp1957
g157
I00
S'\xfa\xff"\xc6\x1eC\x0f@\xa289\x11h\x1e\x1e\xc0L7\x89A`\xe5\xd8?j\xee\xa7HPO\xf5?'
p1958
tp1959
bsVmicrowave
p1960
g22
(g23
(I0
tp1961
g25
tp1962
Rp1963
(I1
(I4
tp1964
g157
I00
S'\x9a\x99\x99\x99\x99\x99\xf1\xbf\x00\x00\x00\x00\x00\x00\x00@7\x89A`\xe5\xd0\xee?\x00\x00\x00\x00\x00\x00\x00\x00'
p1965
tp1966
bsVc_obst7
p1967
g22
(g23
(I0
tp1968
g25
tp1969
Rp1970
(I1
(I4
tp1971
g157
I00
S"\x93\xef\xday\x0e}\x12@\xc1\xd8\x8e\xcc\xcb%\xd8?e\xaa`TR'\xed?\x86\x15\xa2\xc0\xe8\xeb\x10@"
p1972
tp1973
bsVc_obst6
p1974
g22
(g23
(I0
tp1975
g25
tp1976
Rp1977
(I1
(I4
tp1978
g157
I00
S"\x08\x83T\x00\xa7\xfe\x11@@\xae\xc0IxA\xa6\xbfe\xaa`TR'\xed?\x96\x00\xf1\xba\xab\x9d\x14@"
p1979
tp1980
bsVcup_b6af
p1981
g22
(g23
(I0
tp1982
g25
tp1983
Rp1984
(I1
(I4
tp1985
g157
I00
S'R\xb8\x1e\x85\xebQ\xe8?\x9a\x99\x99\x99\x99\x99\xe1?\x1b/\xdd$\x06\x81\xed?\x00\x00\x00\x00\x00\x00\x00\x00'
p1986
tp1987
bsVc_obst4
p1988
g22
(g23
(I0
tp1989
g25
tp1990
Rp1991
(I1
(I4
tp1992
g157
I00
S"\x0cP\xec*\x90\x05\x12@\xd0\xbb]'\x11\xce\xbc\xbfe\xaa`TR'\xed?\x10\xc8u9\x1fz\xe8?"
p1993
tp1994
bsVrectangular_packing_box2
p1995
g22
(g23
(I0
tp1996
g25
tp1997
Rp1998
(I1
(I4
tp1999
g157
I00
S'`/\x13\xd6\x8d\xf5\xc3?mM\x87\xc2:\xbb\x1c\xc0L7\x89A`\xe5\xd8?,\xb3 \x14\xd0\x83\x06@'
p2000
tp2001
bsVplate_fa76
p2002
g22
(g23
(I0
tp2003
g25
tp2004
Rp2005
(I1
(I4
tp2006
g157
I00
S'=\n\xd7\xa3p=\xf2?\x00\x00\x00\x00\x00\x00\x00\x00\x1b/\xdd$\x06\x81\xed?\x00\x00\x00\x00\x00\x00\x00\x00'
p2007
tp2008
bsVfloorwalls
p2009
g22
(g23
(I0
tp2010
g25
tp2011
Rp2012
(I1
(I4
tp2013
g157
I00
S'\xc7\xcc\xcc\xcc\xcc\xcc\xfc?\x00\x00\x00\x00\x00\x00\x18\xc0H\xe1z\x14\xaeG\xc1?\x16-DT\xfb!\xf9?'
p2014
tp2015
bsVpin_c671
p2016
g22
(g23
(I0
tp2017
g25
tp2018
Rp2019
(I1
(I4
tp2020
g157
I00
S'\xc3\xf5(\\\x8f\xc2\xf1\xbf}?5^\xbaI\x02@\xb8\x1e\x85\xebQ\xb8\xfa?\x00\x00\x00\x00\x00\x00\x00\x00'
p2021
tp2022
bsVc_obst3
p2023
g22
(g23
(I0
tp2024
g25
tp2025
Rp2026
(I1
(I4
tp2027
g157
I00
S"\x88\xd2\x198\x16\xfe\x11@`\x1f[F\xc5\x9b\xbc?e\xaa`TR'\xed?\x9b\x8fq\xc1\x03\xa4\x01@"
p2028
tp2029
bsVchair_2e39
p2030
g22
(g23
(I0
tp2031
g25
tp2032
Rp2033
(I1
(I4
tp2034
g157
I00
S'hfffff\xee?cfffff\xf2\xbf\x00\x00\x00\x00\x00\x00\x00\x00\x07M\xe8QQF\xf3?'
p2035
tp2036
bsVentrance_left
p2037
g22
(g23
(I0
tp2038
g25
tp2039
Rp2040
(I1
(I4
tp2041
g157
I00
S'\x98\x99\x99\x99\x99\x99\xe9\xbfH\xe1z\x14\xaeG\t\xc0\x9c\xc4 \xb0rh\xc1?\x00\x00\x00\x00\x00\x00\x00\x00'
p2042
tp2043
bsVtop_wall_1
p2044
g22
(g23
(I0
tp2045
g25
tp2046
Rp2047
(I1
(I4
tp2048
g157
I00
S'H\xe1z\x14\xaeG\x12@\x80\x14\xaeG\xe1z\xc4?xX\xa85\xcd\xbb\xf2?\x00\x00\x00\x00\x00\x00\x00\x00'
p2049
tp2050
bsVrectangular_packing_box3
p2051
g22
(g23
(I0
tp2052
g25
tp2053
Rp2054
(I1
(I4
tp2055
g157
I00
S"p\xc3\x89\xf0%\xe3\xb2?\xbf\x1fz'\xb02 \xc0L7\x89A`\xe5\xd8?#'\xf0v\xa8B\x02@"
p2056
tp2057
bsVshaker
p2058
g22
(g23
(I0
tp2059
g25
tp2060
Rp2061
(I1
(I4
tp2062
g157
I00
S'\n\xd7\xa3p=\n\x01@\x14\xaeG\xe1z\x14\x02@\\\x8f\xc2\xf5(\\\xef?\x00\x00\x00\x00\x00\x00\x00\x00'
p2063
tp2064
bsVc_obst9
p2065
g22
(g23
(I0
tp2066
g25
tp2067
Rp2068
(I1
(I4
tp2069
g157
I00
S"\x95\x9c\x00\x9e\x8a\xa6\x12@\xa9eHBY?\xc1?e\xaa`TR'\xed?\xe8l+\xc0\x8d\xb2\x13@"
p2070
tp2071
bsVplate_835a
p2072
g22
(g23
(I0
tp2073
g25
tp2074
Rp2075
(I1
(I4
tp2076
g157
I00
S'\xf6(\\\x8f\xc2\xf5\xf0?\\\x8f\xc2\xf5(\\\xe7\xbf\x1b/\xdd$\x06\x81\xed?\x00\x00\x00\x00\x00\x00\x00\x00'
p2077
tp2078
bsVcup_58a2
p2079
g22
(g23
(I0
tp2080
g25
tp2081
Rp2082
(I1
(I4
tp2083
g157
I00
S'\x85\xebQ\xb8\x1e\x85\xe3?\xcd\xcc\xcc\xcc\xcc\xcc\xdc?\x1b/\xdd$\x06\x81\xed?\x00\x00\x00\x00\x00\x00\x00\x00'
p2084
tp2085
bsVleft_wall_1
p2086
g22
(g23
(I0
tp2087
g25
tp2088
Rp2089
(I1
(I4
tp2090
g157
I00
S'H\xe1z\x14\xaeG\x12@S\xb8\x1e\x85\xebQ\xe4?\xcc\x7fH\xbf}\x1d\xed?\x00\x00\x00\x00\x00\x00\x00\x00'
p2091
tp2092
bsVc_obst2
p2093
g22
(g23
(I0
tp2094
g25
tp2095
Rp2096
(I1
(I4
tp2097
g157
I00
S'\xfcY\xf2b\xd3"\x12@\xbcL\xcd\xf9\xfc\xb7\xd3?e\xaa`TR\'\xed?\x00\xe2d\x91\x0eo\x15@'
p2098
tp2099
bsVsquare_packing_box4
p2100
g22
(g23
(I0
tp2101
g25
tp2102
Rp2103
(I1
(I4
tp2104
g157
I00
S'\xb2\x89\xcf\xc0\x1a\xda\x0f@\x04t:\xc6\x87\xc8\x17\xc0L7\x89A`\xe5\xd8?\xa7W\x13M-o\x0b@'
p2105
tp2106
bsVrectangular_packing_box1
p2107
g22
(g23
(I0
tp2108
g25
tp2109
Rp2110
(I1
(I4
tp2111
g157
I00
S'\x00$\x0e\x17\x81\xce\x05@\r\xc6\xc4\xbd`\x04\x16\xc0L7\x89A`\xe5\xd8?\xd4IO;&=\xe5?'
p2112
tp2113
bsVpin_371e
p2114
g22
(g23
(I0
tp2115
g25
tp2116
Rp2117
(I1
(I4
tp2118
g157
I00
S'333333\xf3\xbfffffff\xf6?\xb8\x1e\x85\xebQ\xb8\xee?\x00\x00\x00\x00\x00\x00\x00\x00'
p2119
tp2120
bsVfridge
p2121
g22
(g23
(I0
tp2122
g25
tp2123
Rp2124
(I1
(I4
tp2125
g157
I00
S'\xd7\xa3p=\n\xd7\xeb\xbf\x00\x00\x00\x00\x00\x00\x00\xc0\xcd\xcc\xcc\xcc\xcc\xcc\xf8?\x00\x00\x00\x00\x00\x00\x00\x00'
p2126
tp2127
bsVcup_d441
p2128
g22
(g23
(I0
tp2129
g25
tp2130
Rp2131
(I1
(I4
tp2132
g157
I00
S'\n\xd7\xa3p=\n\xef?\x8f\xc2\xf5(\\\x8f\xe2?\x1b/\xdd$\x06\x81\xed?\x00\x00\x00\x00\x00\x00\x00\x00'
p2133
tp2134
bsVshelf2
p2135
g22
(g23
(I0
tp2136
g25
tp2137
Rp2138
(I1
(I4
tp2139
g157
I00
S'\x00\x00\x00\x00\x00\x00\x0e@\xaeG\xe1z\x14\xae\x07@\x9c\xc4 \xb0rh\xc1?\xd2!3\x7f|\xd9\x12@'
p2140
tp2141
bsVtop_wall_2
p2142
g22
(g23
(I0
tp2143
g25
tp2144
Rp2145
(I1
(I4
tp2146
g157
I00
S'H\xe1z\x14\xaeG\x12@\x80\x14\xaeG\xe1z\xc4?\x16HP\xfc\x18\xf3\xfd?\x00\x00\x00\x00\x00\x00\x00\x00'
p2147
tp2148
bsVc_obst0
p2149
g22
(g23
(I0
tp2150
g25
tp2151
Rp2152
(I1
(I4
tp2153
g157
I00
S"\x1dq\x8a@\xe0o\x12@D+\xd2\x8d\xbf,\xbb\xbfe\xaa`TR'\xed?\xb9\x0e\xd6\x80\xe5s\xf4?"
p2154
tp2155
bsVshelf1
p2156
g22
(g23
(I0
tp2157
g25
tp2158
Rp2159
(I1
(I4
tp2160
g157
I00
S'\x00\x00\x00\x00\x00\x00\x13@\xaeG\xe1z\x14\xae\x07@\x9c\xc4 \xb0rh\xc1?\xd2!3\x7f|\xd9\x12@'
p2161
tp2162
bsVsink
p2163
g22
(g23
(I0
tp2164
g25
tp2165
Rp2166
(I1
(I4
tp2167
g157
I00
S'ffffff\xd6?333333\x01@\x9a\x99\x99\x99\x99\x99\xb9\xbf\x00\x00\x00\x00\x00\x00\x00\x00'
p2168
tp2169
bsVpr2
p2170
g22
(g23
(I0
tp2171
g25
tp2172
Rp2173
(I1
(I4
tp2174
g157
I00
S'y\x88\x01\x92\xf8\xcb\xfc?\x08E\xf3d;f\x1b\xc0\x9a_\x94\xa0\xbf\xd0\xc1?Y\x8c\x84\x08\x15\xa7\xd2?'
p2175
tp2176
bsVchair_12d0
p2177
g22
(g23
(I0
tp2178
g25
tp2179
Rp2180
(I1
(I4
tp2181
g157
I00
S'\\\xd2\x18\xad\xa3\xaa\xdb?Of\x83L2r\xc6?\x00\x00\x00\x00\x00\x00\x00\x00\xf8\x81\r\x14M\xa6\x17@'
p2182
tp2183
bsVright_wall_2
p2184
g22
(g23
(I0
tp2185
g25
tp2186
Rp2187
(I1
(I4
tp2188
g157
I00
S'H\xe1z\x14\xaeG\x12@&\\\x8f\xc2\xf5(\xd4\xbfxX\xa85\xcd\xbb\xf2?\x00\x00\x00\x00\x00\x00\x00\x00'
p2189
tp2190
bsVknife_block
p2191
g22
(g23
(I0
tp2192
g25
tp2193
Rp2194
(I1
(I4
tp2195
g157
I00
S'R\xb8\x1e\x85\xebQ\xe0\xbfffffff\x02@`\xe5\xd0"\xdb\xf9\xee?\x00\x00\x00\x00\x00\x00\x00\x00'
p2196
tp2197
bsVleft_wall_2
p2198
g22
(g23
(I0
tp2199
g25
tp2200
Rp2201
(I1
(I4
tp2202
g157
I00
S'H\xe1z\x14\xaeG\x12@S\xb8\x1e\x85\xebQ\xe4?xX\xa85\xcd\xbb\xf2?\x00\x00\x00\x00\x00\x00\x00\x00'
p2203
tp2204
bsVleft_wall
p2205
g22
(g23
(I0
tp2206
g25
tp2207
Rp2208
(I1
(I4
tp2209
g157
I00
S'\x9a\x99\x99\x99\x99\x99\x07@H\xe1z\x14\xaeG\xff?\x9c\xc4 \xb0rh\xc1?\x00\x00\x00\x00\x00\x00\x00\x00'
p2210
tp2211
bsVkitchen
p2212
g22
(g23
(I0
tp2213
g25
tp2214
Rp2215
(I1
(I4
tp2216
g157
I00
S'\x00\x00\x00\x00\x00\x00\x00\x00\x00\x00\x00\x00\x00\x00\x00\x00\x00\x00\x00\x00\x00\x00\x00\x00\x00\x00\x00\x00\x00\x00\x00\x00'
p2217
tp2218
bsVtable2
p2219
g22
(g23
(I0
tp2220
g25
tp2221
Rp2222
(I1
(I4
tp2223
g157
I00
S'\x00\x00\x00\x00\x00\x00\x13@\x80\x14\xaeG\xe1z\xc4?S\x96!\x8euq\xec?\xd2!3\x7f|\xd9\x12@'
p2224
tp2225
bsVc_obst8
p2226
g22
(g23
(I0
tp2227
g25
tp2228
Rp2229
(I1
(I4
tp2230
g157
I00
S"\x8d:\xf8\xf1RO\x12@\xd0\xcdm\xc7\xdf/\xa1\xbfe\xaa`TR'\xed?x\x8b\x9b\xcd\xcdI\xed?"
p2231
tp2232
bsVplate_b4e7
p2233
g22
(g23
(I0
tp2234
g25
tp2235
Rp2236
(I1
(I4
tp2237
g157
I00
S'\x14\xaeG\xe1z\x14\xf2\xbf\x14\xaeG\xe1z\x14\x00@=\n\xd7\xa3p=\xf2?\x00\x00\x00\x00\x00\x00\x00\x00'
p2238
tp2239
bsVcooker
p2240
g22
(g23
(I0
tp2241
g25
tp2242
Rp2243
(I1
(I4
tp2244
g157
I00
S'\xaeG\xe1z\x14\xae\xff?\x85\xebQ\xb8\x1e\x85\xfb?\x00\x00\x00\x00\x00\x00\xe8?\x00\x00\x00\x00\x00\x00\x00\x00'
p2245
tp2246
bsVpin_a091
p2247
g22
(g23
(I0
tp2248
g25
tp2249
Rp2250
(I1
(I4
tp2251
g157
I00
S'\xdb\xf9~j\xbct\xf7\xbf)\\\x8f\xc2\xf5(\x02@\xb8\x1e\x85\xebQ\xb8\xfa?\x00\x00\x00\x00\x00\x00\x00\x00'
p2252
tp2253
bsVside_wall_2
p2254
g22
(g23
(I0
tp2255
g25
tp2256
Rp2257
(I1
(I4
tp2258
g157
I00
S'\xfa\xff\xff\xff\xff\xff\x14@\x00\x00\x00\x00\x00\x00\x00\x00\x9c\xc4 \xb0rh\xc1?\x18-DT\xfb!\xf9?'
p2259
tp2260
bsVside_wall_3
p2261
g22
(g23
(I0
tp2262
g25
tp2263
Rp2264
(I1
(I4
tp2265
g157
I00
S'\x00\x00\x00\x00\x00\x00\xfc?H\xe1z\x14\xaeG\t@\x9c\xc4 \xb0rh\xc1?\x00\x00\x00\x00\x00\x00\x00\x00'
p2266
tp2267
bsVmixer
p2268
g22
(g23
(I0
tp2269
g25
tp2270
Rp2271
(I1
(I4
tp2272
g157
I00
S'\n\xd7\xa3p=\n\xfb?ffffff\x02@d;\xdfO\x8d\x97\xee?\x00\x00\x00\x00\x00\x00\x00\x00'
p2273
tp2274
bsVside_wall_1
p2275
g22
(g23
(I0
tp2276
g25
tp2277
Rp2278
(I1
(I4
tp2279
g157
I00
S'\xf4\xff\xff\xff\xff\xff\xfb\xbf\x00\x00\x00\x00\x00\x00\x00\x00\x9c\xc4 \xb0rh\xc1?\x18-DT\xfb!\xf9?'
p2280
tp2281
bsVbottom_wall_1
p2282
g22
(g23
(I0
tp2283
g25
tp2284
Rp2285
(I1
(I4
tp2286
g157
I00
S'H\xe1z\x14\xaeG\x12@\x80\x14\xaeG\xe1z\xc4?\xcc\x7fH\xbf}\x1d\xed?\x00\x00\x00\x00\x00\x00\x00\x00'
p2287
tp2288
bsVcan
p2289
g22
(g23
(I0
tp2290
g25
tp2291
Rp2292
(I1
(I4
tp2293
g157
I00
S'\x00\x00\x00\x00\x00\x00\xf4\xbfH\xe1z\x14\xaeG\xe1\xbf\n\xd7\xa3p=\n\xef?\x00\x00\x00\x00\x00\x00\x00\x00'
p2294
tp2295
bsVright_wall
p2296
g22
(g23
(I0
tp2297
g25
tp2298
Rp2299
(I1
(I4
tp2300
g157
I00
S'\x9a\x99\x99\x99\x99\x99\x07@H\xe1z\x14\xaeG\xff\xbf\x9c\xc4 \xb0rh\xc1?\x00\x00\x00\x00\x00\x00\x00\x00'
p2301
tp2302
bsVcoffe_machine
p2303
g22
(g23
(I0
tp2304
g25
tp2305
Rp2306
(I1
(I4
tp2307
g157
I00
S'\\\x8f\xc2\xf5(\\\xf5\xbf\xb8\x1e\x85\xebQ\xb8\xee?\n\xd7\xa3p=\n\xef?\x00\x00\x00\x00\x00\x00\x00\x00'
p2308
tp2309
bsVcomputer_chair
p2310
g22
(g23
(I0
tp2311
g25
tp2312
Rp2313
(I1
(I4
tp2314
g157
I00
S'\xcd\xcc\xcc\xcc\xcc\xcc\x10@\x00\x00\x00\x00\x00\x00\xf8\xbf\xa00\xb6\x10\xe4\xa9\x95\xbf\x00\x00\x00\x00\x00\x00\x00\x00'
p2315
tp2316
bssS'robot_dof_values'
p2317
g22
(g23
(I0
tp2318
g25
tp2319
Rp2320
(I1
(I39
tp2321
g157
I00
S'\x00\x00\x00\x00\x00\x00\x00\x00\x00\x00\x00\x00\x00\x00\x00\x00\x00\x00\x00\x00\x00\x00\x00\x00\x00\x00\x00\x00\x00\x00\x00\x00\x00\x00\x00\x00\x00\x00\x00\x00\x00\x00\x00\x00\x00\x00\x00\x00\x00\x00\x00\x00\x00\x00\x00\x00\x00\x00\x00\x00\x00\x00\x00\x00\x00\x00\x00\x00\x00\x00\x00\x00\x00\x00\x00\x00\x00\x00\x00\x00\x00\x00\x00\x00\x00\x00\x00\x00\x00\x00\x00\x00\x00\x00\x00\x00@d;\xdfO\x8d\x87?\x00\x00\x00\x00\x00\x00\x00\x00\x00\x00\x00\x00\x00\x00\x00\x00\x00\x00\x00\x00\x00\x00\x00\x00\xed\xed\t\xf1\xcc\xa4\xf4?\x00\x00\x00\x00\x00\x00\x00\x00N"\xd0^p\xf8\x00\xc0\x00\x00\x00\x00\x00\x00\x00\x00\x9d\x03\r.\x04V\xe6\xbf\x00\x00\x00\x00\x00\x00\x00\x00\x00\x00\x00\x00\x00\x00\x00\x00\xfe\xff\xff\xff\xff\xff\x7f<$\x1d\x83&\xb7)\xba\xbc\x00\x00\x00\x00\x00\x00\xe0\xbc\x00\x00\x00\x00\x00\x00\x00\x00\x00\x00\x00\x00\x00\x00\x00\x00\xea\xed\t\xf1\xcc\xa4\xf4?\x00\x00\x00\x00\x00\x00\x00\x00N"\xd0^p\xf8\x00\xc0\x00\x00\x00\x00\x00\x00\x00\x00\xa1\x03\r.\x04V\xe6\xbf\x00\x00\x00\x00\x00\x00\x00\x00\xcd9\xe3\xc17\x89\xe1?\x00\x00\x00\x00\x00\x00\x98\xbcTT\xaf\x99\x8a\xcc\xa3\xbc\x00\x00\x00\x00\x00\x00\xd0\xbc\x00\x00\x00\x00\x00\x00\x00\x00'
p2322
tp2323
bsS'is_holding'
p2324
I00
sbsS'holding_collides'
p2325
NsS'parent_ternary_predicates'
p2326
(dp2327
sS'cached_place_paths'
p2328
(dp2329
(g866
g1152
tp2330
(lp2331
g22
(g23
(I0
tp2332
g25
tp2333
Rp2334
(I1
(I3
tp2335
g157
I00
S'VFT\x11\x89\x08\t@L\xd9\x7f\x9a1y\x18\xc0\xf5\xc4\xcaG\xf0\x90\x00@'
p2336
tp2337
bas(g1021
g148
tp2338
g217
s(g708
g148
tp2339
g274
s(g947
g1152
tp2340
(lp2341
g22
(g23
(I0
tp2342
g25
tp2343
Rp2344
(I1
(I3
tp2345
g157
I00
S'i\x13\x84\xce\xbe\xe7\x07@}\x99j\xdck\xc1\x1b\xc0\xf4\x1149\x0f\xa8\xf9?'
p2346
tp2347
bas(g708
g1152
tp2348
(lp2349
g22
(g23
(I0
tp2350
g25
tp2351
Rp2352
(I1
(I3
tp2353
g157
I00
S'\xfe0\x7f\xc2\xd2=\t@v\x03\x8ak\x0e\xcf\x1d\xc0\x96p\xb4O\r\xfa\x16@'
p2354
tp2355
bas(g947
g148
tp2356
g514
s(g670
g1152
tp2357
(lp2358
g22
(g23
(I0
tp2359
g25
tp2360
Rp2361
(I1
(I3
tp2362
g157
I00
S'\xb6\x0f\xeaf\xcf\xc3\x04@~\t\xa4\x83\xffd\x1f\xc03\xb2\x1az\x97\xad\xf5?'
p2363
tp2364
bas(g670
g148
tp2365
g382
s(g12
g148
tp2366
g337
s(g669
g148
tp2367
g150
s(g669
g1152
tp2368
(lp2369
g22
(g23
(I0
tp2370
g25
tp2371
Rp2372
(I1
(I3
tp2373
g157
I00
S'x\x83W\xd9\x80s\xe4?j~7\xfe}\xef\x1e\xc0c\x03q=Bf\x0c@'
p2374
tp2375
bas(g1021
g1152
tp2376
(lp2377
g22
(g23
(I0
tp2378
g25
tp2379
Rp2380
(I1
(I3
tp2381
g157
I00
S'.\x96\x03\x8d\n5\n@\xb6\x8fS\t\x9dh\x18\xc0\x14\xf1\xf6~\x94\xeb\x17@'
p2382
tp2383
bas(g12
g1152
tp2384
(lp2385
g22
(g23
(I0
tp2386
g25
tp2387
Rp2388
(I1
(I3
tp2389
g157
I00
S'\xeaT]t\x8b8\xee?/\x95Yi\xda\xb3\x18\xc0N\xaf\x04p"\x12\x00@'
p2390
tp2391
bas(g668
g1152
tp2392
(lp2393
g22
(g23
(I0
tp2394
g25
tp2395
Rp2396
(I1
(I3
tp2397
g157
I00
S'\x905\x06*\x16\xc3\xe8?(\x16\xb1[$v\x1e\xc0\xeb\xae\xf5\xc1\x8c\xdb\x04@'
p2398
tp2399
bas(g668
g148
tp2400
g577
s(g866
g148
tp2401
g451
ssS'parent_binary_predicates'
p2402
(dp2403
sS'nodes'
p2404
(dp2405
g1155
(lp2406
I0
aI0
aI0
aI0
aI0
aI0
aI00
aI01
aI00
aI01
aI00
asg1152
(lp2407
I0
aI0
aI0
aI0
aI0
aI0
aI00
aI01
aI00
aI01
aI00
asg148
(lp2408
I0
aI0
aI0
aI0
aI0
aI0
aI00
aI01
aI01
aI01
aI00
asg272
(lp2409
I0
aI0
aI0
ag1723
(g157
S'^\x06#\xc6\x1eC\x0f@'
p2410
tp2411
Rp2412
ag1723
(g157
S'*29\x11h\x1e\x1e\xc0'
p2413
tp2414
Rp2415
ag1723
(g157
S'g\xee\xa7HPO\xf5?'
p2416
tp2417
Rp2418
aI01
aI00
aI00
aI00
aI00
asg575
(lp2419
I0
aI0
aI0
ag1723
(g157
S'\xa0E\x13\xd6\x8d\xf5\xc3?'
p2420
tp2421
Rp2422
ag1723
(g157
S'\xedK\x87\xc2:\xbb\x1c\xc0'
p2423
tp2424
Rp2425
ag1723
(g157
S',\xb3 \x14\xd0\x83\x06@'
p2426
tp2427
Rp2428
aI01
aI00
aI00
aI01
aI00
asg147
(lp2429
I0
aI0
aI0
ag1723
(g157
S'\xc0\xc5\x89\xf0%\xe3\xb2?'
p2430
tp2431
Rp2432
ag1723
(g157
S"\xdd\x1ez'\xb02 \xc0"
p2433
tp2434
Rp2435
ag1723
(g157
S"#'\xf0v\xa8B\x02@"
p2436
tp2437
Rp2438
aI01
aI00
aI00
aI01
aI00
asg449
(lp2439
I0
aI0
aI0
ag1723
(g157
S'\xfd#\x0e\x17\x81\xce\x05@'
p2440
tp2441
Rp2442
ag1723
(g157
S'\x08\xc6\xc4\xbd`\x04\x16\xc0'
p2443
tp2444
Rp2445
ag1723
(g157
S'\xd4IO;&=\xe5?'
p2446
tp2447
Rp2448
aI01
aI00
aI00
aI00
aI00
asg380
(lp2449
I0
aI0
aI0
ag1723
(g157
S'l\xc5\x8cb\xc4\x13\x06@'
p2450
tp2451
Rp2452
ag1723
(g157
S'\x81\x93{7H\xc4\x1c\xc0'
p2453
tp2454
Rp2455
ag1723
(g157
S'\xd2;\x11\xf3tw\x14@'
p2456
tp2457
Rp2458
aI01
aI00
aI00
aI01
aI00
asg512
(lp2459
I0
aI0
aI0
ag1723
(g157
S'\xf3\xb8\x13\xe4S\xd5\x07@'
p2460
tp2461
Rp2462
ag1723
(g157
S'\xb8\xdc\x1c5\xcd\xea\x18\xc0'
p2463
tp2464
Rp2465
ag1723
(g157
S'\xdf\xb2\xef6p\x99\x18@'
p2466
tp2467
Rp2468
aI01
aI00
aI00
aI00
aI00
asg335
(lp2469
I0
aI0
aI0
ag1723
(g157
S'\x88\xe9\xf4g\x1b\xc1\xea?'
p2470
tp2471
Rp2472
ag1723
(g157
S'e\x94C\xeb\x8b\xc9\x15\xc0'
p2473
tp2474
Rp2475
ag1723
(g157
S'\xfe`\x80\x94t\x00\x19@'
p2476
tp2477
Rp2478
aI01
aI00
aI01
aI01
aI00
asg215
(lp2479
I0
aI0
aI0
ag1723
(g157
S'7\x89\xcf\xc0\x1a\xda\x0f@'
p2480
tp2481
Rp2482
ag1723
(g157
S'\xbfs:\xc6\x87\xc8\x17\xc0'
p2483
tp2484
Rp2485
ag1723
(g157
S'\xa8W\x13M-o\x0b@'
p2486
tp2487
Rp2488
aI01
aI00
aI00
aI00
aI00
assS'mc_place_path'
p2489
(dp2490
sS'parent_state'
p2491
NsS'goal_entities'
p2492
(lp2493
S'square_packing_box1'
p2494
ag148
asS'binary_edges'
p2495
(dp2496
(g380
g215
tp2497
(lp2498
I00
aI00
aI00
as(g380
g272
tp2499
(lp2500
I00
aI01
aI00
as(g147
g512
tp2501
(lp2502
I00
aI00
aI00
as(g147
g147
tp2503
(lp2504
I00
aI00
aI00
as(g575
g512
tp2505
(lp2506
I00
aI00
aI00
as(g575
g147
tp2507
(lp2508
I00
aI00
aI00
as(g215
g575
tp2509
(lp2510
I00
aI00
aI00
as(g380
g335
tp2511
(lp2512
I00
aI00
aI00
as(g449
g147
tp2513
(lp2514
I00
aI00
aI00
as(g272
g272
tp2515
(lp2516
I00
aI00
aI00
as(g575
g1152
tp2517
(lp2518
g1723
(g29
(S'b1'
p2519
I0
I1
tp2520
Rp2521
(I3
S'|'
p2522
NNNI-1
I-1
I0
tp2523
bS'\x01'
p2524
tp2525
Rp2526
aI00
aI01
as(g1155
g1152
tp2527
(lp2528
I00
aI00
aI00
as(g272
g215
tp2529
(lp2530
I00
aI00
aI00
as(g1152
g215
tp2531
(lp2532
I00
aI00
aI00
as(g335
g148
tp2533
(lp2534
I00
aI00
aI00
as(g1155
g575
tp2535
(lp2536
I00
aI00
aI00
as(g575
g215
tp2537
(lp2538
I00
aI00
aI00
as(g147
g1155
tp2539
(lp2540
g2526
aI00
aI00
as(g380
g380
tp2541
(lp2542
I00
aI00
aI00
as(g1152
g380
tp2543
(lp2544
I00
aI00
aI00
as(g512
g575
tp2545
(lp2546
I00
aI00
aI00
as(g575
g148
tp2547
(lp2548
I00
aI00
aI00
as(g449
g512
tp2549
(lp2550
I00
aI01
aI00
as(g272
g449
tp2551
(lp2552
I00
aI00
aI00
as(g335
g335
tp2553
(lp2554
I00
aI00
aI00
as(g575
g1155
tp2555
(lp2556
g2526
aI00
aI00
as(g1152
g575
tp2557
(lp2558
I00
aI00
aI00
as(g1152
g512
tp2559
(lp2560
I00
aI00
aI00
as(g1152
g147
tp2561
(lp2562
I00
aI00
aI00
as(g512
g148
tp2563
(lp2564
I00
aI00
aI00
as(g215
g272
tp2565
(lp2566
I00
aI00
aI00
as(g449
g272
tp2567
(lp2568
I00
aI00
aI00
as(g512
g449
tp2569
(lp2570
I00
aI01
aI00
as(g1152
g272
tp2571
(lp2572
I00
aI00
aI00
as(g1155
g148
tp2573
(lp2574
I00
aI00
aI00
as(g335
g575
tp2575
(lp2576
I00
aI00
aI00
as(g272
g512
tp2577
(lp2578
I00
aI00
aI00
as(g1155
g512
tp2579
(lp2580
I00
aI00
aI00
as(g512
g1155
tp2581
(lp2582
g2526
aI00
aI00
as(g147
g380
tp2583
(lp2584
I00
aI00
aI00
as(g215
g335
tp2585
(lp2586
I00
aI00
aI00
as(g147
g575
tp2587
(lp2588
I00
aI00
aI00
as(g215
g148
tp2589
(lp2590
I00
aI00
aI00
as(g1155
g1155
tp2591
(lp2592
I00
aI00
aI00
as(g512
g272
tp2593
(lp2594
I00
aI00
aI00
as(g335
g380
tp2595
(lp2596
I00
aI00
aI00
as(g148
g335
tp2597
(lp2598
I00
aI00
aI00
as(g449
g1152
tp2599
(lp2600
g2526
aI00
aI01
as(g148
g449
tp2601
(lp2602
I00
aI00
aI00
as(g215
g147
tp2603
(lp2604
I00
aI00
aI00
as(g147
g335
tp2605
(lp2606
I00
aI00
aI00
as(g512
g1152
tp2607
(lp2608
g2526
aI00
aI01
as(g147
g449
tp2609
(lp2610
I00
aI00
aI00
as(g512
g512
tp2611
(lp2612
I00
aI00
aI00
as(g449
g575
tp2613
(lp2614
I00
aI00
aI00
as(g1152
g148
tp2615
(lp2616
I00
aI00
aI00
as(g148
g380
tp2617
(lp2618
I00
aI00
aI00
as(g272
g148
tp2619
(lp2620
I00
aI00
aI00
as(g1155
g449
tp2621
(lp2622
I00
aI00
aI00
as(g148
g215
tp2623
(lp2624
I00
aI00
aI00
as(g147
g215
tp2625
(lp2626
I00
aI00
aI00
as(g449
g1155
tp2627
(lp2628
g2526
aI00
aI00
as(g215
g1152
tp2629
(lp2630
g2526
aI00
aI01
as(g449
g380
tp2631
(lp2632
I00
aI00
aI00
as(g272
g575
tp2633
(lp2634
I00
aI00
aI00
as(g272
g1152
tp2635
(lp2636
g2526
aI00
aI01
as(g148
g147
tp2637
(lp2638
I00
aI00
aI00
as(g1155
g215
tp2639
(lp2640
I00
aI00
aI00
as(g1155
g272
tp2641
(lp2642
I00
aI00
aI00
as(g449
g148
tp2643
(lp2644
I00
aI00
aI00
as(g380
g449
tp2645
(lp2646
I00
aI00
aI00
as(g335
g449
tp2647
(lp2648
I00
aI00
aI00
as(g148
g512
tp2649
(lp2650
I00
aI00
aI00
as(g1152
g1152
tp2651
(lp2652
I00
aI00
aI00
as(g380
g147
tp2653
(lp2654
I00
aI00
aI00
as(g335
g512
tp2655
(lp2656
I00
aI00
aI00
as(g1152
g335
tp2657
(lp2658
I00
aI00
aI00
as(g575
g272
tp2659
(lp2660
I00
aI00
aI00
as(g1152
g449
tp2661
(lp2662
I00
aI00
aI00
as(g335
g1155
tp2663
(lp2664
g2526
aI00
aI00
as(g380
g575
tp2665
(lp2666
I00
aI00
aI00
as(g147
g148
tp2667
(lp2668
I00
aI00
aI00
as(g335
g272
tp2669
(lp2670
I00
aI00
aI00
as(g272
g335
tp2671
(lp2672
I00
aI00
aI00
as(g575
g335
tp2673
(lp2674
I00
aI00
aI00
as(g1155
g380
tp2675
(lp2676
I00
aI00
aI00
as(g575
g449
tp2677
(lp2678
I00
aI00
aI00
as(g512
g380
tp2679
(lp2680
I00
aI00
aI00
as(g380
g1152
tp2681
(lp2682
g2526
aI00
aI01
as(g449
g449
tp2683
(lp2684
I00
aI00
aI00
as(g215
g380
tp2685
(lp2686
I00
aI00
aI00
as(g335
g215
tp2687
(lp2688
I00
aI00
aI00
as(g575
g380
tp2689
(lp2690
I00
aI00
aI00
as(g575
g575
tp2691
(lp2692
I00
aI00
aI00
as(g215
g449
tp2693
(lp2694
I00
aI00
aI00
as(g380
g148
tp2695
(lp2696
I00
aI00
aI00
as(g512
g335
tp2697
(lp2698
I00
aI00
aI00
as(g147
g1152
tp2699
(lp2700
g2526
aI00
aI01
as(g148
g575
tp2701
(lp2702
I00
aI00
aI00
as(g449
g335
tp2703
(lp2704
I00
aI00
aI00
as(g272
g147
tp2705
(lp2706
I00
aI00
aI00
as(g148
g1152
tp2707
(lp2708
I00
aI00
aI00
as(g380
g512
tp2709
(lp2710
I00
aI01
aI00
as(g1155
g147
tp2711
(lp2712
I00
aI00
aI00
as(g380
g1155
tp2713
(lp2714
g2526
aI00
aI00
as(g512
g147
tp2715
(lp2716
I00
aI00
aI00
as(g148
g148
tp2717
(lp2718
I00
aI00
aI00
as(g449
g215
tp2719
(lp2720
I00
aI01
aI00
as(g272
g1155
tp2721
(lp2722
g2526
aI00
aI00
as(g215
g1155
tp2723
(lp2724
g2526
aI00
aI00
as(g148
g1155
tp2725
(lp2726
I00
aI00
aI00
as(g148
g272
tp2727
(lp2728
I00
aI00
aI00
as(g512
g215
tp2729
(lp2730
I00
aI01
aI00
as(g215
g512
tp2731
(lp2732
I00
aI00
aI00
as(g147
g272
tp2733
(lp2734
I00
aI00
aI00
as(g1152
g1155
tp2735
(lp2736
I00
aI00
aI00
as(g335
g147
tp2737
(lp2738
I00
aI00
aI00
as(g272
g380
tp2739
(lp2740
I00
aI00
aI00
as(g215
g215
tp2741
(lp2742
I00
aI00
aI00
as(g335
g1152
tp2743
(lp2744
g2526
aI00
aI01
as(g1155
g335
tp2745
(lp2746
I00
aI00
aI00
assg666
g667
sS'pick_in_way'
p2747
(itrajectory_representation.predicates.pick_in_way
PickInWay
p2748
(dp2749
g145
(dp2750
g272
g749
sg575
g798
sg147
g847
sg449
g891
sg380
g940
sg512
g972
sg335
g1002
sg215
g1058
ssg632
(dp2751
g272
(lp2752
Vsquare_packing_box2
p2753
asg575
(lp2754
sg147
(lp2755
sg449
(lp2756
Vsquare_packing_box3
p2757
asg380
(lp2758
sg512
(lp2759
Vrectangular_packing_box1
p2760
aVsquare_packing_box3
p2761
aVsquare_packing_box2
p2762
asg335
(lp2763
sg215
(lp2764
Vrectangular_packing_box1
p2765
aVsquare_packing_box3
p2766
assg666
(lp2767
g380
ag575
ag147
ag1155
ag148
ag1152
ag335
ag1155
ag148
ag1152
ag1155
ag148
ag1152
ag1155
ag148
ag1152
ag1155
ag148
ag1152
ag1155
ag148
ag1152
ag1155
ag148
ag1152
ag1155
ag148
ag1152
asg671
g672
sg78
(dp2768
sg706
g707
sg1079
Nsg1086
g707
sg1083
(dp2769
sg1085
I8
sg1147
I01
sg1087
Nsg1088
(dp2770
(g380
g215
tp2771
I00
s(g380
g272
tp2772
I01
s(g147
g512
tp2773
I00
s(g147
g147
tp2774
I00
s(g575
g512
tp2775
I00
s(g575
g147
tp2776
I00
s(g215
g575
tp2777
I00
s(g380
g335
tp2778
I00
s(g449
g147
tp2779
I00
s(g272
g272
tp2780
I00
s(g575
g1152
tp2781
I00
s(g1155
g1152
tp2782
I00
s(g272
g215
tp2783
I00
s(g1152
g215
tp2784
I00
s(g335
g148
tp2785
I00
s(g1155
g575
tp2786
I00
s(g575
g215
tp2787
I00
s(g147
g1155
tp2788
I00
s(g380
g380
tp2789
I00
s(g1152
g380
tp2790
I00
s(g512
g575
tp2791
I00
s(g575
g148
tp2792
I00
s(g449
g512
tp2793
I01
s(g272
g449
tp2794
I00
s(g335
g335
tp2795
I00
s(g575
g1155
tp2796
I00
s(g1152
g575
tp2797
I00
s(g1152
g512
tp2798
I00
s(g1152
g147
tp2799
I00
s(g512
g148
tp2800
I00
s(g215
g272
tp2801
I00
s(g449
g272
tp2802
I00
s(g512
g449
tp2803
I01
s(g1152
g272
tp2804
I00
s(g1155
g148
tp2805
I00
s(g335
g575
tp2806
I00
s(g272
g512
tp2807
I00
s(g1155
g512
tp2808
I00
s(g512
g1155
tp2809
I00
s(g147
g380
tp2810
I00
s(g215
g335
tp2811
I00
s(g147
g575
tp2812
I00
s(g215
g148
tp2813
I00
s(g1155
g1155
tp2814
I00
s(g512
g272
tp2815
I00
s(g335
g380
tp2816
I00
s(g148
g335
tp2817
I00
s(g449
g1152
tp2818
I00
s(g148
g449
tp2819
I00
s(g215
g147
tp2820
I00
s(g147
g335
tp2821
I00
s(g512
g1152
tp2822
I00
s(g147
g449
tp2823
I00
s(g512
g512
tp2824
I00
s(g449
g575
tp2825
I00
s(g1152
g148
tp2826
I00
s(g148
g380
tp2827
I00
s(g272
g148
tp2828
I00
s(g1155
g449
tp2829
I00
s(g148
g215
tp2830
I00
s(g147
g215
tp2831
I00
s(g449
g1155
tp2832
I00
s(g215
g1152
tp2833
I00
s(g449
g380
tp2834
I00
s(g272
g575
tp2835
I00
s(g272
g1152
tp2836
I00
s(g148
g147
tp2837
I00
s(g1155
g215
tp2838
I00
s(g1155
g272
tp2839
I00
s(g449
g148
tp2840
I00
s(g380
g449
tp2841
I00
s(g335
g449
tp2842
I00
s(g148
g512
tp2843
I00
s(g1152
g1152
tp2844
I00
s(g380
g147
tp2845
I00
s(g335
g512
tp2846
I00
s(g1152
g335
tp2847
I00
s(g575
g272
tp2848
I00
s(g1152
g449
tp2849
I00
s(g335
g1155
tp2850
I00
s(g380
g575
tp2851
I00
s(g147
g148
tp2852
I00
s(g335
g272
tp2853
I00
s(g272
g335
tp2854
I00
s(g575
g335
tp2855
I00
s(g1155
g380
tp2856
I00
s(g575
g449
tp2857
I00
s(g512
g380
tp2858
I00
s(g380
g1152
tp2859
I00
s(g449
g449
tp2860
I00
s(g215
g380
tp2861
I00
s(g335
g215
tp2862
I00
s(g575
g380
tp2863
I00
s(g575
g575
tp2864
I00
s(g215
g449
tp2865
I00
s(g380
g148
tp2866
I00
s(g512
g335
tp2867
I00
s(g147
g1152
tp2868
I00
s(g148
g575
tp2869
I00
s(g449
g335
tp2870
I00
s(g272
g147
tp2871
I00
s(g148
g1152
tp2872
I00
s(g380
g512
tp2873
I01
s(g1155
g147
tp2874
I00
s(g380
g1155
tp2875
I00
s(g512
g147
tp2876
I00
s(g148
g148
tp2877
I00
s(g449
g215
tp2878
I01
s(g272
g1155
tp2879
I00
s(g215
g1155
tp2880
I00
s(g148
g1155
tp2881
I00
s(g148
g272
tp2882
I00
s(g512
g215
tp2883
I01
s(g215
g512
tp2884
I00
s(g147
g272
tp2885
I00
s(g1152
g1155
tp2886
I00
s(g335
g147
tp2887
I00
s(g272
g380
tp2888
I00
s(g215
g215
tp2889
I00
s(g335
g1152
tp2890
I00
s(g1155
g335
tp2891
I00
ssg1146
NsbsS'robot_pose'
p2892
g22
(g23
(I0
tp2893
g25
tp2894
Rp2895
(I1
(I1
I3
tp2896
g157
I00
S'|\x88\x01\x92\xf8\xcb\xfc?\x08E\xf3d;f\x1b\xc0Y\x8c\x84\x08\x15\xa7\xd2?'
p2897
tp2898
bsS'is_holding_goal_entity'
p2899
(itrajectory_representation.predicates.is_holding_goal_entity
IsHoldingGoalEntity
p2900
(dp2901
g2492
g2493
sg1087
NsbsS'mc_pick_path'
p2902
(dp2903
sS'current_collides'
p2904
g672
sbasS'seed'
p2905
NsS'state_prime'
p2906
(lp2907
sS'problem_idx'
p2908
I200
sb.