(itrajectory_representation.trajectory
Trajectory
p0
(dp1
S'rewards'
p2
(lp3
I10
asS'actions'
p4
(lp5
(itrajectory_representation.operator
Operator
p6
(dp7
S'is_skeleton'
p8
I00
sS'discrete_parameters'
p9
(dp10
S'object'
p11
Vsquare_packing_box1
p12
sS'two_arm_place_region'
p13
S'home_region'
p14
sS'two_arm_place_object'
p15
Vsquare_packing_box1
p16
ssS'type'
p17
S'two_arm_pick_two_arm_place'
p18
sS'continuous_parameters'
p19
(dp20
S'q_goal'
p21
cnumpy.core.multiarray
_reconstruct
p22
(cnumpy
ndarray
p23
(I0
tp24
S'b'
p25
tp26
Rp27
(I1
(I3
tp28
cnumpy
dtype
p29
(S'f8'
p30
I0
I1
tp31
Rp32
(I3
S'<'
p33
NNNI-1
I-1
I0
tp34
bI00
S'\x86\x0f\xc3\xe0\xe0u\xf5?\xdd!\x91\xdfx-\x19\xc0\xae:\x89\xfd\x99s\xfd?'
p35
tp36
bsS'place'
p37
(dp38
g21
g22
(g23
(I0
tp39
g25
tp40
Rp41
(I1
(I3
tp42
g32
I00
S'\xe0\x04\x97\xc8\x1e\x98\xc2?\xa0\x04noZ\xac\xfe\xbf}\xda\x15\x951-\xeb\xbf'
p43
tp44
bssS'pick'
p45
(dp46
g21
g27
sssS'low_level_motion'
p47
(lp48
g22
(g23
(I0
tp49
g25
tp50
Rp51
(I1
(I3
tp52
g32
I00
S'N\x90\xe6\xdd\x05!\x02@\xf6\xb8\x82>\x93\x8e\x1e\xc0\xea\xbfl\xbbG\xbd\x0f@'
p53
tp54
bag22
(g23
(I0
tp55
g25
tp56
Rp57
(I1
(I3
tp58
g29
(S'f8'
p59
I0
I1
tp60
Rp61
(I3
S'<'
p62
NNNI-1
I-1
I0
tp63
bI00
S'S@\xf8l\x95\x08\xf8?\xef\x91If\xa4L\x1e\xc0\x8b\xc5pa\xf4C\x04\xc0'
p64
tp65
bag22
(g23
(I0
tp66
g25
tp67
Rp68
(I1
(I3
tp69
g61
I00
S'\xba)c\x05l\x93\xf4?\x8f\x0f\xa1<\xee\x05\x1c\xc0\xf9-\x16\x17\xc6`\xf8\xbf'
p70
tp71
bag22
(g23
(I0
tp72
g25
tp73
Rp74
(I1
(I3
tp75
g61
I00
S'{\xe7\xcc\xce\x02,\xf5?\xeb\x85\xf2\xb4\xc9\x08\x19\xc0\xcd\x97\xf6\xcc\xe4z\x00@'
p76
tp77
bag27
ag27
asbasS'filename'
p78
S''
p79
sS'states'
p80
(lp81
(itrajectory_representation.shortest_path_pick_and_place_state
ShortestPathPaPState
p82
(dp83
S'place_used'
p84
(dp85
(g16
g14
tp86
(itrajectory_representation.operator
Operator
p87
(dp88
g8
I01
sg9
(dp89
S'region'
p90
g14
sg11
g16
ssg17
S'two_arm_place'
p91
sg19
(dp92
g21
g22
(g23
(I0
tp93
g25
tp94
Rp95
(I1
(I3
tp96
g32
I00
S'\xe0\x04\x97\xc8\x1e\x98\xc2?\xa0\x04noZ\xac\xfe\xbf}\xda\x15\x951-\xeb\xbf'
p97
tp98
bssg47
(lp99
g22
(g23
(I0
tp100
g25
tp101
Rp102
(I1
(I3
tp103
g32
I00
S'\x82\x0f\xc3\xe0\xe0u\xf5?\xe5!\x91\xdfx-\x19\xc0\xb2:\x89\xfd\x99s\xfd?'
p104
tp105
bag22
(g23
(I0
tp106
g25
tp107
Rp108
(I1
(I3
tp109
g61
I00
S'j\xc7\xc0&\x8ag\xf6?h\x9cH4\x7f\xab\x18\xc0\xd8|\x1d\xfc\xcbV\xf2?'
p110
tp111
bag22
(g23
(I0
tp112
g25
tp113
Rp114
(I1
(I3
tp115
g61
I00
S'\x0e]\xf2K\xc6E\xf7?\x06\x8c\xb9Ybt\x17\xc0%\xac6\x86\x93\xa8\xdd?'
p116
tp117
bag22
(g23
(I0
tp118
g25
tp119
Rp120
(I1
(I3
tp121
g61
I00
S'\xe4\x9e\xb7\xac\xe0!\xeb?\x8a\x83\x10\xb1\xa2\xad\x15\xc0\x9aS\xfbY\xaf\x8f\xd2\xbf'
p122
tp123
bag22
(g23
(I0
tp124
g25
tp125
Rp126
(I1
(I3
tp127
g61
I00
S"\xb2&6mg)\xe8?\x99\xe0G'\x16\xe0\x13\xc0\xc8oL\xf5\x17p\xe6\xbf"
p128
tp129
bag22
(g23
(I0
tp130
g25
tp131
Rp132
(I1
(I3
tp133
g61
I00
S'\xb0E\xbb;Cb\xeb?\x9e\xde\xa7\xdd\xbdd\x12\xc0\xc6\xee\xbd\x16\x8c\xaa\xf3\xbf'
p134
tp135
bag22
(g23
(I0
tp136
g25
tp137
Rp138
(I1
(I3
tp139
g61
I00
S'\xec\x12\xec\x03\xdea\xe9?<\xa5t\x82\x15\x9b\x0e\xc0L\xf0\xe0\xffy\x10\xf5\xbf'
p140
tp141
bag22
(g23
(I0
tp142
g25
tp143
Rp144
(I1
(I3
tp145
g61
I00
S'(\xe0\x1c\xccxa\xe7?<\x8d\x99I\xafl\x08\xc0\xd2\xf1\x03\xe9gv\xf6\xbf'
p146
tp147
bag22
(g23
(I0
tp148
g25
tp149
Rp150
(I1
(I3
tp151
g61
I00
S'd\xadM\x94\x13a\xe5?>u\xbe\x10I>\x02\xc0X\xf3&\xd2U\xdc\xf7\xbf'
p152
tp153
bag95
ag95
asbssS'place_in_way'
p154
(itrajectory_representation.predicates.place_in_way
PlaceInWay
p155
(dp156
S'mc_path_to_entity'
p157
(dp158
(Vrectangular_packing_box3
p159
S'home_region'
p160
tp161
(lp162
g22
(g23
(I0
tp163
g25
tp164
Rp165
(I1
(I3
tp166
g29
(S'f8'
p167
I0
I1
tp168
Rp169
(I3
S'<'
p170
NNNI-1
I-1
I0
tp171
bI00
S'p\xc9\xb4:Y.\xe3?\xea<f\x9d\xf7]\x1b\xc0\x90,$_\x0e8\x00@'
p172
tp173
bag22
(g23
(I0
tp174
g25
tp175
Rp176
(I1
(I3
tp177
g29
(S'f8'
p178
I0
I1
tp179
Rp180
(I3
S'<'
p181
NNNI-1
I-1
I0
tp182
bI00
S'B\x9aa8\x98\xa6\xe8?\xf3\xe9\x94/\xc2\xe4\x18\xc0u\xf8\xb0\x7fO\xb8\xf2?'
p183
tp184
bag22
(g23
(I0
tp185
g25
tp186
Rp187
(I1
(I3
tp188
g180
I00
S'\xd8\x87\x03p)T\xe4?\xd5\xabI\xb7V\xd0\x15\xc0vWg\x9a\x87\x8a\xec?'
p189
tp190
bag22
(g23
(I0
tp191
g25
tp192
Rp193
(I1
(I3
tp194
g180
I00
S'\xa9\xd9\x1d\x8d\xa6j\xdf?\xa0\x85\x1a\x84\xc6\xec\x12\xc0\x01\xb6 H\xb1\x91\xeb?'
p195
tp196
bag22
(g23
(I0
tp197
g25
tp198
Rp199
(I1
(I3
tp200
g180
I00
S'\x93k\xbc\xee\xc2\x10\xe8?\xab^\x86?\x08D\x10\xc0\x10;2\x00\xe5\t\xde?'
p201
tp202
bag22
(g23
(I0
tp203
g25
tp204
Rp205
(I1
(I3
tp206
g180
I00
S'\xef\xc3u*\xfb\xdb\xeb?\x8d\xa5\n\xfd\x03<\n\xc0\xd8\xfb\xde\x16R\xac\xde?'
p207
tp208
bag22
(g23
(I0
tp209
g25
tp210
Rp211
(I1
(I3
tp212
g180
I00
S'\xf4\xfdJ\x1a(#\xec?H"\x9cD\x1aE\x05\xc0.\xa9\x0b\x87\xf8\xe1\x02@'
p213
tp214
bas(Vsquare_packing_box4
p215
g160
tp216
(lp217
g22
(g23
(I0
tp218
g25
tp219
Rp220
(I1
(I3
tp221
g169
I00
S'\xa8\x07xD\x98\x81\x02@J\x08\x9eFdd\x1d\xc0\xdaT\xef\xb4\x12M\x18@'
p222
tp223
bag22
(g23
(I0
tp224
g25
tp225
Rp226
(I1
(I3
tp227
g180
I00
S'\x84\xa3|.\x10\xee\xfc?\xfc\xc5\t\x9e\xc3\xe9\x1a\xc0\xec\x96S\xb5\x05\x08\x05\xc0'
p228
tp229
bag22
(g23
(I0
tp230
g25
tp231
Rp232
(I1
(I3
tp233
g180
I00
S'\xa1\x0f=\xe0\x1aF\xfc?e&S\xf6\xb5\xfc\x17\xc0s\xad\xdc\xd8h\x9b\x04\xc0'
p234
tp235
bag22
(g23
(I0
tp236
g25
tp237
Rp238
(I1
(I3
tp239
g180
I00
S'R\x12);\xaf\xa5\xf7?\xf3\xf9\xeb\x07c\xef\x15\xc0\xf0V^\xd6\x94\x96\x05\xc0'
p240
tp241
bag22
(g23
(I0
tp242
g25
tp243
Rp244
(I1
(I3
tp245
g180
I00
S'\xd0\xcb\x13\x8f\xaa\x9d\xed?\x90\x01<]3\x06\x16\xc0F\xf1\xe7x32\x02\xc0'
p246
tp247
bag22
(g23
(I0
tp248
g25
tp249
Rp250
(I1
(I3
tp251
g180
I00
S'l[\xc4\x16<\xe6\xe9?\xa6\xa0\x90\x84X\x9f\x13\xc0\xc2\xd74Q\x00\xaf\xff\xbf'
p252
tp253
bag22
(g23
(I0
tp254
g25
tp255
Rp256
(I1
(I3
tp257
g180
I00
S"\xaeJ\xbd\x1936\xec?\x04\x13\xd4'\x9f\x88\x10\xc0\x805qo\xb6\xe6\xff\xbf"
p258
tp259
bag22
(g23
(I0
tp260
g25
tp261
Rp262
(I1
(I3
tp263
g180
I00
S'\xf09\xb6\x1c*\x86\xee?\xc4\n/\x96\xcb\xe3\n\xc0\xa0\xc9\xd6F6\x0f\x00\xc0'
p264
tp265
bag22
(g23
(I0
tp266
g25
tp267
Rp268
(I1
(I3
tp269
g180
I00
S'3\xe9\xaf\x05T\x89\xe7?+~\xcb\xd3\x15\xc7\x04\xc0x6(d5\xed\x07@'
p270
tp271
bas(Vrectangular_packing_box4
p272
g160
tp273
(lp274
g22
(g23
(I0
tp275
g25
tp276
Rp277
(I1
(I3
tp278
g169
I00
S"\x18'\xbc`?\x00\x08@\x15\xeb\xf9.\xd7\x97\x1a\xc0\x05\xac4\xd3\xec0\x06@"
p279
tp280
bag22
(g23
(I0
tp281
g25
tp282
Rp283
(I1
(I3
tp284
g180
I00
S'\xba\x8d\x1a\xa2f&\x03@$\xbc\xba{lE\x1a\xc0172\n\x8c\xab\x03@'
p285
tp286
bag22
(g23
(I0
tp287
g25
tp288
Rp289
(I1
(I3
tp290
g180
I00
S'\xf60LV\xe8\x96\x00@\x9aEw{a\xe2\x18\xc0^\xa8\x8a,\xa3\x98\x00@'
p291
tp292
bag22
(g23
(I0
tp293
g25
tp294
Rp295
(I1
(I3
tp296
g180
I00
S'\xc2:\x1b=\xad,\xfa?(\x190\xa5<\xab\x16\xc0\x9d\x91\xdc8Kq\x01@'
p297
tp298
bag22
(g23
(I0
tp299
g25
tp300
Rp301
(I1
(I3
tp302
g180
I00
S'o\xd6\x82\xea\x7f\xb2\xed?9\xf2C\x0b?\xfd\x16\xc0(?d\xe9@\xb5\x02@'
p303
tp304
bag22
(g23
(I0
tp305
g25
tp306
Rp307
(I1
(I3
tp308
g180
I00
S'&>c9\x01,\xeb?\xb2\xc2\xf0\x02\xce\x8e\x14\xc0\xd8p\xbb2\x14\xd2\x03@'
p309
tp310
bag22
(g23
(I0
tp311
g25
tp312
Rp313
(I1
(I3
tp314
g180
I00
S'\x97\xff-a\x91r\xf0?\x1a\x15\xfe\xb9:\x1b\x12\xc0\nG\xfe\xfa~y\x05@'
p315
tp316
bag22
(g23
(I0
tp317
g25
tp318
Rp319
(I1
(I3
tp320
g180
I00
S'y\xd4\xbc{`\x0b\xf2?\xb0C6m\xb7\xd6\x0e\xc0\xe8\xe2r\xbe\x16{\xf5?'
p321
tp322
bag22
(g23
(I0
tp323
g25
tp324
Rp325
(I1
(I3
tp326
g180
I00
S'\xd1\xaa\x15!\x8c\x06\xed?\x8c\xab\xab^w\xe3\t\xc0~&\xcc\xa2\xcbw\xf6?'
p327
tp328
bag22
(g23
(I0
tp329
g25
tp330
Rp331
(I1
(I3
tp332
g180
I00
S'3\xe9\xaf\x05T\x89\xe7?+~\xcb\xd3\x15\xc7\x04\xc0x6(d5\xed\x07@'
p333
tp334
bas(Vsquare_packing_box1
p335
g160
tp336
(lp337
g22
(g23
(I0
tp338
g25
tp339
Rp340
(I1
(I3
tp341
g169
I00
S'\x88\x0f\xc3\xe0\xe0u\xf5?\xdc!\x91\xdfx-\x19\xc0\xae:\x89\xfd\x99s\xfd?'
p342
tp343
bag22
(g23
(I0
tp344
g25
tp345
Rp346
(I1
(I3
tp347
g180
I00
S'o\xd6\x82\xea\x7f\xb2\xed?9\xf2C\x0b?\xfd\x16\xc0(?d\xe9@\xb5\x02@'
p348
tp349
bag22
(g23
(I0
tp350
g25
tp351
Rp352
(I1
(I3
tp353
g180
I00
S'&>c9\x01,\xeb?\xb2\xc2\xf0\x02\xce\x8e\x14\xc0\xd8p\xbb2\x14\xd2\x03@'
p354
tp355
bag22
(g23
(I0
tp356
g25
tp357
Rp358
(I1
(I3
tp359
g180
I00
S'\xc6\x05\xbdtg\xd9\xe2?F\xdf\x9d@\\\xf3\x11\xc0\x1a\xc4.\xbb\xcc\x12\x02@'
p360
tp361
bag22
(g23
(I0
tp362
g25
tp363
Rp364
(I1
(I3
tp365
g180
I00
S'3z\xed\x8eN)\xe4?\x0c\x96\xd4\xa2\x0e\xd0\r\xc0\xbd%\xf5{\xe9\xf9\x03@'
p366
tp367
bag22
(g23
(I0
tp368
g25
tp369
Rp370
(I1
(I3
tp371
g180
I00
S'\xaf0\xe9h\xba~\xee?k\xbb\xd8\xd4\xd0g\t\xc09\x9ey\xed\xb06\x06@'
p372
tp373
bag22
(g23
(I0
tp374
g25
tp375
Rp376
(I1
(I3
tp377
g180
I00
S'\xf4\xfdJ\x1a(#\xec?H"\x9cD\x1aE\x05\xc0.\xa9\x0b\x87\xf8\xe1\x02@'
p378
tp379
bas(Vsquare_packing_box2
p380
g160
tp381
(lp382
g22
(g23
(I0
tp383
g25
tp384
Rp385
(I1
(I3
tp386
g169
I00
S'Le\xc3O/\\\xec?\xe7\xf3\xd8\x0f\xe1\x15\x1c\xc0lx\xf3\x85\xfdn\x10@'
p387
tp388
bag22
(g23
(I0
tp389
g25
tp390
Rp391
(I1
(I3
tp392
g180
I00
S"\xc6'8AN\xb0\xec?\xe0\x975>\x0f\x03\x19\xc0(\xe0e;\x85\x89\x05\xc0"
p393
tp394
bag22
(g23
(I0
tp395
g25
tp396
Rp397
(I1
(I3
tp398
g180
I00
S'\xd0\xcb\x13\x8f\xaa\x9d\xed?\x90\x01<]3\x06\x16\xc0F\xf1\xe7x32\x02\xc0'
p399
tp400
bag22
(g23
(I0
tp401
g25
tp402
Rp403
(I1
(I3
tp404
g180
I00
S'l[\xc4\x16<\xe6\xe9?\xa6\xa0\x90\x84X\x9f\x13\xc0\xc2\xd74Q\x00\xaf\xff\xbf'
p405
tp406
bag22
(g23
(I0
tp407
g25
tp408
Rp409
(I1
(I3
tp410
g180
I00
S"\xaeJ\xbd\x1936\xec?\x04\x13\xd4'\x9f\x88\x10\xc0\x805qo\xb6\xe6\xff\xbf"
p411
tp412
bag22
(g23
(I0
tp413
g25
tp414
Rp415
(I1
(I3
tp416
g180
I00
S'\xf09\xb6\x1c*\x86\xee?\xc4\n/\x96\xcb\xe3\n\xc0\xa0\xc9\xd6F6\x0f\x00\xc0'
p417
tp418
bag22
(g23
(I0
tp419
g25
tp420
Rp421
(I1
(I3
tp422
g180
I00
S'3\xe9\xaf\x05T\x89\xe7?+~\xcb\xd3\x15\xc7\x04\xc0x6(d5\xed\x07@'
p423
tp424
bas(Vrectangular_packing_box1
p425
g160
tp426
(lp427
g22
(g23
(I0
tp428
g25
tp429
Rp430
(I1
(I3
tp431
g169
I00
S'\xaf\x98#\xaco\xd4\t@6\x08A\x1d\x1f\x07\x1c\xc0\x1aCVe\xa3\xab\x17@'
p432
tp433
bag22
(g23
(I0
tp434
g25
tp435
Rp436
(I1
(I3
tp437
g180
I00
S'\xc3#\x9b"m=\x05@O\x1c\xaf\xffo\x1c\x1b\xc0\xa4\xc19\xdd\xaa\xea\xdd?'
p438
tp439
bag22
(g23
(I0
tp440
g25
tp441
Rp442
(I1
(I3
tp443
g180
I00
S'\xb1\x91\x83\xd6J:\x00@X\xbf\x9b\xa3\xf7;\x19\xc0\xb4\xa9\x94\xff\xff\xd1\xec?'
p444
tp445
bag22
(g23
(I0
tp446
g25
tp447
Rp448
(I1
(I3
tp449
g180
I00
S'\x0e]\xf2K\xc6E\xf7?\x06\x8c\xb9Ybt\x17\xc0%\xac6\x86\x93\xa8\xdd?'
p450
tp451
bag22
(g23
(I0
tp452
g25
tp453
Rp454
(I1
(I3
tp455
g180
I00
S'\xe4\x9e\xb7\xac\xe0!\xeb?\x8a\x83\x10\xb1\xa2\xad\x15\xc0\x9aS\xfbY\xaf\x8f\xd2\xbf'
p456
tp457
bag22
(g23
(I0
tp458
g25
tp459
Rp460
(I1
(I3
tp461
g180
I00
S"\xb2&6mg)\xe8?\x99\xe0G'\x16\xe0\x13\xc0\xc8oL\xf5\x17p\xe6\xbf"
p462
tp463
bag22
(g23
(I0
tp464
g25
tp465
Rp466
(I1
(I3
tp467
g180
I00
S'`\xc8Aw-\x81\xeb?/\xc3\xe6O\x04\xca\x10\xc0\x8a\xb7K)\x91{\xe4\xbf'
p468
tp469
bag22
(g23
(I0
tp470
g25
tp471
Rp472
(I1
(I3
tp473
g180
I00
S'\xe1\xc6\xc7\xa7\x12X\xe7?\x98\x99\xb0\x9a\xfb\xdb\x0b\xc0R\t\x1b)\xeae\xe0\xbf'
p474
tp475
bag22
(g23
(I0
tp476
g25
tp477
Rp478
(I1
(I3
tp479
g180
I00
S'p\xf1\xbdc^\x84\xf1?"\x88LL\xf9D\x06\xc0~w\r\xe9m\x0f\x19@'
p480
tp481
bas(Vsquare_packing_box3
p482
g160
tp483
(lp484
g22
(g23
(I0
tp485
g25
tp486
Rp487
(I1
(I3
tp488
g169
I00
S'\xbc\xb2\xfb\xc5j\xfd\xf8?T\xfem@t%\x1e\xc0(_7\x98s\x1f\xf1?'
p489
tp490
bag22
(g23
(I0
tp491
g25
tp492
Rp493
(I1
(I3
tp494
g180
I00
S'\xaf3:\xca\x05\xfa\xee?\x17\xfeO1BH\x1c\xc0&\xc3FV\xf0\xcb\xf7?'
p495
tp496
bag22
(g23
(I0
tp497
g25
tp498
Rp499
(I1
(I3
tp500
g180
I00
S'\x00{\xeeM\xfb\x06\xd8?\xa7W\x1e\xc1\xa5F\x1b\xc0\xd0\xcaV\x8a\x88D\xf6?'
p501
tp502
bag22
(g23
(I0
tp503
g25
tp504
Rp505
(I1
(I3
tp506
g180
I00
S'B\x9aa8\x98\xa6\xe8?\xf3\xe9\x94/\xc2\xe4\x18\xc0u\xf8\xb0\x7fO\xb8\xf2?'
p507
tp508
bag22
(g23
(I0
tp509
g25
tp510
Rp511
(I1
(I3
tp512
g180
I00
S'\xd8\x87\x03p)T\xe4?\xd5\xabI\xb7V\xd0\x15\xc0vWg\x9a\x87\x8a\xec?'
p513
tp514
bag22
(g23
(I0
tp515
g25
tp516
Rp517
(I1
(I3
tp518
g180
I00
S'\xa9\xd9\x1d\x8d\xa6j\xdf?\xa0\x85\x1a\x84\xc6\xec\x12\xc0\x01\xb6 H\xb1\x91\xeb?'
p519
tp520
bag22
(g23
(I0
tp521
g25
tp522
Rp523
(I1
(I3
tp524
g180
I00
S'\x93k\xbc\xee\xc2\x10\xe8?\xab^\x86?\x08D\x10\xc0\x10;2\x00\xe5\t\xde?'
p525
tp526
bag22
(g23
(I0
tp527
g25
tp528
Rp529
(I1
(I3
tp530
g180
I00
S'\xef\xc3u*\xfb\xdb\xeb?\x8d\xa5\n\xfd\x03<\n\xc0\xd8\xfb\xde\x16R\xac\xde?'
p531
tp532
bag22
(g23
(I0
tp533
g25
tp534
Rp535
(I1
(I3
tp536
g180
I00
S'\xf4\xfdJ\x1a(#\xec?H"\x9cD\x1aE\x05\xc0.\xa9\x0b\x87\xf8\xe1\x02@'
p537
tp538
bas(Vrectangular_packing_box2
p539
g160
tp540
(lp541
g22
(g23
(I0
tp542
g25
tp543
Rp544
(I1
(I3
tp545
g169
I00
S"\xc8b'\xaa\xd4\xae\n@=HW\x86\x8d2\x16\xc0SW\x9e)\x1a\xe8\x14@"
p546
tp547
bag22
(g23
(I0
tp548
g25
tp549
Rp550
(I1
(I3
tp551
g180
I00
S'\xe6rt0\xc6`\x05@\xe8\xf6\xaa\xc7\x03\x10\x17\xc0v\x9e\xc9\x80o\x15\xed\xbf'
p552
tp553
bag22
(g23
(I0
tp554
g25
tp555
Rp556
(I1
(I3
tp557
g180
I00
S'!\x83\xc0\xf3W\x85\xff?\xed\x8f\x90/y\xfd\x16\xc06jP\xfe\x98\xf5\xf4\xbf'
p558
tp559
bag22
(g23
(I0
tp560
g25
tp561
Rp562
(I1
(I3
tp563
g180
I00
S'2Z\xe1\xe97J\xf6?\\\x1e`@2v\x16\xc0\xc4\x0c\xcc\x14<\xf9\xf6\xbf'
p564
tp565
bag22
(g23
(I0
tp566
g25
tp567
Rp568
(I1
(I3
tp569
g180
I00
S'tx\x8as\xa8b\xed?\x9ej\x15\xfa\xf0{\x15\xc0@\xed\x9a-\x9eD\xf2\xbf'
p570
tp571
bag22
(g23
(I0
tp572
g25
tp573
Rp574
(I1
(I3
tp575
g180
I00
S"\xb2&6mg)\xe8?\x99\xe0G'\x16\xe0\x13\xc0\xc8oL\xf5\x17p\xe6\xbf"
p576
tp577
bag22
(g23
(I0
tp578
g25
tp579
Rp580
(I1
(I3
tp581
g180
I00
S'`\xc8Aw-\x81\xeb?/\xc3\xe6O\x04\xca\x10\xc0\x8a\xb7K)\x91{\xe4\xbf'
p582
tp583
bag22
(g23
(I0
tp584
g25
tp585
Rp586
(I1
(I3
tp587
g180
I00
S'\xe1\xc6\xc7\xa7\x12X\xe7?\x98\x99\xb0\x9a\xfb\xdb\x0b\xc0R\t\x1b)\xeae\xe0\xbf'
p588
tp589
bag22
(g23
(I0
tp590
g25
tp591
Rp592
(I1
(I3
tp593
g180
I00
S'p\xf1\xbdc^\x84\xf1?"\x88LL\xf9D\x06\xc0~w\r\xe9m\x0f\x19@'
p594
tp595
bassS'mc_to_entity'
p596
(dp597
(g159
g160
tp598
(lp599
Vsquare_packing_box1
p600
as(g215
g160
tp601
(lp602
Vsquare_packing_box3
p603
aVrectangular_packing_box4
p604
aVsquare_packing_box1
p605
aVrectangular_packing_box3
p606
as(g272
g160
tp607
(lp608
Vrectangular_packing_box2
p609
aVsquare_packing_box4
p610
aVsquare_packing_box1
p611
as(g335
g160
tp612
(lp613
s(g380
g160
tp614
(lp615
Vrectangular_packing_box3
p616
aVsquare_packing_box1
p617
as(g425
g160
tp618
(lp619
Vsquare_packing_box4
p620
aVrectangular_packing_box2
p621
aVrectangular_packing_box4
p622
aVsquare_packing_box1
p623
as(g482
g160
tp624
(lp625
Vrectangular_packing_box3
p626
aVsquare_packing_box1
p627
as(g539
g160
tp628
(lp629
Vrectangular_packing_box4
p630
aVsquare_packing_box1
p631
assS'reachable_entities'
p632
(lp633
Vrectangular_packing_box3
p634
aVsquare_packing_box2
p635
aVsquare_packing_box3
p636
ag12
aVsquare_packing_box4
p637
asS'collides'
p638
(dp639
Vrectangular_packing_box4
p640
c__builtin__
set
p641
((lp642
I3
aI4
aI577
aI395
aI538
aI161
aI37
aI38
aI561
aI178
aI435
aI309
aI54
aI55
aI188
aI63
aI64
aI449
aI194
aI69
aI70
aI201
aI202
aI205
aI79
aI376
aI595
aI89
aI90
aI219
aI92
aI611
aI550
aI114
aI115
aI372
aI248
aI379
aI511
atp643
Rp644
sVrectangular_packing_box2
p645
g641
((lp646
I144
aI403
aI545
aI548
aI550
aI425
aI302
aI303
aI307
aI438
aI442
aI571
aI62
aI453
aI457
aI342
aI343
aI473
aI474
aI348
aI605
aI612
aI367
aI368
aI369
aI370
aI371
aI500
aI247
aI248
aI377
atp647
Rp648
sVrectangular_packing_box3
p649
g641
((lp650
I491
aI132
aI133
aI6
aI7
aI137
aI138
aI139
aI275
aI276
aI152
aI153
aI154
aI155
aI157
aI517
aI417
aI547
aI165
aI166
aI424
aI521
aI196
aI198
aI518
aI459
aI338
aI84
aI349
aI350
aI351
aI362
aI107
aI108
aI503
aI249
aI251
aI252
aI383
atp651
Rp652
sVrectangular_packing_box1
p653
g641
((lp654
I386
aI387
aI269
aI270
aI405
aI280
aI565
aI573
aI193
aI339
aI212
aI213
aI479
aI614
aI617
aI111
aI112
aI211
aI245
aI246
aI381
aI254
atp655
Rp656
sVsquare_packing_box2
p657
g641
((lp658
I384
aI257
aI134
aI135
aI264
aI265
aI394
aI532
aI158
aI159
aI164
aI176
aI433
aI452
aI583
aI328
aI458
aI589
aI83
aI346
aI478
aI229
aI490
aI366
aI502
aI122
atp659
Rp660
sVsquare_packing_box3
p661
g641
((lp662
I256
aI577
aI145
aI146
aI538
aI413
aI543
aI36
aI422
aI429
aI443
aI444
aI64
aI65
aI66
aI69
aI205
aI79
aI80
aI81
aI215
aI90
aI219
aI92
aI358
aI123
aI124
atp663
Rp664
sVsquare_packing_box1
p665
g641
((lp666
I132
aI517
aI8
aI416
aI33
aI34
aI554
aI43
aI44
aI301
aI584
aI56
aI186
aI187
aI71
aI456
aI203
aI162
aI94
aI95
aI327
aI484
aI233
aI106
aI108
aI497
aI234
atp667
Rp668
sVsquare_packing_box4
p669
g641
((lp670
I513
aI260
aI268
aI405
aI548
aI511
aI303
aI179
aI436
aI565
aI438
aI440
aI577
aI194
aI68
aI210
aI211
aI340
aI343
aI90
aI91
aI220
aI479
aI354
aI613
aI614
aI113
aI114
aI500
aI375
aI212
aI123
aI254
aI255
atp671
Rp672
ssg84
g85
sS'pick_used'
p673
(dp674
Vrectangular_packing_box4
p675
(itrajectory_representation.operator
Operator
p676
(dp677
g8
I01
sg9
(dp678
S'object'
p679
Vrectangular_packing_box4
p680
ssg17
S'two_arm_pick'
p681
sg19
(dp682
S'q_goal'
p683
(lp684
g22
(g23
(I0
tp685
g25
tp686
Rp687
(I1
(I3
tp688
g169
I00
S"\x18'\xbc`?\x00\x08@\x19\xeb\xf9.\xd7\x97\x1a\xc0\x05\xac4\xd3\xec0\x06@"
p689
tp690
bag22
(g23
(I0
tp691
g25
tp692
Rp693
(I1
(I3
tp694
g169
I00
S'\xfez\xc5\x88\xce\xbe\x07@\xb2yb\x16\x0c\x17\x19\xc0\xb1A\xf9{\x97\xd4\x08\xc0'
p695
tp696
bag22
(g23
(I0
tp697
g25
tp698
Rp699
(I1
(I3
tp700
g169
I00
S'\x1b\xd8\xb32\xd0\xb3\x07@4\x8c?\xce\xef-\x1a\xc0t\xdf\x10O\x1c\xfd\x07@'
p701
tp702
basS'is_feasible'
p703
I00
ssg47
(lp704
g22
(g23
(I0
tp705
g25
tp706
Rp707
(I1
(I3
tp708
g169
I00
S'@\x90\xe6\xdd\x05!\x02@\xfc\xb8\x82>\x93\x8e\x1e\xc0\xeb\xbfl\xbbG\xbd\x0f@'
p709
tp710
bag22
(g23
(I0
tp711
g25
tp712
Rp713
(I1
(I3
tp714
g180
I00
S'\x89\xcfHU\xa1\xf5\x05@\xee\x9b\xa6\x01<)\x1c\xc0W\xa3jE\xe6\xde\x01\xc0'
p715
tp716
bag22
(g23
(I0
tp717
g25
tp718
Rp719
(I1
(I3
tp720
g180
I00
S'\xca\xbc\xd1\x14\xab\xdb\x03@\x1d\xe31\xd0\xab\xb7\x1a\xc0\xbe\x9cO\xe2\x184\x13@'
p721
tp722
bag699
asbsVrectangular_packing_box2
p723
(itrajectory_representation.operator
Operator
p724
(dp725
g8
I01
sg9
(dp726
g679
Vrectangular_packing_box2
p727
ssg17
g681
sg19
(dp728
g683
(lp729
g22
(g23
(I0
tp730
g25
tp731
Rp732
(I1
(I3
tp733
g169
I00
S"\xc8b'\xaa\xd4\xae\n@>HW\x86\x8d2\x16\xc0\x13W\x97\xaa\x84\xe7\xf0\xbf"
p734
tp735
bag22
(g23
(I0
tp736
g25
tp737
Rp738
(I1
(I3
tp739
g169
I00
S'\xc1y%<\xbb\x18\x0c@8\x19\x0f\xd5W\xbd\x1b\xc0\x06\xd5\xea\x80\x95#\xfe?'
p740
tp741
bag22
(g23
(I0
tp742
g25
tp743
Rp744
(I1
(I3
tp745
g169
I00
S"\xfb\x06H\x03\x90\x99\r@\xba'\x08\xe2\\\xb6\x1b\xc0V\xc1\\\xc3\xc8\xd1\xf8?"
p746
tp747
bag22
(g23
(I0
tp748
g25
tp749
Rp750
(I1
(I3
tp751
g169
I00
S"4\x849\xb0<'\x06@\xc3\x9cAUX\x0e\x19\xc06W~\x1e\x83\t\xb6?"
p752
tp753
bag22
(g23
(I0
tp754
g25
tp755
Rp756
(I1
(I3
tp757
g169
I00
S'\x19\x0b\x12m\xc8f\x0f@\r\xb3U8z\x8f\x1b\xc0\xd84?\x08xl\xf9?'
p758
tp759
basg703
I00
ssg47
(lp760
g22
(g23
(I0
tp761
g25
tp762
Rp763
(I1
(I3
tp764
g169
I00
S'@\x90\xe6\xdd\x05!\x02@\xfc\xb8\x82>\x93\x8e\x1e\xc0\xeb\xbfl\xbbG\xbd\x0f@'
p765
tp766
bag22
(g23
(I0
tp767
g25
tp768
Rp769
(I1
(I3
tp770
g180
I00
S'\xff\xd7C\xaa\x9ac\xff?\x86\x0e\xb5\xc1\xc7\x12\x1c\xc0\xd6\x18\x81\xcfC-\x12@'
p771
tp772
bag22
(g23
(I0
tp773
g25
tp774
Rp775
(I1
(I3
tp776
g180
I00
S'\xb1\x91\x83\xd6J:\x00@X\xbf\x9b\xa3\xf7;\x19\xc0\xb4\xa9\x94\xff\xff\xd1\xec?'
p777
tp778
bag750
asbsg634
(itrajectory_representation.operator
Operator
p779
(dp780
g8
I01
sg9
(dp781
g679
Vrectangular_packing_box3
p782
ssg17
g681
sg19
(dp783
g683
(lp784
g22
(g23
(I0
tp785
g25
tp786
Rp787
(I1
(I3
tp788
g169
I00
S'_\xc9\xb4:Y.\xe3?\xea<f\x9d\xf7]\x1b\xc0\x90,$_\x0e8\x00@'
p789
tp790
bag22
(g23
(I0
tp791
g25
tp792
Rp793
(I1
(I3
tp794
g169
I00
S'[p\xd0\xfc\xee#\xc5?"\xbe=5*\x89\x1b\xc0X\x03SWr^\xf9?'
p795
tp796
bag22
(g23
(I0
tp797
g25
tp798
Rp799
(I1
(I3
tp800
g169
I00
S'\x80g\x02\x8eu\x8e\xe0?\xf3\t\xed\x1c\x8a\xd7\x1b\xc0\xda?8\x06?\xef\x00@'
p801
tp802
bag22
(g23
(I0
tp803
g25
tp804
Rp805
(I1
(I3
tp806
g169
I00
S'N\xfb\x88\x86k\xff\xd3?\xd2\xf3S\x13e\xc1\x1b\xc0p\xe5h3\xeb\xa0\xfa?'
p807
tp808
basg703
I00
ssg47
(lp809
g22
(g23
(I0
tp810
g25
tp811
Rp812
(I1
(I3
tp813
g169
I00
S'@\x90\xe6\xdd\x05!\x02@\xfc\xb8\x82>\x93\x8e\x1e\xc0\xeb\xbfl\xbbG\xbd\x0f@'
p814
tp815
bag22
(g23
(I0
tp816
g25
tp817
Rp818
(I1
(I3
tp819
g180
I00
S'S@\xf8l\x95\x08\xf8?\xef\x91If\xa4L\x1e\xc0\x8b\xc5pa\xf4C\x04\xc0'
p820
tp821
bag22
(g23
(I0
tp822
g25
tp823
Rp824
(I1
(I3
tp825
g180
I00
S'\xaf3:\xca\x05\xfa\xee?\x17\xfeO1BH\x1c\xc0&\xc3FV\xf0\xcb\xf7?'
p826
tp827
bag787
asbsVrectangular_packing_box1
p828
(itrajectory_representation.operator
Operator
p829
(dp830
g8
I01
sg9
(dp831
g679
Vrectangular_packing_box1
p832
ssg17
g681
sg19
(dp833
g683
(lp834
g22
(g23
(I0
tp835
g25
tp836
Rp837
(I1
(I3
tp838
g169
I00
S'\xb1\x98#\xaco\xd4\t@6\x08A\x1d\x1f\x07\x1c\xc0\xd8\x9f\xde\xee~e\xd7\xbf'
p839
tp840
bag22
(g23
(I0
tp841
g25
tp842
Rp843
(I1
(I3
tp844
g169
I00
S'\xcbi\x16l{-\t@\x8b\xf2\xe6\x83\x05\xab\x1c\xc0(\xe3\xe3\xc5\xa2<\xc6\xbf'
p845
tp846
bag22
(g23
(I0
tp847
g25
tp848
Rp849
(I1
(I3
tp850
g169
I00
S'\xd9Gu\xf2\xa2Y\x08@\x12M\xe3\x0f\xaa\xdd\x1c\xc0d\x10\xad\x9e\x93\xc9\xea\xbf'
p851
tp852
basg703
I00
ssg47
(lp853
g22
(g23
(I0
tp854
g25
tp855
Rp856
(I1
(I3
tp857
g169
I00
S'@\x90\xe6\xdd\x05!\x02@\xfc\xb8\x82>\x93\x8e\x1e\xc0\xeb\xbfl\xbbG\xbd\x0f@'
p858
tp859
bag22
(g23
(I0
tp860
g25
tp861
Rp862
(I1
(I3
tp863
g180
I00
S'\x89\xcfHU\xa1\xf5\x05@\xee\x9b\xa6\x01<)\x1c\xc0W\xa3jE\xe6\xde\x01\xc0'
p864
tp865
bag22
(g23
(I0
tp866
g25
tp867
Rp868
(I1
(I3
tp869
g180
I00
S'\xca\xbc\xd1\x14\xab\xdb\x03@\x1d\xe31\xd0\xab\xb7\x1a\xc0\xbe\x9cO\xe2\x184\x13@'
p870
tp871
bag849
asbsg635
(itrajectory_representation.operator
Operator
p872
(dp873
g8
I01
sg9
(dp874
g679
Vsquare_packing_box2
p875
ssg17
g681
sg19
(dp876
g683
(lp877
g22
(g23
(I0
tp878
g25
tp879
Rp880
(I1
(I3
tp881
g169
I00
S'Ue\xc3O/\\\xec?\xe6\xf3\xd8\x0f\xe1\x15\x1c\xc0Yi\xa1\x9c\xfbe\x01\xc0'
p882
tp883
bag22
(g23
(I0
tp884
g25
tp885
Rp886
(I1
(I3
tp887
g169
I00
S'H\xfaP\xe50\xa2\xce\xbf\xa8F\xaf\x02\xe6\x9e\x1d\xc0F\xa7f|\xcf\xe1\xdc\xbf'
p888
tp889
bag22
(g23
(I0
tp890
g25
tp891
Rp892
(I1
(I3
tp893
g169
I00
S'\x8bW\x04\x1e\xf5\xb4\xf3?Z\xaa\xf6\xb7\x18\xc6\x1f\xc0\xf8\xeay\x8eS\x02\x08@'
p894
tp895
bag22
(g23
(I0
tp896
g25
tp897
Rp898
(I1
(I3
tp899
g169
I00
S'0\x84\xf5\x1f\xbe\xc0\xf1?q:\x06\x80Vy\x1f\xc0\x80\x1e\xdc\x95\xebe\x05@'
p900
tp901
basg703
I00
ssg47
(lp902
g22
(g23
(I0
tp903
g25
tp904
Rp905
(I1
(I3
tp906
g169
I00
S'@\x90\xe6\xdd\x05!\x02@\xfc\xb8\x82>\x93\x8e\x1e\xc0\xeb\xbfl\xbbG\xbd\x0f@'
p907
tp908
bag22
(g23
(I0
tp909
g25
tp910
Rp911
(I1
(I3
tp912
g180
I00
S'g\xbc\x88wT\xd2\xfa?\xf5P\x88(3\xd6\x1f\xc0\x9b\xce<\xfbK\xac\r@'
p913
tp914
bag22
(g23
(I0
tp915
g25
tp916
Rp917
(I1
(I3
tp918
g180
I00
S'&\x0c\x9f\xd5\xa9\xbf\xfc?n\x13\xcb\xbd\xbf\x0b \xc0L\xd8\xef\x1bN\xb4\x00@'
p919
tp920
bag892
asbsg636
(itrajectory_representation.operator
Operator
p921
(dp922
g8
I01
sg9
(dp923
g679
Vsquare_packing_box3
p924
ssg17
g681
sg19
(dp925
g683
(lp926
g22
(g23
(I0
tp927
g25
tp928
Rp929
(I1
(I3
tp930
g169
I00
S'\xb4\xb2\xfb\xc5j\xfd\xf8?W\xfem@t%\x1e\xc0(_7\x98s\x1f\xf1?'
p931
tp932
bag22
(g23
(I0
tp933
g25
tp934
Rp935
(I1
(I3
tp936
g169
I00
S'\xc0\xb7\x00,?/\xfb?\x90\x94JK\x1e\x9a\x1e\xc0\x0f!\x17^\x8f\x01\xf8?'
p937
tp938
bag22
(g23
(I0
tp939
g25
tp940
Rp941
(I1
(I3
tp942
g169
I00
S'\xdc\xd4\xe2\x04{\xb8\xf4?swu<\xe6\xf9\x1a\xc0\xce\x84<\xec#\x8f\xe4\xbf'
p943
tp944
bag22
(g23
(I0
tp945
g25
tp946
Rp947
(I1
(I3
tp948
g169
I00
S"'\xdf`\x1b?I\xff?\x1d\xd8\xd1\x84\xbf\x84\x19\xc0\xcb\xb3:\xfb\xa6\x1c\xfa\xbf"
p949
tp950
basg703
I00
ssg47
(lp951
g22
(g23
(I0
tp952
g25
tp953
Rp954
(I1
(I3
tp955
g169
I00
S'@\x90\xe6\xdd\x05!\x02@\xfc\xb8\x82>\x93\x8e\x1e\xc0\xeb\xbfl\xbbG\xbd\x0f@'
p956
tp957
bag22
(g23
(I0
tp958
g25
tp959
Rp960
(I1
(I3
tp961
g180
I00
S'S@\xf8l\x95\x08\xf8?\xef\x91If\xa4L\x1e\xc0\x8b\xc5pa\xf4C\x04\xc0'
p962
tp963
bag22
(g23
(I0
tp964
g25
tp965
Rp966
(I1
(I3
tp967
g180
I00
S'\xb9O\xa7Y\x02\x91\x00@\x96d\x95\x0e\xe6\xda\x1e\xc0l\xef\x8e\x11Rk\xeb?'
p968
tp969
bag935
asbsg12
(itrajectory_representation.operator
Operator
p970
(dp971
g8
I01
sg9
(dp972
g11
g12
ssg17
S'two_arm_pick'
p973
sg19
(dp974
g21
g22
(g23
(I0
tp975
g25
tp976
Rp977
(I1
(I3
tp978
g32
I00
S'\x86\x0f\xc3\xe0\xe0u\xf5?\xdd!\x91\xdfx-\x19\xc0\xae:\x89\xfd\x99s\xfd?'
p979
tp980
bssg47
(lp981
g22
(g23
(I0
tp982
g25
tp983
Rp984
(I1
(I3
tp985
g169
I00
S'@\x90\xe6\xdd\x05!\x02@\xfc\xb8\x82>\x93\x8e\x1e\xc0\xeb\xbfl\xbbG\xbd\x0f@'
p986
tp987
bag22
(g23
(I0
tp988
g25
tp989
Rp990
(I1
(I3
tp991
g180
I00
S'S@\xf8l\x95\x08\xf8?\xef\x91If\xa4L\x1e\xc0\x8b\xc5pa\xf4C\x04\xc0'
p992
tp993
bag22
(g23
(I0
tp994
g25
tp995
Rp996
(I1
(I3
tp997
g180
I00
S'\xba)c\x05l\x93\xf4?\x8f\x0f\xa1<\xee\x05\x1c\xc0\xf9-\x16\x17\xc6`\xf8\xbf'
p998
tp999
bag22
(g23
(I0
tp1000
g25
tp1001
Rp1002
(I1
(I3
tp1003
g180
I00
S'{\xe7\xcc\xce\x02,\xf5?\xeb\x85\xf2\xb4\xc9\x08\x19\xc0\xcd\x97\xf6\xcc\xe4z\x00@'
p1004
tp1005
bag977
asbsg637
(itrajectory_representation.operator
Operator
p1006
(dp1007
g8
I01
sg9
(dp1008
g679
Vsquare_packing_box4
p1009
ssg17
g681
sg19
(dp1010
g683
(lp1011
g22
(g23
(I0
tp1012
g25
tp1013
Rp1014
(I1
(I3
tp1015
g169
I00
S'\xa6\x07xD\x98\x81\x02@J\x08\x9eFdd\x1d\xc0\xc6\x07\x9b\xea\x13\x9d\xca\xbf'
p1016
tp1017
bag22
(g23
(I0
tp1018
g25
tp1019
Rp1020
(I1
(I3
tp1021
g169
I00
S'\x80\xe4\x1eYRs\r@\x86\xf1\xf2\xdf\x94\xf5\x1b\xc0.\x9drY1\x84\t\xc0'
p1022
tp1023
bag22
(g23
(I0
tp1024
g25
tp1025
Rp1026
(I1
(I3
tp1027
g169
I00
S'\xc7\xb6\xbf\xcfV\xe0\t@_\xd0od\x866\x1f\xc0\xb7\x03\x99vt\x0c\x00@'
p1028
tp1029
bag22
(g23
(I0
tp1030
g25
tp1031
Rp1032
(I1
(I3
tp1033
g169
I00
S'\x10j\xa4\x8e\xa4c\r@\xf3\xa9/-\x06\xd8\x1c\xc0R=\xee\x82F4\x07@'
p1034
tp1035
bag22
(g23
(I0
tp1036
g25
tp1037
Rp1038
(I1
(I3
tp1039
g169
I00
S'k\x7f\xc7\xd1i\x96\x06@\xcf\xd8\x9fe_\x99\x1f\xc0\xdc\xa6M\\8\xc3\xfa?'
p1040
tp1041
basg703
I00
ssg47
(lp1042
g22
(g23
(I0
tp1043
g25
tp1044
Rp1045
(I1
(I3
tp1046
g169
I00
S'@\x90\xe6\xdd\x05!\x02@\xfc\xb8\x82>\x93\x8e\x1e\xc0\xeb\xbfl\xbbG\xbd\x0f@'
p1047
tp1048
bag22
(g23
(I0
tp1049
g25
tp1050
Rp1051
(I1
(I3
tp1052
g180
I00
S'S@\xf8l\x95\x08\xf8?\xef\x91If\xa4L\x1e\xc0\x8b\xc5pa\xf4C\x04\xc0'
p1053
tp1054
bag22
(g23
(I0
tp1055
g25
tp1056
Rp1057
(I1
(I3
tp1058
g180
I00
S'\xb9O\xa7Y\x02\x91\x00@\x96d\x95\x0e\xe6\xda\x1e\xc0l\xef\x8e\x11Rk\xeb?'
p1059
tp1060
bag1038
asbssS'mc_paths'
p1061
(dp1062
sS'robot'
p1063
NsS'reachable_obj_region_pairs'
p1064
(lp1065
(g335
g160
tp1066
asS'sampled_pick_configs_for_objects'
p1067
(dp1068
sS'mc_calls'
p1069
I0
sS'pick_poses'
p1070
g674
sS'problem_env'
p1071
NsS'evaluations'
p1072
(dp1073
(g425
g539
g160
tp1074
I01
s(g380
g539
g160
tp1075
I00
s(g539
g482
g160
tp1076
I00
s(g272
g380
g160
tp1077
I00
s(g482
g335
g160
tp1078
I01
s(g215
g380
g160
tp1079
I00
s(g335
g159
g160
tp1080
I00
s(g482
g539
g160
tp1081
I00
s(g272
g215
g160
tp1082
I01
s(g380
g335
g160
tp1083
I01
s(g425
g335
g160
tp1084
I01
s(g425
g272
g160
tp1085
I01
s(g380
g159
g160
tp1086
I01
s(g272
g482
g160
tp1087
I00
s(g482
g159
g160
tp1088
I01
s(g215
g482
g160
tp1089
I01
s(g335
g539
g160
tp1090
I00
s(g482
g215
g160
tp1091
I00
s(g539
g425
g160
tp1092
I00
s(g159
g335
g160
tp1093
I01
s(g215
g425
g160
tp1094
I00
s(g482
g272
g160
tp1095
I00
s(g539
g335
g160
tp1096
I01
s(g159
g272
g160
tp1097
I00
s(g539
g215
g160
tp1098
I00
s(g272
g425
g160
tp1099
I00
s(g335
g425
g160
tp1100
I00
s(g159
g482
g160
tp1101
I00
s(g159
g425
g160
tp1102
I00
s(g482
g425
g160
tp1103
I00
s(g215
g539
g160
tp1104
I00
s(g272
g539
g160
tp1105
I01
s(g425
g215
g160
tp1106
I01
s(g380
g425
g160
tp1107
I00
s(g215
g272
g160
tp1108
I01
s(g159
g215
g160
tp1109
I00
s(g380
g272
g160
tp1110
I00
s(g482
g380
g160
tp1111
I00
s(g335
g380
g160
tp1112
I00
s(g380
g215
g160
tp1113
I00
s(g215
g159
g160
tp1114
I01
s(g335
g482
g160
tp1115
I00
s(g380
g482
g160
tp1116
I00
s(g272
g159
g160
tp1117
I00
s(g425
g482
g160
tp1118
I00
s(g425
g159
g160
tp1119
I00
s(g159
g539
g160
tp1120
I00
s(g539
g380
g160
tp1121
I00
s(g272
g335
g160
tp1122
I01
s(g335
g215
g160
tp1123
I00
s(g215
g335
g160
tp1124
I01
s(g335
g272
g160
tp1125
I00
s(g539
g272
g160
tp1126
I01
s(g159
g380
g160
tp1127
I00
s(g539
g159
g160
tp1128
I00
s(g425
g380
g160
tp1129
I00
ssS'paths_to_reachable_entities'
p1130
NsS'use_shortest_path'
p1131
I01
sbsS'ternary_edges'
p1132
(dp1133
(g539
g539
g160
tp1134
(lp1135
I00
as(g335
S'loading_region'
p1136
g1136
tp1137
(lp1138
I00
as(S'entire_region'
p1139
g425
g160
tp1140
(lp1141
I00
as(g380
g215
g1136
tp1142
(lp1143
I00
as(g160
g160
g160
tp1144
(lp1145
I00
as(g215
g539
g1136
tp1146
(lp1147
I00
as(g335
g159
g160
tp1148
(lp1149
I00
as(g160
g272
g160
tp1150
(lp1151
I00
as(g380
g335
g160
tp1152
(lp1153
I01
as(g159
g272
g1136
tp1154
(lp1155
I00
as(g160
g215
g1136
tp1156
(lp1157
I00
as(g380
g1139
g160
tp1158
(lp1159
I00
as(g1136
g160
g1136
tp1160
(lp1161
I00
as(g272
g482
g160
tp1162
(lp1163
I00
as(g215
g1139
g160
tp1164
(lp1165
I00
as(g380
g425
g1136
tp1166
(lp1167
I00
as(g482
g1136
g160
tp1168
(lp1169
I00
as(g1139
g539
g1136
tp1170
(lp1171
I00
as(g160
g1139
g160
tp1172
(lp1173
I00
as(g539
g1136
g160
tp1174
(lp1175
I00
as(g482
g1139
g160
tp1176
(lp1177
I00
as(g335
g335
g1136
tp1178
(lp1179
I00
as(g1136
g215
g1136
tp1180
(lp1181
I00
as(g1139
g1136
g160
tp1182
(lp1183
I00
as(g1139
g380
g160
tp1184
(lp1185
I00
as(g1136
g1136
g160
tp1186
(lp1187
I00
as(g482
g272
g1136
tp1188
(lp1189
I00
as(g160
g160
g1136
tp1190
(lp1191
I00
as(g425
g380
g1136
tp1192
(lp1193
I00
as(g539
g215
g160
tp1194
(lp1195
I00
as(g482
g335
g160
tp1196
(lp1197
I01
as(g425
g160
g1136
tp1198
(lp1199
I00
as(g160
g539
g1136
tp1200
(lp1201
I00
as(g425
g159
g1136
tp1202
(lp1203
I00
as(g159
g425
g160
tp1204
(lp1205
I00
as(g1136
g335
g1136
tp1206
(lp1207
I00
as(g215
g380
g1136
tp1208
(lp1209
I00
as(g539
g539
g1136
tp1210
(lp1211
I00
as(g1139
g215
g160
tp1212
(lp1213
I00
as(g1136
g160
g160
tp1214
(lp1215
I00
as(g272
g539
g160
tp1216
(lp1217
I01
as(g160
g159
g160
tp1218
(lp1219
I00
as(g380
g425
g160
tp1220
(lp1221
I00
as(g159
g215
g160
tp1222
(lp1223
I00
as(g335
g159
g1136
tp1224
(lp1225
I00
as(g482
g380
g160
tp1226
(lp1227
I00
as(g380
g335
g1136
tp1228
(lp1229
I00
as(g380
g539
g1136
tp1230
(lp1231
I00
as(g1139
g380
g1136
tp1232
(lp1233
I00
as(g1136
g159
g1136
tp1234
(lp1235
I00
as(g1139
g160
g160
tp1236
(lp1237
I00
as(g272
g160
g160
tp1238
(lp1239
I00
as(g1136
g1139
g160
tp1240
(lp1241
I00
as(g539
g215
g1136
tp1242
(lp1243
I00
as(g482
g539
g1136
tp1244
(lp1245
I00
as(g482
g482
g160
tp1246
(lp1247
I00
as(g425
g159
g160
tp1248
(lp1249
I00
as(g1139
g539
g160
tp1250
(lp1251
I00
as(g425
g1136
g1136
tp1252
(lp1253
I00
as(g215
g335
g160
tp1254
(lp1255
I01
as(g335
g335
g160
tp1256
(lp1257
I00
as(g335
g272
g160
tp1258
(lp1259
I00
as(g272
g539
g1136
tp1260
(lp1261
I00
as(g215
g425
g1136
tp1262
(lp1263
I00
as(g482
g272
g160
tp1264
(lp1265
I00
as(g425
g380
g160
tp1266
(lp1267
I00
as(g539
g425
g1136
tp1268
(lp1269
I00
as(g425
g160
g160
tp1270
(lp1271
I00
as(g380
g539
g160
tp1272
(lp1273
I00
as(g539
g482
g160
tp1274
(lp1275
I00
as(g159
g425
g1136
tp1276
(lp1277
I00
as(g160
g380
g1136
tp1278
(lp1279
I00
as(g1139
g160
g1136
tp1280
(lp1281
I00
as(g1139
g215
g1136
tp1282
(lp1283
I00
as(g482
g539
g160
tp1284
(lp1285
I00
as(g159
g482
g1136
tp1286
(lp1287
I00
as(g539
g1139
g1136
tp1288
(lp1289
I00
as(g425
g1136
g160
tp1290
(lp1291
I00
as(g482
g380
g1136
tp1292
(lp1293
I00
as(g482
g425
g1136
tp1294
(lp1295
I00
as(g215
g335
g1136
tp1296
(lp1297
I00
as(g160
g159
g1136
tp1298
(lp1299
I00
as(g1139
g482
g1136
tp1300
(lp1301
I00
as(g1136
g159
g160
tp1302
(lp1303
I00
as(g1136
g380
g1136
tp1304
(lp1305
I00
as(g539
g425
g160
tp1306
(lp1307
I00
as(g215
g425
g160
tp1308
(lp1309
I00
as(g1136
g482
g160
tp1310
(lp1311
I00
as(g539
g482
g1136
tp1312
(lp1313
I00
as(g539
g272
g1136
tp1314
(lp1315
I00
as(g159
g215
g1136
tp1316
(lp1317
I00
as(g335
g272
g1136
tp1318
(lp1319
I00
as(g425
g482
g1136
tp1320
(lp1321
I00
as(g160
g335
g1136
tp1322
(lp1323
I00
as(g159
g1136
g1136
tp1324
(lp1325
I00
as(g272
g160
g1136
tp1326
(lp1327
I00
as(g335
g425
g160
tp1328
(lp1329
I00
as(g539
g1139
g160
tp1330
(lp1331
I00
as(g272
g380
g1136
tp1332
(lp1333
I00
as(g159
g539
g1136
tp1334
(lp1335
I00
as(g482
g425
g160
tp1336
(lp1337
I00
as(g215
g1136
g1136
tp1338
(lp1339
I00
as(g380
g160
g160
tp1340
(lp1341
I00
as(g215
g272
g160
tp1342
(lp1343
I01
as(g160
g482
g1136
tp1344
(lp1345
I00
as(g1136
g425
g1136
tp1346
(lp1347
I00
as(g1136
g482
g1136
tp1348
(lp1349
I00
as(g335
g482
g160
tp1350
(lp1351
I00
as(g425
g482
g160
tp1352
(lp1353
I00
as(g335
g425
g1136
tp1354
(lp1355
I00
as(g159
g539
g160
tp1356
(lp1357
I00
as(g539
g380
g160
tp1358
(lp1359
I00
as(g159
g160
g1136
tp1360
(lp1361
I00
as(g215
g1136
g160
tp1362
(lp1363
I00
as(g1136
g272
g1136
tp1364
(lp1365
I00
as(g539
g272
g160
tp1366
(lp1367
I01
as(g159
g159
g160
tp1368
(lp1369
I00
as(g272
g272
g160
tp1370
(lp1371
I00
as(g272
g159
g1136
tp1372
(lp1373
I00
as(g159
g1136
g160
tp1374
(lp1375
I00
as(g482
g215
g160
tp1376
(lp1377
I00
as(g272
g380
g160
tp1378
(lp1379
I00
as(g380
g1136
g1136
tp1380
(lp1381
I00
as(g159
g1139
g1136
tp1382
(lp1383
I00
as(g380
g160
g1136
tp1384
(lp1385
I00
as(g335
g380
g1136
tp1386
(lp1387
I00
as(g215
g272
g1136
tp1388
(lp1389
I00
as(g482
g160
g1136
tp1390
(lp1391
I00
as(g159
g160
g160
tp1392
(lp1393
I00
as(g1136
g272
g160
tp1394
(lp1395
I00
as(g425
g425
g160
tp1396
(lp1397
I00
as(g1136
g215
g160
tp1398
(lp1399
I00
as(g215
g482
g160
tp1400
(lp1401
I01
as(g335
g539
g160
tp1402
(lp1403
I00
as(g335
g482
g1136
tp1404
(lp1405
I00
as(g272
g335
g1136
tp1406
(lp1407
I00
as(g160
g380
g160
tp1408
(lp1409
I00
as(g1139
g159
g1136
tp1410
(lp1411
I00
as(g159
g335
g160
tp1412
(lp1413
I01
as(g425
g1139
g160
tp1414
(lp1415
I00
as(g482
g215
g1136
tp1416
(lp1417
I00
as(g482
g159
g1136
tp1418
(lp1419
I00
as(g272
g425
g160
tp1420
(lp1421
I00
as(g539
g380
g1136
tp1422
(lp1423
I00
as(g272
g1136
g160
tp1424
(lp1425
I00
as(g159
g1139
g160
tp1426
(lp1427
I00
as(g215
g159
g1136
tp1428
(lp1429
I00
as(g539
g335
g160
tp1430
(lp1431
I01
as(g482
g335
g1136
tp1432
(lp1433
I00
as(g215
g215
g1136
tp1434
(lp1435
I00
as(g272
g272
g1136
tp1436
(lp1437
I00
as(g425
g425
g1136
tp1438
(lp1439
I00
as(g335
g215
g1136
tp1440
(lp1441
I00
as(g215
g380
g160
tp1442
(lp1443
I00
as(g1139
g335
g160
tp1444
(lp1445
I00
as(g160
g1139
g1136
tp1446
(lp1447
I00
as(g160
g425
g1136
tp1448
(lp1449
I00
as(g380
g1136
g160
tp1450
(lp1451
I00
as(g335
g539
g1136
tp1452
(lp1453
I00
as(g425
g335
g1136
tp1454
(lp1455
I00
as(g159
g159
g1136
tp1456
(lp1457
I00
as(g1139
g159
g160
tp1458
(lp1459
I00
as(g380
g159
g1136
tp1460
(lp1461
I00
as(g425
g1139
g1136
tp1462
(lp1463
I00
as(g335
g380
g160
tp1464
(lp1465
I00
as(g272
g425
g1136
tp1466
(lp1467
I00
as(g272
g159
g160
tp1468
(lp1469
I00
as(g215
g159
g160
tp1470
(lp1471
I01
as(g335
g160
g1136
tp1472
(lp1473
I00
as(g380
g482
g160
tp1474
(lp1475
I00
as(g482
g482
g1136
tp1476
(lp1477
I00
as(g272
g1139
g160
tp1478
(lp1479
I00
as(g1136
g1139
g1136
tp1480
(lp1481
I00
as(g215
g482
g1136
tp1482
(lp1483
I00
as(g1136
g425
g160
tp1484
(lp1485
I00
as(g1139
g1139
g1136
tp1486
(lp1487
I00
as(g272
g335
g160
tp1488
(lp1489
I01
as(g335
g215
g160
tp1490
(lp1491
I00
as(g1136
g539
g1136
tp1492
(lp1493
I00
as(g159
g335
g1136
tp1494
(lp1495
I00
as(g482
g160
g160
tp1496
(lp1497
I00
as(g1139
g335
g1136
tp1498
(lp1499
I00
as(g482
g159
g160
tp1500
(lp1501
I01
as(g159
g380
g160
tp1502
(lp1503
I00
as(g272
g1136
g1136
tp1504
(lp1505
I00
as(g539
g335
g1136
tp1506
(lp1507
I00
as(g425
g539
g160
tp1508
(lp1509
I01
as(g1139
g1136
g1136
tp1510
(lp1511
I00
as(g1136
g539
g160
tp1512
(lp1513
I00
as(g335
g1139
g160
tp1514
(lp1515
I00
as(g380
g482
g1136
tp1516
(lp1517
I00
as(g380
g272
g1136
tp1518
(lp1519
I00
as(g215
g160
g160
tp1520
(lp1521
I00
as(g272
g1139
g1136
tp1522
(lp1523
I00
as(g272
g215
g160
tp1524
(lp1525
I01
as(g1139
g272
g1136
tp1526
(lp1527
I00
as(g160
g425
g160
tp1528
(lp1529
I00
as(g160
g482
g160
tp1530
(lp1531
I00
as(g425
g335
g160
tp1532
(lp1533
I01
as(g425
g272
g160
tp1534
(lp1535
I01
as(g1139
g482
g160
tp1536
(lp1537
I00
as(g380
g159
g160
tp1538
(lp1539
I01
as(g380
g380
g1136
tp1540
(lp1541
I00
as(g425
g215
g1136
tp1542
(lp1543
I00
as(g215
g160
g1136
tp1544
(lp1545
I00
as(g539
g160
g160
tp1546
(lp1547
I00
as(g335
g160
g160
tp1548
(lp1549
I00
as(g425
g539
g1136
tp1550
(lp1551
I00
as(g215
g539
g160
tp1552
(lp1553
I00
as(g160
g1136
g160
tp1554
(lp1555
I00
as(g1139
g1139
g160
tp1556
(lp1557
I00
as(g539
g159
g1136
tp1558
(lp1559
I00
as(g335
g1139
g1136
tp1560
(lp1561
I00
as(g1136
g380
g160
tp1562
(lp1563
I00
as(g159
g272
g160
tp1564
(lp1565
I00
as(g1139
g272
g160
tp1566
(lp1567
I00
as(g335
g1136
g160
tp1568
(lp1569
I00
as(g159
g380
g1136
tp1570
(lp1571
I00
as(g160
g335
g160
tp1572
(lp1573
I00
as(g1139
g425
g1136
tp1574
(lp1575
I00
as(g215
g1139
g1136
tp1576
(lp1577
I00
as(g380
g380
g160
tp1578
(lp1579
I00
as(g425
g215
g160
tp1580
(lp1581
I01
as(g482
g1139
g1136
tp1582
(lp1583
I00
as(g380
g272
g160
tp1584
(lp1585
I00
as(g160
g215
g160
tp1586
(lp1587
I00
as(g159
g482
g160
tp1588
(lp1589
I00
as(g272
g215
g1136
tp1590
(lp1591
I00
as(g215
g215
g160
tp1592
(lp1593
I00
as(g425
g272
g1136
tp1594
(lp1595
I00
as(g380
g215
g160
tp1596
(lp1597
I00
as(g482
g1136
g1136
tp1598
(lp1599
I00
as(g160
g539
g160
tp1600
(lp1601
I00
as(g539
g1136
g1136
tp1602
(lp1603
I00
as(g160
g272
g1136
tp1604
(lp1605
I00
as(g539
g160
g1136
tp1606
(lp1607
I00
as(g1136
g1136
g1136
tp1608
(lp1609
I00
as(g380
g1139
g1136
tp1610
(lp1611
I00
as(g272
g482
g1136
tp1612
(lp1613
I00
as(g160
g1136
g1136
tp1614
(lp1615
I00
as(g539
g159
g160
tp1616
(lp1617
I00
as(g1136
g335
g160
tp1618
(lp1619
I00
assg673
g674
sS'use_prm'
p1620
I01
sS'object_names'
p1621
(lp1622
S'square_packing_box1'
p1623
aS'rectangular_packing_box1'
p1624
aS'square_packing_box2'
p1625
aS'rectangular_packing_box2'
p1626
aS'square_packing_box3'
p1627
aS'rectangular_packing_box3'
p1628
aS'square_packing_box4'
p1629
aS'rectangular_packing_box4'
p1630
asg1071
NsS'current_holding_collides'
p1631
NsS'object_poses'
p1632
(dp1633
Vrectangular_packing_box4
p1634
g22
(g23
(I0
tp1635
g25
tp1636
Rp1637
(I1
(I1
I3
tp1638
g169
I00
S'Rh2\xfd\xc4\xcd\x01@R\x14\xcf`|2\x19\xc0?r{\x90h\x8c\x17@'
p1639
tp1640
bsVrectangular_packing_box2
p1641
g22
(g23
(I0
tp1642
g25
tp1643
Rp1644
(I1
(I1
I3
tp1645
g169
I00
S'\xd64\x87\t\xe1g\x0c@\x94\x13\x17\xd7\x1a\xe7\x18\xc0\xdb\x96\x89\xef4\xe9\xd4?'
p1646
tp1647
bsVrectangular_packing_box3
p1648
g22
(g23
(I0
tp1649
g25
tp1650
Rp1651
(I1
(I1
I3
tp1652
g169
I00
S'\xc0\x0f(\x16T\xef\xd2?\xbd\x85w\xa2\xeb\x91\x18\xc0\x85\xe6m\x95\nB\x13@'
p1653
tp1654
bsVrectangular_packing_box1
p1655
g22
(g23
(I0
tp1656
g25
tp1657
Rp1658
(I1
(I1
I3
tp1659
g169
I00
S'\x90\x1f\xac\xd2\x1f\x07\x0e@\x0b1\xc8[{\x0f\x1e\xc0%\xad\xae\xed\n\xeb\xee?'
p1660
tp1661
bsVsquare_packing_box2
p1662
g22
(g23
(I0
tp1663
g25
tp1664
Rp1665
(I1
(I1
I3
tp1666
g169
I00
S'\xe8\x91\xf5\xf8\xa2\xfd\xde?\xa1\x176\xf7\x1e/\x1e\xc0\x05U^\x14\x99=\xf4?'
p1667
tp1668
bsVsquare_packing_box3
p1669
g22
(g23
(I0
tp1670
g25
tp1671
Rp1672
(I1
(I1
I3
tp1673
g169
I00
S'v\x93\xa8\xc3T\x9f\xff?\xb9:{\xbe"\x0e\x1c\xc0\xbba\xa1\x06\xe0@\x06@'
p1674
tp1675
bsVsquare_packing_box1
p1676
g22
(g23
(I0
tp1677
g25
tp1678
Rp1679
(I1
(I1
I3
tp1680
g169
I00
S"J-\x01n\xde\x9d\xf2?D;\xc2\xb3\xebe\x16\xc0S\x96\x9a\x0e'\xf4\x0e@"
p1681
tp1682
bsVsquare_packing_box4
p1683
g22
(g23
(I0
tp1684
g25
tp1685
Rp1686
(I1
(I1
I3
tp1687
g169
I00
S'\xf0\x94Uw\xdb\xe1\x07@\n\xa7a\x99\x10\xaf\x1c\xc0J5\xb4\xf3Q|\t@'
p1688
tp1689
bssS'reachable_regions_while_holding'
p1690
(lp1691
(g675
g1136
tp1692
a(g723
g1136
tp1693
a(g634
g1136
tp1694
a(g828
g1136
tp1695
a(g635
g1136
tp1696
a(g636
g1136
tp1697
a(g12
g1136
tp1698
a(g637
g1136
tp1699
asS'in_region'
p1700
(itrajectory_representation.predicates.in_region
InRegion
p1701
(dp1702
g1071
NsbsS'cached_pick_paths'
p1703
(dp1704
g675
g704
sg723
g760
sg634
g809
sg828
g853
sg635
g902
sg636
g951
sg12
g981
sg637
g1042
ssg638
(dp1705
(Vsquare_packing_box1
p1706
(cnumpy.core.multiarray
scalar
p1707
(g169
S'\xe2[X7\xde\x9d\xf2?'
p1708
tp1709
Rp1710
g1707
(g169
S'4\x9fs\xb7\xebe\x16\xc0'
p1711
tp1712
Rp1713
g1707
(g169
S'\x87\x8aq\xfe&\xf4\x0e@'
p1714
tp1715
Rp1716
tp1717
tp1718
g668
s(Vsquare_packing_box2
p1719
(g1707
(g169
S'kf-\x05\xa4\xfd\xde?'
p1720
tp1721
Rp1722
g1707
(g169
S'y=\x98\x14\x1f/\x1e\xc0'
p1723
tp1724
Rp1725
g1707
(g169
S'\xf9\xa1\xd2\x88\x99=\xf4?'
p1726
tp1727
Rp1728
tp1729
tp1730
g660
s(Vrectangular_packing_box2
p1731
(g1707
(g169
S'o\x80\x99\xef\xe0g\x0c@'
p1732
tp1733
Rp1734
g1707
(g169
S'\nfL\xc1\x1a\xe7\x18\xc0'
p1735
tp1736
Rp1737
g1707
(g169
S'\xdfp\x1f\xb95\xe9\xd4?'
p1738
tp1739
Rp1740
tp1741
tp1742
g648
s(Vsquare_packing_box4
p1743
(g1707
(g169
S'%\xb3z\x87\xdb\xe1\x07@'
p1744
tp1745
Rp1746
g1707
(g169
S']o\x9b\xa9\x10\xaf\x1c\xc0'
p1747
tp1748
Rp1749
g1707
(g169
S"\x18'\xbe\xdaQ|\t@"
p1750
tp1751
Rp1752
tp1753
tp1754
g672
s(Vrectangular_packing_box3
p1755
(g1707
(g169
S'#\xbb\xd22R\xef\xd2?'
p1756
tp1757
Rp1758
g1707
(g169
S'R\xb8\x1e\x85\xeb\x91\x18\xc0'
p1759
tp1760
Rp1761
g1707
(g169
S'\xa1H\xf7s\nB\x13@'
p1762
tp1763
Rp1764
tp1765
tp1766
g652
s(Vrectangular_packing_box1
p1767
(g1707
(g169
S'C\xc8y\xff\x1f\x07\x0e@'
p1768
tp1769
Rp1770
g1707
(g169
S'b1\xeaZ{\x0f\x1e\xc0'
p1771
tp1772
Rp1773
g1707
(g169
S'\xc5\x045|\x0b\xeb\xee?'
p1774
tp1775
Rp1776
tp1777
tp1778
g656
s(Vsquare_packing_box3
p1779
(g1707
(g169
S'\xbd\x8d\xcd\x8eT\x9f\xff?'
p1780
tp1781
Rp1782
g1707
(g169
S'H7\xc2\xa2"\x0e\x1c\xc0'
p1783
tp1784
Rp1785
g1707
(g169
S'|H\xf8\xde\xdf@\x06@'
p1786
tp1787
Rp1788
tp1789
tp1790
g664
s(Vrectangular_packing_box4
p1791
(g1707
(g169
S'N\x0c\xc9\xc9\xc4\xcd\x01@'
p1792
tp1793
Rp1794
g1707
(g169
S'\xf6`R||2\x19\xc0'
p1795
tp1796
Rp1797
g1707
(g169
S'\x8f\xc56\xa9h\x8c\x17@'
p1798
tp1799
Rp1800
tp1801
tp1802
g644
ssS'state_saver'
p1803
(igtamp_utils.utils
CustomStateSaver
p1804
(dp1805
S'robot_base_pose'
p1806
g22
(g23
(I0
tp1807
g25
tp1808
Rp1809
(I1
(I1
I3
tp1810
g169
I00
S'A\x90\xe6\xdd\x05!\x02@\xfa\xb8\x82>\x93\x8e\x1e\xc0\xeb\xbfl\xbbG\xbd\x0f@'
p1811
tp1812
bsS'held_object'
p1813
NsS'robot_name'
p1814
S'pr2'
p1815
sS'env_id'
p1816
I1
sg1632
(dp1817
Vright_wall_1
p1818
g22
(g23
(I0
tp1819
g25
tp1820
Rp1821
(I1
(I4
tp1822
g169
I00
S'H\xe1z\x14\xaeG\x12@&\\\x8f\xc2\xf5(\xd4\xbf\xcc\x7fH\xbf}\x1d\xed?\x00\x00\x00\x00\x00\x00\x00\x00'
p1823
tp1824
bsVc_obst5
p1825
g22
(g23
(I0
tp1826
g25
tp1827
Rp1828
(I1
(I4
tp1829
g169
I00
S"i\npT{\xee\x11@`\xfa\x8b\x16\n\x1e\xcf?e\xaa`TR'\xed?\xabt:\x88\x8aW\xfd?"
p1830
tp1831
bsVentrance_right
p1832
g22
(g23
(I0
tp1833
g25
tp1834
Rp1835
(I1
(I4
tp1836
g169
I00
S'ffffff\n@H\xe1z\x14\xaeG\t\xc0\x9c\xc4 \xb0rh\xc1?\x00\x00\x00\x00\x00\x00\x00\x00'
p1837
tp1838
bsVcomputer_table
p1839
g22
(g23
(I0
tp1840
g25
tp1841
Rp1842
(I1
(I4
tp1843
g169
I00
S'\x00\x00\x00\x00\x00\x00\x13@\x00\x00\x00\x00\x00\x00\xf8\xbf\x96C\x8bl\xe7\xfb\xe7?\xd2!3\x7f|\xd9\x12@'
p1844
tp1845
bsVchair_6b56
p1846
g22
(g23
(I0
tp1847
g25
tp1848
Rp1849
(I1
(I4
tp1850
g169
I00
S'u=\n\xd7\xa3p\xf5?K\xe1z\x14\xaeG\xd1?\x00\x00\x00\x00\x00\x00\x00\x00\xd6$\xfaNBm\n@'
p1851
tp1852
bsVsquare_packing_box3
p1853
g22
(g23
(I0
tp1854
g25
tp1855
Rp1856
(I1
(I4
tp1857
g169
I00
S'r\x93\xa8\xc3T\x9f\xff?\xbd:{\xbe"\x0e\x1c\xc0L7\x89A`\xe5\xd8?\xbba\xa1\x06\xe0@\x06@'
p1858
tp1859
bsVsquare_packing_box2
p1860
g22
(g23
(I0
tp1861
g25
tp1862
Rp1863
(I1
(I4
tp1864
g169
I00
S'\xe8\x91\xf5\xf8\xa2\xfd\xde?\xa3\x176\xf7\x1e/\x1e\xc0L7\x89A`\xe5\xd8?\x05U^\x14\x99=\xf4?'
p1865
tp1866
bsVtable
p1867
g22
(g23
(I0
tp1868
g25
tp1869
Rp1870
(I1
(I4
tp1871
g169
I00
S'\x7f\xf6#EdX\xed?\xac\xffs\x98//\xc0\xbf\x00\x00\x00\x00\x00\x00\x00\x00\x00\x00\x00\x00\x00\x00\x00\x00'
p1872
tp1873
bsVsquare_packing_box1
p1874
g22
(g23
(I0
tp1875
g25
tp1876
Rp1877
(I1
(I4
tp1878
g169
I00
S"J-\x01n\xde\x9d\xf2?F;\xc2\xb3\xebe\x16\xc0L7\x89A`\xe5\xd8?S\x96\x9a\x0e'\xf4\x0e@"
p1879
tp1880
bsVback_wall_2
p1881
g22
(g23
(I0
tp1882
g25
tp1883
Rp1884
(I1
(I4
tp1885
g169
I00
S'\xaeG\xe1z\x14.\x13@\x80\x14\xaeG\xe1z\xc4?xX\xa85\xcd\xbb\xf2?\x00\x00\x00\x00\x00\x00\x00\x00'
p1886
tp1887
bsVchair_083c
p1888
g22
(g23
(I0
tp1889
g25
tp1890
Rp1891
(I1
(I4
tp1892
g169
I00
S'\xa4p=\n\xd7\xa3\xe0?333333\xe3\xbf\x00\x00\x00\x00\x00\x00\x00\x00\x00\x00\x00\x00\x00\x00\x00\x00'
p1893
tp1894
bsVback_wall_1
p1895
g22
(g23
(I0
tp1896
g25
tp1897
Rp1898
(I1
(I4
tp1899
g169
I00
S'\xaeG\xe1z\x14.\x13@\x80\x14\xaeG\xe1z\xc4?\xcc\x7fH\xbf}\x1d\xed?\x00\x00\x00\x00\x00\x00\x00\x00'
p1900
tp1901
bsVbottom_wall
p1902
g22
(g23
(I0
tp1903
g25
tp1904
Rp1905
(I1
(I4
tp1906
g169
I00
S'\x00\x00\x00\x00\x00\x00\xfc?\x00\x00\x00\x00\x00\x00\x00\x00\x00\x00\x00\x00\x00\x00\x00\x00\x00\x00\x00\x00\x00\x00\x00\x00'
p1907
tp1908
bsVcup_905a
p1909
g22
(g23
(I0
tp1910
g25
tp1911
Rp1912
(I1
(I4
tp1913
g169
I00
S'\x00\x00\x00\x00\x00\x00\xf0?\x83\xc0\xca\xa1E\xb6\xdb?\x1b/\xdd$\x06\x81\xed?\x00\x00\x00\x00\x00\x00\x00\x00'
p1914
tp1915
bsVplate_496f
p1916
g22
(g23
(I0
tp1917
g25
tp1918
Rp1919
(I1
(I4
tp1920
g169
I00
S"q=\n\xd7\xa3p\xe5?\x9dhW!\xe5'\xdd\xbf\x1b/\xdd$\x06\x81\xed?\x00\x00\x00\x00\x00\x00\x00\x00"
p1921
tp1922
bsVtoaster
p1923
g22
(g23
(I0
tp1924
g25
tp1925
Rp1926
(I1
(I4
tp1927
g169
I00
S')\\\x8f\xc2\xf5(\xf4\xbf\xe0z\x14\xaeG\xe1\xf2\xbf\xb8\x1e\x85\xebQ\xb8\xee?\x89/`\x9b\xf8\x8a\xe4?'
p1928
tp1929
bsVc_obst1
p1930
g22
(g23
(I0
tp1931
g25
tp1932
Rp1933
(I1
(I4
tp1934
g169
I00
S"g\x9c\xee\xf4E?\x12@\xcd\xbf\x1c\xef\xa68\xdc?e\xaa`TR'\xed?\xcf\x90\xcc dx\x12@"
p1935
tp1936
bsVrectangular_packing_box4
p1937
g22
(g23
(I0
tp1938
g25
tp1939
Rp1940
(I1
(I4
tp1941
g169
I00
S'Rh2\xfd\xc4\xcd\x01@R\x14\xcf`|2\x19\xc0L7\x89A`\xe5\xd8??r{\x90h\x8c\x17@'
p1942
tp1943
bsVmicrowave
p1944
g22
(g23
(I0
tp1945
g25
tp1946
Rp1947
(I1
(I4
tp1948
g169
I00
S'\x9a\x99\x99\x99\x99\x99\xf1\xbf\x00\x00\x00\x00\x00\x00\x00@7\x89A`\xe5\xd0\xee?\x00\x00\x00\x00\x00\x00\x00\x00'
p1949
tp1950
bsVc_obst7
p1951
g22
(g23
(I0
tp1952
g25
tp1953
Rp1954
(I1
(I4
tp1955
g169
I00
S"d\x89\xd6\xab\xde\x0b\x12@\x10\xa4f'\xf0\xff\xb0?e\xaa`TR'\xed?\xd7\xdc\xf0:\xf3\xd1\x10@"
p1956
tp1957
bsVc_obst6
p1958
g22
(g23
(I0
tp1959
g25
tp1960
Rp1961
(I1
(I4
tp1962
g169
I00
S"\xbd\x1e\x0c\xcc\x9c\x06\x12@Zz\x0eQ\x1c\x0e\xde?e\xaa`TR'\xed?\n\tTF\xf2^\x13@"
p1963
tp1964
bsVcup_b6af
p1965
g22
(g23
(I0
tp1966
g25
tp1967
Rp1968
(I1
(I4
tp1969
g169
I00
S'R\xb8\x1e\x85\xebQ\xe8?\x9a\x99\x99\x99\x99\x99\xe1?\x1b/\xdd$\x06\x81\xed?\x00\x00\x00\x00\x00\x00\x00\x00'
p1970
tp1971
bsVc_obst4
p1972
g22
(g23
(I0
tp1973
g25
tp1974
Rp1975
(I1
(I4
tp1976
g169
I00
S"\xc0A\x0c\xff7J\x12@\xd4\xa0\xfe#\x00\xd0\xcf?e\xaa`TR'\xed?\xbb\xc0\xd4z^R\x05@"
p1977
tp1978
bsVrectangular_packing_box2
p1979
g22
(g23
(I0
tp1980
g25
tp1981
Rp1982
(I1
(I4
tp1983
g169
I00
S'\xd44\x87\t\xe1g\x0c@\x94\x13\x17\xd7\x1a\xe7\x18\xc0L7\x89A`\xe5\xd8?\xdb\x96\x89\xef4\xe9\xd4?'
p1984
tp1985
bsVplate_fa76
p1986
g22
(g23
(I0
tp1987
g25
tp1988
Rp1989
(I1
(I4
tp1990
g169
I00
S'=\n\xd7\xa3p=\xf2?\x00\x00\x00\x00\x00\x00\x00\x00\x1b/\xdd$\x06\x81\xed?\x00\x00\x00\x00\x00\x00\x00\x00'
p1991
tp1992
bsVfloorwalls
p1993
g22
(g23
(I0
tp1994
g25
tp1995
Rp1996
(I1
(I4
tp1997
g169
I00
S'\xc7\xcc\xcc\xcc\xcc\xcc\xfc?\x00\x00\x00\x00\x00\x00\x18\xc0H\xe1z\x14\xaeG\xc1?\x16-DT\xfb!\xf9?'
p1998
tp1999
bsVpin_c671
p2000
g22
(g23
(I0
tp2001
g25
tp2002
Rp2003
(I1
(I4
tp2004
g169
I00
S'\xc3\xf5(\\\x8f\xc2\xf1\xbf}?5^\xbaI\x02@\xb8\x1e\x85\xebQ\xb8\xfa?\x00\x00\x00\x00\x00\x00\x00\x00'
p2005
tp2006
bsVc_obst3
p2007
g22
(g23
(I0
tp2008
g25
tp2009
Rp2010
(I1
(I4
tp2011
g169
I00
S"n\xc6:D+[\x12@\xa0A.\xc7\xc2\x00\xbd\xbfe\xaa`TR'\xed?\x1f\x89AF\x0c\x8d\xfb?"
p2012
tp2013
bsVchair_2e39
p2014
g22
(g23
(I0
tp2015
g25
tp2016
Rp2017
(I1
(I4
tp2018
g169
I00
S'hfffff\xee?cfffff\xf2\xbf\x00\x00\x00\x00\x00\x00\x00\x00\x07M\xe8QQF\xf3?'
p2019
tp2020
bsVentrance_left
p2021
g22
(g23
(I0
tp2022
g25
tp2023
Rp2024
(I1
(I4
tp2025
g169
I00
S'\x98\x99\x99\x99\x99\x99\xe9\xbfH\xe1z\x14\xaeG\t\xc0\x9c\xc4 \xb0rh\xc1?\x00\x00\x00\x00\x00\x00\x00\x00'
p2026
tp2027
bsVtop_wall_1
p2028
g22
(g23
(I0
tp2029
g25
tp2030
Rp2031
(I1
(I4
tp2032
g169
I00
S'H\xe1z\x14\xaeG\x12@\x80\x14\xaeG\xe1z\xc4?xX\xa85\xcd\xbb\xf2?\x00\x00\x00\x00\x00\x00\x00\x00'
p2033
tp2034
bsVrectangular_packing_box3
p2035
g22
(g23
(I0
tp2036
g25
tp2037
Rp2038
(I1
(I4
tp2039
g169
I00
S'\xbc\x0f(\x16T\xef\xd2?\xb9\x85w\xa2\xeb\x91\x18\xc0L7\x89A`\xe5\xd8?\x85\xe6m\x95\nB\x13@'
p2040
tp2041
bsVshaker
p2042
g22
(g23
(I0
tp2043
g25
tp2044
Rp2045
(I1
(I4
tp2046
g169
I00
S'\n\xd7\xa3p=\n\x01@\x14\xaeG\xe1z\x14\x02@\\\x8f\xc2\xf5(\\\xef?\x00\x00\x00\x00\x00\x00\x00\x00'
p2047
tp2048
bsVc_obst9
p2049
g22
(g23
(I0
tp2050
g25
tp2051
Rp2052
(I1
(I4
tp2053
g169
I00
S"\xdfju(Z\x9b\x12@T\xd6\xab\x02%(\xad\xbfe\xaa`TR'\xed?\xff\nY\xf4\x14r\x03@"
p2054
tp2055
bsVplate_835a
p2056
g22
(g23
(I0
tp2057
g25
tp2058
Rp2059
(I1
(I4
tp2060
g169
I00
S'\xf6(\\\x8f\xc2\xf5\xf0?\\\x8f\xc2\xf5(\\\xe7\xbf\x1b/\xdd$\x06\x81\xed?\x00\x00\x00\x00\x00\x00\x00\x00'
p2061
tp2062
bsVcup_58a2
p2063
g22
(g23
(I0
tp2064
g25
tp2065
Rp2066
(I1
(I4
tp2067
g169
I00
S'\x85\xebQ\xb8\x1e\x85\xe3?\xcd\xcc\xcc\xcc\xcc\xcc\xdc?\x1b/\xdd$\x06\x81\xed?\x00\x00\x00\x00\x00\x00\x00\x00'
p2068
tp2069
bsVleft_wall_1
p2070
g22
(g23
(I0
tp2071
g25
tp2072
Rp2073
(I1
(I4
tp2074
g169
I00
S'H\xe1z\x14\xaeG\x12@S\xb8\x1e\x85\xebQ\xe4?\xcc\x7fH\xbf}\x1d\xed?\x00\x00\x00\x00\x00\x00\x00\x00'
p2075
tp2076
bsVc_obst2
p2077
g22
(g23
(I0
tp2078
g25
tp2079
Rp2080
(I1
(I4
tp2081
g169
I00
S"\xb4\xf0\xa6\x82\x18L\x12@r\x0e\x8d\xb7\x0bA\xd5?e\xaa`TR'\xed?\xa6\xb1@M/Q\x07@"
p2082
tp2083
bsVsquare_packing_box4
p2084
g22
(g23
(I0
tp2085
g25
tp2086
Rp2087
(I1
(I4
tp2088
g169
I00
S'\xf0\x94Uw\xdb\xe1\x07@\n\xa7a\x99\x10\xaf\x1c\xc0L7\x89A`\xe5\xd8?J5\xb4\xf3Q|\t@'
p2089
tp2090
bsVrectangular_packing_box1
p2091
g22
(g23
(I0
tp2092
g25
tp2093
Rp2094
(I1
(I4
tp2095
g169
I00
S'\x8f\x1f\xac\xd2\x1f\x07\x0e@\x0b1\xc8[{\x0f\x1e\xc0L7\x89A`\xe5\xd8?%\xad\xae\xed\n\xeb\xee?'
p2096
tp2097
bsVpin_371e
p2098
g22
(g23
(I0
tp2099
g25
tp2100
Rp2101
(I1
(I4
tp2102
g169
I00
S'333333\xf3\xbfffffff\xf6?\xb8\x1e\x85\xebQ\xb8\xee?\x00\x00\x00\x00\x00\x00\x00\x00'
p2103
tp2104
bsVfridge
p2105
g22
(g23
(I0
tp2106
g25
tp2107
Rp2108
(I1
(I4
tp2109
g169
I00
S'\xd7\xa3p=\n\xd7\xeb\xbf\x00\x00\x00\x00\x00\x00\x00\xc0\xcd\xcc\xcc\xcc\xcc\xcc\xf8?\x00\x00\x00\x00\x00\x00\x00\x00'
p2110
tp2111
bsVcup_d441
p2112
g22
(g23
(I0
tp2113
g25
tp2114
Rp2115
(I1
(I4
tp2116
g169
I00
S'\n\xd7\xa3p=\n\xef?\x8f\xc2\xf5(\\\x8f\xe2?\x1b/\xdd$\x06\x81\xed?\x00\x00\x00\x00\x00\x00\x00\x00'
p2117
tp2118
bsVshelf2
p2119
g22
(g23
(I0
tp2120
g25
tp2121
Rp2122
(I1
(I4
tp2123
g169
I00
S'\x00\x00\x00\x00\x00\x00\x0e@\xaeG\xe1z\x14\xae\x07@\x9c\xc4 \xb0rh\xc1?\xd2!3\x7f|\xd9\x12@'
p2124
tp2125
bsVtop_wall_2
p2126
g22
(g23
(I0
tp2127
g25
tp2128
Rp2129
(I1
(I4
tp2130
g169
I00
S'H\xe1z\x14\xaeG\x12@\x80\x14\xaeG\xe1z\xc4?\x16HP\xfc\x18\xf3\xfd?\x00\x00\x00\x00\x00\x00\x00\x00'
p2131
tp2132
bsVc_obst0
p2133
g22
(g23
(I0
tp2134
g25
tp2135
Rp2136
(I1
(I4
tp2137
g169
I00
S"\xfc\xba\xd6\xc6\xa5\x0c\x12@\x80Q\x89eF\xc2\xb3\xbfe\xaa`TR'\xed?<\x14\xd2\x82\xeeD\x10@"
p2138
tp2139
bsVshelf1
p2140
g22
(g23
(I0
tp2141
g25
tp2142
Rp2143
(I1
(I4
tp2144
g169
I00
S'\x00\x00\x00\x00\x00\x00\x13@\xaeG\xe1z\x14\xae\x07@\x9c\xc4 \xb0rh\xc1?\xd2!3\x7f|\xd9\x12@'
p2145
tp2146
bsVsink
p2147
g22
(g23
(I0
tp2148
g25
tp2149
Rp2150
(I1
(I4
tp2151
g169
I00
S'ffffff\xd6?333333\x01@\x9a\x99\x99\x99\x99\x99\xb9\xbf\x00\x00\x00\x00\x00\x00\x00\x00'
p2152
tp2153
bsVpr2
p2154
g22
(g23
(I0
tp2155
g25
tp2156
Rp2157
(I1
(I4
tp2158
g169
I00
S'E\x90\xe6\xdd\x05!\x02@\xf8\xb8\x82>\x93\x8e\x1e\xc0\x9a_\x94\xa0\xbf\xd0\xc1?\xeb\xbfl\xbbG\xbd\x0f@'
p2159
tp2160
bsVchair_12d0
p2161
g22
(g23
(I0
tp2162
g25
tp2163
Rp2164
(I1
(I4
tp2165
g169
I00
S'\\\xd2\x18\xad\xa3\xaa\xdb?Of\x83L2r\xc6?\x00\x00\x00\x00\x00\x00\x00\x00\xf8\x81\r\x14M\xa6\x17@'
p2166
tp2167
bsVright_wall_2
p2168
g22
(g23
(I0
tp2169
g25
tp2170
Rp2171
(I1
(I4
tp2172
g169
I00
S'H\xe1z\x14\xaeG\x12@&\\\x8f\xc2\xf5(\xd4\xbfxX\xa85\xcd\xbb\xf2?\x00\x00\x00\x00\x00\x00\x00\x00'
p2173
tp2174
bsVknife_block
p2175
g22
(g23
(I0
tp2176
g25
tp2177
Rp2178
(I1
(I4
tp2179
g169
I00
S'R\xb8\x1e\x85\xebQ\xe0\xbfffffff\x02@`\xe5\xd0"\xdb\xf9\xee?\x00\x00\x00\x00\x00\x00\x00\x00'
p2180
tp2181
bsVleft_wall_2
p2182
g22
(g23
(I0
tp2183
g25
tp2184
Rp2185
(I1
(I4
tp2186
g169
I00
S'H\xe1z\x14\xaeG\x12@S\xb8\x1e\x85\xebQ\xe4?xX\xa85\xcd\xbb\xf2?\x00\x00\x00\x00\x00\x00\x00\x00'
p2187
tp2188
bsVleft_wall
p2189
g22
(g23
(I0
tp2190
g25
tp2191
Rp2192
(I1
(I4
tp2193
g169
I00
S'\x9a\x99\x99\x99\x99\x99\x07@H\xe1z\x14\xaeG\xff?\x9c\xc4 \xb0rh\xc1?\x00\x00\x00\x00\x00\x00\x00\x00'
p2194
tp2195
bsVkitchen
p2196
g22
(g23
(I0
tp2197
g25
tp2198
Rp2199
(I1
(I4
tp2200
g169
I00
S'\x00\x00\x00\x00\x00\x00\x00\x00\x00\x00\x00\x00\x00\x00\x00\x00\x00\x00\x00\x00\x00\x00\x00\x00\x00\x00\x00\x00\x00\x00\x00\x00'
p2201
tp2202
bsVtable2
p2203
g22
(g23
(I0
tp2204
g25
tp2205
Rp2206
(I1
(I4
tp2207
g169
I00
S'\x00\x00\x00\x00\x00\x00\x13@\x80\x14\xaeG\xe1z\xc4?S\x96!\x8euq\xec?\xd2!3\x7f|\xd9\x12@'
p2208
tp2209
bsVc_obst8
p2210
g22
(g23
(I0
tp2211
g25
tp2212
Rp2213
(I1
(I4
tp2214
g169
I00
S")\xb5\x19\xd9\xb9\x12\x12@\xb0\xa5\x8c\xcc\xd0\x9e\xc1?e\xaa`TR'\xed?\x9a\x17\xb7C\x9cb\x0e@"
p2215
tp2216
bsVplate_b4e7
p2217
g22
(g23
(I0
tp2218
g25
tp2219
Rp2220
(I1
(I4
tp2221
g169
I00
S'\x14\xaeG\xe1z\x14\xf2\xbf\x14\xaeG\xe1z\x14\x00@=\n\xd7\xa3p=\xf2?\x00\x00\x00\x00\x00\x00\x00\x00'
p2222
tp2223
bsVcooker
p2224
g22
(g23
(I0
tp2225
g25
tp2226
Rp2227
(I1
(I4
tp2228
g169
I00
S'\xaeG\xe1z\x14\xae\xff?\x85\xebQ\xb8\x1e\x85\xfb?\x00\x00\x00\x00\x00\x00\xe8?\x00\x00\x00\x00\x00\x00\x00\x00'
p2229
tp2230
bsVpin_a091
p2231
g22
(g23
(I0
tp2232
g25
tp2233
Rp2234
(I1
(I4
tp2235
g169
I00
S'\xdb\xf9~j\xbct\xf7\xbf)\\\x8f\xc2\xf5(\x02@\xb8\x1e\x85\xebQ\xb8\xfa?\x00\x00\x00\x00\x00\x00\x00\x00'
p2236
tp2237
bsVside_wall_2
p2238
g22
(g23
(I0
tp2239
g25
tp2240
Rp2241
(I1
(I4
tp2242
g169
I00
S'\xfa\xff\xff\xff\xff\xff\x14@\x00\x00\x00\x00\x00\x00\x00\x00\x9c\xc4 \xb0rh\xc1?\x18-DT\xfb!\xf9?'
p2243
tp2244
bsVside_wall_3
p2245
g22
(g23
(I0
tp2246
g25
tp2247
Rp2248
(I1
(I4
tp2249
g169
I00
S'\x00\x00\x00\x00\x00\x00\xfc?H\xe1z\x14\xaeG\t@\x9c\xc4 \xb0rh\xc1?\x00\x00\x00\x00\x00\x00\x00\x00'
p2250
tp2251
bsVmixer
p2252
g22
(g23
(I0
tp2253
g25
tp2254
Rp2255
(I1
(I4
tp2256
g169
I00
S'\n\xd7\xa3p=\n\xfb?ffffff\x02@d;\xdfO\x8d\x97\xee?\x00\x00\x00\x00\x00\x00\x00\x00'
p2257
tp2258
bsVside_wall_1
p2259
g22
(g23
(I0
tp2260
g25
tp2261
Rp2262
(I1
(I4
tp2263
g169
I00
S'\xf4\xff\xff\xff\xff\xff\xfb\xbf\x00\x00\x00\x00\x00\x00\x00\x00\x9c\xc4 \xb0rh\xc1?\x18-DT\xfb!\xf9?'
p2264
tp2265
bsVbottom_wall_1
p2266
g22
(g23
(I0
tp2267
g25
tp2268
Rp2269
(I1
(I4
tp2270
g169
I00
S'H\xe1z\x14\xaeG\x12@\x80\x14\xaeG\xe1z\xc4?\xcc\x7fH\xbf}\x1d\xed?\x00\x00\x00\x00\x00\x00\x00\x00'
p2271
tp2272
bsVcan
p2273
g22
(g23
(I0
tp2274
g25
tp2275
Rp2276
(I1
(I4
tp2277
g169
I00
S'\x00\x00\x00\x00\x00\x00\xf4\xbfH\xe1z\x14\xaeG\xe1\xbf\n\xd7\xa3p=\n\xef?\x00\x00\x00\x00\x00\x00\x00\x00'
p2278
tp2279
bsVright_wall
p2280
g22
(g23
(I0
tp2281
g25
tp2282
Rp2283
(I1
(I4
tp2284
g169
I00
S'\x9a\x99\x99\x99\x99\x99\x07@H\xe1z\x14\xaeG\xff\xbf\x9c\xc4 \xb0rh\xc1?\x00\x00\x00\x00\x00\x00\x00\x00'
p2285
tp2286
bsVcoffe_machine
p2287
g22
(g23
(I0
tp2288
g25
tp2289
Rp2290
(I1
(I4
tp2291
g169
I00
S'\\\x8f\xc2\xf5(\\\xf5\xbf\xb8\x1e\x85\xebQ\xb8\xee?\n\xd7\xa3p=\n\xef?\x00\x00\x00\x00\x00\x00\x00\x00'
p2292
tp2293
bsVcomputer_chair
p2294
g22
(g23
(I0
tp2295
g25
tp2296
Rp2297
(I1
(I4
tp2298
g169
I00
S'\xcd\xcc\xcc\xcc\xcc\xcc\x10@\x00\x00\x00\x00\x00\x00\xf8\xbf\xa00\xb6\x10\xe4\xa9\x95\xbf\x00\x00\x00\x00\x00\x00\x00\x00'
p2299
tp2300
bssS'robot_dof_values'
p2301
g22
(g23
(I0
tp2302
g25
tp2303
Rp2304
(I1
(I39
tp2305
g169
I00
S'\x00\x00\x00\x00\x00\x00\x00\x00\x00\x00\x00\x00\x00\x00\x00\x00\x00\x00\x00\x00\x00\x00\x00\x00\x00\x00\x00\x00\x00\x00\x00\x00\x00\x00\x00\x00\x00\x00\x00\x00\x00\x00\x00\x00\x00\x00\x00\x00\x00\x00\x00\x00\x00\x00\x00\x00\x00\x00\x00\x00\x00\x00\x00\x00\x00\x00\x00\x00\x00\x00\x00\x00\x00\x00\x00\x00\x00\x00\x00\x00\x00\x00\x00\x00\x00\x00\x00\x00\x00\x00\x00\x00\x00\x00\x00\x00@d;\xdfO\x8d\x87?\x00\x00\x00\x00\x00\x00\x00\x00\x00\x00\x00\x00\x00\x00\x00\x00\x00\x00\x00\x00\x00\x00\x00\x00\xee\xed\t\xf1\xcc\xa4\xf4?\x00\x00\x00\x00\x00\x00\x00\x00N"\xd0^p\xf8\x00\xc0ST\xaf\x99\x8a\xcc\xa3<\x9a\x03\r.\x04V\xe6\xbf\x00\x00\x00\x00\x00\x00\x00\x00\x00\x00\x00\x00\x00\x00\x00\x00\x00\x00\x00\x00\x00\x00\xc9<\x00\x00\x00\x00\x00\x00\x00\x00\x00\x00\x00\x00\x00\x00\xe0\xbc\x00\x00\x00\x00\x00\x00\x00\x00\x00\x00\x00\x00\x00\x00\x00\x00\xec\xed\t\xf1\xcc\xa4\xf4?\x00\x00\x00\x00\x00\x00\xc0\xbcM"\xd0^p\xf8\x00\xc0ST\xaf\x99\x8a\xcc\xa3\xbc\x9c\x03\r.\x04V\xe6\xbf\xf6\xce|\xee\xeej\xb4<\xcc9\xe3\xc17\x89\xe1?\x00\x00\x00\x00\x00\x00\xc1<\xd8l\xdf\xccv\xf8\xa0<\x00\x00\x00\x00\x00\x00\xe0<\x00\x00\x00\x00\x00\x00\x00\x00'
p2306
tp2307
bsS'is_holding'
p2308
I00
sbsS'holding_collides'
p2309
NsS'parent_ternary_predicates'
p2310
(dp2311
sS'cached_place_paths'
p2312
(dp2313
(g828
g1136
tp2314
(lp2315
g22
(g23
(I0
tp2316
g25
tp2317
Rp2318
(I1
(I3
tp2319
g169
I00
S'\xaa\x98#\xaco\xd4\t@6\x08A\x1d\x1f\x07\x1c\xc0\x1aCVe\xa3\xab\x17@'
p2320
tp2321
bas(g637
g160
tp2322
g217
s(g675
g160
tp2323
g274
s(g636
g1136
tp2324
(lp2325
g22
(g23
(I0
tp2326
g25
tp2327
Rp2328
(I1
(I3
tp2329
g169
I00
S'\xb5\xb2\xfb\xc5j\xfd\xf8?U\xfem@t%\x1e\xc0*_7\x98s\x1f\xf1?'
p2330
tp2331
bas(g675
g1136
tp2332
(lp2333
g22
(g23
(I0
tp2334
g25
tp2335
Rp2336
(I1
(I3
tp2337
g169
I00
S"\x13'\xbc`?\x00\x08@\x11\xeb\xf9.\xd7\x97\x1a\xc0\x05\xac4\xd3\xec0\x06@"
p2338
tp2339
bas(g636
g160
tp2340
g484
s(g635
g1136
tp2341
(lp2342
g22
(g23
(I0
tp2343
g25
tp2344
Rp2345
(I1
(I3
tp2346
g169
I00
S'/e\xc3O/\\\xec?\xe6\xf3\xd8\x0f\xe1\x15\x1c\xc0lx\xf3\x85\xfdn\x10@'
p2347
tp2348
bas(g635
g160
tp2349
g382
s(g12
g160
tp2350
g337
s(g634
g160
tp2351
g162
s(g634
g1136
tp2352
(lp2353
g22
(g23
(I0
tp2354
g25
tp2355
Rp2356
(I1
(I3
tp2357
g169
I00
S'i\xc9\xb4:Y.\xe3?\xe7<f\x9d\xf7]\x1b\xc0\x90,$_\x0e8\x00@'
p2358
tp2359
bas(g637
g1136
tp2360
(lp2361
g22
(g23
(I0
tp2362
g25
tp2363
Rp2364
(I1
(I3
tp2365
g169
I00
S'\xa8\x07xD\x98\x81\x02@H\x08\x9eFdd\x1d\xc0\xdaT\xef\xb4\x12M\x18@'
p2366
tp2367
bas(g12
g1136
tp2368
(lp2369
g22
(g23
(I0
tp2370
g25
tp2371
Rp2372
(I1
(I3
tp2373
g169
I00
S'\x85\x0f\xc3\xe0\xe0u\xf5?\xd9!\x91\xdfx-\x19\xc0\xad:\x89\xfd\x99s\xfd?'
p2374
tp2375
bas(g723
g1136
tp2376
(lp2377
g22
(g23
(I0
tp2378
g25
tp2379
Rp2380
(I1
(I3
tp2381
g169
I00
S"\xc1b'\xaa\xd4\xae\n@>HW\x86\x8d2\x16\xc0SW\x9e)\x1a\xe8\x14@"
p2382
tp2383
bas(g723
g160
tp2384
g541
s(g828
g160
tp2385
g427
ssS'parent_binary_predicates'
p2386
(dp2387
sS'nodes'
p2388
(dp2389
g1139
(lp2390
I0
aI0
aI0
aI0
aI0
aI0
aI00
aI01
aI00
aI01
aI00
asg1136
(lp2391
I0
aI0
aI0
aI0
aI0
aI0
aI00
aI01
aI00
aI01
aI00
asg160
(lp2392
I0
aI0
aI0
aI0
aI0
aI0
aI00
aI01
aI01
aI01
aI00
asg272
(lp2393
I0
aI0
aI0
ag1707
(g169
S'Zh2\xfd\xc4\xcd\x01@'
p2394
tp2395
Rp2396
ag1707
(g169
S'L\x14\xcf`|2\x19\xc0'
p2397
tp2398
Rp2399
ag1707
(g169
S'>r{\x90h\x8c\x17@'
p2400
tp2401
Rp2402
aI01
aI00
aI00
aI00
aI00
asg539
(lp2403
I0
aI0
aI0
ag1707
(g169
S'\x0f5\x87\t\xe1g\x0c@'
p2404
tp2405
Rp2406
ag1707
(g169
S'S\x13\x17\xd7\x1a\xe7\x18\xc0'
p2407
tp2408
Rp2409
ag1707
(g169
S'\xc2\x96\x89\xef4\xe9\xd4?'
p2410
tp2411
Rp2412
aI01
aI00
aI00
aI00
aI00
asg159
(lp2413
I0
aI0
aI0
ag1707
(g169
S'\xd2\x10(\x16T\xef\xd2?'
p2414
tp2415
Rp2416
ag1707
(g169
S'\x87\x86w\xa2\xeb\x91\x18\xc0'
p2417
tp2418
Rp2419
ag1707
(g169
S'\x85\xe6m\x95\nB\x13@'
p2420
tp2421
Rp2422
aI01
aI00
aI00
aI01
aI00
asg425
(lp2423
I0
aI0
aI0
ag1707
(g169
S'T\x1f\xac\xd2\x1f\x07\x0e@'
p2424
tp2425
Rp2426
ag1707
(g169
S'\xd20\xc8[{\x0f\x1e\xc0'
p2427
tp2428
Rp2429
ag1707
(g169
S')\xad\xae\xed\n\xeb\xee?'
p2430
tp2431
Rp2432
aI01
aI00
aI00
aI00
aI00
asg380
(lp2433
I0
aI0
aI0
ag1707
(g169
S'\x01\x95\xf5\xf8\xa2\xfd\xde?'
p2434
tp2435
Rp2436
ag1707
(g169
S'\x88\x176\xf7\x1e/\x1e\xc0'
p2437
tp2438
Rp2439
ag1707
(g169
S'\x05U^\x14\x99=\xf4?'
p2440
tp2441
Rp2442
aI01
aI00
aI00
aI01
aI00
asg482
(lp2443
I0
aI0
aI0
ag1707
(g169
S'\xf0\x92\xa8\xc3T\x9f\xff?'
p2444
tp2445
Rp2446
ag1707
(g169
S'\xb09{\xbe"\x0e\x1c\xc0'
p2447
tp2448
Rp2449
ag1707
(g169
S'\xbaa\xa1\x06\xe0@\x06@'
p2450
tp2451
Rp2452
aI01
aI00
aI00
aI01
aI00
asg335
(lp2453
I0
aI0
aI0
ag1707
(g169
S'G-\x01n\xde\x9d\xf2?'
p2454
tp2455
Rp2456
ag1707
(g169
S'\x1d;\xc2\xb3\xebe\x16\xc0'
p2457
tp2458
Rp2459
ag1707
(g169
S"S\x96\x9a\x0e'\xf4\x0e@"
p2460
tp2461
Rp2462
aI01
aI00
aI01
aI01
aI00
asg215
(lp2463
I0
aI0
aI0
ag1707
(g169
S'\xfc\x94Uw\xdb\xe1\x07@'
p2464
tp2465
Rp2466
ag1707
(g169
S'\x01\xa7a\x99\x10\xaf\x1c\xc0'
p2467
tp2468
Rp2469
ag1707
(g169
S'J5\xb4\xf3Q|\t@'
p2470
tp2471
Rp2472
aI01
aI00
aI00
aI01
aI00
assS'mc_place_path'
p2473
(dp2474
sS'parent_state'
p2475
NsS'goal_entities'
p2476
(lp2477
S'square_packing_box1'
p2478
ag160
asS'binary_edges'
p2479
(dp2480
(g380
g215
tp2481
(lp2482
I00
aI00
aI00
as(g380
g272
tp2483
(lp2484
I00
aI00
aI00
as(g159
g482
tp2485
(lp2486
I00
aI00
aI00
as(g159
g159
tp2487
(lp2488
I00
aI00
aI00
as(g539
g482
tp2489
(lp2490
I00
aI00
aI00
as(g539
g159
tp2491
(lp2492
I00
aI00
aI00
as(g215
g539
tp2493
(lp2494
I00
aI00
aI00
as(g380
g335
tp2495
(lp2496
I00
aI00
aI00
as(g425
g159
tp2497
(lp2498
I00
aI00
aI00
as(g272
g272
tp2499
(lp2500
I00
aI00
aI00
as(g539
g1136
tp2501
(lp2502
g1707
(g29
(S'b1'
p2503
I0
I1
tp2504
Rp2505
(I3
S'|'
p2506
NNNI-1
I-1
I0
tp2507
bS'\x01'
p2508
tp2509
Rp2510
aI00
aI01
as(g1139
g1136
tp2511
(lp2512
I00
aI00
aI00
as(g272
g215
tp2513
(lp2514
I00
aI00
aI00
as(g1136
g215
tp2515
(lp2516
I00
aI00
aI00
as(g335
g160
tp2517
(lp2518
I00
aI00
aI00
as(g1139
g539
tp2519
(lp2520
I00
aI00
aI00
as(g539
g215
tp2521
(lp2522
I00
aI00
aI00
as(g159
g1139
tp2523
(lp2524
g2510
aI00
aI00
as(g380
g380
tp2525
(lp2526
I00
aI00
aI00
as(g1136
g380
tp2527
(lp2528
I00
aI00
aI00
as(g482
g539
tp2529
(lp2530
I00
aI01
aI00
as(g539
g160
tp2531
(lp2532
I00
aI00
aI00
as(g425
g482
tp2533
(lp2534
I00
aI00
aI00
as(g272
g425
tp2535
(lp2536
I00
aI01
aI00
as(g335
g335
tp2537
(lp2538
I00
aI00
aI00
as(g539
g1139
tp2539
(lp2540
g2510
aI00
aI00
as(g1136
g539
tp2541
(lp2542
I00
aI00
aI00
as(g1136
g482
tp2543
(lp2544
I00
aI00
aI00
as(g1136
g159
tp2545
(lp2546
I00
aI00
aI00
as(g482
g160
tp2547
(lp2548
I00
aI00
aI00
as(g215
g272
tp2549
(lp2550
I00
aI01
aI00
as(g425
g272
tp2551
(lp2552
I00
aI00
aI00
as(g482
g425
tp2553
(lp2554
I00
aI01
aI00
as(g1136
g272
tp2555
(lp2556
I00
aI00
aI00
as(g1139
g160
tp2557
(lp2558
I00
aI00
aI00
as(g335
g539
tp2559
(lp2560
I00
aI00
aI00
as(g272
g482
tp2561
(lp2562
I00
aI00
aI00
as(g1139
g482
tp2563
(lp2564
I00
aI00
aI00
as(g482
g1139
tp2565
(lp2566
g2510
aI00
aI00
as(g159
g380
tp2567
(lp2568
I00
aI00
aI00
as(g215
g335
tp2569
(lp2570
I00
aI00
aI00
as(g159
g539
tp2571
(lp2572
I00
aI00
aI00
as(g215
g160
tp2573
(lp2574
I00
aI00
aI00
as(g1139
g1139
tp2575
(lp2576
I00
aI00
aI00
as(g482
g272
tp2577
(lp2578
I00
aI01
aI00
as(g335
g380
tp2579
(lp2580
I00
aI00
aI00
as(g160
g335
tp2581
(lp2582
I00
aI00
aI00
as(g425
g1136
tp2583
(lp2584
g2510
aI00
aI01
as(g160
g425
tp2585
(lp2586
I00
aI00
aI00
as(g215
g159
tp2587
(lp2588
I00
aI00
aI00
as(g159
g335
tp2589
(lp2590
I00
aI00
aI00
as(g482
g1136
tp2591
(lp2592
g2510
aI00
aI01
as(g159
g425
tp2593
(lp2594
I00
aI00
aI00
as(g482
g482
tp2595
(lp2596
I00
aI00
aI00
as(g425
g539
tp2597
(lp2598
I00
aI00
aI00
as(g1136
g160
tp2599
(lp2600
I00
aI00
aI00
as(g160
g380
tp2601
(lp2602
I00
aI00
aI00
as(g272
g160
tp2603
(lp2604
I00
aI00
aI00
as(g1139
g425
tp2605
(lp2606
I00
aI00
aI00
as(g160
g215
tp2607
(lp2608
I00
aI00
aI00
as(g159
g215
tp2609
(lp2610
I00
aI00
aI00
as(g425
g1139
tp2611
(lp2612
g2510
aI00
aI00
as(g215
g1136
tp2613
(lp2614
g2510
aI00
aI01
as(g425
g380
tp2615
(lp2616
I00
aI00
aI00
as(g272
g539
tp2617
(lp2618
I00
aI01
aI00
as(g272
g1136
tp2619
(lp2620
g2510
aI00
aI01
as(g160
g159
tp2621
(lp2622
I00
aI00
aI00
as(g1139
g215
tp2623
(lp2624
I00
aI00
aI00
as(g1139
g272
tp2625
(lp2626
I00
aI00
aI00
as(g425
g160
tp2627
(lp2628
I00
aI00
aI00
as(g380
g425
tp2629
(lp2630
I00
aI00
aI00
as(g335
g425
tp2631
(lp2632
I00
aI00
aI00
as(g160
g482
tp2633
(lp2634
I00
aI00
aI00
as(g1136
g1136
tp2635
(lp2636
I00
aI00
aI00
as(g380
g159
tp2637
(lp2638
I00
aI00
aI00
as(g335
g482
tp2639
(lp2640
I00
aI00
aI00
as(g1136
g335
tp2641
(lp2642
I00
aI00
aI00
as(g539
g272
tp2643
(lp2644
I00
aI01
aI00
as(g1136
g425
tp2645
(lp2646
I00
aI00
aI00
as(g335
g1139
tp2647
(lp2648
g2510
aI00
aI00
as(g380
g539
tp2649
(lp2650
I00
aI00
aI00
as(g159
g160
tp2651
(lp2652
I00
aI00
aI00
as(g335
g272
tp2653
(lp2654
I00
aI00
aI00
as(g272
g335
tp2655
(lp2656
I00
aI00
aI00
as(g539
g335
tp2657
(lp2658
I00
aI00
aI00
as(g1139
g380
tp2659
(lp2660
I00
aI00
aI00
as(g539
g425
tp2661
(lp2662
I00
aI00
aI00
as(g482
g380
tp2663
(lp2664
I00
aI00
aI00
as(g380
g1136
tp2665
(lp2666
g2510
aI00
aI01
as(g425
g425
tp2667
(lp2668
I00
aI00
aI00
as(g215
g380
tp2669
(lp2670
I00
aI00
aI00
as(g335
g215
tp2671
(lp2672
I00
aI00
aI00
as(g539
g380
tp2673
(lp2674
I00
aI00
aI00
as(g539
g539
tp2675
(lp2676
I00
aI00
aI00
as(g215
g425
tp2677
(lp2678
I00
aI01
aI00
as(g380
g160
tp2679
(lp2680
I00
aI00
aI00
as(g482
g335
tp2681
(lp2682
I00
aI00
aI00
as(g159
g1136
tp2683
(lp2684
g2510
aI00
aI01
as(g160
g539
tp2685
(lp2686
I00
aI00
aI00
as(g425
g335
tp2687
(lp2688
I00
aI00
aI00
as(g272
g159
tp2689
(lp2690
I00
aI00
aI00
as(g160
g1136
tp2691
(lp2692
I00
aI00
aI00
as(g380
g482
tp2693
(lp2694
I00
aI00
aI00
as(g1139
g159
tp2695
(lp2696
I00
aI00
aI00
as(g380
g1139
tp2697
(lp2698
g2510
aI00
aI00
as(g482
g159
tp2699
(lp2700
I00
aI00
aI00
as(g160
g160
tp2701
(lp2702
I00
aI00
aI00
as(g425
g215
tp2703
(lp2704
I00
aI00
aI00
as(g272
g1139
tp2705
(lp2706
g2510
aI00
aI00
as(g215
g1139
tp2707
(lp2708
g2510
aI00
aI00
as(g160
g1139
tp2709
(lp2710
I00
aI00
aI00
as(g160
g272
tp2711
(lp2712
I00
aI00
aI00
as(g482
g215
tp2713
(lp2714
I00
aI00
aI00
as(g215
g482
tp2715
(lp2716
I00
aI00
aI00
as(g159
g272
tp2717
(lp2718
I00
aI00
aI00
as(g1136
g1139
tp2719
(lp2720
I00
aI00
aI00
as(g335
g159
tp2721
(lp2722
I00
aI00
aI00
as(g272
g380
tp2723
(lp2724
I00
aI00
aI00
as(g215
g215
tp2725
(lp2726
I00
aI00
aI00
as(g335
g1136
tp2727
(lp2728
g2510
aI00
aI01
as(g1139
g335
tp2729
(lp2730
I00
aI00
aI00
assg632
g633
sS'pick_in_way'
p2731
(itrajectory_representation.predicates.pick_in_way
PickInWay
p2732
(dp2733
g157
(dp2734
g272
g704
sg539
g760
sg159
g809
sg425
g853
sg380
g902
sg482
g951
sg335
g981
sg215
g1042
ssg596
(dp2735
g272
(lp2736
Vsquare_packing_box4
p2737
aVsquare_packing_box3
p2738
aVrectangular_packing_box4
p2739
aVrectangular_packing_box2
p2740
asg539
(lp2741
Vsquare_packing_box3
p2742
aVrectangular_packing_box4
p2743
asg159
(lp2744
sg425
(lp2745
Vsquare_packing_box4
p2746
aVsquare_packing_box3
p2747
aVrectangular_packing_box4
p2748
asg380
(lp2749
sg482
(lp2750
sg335
(lp2751
sg215
(lp2752
ssg632
(lp2753
g380
ag482
ag159
ag215
ag1139
ag160
ag1136
ag335
ag1139
ag160
ag1136
ag1139
ag160
ag1136
ag1139
ag160
ag1136
ag1139
ag160
ag1136
ag1139
ag160
ag1136
ag1139
ag160
ag1136
ag1139
ag160
ag1136
asg638
g639
sg84
(dp2754
sg673
g674
sg1063
Nsg1070
g674
sg1067
(dp2755
sg1069
I8
sg1131
I01
sg1071
Nsg1072
(dp2756
(g380
g215
tp2757
I00
s(g380
g272
tp2758
I00
s(g159
g482
tp2759
I00
s(g159
g159
tp2760
I00
s(g539
g482
tp2761
I00
s(g539
g159
tp2762
I00
s(g215
g539
tp2763
I00
s(g380
g335
tp2764
I00
s(g425
g159
tp2765
I00
s(g272
g272
tp2766
I00
s(g539
g1136
tp2767
I00
s(g1139
g1136
tp2768
I00
s(g272
g215
tp2769
I00
s(g1136
g215
tp2770
I00
s(g335
g160
tp2771
I00
s(g1139
g539
tp2772
I00
s(g539
g215
tp2773
I00
s(g159
g1139
tp2774
I00
s(g380
g380
tp2775
I00
s(g1136
g380
tp2776
I00
s(g482
g539
tp2777
I01
s(g539
g160
tp2778
I00
s(g425
g482
tp2779
I00
s(g272
g425
tp2780
I01
s(g335
g335
tp2781
I00
s(g539
g1139
tp2782
I00
s(g1136
g539
tp2783
I00
s(g1136
g482
tp2784
I00
s(g1136
g159
tp2785
I00
s(g482
g160
tp2786
I00
s(g215
g272
tp2787
I01
s(g425
g272
tp2788
I00
s(g482
g425
tp2789
I01
s(g1136
g272
tp2790
I00
s(g1139
g160
tp2791
I00
s(g335
g539
tp2792
I00
s(g272
g482
tp2793
I00
s(g1139
g482
tp2794
I00
s(g482
g1139
tp2795
I00
s(g159
g380
tp2796
I00
s(g215
g335
tp2797
I00
s(g159
g539
tp2798
I00
s(g215
g160
tp2799
I00
s(g1139
g1139
tp2800
I00
s(g482
g272
tp2801
I01
s(g335
g380
tp2802
I00
s(g160
g335
tp2803
I00
s(g425
g1136
tp2804
I00
s(g160
g425
tp2805
I00
s(g215
g159
tp2806
I00
s(g159
g335
tp2807
I00
s(g482
g1136
tp2808
I00
s(g159
g425
tp2809
I00
s(g482
g482
tp2810
I00
s(g425
g539
tp2811
I00
s(g1136
g160
tp2812
I00
s(g160
g380
tp2813
I00
s(g272
g160
tp2814
I00
s(g1139
g425
tp2815
I00
s(g160
g215
tp2816
I00
s(g159
g215
tp2817
I00
s(g425
g1139
tp2818
I00
s(g215
g1136
tp2819
I00
s(g425
g380
tp2820
I00
s(g272
g539
tp2821
I01
s(g272
g1136
tp2822
I00
s(g160
g159
tp2823
I00
s(g1139
g215
tp2824
I00
s(g1139
g272
tp2825
I00
s(g425
g160
tp2826
I00
s(g380
g425
tp2827
I00
s(g335
g425
tp2828
I00
s(g160
g482
tp2829
I00
s(g1136
g1136
tp2830
I00
s(g380
g159
tp2831
I00
s(g335
g482
tp2832
I00
s(g1136
g335
tp2833
I00
s(g539
g272
tp2834
I01
s(g1136
g425
tp2835
I00
s(g335
g1139
tp2836
I00
s(g380
g539
tp2837
I00
s(g159
g160
tp2838
I00
s(g335
g272
tp2839
I00
s(g272
g335
tp2840
I00
s(g539
g335
tp2841
I00
s(g1139
g380
tp2842
I00
s(g539
g425
tp2843
I00
s(g482
g380
tp2844
I00
s(g380
g1136
tp2845
I00
s(g425
g425
tp2846
I00
s(g215
g380
tp2847
I00
s(g335
g215
tp2848
I00
s(g539
g380
tp2849
I00
s(g539
g539
tp2850
I00
s(g215
g425
tp2851
I01
s(g380
g160
tp2852
I00
s(g482
g335
tp2853
I00
s(g159
g1136
tp2854
I00
s(g160
g539
tp2855
I00
s(g425
g335
tp2856
I00
s(g272
g159
tp2857
I00
s(g160
g1136
tp2858
I00
s(g380
g482
tp2859
I00
s(g1139
g159
tp2860
I00
s(g380
g1139
tp2861
I00
s(g482
g159
tp2862
I00
s(g160
g160
tp2863
I00
s(g425
g215
tp2864
I00
s(g272
g1139
tp2865
I00
s(g215
g1139
tp2866
I00
s(g160
g1139
tp2867
I00
s(g160
g272
tp2868
I00
s(g482
g215
tp2869
I00
s(g215
g482
tp2870
I00
s(g159
g272
tp2871
I00
s(g1136
g1139
tp2872
I00
s(g335
g159
tp2873
I00
s(g272
g380
tp2874
I00
s(g215
g215
tp2875
I00
s(g335
g1136
tp2876
I00
s(g1139
g335
tp2877
I00
ssg1130
NsbsS'robot_pose'
p2878
g22
(g23
(I0
tp2879
g25
tp2880
Rp2881
(I1
(I1
I3
tp2882
g169
I00
S'>\x90\xe6\xdd\x05!\x02@\xfb\xb8\x82>\x93\x8e\x1e\xc0\xeb\xbfl\xbbG\xbd\x0f@'
p2883
tp2884
bsS'is_holding_goal_entity'
p2885
(itrajectory_representation.predicates.is_holding_goal_entity
IsHoldingGoalEntity
p2886
(dp2887
g2476
g2477
sg1071
NsbsS'mc_pick_path'
p2888
(dp2889
sS'current_collides'
p2890
g639
sbasS'seed'
p2891
NsS'state_prime'
p2892
(lp2893
sS'problem_idx'
p2894
I298
sb.