(itrajectory_representation.trajectory
Trajectory
p0
(dp1
S'rewards'
p2
(lp3
I10
asS'actions'
p4
(lp5
(itrajectory_representation.operator
Operator
p6
(dp7
S'is_skeleton'
p8
I00
sS'discrete_parameters'
p9
(dp10
S'object'
p11
Vsquare_packing_box1
p12
sS'two_arm_place_region'
p13
S'home_region'
p14
sS'two_arm_place_object'
p15
Vsquare_packing_box1
p16
ssS'type'
p17
S'two_arm_pick_two_arm_place'
p18
sS'continuous_parameters'
p19
(dp20
S'q_goal'
p21
cnumpy.core.multiarray
_reconstruct
p22
(cnumpy
ndarray
p23
(I0
tp24
S'b'
p25
tp26
Rp27
(I1
(I3
tp28
cnumpy
dtype
p29
(S'f8'
p30
I0
I1
tp31
Rp32
(I3
S'<'
p33
NNNI-1
I-1
I0
tp34
bI00
S'\xe0s\x82c\\\x86\xe8?\x18\xbc\xe6\xd1\x91T\x14\xc0)M\xea\xd2\xc5\xa7\xf8\xbf'
p35
tp36
bsS'place'
p37
(dp38
g21
g22
(g23
(I0
tp39
g25
tp40
Rp41
(I1
(I3
tp42
g32
I00
S'7lj\xd1A0\xf3?\\\xd6\x9b\xf4\x88]\x01\xc0\x00J\xf43ok\xf1\xbf'
p43
tp44
bssS'pick'
p45
(dp46
g21
g27
sssS'low_level_motion'
p47
(lp48
g22
(g23
(I0
tp49
g25
tp50
Rp51
(I1
(I3
tp52
g32
I00
S'Xo]\xb8\x9b\xbd\x00@c--\xb3b\xf9\x15\xc0\xa4\xf5\x97\xcb~w\x01@'
p53
tp54
bag22
(g23
(I0
tp55
g25
tp56
Rp57
(I1
(I3
tp58
g29
(S'f8'
p59
I0
I1
tp60
Rp61
(I3
S'<'
p62
NNNI-1
I-1
I0
tp63
bI00
S'\x85\\2\xba\x0b5\xf5?I\r\x06\xd10\xfb\x15\xc0\x9e\x11\xee\xd8\xb9\xd7\xf5?'
p64
tp65
bag22
(g23
(I0
tp66
g25
tp67
Rp68
(I1
(I3
tp69
g61
I00
S'l[\xc4\x16<\xe6\xe9?\xa6\xa0\x90\x84X\x9f\x13\xc0\xc2\xd74Q\x00\xaf\xff\xbf'
p70
tp71
bag27
ag27
asbasS'filename'
p72
S''
p73
sS'states'
p74
(lp75
(itrajectory_representation.shortest_path_pick_and_place_state
ShortestPathPaPState
p76
(dp77
S'place_used'
p78
(dp79
(g16
g14
tp80
(itrajectory_representation.operator
Operator
p81
(dp82
g8
I01
sg9
(dp83
S'region'
p84
g14
sg11
g16
ssg17
S'two_arm_place'
p85
sg19
(dp86
g21
g22
(g23
(I0
tp87
g25
tp88
Rp89
(I1
(I3
tp90
g32
I00
S'7lj\xd1A0\xf3?\\\xd6\x9b\xf4\x88]\x01\xc0\x00J\xf43ok\xf1\xbf'
p91
tp92
bssg47
(lp93
g22
(g23
(I0
tp94
g25
tp95
Rp96
(I1
(I3
tp97
g32
I00
S'\xcfs\x82c\\\x86\xe8?\x16\xbc\xe6\xd1\x91T\x14\xc0)M\xea\xd2\xc5\xa7\xf8\xbf'
p98
tp99
bag22
(g23
(I0
tp100
g25
tp101
Rp102
(I1
(I3
tp103
g61
I00
S'\xb0E\xbb;Cb\xeb?\x9e\xde\xa7\xdd\xbdd\x12\xc0\xc6\xee\xbd\x16\x8c\xaa\xf3\xbf'
p104
tp105
bag22
(g23
(I0
tp106
g25
tp107
Rp108
(I1
(I3
tp109
g61
I00
S'`\xc8Aw-\x81\xeb?/\xc3\xe6O\x04\xca\x10\xc0\x8a\xb7K)\x91{\xe4\xbf'
p110
tp111
bag22
(g23
(I0
tp112
g25
tp113
Rp114
(I1
(I3
tp115
g61
I00
S'D\xd4f\xd4\xfa\x1e\xf4?I!\xc6|\x02#\r\xc0{+;\x1d74\xe9\xbf'
p116
tp117
bag22
(g23
(I0
tp118
g25
tp119
Rp120
(I1
(I3
tp121
g61
I00
S't\xad\xfd`ie\xf1?\xef\xbf\xd0\xd0\xb5(\x07\xc0\nC\xf27\x9f\xdc\xe7\xbf'
p122
tp123
bag89
ag89
asbssS'place_in_way'
p124
(itrajectory_representation.predicates.place_in_way
PlaceInWay
p125
(dp126
S'mc_path_to_entity'
p127
(dp128
(Vrectangular_packing_box3
p129
S'home_region'
p130
tp131
(lp132
g22
(g23
(I0
tp133
g25
tp134
Rp135
(I1
(I3
tp136
g29
(S'f8'
p137
I0
I1
tp138
Rp139
(I3
S'<'
p140
NNNI-1
I-1
I0
tp141
bI00
S'4x\x1c\x1c\xb8\xa7\xf7?\x16K9\x05\x97\x8f\x1e\xc0\xfd\x1a\x18S\xea%\x17@'
p142
tp143
bag22
(g23
(I0
tp144
g25
tp145
Rp146
(I1
(I3
tp147
g29
(S'f8'
p148
I0
I1
tp149
Rp150
(I3
S'<'
p151
NNNI-1
I-1
I0
tp152
bI00
S'\xba)c\x05l\x93\xf4?\x8f\x0f\xa1<\xee\x05\x1c\xc0\xf9-\x16\x17\xc6`\xf8\xbf'
p153
tp154
bag22
(g23
(I0
tp155
g25
tp156
Rp157
(I1
(I3
tp158
g150
I00
S'\xb0\xcfg\xd5._\xe8?\xd6\x8d\xba\x87\x91D\x1a\xc0\xea!\xf73\x0cB\xf7\xbf'
p159
tp160
bag22
(g23
(I0
tp161
g25
tp162
Rp163
(I1
(I3
tp164
g150
I00
S"\x1aq\xa1\x96-\xd2\xec?\xa2\x8f\xd2'\xa1I\x18\xc0\x06\xea(\x89^*\xf2\xbf"
p165
tp166
bag22
(g23
(I0
tp167
g25
tp168
Rp169
(I1
(I3
tp170
g150
I00
S'tx\x8as\xa8b\xed?\x9ej\x15\xfa\xf0{\x15\xc0@\xed\x9a-\x9eD\xf2\xbf'
p171
tp172
bag22
(g23
(I0
tp173
g25
tp174
Rp175
(I1
(I3
tp176
g150
I00
S'\xb0E\xbb;Cb\xeb?\x9e\xde\xa7\xdd\xbdd\x12\xc0\xc6\xee\xbd\x16\x8c\xaa\xf3\xbf'
p177
tp178
bag22
(g23
(I0
tp179
g25
tp180
Rp181
(I1
(I3
tp182
g150
I00
S'`\xc8Aw-\x81\xeb?/\xc3\xe6O\x04\xca\x10\xc0\x8a\xb7K)\x91{\xe4\xbf'
p183
tp184
bag22
(g23
(I0
tp185
g25
tp186
Rp187
(I1
(I3
tp188
g150
I00
S'\xe1\xc6\xc7\xa7\x12X\xe7?\x98\x99\xb0\x9a\xfb\xdb\x0b\xc0R\t\x1b)\xeae\xe0\xbf'
p189
tp190
bag22
(g23
(I0
tp191
g25
tp192
Rp193
(I1
(I3
tp194
g150
I00
S'p\xf1\xbdc^\x84\xf1?"\x88LL\xf9D\x06\xc0~w\r\xe9m\x0f\x19@'
p195
tp196
bas(Vsquare_packing_box4
p197
g130
tp198
(lp199
g22
(g23
(I0
tp200
g25
tp201
Rp202
(I1
(I3
tp203
g139
I00
S'\x18\t\x95\xee`.\xe2?QJ\x94*b?\x1f\xc0?xp\xb3\xbe\xaf\x07@'
p204
tp205
bag22
(g23
(I0
tp206
g25
tp207
Rp208
(I1
(I3
tp209
g150
I00
S'\xd23W\xd6\xdd\xe3\xe6?\xdc\xcai,~\xa9\x1c\xc0\xe4\x03\x93/\x16_\x04\xc0'
p210
tp211
bag22
(g23
(I0
tp212
g25
tp213
Rp214
(I1
(I3
tp215
g150
I00
S'\xf8\xfc\x1a\xd0\xc9l\xe8?\x8a\x897\x8e~\x98\x1a\xc0\xaf\xf7\xb87\xc6\xa7\x01\xc0'
p216
tp217
bag22
(g23
(I0
tp218
g25
tp219
Rp220
(I1
(I3
tp221
g150
I00
S"\xc6'8AN\xb0\xec?\xe0\x975>\x0f\x03\x19\xc0(\xe0e;\x85\x89\x05\xc0"
p222
tp223
bag22
(g23
(I0
tp224
g25
tp225
Rp226
(I1
(I3
tp227
g150
I00
S'\xd0\xcb\x13\x8f\xaa\x9d\xed?\x90\x01<]3\x06\x16\xc0F\xf1\xe7x32\x02\xc0'
p228
tp229
bag22
(g23
(I0
tp230
g25
tp231
Rp232
(I1
(I3
tp233
g150
I00
S'l[\xc4\x16<\xe6\xe9?\xa6\xa0\x90\x84X\x9f\x13\xc0\xc2\xd74Q\x00\xaf\xff\xbf'
p234
tp235
bag22
(g23
(I0
tp236
g25
tp237
Rp238
(I1
(I3
tp239
g150
I00
S"\xaeJ\xbd\x1936\xec?\x04\x13\xd4'\x9f\x88\x10\xc0\x805qo\xb6\xe6\xff\xbf"
p240
tp241
bag22
(g23
(I0
tp242
g25
tp243
Rp244
(I1
(I3
tp245
g150
I00
S'\xf09\xb6\x1c*\x86\xee?\xc4\n/\x96\xcb\xe3\n\xc0\xa0\xc9\xd6F6\x0f\x00\xc0'
p246
tp247
bag22
(g23
(I0
tp248
g25
tp249
Rp250
(I1
(I3
tp251
g150
I00
S'3\xe9\xaf\x05T\x89\xe7?+~\xcb\xd3\x15\xc7\x04\xc0x6(d5\xed\x07@'
p252
tp253
bas(Vrectangular_packing_box1
p254
g130
tp255
(lp256
g22
(g23
(I0
tp257
g25
tp258
Rp259
(I1
(I3
tp260
g139
I00
S'\xca\x15\xd3\xd2Xb\xe4?\xd6j\xb8\xd9\xa6\xd9\x1d\xc0b\x9b\xccG\xd6H\x14@'
p261
tp262
bag22
(g23
(I0
tp263
g25
tp264
Rp265
(I1
(I3
tp266
g150
I00
S'\xda:H\x99\\\xf4\xd7?\x9d\xfe\xfa\xb2d\xee\x1a\xc0\xb9=\xe66\x01\xe0\x07\xc0'
p267
tp268
bag22
(g23
(I0
tp269
g25
tp270
Rp271
(I1
(I3
tp272
g150
I00
S"\xc6'8AN\xb0\xec?\xe0\x975>\x0f\x03\x19\xc0(\xe0e;\x85\x89\x05\xc0"
p273
tp274
bag22
(g23
(I0
tp275
g25
tp276
Rp277
(I1
(I3
tp278
g150
I00
S'\xd0\xcb\x13\x8f\xaa\x9d\xed?\x90\x01<]3\x06\x16\xc0F\xf1\xe7x32\x02\xc0'
p279
tp280
bag22
(g23
(I0
tp281
g25
tp282
Rp283
(I1
(I3
tp284
g150
I00
S'l[\xc4\x16<\xe6\xe9?\xa6\xa0\x90\x84X\x9f\x13\xc0\xc2\xd74Q\x00\xaf\xff\xbf'
p285
tp286
bag22
(g23
(I0
tp287
g25
tp288
Rp289
(I1
(I3
tp290
g150
I00
S"\xaeJ\xbd\x1936\xec?\x04\x13\xd4'\x9f\x88\x10\xc0\x805qo\xb6\xe6\xff\xbf"
p291
tp292
bag22
(g23
(I0
tp293
g25
tp294
Rp295
(I1
(I3
tp296
g150
I00
S'\xf09\xb6\x1c*\x86\xee?\xc4\n/\x96\xcb\xe3\n\xc0\xa0\xc9\xd6F6\x0f\x00\xc0'
p297
tp298
bag22
(g23
(I0
tp299
g25
tp300
Rp301
(I1
(I3
tp302
g150
I00
S'3\xe9\xaf\x05T\x89\xe7?+~\xcb\xd3\x15\xc7\x04\xc0x6(d5\xed\x07@'
p303
tp304
bas(Vsquare_packing_box2
p305
g130
tp306
(lp307
g22
(g23
(I0
tp308
g25
tp309
Rp310
(I1
(I3
tp311
g139
I00
S'\x80\xd8\xf7\xd0\x1d\x01\xbb?p\x1aC&n\x80\x17\xc0\xfc:4\xe3\x0c\x9a\x11@'
p312
tp313
bag22
(g23
(I0
tp314
g25
tp315
Rp316
(I1
(I3
tp317
g150
I00
S'\xff\x1dX8\xbe\xd2\xc9?\x91h\xd1{\x1e(\x16\xc0\xee\xfeSI\xc3\xd4\x03\xc0'
p318
tp319
bag22
(g23
(I0
tp320
g25
tp321
Rp322
(I1
(I3
tp323
g150
I00
S'\xd0\xcb\x13\x8f\xaa\x9d\xed?\x90\x01<]3\x06\x16\xc0F\xf1\xe7x32\x02\xc0'
p324
tp325
bag22
(g23
(I0
tp326
g25
tp327
Rp328
(I1
(I3
tp329
g150
I00
S'l[\xc4\x16<\xe6\xe9?\xa6\xa0\x90\x84X\x9f\x13\xc0\xc2\xd74Q\x00\xaf\xff\xbf'
p330
tp331
bag22
(g23
(I0
tp332
g25
tp333
Rp334
(I1
(I3
tp335
g150
I00
S"\xaeJ\xbd\x1936\xec?\x04\x13\xd4'\x9f\x88\x10\xc0\x805qo\xb6\xe6\xff\xbf"
p336
tp337
bag22
(g23
(I0
tp338
g25
tp339
Rp340
(I1
(I3
tp341
g150
I00
S'\xf09\xb6\x1c*\x86\xee?\xc4\n/\x96\xcb\xe3\n\xc0\xa0\xc9\xd6F6\x0f\x00\xc0'
p342
tp343
bag22
(g23
(I0
tp344
g25
tp345
Rp346
(I1
(I3
tp347
g150
I00
S'3\xe9\xaf\x05T\x89\xe7?+~\xcb\xd3\x15\xc7\x04\xc0x6(d5\xed\x07@'
p348
tp349
bas(Vsquare_packing_box3
p350
g130
tp351
(lp352
g22
(g23
(I0
tp353
g25
tp354
Rp355
(I1
(I3
tp356
g139
I00
S'\xefB\x19\x8e\xdd\xc6\xf7?\xae\xd2t\xbd\xd3\xbe\x17\xc0\xf0\x81\xd8\xf9C\x1f\x12@'
p357
tp358
bag22
(g23
(I0
tp359
g25
tp360
Rp361
(I1
(I3
tp362
g150
I00
S'\xd0\xcb\x13\x8f\xaa\x9d\xed?\x90\x01<]3\x06\x16\xc0F\xf1\xe7x32\x02\xc0'
p363
tp364
bag22
(g23
(I0
tp365
g25
tp366
Rp367
(I1
(I3
tp368
g150
I00
S'l[\xc4\x16<\xe6\xe9?\xa6\xa0\x90\x84X\x9f\x13\xc0\xc2\xd74Q\x00\xaf\xff\xbf'
p369
tp370
bag22
(g23
(I0
tp371
g25
tp372
Rp373
(I1
(I3
tp374
g150
I00
S"\xaeJ\xbd\x1936\xec?\x04\x13\xd4'\x9f\x88\x10\xc0\x805qo\xb6\xe6\xff\xbf"
p375
tp376
bag22
(g23
(I0
tp377
g25
tp378
Rp379
(I1
(I3
tp380
g150
I00
S'\xf09\xb6\x1c*\x86\xee?\xc4\n/\x96\xcb\xe3\n\xc0\xa0\xc9\xd6F6\x0f\x00\xc0'
p381
tp382
bag22
(g23
(I0
tp383
g25
tp384
Rp385
(I1
(I3
tp386
g150
I00
S'3\xe9\xaf\x05T\x89\xe7?+~\xcb\xd3\x15\xc7\x04\xc0x6(d5\xed\x07@'
p387
tp388
bassS'mc_to_entity'
p389
(dp390
(g129
g130
tp391
(lp392
Vsquare_packing_box3
p393
aVsquare_packing_box1
p394
aVrectangular_packing_box2
p395
as(g197
g130
tp396
(lp397
Vrectangular_packing_box1
p398
aVsquare_packing_box1
p399
aVsquare_packing_box2
p400
as(g254
g130
tp401
(lp402
Vsquare_packing_box2
p403
aVsquare_packing_box1
p404
as(g305
g130
tp405
(lp406
Vsquare_packing_box1
p407
as(g350
g130
tp408
(lp409
Vrectangular_packing_box2
p410
aVsquare_packing_box1
p411
assS'reachable_entities'
p412
(lp413
Vrectangular_packing_box4
p414
aVrectangular_packing_box2
p415
aVrectangular_packing_box3
p416
aVsquare_packing_box3
p417
ag12
asS'collides'
p418
(dp419
Vrectangular_packing_box4
p420
c__builtin__
set
p421
((lp422
I270
aI405
aI280
aI425
aI303
aI307
aI565
aI442
aI193
aI453
aI457
aI211
aI212
aI213
aI343
aI473
aI479
aI614
aI367
aI500
aI245
aI246
aI247
aI381
atp423
Rp424
sVrectangular_packing_box2
p425
g421
((lp426
I3
aI4
aI395
aI404
aI416
aI161
aI162
aI36
aI37
aI554
aI301
aI309
aI310
aI55
aI56
aI570
aI187
aI188
aI449
aI70
aI327
aI201
aI202
aI203
aI205
aI595
aI597
aI92
aI93
aI607
aI106
aI497
aI115
aI372
aI379
atp427
Rp428
sVrectangular_packing_box3
p429
g421
((lp430
I256
aI513
aI514
aI515
aI260
aI392
aI259
aI406
aI407
aI286
aI543
aI552
aI556
aI429
aI443
aI444
aI67
aI118
aI585
aI463
aI337
aI610
aI613
aI358
aI593
aI572
aI374
aI119
aI120
aI123
atp431
Rp432
sVrectangular_packing_box1
p433
g421
((lp434
I448
aI486
aI135
aI264
aI265
aI490
aI366
aI177
aI494
aI505
aI121
aI122
aI346
aI158
aI159
atp435
Rp436
sVsquare_packing_box2
p437
g421
((lp438
I384
aI6
aI521
aI138
aI523
aI152
aI153
aI154
aI155
aI157
aI163
aI165
aI166
aI424
aI553
aI394
aI197
aI198
aI518
aI338
aI547
aI362
aI249
atp439
Rp440
sVsquare_packing_box3
p441
g421
((lp442
I4
aI5
aI262
aI145
aI146
aI538
aI413
aI162
aI35
aI36
aI422
aI310
aI55
aI570
aI188
aI69
aI70
aI205
aI79
aI80
aI81
aI595
aI215
aI92
aI93
aI355
aI230
aI124
atp443
Rp444
sVsquare_packing_box1
p445
g421
((lp446
I235
aI132
aI517
aI6
aI7
aI8
aI139
aI276
aI491
aI33
aI34
aI424
aI44
aI584
aI350
aI186
aI196
aI198
aI71
aI456
aI459
aI84
aI349
aI94
aI351
aI233
aI234
aI107
aI108
aI503
aI252
aI362
aI383
atp447
Rp448
sVsquare_packing_box4
p449
g421
((lp450
I257
aI356
aI229
aI265
aI589
aI366
aI564
aI580
aI532
aI478
aI502
aI452
aI575
aI158
aI159
atp451
Rp452
ssg78
g79
sS'pick_used'
p453
(dp454
g414
(itrajectory_representation.operator
Operator
p455
(dp456
g8
I01
sg9
(dp457
S'object'
p458
Vrectangular_packing_box4
p459
ssg17
S'two_arm_pick'
p460
sg19
(dp461
S'q_goal'
p462
(lp463
g22
(g23
(I0
tp464
g25
tp465
Rp466
(I1
(I3
tp467
g139
I00
S'\x98%\x0cK\xe2\xc9\x07@\xd6\xb9V\x19\xda\x12\x1b\xc047\x88\x0c\xfd\xd9\xc8\xbf'
p468
tp469
bag22
(g23
(I0
tp470
g25
tp471
Rp472
(I1
(I3
tp473
g139
I00
S'\xc4\x03+\x19uk\x0c@K\xe5v\xa8\xbe\x8c\x1e\xc0?\xfe%\x86\xf3`\xf3?'
p474
tp475
bag22
(g23
(I0
tp476
g25
tp477
Rp478
(I1
(I3
tp479
g139
I00
S'i\xb33\xba\xeb\xb1\x08@*h6%\x9ay\x1a\xc0\r\x111@\x96\xa0\xe3\xbf'
p480
tp481
basS'is_feasible'
p482
I00
ssg47
(lp483
g22
(g23
(I0
tp484
g25
tp485
Rp486
(I1
(I3
tp487
g139
I00
S'Vo]\xb8\x9b\xbd\x00@a--\xb3b\xf9\x15\xc0\xa4\xf5\x97\xcb~w\x01@'
p488
tp489
bag22
(g23
(I0
tp490
g25
tp491
Rp492
(I1
(I3
tp493
g150
I00
S'\xf8d\x877\x12\xfd\x04@h\xdbW\x9a\x83\x8e\x16\xc0\x87\xf16\xb9\x03k\x05@'
p494
tp495
bag22
(g23
(I0
tp496
g25
tp497
Rp498
(I1
(I3
tp499
g150
I00
S'P\x9d\xdf\x99\xa6e\x04@\x1c`\xb6c\x8e7\x19\xc0@\xf2\xef\xc5\xd3\xc8\x17@'
p500
tp501
bag478
asbsg415
(itrajectory_representation.operator
Operator
p502
(dp503
g8
I01
sg9
(dp504
g458
Vrectangular_packing_box2
p505
ssg17
g460
sg19
(dp506
g462
(lp507
g22
(g23
(I0
tp508
g25
tp509
Rp510
(I1
(I3
tp511
g139
I00
S'\xfb\x9fm\x12\xba\xc2\xf8?\x00\xe9G\xb9\xf0\x08\x16\xc04\x0b4<\xee.\xf0\xbf'
p512
tp513
bag22
(g23
(I0
tp514
g25
tp515
Rp516
(I1
(I3
tp517
g139
I00
S'\xcc\xca\x8f\xc5\xcfm\x02@\x14\xd2XS\x95T\x16\xc0\xda\x06\x13a6\x8d\x00\xc0'
p518
tp519
bag22
(g23
(I0
tp520
g25
tp521
Rp522
(I1
(I3
tp523
g139
I00
S'\xcd\xa4\x92fTC\xf5?;\x87y\x99\xab4\x16\xc0\xbf\xbb\xfaG\xe1\xfb\xf2\xbf'
p524
tp525
basg482
I00
ssg47
(lp526
g22
(g23
(I0
tp527
g25
tp528
Rp529
(I1
(I3
tp530
g139
I00
S'Vo]\xb8\x9b\xbd\x00@a--\xb3b\xf9\x15\xc0\xa4\xf5\x97\xcb~w\x01@'
p531
tp532
bag22
(g23
(I0
tp533
g25
tp534
Rp535
(I1
(I3
tp536
g150
I00
S'\xf8d\x877\x12\xfd\x04@h\xdbW\x9a\x83\x8e\x16\xc0\x87\xf16\xb9\x03k\x05@'
p537
tp538
bag22
(g23
(I0
tp539
g25
tp540
Rp541
(I1
(I3
tp542
g150
I00
S'\x16\x9e\xd06H\xd3\x04@\xe5\xe1\xfb\xc5\xb8\xd1\x16\xc0es\x86\x03\xdb\x8e\x17@'
p543
tp544
bag516
asbsg416
(itrajectory_representation.operator
Operator
p545
(dp546
g8
I01
sg9
(dp547
g458
Vrectangular_packing_box3
p548
ssg17
g460
sg19
(dp549
g462
(lp550
g22
(g23
(I0
tp551
g25
tp552
Rp553
(I1
(I3
tp554
g139
I00
S'0x\x1c\x1c\xb8\xa7\xf7?\x12K9\x05\x97\x8f\x1e\xc0\xad!\xc1\x12\x10\xc1\xdf\xbf'
p555
tp556
bag22
(g23
(I0
tp557
g25
tp558
Rp559
(I1
(I3
tp560
g139
I00
S'h\xe1\xb4\xb7\xbd)\x04@\x1b\x0b\xb6T\n\x95\x1c\xc0K\xd9t\\\xa2\xf9\xf9\xbf'
p561
tp562
bag22
(g23
(I0
tp563
g25
tp564
Rp565
(I1
(I3
tp566
g139
I00
S'\x82\\M5R\x1e\xf6?\x07\xc9\x0c\xf6\xa2\xb7\x1e\xc0.\xfa\x10q\xc6\xf3\xc4\xbf'
p567
tp568
basg482
I00
ssg47
(lp569
g22
(g23
(I0
tp570
g25
tp571
Rp572
(I1
(I3
tp573
g139
I00
S'Vo]\xb8\x9b\xbd\x00@a--\xb3b\xf9\x15\xc0\xa4\xf5\x97\xcb~w\x01@'
p574
tp575
bag22
(g23
(I0
tp576
g25
tp577
Rp578
(I1
(I3
tp579
g150
I00
S'\xf8d\x877\x12\xfd\x04@h\xdbW\x9a\x83\x8e\x16\xc0\x87\xf16\xb9\x03k\x05@'
p580
tp581
bag22
(g23
(I0
tp582
g25
tp583
Rp584
(I1
(I3
tp585
g150
I00
S'0\xaf\xd4\xd6]V\x04@\xae\x11\x8b;Ad\x19\xc0\xe0\x95\x12l-L\x03\xc0'
p586
tp587
bag559
asbsVrectangular_packing_box1
p588
(itrajectory_representation.operator
Operator
p589
(dp590
g8
I01
sg9
(dp591
g458
Vrectangular_packing_box1
p592
ssg17
g460
sg19
(dp593
g462
(lp594
g22
(g23
(I0
tp595
g25
tp596
Rp597
(I1
(I3
tp598
g139
I00
S'\xd8\x15\xd3\xd2Xb\xe4?\xd1j\xb8\xd9\xa6\xd9\x1d\xc0\xd8F\xde1\x94d\xf3\xbf'
p599
tp600
bag22
(g23
(I0
tp601
g25
tp602
Rp603
(I1
(I3
tp604
g139
I00
S'\x92\x0e>X\x82T\xf7?\xd5f\x91P\x85\x8e\x1e\xc0^\xe5\x91\xed\xf9N\x02\xc0'
p605
tp606
bag22
(g23
(I0
tp607
g25
tp608
Rp609
(I1
(I3
tp610
g139
I00
S'\xeaR\xd3\xdbKw\xfb?z\xe0\xa5\xeb!\xd5\x1f\xc0\x08><I\x03A\x04\xc0'
p611
tp612
bag22
(g23
(I0
tp613
g25
tp614
Rp615
(I1
(I3
tp616
g139
I00
S'8\x8e\xb9}SX\xe1?*x\xe4[`&\x1e\xc0\x9c\xbcC\xcf\xef\xd5\xe7\xbf'
p617
tp618
basg482
I00
ssg47
(lp619
g22
(g23
(I0
tp620
g25
tp621
Rp622
(I1
(I3
tp623
g139
I00
S'Vo]\xb8\x9b\xbd\x00@a--\xb3b\xf9\x15\xc0\xa4\xf5\x97\xcb~w\x01@'
p624
tp625
bag22
(g23
(I0
tp626
g25
tp627
Rp628
(I1
(I3
tp629
g150
I00
S'\xf60LV\xe8\x96\x00@\x9aEw{a\xe2\x18\xc0^\xa8\x8a,\xa3\x98\x00@'
p630
tp631
bag22
(g23
(I0
tp632
g25
tp633
Rp634
(I1
(I3
tp635
g150
I00
S'\xba\x8d\x1a\xa2f&\x03@$\xbc\xba{lE\x1a\xc0172\n\x8c\xab\x03@'
p636
tp637
bag22
(g23
(I0
tp638
g25
tp639
Rp640
(I1
(I3
tp641
g150
I00
S'\xff\xd7C\xaa\x9ac\xff?\x86\x0e\xb5\xc1\xc7\x12\x1c\xc0\xd6\x18\x81\xcfC-\x12@'
p642
tp643
bag603
asbsVsquare_packing_box2
p644
(itrajectory_representation.operator
Operator
p645
(dp646
g8
I01
sg9
(dp647
g458
Vsquare_packing_box2
p648
ssg17
g460
sg19
(dp649
g462
(lp650
g22
(g23
(I0
tp651
g25
tp652
Rp653
(I1
(I3
tp654
g139
I00
S':\xd8\xf7\xd0\x1d\x01\xbb?p\x1aC&n\x80\x17\xc0n\xc8?\xc4\xb9\x1f\xfe\xbf'
p655
tp656
bag22
(g23
(I0
tp657
g25
tp658
Rp659
(I1
(I3
tp660
g139
I00
S'\x8c\xd4"m\xf9\xe0\xcd\xbf\xdf\xe8\x1b\xe20%\x1d\xc0J\x04\x9cQ\x8a\x05\xf5?'
p661
tp662
bag22
(g23
(I0
tp663
g25
tp664
Rp665
(I1
(I3
tp666
g139
I00
S"5$\xcc\xd5\xaa\xbb\xea?x\xc73\xfa\x14g\x1a\xc0>kI \x08'\n\xc0"
p667
tp668
basg482
I00
ssg47
(lp669
g22
(g23
(I0
tp670
g25
tp671
Rp672
(I1
(I3
tp673
g139
I00
S'Vo]\xb8\x9b\xbd\x00@a--\xb3b\xf9\x15\xc0\xa4\xf5\x97\xcb~w\x01@'
p674
tp675
bag22
(g23
(I0
tp676
g25
tp677
Rp678
(I1
(I3
tp679
g150
I00
S'\x85\\2\xba\x0b5\xf5?I\r\x06\xd10\xfb\x15\xc0\x9e\x11\xee\xd8\xb9\xd7\xf5?'
p680
tp681
bag22
(g23
(I0
tp682
g25
tp683
Rp684
(I1
(I3
tp685
g150
I00
S'\xf8C*\xbe\x14\xcf\xe8?\x81d\xab\xeb\xa8<\x18\xc0\xc8\\\xf4\x8c\xc3\xfa\xfe\xbf'
p686
tp687
bag665
asbsg417
(itrajectory_representation.operator
Operator
p688
(dp689
g8
I01
sg9
(dp690
g458
Vsquare_packing_box3
p691
ssg17
g460
sg19
(dp692
g462
(lp693
g22
(g23
(I0
tp694
g25
tp695
Rp696
(I1
(I3
tp697
g139
I00
S'\xf5B\x19\x8e\xdd\xc6\xf7?\xaf\xd2t\xbd\xd3\xbe\x17\xc0\x9e\xac\xaei\xdd\n\xfc\xbf'
p698
tp699
bag22
(g23
(I0
tp700
g25
tp701
Rp702
(I1
(I3
tp703
g139
I00
S'\xdd\xc7,\x99\x9b\xd2\xe7?\xf4\x84,\xc0\x04\x1e\x1b\xc0\xb2\x85\xeap:\x91\xc9\xbf'
p704
tp705
bag22
(g23
(I0
tp706
g25
tp707
Rp708
(I1
(I3
tp709
g139
I00
S']\xab\x15&o\xe8\xfe?\xcd\xfbH\x8fW5\x1d\xc0_|\x83\xc3V\xe3\xfe?'
p710
tp711
basg482
I00
ssg47
(lp712
g22
(g23
(I0
tp713
g25
tp714
Rp715
(I1
(I3
tp716
g139
I00
S'Vo]\xb8\x9b\xbd\x00@a--\xb3b\xf9\x15\xc0\xa4\xf5\x97\xcb~w\x01@'
p717
tp718
bag22
(g23
(I0
tp719
g25
tp720
Rp721
(I1
(I3
tp722
g150
I00
S'\xf0\xc9\xfbt\r)\x06@W\xcf\xbd\x98LA\x17\xc0\x12{h\xe4\xea2\xf8?'
p723
tp724
bag22
(g23
(I0
tp725
g25
tp726
Rp727
(I1
(I3
tp728
g150
I00
S'\x80e\xcc\t\x9a\xde\x04@<\x13[@\x0e\xa9\x19\xc0\xca\xb9\x9c\x08\r\xad\xf4?'
p729
tp730
bag22
(g23
(I0
tp731
g25
tp732
Rp733
(I1
(I3
tp734
g150
I00
S'\xe8[\xb2\xaa\xa5@\x04@(j\r1!I\x1b\xc0Xj\x8bx\xc9`\xfc?'
p735
tp736
bag708
asbsg12
(itrajectory_representation.operator
Operator
p737
(dp738
g8
I01
sg9
(dp739
g11
g12
ssg17
S'two_arm_pick'
p740
sg19
(dp741
g21
g22
(g23
(I0
tp742
g25
tp743
Rp744
(I1
(I3
tp745
g32
I00
S'\xe0s\x82c\\\x86\xe8?\x18\xbc\xe6\xd1\x91T\x14\xc0)M\xea\xd2\xc5\xa7\xf8\xbf'
p746
tp747
bssg47
(lp748
g22
(g23
(I0
tp749
g25
tp750
Rp751
(I1
(I3
tp752
g139
I00
S'Vo]\xb8\x9b\xbd\x00@a--\xb3b\xf9\x15\xc0\xa4\xf5\x97\xcb~w\x01@'
p753
tp754
bag22
(g23
(I0
tp755
g25
tp756
Rp757
(I1
(I3
tp758
g150
I00
S'\x85\\2\xba\x0b5\xf5?I\r\x06\xd10\xfb\x15\xc0\x9e\x11\xee\xd8\xb9\xd7\xf5?'
p759
tp760
bag22
(g23
(I0
tp761
g25
tp762
Rp763
(I1
(I3
tp764
g150
I00
S'l[\xc4\x16<\xe6\xe9?\xa6\xa0\x90\x84X\x9f\x13\xc0\xc2\xd74Q\x00\xaf\xff\xbf'
p765
tp766
bag744
asbsVsquare_packing_box4
p767
(itrajectory_representation.operator
Operator
p768
(dp769
g8
I01
sg9
(dp770
g458
Vsquare_packing_box4
p771
ssg17
g460
sg19
(dp772
g462
(lp773
g22
(g23
(I0
tp774
g25
tp775
Rp776
(I1
(I3
tp777
g139
I00
S"'\t\x95\xee`.\xe2?RJ\x94*b?\x1f\xc0\xf1\xe1\x17\xf57\x94\n\xc0"
p778
tp779
bag22
(g23
(I0
tp780
g25
tp781
Rp782
(I1
(I3
tp783
g139
I00
S'"\xf3p\xfb\xcaX\xcc?G\xf0\xb7-6y\x1c\xc0\xbc|Q\xb77\xad\xfc\xbf'
p784
tp785
bag22
(g23
(I0
tp786
g25
tp787
Rp788
(I1
(I3
tp789
g139
I00
S'l^\x8e\xb9\xd7\x9d\xc4?L|R\\\xc7\\\x1c\xc0,\xc11\xeb\xdf\xb1\xfc\xbf'
p790
tp791
basg482
I00
ssg47
(lp792
g22
(g23
(I0
tp793
g25
tp794
Rp795
(I1
(I3
tp796
g139
I00
S'Vo]\xb8\x9b\xbd\x00@a--\xb3b\xf9\x15\xc0\xa4\xf5\x97\xcb~w\x01@'
p797
tp798
bag22
(g23
(I0
tp799
g25
tp800
Rp801
(I1
(I3
tp802
g150
I00
S'\x84\xa2s4\xa1\xd0\xf6?E=|\xb9\xcam\x17\xc0\xa93^V\xfc\xed\x05@'
p803
tp804
bag22
(g23
(I0
tp805
g25
tp806
Rp807
(I1
(I3
tp808
g150
I00
S'\xae\xea\x9e\xa3\xa2\xb1\xed?\xa4\xca\x1d?h\x96\x19\xc0dq\xdf\xb1\x9d\xe4\x05@'
p809
tp810
bag22
(g23
(I0
tp811
g25
tp812
Rp813
(I1
(I3
tp814
g150
I00
S'\xf8\xfc\x1a\xd0\xc9l\xe8?\x8a\x897\x8e~\x98\x1a\xc0\xaf\xf7\xb87\xc6\xa7\x01\xc0'
p815
tp816
bag782
asbssS'mc_paths'
p817
(dp818
sS'robot'
p819
NsS'reachable_obj_region_pairs'
p820
(lp821
sS'sampled_pick_configs_for_objects'
p822
(dp823
sS'mc_calls'
p824
I0
sS'pick_poses'
p825
g454
sS'problem_env'
p826
NsS'evaluations'
p827
(dp828
(g254
Vrectangular_packing_box2
p829
g130
tp830
I00
s(g305
g829
g130
tp831
I00
s(g350
g197
g130
tp832
I00
s(g350
Vsquare_packing_box1
p833
g130
tp834
I01
s(g197
g305
g130
tp835
I01
s(g350
g829
g130
tp836
I01
s(g305
g833
g130
tp837
I01
s(g254
g833
g130
tp838
I01
s(g254
Vrectangular_packing_box4
p839
g130
tp840
I00
s(g305
g129
g130
tp841
I00
s(g197
g350
g130
tp842
I00
s(g129
g833
g130
tp843
I01
s(g197
g254
g130
tp844
I01
s(g129
g839
g130
tp845
I00
s(g129
g350
g130
tp846
I01
s(g129
g254
g130
tp847
I00
s(g350
g254
g130
tp848
I00
s(g197
g829
g130
tp849
I00
s(g254
g197
g130
tp850
I00
s(g305
g254
g130
tp851
I00
s(g197
g839
g130
tp852
I00
s(g129
g197
g130
tp853
I00
s(g305
g839
g130
tp854
I00
s(g350
g305
g130
tp855
I00
s(g305
g197
g130
tp856
I00
s(g197
g129
g130
tp857
I00
s(g305
g350
g130
tp858
I00
s(g254
g350
g130
tp859
I00
s(g254
g129
g130
tp860
I00
s(g129
g829
g130
tp861
I01
s(g197
g833
g130
tp862
I01
s(g350
g129
g130
tp863
I00
s(g129
g305
g130
tp864
I00
s(g350
g839
g130
tp865
I00
s(g254
g305
g130
tp866
I01
ssS'paths_to_reachable_entities'
p867
NsS'use_shortest_path'
p868
I01
sbsS'ternary_edges'
p869
(dp870
(g829
g829
g130
tp871
(lp872
I00
as(g833
S'loading_region'
p873
g873
tp874
(lp875
I00
as(S'entire_region'
p876
g254
g130
tp877
(lp878
I00
as(g305
g197
g873
tp879
(lp880
I00
as(g130
g130
g130
tp881
(lp882
I00
as(g197
g829
g873
tp883
(lp884
I00
as(g833
g129
g130
tp885
(lp886
I00
as(g130
g839
g130
tp887
(lp888
I00
as(g305
g833
g130
tp889
(lp890
I01
as(g129
g839
g873
tp891
(lp892
I00
as(g130
g197
g873
tp893
(lp894
I00
as(g305
g876
g130
tp895
(lp896
I00
as(g873
g130
g873
tp897
(lp898
I00
as(g839
g350
g130
tp899
(lp900
I00
as(g197
g876
g130
tp901
(lp902
I00
as(g305
g254
g873
tp903
(lp904
I00
as(g350
g873
g130
tp905
(lp906
I00
as(g876
g829
g873
tp907
(lp908
I00
as(g130
g876
g130
tp909
(lp910
I00
as(g829
g873
g130
tp911
(lp912
I00
as(g350
g876
g130
tp913
(lp914
I00
as(g833
g833
g873
tp915
(lp916
I00
as(g873
g197
g873
tp917
(lp918
I00
as(g876
g873
g130
tp919
(lp920
I00
as(g876
g305
g130
tp921
(lp922
I00
as(g873
g873
g130
tp923
(lp924
I00
as(g350
g839
g873
tp925
(lp926
I00
as(g130
g130
g873
tp927
(lp928
I00
as(g254
g305
g873
tp929
(lp930
I00
as(g829
g197
g130
tp931
(lp932
I00
as(g350
g833
g130
tp933
(lp934
I01
as(g254
g130
g873
tp935
(lp936
I00
as(g130
g829
g873
tp937
(lp938
I00
as(g254
g129
g873
tp939
(lp940
I00
as(g129
g254
g130
tp941
(lp942
I00
as(g873
g833
g873
tp943
(lp944
I00
as(g197
g305
g873
tp945
(lp946
I00
as(g829
g829
g873
tp947
(lp948
I00
as(g876
g197
g130
tp949
(lp950
I00
as(g873
g130
g130
tp951
(lp952
I00
as(g839
g829
g130
tp953
(lp954
I00
as(g130
g129
g130
tp955
(lp956
I00
as(g305
g254
g130
tp957
(lp958
I00
as(g129
g197
g130
tp959
(lp960
I00
as(g833
g129
g873
tp961
(lp962
I00
as(g350
g305
g130
tp963
(lp964
I00
as(g305
g833
g873
tp965
(lp966
I00
as(g305
g829
g873
tp967
(lp968
I00
as(g876
g305
g873
tp969
(lp970
I00
as(g873
g129
g873
tp971
(lp972
I00
as(g876
g130
g130
tp973
(lp974
I00
as(g839
g130
g130
tp975
(lp976
I00
as(g873
g876
g130
tp977
(lp978
I00
as(g829
g197
g873
tp979
(lp980
I00
as(g350
g829
g873
tp981
(lp982
I00
as(g350
g350
g130
tp983
(lp984
I00
as(g254
g129
g130
tp985
(lp986
I00
as(g876
g829
g130
tp987
(lp988
I00
as(g254
g873
g873
tp989
(lp990
I00
as(g197
g833
g130
tp991
(lp992
I01
as(g833
g833
g130
tp993
(lp994
I00
as(g833
g839
g130
tp995
(lp996
I00
as(g839
g829
g873
tp997
(lp998
I00
as(g197
g254
g873
tp999
(lp1000
I00
as(g350
g839
g130
tp1001
(lp1002
I00
as(g254
g305
g130
tp1003
(lp1004
I01
as(g829
g254
g873
tp1005
(lp1006
I00
as(g254
g130
g130
tp1007
(lp1008
I00
as(g305
g829
g130
tp1009
(lp1010
I00
as(g829
g350
g130
tp1011
(lp1012
I00
as(g129
g254
g873
tp1013
(lp1014
I00
as(g130
g305
g873
tp1015
(lp1016
I00
as(g876
g130
g873
tp1017
(lp1018
I00
as(g876
g197
g873
tp1019
(lp1020
I00
as(g350
g829
g130
tp1021
(lp1022
I01
as(g129
g350
g873
tp1023
(lp1024
I00
as(g829
g876
g873
tp1025
(lp1026
I00
as(g254
g873
g130
tp1027
(lp1028
I00
as(g350
g305
g873
tp1029
(lp1030
I00
as(g350
g254
g873
tp1031
(lp1032
I00
as(g197
g833
g873
tp1033
(lp1034
I00
as(g130
g129
g873
tp1035
(lp1036
I00
as(g876
g350
g873
tp1037
(lp1038
I00
as(g873
g129
g130
tp1039
(lp1040
I00
as(g873
g305
g873
tp1041
(lp1042
I00
as(g829
g254
g130
tp1043
(lp1044
I00
as(g197
g254
g130
tp1045
(lp1046
I01
as(g873
g350
g130
tp1047
(lp1048
I00
as(g829
g350
g873
tp1049
(lp1050
I00
as(g829
g839
g873
tp1051
(lp1052
I00
as(g129
g197
g873
tp1053
(lp1054
I00
as(g833
g839
g873
tp1055
(lp1056
I00
as(g254
g350
g873
tp1057
(lp1058
I00
as(g130
g833
g873
tp1059
(lp1060
I00
as(g129
g873
g873
tp1061
(lp1062
I00
as(g839
g130
g873
tp1063
(lp1064
I00
as(g833
g254
g130
tp1065
(lp1066
I00
as(g829
g876
g130
tp1067
(lp1068
I00
as(g839
g305
g873
tp1069
(lp1070
I00
as(g129
g829
g873
tp1071
(lp1072
I00
as(g350
g254
g130
tp1073
(lp1074
I00
as(g197
g873
g873
tp1075
(lp1076
I00
as(g305
g130
g130
tp1077
(lp1078
I00
as(g197
g839
g130
tp1079
(lp1080
I00
as(g130
g350
g873
tp1081
(lp1082
I00
as(g873
g254
g873
tp1083
(lp1084
I00
as(g873
g350
g873
tp1085
(lp1086
I00
as(g833
g350
g130
tp1087
(lp1088
I00
as(g254
g350
g130
tp1089
(lp1090
I00
as(g833
g254
g873
tp1091
(lp1092
I00
as(g129
g829
g130
tp1093
(lp1094
I01
as(g829
g305
g130
tp1095
(lp1096
I00
as(g129
g130
g873
tp1097
(lp1098
I00
as(g197
g873
g130
tp1099
(lp1100
I00
as(g873
g839
g873
tp1101
(lp1102
I00
as(g829
g839
g130
tp1103
(lp1104
I00
as(g129
g129
g130
tp1105
(lp1106
I00
as(g839
g839
g130
tp1107
(lp1108
I00
as(g839
g129
g873
tp1109
(lp1110
I00
as(g129
g873
g130
tp1111
(lp1112
I00
as(g350
g197
g130
tp1113
(lp1114
I00
as(g839
g305
g130
tp1115
(lp1116
I00
as(g305
g873
g873
tp1117
(lp1118
I00
as(g129
g876
g873
tp1119
(lp1120
I00
as(g305
g130
g873
tp1121
(lp1122
I00
as(g833
g305
g873
tp1123
(lp1124
I00
as(g197
g839
g873
tp1125
(lp1126
I00
as(g350
g130
g873
tp1127
(lp1128
I00
as(g129
g130
g130
tp1129
(lp1130
I00
as(g873
g839
g130
tp1131
(lp1132
I00
as(g254
g254
g130
tp1133
(lp1134
I00
as(g873
g197
g130
tp1135
(lp1136
I00
as(g197
g350
g130
tp1137
(lp1138
I00
as(g833
g829
g130
tp1139
(lp1140
I00
as(g833
g350
g873
tp1141
(lp1142
I00
as(g839
g833
g873
tp1143
(lp1144
I00
as(g130
g305
g130
tp1145
(lp1146
I00
as(g876
g129
g873
tp1147
(lp1148
I00
as(g129
g833
g130
tp1149
(lp1150
I01
as(g254
g876
g130
tp1151
(lp1152
I00
as(g350
g197
g873
tp1153
(lp1154
I00
as(g350
g129
g873
tp1155
(lp1156
I00
as(g839
g254
g130
tp1157
(lp1158
I00
as(g829
g305
g873
tp1159
(lp1160
I00
as(g839
g873
g130
tp1161
(lp1162
I00
as(g129
g876
g130
tp1163
(lp1164
I00
as(g197
g129
g873
tp1165
(lp1166
I00
as(g829
g833
g130
tp1167
(lp1168
I00
as(g350
g833
g873
tp1169
(lp1170
I00
as(g197
g197
g873
tp1171
(lp1172
I00
as(g839
g839
g873
tp1173
(lp1174
I00
as(g254
g254
g873
tp1175
(lp1176
I00
as(g833
g197
g873
tp1177
(lp1178
I00
as(g197
g305
g130
tp1179
(lp1180
I01
as(g876
g833
g130
tp1181
(lp1182
I00
as(g130
g876
g873
tp1183
(lp1184
I00
as(g130
g254
g873
tp1185
(lp1186
I00
as(g305
g873
g130
tp1187
(lp1188
I00
as(g833
g829
g873
tp1189
(lp1190
I00
as(g254
g833
g873
tp1191
(lp1192
I00
as(g129
g129
g873
tp1193
(lp1194
I00
as(g876
g129
g130
tp1195
(lp1196
I00
as(g305
g129
g873
tp1197
(lp1198
I00
as(g254
g876
g873
tp1199
(lp1200
I00
as(g833
g305
g130
tp1201
(lp1202
I00
as(g839
g254
g873
tp1203
(lp1204
I00
as(g839
g129
g130
tp1205
(lp1206
I00
as(g197
g129
g130
tp1207
(lp1208
I00
as(g833
g130
g873
tp1209
(lp1210
I00
as(g305
g350
g130
tp1211
(lp1212
I00
as(g350
g350
g873
tp1213
(lp1214
I00
as(g839
g876
g130
tp1215
(lp1216
I00
as(g873
g876
g873
tp1217
(lp1218
I00
as(g197
g350
g873
tp1219
(lp1220
I00
as(g873
g254
g130
tp1221
(lp1222
I00
as(g876
g876
g873
tp1223
(lp1224
I00
as(g839
g833
g130
tp1225
(lp1226
I00
as(g833
g197
g130
tp1227
(lp1228
I00
as(g873
g829
g873
tp1229
(lp1230
I00
as(g129
g833
g873
tp1231
(lp1232
I00
as(g350
g130
g130
tp1233
(lp1234
I00
as(g876
g833
g873
tp1235
(lp1236
I00
as(g350
g129
g130
tp1237
(lp1238
I00
as(g129
g305
g130
tp1239
(lp1240
I00
as(g839
g873
g873
tp1241
(lp1242
I00
as(g829
g833
g873
tp1243
(lp1244
I00
as(g254
g829
g130
tp1245
(lp1246
I00
as(g876
g873
g873
tp1247
(lp1248
I00
as(g873
g829
g130
tp1249
(lp1250
I00
as(g833
g876
g130
tp1251
(lp1252
I00
as(g305
g350
g873
tp1253
(lp1254
I00
as(g305
g839
g873
tp1255
(lp1256
I00
as(g197
g130
g130
tp1257
(lp1258
I00
as(g839
g876
g873
tp1259
(lp1260
I00
as(g839
g197
g130
tp1261
(lp1262
I00
as(g876
g839
g873
tp1263
(lp1264
I00
as(g130
g254
g130
tp1265
(lp1266
I00
as(g130
g350
g130
tp1267
(lp1268
I00
as(g254
g833
g130
tp1269
(lp1270
I01
as(g254
g839
g130
tp1271
(lp1272
I00
as(g876
g350
g130
tp1273
(lp1274
I00
as(g305
g129
g130
tp1275
(lp1276
I00
as(g305
g305
g873
tp1277
(lp1278
I00
as(g254
g197
g873
tp1279
(lp1280
I00
as(g197
g130
g873
tp1281
(lp1282
I00
as(g829
g130
g130
tp1283
(lp1284
I00
as(g833
g130
g130
tp1285
(lp1286
I00
as(g254
g829
g873
tp1287
(lp1288
I00
as(g197
g829
g130
tp1289
(lp1290
I00
as(g130
g873
g130
tp1291
(lp1292
I00
as(g876
g876
g130
tp1293
(lp1294
I00
as(g829
g129
g873
tp1295
(lp1296
I00
as(g833
g876
g873
tp1297
(lp1298
I00
as(g873
g305
g130
tp1299
(lp1300
I00
as(g129
g839
g130
tp1301
(lp1302
I00
as(g876
g839
g130
tp1303
(lp1304
I00
as(g833
g873
g130
tp1305
(lp1306
I00
as(g129
g305
g873
tp1307
(lp1308
I00
as(g130
g833
g130
tp1309
(lp1310
I00
as(g876
g254
g873
tp1311
(lp1312
I00
as(g197
g876
g873
tp1313
(lp1314
I00
as(g305
g305
g130
tp1315
(lp1316
I00
as(g254
g197
g130
tp1317
(lp1318
I00
as(g350
g876
g873
tp1319
(lp1320
I00
as(g305
g839
g130
tp1321
(lp1322
I00
as(g130
g197
g130
tp1323
(lp1324
I00
as(g129
g350
g130
tp1325
(lp1326
I01
as(g839
g197
g873
tp1327
(lp1328
I00
as(g197
g197
g130
tp1329
(lp1330
I00
as(g254
g839
g873
tp1331
(lp1332
I00
as(g305
g197
g130
tp1333
(lp1334
I00
as(g350
g873
g873
tp1335
(lp1336
I00
as(g130
g829
g130
tp1337
(lp1338
I00
as(g829
g873
g873
tp1339
(lp1340
I00
as(g130
g839
g873
tp1341
(lp1342
I00
as(g829
g130
g873
tp1343
(lp1344
I00
as(g873
g873
g873
tp1345
(lp1346
I00
as(g305
g876
g873
tp1347
(lp1348
I00
as(g839
g350
g873
tp1349
(lp1350
I00
as(g130
g873
g873
tp1351
(lp1352
I00
as(g829
g129
g130
tp1353
(lp1354
I00
as(g873
g833
g130
tp1355
(lp1356
I00
assg453
g454
sS'use_prm'
p1357
I01
sS'object_names'
p1358
(lp1359
S'square_packing_box1'
p1360
aS'rectangular_packing_box1'
p1361
aS'square_packing_box2'
p1362
aS'rectangular_packing_box2'
p1363
aS'square_packing_box3'
p1364
aS'rectangular_packing_box3'
p1365
aS'square_packing_box4'
p1366
aS'rectangular_packing_box4'
p1367
asg826
NsS'current_holding_collides'
p1368
NsS'object_poses'
p1369
(dp1370
Vrectangular_packing_box4
p1371
g22
(g23
(I0
tp1372
g25
tp1373
Rp1374
(I1
(I1
I3
tp1375
g139
I00
S'\x125\xfe\x9b\xd10\x0e@\r\xc0\xee\x1d\xce\xb9\x1b\xc0<\x0f\x7f\xdfE\xb7\x11@'
p1376
tp1377
bsVrectangular_packing_box2
p1378
g22
(g23
(I0
tp1379
g25
tp1380
Rp1381
(I1
(I1
I3
tp1382
g139
I00
S'\xf3\x89\xe0\xb7\x12v\xfb?]=z\x95\xee\x8c\x18\xc0\x87^/\x11\x0b\xb2\xe2?'
p1383
tp1384
bsVrectangular_packing_box3
p1385
g22
(g23
(I0
tp1386
g25
tp1387
Rp1388
(I1
(I1
I3
tp1389
g139
I00
S'k\xebw3\x0e\xad\x01@Bs\xf5\xd6\xff\xd1\x1f\xc0\x7f\x8dz\x16\xd9\xf7\x05@'
p1390
tp1391
bsVrectangular_packing_box1
p1392
g22
(g23
(I0
tp1393
g25
tp1394
Rp1395
(I1
(I1
I3
tp1396
g139
I00
S'\xbcB\xbd|\x13\x94\xeb?\xa1\x8c\xb0$\x0cE \xc0<8\x05s\x8b\x00\xe2?'
p1397
tp1398
bsVsquare_packing_box2
p1399
g22
(g23
(I0
tp1400
g25
tp1401
Rp1402
(I1
(I1
I3
tp1403
g139
I00
S'J\xd5X=$>\xa1?5\n\xf3\xe1hv\x1a\xc0\xcf\xbf\x08\x90W\x9b\x12@'
p1404
tp1405
bsVsquare_packing_box3
p1406
g22
(g23
(I0
tp1407
g25
tp1408
Rp1409
(I1
(I1
I3
tp1410
g139
I00
S'"\x821)\xa2\x8e\xf9?\xc0\x97\xed\x1b\xb2\xfe\x1a\xc0\xaf\xa8i\xb6o\xe2\n@'
p1411
tp1412
bsVsquare_packing_box1
p1413
g22
(g23
(I0
tp1414
g25
tp1415
Rp1416
(I1
(I1
I3
tp1417
g139
I00
S'p~`N\xc0\x08\xe1?\xde\xd0K\x80\x08\xfc\x16\xc0\xbc\x08/N\r\xc0\x06@'
p1418
tp1419
bsVsquare_packing_box4
p1420
g22
(g23
(I0
tp1421
g25
tp1422
Rp1423
(I1
(I1
I3
tp1424
g139
I00
S'x\n\x1fUB\x15\xc2\xbf\xd5\x88\x00\x80wU\x1f\xc0Y\xe3\x19\x93\xa3\x99\x17@'
p1425
tp1426
bssS'reachable_regions_while_holding'
p1427
(lp1428
(g414
g873
tp1429
a(g415
g873
tp1430
a(g416
g873
tp1431
a(g588
g873
tp1432
a(g644
g873
tp1433
a(g417
g873
tp1434
a(g12
g873
tp1435
a(g767
g873
tp1436
a(g414
g130
tp1437
a(g415
g130
tp1438
a(g12
g130
tp1439
asS'in_region'
p1440
(itrajectory_representation.predicates.in_region
InRegion
p1441
(dp1442
g826
NsbsS'cached_pick_paths'
p1443
(dp1444
g414
g483
sg415
g526
sg416
g569
sg588
g619
sg644
g669
sg417
g712
sg12
g748
sg767
g792
ssg418
(dp1445
(Vrectangular_packing_box3
p1446
(cnumpy.core.multiarray
scalar
p1447
(g139
S'\x93\x18\x04V\x0e\xad\x01@'
p1448
tp1449
Rp1450
g1447
(g139
S'0\x84\x9c\xf7\xff\xd1\x1f\xc0'
p1451
tp1452
Rp1453
g1447
(g139
S'\x9dKqU\xd9\xf7\x05@'
p1454
tp1455
Rp1456
tp1457
tp1458
g432
s(Vsquare_packing_box4
p1459
(g1447
(g139
S'\x9c6\xe34D\x15\xc2\xbf'
p1460
tp1461
Rp1462
g1447
(g139
S'\xc9\x929\x96wU\x1f\xc0'
p1463
tp1464
Rp1465
g1447
(g139
S'\x06\xa1\xbc\x8f\xa3\x99\x17@'
p1466
tp1467
Rp1468
tp1469
tp1470
g452
s(Vrectangular_packing_box1
p1471
(g1447
(g139
S'\xba\xf5\x9a\x1e\x14\x94\xeb?'
p1472
tp1473
Rp1474
g1447
(g139
S';5\x97\x1b\x0cE \xc0'
p1475
tp1476
Rp1477
g1447
(g139
S'\xdd\xedzi\x8a\x00\xe2?'
p1478
tp1479
Rp1480
tp1481
tp1482
g436
s(Vrectangular_packing_box2
p1483
(g1447
(g139
S'Vdt@\x12v\xfb?'
p1484
tp1485
Rp1486
g1447
(g139
S'\xbb\xec\xd7\x9d\xee\x8c\x18\xc0'
p1487
tp1488
Rp1489
g1447
(g139
S'\xad\xc2f\x80\x0b\xb2\xe2?'
p1490
tp1491
Rp1492
tp1493
tp1494
g428
s(Vrectangular_packing_box4
p1495
(g1447
(g139
S'_z\xfbs\xd10\x0e@'
p1496
tp1497
Rp1498
g1447
(g139
S'\xd2o_\x07\xce\xb9\x1b\xc0'
p1499
tp1500
Rp1501
g1447
(g139
S'\xdc\xf1&\xbfE\xb7\x11@'
p1502
tp1503
Rp1504
tp1505
tp1506
g424
s(Vsquare_packing_box1
p1507
(g1447
(g139
S'\xdfN"\xc2\xbf\x08\xe1?'
p1508
tp1509
Rp1510
g1447
(g139
S'\xfc\xc7Bt\x08\xfc\x16\xc0'
p1511
tp1512
Rp1513
g1447
(g139
S'\x8euq\x1b\r\xc0\x06@'
p1514
tp1515
Rp1516
tp1517
tp1518
g448
s(Vsquare_packing_box2
p1519
(g1447
(g139
S'\x869A\x9b\x1c>\xa1?'
p1520
tp1521
Rp1522
g1447
(g139
S'\x009a\xc2hv\x1a\xc0'
p1523
tp1524
Rp1525
g1447
(g139
S'\xfd\x14\xc7\x81W\x9b\x12@'
p1526
tp1527
Rp1528
tp1529
tp1530
g440
s(Vsquare_packing_box3
p1531
(g1447
(g139
S'\xb3`\xe2\x8f\xa2\x8e\xf9?'
p1532
tp1533
Rp1534
g1447
(g139
S'\xda\xa8N\x07\xb2\xfe\x1a\xc0'
p1535
tp1536
Rp1537
g1447
(g139
S'm\xa8\x18\xe7o\xe2\n@'
p1538
tp1539
Rp1540
tp1541
tp1542
g444
ssS'state_saver'
p1543
(igtamp_utils.utils
CustomStateSaver
p1544
(dp1545
S'robot_base_pose'
p1546
g22
(g23
(I0
tp1547
g25
tp1548
Rp1549
(I1
(I1
I3
tp1550
g139
I00
S'Vo]\xb8\x9b\xbd\x00@a--\xb3b\xf9\x15\xc0\xa4\xf5\x97\xcb~w\x01@'
p1551
tp1552
bsS'held_object'
p1553
NsS'robot_name'
p1554
S'pr2'
p1555
sS'env_id'
p1556
I1
sg1369
(dp1557
Vright_wall_1
p1558
g22
(g23
(I0
tp1559
g25
tp1560
Rp1561
(I1
(I4
tp1562
g139
I00
S'H\xe1z\x14\xaeG\x12@&\\\x8f\xc2\xf5(\xd4\xbf\xcc\x7fH\xbf}\x1d\xed?\x00\x00\x00\x00\x00\x00\x00\x00'
p1563
tp1564
bsVc_obst5
p1565
g22
(g23
(I0
tp1566
g25
tp1567
Rp1568
(I1
(I4
tp1569
g139
I00
S"\xf3\xe92\x9bN\xfa\x11@\x90\xde(G\xa5\xe2\xad\xbfe\xaa`TR'\xed?u\xfa\xf2\x1b[\xf1\x00@"
p1570
tp1571
bsVentrance_right
p1572
g22
(g23
(I0
tp1573
g25
tp1574
Rp1575
(I1
(I4
tp1576
g139
I00
S'ffffff\n@H\xe1z\x14\xaeG\t\xc0\x9c\xc4 \xb0rh\xc1?\x00\x00\x00\x00\x00\x00\x00\x00'
p1577
tp1578
bsVcomputer_table
p1579
g22
(g23
(I0
tp1580
g25
tp1581
Rp1582
(I1
(I4
tp1583
g139
I00
S'\x00\x00\x00\x00\x00\x00\x13@\x00\x00\x00\x00\x00\x00\xf8\xbf\x96C\x8bl\xe7\xfb\xe7?\xd2!3\x7f|\xd9\x12@'
p1584
tp1585
bsVchair_6b56
p1586
g22
(g23
(I0
tp1587
g25
tp1588
Rp1589
(I1
(I4
tp1590
g139
I00
S'u=\n\xd7\xa3p\xf5?K\xe1z\x14\xaeG\xd1?\x00\x00\x00\x00\x00\x00\x00\x00\xd6$\xfaNBm\n@'
p1591
tp1592
bsVsquare_packing_box3
p1593
g22
(g23
(I0
tp1594
g25
tp1595
Rp1596
(I1
(I4
tp1597
g139
I00
S'"\x821)\xa2\x8e\xf9?\xc0\x97\xed\x1b\xb2\xfe\x1a\xc0L7\x89A`\xe5\xd8?\xaf\xa8i\xb6o\xe2\n@'
p1598
tp1599
bsVsquare_packing_box2
p1600
g22
(g23
(I0
tp1601
g25
tp1602
Rp1603
(I1
(I4
tp1604
g139
I00
S'\xda\xd2X=$>\xa1?/\n\xf3\xe1hv\x1a\xc0L7\x89A`\xe5\xd8?\xcf\xbf\x08\x90W\x9b\x12@'
p1605
tp1606
bsVtable
p1607
g22
(g23
(I0
tp1608
g25
tp1609
Rp1610
(I1
(I4
tp1611
g139
I00
S'\x7f\xf6#EdX\xed?\xac\xffs\x98//\xc0\xbf\x00\x00\x00\x00\x00\x00\x00\x00\x00\x00\x00\x00\x00\x00\x00\x00'
p1612
tp1613
bsVsquare_packing_box1
p1614
g22
(g23
(I0
tp1615
g25
tp1616
Rp1617
(I1
(I4
tp1618
g139
I00
S'h~`N\xc0\x08\xe1?\xde\xd0K\x80\x08\xfc\x16\xc0L7\x89A`\xe5\xd8?\xbc\x08/N\r\xc0\x06@'
p1619
tp1620
bsVback_wall_2
p1621
g22
(g23
(I0
tp1622
g25
tp1623
Rp1624
(I1
(I4
tp1625
g139
I00
S'\xaeG\xe1z\x14.\x13@\x80\x14\xaeG\xe1z\xc4?xX\xa85\xcd\xbb\xf2?\x00\x00\x00\x00\x00\x00\x00\x00'
p1626
tp1627
bsVchair_083c
p1628
g22
(g23
(I0
tp1629
g25
tp1630
Rp1631
(I1
(I4
tp1632
g139
I00
S'\xa4p=\n\xd7\xa3\xe0?333333\xe3\xbf\x00\x00\x00\x00\x00\x00\x00\x00\x00\x00\x00\x00\x00\x00\x00\x00'
p1633
tp1634
bsVback_wall_1
p1635
g22
(g23
(I0
tp1636
g25
tp1637
Rp1638
(I1
(I4
tp1639
g139
I00
S'\xaeG\xe1z\x14.\x13@\x80\x14\xaeG\xe1z\xc4?\xcc\x7fH\xbf}\x1d\xed?\x00\x00\x00\x00\x00\x00\x00\x00'
p1640
tp1641
bsVbottom_wall
p1642
g22
(g23
(I0
tp1643
g25
tp1644
Rp1645
(I1
(I4
tp1646
g139
I00
S'\x00\x00\x00\x00\x00\x00\xfc?\x00\x00\x00\x00\x00\x00\x00\x00\x00\x00\x00\x00\x00\x00\x00\x00\x00\x00\x00\x00\x00\x00\x00\x00'
p1647
tp1648
bsVcup_905a
p1649
g22
(g23
(I0
tp1650
g25
tp1651
Rp1652
(I1
(I4
tp1653
g139
I00
S'\x00\x00\x00\x00\x00\x00\xf0?\x83\xc0\xca\xa1E\xb6\xdb?\x1b/\xdd$\x06\x81\xed?\x00\x00\x00\x00\x00\x00\x00\x00'
p1654
tp1655
bsVplate_496f
p1656
g22
(g23
(I0
tp1657
g25
tp1658
Rp1659
(I1
(I4
tp1660
g139
I00
S"q=\n\xd7\xa3p\xe5?\x9dhW!\xe5'\xdd\xbf\x1b/\xdd$\x06\x81\xed?\x00\x00\x00\x00\x00\x00\x00\x00"
p1661
tp1662
bsVtoaster
p1663
g22
(g23
(I0
tp1664
g25
tp1665
Rp1666
(I1
(I4
tp1667
g139
I00
S')\\\x8f\xc2\xf5(\xf4\xbf\xe0z\x14\xaeG\xe1\xf2\xbf\xb8\x1e\x85\xebQ\xb8\xee?\x89/`\x9b\xf8\x8a\xe4?'
p1668
tp1669
bsVc_obst1
p1670
g22
(g23
(I0
tp1671
g25
tp1672
Rp1673
(I1
(I4
tp1674
g139
I00
S"\xceW\x0f\x005\x17\x12@\x0e\xea\x01\xcc\xa4~\xd5?e\xaa`TR'\xed?w\xf3\xc7\xd4fA\xfb?"
p1675
tp1676
bsVrectangular_packing_box4
p1677
g22
(g23
(I0
tp1678
g25
tp1679
Rp1680
(I1
(I4
tp1681
g139
I00
S'\x195\xfe\x9b\xd10\x0e@\x12\xc0\xee\x1d\xce\xb9\x1b\xc0L7\x89A`\xe5\xd8?<\x0f\x7f\xdfE\xb7\x11@'
p1682
tp1683
bsVmicrowave
p1684
g22
(g23
(I0
tp1685
g25
tp1686
Rp1687
(I1
(I4
tp1688
g139
I00
S'\x9a\x99\x99\x99\x99\x99\xf1\xbf\x00\x00\x00\x00\x00\x00\x00@7\x89A`\xe5\xd0\xee?\x00\x00\x00\x00\x00\x00\x00\x00'
p1689
tp1690
bsVc_obst7
p1691
g22
(g23
(I0
tp1692
g25
tp1693
Rp1694
(I1
(I4
tp1695
g139
I00
S"\x7f\xc5\xb1\xb3B\xfe\x11@\x8ad\xbf\x86\x0e\xf1\xcc?e\xaa`TR'\xed?\xc1\xc6}ZeC\x11@"
p1696
tp1697
bsVc_obst6
p1698
g22
(g23
(I0
tp1699
g25
tp1700
Rp1701
(I1
(I4
tp1702
g139
I00
S"\xae\\\x08\xd8\x954\x12@\xcd\xc4\xe8qN\xe8\xe0?e\xaa`TR'\xed?[\x91,`n\x94\x18@"
p1703
tp1704
bsVcup_b6af
p1705
g22
(g23
(I0
tp1706
g25
tp1707
Rp1708
(I1
(I4
tp1709
g139
I00
S'R\xb8\x1e\x85\xebQ\xe8?\x9a\x99\x99\x99\x99\x99\xe1?\x1b/\xdd$\x06\x81\xed?\x00\x00\x00\x00\x00\x00\x00\x00'
p1710
tp1711
bsVc_obst4
p1712
g22
(g23
(I0
tp1713
g25
tp1714
Rp1715
(I1
(I4
tp1716
g139
I00
S"V\xce\x076\x03\x85\x12@B\x84\x13\xd9\xb0\x98\xd0?e\xaa`TR'\xed?\xd6\x82l\x06\xb2-\xfa?"
p1717
tp1718
bsVrectangular_packing_box2
p1719
g22
(g23
(I0
tp1720
g25
tp1721
Rp1722
(I1
(I4
tp1723
g139
I00
S'\xe7\x89\xe0\xb7\x12v\xfb?^=z\x95\xee\x8c\x18\xc0L7\x89A`\xe5\xd8?\x87^/\x11\x0b\xb2\xe2?'
p1724
tp1725
bsVplate_fa76
p1726
g22
(g23
(I0
tp1727
g25
tp1728
Rp1729
(I1
(I4
tp1730
g139
I00
S'=\n\xd7\xa3p=\xf2?\x00\x00\x00\x00\x00\x00\x00\x00\x1b/\xdd$\x06\x81\xed?\x00\x00\x00\x00\x00\x00\x00\x00'
p1731
tp1732
bsVfloorwalls
p1733
g22
(g23
(I0
tp1734
g25
tp1735
Rp1736
(I1
(I4
tp1737
g139
I00
S'\xc7\xcc\xcc\xcc\xcc\xcc\xfc?\x00\x00\x00\x00\x00\x00\x18\xc0H\xe1z\x14\xaeG\xc1?\x16-DT\xfb!\xf9?'
p1738
tp1739
bsVpin_c671
p1740
g22
(g23
(I0
tp1741
g25
tp1742
Rp1743
(I1
(I4
tp1744
g139
I00
S'\xc3\xf5(\\\x8f\xc2\xf1\xbf}?5^\xbaI\x02@\xb8\x1e\x85\xebQ\xb8\xfa?\x00\x00\x00\x00\x00\x00\x00\x00'
p1745
tp1746
bsVc_obst3
p1747
g22
(g23
(I0
tp1748
g25
tp1749
Rp1750
(I1
(I4
tp1751
g139
I00
S"\xb5#{\xa1\xc0\x96\x12@\xe0X\x1amuj\xab?e\xaa`TR'\xed?dc\xb1\xe1\xf5q\xf6?"
p1752
tp1753
bsVchair_2e39
p1754
g22
(g23
(I0
tp1755
g25
tp1756
Rp1757
(I1
(I4
tp1758
g139
I00
S'hfffff\xee?cfffff\xf2\xbf\x00\x00\x00\x00\x00\x00\x00\x00\x07M\xe8QQF\xf3?'
p1759
tp1760
bsVentrance_left
p1761
g22
(g23
(I0
tp1762
g25
tp1763
Rp1764
(I1
(I4
tp1765
g139
I00
S'\x98\x99\x99\x99\x99\x99\xe9\xbfH\xe1z\x14\xaeG\t\xc0\x9c\xc4 \xb0rh\xc1?\x00\x00\x00\x00\x00\x00\x00\x00'
p1766
tp1767
bsVtop_wall_1
p1768
g22
(g23
(I0
tp1769
g25
tp1770
Rp1771
(I1
(I4
tp1772
g139
I00
S'H\xe1z\x14\xaeG\x12@\x80\x14\xaeG\xe1z\xc4?xX\xa85\xcd\xbb\xf2?\x00\x00\x00\x00\x00\x00\x00\x00'
p1773
tp1774
bsVrectangular_packing_box3
p1775
g22
(g23
(I0
tp1776
g25
tp1777
Rp1778
(I1
(I4
tp1779
g139
I00
S'g\xebw3\x0e\xad\x01@Cs\xf5\xd6\xff\xd1\x1f\xc0L7\x89A`\xe5\xd8?\x7f\x8dz\x16\xd9\xf7\x05@'
p1780
tp1781
bsVshaker
p1782
g22
(g23
(I0
tp1783
g25
tp1784
Rp1785
(I1
(I4
tp1786
g139
I00
S'\n\xd7\xa3p=\n\x01@\x14\xaeG\xe1z\x14\x02@\\\x8f\xc2\xf5(\\\xef?\x00\x00\x00\x00\x00\x00\x00\x00'
p1787
tp1788
bsVc_obst9
p1789
g22
(g23
(I0
tp1790
g25
tp1791
Rp1792
(I1
(I4
tp1793
g139
I00
S"\x02J\xab\xcd5J\x12@`3\xdd6\x9d\xc9\xb0\xbfe\xaa`TR'\xed?g\x1b\xcfzh\xfc\x15@"
p1794
tp1795
bsVplate_835a
p1796
g22
(g23
(I0
tp1797
g25
tp1798
Rp1799
(I1
(I4
tp1800
g139
I00
S'\xf6(\\\x8f\xc2\xf5\xf0?\\\x8f\xc2\xf5(\\\xe7\xbf\x1b/\xdd$\x06\x81\xed?\x00\x00\x00\x00\x00\x00\x00\x00'
p1801
tp1802
bsVcup_58a2
p1803
g22
(g23
(I0
tp1804
g25
tp1805
Rp1806
(I1
(I4
tp1807
g139
I00
S'\x85\xebQ\xb8\x1e\x85\xe3?\xcd\xcc\xcc\xcc\xcc\xcc\xdc?\x1b/\xdd$\x06\x81\xed?\x00\x00\x00\x00\x00\x00\x00\x00'
p1808
tp1809
bsVleft_wall_1
p1810
g22
(g23
(I0
tp1811
g25
tp1812
Rp1813
(I1
(I4
tp1814
g139
I00
S'H\xe1z\x14\xaeG\x12@S\xb8\x1e\x85\xebQ\xe4?\xcc\x7fH\xbf}\x1d\xed?\x00\x00\x00\x00\x00\x00\x00\x00'
p1815
tp1816
bsVc_obst2
p1817
g22
(g23
(I0
tp1818
g25
tp1819
Rp1820
(I1
(I4
tp1821
g139
I00
S"<\xa2\x1a\xe1\xd0z\x12@x\n\xe6\xf0\xa7\x14\xbf\xbfe\xaa`TR'\xed?Y!\r\xcaa\xf0\x03@"
p1822
tp1823
bsVsquare_packing_box4
p1824
g22
(g23
(I0
tp1825
g25
tp1826
Rp1827
(I1
(I4
tp1828
g139
I00
S'r\n\x1fUB\x15\xc2\xbf\xd5\x88\x00\x80wU\x1f\xc0L7\x89A`\xe5\xd8?Y\xe3\x19\x93\xa3\x99\x17@'
p1829
tp1830
bsVrectangular_packing_box1
p1831
g22
(g23
(I0
tp1832
g25
tp1833
Rp1834
(I1
(I4
tp1835
g139
I00
S'\xa4B\xbd|\x13\x94\xeb?\xa1\x8c\xb0$\x0cE \xc0L7\x89A`\xe5\xd8?<8\x05s\x8b\x00\xe2?'
p1836
tp1837
bsVpin_371e
p1838
g22
(g23
(I0
tp1839
g25
tp1840
Rp1841
(I1
(I4
tp1842
g139
I00
S'333333\xf3\xbfffffff\xf6?\xb8\x1e\x85\xebQ\xb8\xee?\x00\x00\x00\x00\x00\x00\x00\x00'
p1843
tp1844
bsVfridge
p1845
g22
(g23
(I0
tp1846
g25
tp1847
Rp1848
(I1
(I4
tp1849
g139
I00
S'\xd7\xa3p=\n\xd7\xeb\xbf\x00\x00\x00\x00\x00\x00\x00\xc0\xcd\xcc\xcc\xcc\xcc\xcc\xf8?\x00\x00\x00\x00\x00\x00\x00\x00'
p1850
tp1851
bsVcup_d441
p1852
g22
(g23
(I0
tp1853
g25
tp1854
Rp1855
(I1
(I4
tp1856
g139
I00
S'\n\xd7\xa3p=\n\xef?\x8f\xc2\xf5(\\\x8f\xe2?\x1b/\xdd$\x06\x81\xed?\x00\x00\x00\x00\x00\x00\x00\x00'
p1857
tp1858
bsVshelf2
p1859
g22
(g23
(I0
tp1860
g25
tp1861
Rp1862
(I1
(I4
tp1863
g139
I00
S'\x00\x00\x00\x00\x00\x00\x0e@\xaeG\xe1z\x14\xae\x07@\x9c\xc4 \xb0rh\xc1?\xd2!3\x7f|\xd9\x12@'
p1864
tp1865
bsVtop_wall_2
p1866
g22
(g23
(I0
tp1867
g25
tp1868
Rp1869
(I1
(I4
tp1870
g139
I00
S'H\xe1z\x14\xaeG\x12@\x80\x14\xaeG\xe1z\xc4?\x16HP\xfc\x18\xf3\xfd?\x00\x00\x00\x00\x00\x00\x00\x00'
p1871
tp1872
bsVc_obst0
p1873
g22
(g23
(I0
tp1874
g25
tp1875
Rp1876
(I1
(I4
tp1877
g139
I00
S"y\x0e`J\xe0d\x12@\xb8\xb6\x9a\xde\x9a<\xdf?e\xaa`TR'\xed?\xb0r.%l\xa8\x11@"
p1878
tp1879
bsVshelf1
p1880
g22
(g23
(I0
tp1881
g25
tp1882
Rp1883
(I1
(I4
tp1884
g139
I00
S'\x00\x00\x00\x00\x00\x00\x13@\xaeG\xe1z\x14\xae\x07@\x9c\xc4 \xb0rh\xc1?\xd2!3\x7f|\xd9\x12@'
p1885
tp1886
bsVsink
p1887
g22
(g23
(I0
tp1888
g25
tp1889
Rp1890
(I1
(I4
tp1891
g139
I00
S'ffffff\xd6?333333\x01@\x9a\x99\x99\x99\x99\x99\xb9\xbf\x00\x00\x00\x00\x00\x00\x00\x00'
p1892
tp1893
bsVpr2
p1894
g22
(g23
(I0
tp1895
g25
tp1896
Rp1897
(I1
(I4
tp1898
g139
I00
S'Vo]\xb8\x9b\xbd\x00@a--\xb3b\xf9\x15\xc0\x9a_\x94\xa0\xbf\xd0\xc1?\xa4\xf5\x97\xcb~w\x01@'
p1899
tp1900
bsVchair_12d0
p1901
g22
(g23
(I0
tp1902
g25
tp1903
Rp1904
(I1
(I4
tp1905
g139
I00
S'\\\xd2\x18\xad\xa3\xaa\xdb?Of\x83L2r\xc6?\x00\x00\x00\x00\x00\x00\x00\x00\xf8\x81\r\x14M\xa6\x17@'
p1906
tp1907
bsVright_wall_2
p1908
g22
(g23
(I0
tp1909
g25
tp1910
Rp1911
(I1
(I4
tp1912
g139
I00
S'H\xe1z\x14\xaeG\x12@&\\\x8f\xc2\xf5(\xd4\xbfxX\xa85\xcd\xbb\xf2?\x00\x00\x00\x00\x00\x00\x00\x00'
p1913
tp1914
bsVknife_block
p1915
g22
(g23
(I0
tp1916
g25
tp1917
Rp1918
(I1
(I4
tp1919
g139
I00
S'R\xb8\x1e\x85\xebQ\xe0\xbfffffff\x02@`\xe5\xd0"\xdb\xf9\xee?\x00\x00\x00\x00\x00\x00\x00\x00'
p1920
tp1921
bsVleft_wall_2
p1922
g22
(g23
(I0
tp1923
g25
tp1924
Rp1925
(I1
(I4
tp1926
g139
I00
S'H\xe1z\x14\xaeG\x12@S\xb8\x1e\x85\xebQ\xe4?xX\xa85\xcd\xbb\xf2?\x00\x00\x00\x00\x00\x00\x00\x00'
p1927
tp1928
bsVleft_wall
p1929
g22
(g23
(I0
tp1930
g25
tp1931
Rp1932
(I1
(I4
tp1933
g139
I00
S'\x9a\x99\x99\x99\x99\x99\x07@H\xe1z\x14\xaeG\xff?\x9c\xc4 \xb0rh\xc1?\x00\x00\x00\x00\x00\x00\x00\x00'
p1934
tp1935
bsVkitchen
p1936
g22
(g23
(I0
tp1937
g25
tp1938
Rp1939
(I1
(I4
tp1940
g139
I00
S'\x00\x00\x00\x00\x00\x00\x00\x00\x00\x00\x00\x00\x00\x00\x00\x00\x00\x00\x00\x00\x00\x00\x00\x00\x00\x00\x00\x00\x00\x00\x00\x00'
p1941
tp1942
bsVtable2
p1943
g22
(g23
(I0
tp1944
g25
tp1945
Rp1946
(I1
(I4
tp1947
g139
I00
S'\x00\x00\x00\x00\x00\x00\x13@\x80\x14\xaeG\xe1z\xc4?S\x96!\x8euq\xec?\xd2!3\x7f|\xd9\x12@'
p1948
tp1949
bsVc_obst8
p1950
g22
(g23
(I0
tp1951
g25
tp1952
Rp1953
(I1
(I4
tp1954
g139
I00
S"\x81\x80R\x9f\x1d\r\x12@\xc0\xf3?Vf\xc0\xc1\xbfe\xaa`TR'\xed?\xf8\xde\xb8q\xce\xda\x0f@"
p1955
tp1956
bsVplate_b4e7
p1957
g22
(g23
(I0
tp1958
g25
tp1959
Rp1960
(I1
(I4
tp1961
g139
I00
S'\x14\xaeG\xe1z\x14\xf2\xbf\x14\xaeG\xe1z\x14\x00@=\n\xd7\xa3p=\xf2?\x00\x00\x00\x00\x00\x00\x00\x00'
p1962
tp1963
bsVcooker
p1964
g22
(g23
(I0
tp1965
g25
tp1966
Rp1967
(I1
(I4
tp1968
g139
I00
S'\xaeG\xe1z\x14\xae\xff?\x85\xebQ\xb8\x1e\x85\xfb?\x00\x00\x00\x00\x00\x00\xe8?\x00\x00\x00\x00\x00\x00\x00\x00'
p1969
tp1970
bsVpin_a091
p1971
g22
(g23
(I0
tp1972
g25
tp1973
Rp1974
(I1
(I4
tp1975
g139
I00
S'\xdb\xf9~j\xbct\xf7\xbf)\\\x8f\xc2\xf5(\x02@\xb8\x1e\x85\xebQ\xb8\xfa?\x00\x00\x00\x00\x00\x00\x00\x00'
p1976
tp1977
bsVside_wall_2
p1978
g22
(g23
(I0
tp1979
g25
tp1980
Rp1981
(I1
(I4
tp1982
g139
I00
S'\xfa\xff\xff\xff\xff\xff\x14@\x00\x00\x00\x00\x00\x00\x00\x00\x9c\xc4 \xb0rh\xc1?\x18-DT\xfb!\xf9?'
p1983
tp1984
bsVside_wall_3
p1985
g22
(g23
(I0
tp1986
g25
tp1987
Rp1988
(I1
(I4
tp1989
g139
I00
S'\x00\x00\x00\x00\x00\x00\xfc?H\xe1z\x14\xaeG\t@\x9c\xc4 \xb0rh\xc1?\x00\x00\x00\x00\x00\x00\x00\x00'
p1990
tp1991
bsVmixer
p1992
g22
(g23
(I0
tp1993
g25
tp1994
Rp1995
(I1
(I4
tp1996
g139
I00
S'\n\xd7\xa3p=\n\xfb?ffffff\x02@d;\xdfO\x8d\x97\xee?\x00\x00\x00\x00\x00\x00\x00\x00'
p1997
tp1998
bsVside_wall_1
p1999
g22
(g23
(I0
tp2000
g25
tp2001
Rp2002
(I1
(I4
tp2003
g139
I00
S'\xf4\xff\xff\xff\xff\xff\xfb\xbf\x00\x00\x00\x00\x00\x00\x00\x00\x9c\xc4 \xb0rh\xc1?\x18-DT\xfb!\xf9?'
p2004
tp2005
bsVbottom_wall_1
p2006
g22
(g23
(I0
tp2007
g25
tp2008
Rp2009
(I1
(I4
tp2010
g139
I00
S'H\xe1z\x14\xaeG\x12@\x80\x14\xaeG\xe1z\xc4?\xcc\x7fH\xbf}\x1d\xed?\x00\x00\x00\x00\x00\x00\x00\x00'
p2011
tp2012
bsVcan
p2013
g22
(g23
(I0
tp2014
g25
tp2015
Rp2016
(I1
(I4
tp2017
g139
I00
S'\x00\x00\x00\x00\x00\x00\xf4\xbfH\xe1z\x14\xaeG\xe1\xbf\n\xd7\xa3p=\n\xef?\x00\x00\x00\x00\x00\x00\x00\x00'
p2018
tp2019
bsVright_wall
p2020
g22
(g23
(I0
tp2021
g25
tp2022
Rp2023
(I1
(I4
tp2024
g139
I00
S'\x9a\x99\x99\x99\x99\x99\x07@H\xe1z\x14\xaeG\xff\xbf\x9c\xc4 \xb0rh\xc1?\x00\x00\x00\x00\x00\x00\x00\x00'
p2025
tp2026
bsVcoffe_machine
p2027
g22
(g23
(I0
tp2028
g25
tp2029
Rp2030
(I1
(I4
tp2031
g139
I00
S'\\\x8f\xc2\xf5(\\\xf5\xbf\xb8\x1e\x85\xebQ\xb8\xee?\n\xd7\xa3p=\n\xef?\x00\x00\x00\x00\x00\x00\x00\x00'
p2032
tp2033
bsVcomputer_chair
p2034
g22
(g23
(I0
tp2035
g25
tp2036
Rp2037
(I1
(I4
tp2038
g139
I00
S'\xcd\xcc\xcc\xcc\xcc\xcc\x10@\x00\x00\x00\x00\x00\x00\xf8\xbf\xa00\xb6\x10\xe4\xa9\x95\xbf\x00\x00\x00\x00\x00\x00\x00\x00'
p2039
tp2040
bssS'robot_dof_values'
p2041
g22
(g23
(I0
tp2042
g25
tp2043
Rp2044
(I1
(I39
tp2045
g139
I00
S'\x00\x00\x00\x00\x00\x00\x00\x00\x00\x00\x00\x00\x00\x00\x00\x00\x00\x00\x00\x00\x00\x00\x00\x00\x00\x00\x00\x00\x00\x00\x00\x00\x00\x00\x00\x00\x00\x00\x00\x00\x00\x00\x00\x00\x00\x00\x00\x00\x00\x00\x00\x00\x00\x00\x00\x00\x00\x00\x00\x00\x00\x00\x00\x00\x00\x00\x00\x00\x00\x00\x00\x00\x00\x00\x00\x00\x00\x00\x00\x00\x00\x00\x00\x00\x00\x00\x00\x00\x00\x00\x00\x00\x00\x00\x00\x00@d;\xdfO\x8d\x87?\x00\x00\x00\x00\x00\x00\x00\x00\x00\x00\x00\x00\x00\x00\x00\x00\x00\x00\x00\x00\x00\x00\x00\x00\xee\xed\t\xf1\xcc\xa4\xf4?\x00\x00\x00\x00\x00\x00\xc0\xbcN"\xd0^p\xf8\x00\xc0\x98`G\xb3\x80b\xb2\xbc\x9c\x03\r.\x04V\xe6\xbf\xce$\x82\xf6pG\xa9<\x00\x00\x00\x00\x00\x00\x00\x00\x00\x00\x00\x00\x00\x80\xd3\xbc\x00\x00\x00\x00\x00\x00\x00\x00\x00\x00\x00\x00\x00\x00\xc0<\x00\x00\x00\x00\x00\x00\x00\x00\x00\x00\x00\x00\x00\x00\x00\x00\xec\xed\t\xf1\xcc\xa4\xf4?\x00\x00\x00\x00\x00\x00\x00\x00N"\xd0^p\xf8\x00\xc0\x00\x00\x00\x00\x00\x00\x00\x00\xa1\x03\r.\x04V\xe6\xbf\x00\x00\x00\x00\x00\x00\x00\x00\xce9\xe3\xc17\x89\xe1?\x00\x00\x00\x00\x00\x80\xd1\xbc\x00\x00\x00\x00\x00\x00\x00\x00\x00\x00\x00\x00\x00\x00\xd0<\x00\x00\x00\x00\x00\x00\x00\x00'
p2046
tp2047
bsS'is_holding'
p2048
I00
sbsS'holding_collides'
p2049
NsS'parent_ternary_predicates'
p2050
(dp2051
sS'cached_place_paths'
p2052
(dp2053
(g588
g873
tp2054
(lp2055
g22
(g23
(I0
tp2056
g25
tp2057
Rp2058
(I1
(I3
tp2059
g139
I00
S'\xb7\x15\xd3\xd2Xb\xe4?\xd4j\xb8\xd9\xa6\xd9\x1d\xc0b\x9b\xccG\xd6H\x14@'
p2060
tp2061
bas(g767
g130
tp2062
g199
s(g414
g130
tp2063
(lp2064
g22
(g23
(I0
tp2065
g25
tp2066
Rp2067
(I1
(I3
tp2068
g139
I00
S'\x94%\x0cK\xe2\xc9\x07@\xd6\xb9V\x19\xda\x12\x1b\xc0^\xeb\xdfk+[\x18@'
p2069
tp2070
bag22
(g23
(I0
tp2071
g25
tp2072
Rp2073
(I1
(I3
tp2074
g150
I00
S'\x02:\xde\x84?\xc0\x03@\x16\xfaJE\x8a\x0f\x19\xc0\x13\xc0\x8b\x01\x1d?\xf4\xbf'
p2075
tp2076
bag22
(g23
(I0
tp2077
g25
tp2078
Rp2079
(I1
(I3
tp2080
g150
I00
S'\xe6rt0\xc6`\x05@\xe8\xf6\xaa\xc7\x03\x10\x17\xc0v\x9e\xc9\x80o\x15\xed\xbf'
p2081
tp2082
bag22
(g23
(I0
tp2083
g25
tp2084
Rp2085
(I1
(I3
tp2086
g150
I00
S'_\x1fd\x97D>\x00@W\xf2\x9b\xb2\x92\xd8\x15\xc0\x99\xbc\xd43\xf6\xfa\x08\xc0'
p2087
tp2088
bag22
(g23
(I0
tp2089
g25
tp2090
Rp2091
(I1
(I3
tp2092
g150
I00
S'\x85\\2\xba\x0b5\xf5?I\r\x06\xd10\xfb\x15\xc0\x9e\x11\xee\xd8\xb9\xd7\xf5?'
p2093
tp2094
bag22
(g23
(I0
tp2095
g25
tp2096
Rp2097
(I1
(I3
tp2098
g150
I00
S'v\xb8^\x85\xa7[\xea?x\xbe\xff2t\x8d\x13\xc0\x88\x85\x8cCyH\xf6?'
p2099
tp2100
bag22
(g23
(I0
tp2101
g25
tp2102
Rp2103
(I1
(I3
tp2104
g150
I00
S'\xc2\xda(e\x83\x1a\xeb?\x8au\x8d3\xa6E\x11\xc0\xb4c\x1b\xed_\xfd\xfa?'
p2105
tp2106
bag22
(g23
(I0
tp2107
g25
tp2108
Rp2109
(I1
(I3
tp2110
g150
I00
S'\xe4u**\x0e5\xe9?\xaa\xfd\r\xed\xc4\xf6\r\xc0\x0fDE0\x1f\x0b\xfe?'
p2111
tp2112
bag22
(g23
(I0
tp2113
g25
tp2114
Rp2115
(I1
(I3
tp2116
g150
I00
S'\x06\x11,\xef\x98O\xe7??\x10\x01s=b\t\xc04\x92\xb79o\x8c\x00@'
p2117
tp2118
bag22
(g23
(I0
tp2119
g25
tp2120
Rp2121
(I1
(I3
tp2122
g150
I00
S'\x92\xaf\xf3P\x96O\xc2?(\xa1:\x8er}\x05\xc0\xd4_\x91\xb3\xffL\x02@'
p2123
tp2124
bas(g417
g873
tp2125
(lp2126
g22
(g23
(I0
tp2127
g25
tp2128
Rp2129
(I1
(I3
tp2130
g139
I00
S'\xe9B\x19\x8e\xdd\xc6\xf7?\xad\xd2t\xbd\xd3\xbe\x17\xc0\xef\x81\xd8\xf9C\x1f\x12@'
p2131
tp2132
bas(g414
g873
tp2133
(lp2134
g22
(g23
(I0
tp2135
g25
tp2136
Rp2137
(I1
(I3
tp2138
g139
I00
S'\x9a%\x0cK\xe2\xc9\x07@\xd6\xb9V\x19\xda\x12\x1b\xc0\\\xeb\xdfk+[\x18@'
p2139
tp2140
bas(g417
g130
tp2141
g352
s(g644
g873
tp2142
(lp2143
g22
(g23
(I0
tp2144
g25
tp2145
Rp2146
(I1
(I3
tp2147
g139
I00
S'h\xd8\xf7\xd0\x1d\x01\xbb?s\x1aC&n\x80\x17\xc0\xfb:4\xe3\x0c\x9a\x11@'
p2148
tp2149
bas(g644
g130
tp2150
g307
s(g12
g130
tp2151
(lp2152
g22
(g23
(I0
tp2153
g25
tp2154
Rp2155
(I1
(I3
tp2156
g139
I00
S'\xdes\x82c\\\x86\xe8?\x17\xbc\xe6\xd1\x91T\x14\xc0\xce\x99\x89\xdf\t\xf8\x12@'
p2157
tp2158
bag22
(g23
(I0
tp2159
g25
tp2160
Rp2161
(I1
(I3
tp2162
g150
I00
S'\xb5\xe3\x18\xc8\x9f\xf5\xd7?\xac\xb7\x0f\x9d\xa7\x8c\x11\xc0`\xf2\xb76\xda\xcb\xfa\xbf'
p2163
tp2164
bag22
(g23
(I0
tp2165
g25
tp2166
Rp2167
(I1
(I3
tp2168
g150
I00
S'\xceT\x9e/\xb5f\xd8?VQ\xf7\xbeD\xed\x0c\xc0:\xc1\x11<R\xda\xfb\xbf'
p2169
tp2170
bag22
(g23
(I0
tp2171
g25
tp2172
Rp2173
(I1
(I3
tp2174
g150
I00
S'\xf09\xb6\x1c*\x86\xee?\xc4\n/\x96\xcb\xe3\n\xc0\xa0\xc9\xd6F6\x0f\x00\xc0'
p2175
tp2176
bag22
(g23
(I0
tp2177
g25
tp2178
Rp2179
(I1
(I3
tp2180
g150
I00
S'3\xe9\xaf\x05T\x89\xe7?+~\xcb\xd3\x15\xc7\x04\xc0x6(d5\xed\x07@'
p2181
tp2182
bas(g416
g130
tp2183
g132
s(g416
g873
tp2184
(lp2185
g22
(g23
(I0
tp2186
g25
tp2187
Rp2188
(I1
(I3
tp2189
g139
I00
S'2x\x1c\x1c\xb8\xa7\xf7?\x14K9\x05\x97\x8f\x1e\xc0\xfd\x1a\x18S\xea%\x17@'
p2190
tp2191
bas(g767
g873
tp2192
(lp2193
g22
(g23
(I0
tp2194
g25
tp2195
Rp2196
(I1
(I3
tp2197
g139
I00
S'\x18\t\x95\xee`.\xe2?TJ\x94*b?\x1f\xc0?xp\xb3\xbe\xaf\x07@'
p2198
tp2199
bas(g12
g873
tp2200
(lp2201
g22
(g23
(I0
tp2202
g25
tp2203
Rp2204
(I1
(I3
tp2205
g139
I00
S'\xa6s\x82c\\\x86\xe8?\x18\xbc\xe6\xd1\x91T\x14\xc0\xce\x99\x89\xdf\t\xf8\x12@'
p2206
tp2207
bas(g415
g873
tp2208
(lp2209
g22
(g23
(I0
tp2210
g25
tp2211
Rp2212
(I1
(I3
tp2213
g139
I00
S'\xf7\x9fm\x12\xba\xc2\xf8?\xff\xe8G\xb9\xf0\x08\x16\xc0J*7\xc5?\x16\x15@'
p2214
tp2215
bas(g415
g130
tp2216
(lp2217
g22
(g23
(I0
tp2218
g25
tp2219
Rp2220
(I1
(I3
tp2221
g139
I00
S'\x00\xa0m\x12\xba\xc2\xf8?\x02\xe9G\xb9\xf0\x08\x16\xc0J*7\xc5?\x16\x15@'
p2222
tp2223
bag22
(g23
(I0
tp2224
g25
tp2225
Rp2226
(I1
(I3
tp2227
g150
I00
S'R\x12);\xaf\xa5\xf7?\xf3\xf9\xeb\x07c\xef\x15\xc0\xf0V^\xd6\x94\x96\x05\xc0'
p2228
tp2229
bag22
(g23
(I0
tp2230
g25
tp2231
Rp2232
(I1
(I3
tp2233
g150
I00
S'&>c9\x01,\xeb?\xb2\xc2\xf0\x02\xce\x8e\x14\xc0\xd8p\xbb2\x14\xd2\x03@'
p2234
tp2235
bag22
(g23
(I0
tp2236
g25
tp2237
Rp2238
(I1
(I3
tp2239
g150
I00
S'\xc6\x05\xbdtg\xd9\xe2?F\xdf\x9d@\\\xf3\x11\xc0\x1a\xc4.\xbb\xcc\x12\x02@'
p2240
tp2241
bag22
(g23
(I0
tp2242
g25
tp2243
Rp2244
(I1
(I3
tp2245
g150
I00
S'3z\xed\x8eN)\xe4?\x0c\x96\xd4\xa2\x0e\xd0\r\xc0\xbd%\xf5{\xe9\xf9\x03@'
p2246
tp2247
bag22
(g23
(I0
tp2248
g25
tp2249
Rp2250
(I1
(I3
tp2251
g150
I00
S'\xaf0\xe9h\xba~\xee?k\xbb\xd8\xd4\xd0g\t\xc09\x9ey\xed\xb06\x06@'
p2252
tp2253
bag22
(g23
(I0
tp2254
g25
tp2255
Rp2256
(I1
(I3
tp2257
g150
I00
S'\xf4\xfdJ\x1a(#\xec?H"\x9cD\x1aE\x05\xc0.\xa9\x0b\x87\xf8\xe1\x02@'
p2258
tp2259
bas(g588
g130
tp2260
g256
ssS'parent_binary_predicates'
p2261
(dp2262
sS'nodes'
p2263
(dp2264
g876
(lp2265
I0
aI0
aI0
aI0
aI0
aI0
aI00
aI01
aI00
aI01
aI00
asg873
(lp2266
I0
aI0
aI0
aI0
aI0
aI0
aI00
aI01
aI00
aI01
aI00
asg130
(lp2267
I0
aI0
aI0
aI0
aI0
aI0
aI00
aI01
aI01
aI01
aI00
asg839
(lp2268
I0
aI0
aI0
ag1447
(g139
S'\xca1\xfe\x9b\xd10\x0e@'
p2269
tp2270
Rp2271
ag1447
(g139
S'\xff\xbc\xee\x1d\xce\xb9\x1b\xc0'
p2272
tp2273
Rp2274
ag1447
(g139
S'<\x0f\x7f\xdfE\xb7\x11@'
p2275
tp2276
Rp2277
aI01
aI00
aI00
aI01
aI00
asg829
(lp2278
I0
aI0
aI0
ag1447
(g139
S'\x13\x8e\xe0\xb7\x12v\xfb?'
p2279
tp2280
Rp2281
ag1447
(g139
S'\xee<z\x95\xee\x8c\x18\xc0'
p2282
tp2283
Rp2284
ag1447
(g139
S'\x9c^/\x11\x0b\xb2\xe2?'
p2285
tp2286
Rp2287
aI01
aI00
aI00
aI01
aI00
asg129
(lp2288
I0
aI0
aI0
ag1447
(g139
S'\xad\xebw3\x0e\xad\x01@'
p2289
tp2290
Rp2291
ag1447
(g139
S'\xfcr\xf5\xd6\xff\xd1\x1f\xc0'
p2292
tp2293
Rp2294
ag1447
(g139
S'\x7f\x8dz\x16\xd9\xf7\x05@'
p2295
tp2296
Rp2297
aI01
aI00
aI00
aI01
aI00
asg254
(lp2298
I0
aI0
aI0
ag1447
(g139
S'HN\xbd|\x13\x94\xeb?'
p2299
tp2300
Rp2301
ag1447
(g139
S'\x98\x8c\xb0$\x0cE \xc0'
p2302
tp2303
Rp2304
ag1447
(g139
S'\x188\x05s\x8b\x00\xe2?'
p2305
tp2306
Rp2307
aI01
aI00
aI00
aI00
aI00
asg305
(lp2308
I0
aI0
aI0
ag1447
(g139
S'@VY=$>\xa1?'
p2309
tp2310
Rp2311
ag1447
(g139
S'O\n\xf3\xe1hv\x1a\xc0'
p2312
tp2313
Rp2314
ag1447
(g139
S'\xce\xbf\x08\x90W\x9b\x12@'
p2315
tp2316
Rp2317
aI01
aI00
aI00
aI00
aI00
asg350
(lp2318
I0
aI0
aI0
ag1447
(g139
S'\xd3\x811)\xa2\x8e\xf9?'
p2319
tp2320
Rp2321
ag1447
(g139
S'p\x97\xed\x1b\xb2\xfe\x1a\xc0'
p2322
tp2323
Rp2324
ag1447
(g139
S'\xb0\xa8i\xb6o\xe2\n@'
p2325
tp2326
Rp2327
aI01
aI00
aI00
aI01
aI00
asg833
(lp2328
I0
aI0
aI0
ag1447
(g139
S'+\x7f`N\xc0\x08\xe1?'
p2329
tp2330
Rp2331
ag1447
(g139
S'\xe4\xd0K\x80\x08\xfc\x16\xc0'
p2332
tp2333
Rp2334
ag1447
(g139
S'\xbc\x08/N\r\xc0\x06@'
p2335
tp2336
Rp2337
aI01
aI00
aI01
aI01
aI00
asg197
(lp2338
I0
aI0
aI0
ag1447
(g139
S'L\n\x1fUB\x15\xc2\xbf'
p2339
tp2340
Rp2341
ag1447
(g139
S'\xc8\x88\x00\x80wU\x1f\xc0'
p2342
tp2343
Rp2344
ag1447
(g139
S'Y\xe3\x19\x93\xa3\x99\x17@'
p2345
tp2346
Rp2347
aI01
aI00
aI00
aI00
aI00
assS'mc_place_path'
p2348
(dp2349
sS'parent_state'
p2350
NsS'goal_entities'
p2351
(lp2352
S'square_packing_box1'
p2353
ag130
asS'binary_edges'
p2354
(dp2355
(g305
g197
tp2356
(lp2357
I00
aI01
aI00
as(g305
g839
tp2358
(lp2359
I00
aI00
aI00
as(g129
g350
tp2360
(lp2361
I00
aI00
aI00
as(g129
g129
tp2362
(lp2363
I00
aI00
aI00
as(g829
g350
tp2364
(lp2365
I00
aI00
aI00
as(g829
g129
tp2366
(lp2367
I00
aI00
aI00
as(g197
g829
tp2368
(lp2369
I00
aI00
aI00
as(g305
g833
tp2370
(lp2371
I00
aI00
aI00
as(g254
g129
tp2372
(lp2373
I00
aI00
aI00
as(g839
g839
tp2374
(lp2375
I00
aI00
aI00
as(g829
g873
tp2376
(lp2377
g1447
(g29
(S'b1'
p2378
I0
I1
tp2379
Rp2380
(I3
S'|'
p2381
NNNI-1
I-1
I0
tp2382
bS'\x01'
p2383
tp2384
Rp2385
aI00
aI01
as(g876
g873
tp2386
(lp2387
I00
aI00
aI00
as(g839
g197
tp2388
(lp2389
I00
aI00
aI00
as(g873
g197
tp2390
(lp2391
I00
aI00
aI00
as(g833
g130
tp2392
(lp2393
I00
aI00
aI01
as(g876
g829
tp2394
(lp2395
I00
aI00
aI00
as(g829
g197
tp2396
(lp2397
I00
aI01
aI00
as(g129
g876
tp2398
(lp2399
g2385
aI00
aI00
as(g305
g305
tp2400
(lp2401
I00
aI00
aI00
as(g873
g305
tp2402
(lp2403
I00
aI00
aI00
as(g350
g829
tp2404
(lp2405
I00
aI00
aI00
as(g829
g130
tp2406
(lp2407
I00
aI00
aI01
as(g254
g350
tp2408
(lp2409
I00
aI00
aI00
as(g839
g254
tp2410
(lp2411
I00
aI00
aI00
as(g833
g833
tp2412
(lp2413
I00
aI00
aI00
as(g829
g876
tp2414
(lp2415
g2385
aI00
aI00
as(g873
g829
tp2416
(lp2417
I00
aI00
aI00
as(g873
g350
tp2418
(lp2419
I00
aI00
aI00
as(g873
g129
tp2420
(lp2421
I00
aI00
aI00
as(g350
g130
tp2422
(lp2423
I00
aI00
aI00
as(g197
g839
tp2424
(lp2425
I00
aI00
aI00
as(g254
g839
tp2426
(lp2427
I00
aI00
aI00
as(g350
g254
tp2428
(lp2429
I00
aI01
aI00
as(g873
g839
tp2430
(lp2431
I00
aI00
aI00
as(g876
g130
tp2432
(lp2433
I00
aI00
aI00
as(g833
g829
tp2434
(lp2435
I00
aI00
aI00
as(g839
g350
tp2436
(lp2437
I00
aI00
aI00
as(g876
g350
tp2438
(lp2439
I00
aI00
aI00
as(g350
g876
tp2440
(lp2441
g2385
aI00
aI00
as(g129
g305
tp2442
(lp2443
I00
aI00
aI00
as(g197
g833
tp2444
(lp2445
I00
aI00
aI00
as(g129
g829
tp2446
(lp2447
I00
aI00
aI00
as(g197
g130
tp2448
(lp2449
I00
aI00
aI00
as(g876
g876
tp2450
(lp2451
I00
aI00
aI00
as(g350
g839
tp2452
(lp2453
I00
aI00
aI00
as(g833
g305
tp2454
(lp2455
I00
aI01
aI00
as(g130
g833
tp2456
(lp2457
I00
aI00
aI00
as(g254
g873
tp2458
(lp2459
g2385
aI00
aI01
as(g130
g254
tp2460
(lp2461
I00
aI00
aI00
as(g197
g129
tp2462
(lp2463
I00
aI00
aI00
as(g129
g833
tp2464
(lp2465
I00
aI00
aI00
as(g350
g873
tp2466
(lp2467
g2385
aI00
aI01
as(g129
g254
tp2468
(lp2469
I00
aI00
aI00
as(g350
g350
tp2470
(lp2471
I00
aI00
aI00
as(g254
g829
tp2472
(lp2473
I00
aI00
aI00
as(g873
g130
tp2474
(lp2475
I00
aI00
aI00
as(g130
g305
tp2476
(lp2477
I00
aI00
aI00
as(g839
g130
tp2478
(lp2479
I00
aI00
aI01
as(g876
g254
tp2480
(lp2481
I00
aI00
aI00
as(g130
g197
tp2482
(lp2483
I00
aI00
aI00
as(g129
g197
tp2484
(lp2485
I00
aI00
aI00
as(g254
g876
tp2486
(lp2487
g2385
aI00
aI00
as(g197
g873
tp2488
(lp2489
g2385
aI00
aI01
as(g254
g305
tp2490
(lp2491
I00
aI00
aI00
as(g839
g829
tp2492
(lp2493
I00
aI00
aI00
as(g839
g873
tp2494
(lp2495
g2385
aI00
aI01
as(g130
g129
tp2496
(lp2497
I00
aI00
aI00
as(g876
g197
tp2498
(lp2499
I00
aI00
aI00
as(g876
g839
tp2500
(lp2501
I00
aI00
aI00
as(g254
g130
tp2502
(lp2503
I00
aI00
aI00
as(g305
g254
tp2504
(lp2505
I00
aI00
aI00
as(g833
g254
tp2506
(lp2507
I00
aI00
aI00
as(g130
g350
tp2508
(lp2509
I00
aI00
aI00
as(g873
g873
tp2510
(lp2511
I00
aI00
aI00
as(g305
g129
tp2512
(lp2513
I00
aI00
aI00
as(g833
g350
tp2514
(lp2515
I00
aI00
aI00
as(g873
g833
tp2516
(lp2517
I00
aI00
aI00
as(g829
g839
tp2518
(lp2519
I00
aI00
aI00
as(g873
g254
tp2520
(lp2521
I00
aI00
aI00
as(g833
g876
tp2522
(lp2523
g2385
aI00
aI00
as(g305
g829
tp2524
(lp2525
I00
aI00
aI00
as(g129
g130
tp2526
(lp2527
I00
aI00
aI00
as(g833
g839
tp2528
(lp2529
I00
aI00
aI00
as(g839
g833
tp2530
(lp2531
I00
aI00
aI00
as(g829
g833
tp2532
(lp2533
I00
aI00
aI00
as(g876
g305
tp2534
(lp2535
I00
aI00
aI00
as(g829
g254
tp2536
(lp2537
I00
aI01
aI00
as(g350
g305
tp2538
(lp2539
I00
aI00
aI00
as(g305
g873
tp2540
(lp2541
g2385
aI00
aI01
as(g254
g254
tp2542
(lp2543
I00
aI00
aI00
as(g197
g305
tp2544
(lp2545
I00
aI00
aI00
as(g833
g197
tp2546
(lp2547
I00
aI00
aI00
as(g829
g305
tp2548
(lp2549
I00
aI00
aI00
as(g829
g829
tp2550
(lp2551
I00
aI00
aI00
as(g197
g254
tp2552
(lp2553
I00
aI00
aI00
as(g305
g130
tp2554
(lp2555
I00
aI00
aI00
as(g350
g833
tp2556
(lp2557
I00
aI00
aI00
as(g129
g873
tp2558
(lp2559
g2385
aI00
aI01
as(g130
g829
tp2560
(lp2561
I00
aI00
aI00
as(g254
g833
tp2562
(lp2563
I00
aI00
aI00
as(g839
g129
tp2564
(lp2565
I00
aI00
aI00
as(g130
g873
tp2566
(lp2567
I00
aI00
aI00
as(g305
g350
tp2568
(lp2569
I00
aI00
aI00
as(g876
g129
tp2570
(lp2571
I00
aI00
aI00
as(g305
g876
tp2572
(lp2573
g2385
aI00
aI00
as(g350
g129
tp2574
(lp2575
I00
aI00
aI00
as(g130
g130
tp2576
(lp2577
I00
aI00
aI00
as(g254
g197
tp2578
(lp2579
I00
aI00
aI00
as(g839
g876
tp2580
(lp2581
g2385
aI00
aI00
as(g197
g876
tp2582
(lp2583
g2385
aI00
aI00
as(g130
g876
tp2584
(lp2585
I00
aI00
aI00
as(g130
g839
tp2586
(lp2587
I00
aI00
aI00
as(g350
g197
tp2588
(lp2589
I00
aI00
aI00
as(g197
g350
tp2590
(lp2591
I00
aI00
aI00
as(g129
g839
tp2592
(lp2593
I00
aI00
aI00
as(g873
g876
tp2594
(lp2595
I00
aI00
aI00
as(g833
g129
tp2596
(lp2597
I00
aI00
aI00
as(g839
g305
tp2598
(lp2599
I00
aI00
aI00
as(g197
g197
tp2600
(lp2601
I00
aI00
aI00
as(g833
g873
tp2602
(lp2603
g2385
aI00
aI01
as(g876
g833
tp2604
(lp2605
I00
aI00
aI00
assg412
g413
sS'pick_in_way'
p2606
(itrajectory_representation.predicates.pick_in_way
PickInWay
p2607
(dp2608
g127
(dp2609
g839
g483
sg829
g526
sg129
g569
sg254
g619
sg305
g669
sg350
g712
sg833
g748
sg197
g792
ssg389
(dp2610
g839
(lp2611
sg829
(lp2612
sg129
(lp2613
sg254
(lp2614
Vrectangular_packing_box2
p2615
aVsquare_packing_box3
p2616
asg305
(lp2617
Vsquare_packing_box1
p2618
asg350
(lp2619
sg833
(lp2620
sg197
(lp2621
Vrectangular_packing_box2
p2622
aVsquare_packing_box2
p2623
assg412
(lp2624
g829
ag350
ag129
ag839
ag876
ag130
ag873
ag833
ag876
ag130
ag873
ag876
ag130
ag873
ag876
ag130
ag873
ag876
ag130
ag873
ag876
ag130
ag873
ag876
ag130
ag873
ag876
ag130
ag873
asg418
g419
sg78
(dp2625
sg453
g454
sg819
Nsg825
g454
sg822
(dp2626
sg824
I8
sg868
I01
sg826
Nsg827
(dp2627
(g305
g197
tp2628
I01
s(g305
g839
tp2629
I00
s(g129
g350
tp2630
I00
s(g129
g129
tp2631
I00
s(g829
g350
tp2632
I00
s(g829
g129
tp2633
I00
s(g197
g829
tp2634
I00
s(g305
g833
tp2635
I00
s(g254
g129
tp2636
I00
s(g839
g839
tp2637
I00
s(g829
g873
tp2638
I00
s(g876
g873
tp2639
I00
s(g839
g197
tp2640
I00
s(g873
g197
tp2641
I00
s(g833
g130
tp2642
I00
s(g876
g829
tp2643
I00
s(g829
g197
tp2644
I01
s(g129
g876
tp2645
I00
s(g305
g305
tp2646
I00
s(g873
g305
tp2647
I00
s(g350
g829
tp2648
I00
s(g829
g130
tp2649
I00
s(g254
g350
tp2650
I00
s(g839
g254
tp2651
I00
s(g833
g833
tp2652
I00
s(g829
g876
tp2653
I00
s(g873
g829
tp2654
I00
s(g873
g350
tp2655
I00
s(g873
g129
tp2656
I00
s(g350
g130
tp2657
I00
s(g197
g839
tp2658
I00
s(g254
g839
tp2659
I00
s(g350
g254
tp2660
I01
s(g873
g839
tp2661
I00
s(g876
g130
tp2662
I00
s(g833
g829
tp2663
I00
s(g839
g350
tp2664
I00
s(g876
g350
tp2665
I00
s(g350
g876
tp2666
I00
s(g129
g305
tp2667
I00
s(g197
g833
tp2668
I00
s(g129
g829
tp2669
I00
s(g197
g130
tp2670
I00
s(g876
g876
tp2671
I00
s(g350
g839
tp2672
I00
s(g833
g305
tp2673
I01
s(g130
g833
tp2674
I00
s(g254
g873
tp2675
I00
s(g130
g254
tp2676
I00
s(g197
g129
tp2677
I00
s(g129
g833
tp2678
I00
s(g350
g873
tp2679
I00
s(g129
g254
tp2680
I00
s(g350
g350
tp2681
I00
s(g254
g829
tp2682
I00
s(g873
g130
tp2683
I00
s(g130
g305
tp2684
I00
s(g839
g130
tp2685
I00
s(g876
g254
tp2686
I00
s(g130
g197
tp2687
I00
s(g129
g197
tp2688
I00
s(g254
g876
tp2689
I00
s(g197
g873
tp2690
I00
s(g254
g305
tp2691
I00
s(g839
g829
tp2692
I00
s(g839
g873
tp2693
I00
s(g130
g129
tp2694
I00
s(g876
g197
tp2695
I00
s(g876
g839
tp2696
I00
s(g254
g130
tp2697
I00
s(g305
g254
tp2698
I00
s(g833
g254
tp2699
I00
s(g130
g350
tp2700
I00
s(g873
g873
tp2701
I00
s(g305
g129
tp2702
I00
s(g833
g350
tp2703
I00
s(g873
g833
tp2704
I00
s(g829
g839
tp2705
I00
s(g873
g254
tp2706
I00
s(g833
g876
tp2707
I00
s(g305
g829
tp2708
I00
s(g129
g130
tp2709
I00
s(g833
g839
tp2710
I00
s(g839
g833
tp2711
I00
s(g829
g833
tp2712
I00
s(g876
g305
tp2713
I00
s(g829
g254
tp2714
I01
s(g350
g305
tp2715
I00
s(g305
g873
tp2716
I00
s(g254
g254
tp2717
I00
s(g197
g305
tp2718
I00
s(g833
g197
tp2719
I00
s(g829
g305
tp2720
I00
s(g829
g829
tp2721
I00
s(g197
g254
tp2722
I00
s(g305
g130
tp2723
I00
s(g350
g833
tp2724
I00
s(g129
g873
tp2725
I00
s(g130
g829
tp2726
I00
s(g254
g833
tp2727
I00
s(g839
g129
tp2728
I00
s(g130
g873
tp2729
I00
s(g305
g350
tp2730
I00
s(g876
g129
tp2731
I00
s(g305
g876
tp2732
I00
s(g350
g129
tp2733
I00
s(g130
g130
tp2734
I00
s(g254
g197
tp2735
I00
s(g839
g876
tp2736
I00
s(g197
g876
tp2737
I00
s(g130
g876
tp2738
I00
s(g130
g839
tp2739
I00
s(g350
g197
tp2740
I00
s(g197
g350
tp2741
I00
s(g129
g839
tp2742
I00
s(g873
g876
tp2743
I00
s(g833
g129
tp2744
I00
s(g839
g305
tp2745
I00
s(g197
g197
tp2746
I00
s(g833
g873
tp2747
I00
s(g876
g833
tp2748
I00
ssg867
NsbsS'robot_pose'
p2749
g22
(g23
(I0
tp2750
g25
tp2751
Rp2752
(I1
(I1
I3
tp2753
g139
I00
S'Vo]\xb8\x9b\xbd\x00@a--\xb3b\xf9\x15\xc0\xa4\xf5\x97\xcb~w\x01@'
p2754
tp2755
bsS'is_holding_goal_entity'
p2756
(itrajectory_representation.predicates.is_holding_goal_entity
IsHoldingGoalEntity
p2757
(dp2758
g2351
g2352
sg826
NsbsS'mc_pick_path'
p2759
(dp2760
sS'current_collides'
p2761
g419
sbasS'seed'
p2762
NsS'state_prime'
p2763
(lp2764
sS'problem_idx'
p2765
I14
sb.