(itrajectory_representation.trajectory
Trajectory
p0
(dp1
S'rewards'
p2
(lp3
sS'actions'
p4
(lp5
sS'filename'
p6
S''
p7
sS'states'
p8
(lp9
sS'seed'
p10
NsS'state_prime'
p11
(lp12
sS'problem_idx'
p13
I1
sb.