(itrajectory_representation.trajectory
Trajectory
p0
(dp1
S'rewards'
p2
(lp3
I10
asS'actions'
p4
(lp5
(itrajectory_representation.operator
Operator
p6
(dp7
S'is_skeleton'
p8
I00
sS'discrete_parameters'
p9
(dp10
S'object'
p11
Vsquare_packing_box1
p12
sS'two_arm_place_region'
p13
S'home_region'
p14
sS'two_arm_place_object'
p15
Vsquare_packing_box1
p16
ssS'type'
p17
S'two_arm_pick_two_arm_place'
p18
sS'continuous_parameters'
p19
(dp20
S'q_goal'
p21
cnumpy.core.multiarray
_reconstruct
p22
(cnumpy
ndarray
p23
(I0
tp24
S'b'
p25
tp26
Rp27
(I1
(I3
tp28
cnumpy
dtype
p29
(S'f8'
p30
I0
I1
tp31
Rp32
(I3
S'<'
p33
NNNI-1
I-1
I0
tp34
bI00
S'\xf4\x98\xed\xd0\xfc]\xec?cb\xc0c\xe4?\x1d\xc0\xd4xy\xc2V=\x08\xc0'
p35
tp36
bsS'place'
p37
(dp38
g21
g22
(g23
(I0
tp39
g25
tp40
Rp41
(I1
(I3
tp42
g32
I00
S'\x1b\xc3\x1d\x1f\x80\xee\xfc?\x82\xc9ffM\x00\x04\xc0\x1c:\x83\x9bCG\x08@'
p43
tp44
bssS'pick'
p45
(dp46
g21
g27
sssS'low_level_motion'
p47
(lp48
g22
(g23
(I0
tp49
g25
tp50
Rp51
(I1
(I3
tp52
g32
I00
S'\xdc\xb3\xd7\x88[,\x0b@cCr\xb8E\xed\x1f\xc0\xf7\xb5\x0f\x9adR\x13@'
p53
tp54
bag22
(g23
(I0
tp55
g25
tp56
Rp57
(I1
(I3
tp58
g29
(S'f8'
p59
I0
I1
tp60
Rp61
(I3
S'<'
p62
NNNI-1
I-1
I0
tp63
bI00
S'sL@\xf8\xbf\x12\x06@\xa9_:\x94go\x1f\xc0\xc0\x96\xc8\xcc\xba}\x0b\xc0'
p64
tp65
bag22
(g23
(I0
tp66
g25
tp67
Rp68
(I1
(I3
tp69
g61
I00
S'j3^\x1e\x86u\xff?:\xcbg\xab\x92\xaa\x1f\xc0\x05\x95\xa3X\x1c\x93\x07\xc0'
p70
tp71
bag22
(g23
(I0
tp72
g25
tp73
Rp74
(I1
(I3
tp75
g61
I00
S'\xack\x86\xecj\xbe\xf2?\x96O\xb7\x87\x84\x85\x1f\xc0\xfa\x84\x19\xd1\xe3\x0c\x04@'
p76
tp77
bag27
ag27
asbasS'filename'
p78
S''
p79
sS'states'
p80
(lp81
(itrajectory_representation.shortest_path_pick_and_place_state
ShortestPathPaPState
p82
(dp83
S'place_used'
p84
(dp85
(g16
g14
tp86
(itrajectory_representation.operator
Operator
p87
(dp88
g8
I01
sg9
(dp89
S'region'
p90
g14
sg11
g16
ssg17
S'two_arm_place'
p91
sg19
(dp92
g21
g22
(g23
(I0
tp93
g25
tp94
Rp95
(I1
(I3
tp96
g32
I00
S'\x1b\xc3\x1d\x1f\x80\xee\xfc?\x82\xc9ffM\x00\x04\xc0\x1c:\x83\x9bCG\x08@'
p97
tp98
bssg47
(lp99
g22
(g23
(I0
tp100
g25
tp101
Rp102
(I1
(I3
tp103
g32
I00
S'\xf4\x98\xed\xd0\xfc]\xec?fb\xc0c\xe4?\x1d\xc0[\xe1\x0e\xe6\x9f\x06\n@'
p104
tp105
bag22
(g23
(I0
tp106
g25
tp107
Rp108
(I1
(I3
tp109
g61
I00
S'\xf8\xfc\x1a\xd0\xc9l\xe8?\x8a\x897\x8e~\x98\x1a\xc0\xaf\xf7\xb87\xc6\xa7\x01\xc0'
p110
tp111
bag22
(g23
(I0
tp112
g25
tp113
Rp114
(I1
(I3
tp115
g61
I00
S'\xf8C*\xbe\x14\xcf\xe8?\x81d\xab\xeb\xa8<\x18\xc0\xc8\\\xf4\x8c\xc3\xfa\xfe\xbf'
p116
tp117
bag22
(g23
(I0
tp118
g25
tp119
Rp120
(I1
(I3
tp121
g61
I00
S'\xd0\xcb\x13\x8f\xaa\x9d\xed?\x90\x01<]3\x06\x16\xc0F\xf1\xe7x32\x02\xc0'
p122
tp123
bag22
(g23
(I0
tp124
g25
tp125
Rp126
(I1
(I3
tp127
g61
I00
S'l[\xc4\x16<\xe6\xe9?\xa6\xa0\x90\x84X\x9f\x13\xc0\xc2\xd74Q\x00\xaf\xff\xbf'
p128
tp129
bag22
(g23
(I0
tp130
g25
tp131
Rp132
(I1
(I3
tp133
g61
I00
S"\xaeJ\xbd\x1936\xec?\x04\x13\xd4'\x9f\x88\x10\xc0\x805qo\xb6\xe6\xff\xbf"
p134
tp135
bag22
(g23
(I0
tp136
g25
tp137
Rp138
(I1
(I3
tp139
g61
I00
S'\xf09\xb6\x1c*\x86\xee?\xc4\n/\x96\xcb\xe3\n\xc0\xa0\xc9\xd6F6\x0f\x00\xc0'
p140
tp141
bag22
(g23
(I0
tp142
g25
tp143
Rp144
(I1
(I3
tp145
g61
I00
S'{\xaa2 U\x1e\xf1?RG\x9d\xd8Q\xfe\x05\xc0JC\x0e\x08/\xff\x08\xc0'
p146
tp147
bag95
ag95
asbssS'place_in_way'
p148
(itrajectory_representation.predicates.place_in_way
PlaceInWay
p149
(dp150
S'mc_path_to_entity'
p151
(dp152
(Vrectangular_packing_box2
p153
S'home_region'
p154
tp155
(lp156
g22
(g23
(I0
tp157
g25
tp158
Rp159
(I1
(I3
tp160
g29
(S'f8'
p161
I0
I1
tp162
Rp163
(I3
S'<'
p164
NNNI-1
I-1
I0
tp165
bI00
S'\xc0\xf5\x07\r\x98o\xfc?\x08\xdc\x81=;\xfa\x16\xc0\x01\x94\xe0\xc2\n<\x14@'
p166
tp167
bag22
(g23
(I0
tp168
g25
tp169
Rp170
(I1
(I3
tp171
g29
(S'f8'
p172
I0
I1
tp173
Rp174
(I3
S'<'
p175
NNNI-1
I-1
I0
tp176
bI00
S'v%D\x97w\xd1\xf7?Z\xadP\x90\x08<\x17\xc0-\xca\x8a\t\xe2p\xe7\xbf'
p177
tp178
bag22
(g23
(I0
tp179
g25
tp180
Rp181
(I1
(I3
tp182
g174
I00
S'tx\x8as\xa8b\xed?\x9ej\x15\xfa\xf0{\x15\xc0@\xed\x9a-\x9eD\xf2\xbf'
p183
tp184
bag22
(g23
(I0
tp185
g25
tp186
Rp187
(I1
(I3
tp188
g174
I00
S"\xb2&6mg)\xe8?\x99\xe0G'\x16\xe0\x13\xc0\xc8oL\xf5\x17p\xe6\xbf"
p189
tp190
bag22
(g23
(I0
tp191
g25
tp192
Rp193
(I1
(I3
tp194
g174
I00
S'`\xc8Aw-\x81\xeb?/\xc3\xe6O\x04\xca\x10\xc0\x8a\xb7K)\x91{\xe4\xbf'
p195
tp196
bag22
(g23
(I0
tp197
g25
tp198
Rp199
(I1
(I3
tp200
g174
I00
S'\xe1\xc6\xc7\xa7\x12X\xe7?\x98\x99\xb0\x9a\xfb\xdb\x0b\xc0R\t\x1b)\xeae\xe0\xbf'
p201
tp202
bag22
(g23
(I0
tp203
g25
tp204
Rp205
(I1
(I3
tp206
g174
I00
S'p\xf1\xbdc^\x84\xf1?"\x88LL\xf9D\x06\xc0~w\r\xe9m\x0f\x19@'
p207
tp208
bas(Vrectangular_packing_box3
p209
g154
tp210
(lp211
g22
(g23
(I0
tp212
g25
tp213
Rp214
(I1
(I3
tp215
g163
I00
S'\xb8\x86\xb5D\x7fb\n@ \xdb\xd0Z\xee\xd1\x1a\xc0R\x18\xf6\xd6\xfdE\xe2?'
p216
tp217
bag22
(g23
(I0
tp218
g25
tp219
Rp220
(I1
(I3
tp221
g174
I00
S'\x00O\xfd4U\xed\x06@>#>\xa9c\x95\x18\xc0\xeb\xe4n\xb8\x98\xa5\xc9\xbf'
p222
tp223
bag22
(g23
(I0
tp224
g25
tp225
Rp226
(I1
(I3
tp227
g174
I00
S'\x00\xda\x1c<\xfd\xdc\x00@j"\x91\xe3 \x1a\x18\xc0i~!@)\xb0\xdc\xbf'
p228
tp229
bag22
(g23
(I0
tp230
g25
tp231
Rp232
(I1
(I3
tp233
g174
I00
S'v%D\x97w\xd1\xf7?Z\xadP\x90\x08<\x17\xc0-\xca\x8a\t\xe2p\xe7\xbf'
p234
tp235
bag22
(g23
(I0
tp236
g25
tp237
Rp238
(I1
(I3
tp239
g174
I00
S'tx\x8as\xa8b\xed?\x9ej\x15\xfa\xf0{\x15\xc0@\xed\x9a-\x9eD\xf2\xbf'
p240
tp241
bag22
(g23
(I0
tp242
g25
tp243
Rp244
(I1
(I3
tp245
g174
I00
S"\xb2&6mg)\xe8?\x99\xe0G'\x16\xe0\x13\xc0\xc8oL\xf5\x17p\xe6\xbf"
p246
tp247
bag22
(g23
(I0
tp248
g25
tp249
Rp250
(I1
(I3
tp251
g174
I00
S'`\xc8Aw-\x81\xeb?/\xc3\xe6O\x04\xca\x10\xc0\x8a\xb7K)\x91{\xe4\xbf'
p252
tp253
bag22
(g23
(I0
tp254
g25
tp255
Rp256
(I1
(I3
tp257
g174
I00
S'\xe1\xc6\xc7\xa7\x12X\xe7?\x98\x99\xb0\x9a\xfb\xdb\x0b\xc0R\t\x1b)\xeae\xe0\xbf'
p258
tp259
bag22
(g23
(I0
tp260
g25
tp261
Rp262
(I1
(I3
tp263
g174
I00
S'p\xf1\xbdc^\x84\xf1?"\x88LL\xf9D\x06\xc0~w\r\xe9m\x0f\x19@'
p264
tp265
bas(Vsquare_packing_box4
p266
g154
tp267
(lp268
g22
(g23
(I0
tp269
g25
tp270
Rp271
(I1
(I3
tp272
g163
I00
S'\xce\x82j&.\\\x04@\xf4zt\xe0\xe6?\x19\xc0\xdf-\x0f\x1b\xd5B\x17@'
p273
tp274
bag22
(g23
(I0
tp275
g25
tp276
Rp277
(I1
(I3
tp278
g174
I00
S'\x00\xda\x1c<\xfd\xdc\x00@j"\x91\xe3 \x1a\x18\xc0i~!@)\xb0\xdc\xbf'
p279
tp280
bag22
(g23
(I0
tp281
g25
tp282
Rp283
(I1
(I3
tp284
g174
I00
S'\x12\xfe\xe1\x95\xb8\x19\xf8?\x8c#.~\xd7\xc6\x16\xc0\xfe\xd3A\xf0\xcat\xc0\xbf'
p285
tp286
bag22
(g23
(I0
tp287
g25
tp288
Rp289
(I1
(I3
tp290
g174
I00
S'\xe4\x9e\xb7\xac\xe0!\xeb?\x8a\x83\x10\xb1\xa2\xad\x15\xc0\x9aS\xfbY\xaf\x8f\xd2\xbf'
p291
tp292
bag22
(g23
(I0
tp293
g25
tp294
Rp295
(I1
(I3
tp296
g174
I00
S"\xb2&6mg)\xe8?\x99\xe0G'\x16\xe0\x13\xc0\xc8oL\xf5\x17p\xe6\xbf"
p297
tp298
bag22
(g23
(I0
tp299
g25
tp300
Rp301
(I1
(I3
tp302
g174
I00
S'`\xc8Aw-\x81\xeb?/\xc3\xe6O\x04\xca\x10\xc0\x8a\xb7K)\x91{\xe4\xbf'
p303
tp304
bag22
(g23
(I0
tp305
g25
tp306
Rp307
(I1
(I3
tp308
g174
I00
S'\xe1\xc6\xc7\xa7\x12X\xe7?\x98\x99\xb0\x9a\xfb\xdb\x0b\xc0R\t\x1b)\xeae\xe0\xbf'
p309
tp310
bag22
(g23
(I0
tp311
g25
tp312
Rp313
(I1
(I3
tp314
g174
I00
S'p\xf1\xbdc^\x84\xf1?"\x88LL\xf9D\x06\xc0~w\r\xe9m\x0f\x19@'
p315
tp316
bas(Vrectangular_packing_box1
p317
g154
tp318
(lp319
g22
(g23
(I0
tp320
g25
tp321
Rp322
(I1
(I3
tp323
g163
I00
S'h\xbc\xb4\xdb1\xd8\x02@\xa2X\x1eX\x07\xa4\x19\xc0\xc3n\x04)\x02K\x0b@'
p324
tp325
bag22
(g23
(I0
tp326
g25
tp327
Rp328
(I1
(I3
tp329
g174
I00
S'\xc6\xf1T\x16)\x02\xfe?\xa8\x7fQ\xf5\xbb\x10\x19\xc0\xa38\tS\x83\x84\x05@'
p330
tp331
bag22
(g23
(I0
tp332
g25
tp333
Rp334
(I1
(I3
tp335
g174
I00
S'\x84\xa2s4\xa1\xd0\xf6?E=|\xb9\xcam\x17\xc0\xa93^V\xfc\xed\x05@'
p336
tp337
bag22
(g23
(I0
tp338
g25
tp339
Rp340
(I1
(I3
tp341
g174
I00
S'f\xb4\x9c\x07\xac\xbf\xec?n\x96\x96\x9e\x90n\x16\xc0uo!\xa9\x9b\x82\x07@'
p342
tp343
bag22
(g23
(I0
tp344
g25
tp345
Rp346
(I1
(I3
tp347
g174
I00
S'm\xd5h\x072\x03\xea?\xdf\xe5\xe82\xd3\x17\x14\xc0\x08\x9e\xe1\xfbO\x94\x08@'
p348
tp349
bag22
(g23
(I0
tp350
g25
tp351
Rp352
(I1
(I3
tp353
g174
I00
S'\x97\xff-a\x91r\xf0?\x1a\x15\xfe\xb9:\x1b\x12\xc0\nG\xfe\xfa~y\x05@'
p354
tp355
bag22
(g23
(I0
tp356
g25
tp357
Rp358
(I1
(I3
tp359
g174
I00
S'y\xd4\xbc{`\x0b\xf2?\xb0C6m\xb7\xd6\x0e\xc0\xe8\xe2r\xbe\x16{\xf5?'
p360
tp361
bag22
(g23
(I0
tp362
g25
tp363
Rp364
(I1
(I3
tp365
g174
I00
S'\xd1\xaa\x15!\x8c\x06\xed?\x8c\xab\xab^w\xe3\t\xc0~&\xcc\xa2\xcbw\xf6?'
p366
tp367
bag22
(g23
(I0
tp368
g25
tp369
Rp370
(I1
(I3
tp371
g174
I00
S'3\xe9\xaf\x05T\x89\xe7?+~\xcb\xd3\x15\xc7\x04\xc0x6(d5\xed\x07@'
p372
tp373
bas(Vsquare_packing_box2
p374
g154
tp375
(lp376
g22
(g23
(I0
tp377
g25
tp378
Rp379
(I1
(I3
tp380
g163
I00
S'\xd0\xaap\x0f5\x14\xfd?(eYf\xb1X\x19\xc0Q\xdc\xd2\xb6\xe2E\x14@'
p381
tp382
bag22
(g23
(I0
tp383
g25
tp384
Rp385
(I1
(I3
tp386
g174
I00
S'\x9f5<Q\xb2\xb3\xf7?\xb3\xd6LI,\xe8\x16\xc0\xc2\x13\xbbtu\x87\x00\xc0'
p387
tp388
bag22
(g23
(I0
tp389
g25
tp390
Rp391
(I1
(I3
tp392
g174
I00
S'K\x19\xdd\x9a\xe6\xce\xe9?\xe1\x08\xb9\xe6+\xc9\x15\xc0\xeeN\x0e\xdd1/\x08\xc0'
p393
tp394
bag22
(g23
(I0
tp395
g25
tp396
Rp397
(I1
(I3
tp398
g174
I00
S'\x16nfXE \xf2?\x06\xf1|#c\xe6\x12\xc08\x98\x8f,\xc1@\x04\xc0'
p399
tp400
bag22
(g23
(I0
tp401
g25
tp402
Rp403
(I1
(I3
tp404
g174
I00
S'\xc1E\xbb\x1b\xed\x13\xf3?\xca\xdcw\xec\x1a\x18\x10\xc0j\xed\xec2j\x8c\x04\xc0'
p405
tp406
bag22
(g23
(I0
tp407
g25
tp408
Rp409
(I1
(I3
tp410
g174
I00
S'\xf09\xb6\x1c*\x86\xee?\xc4\n/\x96\xcb\xe3\n\xc0\xa0\xc9\xd6F6\x0f\x00\xc0'
p411
tp412
bag22
(g23
(I0
tp413
g25
tp414
Rp415
(I1
(I3
tp416
g174
I00
S'3\xe9\xaf\x05T\x89\xe7?+~\xcb\xd3\x15\xc7\x04\xc0x6(d5\xed\x07@'
p417
tp418
bassS'mc_to_entity'
p419
(dp420
(g153
g154
tp421
(lp422
Vrectangular_packing_box1
p423
as(g209
g154
tp424
(lp425
Vsquare_packing_box4
p426
aVrectangular_packing_box1
p427
aVrectangular_packing_box2
p428
as(g266
g154
tp429
(lp430
Vrectangular_packing_box2
p431
aVrectangular_packing_box1
p432
aVsquare_packing_box3
p433
as(g317
g154
tp434
(lp435
Vrectangular_packing_box2
p436
as(g374
g154
tp437
(lp438
Vrectangular_packing_box1
p439
aVrectangular_packing_box2
p440
aVrectangular_packing_box4
p441
assS'reachable_entities'
p442
(lp443
Vrectangular_packing_box4
p444
aVrectangular_packing_box1
p445
aVsquare_packing_box2
p446
ag12
aVsquare_packing_box4
p447
asS'collides'
p448
(dp449
Vrectangular_packing_box4
p450
c__builtin__
set
p451
((lp452
I417
aI459
aI198
aI7
aI424
aI138
aI139
aI362
aI275
aI503
aI152
aI383
aI491
aI349
aI350
aI351
atp453
Rp454
sVrectangular_packing_box2
p455
g451
((lp456
I3
aI4
aI449
aI395
aI194
aI577
aI145
aI538
aI413
aI161
aI36
aI37
aI422
aI561
aI178
aI309
aI54
aI55
aI188
aI63
aI64
aI65
aI66
aI69
aI70
aI201
aI202
aI205
aI79
aI595
aI215
aI89
aI90
aI219
aI92
aI611
aI114
aI115
aI376
aI379
aI511
atp457
Rp458
sVrectangular_packing_box3
p459
g451
((lp460
I368
aI457
aI453
aI545
aI425
aI473
aI367
aI144
aI369
aI370
aI371
aI246
aI247
aI377
aI474
aI571
atp461
Rp462
sVrectangular_packing_box1
p463
g451
((lp464
I3
aI4
aI5
aI137
aI413
aI161
aI34
aI35
aI36
aI301
aI584
aI309
aI310
aI55
aI56
aI570
aI187
aI188
aI449
aI69
aI70
aI327
aI456
aI201
aI202
aI203
aI162
aI205
aI595
aI597
aI92
aI93
aI607
aI355
aI497
aI372
aI252
atp465
Rp466
sVsquare_packing_box2
p467
g451
((lp468
I256
aI262
aI145
aI146
aI538
aI413
aI543
aI36
aI422
aI429
aI570
aI443
aI444
aI64
aI65
aI66
aI69
aI205
aI79
aI80
aI81
aI215
aI92
aI464
aI355
aI358
aI230
aI593
aI240
aI124
atp469
Rp470
sVsquare_packing_box3
p471
g451
((lp472
I160
aI1
aI2
aI611
aI454
aI38
aI39
aI40
aI41
aI42
aI289
aI288
aI304
aI404
aI393
aI539
aI380
aI62
atp473
Rp474
sVsquare_packing_box1
p475
g451
((lp476
I384
aI257
aI265
aI394
aI532
aI580
aI158
aI159
aI164
aI433
aI564
aI575
aI452
aI583
aI328
aI458
aI589
aI478
aI356
aI229
aI366
aI502
aI122
atp477
Rp478
sVsquare_packing_box4
p479
g451
((lp480
I268
aI144
aI403
aI405
aI548
aI550
aI425
aI302
aI303
aI307
aI438
aI442
aI62
aI453
aI457
aI220
aI342
aI343
aI473
aI348
aI605
aI612
aI614
aI367
aI368
aI500
aI247
aI248
aI377
aI511
atp481
Rp482
ssg84
g85
sS'pick_used'
p483
(dp484
g444
(itrajectory_representation.operator
Operator
p485
(dp486
g8
I01
sg9
(dp487
S'object'
p488
Vrectangular_packing_box4
p489
ssg17
S'two_arm_pick'
p490
sg19
(dp491
S'q_goal'
p492
(lp493
g22
(g23
(I0
tp494
g25
tp495
Rp496
(I1
(I3
tp497
g163
I00
S'\xb3\x82\xe8\x97\xf2\x00\xe3?Y\xd3n\xc3?C\x16\xc0\x80\x9e\x0f\x89\x96\xd2\n\xc0'
p498
tp499
bag22
(g23
(I0
tp500
g25
tp501
Rp502
(I1
(I3
tp503
g163
I00
S'\x8f\xd4\xdb\xf06\xc2\xdc?\xb5\x04_^\x08\x91\x15\xc0\xb1\xdd!>2\xdb\x07\xc0'
p504
tp505
bag22
(g23
(I0
tp506
g25
tp507
Rp508
(I1
(I3
tp509
g163
I00
S'\xc4<$\xcdp\xb5\xe0?2L\xdc\xfe!\xcb\x15\xc0\x11l\xd7[\x91`\n\xc0'
p510
tp511
basS'is_feasible'
p512
I00
ssg47
(lp513
g22
(g23
(I0
tp514
g25
tp515
Rp516
(I1
(I3
tp517
g163
I00
S'\xca\xb3\xd7\x88[,\x0b@`Cr\xb8E\xed\x1f\xc0\xf7\xb5\x0f\x9adR\x13@'
p518
tp519
bag22
(g23
(I0
tp520
g25
tp521
Rp522
(I1
(I3
tp523
g174
I00
S"'+J`\xd3[\x07@\x00\xc6n\t\n\xd7\x1f\xc0Z\xf6\xf8\x80O6\xff\xbf"
p524
tp525
bag22
(g23
(I0
tp526
g25
tp527
Rp528
(I1
(I3
tp529
g174
I00
S'n\xa2\xbc7K\x8b\x03@\x9dHkZ\xce\xc0\x1f\xc0\x19\x08\x90\x0c"\x97\x03\xc0'
p530
tp531
bag22
(g23
(I0
tp532
g25
tp533
Rp534
(I1
(I3
tp535
g174
I00
S':$\tS ;\xfb?G\xc6\x9ep\xc75\x1f\xc08@\xa0=4\x89\xe6\xbf'
p536
tp537
bag22
(g23
(I0
tp538
g25
tp539
Rp540
(I1
(I3
tp541
g174
I00
S"\x16\x94\x96'9\xeb\xf2?\xa16\xd9K\xf3\xbe\x1d\xc0T\x83\x00\xa9\xa7I\xf0\xbf"
p542
tp543
bag22
(g23
(I0
tp544
g25
tp545
Rp546
(I1
(I3
tp547
g174
I00
S'|\xfa\xe6W\xd6\x85\xed?\xf8 \x068~N\x1c\xc0o\xb7\xf7\x8b\xdd*\xd7\xbf'
p548
tp549
bag22
(g23
(I0
tp550
g25
tp551
Rp552
(I1
(I3
tp553
g174
I00
S'X\x9b\x8c[e\xe8\xdb?\xdc\xc11jk\x8b\x1b\xc0\xfe\x18\xeb6\xf7\x88\xc3?'
p554
tp555
bag22
(g23
(I0
tp556
g25
tp557
Rp558
(I1
(I3
tp559
g174
I00
S'`$W\xed\x83\x04\xe1?@\xe9\x80h\xcc\xf0\x18\xc0{2\xe8\xfe\xbeY\r@'
p560
tp561
bag496
asbsVrectangular_packing_box2
p562
(itrajectory_representation.operator
Operator
p563
(dp564
g8
I01
sg9
(dp565
g488
Vrectangular_packing_box2
p566
ssg17
g490
sg19
(dp567
g492
(lp568
g22
(g23
(I0
tp569
g25
tp570
Rp571
(I1
(I3
tp572
g163
I00
S'\xc8\xf5\x07\r\x98o\xfc?\t\xdc\x81=;\xfa\x16\xc0Yd\x8eE\xc2\x97\xf3\xbf'
p573
tp574
bag22
(g23
(I0
tp575
g25
tp576
Rp577
(I1
(I3
tp578
g163
I00
S'\xe4\x85B\xee\x8e\xbf\xf8?\x9a\xd1\xd3\xf5\xf8\xff\x1a\xc0\xa6P\xbd\x02\x99\x8d\xd3?'
p579
tp580
bag22
(g23
(I0
tp581
g25
tp582
Rp583
(I1
(I3
tp584
g163
I00
S'n\xd9q\xc2\xe4\xad\x06@\xac\x14\x82"\xc3v\x18\xc0f\x07\x90\xbc\xf20\x02\xc0'
p585
tp586
bag22
(g23
(I0
tp587
g25
tp588
Rp589
(I1
(I3
tp590
g163
I00
S'\x13\x89\x8e\xf7/b\xfa?\x1cY)l\xc1\xa0\x1b\xc0\xe6k\x85CG\x98\xed?'
p591
tp592
basg512
I00
ssg47
(lp593
g22
(g23
(I0
tp594
g25
tp595
Rp596
(I1
(I3
tp597
g163
I00
S'\xca\xb3\xd7\x88[,\x0b@`Cr\xb8E\xed\x1f\xc0\xf7\xb5\x0f\x9adR\x13@'
p598
tp599
bag22
(g23
(I0
tp600
g25
tp601
Rp602
(I1
(I3
tp603
g174
I00
S'j\xbb@\x07\xd5\xf1\n@^t6\x93?\x1f\x1d\xc0\x013\xdbq\xb3\xf8\xec\xbf'
p604
tp605
bag22
(g23
(I0
tp606
g25
tp607
Rp608
(I1
(I3
tp609
g174
I00
S"\xd4\\\xc6OT'\n@x\r\xc3F\xfex\x1a\xc0n\xd6\xe7\xac\x933\x0c@"
p610
tp611
bag583
asbsVrectangular_packing_box3
p612
(itrajectory_representation.operator
Operator
p613
(dp614
g8
I01
sg9
(dp615
g488
Vrectangular_packing_box3
p616
ssg17
g490
sg19
(dp617
g492
(lp618
g22
(g23
(I0
tp619
g25
tp620
Rp621
(I1
(I3
tp622
g163
I00
S'\xb8\x86\xb5D\x7fb\n@\x1f\xdb\xd0Z\xee\xd1\x1a\xc0R\x18\xf6\xd6\xfdE\xe2?'
p623
tp624
bag22
(g23
(I0
tp625
g25
tp626
Rp627
(I1
(I3
tp628
g163
I00
S'\x88\x82\xe4\x99\x86n\x0b@g\xb7\xfaN\x86\xf4\x15\xc0~\x13\xb8^>8\xf2\xbf'
p629
tp630
bag22
(g23
(I0
tp631
g25
tp632
Rp633
(I1
(I3
tp634
g163
I00
S'\xd6q\xe1V\x16u\n@\x9c\xa0\x8fo\xd0\xba\x1a\xc0ra\xb3V\xa0a\xd1?'
p635
tp636
basg512
I00
ssg47
(lp637
g22
(g23
(I0
tp638
g25
tp639
Rp640
(I1
(I3
tp641
g163
I00
S'\xca\xb3\xd7\x88[,\x0b@`Cr\xb8E\xed\x1f\xc0\xf7\xb5\x0f\x9adR\x13@'
p642
tp643
bag22
(g23
(I0
tp644
g25
tp645
Rp646
(I1
(I3
tp647
g174
I00
S'p^}\x03]\xc1\x06@&\x83\xd9\x0c@\xfa\x1e\xc0\xf1\xdc@H\xf5\xb6\xee\xbf'
p648
tp649
bag22
(g23
(I0
tp650
g25
tp651
Rp652
(I1
(I3
tp653
g174
I00
S'\xf6\x9c\xbc\xd8\xea\x86\x05@\xc8\t,\x83\x04\xa9\x1c\xc0HA\x84\xf4\xe0S\xf1?'
p654
tp655
bag621
asbsg445
(itrajectory_representation.operator
Operator
p656
(dp657
g8
I01
sg9
(dp658
g488
Vrectangular_packing_box1
p659
ssg17
g490
sg19
(dp660
g492
(lp661
g22
(g23
(I0
tp662
g25
tp663
Rp664
(I1
(I3
tp665
g163
I00
S'k\xbc\xb4\xdb1\xd8\x02@\xa2X\x1eX\x07\xa4\x19\xc0\xc4n\x04)\x02K\x0b@'
p666
tp667
bag22
(g23
(I0
tp668
g25
tp669
Rp670
(I1
(I3
tp671
g163
I00
S'\x0f\xe3!r\x14>\x01@i\x14\x8c\x84 \x17\x1b\xc0,f\xed\x85\xac\xee\x05@'
p672
tp673
bag22
(g23
(I0
tp674
g25
tp675
Rp676
(I1
(I3
tp677
g163
I00
S'`K\xdcz\x05<\xfd?\xc7r\xe7\x1e-\xa7\x16\xc0\x0c\xac2\xb4,\x89\xfa\xbf'
p678
tp679
basg512
I00
ssg47
(lp680
g22
(g23
(I0
tp681
g25
tp682
Rp683
(I1
(I3
tp684
g163
I00
S'\xca\xb3\xd7\x88[,\x0b@`Cr\xb8E\xed\x1f\xc0\xf7\xb5\x0f\x9adR\x13@'
p685
tp686
bag22
(g23
(I0
tp687
g25
tp688
Rp689
(I1
(I3
tp690
g174
I00
S'p^}\x03]\xc1\x06@&\x83\xd9\x0c@\xfa\x1e\xc0\xf1\xdc@H\xf5\xb6\xee\xbf'
p691
tp692
bag22
(g23
(I0
tp693
g25
tp694
Rp695
(I1
(I3
tp696
g174
I00
S';\x8f\xd5Y\xee\xd5\x01@\x96Vuf4l\x1f\xc0\x08\xe6\xe9\x98\x9f0\xf6\xbf'
p697
tp698
bag22
(g23
(I0
tp699
g25
tp700
Rp701
(I1
(I3
tp702
g174
I00
S':$\tS ;\xfb?G\xc6\x9ep\xc75\x1f\xc08@\xa0=4\x89\xe6\xbf'
p703
tp704
bag22
(g23
(I0
tp705
g25
tp706
Rp707
(I1
(I3
tp708
g174
I00
S"\x16\x94\x96'9\xeb\xf2?\xa16\xd9K\xf3\xbe\x1d\xc0T\x83\x00\xa9\xa7I\xf0\xbf"
p709
tp710
bag22
(g23
(I0
tp711
g25
tp712
Rp713
(I1
(I3
tp714
g174
I00
S'|\xfa\xe6W\xd6\x85\xed?\xf8 \x068~N\x1c\xc0o\xb7\xf7\x8b\xdd*\xd7\xbf'
p715
tp716
bag22
(g23
(I0
tp717
g25
tp718
Rp719
(I1
(I3
tp720
g174
I00
S'\xb0\xcfg\xd5._\xe8?\xd6\x8d\xba\x87\x91D\x1a\xc0\xea!\xf73\x0cB\xf7\xbf'
p721
tp722
bag22
(g23
(I0
tp723
g25
tp724
Rp725
(I1
(I3
tp726
g174
I00
S'\xf8C*\xbe\x14\xcf\xe8?\x81d\xab\xeb\xa8<\x18\xc0\xc8\\\xf4\x8c\xc3\xfa\xfe\xbf'
p727
tp728
bag22
(g23
(I0
tp729
g25
tp730
Rp731
(I1
(I3
tp732
g174
I00
S'tx\x8as\xa8b\xed?\x9ej\x15\xfa\xf0{\x15\xc0@\xed\x9a-\x9eD\xf2\xbf'
p733
tp734
bag22
(g23
(I0
tp735
g25
tp736
Rp737
(I1
(I3
tp738
g174
I00
S'-%/\xa8h{\xf9?\x98fM\xb1\x8f\x0e\x16\xc0\x8f\x17\x96\x89\xffQ\x10@'
p739
tp740
bag676
asbsg446
(itrajectory_representation.operator
Operator
p741
(dp742
g8
I01
sg9
(dp743
g488
Vsquare_packing_box2
p744
ssg17
g490
sg19
(dp745
g492
(lp746
g22
(g23
(I0
tp747
g25
tp748
Rp749
(I1
(I3
tp750
g163
I00
S'\xd3\xaap\x0f5\x14\xfd?(eYf\xb1X\x19\xc0\x1cC\xc5ubp\xf3\xbf'
p751
tp752
bag22
(g23
(I0
tp753
g25
tp754
Rp755
(I1
(I3
tp756
g163
I00
S'\x142\xd2l\x94\xa3\x04@\xaf\xedr\xb9x\x83\x1b\xc0\xd5M\xa9\xf3\x06\xd5\x07\xc0'
p757
tp758
bag22
(g23
(I0
tp759
g25
tp760
Rp761
(I1
(I3
tp762
g163
I00
S'B\x8c\xfeDFV\xf3?\x9f_\x9d\xb0\xabJ\x1d\xc0|\x8e\xac9\xd5\xf8\xba?'
p763
tp764
bag22
(g23
(I0
tp765
g25
tp766
Rp767
(I1
(I3
tp768
g163
I00
S'\xccj\xad8Db\x04@\x07n:\n\xe8\x84\x1b\xc09\xf0\xa1\xde\x136\x08\xc0'
p769
tp770
bag22
(g23
(I0
tp771
g25
tp772
Rp773
(I1
(I3
tp774
g163
I00
S'\xcac\x8faq\x1a\xf7?\xd6_\xd8\xdc\xda)\x19\xc0\xe1\xeb\xe0g-\x86\xf9\xbf'
p775
tp776
basg512
I00
ssg47
(lp777
g22
(g23
(I0
tp778
g25
tp779
Rp780
(I1
(I3
tp781
g163
I00
S'\xca\xb3\xd7\x88[,\x0b@`Cr\xb8E\xed\x1f\xc0\xf7\xb5\x0f\x9adR\x13@'
p782
tp783
bag22
(g23
(I0
tp784
g25
tp785
Rp786
(I1
(I3
tp787
g174
I00
S'V\xabeZR\xc6\x06@\xab\xe1L\x0ek\xca\x1d\xc01\xff\xe0\xde\xd3f\x10@'
p788
tp789
bag22
(g23
(I0
tp790
g25
tp791
Rp792
(I1
(I3
tp793
g174
I00
S'k\xcc\x8e\xbe0f\x01@\x7f\xf9\x12+*\x1e\x1f\xc0\xb4\x11\x8a\x87\xe2P\x11@'
p794
tp795
bag22
(g23
(I0
tp796
g25
tp797
Rp798
(I1
(I3
tp799
g174
I00
S'I&\xa6\xa8\xc8\xcd\xfb?\xc6\x13\x8e\x17\xd6\xf2\x1e\xc0\x8e\xe8\xdc\x06F\xc0\xaa\xbf'
p800
tp801
bag761
asbsVsquare_packing_box3
p802
(itrajectory_representation.operator
Operator
p803
(dp804
g8
I01
sg9
(dp805
g488
Vsquare_packing_box3
p806
ssg17
g490
sg19
(dp807
g492
(lp808
g22
(g23
(I0
tp809
g25
tp810
Rp811
(I1
(I3
tp812
g163
I00
S'\x98&\x8c\xd63\xdf\x07@\x95\xe9(m\xaf>\x12\xc0`\xc8G\xa6*R\xfa\xbf'
p813
tp814
bag22
(g23
(I0
tp815
g25
tp816
Rp817
(I1
(I3
tp818
g163
I00
S'lT\x83MU\x19\n@\x0e\xe5\xe42V0\x17\xc0G;\x11<&\xff\x02@'
p819
tp820
bag22
(g23
(I0
tp821
g25
tp822
Rp823
(I1
(I3
tp824
g163
I00
S'\xba\x1f\x18S\xa7\x9d\x07@K\xa0V\xa1iK\x12\xc0\xcd\xef\xcd\x01\x97\xea\xff\xbf'
p825
tp826
bag22
(g23
(I0
tp827
g25
tp828
Rp829
(I1
(I3
tp830
g163
I00
S'\xea\x13Z\xbfP=\x04@+\x97\xf9h\x86\x1b\x18\xc0B0\xfc\xf9\xca\xb3\xf7?'
p831
tp832
bag22
(g23
(I0
tp833
g25
tp834
Rp835
(I1
(I3
tp836
g163
I00
S'\xa1&a\x93\xe3\xe8\x05@@(\x9e\xd16\xdf\x17\xc0LD\x8e\xfc2\xd4\xfd?'
p837
tp838
basg512
I00
ssg47
(lp839
g22
(g23
(I0
tp840
g25
tp841
Rp842
(I1
(I3
tp843
g163
I00
S'\xca\xb3\xd7\x88[,\x0b@`Cr\xb8E\xed\x1f\xc0\xf7\xb5\x0f\x9adR\x13@'
p844
tp845
bag22
(g23
(I0
tp846
g25
tp847
Rp848
(I1
(I3
tp849
g174
I00
S'\xb0\x97\xdd\xbanH\x06@\x90-op\xee\t\x1e\xc0x\x05a\xc6\xb0U\x13@'
p850
tp851
bag22
(g23
(I0
tp852
g25
tp853
Rp854
(I1
(I3
tp855
g174
I00
S'\xe8[\xb2\xaa\xa5@\x04@(j\r1!I\x1b\xc0Xj\x8bx\xc9`\xfc?'
p856
tp857
bag829
asbsg12
(itrajectory_representation.operator
Operator
p858
(dp859
g8
I01
sg9
(dp860
g11
g12
ssg17
S'two_arm_pick'
p861
sg19
(dp862
g21
g22
(g23
(I0
tp863
g25
tp864
Rp865
(I1
(I3
tp866
g32
I00
S'\xf4\x98\xed\xd0\xfc]\xec?cb\xc0c\xe4?\x1d\xc0\xd4xy\xc2V=\x08\xc0'
p867
tp868
bssg47
(lp869
g22
(g23
(I0
tp870
g25
tp871
Rp872
(I1
(I3
tp873
g163
I00
S'\xca\xb3\xd7\x88[,\x0b@`Cr\xb8E\xed\x1f\xc0\xf7\xb5\x0f\x9adR\x13@'
p874
tp875
bag22
(g23
(I0
tp876
g25
tp877
Rp878
(I1
(I3
tp879
g174
I00
S'sL@\xf8\xbf\x12\x06@\xa9_:\x94go\x1f\xc0\xc0\x96\xc8\xcc\xba}\x0b\xc0'
p880
tp881
bag22
(g23
(I0
tp882
g25
tp883
Rp884
(I1
(I3
tp885
g174
I00
S'j3^\x1e\x86u\xff?:\xcbg\xab\x92\xaa\x1f\xc0\x05\x95\xa3X\x1c\x93\x07\xc0'
p886
tp887
bag22
(g23
(I0
tp888
g25
tp889
Rp890
(I1
(I3
tp891
g174
I00
S'\xack\x86\xecj\xbe\xf2?\x96O\xb7\x87\x84\x85\x1f\xc0\xfa\x84\x19\xd1\xe3\x0c\x04@'
p892
tp893
bag865
asbsg447
(itrajectory_representation.operator
Operator
p894
(dp895
g8
I01
sg9
(dp896
g488
Vsquare_packing_box4
p897
ssg17
g490
sg19
(dp898
g492
(lp899
g22
(g23
(I0
tp900
g25
tp901
Rp902
(I1
(I3
tp903
g163
I00
S'\xce\x82j&.\\\x04@\xf4zt\xe0\xe6?\x19\xc0\x97\xf3O\x93c\xf2\xdd\xbf'
p904
tp905
bag22
(g23
(I0
tp906
g25
tp907
Rp908
(I1
(I3
tp909
g163
I00
S'Mt\xeby\xc5\xee\x07@\x10\xb3\xcb\xb2\x99\x1b\x1d\xc0N\xd1(J\xd1M\xf4?'
p910
tp911
bag22
(g23
(I0
tp912
g25
tp913
Rp914
(I1
(I3
tp915
g163
I00
S'\xf8\x83\x9f\xa5}:\x0c@7\xc1\x1a\x83\x9e\n\x17\xc01\xfd\x92\x15RL\xf7\xbf'
p916
tp917
basg512
I00
ssg47
(lp918
g22
(g23
(I0
tp919
g25
tp920
Rp921
(I1
(I3
tp922
g163
I00
S'\xca\xb3\xd7\x88[,\x0b@`Cr\xb8E\xed\x1f\xc0\xf7\xb5\x0f\x9adR\x13@'
p923
tp924
bag22
(g23
(I0
tp925
g25
tp926
Rp927
(I1
(I3
tp928
g174
I00
S'\xb2\x91\xf9\xeaA\x9c\x0e@\xc4B\xe1:\xd6  \xc0\xe5\xd6\x17\xd6\xf8\xa6\x08\xc0'
p929
tp930
bag22
(g23
(I0
tp931
g25
tp932
Rp933
(I1
(I3
tp934
g174
I00
S'\x80\xa1h\xe4;\xe7\x0c@.&v\x81m7\x1d\xc0C\x06:M\rW\xf8?'
p935
tp936
bag908
asbssS'mc_paths'
p937
(dp938
sS'robot'
p939
NsS'reachable_obj_region_pairs'
p940
(lp941
sS'sampled_pick_configs_for_objects'
p942
(dp943
Vsquare_packing_box3
p944
g808
ssS'mc_calls'
p945
I7
sS'pick_poses'
p946
g484
sS'problem_env'
p947
NsS'evaluations'
p948
(dp949
(g317
g153
g154
tp950
I01
s(g374
g153
g154
tp951
I01
s(g153
g944
g154
tp952
I00
s(g944
Vsquare_packing_box1
p953
g154
tp954
I00
s(g266
g374
g154
tp955
I00
s(g944
g153
g154
tp956
I00
s(g374
g953
g154
tp957
I00
s(g317
g953
g154
tp958
I00
s(g317
Vrectangular_packing_box4
p959
g154
tp960
I00
s(g374
g209
g154
tp961
I00
s(g266
g944
g154
tp962
I01
s(g944
g266
g154
tp963
I00
s(g153
g317
g154
tp964
I01
s(g209
g953
g154
tp965
I00
s(g266
g317
g154
tp966
I01
s(g944
g959
g154
tp967
I00
s(g153
g953
g154
tp968
I00
s(g209
g959
g154
tp969
I00
s(g153
g266
g154
tp970
I00
s(g209
g944
g154
tp971
I00
s(g209
g317
g154
tp972
I01
s(g944
g317
g154
tp973
I00
s(g266
g153
g154
tp974
I01
s(g317
g266
g154
tp975
I00
s(g374
g317
g154
tp976
I01
s(g266
g959
g154
tp977
I00
s(g209
g266
g154
tp978
I01
s(g374
g959
g154
tp979
I01
s(g944
g374
g154
tp980
I00
s(g944
g209
g154
tp981
I00
s(g374
g266
g154
tp982
I00
s(g266
g209
g154
tp983
I00
s(g374
g944
g154
tp984
I00
s(g317
g944
g154
tp985
I00
s(g317
g209
g154
tp986
I00
s(g209
g153
g154
tp987
I01
s(g153
g374
g154
tp988
I00
s(g266
g953
g154
tp989
I00
s(g153
g959
g154
tp990
I00
s(g209
g374
g154
tp991
I00
s(g153
g209
g154
tp992
I00
s(g317
g374
g154
tp993
I00
ssS'paths_to_reachable_entities'
p994
NsS'use_shortest_path'
p995
I01
sbsS'ternary_edges'
p996
(dp997
(g153
g153
g154
tp998
(lp999
I00
as(g953
S'loading_region'
p1000
g1000
tp1001
(lp1002
I00
as(S'entire_region'
p1003
g317
g154
tp1004
(lp1005
I00
as(g374
g266
g1000
tp1006
(lp1007
I00
as(g154
g154
g154
tp1008
(lp1009
I00
as(g266
g153
g1000
tp1010
(lp1011
I00
as(g953
g209
g154
tp1012
(lp1013
I00
as(g154
g959
g154
tp1014
(lp1015
I00
as(g374
g953
g154
tp1016
(lp1017
I00
as(g209
g959
g1000
tp1018
(lp1019
I00
as(g154
g266
g1000
tp1020
(lp1021
I00
as(g374
g1003
g154
tp1022
(lp1023
I00
as(g1000
g154
g1000
tp1024
(lp1025
I00
as(g959
g944
g154
tp1026
(lp1027
I00
as(g266
g1003
g154
tp1028
(lp1029
I00
as(g374
g317
g1000
tp1030
(lp1031
I00
as(g944
g1000
g154
tp1032
(lp1033
I00
as(g1003
g153
g1000
tp1034
(lp1035
I00
as(g154
g1003
g154
tp1036
(lp1037
I00
as(g153
g1000
g154
tp1038
(lp1039
I00
as(g944
g1003
g154
tp1040
(lp1041
I00
as(g953
g953
g1000
tp1042
(lp1043
I00
as(g1000
g266
g1000
tp1044
(lp1045
I00
as(g1003
g1000
g154
tp1046
(lp1047
I00
as(g1003
g374
g154
tp1048
(lp1049
I00
as(g1000
g1000
g154
tp1050
(lp1051
I00
as(g944
g959
g1000
tp1052
(lp1053
I00
as(g154
g154
g1000
tp1054
(lp1055
I00
as(g317
g374
g1000
tp1056
(lp1057
I00
as(g153
g266
g154
tp1058
(lp1059
I00
as(g944
g953
g154
tp1060
(lp1061
I00
as(g317
g154
g1000
tp1062
(lp1063
I00
as(g154
g153
g1000
tp1064
(lp1065
I00
as(g317
g209
g1000
tp1066
(lp1067
I00
as(g209
g317
g154
tp1068
(lp1069
I01
as(g1000
g953
g1000
tp1070
(lp1071
I00
as(g266
g374
g1000
tp1072
(lp1073
I00
as(g153
g153
g1000
tp1074
(lp1075
I00
as(g1003
g266
g154
tp1076
(lp1077
I00
as(g1000
g154
g154
tp1078
(lp1079
I00
as(g959
g153
g154
tp1080
(lp1081
I00
as(g154
g209
g154
tp1082
(lp1083
I00
as(g374
g317
g154
tp1084
(lp1085
I01
as(g209
g266
g154
tp1086
(lp1087
I01
as(g953
g209
g1000
tp1088
(lp1089
I00
as(g944
g374
g154
tp1090
(lp1091
I00
as(g374
g953
g1000
tp1092
(lp1093
I00
as(g374
g153
g1000
tp1094
(lp1095
I00
as(g1003
g374
g1000
tp1096
(lp1097
I00
as(g1000
g209
g1000
tp1098
(lp1099
I00
as(g1003
g154
g154
tp1100
(lp1101
I00
as(g959
g154
g154
tp1102
(lp1103
I00
as(g1000
g1003
g154
tp1104
(lp1105
I00
as(g153
g266
g1000
tp1106
(lp1107
I00
as(g944
g153
g1000
tp1108
(lp1109
I00
as(g944
g944
g154
tp1110
(lp1111
I00
as(g317
g209
g154
tp1112
(lp1113
I00
as(g1003
g153
g154
tp1114
(lp1115
I00
as(g317
g1000
g1000
tp1116
(lp1117
I00
as(g266
g953
g154
tp1118
(lp1119
I00
as(g953
g953
g154
tp1120
(lp1121
I00
as(g953
g959
g154
tp1122
(lp1123
I00
as(g959
g153
g1000
tp1124
(lp1125
I00
as(g266
g317
g1000
tp1126
(lp1127
I00
as(g944
g959
g154
tp1128
(lp1129
I00
as(g317
g374
g154
tp1130
(lp1131
I00
as(g153
g317
g1000
tp1132
(lp1133
I00
as(g317
g154
g154
tp1134
(lp1135
I00
as(g374
g153
g154
tp1136
(lp1137
I01
as(g153
g944
g154
tp1138
(lp1139
I00
as(g209
g317
g1000
tp1140
(lp1141
I00
as(g154
g374
g1000
tp1142
(lp1143
I00
as(g1003
g154
g1000
tp1144
(lp1145
I00
as(g1003
g266
g1000
tp1146
(lp1147
I00
as(g944
g153
g154
tp1148
(lp1149
I00
as(g209
g944
g1000
tp1150
(lp1151
I00
as(g153
g1003
g1000
tp1152
(lp1153
I00
as(g317
g1000
g154
tp1154
(lp1155
I00
as(g944
g374
g1000
tp1156
(lp1157
I00
as(g944
g317
g1000
tp1158
(lp1159
I00
as(g266
g953
g1000
tp1160
(lp1161
I00
as(g154
g209
g1000
tp1162
(lp1163
I00
as(g1003
g944
g1000
tp1164
(lp1165
I00
as(g1000
g209
g154
tp1166
(lp1167
I00
as(g1000
g374
g1000
tp1168
(lp1169
I00
as(g153
g317
g154
tp1170
(lp1171
I01
as(g266
g317
g154
tp1172
(lp1173
I01
as(g1000
g944
g154
tp1174
(lp1175
I00
as(g153
g944
g1000
tp1176
(lp1177
I00
as(g153
g959
g1000
tp1178
(lp1179
I00
as(g209
g266
g1000
tp1180
(lp1181
I00
as(g953
g959
g1000
tp1182
(lp1183
I00
as(g317
g944
g1000
tp1184
(lp1185
I00
as(g154
g953
g1000
tp1186
(lp1187
I00
as(g209
g1000
g1000
tp1188
(lp1189
I00
as(g959
g154
g1000
tp1190
(lp1191
I00
as(g953
g317
g154
tp1192
(lp1193
I00
as(g153
g1003
g154
tp1194
(lp1195
I00
as(g959
g374
g1000
tp1196
(lp1197
I00
as(g209
g153
g1000
tp1198
(lp1199
I00
as(g944
g317
g154
tp1200
(lp1201
I00
as(g266
g1000
g1000
tp1202
(lp1203
I00
as(g374
g154
g154
tp1204
(lp1205
I00
as(g266
g959
g154
tp1206
(lp1207
I00
as(g154
g944
g1000
tp1208
(lp1209
I00
as(g1000
g317
g1000
tp1210
(lp1211
I00
as(g1000
g944
g1000
tp1212
(lp1213
I00
as(g953
g944
g154
tp1214
(lp1215
I00
as(g317
g944
g154
tp1216
(lp1217
I00
as(g953
g317
g1000
tp1218
(lp1219
I00
as(g209
g153
g154
tp1220
(lp1221
I01
as(g153
g374
g154
tp1222
(lp1223
I00
as(g209
g154
g1000
tp1224
(lp1225
I00
as(g266
g1000
g154
tp1226
(lp1227
I00
as(g1000
g959
g1000
tp1228
(lp1229
I00
as(g153
g959
g154
tp1230
(lp1231
I00
as(g209
g209
g154
tp1232
(lp1233
I00
as(g959
g959
g154
tp1234
(lp1235
I00
as(g959
g209
g1000
tp1236
(lp1237
I00
as(g209
g1000
g154
tp1238
(lp1239
I00
as(g944
g266
g154
tp1240
(lp1241
I00
as(g959
g374
g154
tp1242
(lp1243
I00
as(g374
g1000
g1000
tp1244
(lp1245
I00
as(g209
g1003
g1000
tp1246
(lp1247
I00
as(g374
g154
g1000
tp1248
(lp1249
I00
as(g953
g374
g1000
tp1250
(lp1251
I00
as(g266
g959
g1000
tp1252
(lp1253
I00
as(g944
g154
g1000
tp1254
(lp1255
I00
as(g209
g154
g154
tp1256
(lp1257
I00
as(g1000
g959
g154
tp1258
(lp1259
I00
as(g317
g317
g154
tp1260
(lp1261
I00
as(g1000
g266
g154
tp1262
(lp1263
I00
as(g266
g944
g154
tp1264
(lp1265
I01
as(g953
g153
g154
tp1266
(lp1267
I00
as(g953
g944
g1000
tp1268
(lp1269
I00
as(g959
g953
g1000
tp1270
(lp1271
I00
as(g154
g374
g154
tp1272
(lp1273
I00
as(g1003
g209
g1000
tp1274
(lp1275
I00
as(g209
g953
g154
tp1276
(lp1277
I00
as(g317
g1003
g154
tp1278
(lp1279
I00
as(g944
g266
g1000
tp1280
(lp1281
I00
as(g944
g209
g1000
tp1282
(lp1283
I00
as(g959
g317
g154
tp1284
(lp1285
I00
as(g153
g374
g1000
tp1286
(lp1287
I00
as(g959
g1000
g154
tp1288
(lp1289
I00
as(g209
g1003
g154
tp1290
(lp1291
I00
as(g266
g209
g1000
tp1292
(lp1293
I00
as(g153
g953
g154
tp1294
(lp1295
I00
as(g944
g953
g1000
tp1296
(lp1297
I00
as(g266
g266
g1000
tp1298
(lp1299
I00
as(g959
g959
g1000
tp1300
(lp1301
I00
as(g317
g317
g1000
tp1302
(lp1303
I00
as(g953
g266
g1000
tp1304
(lp1305
I00
as(g266
g374
g154
tp1306
(lp1307
I00
as(g1003
g953
g154
tp1308
(lp1309
I00
as(g154
g1003
g1000
tp1310
(lp1311
I00
as(g154
g317
g1000
tp1312
(lp1313
I00
as(g374
g1000
g154
tp1314
(lp1315
I00
as(g953
g153
g1000
tp1316
(lp1317
I00
as(g317
g953
g1000
tp1318
(lp1319
I00
as(g209
g209
g1000
tp1320
(lp1321
I00
as(g1003
g209
g154
tp1322
(lp1323
I00
as(g374
g209
g1000
tp1324
(lp1325
I00
as(g317
g1003
g1000
tp1326
(lp1327
I00
as(g953
g374
g154
tp1328
(lp1329
I00
as(g959
g317
g1000
tp1330
(lp1331
I00
as(g959
g209
g154
tp1332
(lp1333
I00
as(g266
g209
g154
tp1334
(lp1335
I00
as(g953
g154
g1000
tp1336
(lp1337
I00
as(g374
g944
g154
tp1338
(lp1339
I00
as(g944
g944
g1000
tp1340
(lp1341
I00
as(g959
g1003
g154
tp1342
(lp1343
I00
as(g1000
g1003
g1000
tp1344
(lp1345
I00
as(g266
g944
g1000
tp1346
(lp1347
I00
as(g1000
g317
g154
tp1348
(lp1349
I00
as(g1003
g1003
g1000
tp1350
(lp1351
I00
as(g959
g953
g154
tp1352
(lp1353
I00
as(g953
g266
g154
tp1354
(lp1355
I00
as(g1000
g153
g1000
tp1356
(lp1357
I00
as(g209
g953
g1000
tp1358
(lp1359
I00
as(g944
g154
g154
tp1360
(lp1361
I00
as(g1003
g953
g1000
tp1362
(lp1363
I00
as(g944
g209
g154
tp1364
(lp1365
I00
as(g209
g374
g154
tp1366
(lp1367
I00
as(g959
g1000
g1000
tp1368
(lp1369
I00
as(g153
g953
g1000
tp1370
(lp1371
I00
as(g317
g153
g154
tp1372
(lp1373
I01
as(g1003
g1000
g1000
tp1374
(lp1375
I00
as(g1000
g153
g154
tp1376
(lp1377
I00
as(g953
g1003
g154
tp1378
(lp1379
I00
as(g374
g944
g1000
tp1380
(lp1381
I00
as(g374
g959
g1000
tp1382
(lp1383
I00
as(g266
g154
g154
tp1384
(lp1385
I00
as(g959
g1003
g1000
tp1386
(lp1387
I00
as(g959
g266
g154
tp1388
(lp1389
I00
as(g1003
g959
g1000
tp1390
(lp1391
I00
as(g154
g317
g154
tp1392
(lp1393
I00
as(g154
g944
g154
tp1394
(lp1395
I00
as(g317
g953
g154
tp1396
(lp1397
I00
as(g317
g959
g154
tp1398
(lp1399
I00
as(g1003
g944
g154
tp1400
(lp1401
I00
as(g374
g209
g154
tp1402
(lp1403
I00
as(g374
g374
g1000
tp1404
(lp1405
I00
as(g317
g266
g1000
tp1406
(lp1407
I00
as(g266
g154
g1000
tp1408
(lp1409
I00
as(g153
g154
g154
tp1410
(lp1411
I00
as(g953
g154
g154
tp1412
(lp1413
I00
as(g317
g153
g1000
tp1414
(lp1415
I00
as(g266
g153
g154
tp1416
(lp1417
I01
as(g154
g1000
g154
tp1418
(lp1419
I00
as(g1003
g1003
g154
tp1420
(lp1421
I00
as(g153
g209
g1000
tp1422
(lp1423
I00
as(g953
g1003
g1000
tp1424
(lp1425
I00
as(g1000
g374
g154
tp1426
(lp1427
I00
as(g209
g959
g154
tp1428
(lp1429
I00
as(g1003
g959
g154
tp1430
(lp1431
I00
as(g953
g1000
g154
tp1432
(lp1433
I00
as(g209
g374
g1000
tp1434
(lp1435
I00
as(g154
g953
g154
tp1436
(lp1437
I00
as(g1003
g317
g1000
tp1438
(lp1439
I00
as(g266
g1003
g1000
tp1440
(lp1441
I00
as(g374
g374
g154
tp1442
(lp1443
I00
as(g317
g266
g154
tp1444
(lp1445
I00
as(g944
g1003
g1000
tp1446
(lp1447
I00
as(g374
g959
g154
tp1448
(lp1449
I01
as(g154
g266
g154
tp1450
(lp1451
I00
as(g209
g944
g154
tp1452
(lp1453
I00
as(g959
g266
g1000
tp1454
(lp1455
I00
as(g266
g266
g154
tp1456
(lp1457
I00
as(g317
g959
g1000
tp1458
(lp1459
I00
as(g374
g266
g154
tp1460
(lp1461
I00
as(g944
g1000
g1000
tp1462
(lp1463
I00
as(g154
g153
g154
tp1464
(lp1465
I00
as(g153
g1000
g1000
tp1466
(lp1467
I00
as(g154
g959
g1000
tp1468
(lp1469
I00
as(g153
g154
g1000
tp1470
(lp1471
I00
as(g1000
g1000
g1000
tp1472
(lp1473
I00
as(g374
g1003
g1000
tp1474
(lp1475
I00
as(g959
g944
g1000
tp1476
(lp1477
I00
as(g154
g1000
g1000
tp1478
(lp1479
I00
as(g153
g209
g154
tp1480
(lp1481
I00
as(g1000
g953
g154
tp1482
(lp1483
I00
assg483
g484
sS'use_prm'
p1484
I01
sS'object_names'
p1485
(lp1486
S'square_packing_box1'
p1487
aS'rectangular_packing_box1'
p1488
aS'square_packing_box2'
p1489
aS'rectangular_packing_box2'
p1490
aS'square_packing_box3'
p1491
aS'rectangular_packing_box3'
p1492
aS'square_packing_box4'
p1493
aS'rectangular_packing_box4'
p1494
asg947
NsS'current_holding_collides'
p1495
NsS'object_poses'
p1496
(dp1497
Vrectangular_packing_box4
p1498
g22
(g23
(I0
tp1499
g25
tp1500
Rp1501
(I1
(I1
I3
tp1502
g163
I00
S'\x88K\xaa\x86\xee\xc1\xc3\xbf\x08C\xd3\xbbP\x84\x16\xc0\xfaxX\xfa\xa4\xa5\xfc?'
p1503
tp1504
bsVrectangular_packing_box2
p1505
g22
(g23
(I0
tp1506
g25
tp1507
Rp1508
(I1
(I1
I3
tp1509
g163
I00
S'\x98\xcbZ\x933W\x01@B\xc11s\xdf\xcb\x19\xc0o6~\xdc\x80\xa3\x01@'
p1510
tp1511
bsVrectangular_packing_box3
p1512
g22
(g23
(I0
tp1513
g25
tp1514
Rp1515
(I1
(I1
I3
tp1516
g163
I00
S'\xab\x0e\x96\x1f\xf5V\x0f@\xe7x\t(7\xc2\x18\xc0\x04\x86d\xcc\x10\x86\x15@'
p1517
tp1518
bsVrectangular_packing_box1
p1519
g22
(g23
(I0
tp1520
g25
tp1521
Rp1522
(I1
(I1
I3
tp1523
g163
I00
S'n\xa7\xe7g\xa0a\xf8?\x98C\x04\xf6\x9c0\x19\xc0\x06\xf7h\xb0\xe1C\x18@'
p1524
tp1525
bsVsquare_packing_box2
p1526
g22
(g23
(I0
tp1527
g25
tp1528
Rp1529
(I1
(I1
I3
tp1530
g163
I00
S'N\xfd\x82\xf8\x13R\xfd?L;R\x8b\xe8A\x1c\xc0\xc7\xef\xac20C\xfe?'
p1531
tp1532
bsVsquare_packing_box3
p1533
g22
(g23
(I0
tp1534
g25
tp1535
Rp1536
(I1
(I1
I3
tp1537
g163
I00
S'\xa6\x11\x84\xac\xfd\xdd\x04@.S\xca\xda\xa2h\x15\xc0W[T!\x9e\xb9\x16@'
p1538
tp1539
bsVsquare_packing_box1
p1540
g22
(g23
(I0
tp1541
g25
tp1542
Rp1543
(I1
(I1
I3
tp1544
g163
I00
S"\xf0\xd5:=\x11v\xc7?\xec\x99<\xbc\x1d[\x1e\xc0\\\xae\xeal'\x98\xe3?"
p1545
tp1546
bsVsquare_packing_box4
p1547
g22
(g23
(I0
tp1548
g25
tp1549
Rp1550
(I1
(I1
I3
tp1551
g163
I00
S'\\\tH1v_\n@o\xb0\xf8\xfd\xda\xda\x19\xc0\x08?\xa3F\x7f9\xf5?'
p1552
tp1553
bssS'reachable_regions_while_holding'
p1554
(lp1555
(g444
g1000
tp1556
a(g562
g1000
tp1557
a(g612
g1000
tp1558
a(g445
g1000
tp1559
a(g446
g1000
tp1560
a(g802
g1000
tp1561
a(g12
g1000
tp1562
a(g447
g1000
tp1563
a(g444
g154
tp1564
a(g12
g154
tp1565
asS'in_region'
p1566
(itrajectory_representation.predicates.in_region
InRegion
p1567
(dp1568
g947
NsbsS'cached_pick_paths'
p1569
(dp1570
g444
g513
sg562
g593
sg612
g637
sg445
g680
sg446
g777
sg802
g839
sg12
g869
sg447
g918
ssg448
(dp1571
(Vrectangular_packing_box1
p1572
(cnumpy.core.multiarray
scalar
p1573
(g163
S'\xa8\x00\x18\xcf\xa0a\xf8?'
p1574
tp1575
Rp1576
g1573
(g163
S"'\xa45\x06\x9d0\x19\xc0"
p1577
tp1578
Rp1579
g1573
(g163
S'\x98\x13\xb4\xc9\xe1C\x18@'
p1580
tp1581
Rp1582
tp1583
tp1584
g466
s(Vrectangular_packing_box4
p1585
(g1573
(g163
S'\x02\x7f\xf8\xf9\xef\xc1\xc3\xbf'
p1586
tp1587
Rp1588
g1573
(g163
S'\xcb\xbd\xc0\xacP\x84\x16\xc0'
p1589
tp1590
Rp1591
g1573
(g163
S':\xaeFv\xa5\xa5\xfc?'
p1592
tp1593
Rp1594
tp1595
tp1596
g454
s(Vrectangular_packing_box3
p1597
(g1573
(g163
S'\xf4\x1a\xbbD\xf5V\x0f@'
p1598
tp1599
Rp1600
g1573
(g163
S'\x07\xea\x94G7\xc2\x18\xc0'
p1601
tp1602
Rp1603
g1573
(g163
S'E-\xcd\xad\x10\x86\x15@'
p1604
tp1605
Rp1606
tp1607
tp1608
g462
s(Vsquare_packing_box4
p1609
(g1573
(g163
S')\xcf\xbc\x1cv_\n@'
p1610
tp1611
Rp1612
g1573
(g163
S'78\x11\xfd\xda\xda\x19\xc0'
p1613
tp1614
Rp1615
g1573
(g163
S'x\xf1~\xdc~9\xf5?'
p1616
tp1617
Rp1618
tp1619
tp1620
g482
s(Vsquare_packing_box3
p1621
(g1573
(g163
S'7\xa9h\xac\xfd\xdd\x04@'
p1622
tp1623
Rp1624
g1573
(g163
S'\xa7\xb2(\xec\xa2h\x15\xc0'
p1625
tp1626
Rp1627
g1573
(g163
S'J`s\x0e\x9e\xb9\x16@'
p1628
tp1629
Rp1630
tp1631
tp1632
g474
s(Vrectangular_packing_box2
p1633
(g1573
(g163
S'\x98\xf8\xa3\xa83W\x01@'
p1634
tp1635
Rp1636
g1573
(g163
S'@0G\x8f\xdf\xcb\x19\xc0'
p1637
tp1638
Rp1639
g1573
(g163
S'\xffX\x88\x0e\x81\xa3\x01@'
p1640
tp1641
Rp1642
tp1643
tp1644
g458
s(Vsquare_packing_box1
p1645
(g1573
(g163
S'mXSY\x14v\xc7?'
p1646
tp1647
Rp1648
g1573
(g163
S'\x8c\xdc\xd3\xd5\x1d[\x1e\xc0'
p1649
tp1650
Rp1651
g1573
(g163
S'\xe0\xd5rg&\x98\xe3?'
p1652
tp1653
Rp1654
tp1655
tp1656
g478
s(Vsquare_packing_box2
p1657
(g1573
(g163
S'\rP\x1aj\x14R\xfd?'
p1658
tp1659
Rp1660
g1573
(g163
S'\xb3(\xec\xa2\xe8A\x1c\xc0'
p1661
tp1662
Rp1663
g1573
(g163
S'\x8e\xe6\xc8\xca/C\xfe?'
p1664
tp1665
Rp1666
tp1667
tp1668
g470
ssS'state_saver'
p1669
(igtamp_utils.utils
CustomStateSaver
p1670
(dp1671
S'robot_base_pose'
p1672
g22
(g23
(I0
tp1673
g25
tp1674
Rp1675
(I1
(I1
I3
tp1676
g163
I00
S'\xce\xb3\xd7\x88[,\x0b@^Cr\xb8E\xed\x1f\xc0\xf7\xb5\x0f\x9adR\x13@'
p1677
tp1678
bsS'held_object'
p1679
NsS'robot_name'
p1680
S'pr2'
p1681
sS'env_id'
p1682
I1
sg1496
(dp1683
Vright_wall_1
p1684
g22
(g23
(I0
tp1685
g25
tp1686
Rp1687
(I1
(I4
tp1688
g163
I00
S'H\xe1z\x14\xaeG\x12@&\\\x8f\xc2\xf5(\xd4\xbf\xcc\x7fH\xbf}\x1d\xed?\x00\x00\x00\x00\x00\x00\x00\x00'
p1689
tp1690
bsVc_obst5
p1691
g22
(g23
(I0
tp1692
g25
tp1693
Rp1694
(I1
(I4
tp1695
g163
I00
S"X\xad\xc4(M\x8b\x12@*\xeb\xe7M\xa6\xaa\xc6?e\xaa`TR'\xed?e\xc1\xf5 ]\xe9\x0f@"
p1696
tp1697
bsVentrance_right
p1698
g22
(g23
(I0
tp1699
g25
tp1700
Rp1701
(I1
(I4
tp1702
g163
I00
S'ffffff\n@H\xe1z\x14\xaeG\t\xc0\x9c\xc4 \xb0rh\xc1?\x00\x00\x00\x00\x00\x00\x00\x00'
p1703
tp1704
bsVcomputer_table
p1705
g22
(g23
(I0
tp1706
g25
tp1707
Rp1708
(I1
(I4
tp1709
g163
I00
S'\x00\x00\x00\x00\x00\x00\x13@\x00\x00\x00\x00\x00\x00\xf8\xbf\x96C\x8bl\xe7\xfb\xe7?\xd2!3\x7f|\xd9\x12@'
p1710
tp1711
bsVchair_6b56
p1712
g22
(g23
(I0
tp1713
g25
tp1714
Rp1715
(I1
(I4
tp1716
g163
I00
S'u=\n\xd7\xa3p\xf5?K\xe1z\x14\xaeG\xd1?\x00\x00\x00\x00\x00\x00\x00\x00\xd6$\xfaNBm\n@'
p1717
tp1718
bsVsquare_packing_box3
p1719
g22
(g23
(I0
tp1720
g25
tp1721
Rp1722
(I1
(I4
tp1723
g163
I00
S'\xa7\x11\x84\xac\xfd\xdd\x04@0S\xca\xda\xa2h\x15\xc0L7\x89A`\xe5\xd8?W[T!\x9e\xb9\x16@'
p1724
tp1725
bsVsquare_packing_box2
p1726
g22
(g23
(I0
tp1727
g25
tp1728
Rp1729
(I1
(I4
tp1730
g163
I00
S'P\xfd\x82\xf8\x13R\xfd?N;R\x8b\xe8A\x1c\xc0L7\x89A`\xe5\xd8?\xc7\xef\xac20C\xfe?'
p1731
tp1732
bsVtable
p1733
g22
(g23
(I0
tp1734
g25
tp1735
Rp1736
(I1
(I4
tp1737
g163
I00
S'\x7f\xf6#EdX\xed?\xac\xffs\x98//\xc0\xbf\x00\x00\x00\x00\x00\x00\x00\x00\x00\x00\x00\x00\x00\x00\x00\x00'
p1738
tp1739
bsVsquare_packing_box1
p1740
g22
(g23
(I0
tp1741
g25
tp1742
Rp1743
(I1
(I4
tp1744
g163
I00
S"\x80\xd5:=\x11v\xc7?\xec\x99<\xbc\x1d[\x1e\xc0L7\x89A`\xe5\xd8?\\\xae\xeal'\x98\xe3?"
p1745
tp1746
bsVback_wall_2
p1747
g22
(g23
(I0
tp1748
g25
tp1749
Rp1750
(I1
(I4
tp1751
g163
I00
S'\xaeG\xe1z\x14.\x13@\x80\x14\xaeG\xe1z\xc4?xX\xa85\xcd\xbb\xf2?\x00\x00\x00\x00\x00\x00\x00\x00'
p1752
tp1753
bsVchair_083c
p1754
g22
(g23
(I0
tp1755
g25
tp1756
Rp1757
(I1
(I4
tp1758
g163
I00
S'\xa4p=\n\xd7\xa3\xe0?333333\xe3\xbf\x00\x00\x00\x00\x00\x00\x00\x00\x00\x00\x00\x00\x00\x00\x00\x00'
p1759
tp1760
bsVback_wall_1
p1761
g22
(g23
(I0
tp1762
g25
tp1763
Rp1764
(I1
(I4
tp1765
g163
I00
S'\xaeG\xe1z\x14.\x13@\x80\x14\xaeG\xe1z\xc4?\xcc\x7fH\xbf}\x1d\xed?\x00\x00\x00\x00\x00\x00\x00\x00'
p1766
tp1767
bsVbottom_wall
p1768
g22
(g23
(I0
tp1769
g25
tp1770
Rp1771
(I1
(I4
tp1772
g163
I00
S'\x00\x00\x00\x00\x00\x00\xfc?\x00\x00\x00\x00\x00\x00\x00\x00\x00\x00\x00\x00\x00\x00\x00\x00\x00\x00\x00\x00\x00\x00\x00\x00'
p1773
tp1774
bsVcup_905a
p1775
g22
(g23
(I0
tp1776
g25
tp1777
Rp1778
(I1
(I4
tp1779
g163
I00
S'\x00\x00\x00\x00\x00\x00\xf0?\x83\xc0\xca\xa1E\xb6\xdb?\x1b/\xdd$\x06\x81\xed?\x00\x00\x00\x00\x00\x00\x00\x00'
p1780
tp1781
bsVplate_496f
p1782
g22
(g23
(I0
tp1783
g25
tp1784
Rp1785
(I1
(I4
tp1786
g163
I00
S"q=\n\xd7\xa3p\xe5?\x9dhW!\xe5'\xdd\xbf\x1b/\xdd$\x06\x81\xed?\x00\x00\x00\x00\x00\x00\x00\x00"
p1787
tp1788
bsVtoaster
p1789
g22
(g23
(I0
tp1790
g25
tp1791
Rp1792
(I1
(I4
tp1793
g163
I00
S')\\\x8f\xc2\xf5(\xf4\xbf\xe0z\x14\xaeG\xe1\xf2\xbf\xb8\x1e\x85\xebQ\xb8\xee?\x89/`\x9b\xf8\x8a\xe4?'
p1794
tp1795
bsVc_obst1
p1796
g22
(g23
(I0
tp1797
g25
tp1798
Rp1799
(I1
(I4
tp1800
g163
I00
S"y\x8f\xdd\x04\xea\xf7\x11@@p\x11\x81\xc5n\xc9\xbfe\xaa`TR'\xed?\x11\n}\xfc\xbes\x0f@"
p1801
tp1802
bsVrectangular_packing_box4
p1803
g22
(g23
(I0
tp1804
g25
tp1805
Rp1806
(I1
(I4
tp1807
g163
I00
S'\xa0K\xaa\x86\xee\xc1\xc3\xbf\x04C\xd3\xbbP\x84\x16\xc0L7\x89A`\xe5\xd8?\xfaxX\xfa\xa4\xa5\xfc?'
p1808
tp1809
bsVmicrowave
p1810
g22
(g23
(I0
tp1811
g25
tp1812
Rp1813
(I1
(I4
tp1814
g163
I00
S'\x9a\x99\x99\x99\x99\x99\xf1\xbf\x00\x00\x00\x00\x00\x00\x00@7\x89A`\xe5\xd0\xee?\x00\x00\x00\x00\x00\x00\x00\x00'
p1815
tp1816
bsVc_obst7
p1817
g22
(g23
(I0
tp1818
g25
tp1819
Rp1820
(I1
(I4
tp1821
g163
I00
S"\x9c\xed\xb42\x1aZ\x12@\x00\xdd\xfd\xf46f\x84?e\xaa`TR'\xed?9\xdb\xae\x87p\x0e\x13@"
p1822
tp1823
bsVc_obst6
p1824
g22
(g23
(I0
tp1825
g25
tp1826
Rp1827
(I1
(I4
tp1828
g163
I00
S"\x08Hy\xf0Pj\x12@\x14\x84\xad\xb3v\xa4\xc5\xbfe\xaa`TR'\xed?j0bo3\xa1\x12@"
p1829
tp1830
bsVcup_b6af
p1831
g22
(g23
(I0
tp1832
g25
tp1833
Rp1834
(I1
(I4
tp1835
g163
I00
S'R\xb8\x1e\x85\xebQ\xe8?\x9a\x99\x99\x99\x99\x99\xe1?\x1b/\xdd$\x06\x81\xed?\x00\x00\x00\x00\x00\x00\x00\x00'
p1836
tp1837
bsVc_obst4
p1838
g22
(g23
(I0
tp1839
g25
tp1840
Rp1841
(I1
(I4
tp1842
g163
I00
S"\xdb\x9a\xfb\x81/c\x12@0\xcaoE\x02.\xba\xbfe\xaa`TR'\xed?\x1bg\xda\x19\xb2\xf1\x07@"
p1843
tp1844
bsVrectangular_packing_box2
p1845
g22
(g23
(I0
tp1846
g25
tp1847
Rp1848
(I1
(I4
tp1849
g163
I00
S'\x95\xcbZ\x933W\x01@H\xc11s\xdf\xcb\x19\xc0L7\x89A`\xe5\xd8?o6~\xdc\x80\xa3\x01@'
p1850
tp1851
bsVplate_fa76
p1852
g22
(g23
(I0
tp1853
g25
tp1854
Rp1855
(I1
(I4
tp1856
g163
I00
S'=\n\xd7\xa3p=\xf2?\x00\x00\x00\x00\x00\x00\x00\x00\x1b/\xdd$\x06\x81\xed?\x00\x00\x00\x00\x00\x00\x00\x00'
p1857
tp1858
bsVfloorwalls
p1859
g22
(g23
(I0
tp1860
g25
tp1861
Rp1862
(I1
(I4
tp1863
g163
I00
S'\xc7\xcc\xcc\xcc\xcc\xcc\xfc?\x00\x00\x00\x00\x00\x00\x18\xc0H\xe1z\x14\xaeG\xc1?\x16-DT\xfb!\xf9?'
p1864
tp1865
bsVpin_c671
p1866
g22
(g23
(I0
tp1867
g25
tp1868
Rp1869
(I1
(I4
tp1870
g163
I00
S'\xc3\xf5(\\\x8f\xc2\xf1\xbf}?5^\xbaI\x02@\xb8\x1e\x85\xebQ\xb8\xfa?\x00\x00\x00\x00\x00\x00\x00\x00'
p1871
tp1872
bsVc_obst3
p1873
g22
(g23
(I0
tp1874
g25
tp1875
Rp1876
(I1
(I4
tp1877
g163
I00
S"kf\xb9\x8c\xa1A\x12@\x86\xb9\x18\xd0\xc8\x85\xda?e\xaa`TR'\xed?\x99\xd7\xce\xf0\xf5\x05\x19@"
p1878
tp1879
bsVchair_2e39
p1880
g22
(g23
(I0
tp1881
g25
tp1882
Rp1883
(I1
(I4
tp1884
g163
I00
S'hfffff\xee?cfffff\xf2\xbf\x00\x00\x00\x00\x00\x00\x00\x00\x07M\xe8QQF\xf3?'
p1885
tp1886
bsVentrance_left
p1887
g22
(g23
(I0
tp1888
g25
tp1889
Rp1890
(I1
(I4
tp1891
g163
I00
S'\x98\x99\x99\x99\x99\x99\xe9\xbfH\xe1z\x14\xaeG\t\xc0\x9c\xc4 \xb0rh\xc1?\x00\x00\x00\x00\x00\x00\x00\x00'
p1892
tp1893
bsVtop_wall_1
p1894
g22
(g23
(I0
tp1895
g25
tp1896
Rp1897
(I1
(I4
tp1898
g163
I00
S'H\xe1z\x14\xaeG\x12@\x80\x14\xaeG\xe1z\xc4?xX\xa85\xcd\xbb\xf2?\x00\x00\x00\x00\x00\x00\x00\x00'
p1899
tp1900
bsVrectangular_packing_box3
p1901
g22
(g23
(I0
tp1902
g25
tp1903
Rp1904
(I1
(I4
tp1905
g163
I00
S'\xb0\x0e\x96\x1f\xf5V\x0f@\xebx\t(7\xc2\x18\xc0L7\x89A`\xe5\xd8?\x04\x86d\xcc\x10\x86\x15@'
p1906
tp1907
bsVshaker
p1908
g22
(g23
(I0
tp1909
g25
tp1910
Rp1911
(I1
(I4
tp1912
g163
I00
S'\n\xd7\xa3p=\n\x01@\x14\xaeG\xe1z\x14\x02@\\\x8f\xc2\xf5(\\\xef?\x00\x00\x00\x00\x00\x00\x00\x00'
p1913
tp1914
bsVc_obst9
p1915
g22
(g23
(I0
tp1916
g25
tp1917
Rp1918
(I1
(I4
tp1919
g163
I00
S"\x14\xd1o\xc5\x9e\x9a\x12@L\xbf\xe0\xbdGD\xdc?e\xaa`TR'\xed?\xe8F\x18\x16^Y\x06@"
p1920
tp1921
bsVplate_835a
p1922
g22
(g23
(I0
tp1923
g25
tp1924
Rp1925
(I1
(I4
tp1926
g163
I00
S'\xf6(\\\x8f\xc2\xf5\xf0?\\\x8f\xc2\xf5(\\\xe7\xbf\x1b/\xdd$\x06\x81\xed?\x00\x00\x00\x00\x00\x00\x00\x00'
p1927
tp1928
bsVcup_58a2
p1929
g22
(g23
(I0
tp1930
g25
tp1931
Rp1932
(I1
(I4
tp1933
g163
I00
S'\x85\xebQ\xb8\x1e\x85\xe3?\xcd\xcc\xcc\xcc\xcc\xcc\xdc?\x1b/\xdd$\x06\x81\xed?\x00\x00\x00\x00\x00\x00\x00\x00'
p1934
tp1935
bsVleft_wall_1
p1936
g22
(g23
(I0
tp1937
g25
tp1938
Rp1939
(I1
(I4
tp1940
g163
I00
S'H\xe1z\x14\xaeG\x12@S\xb8\x1e\x85\xebQ\xe4?\xcc\x7fH\xbf}\x1d\xed?\x00\x00\x00\x00\x00\x00\x00\x00'
p1941
tp1942
bsVc_obst2
p1943
g22
(g23
(I0
tp1944
g25
tp1945
Rp1946
(I1
(I4
tp1947
g163
I00
S"\x13o\xac[\x04\x1b\x12@ \x1267\xef\x90\xa2\xbfe\xaa`TR'\xed?\xb6\xcah\xc3B\x0c\x15@"
p1948
tp1949
bsVsquare_packing_box4
p1950
g22
(g23
(I0
tp1951
g25
tp1952
Rp1953
(I1
(I4
tp1954
g163
I00
S'`\tH1v_\n@p\xb0\xf8\xfd\xda\xda\x19\xc0L7\x89A`\xe5\xd8?\x08?\xa3F\x7f9\xf5?'
p1955
tp1956
bsVrectangular_packing_box1
p1957
g22
(g23
(I0
tp1958
g25
tp1959
Rp1960
(I1
(I4
tp1961
g163
I00
S'q\xa7\xe7g\xa0a\xf8?\x9aC\x04\xf6\x9c0\x19\xc0L7\x89A`\xe5\xd8?\x06\xf7h\xb0\xe1C\x18@'
p1962
tp1963
bsVpin_371e
p1964
g22
(g23
(I0
tp1965
g25
tp1966
Rp1967
(I1
(I4
tp1968
g163
I00
S'333333\xf3\xbfffffff\xf6?\xb8\x1e\x85\xebQ\xb8\xee?\x00\x00\x00\x00\x00\x00\x00\x00'
p1969
tp1970
bsVfridge
p1971
g22
(g23
(I0
tp1972
g25
tp1973
Rp1974
(I1
(I4
tp1975
g163
I00
S'\xd7\xa3p=\n\xd7\xeb\xbf\x00\x00\x00\x00\x00\x00\x00\xc0\xcd\xcc\xcc\xcc\xcc\xcc\xf8?\x00\x00\x00\x00\x00\x00\x00\x00'
p1976
tp1977
bsVcup_d441
p1978
g22
(g23
(I0
tp1979
g25
tp1980
Rp1981
(I1
(I4
tp1982
g163
I00
S'\n\xd7\xa3p=\n\xef?\x8f\xc2\xf5(\\\x8f\xe2?\x1b/\xdd$\x06\x81\xed?\x00\x00\x00\x00\x00\x00\x00\x00'
p1983
tp1984
bsVshelf2
p1985
g22
(g23
(I0
tp1986
g25
tp1987
Rp1988
(I1
(I4
tp1989
g163
I00
S'\x00\x00\x00\x00\x00\x00\x0e@\xaeG\xe1z\x14\xae\x07@\x9c\xc4 \xb0rh\xc1?\xd2!3\x7f|\xd9\x12@'
p1990
tp1991
bsVtop_wall_2
p1992
g22
(g23
(I0
tp1993
g25
tp1994
Rp1995
(I1
(I4
tp1996
g163
I00
S'H\xe1z\x14\xaeG\x12@\x80\x14\xaeG\xe1z\xc4?\x16HP\xfc\x18\xf3\xfd?\x00\x00\x00\x00\x00\x00\x00\x00'
p1997
tp1998
bsVc_obst0
p1999
g22
(g23
(I0
tp2000
g25
tp2001
Rp2002
(I1
(I4
tp2003
g163
I00
S'\x0e;\x054\x9e.\x12@`\x13"g.f\xce?e\xaa`TR\'\xed?,#\r/\x1f[\x0b@'
p2004
tp2005
bsVshelf1
p2006
g22
(g23
(I0
tp2007
g25
tp2008
Rp2009
(I1
(I4
tp2010
g163
I00
S'\x00\x00\x00\x00\x00\x00\x13@\xaeG\xe1z\x14\xae\x07@\x9c\xc4 \xb0rh\xc1?\xd2!3\x7f|\xd9\x12@'
p2011
tp2012
bsVsink
p2013
g22
(g23
(I0
tp2014
g25
tp2015
Rp2016
(I1
(I4
tp2017
g163
I00
S'ffffff\xd6?333333\x01@\x9a\x99\x99\x99\x99\x99\xb9\xbf\x00\x00\x00\x00\x00\x00\x00\x00'
p2018
tp2019
bsVpr2
p2020
g22
(g23
(I0
tp2021
g25
tp2022
Rp2023
(I1
(I4
tp2024
g163
I00
S'\xd3\xb3\xd7\x88[,\x0b@^Cr\xb8E\xed\x1f\xc0\x9a_\x94\xa0\xbf\xd0\xc1?\xf7\xb5\x0f\x9adR\x13@'
p2025
tp2026
bsVchair_12d0
p2027
g22
(g23
(I0
tp2028
g25
tp2029
Rp2030
(I1
(I4
tp2031
g163
I00
S'\\\xd2\x18\xad\xa3\xaa\xdb?Of\x83L2r\xc6?\x00\x00\x00\x00\x00\x00\x00\x00\xf8\x81\r\x14M\xa6\x17@'
p2032
tp2033
bsVright_wall_2
p2034
g22
(g23
(I0
tp2035
g25
tp2036
Rp2037
(I1
(I4
tp2038
g163
I00
S'H\xe1z\x14\xaeG\x12@&\\\x8f\xc2\xf5(\xd4\xbfxX\xa85\xcd\xbb\xf2?\x00\x00\x00\x00\x00\x00\x00\x00'
p2039
tp2040
bsVknife_block
p2041
g22
(g23
(I0
tp2042
g25
tp2043
Rp2044
(I1
(I4
tp2045
g163
I00
S'R\xb8\x1e\x85\xebQ\xe0\xbfffffff\x02@`\xe5\xd0"\xdb\xf9\xee?\x00\x00\x00\x00\x00\x00\x00\x00'
p2046
tp2047
bsVleft_wall_2
p2048
g22
(g23
(I0
tp2049
g25
tp2050
Rp2051
(I1
(I4
tp2052
g163
I00
S'H\xe1z\x14\xaeG\x12@S\xb8\x1e\x85\xebQ\xe4?xX\xa85\xcd\xbb\xf2?\x00\x00\x00\x00\x00\x00\x00\x00'
p2053
tp2054
bsVleft_wall
p2055
g22
(g23
(I0
tp2056
g25
tp2057
Rp2058
(I1
(I4
tp2059
g163
I00
S'\x9a\x99\x99\x99\x99\x99\x07@H\xe1z\x14\xaeG\xff?\x9c\xc4 \xb0rh\xc1?\x00\x00\x00\x00\x00\x00\x00\x00'
p2060
tp2061
bsVkitchen
p2062
g22
(g23
(I0
tp2063
g25
tp2064
Rp2065
(I1
(I4
tp2066
g163
I00
S'\x00\x00\x00\x00\x00\x00\x00\x00\x00\x00\x00\x00\x00\x00\x00\x00\x00\x00\x00\x00\x00\x00\x00\x00\x00\x00\x00\x00\x00\x00\x00\x00'
p2067
tp2068
bsVtable2
p2069
g22
(g23
(I0
tp2070
g25
tp2071
Rp2072
(I1
(I4
tp2073
g163
I00
S'\x00\x00\x00\x00\x00\x00\x13@\x80\x14\xaeG\xe1z\xc4?S\x96!\x8euq\xec?\xd2!3\x7f|\xd9\x12@'
p2074
tp2075
bsVc_obst8
p2076
g22
(g23
(I0
tp2077
g25
tp2078
Rp2079
(I1
(I4
tp2080
g163
I00
S"]g\tW\xdb\x91\x12@/?\xb6+0\x80\xd4?e\xaa`TR'\xed?\xa9\xa82g\xe6\x10\x12@"
p2081
tp2082
bsVplate_b4e7
p2083
g22
(g23
(I0
tp2084
g25
tp2085
Rp2086
(I1
(I4
tp2087
g163
I00
S'\x14\xaeG\xe1z\x14\xf2\xbf\x14\xaeG\xe1z\x14\x00@=\n\xd7\xa3p=\xf2?\x00\x00\x00\x00\x00\x00\x00\x00'
p2088
tp2089
bsVcooker
p2090
g22
(g23
(I0
tp2091
g25
tp2092
Rp2093
(I1
(I4
tp2094
g163
I00
S'\xaeG\xe1z\x14\xae\xff?\x85\xebQ\xb8\x1e\x85\xfb?\x00\x00\x00\x00\x00\x00\xe8?\x00\x00\x00\x00\x00\x00\x00\x00'
p2095
tp2096
bsVpin_a091
p2097
g22
(g23
(I0
tp2098
g25
tp2099
Rp2100
(I1
(I4
tp2101
g163
I00
S'\xdb\xf9~j\xbct\xf7\xbf)\\\x8f\xc2\xf5(\x02@\xb8\x1e\x85\xebQ\xb8\xfa?\x00\x00\x00\x00\x00\x00\x00\x00'
p2102
tp2103
bsVside_wall_2
p2104
g22
(g23
(I0
tp2105
g25
tp2106
Rp2107
(I1
(I4
tp2108
g163
I00
S'\xfa\xff\xff\xff\xff\xff\x14@\x00\x00\x00\x00\x00\x00\x00\x00\x9c\xc4 \xb0rh\xc1?\x18-DT\xfb!\xf9?'
p2109
tp2110
bsVside_wall_3
p2111
g22
(g23
(I0
tp2112
g25
tp2113
Rp2114
(I1
(I4
tp2115
g163
I00
S'\x00\x00\x00\x00\x00\x00\xfc?H\xe1z\x14\xaeG\t@\x9c\xc4 \xb0rh\xc1?\x00\x00\x00\x00\x00\x00\x00\x00'
p2116
tp2117
bsVmixer
p2118
g22
(g23
(I0
tp2119
g25
tp2120
Rp2121
(I1
(I4
tp2122
g163
I00
S'\n\xd7\xa3p=\n\xfb?ffffff\x02@d;\xdfO\x8d\x97\xee?\x00\x00\x00\x00\x00\x00\x00\x00'
p2123
tp2124
bsVside_wall_1
p2125
g22
(g23
(I0
tp2126
g25
tp2127
Rp2128
(I1
(I4
tp2129
g163
I00
S'\xf4\xff\xff\xff\xff\xff\xfb\xbf\x00\x00\x00\x00\x00\x00\x00\x00\x9c\xc4 \xb0rh\xc1?\x18-DT\xfb!\xf9?'
p2130
tp2131
bsVbottom_wall_1
p2132
g22
(g23
(I0
tp2133
g25
tp2134
Rp2135
(I1
(I4
tp2136
g163
I00
S'H\xe1z\x14\xaeG\x12@\x80\x14\xaeG\xe1z\xc4?\xcc\x7fH\xbf}\x1d\xed?\x00\x00\x00\x00\x00\x00\x00\x00'
p2137
tp2138
bsVcan
p2139
g22
(g23
(I0
tp2140
g25
tp2141
Rp2142
(I1
(I4
tp2143
g163
I00
S'\x00\x00\x00\x00\x00\x00\xf4\xbfH\xe1z\x14\xaeG\xe1\xbf\n\xd7\xa3p=\n\xef?\x00\x00\x00\x00\x00\x00\x00\x00'
p2144
tp2145
bsVright_wall
p2146
g22
(g23
(I0
tp2147
g25
tp2148
Rp2149
(I1
(I4
tp2150
g163
I00
S'\x9a\x99\x99\x99\x99\x99\x07@H\xe1z\x14\xaeG\xff\xbf\x9c\xc4 \xb0rh\xc1?\x00\x00\x00\x00\x00\x00\x00\x00'
p2151
tp2152
bsVcoffe_machine
p2153
g22
(g23
(I0
tp2154
g25
tp2155
Rp2156
(I1
(I4
tp2157
g163
I00
S'\\\x8f\xc2\xf5(\\\xf5\xbf\xb8\x1e\x85\xebQ\xb8\xee?\n\xd7\xa3p=\n\xef?\x00\x00\x00\x00\x00\x00\x00\x00'
p2158
tp2159
bsVcomputer_chair
p2160
g22
(g23
(I0
tp2161
g25
tp2162
Rp2163
(I1
(I4
tp2164
g163
I00
S'\xcd\xcc\xcc\xcc\xcc\xcc\x10@\x00\x00\x00\x00\x00\x00\xf8\xbf\xa00\xb6\x10\xe4\xa9\x95\xbf\x00\x00\x00\x00\x00\x00\x00\x00'
p2165
tp2166
bssS'robot_dof_values'
p2167
g22
(g23
(I0
tp2168
g25
tp2169
Rp2170
(I1
(I39
tp2171
g163
I00
S'\x00\x00\x00\x00\x00\x00\x00\x00\x00\x00\x00\x00\x00\x00\x00\x00\x00\x00\x00\x00\x00\x00\x00\x00\x00\x00\x00\x00\x00\x00\x00\x00\x00\x00\x00\x00\x00\x00\x00\x00\x00\x00\x00\x00\x00\x00\x00\x00\x00\x00\x00\x00\x00\x00\x00\x00\x00\x00\x00\x00\x00\x00\x00\x00\x00\x00\x00\x00\x00\x00\x00\x00\x00\x00\x00\x00\x00\x00\x00\x00\x00\x00\x00\x00\x00\x00\x00\x00\x00\x00\x00\x00\x00\x00\x00\x00@d;\xdfO\x8d\x87?\x00\x00\x00\x00\x00\x00\x00\x00\x00\x00\x00\x00\x00\x00\x00\x00\x00\x00\x00\x00\x00\x00\x00\x00\xec\xed\t\xf1\xcc\xa4\xf4?\x00\x00\x00\x00\x00\x00\x00\x00M"\xd0^p\xf8\x00\xc0\x96`G\xb3\x80b\xb2<\x98\x03\r.\x04V\xe6\xbf\x00\x00\x00\x00\x00\x00\x00\x00\x00\x00\x00\x00\x00\x00\x00\x00\x00\x00\x00\x00\x00\x80\xd4<\x00\x00\x00\x00\x00\x00\x00\x00\x00\x00\x00\x00\x00\x00\xc0<\x00\x00\x00\x00\x00\x00\x00\x00\x00\x00\x00\x00\x00\x00\x00\x00\xec\xed\t\xf1\xcc\xa4\xf4?\x00\x00\x00\x00\x00\x00\x00\x00O"\xd0^p\xf8\x00\xc0\x00\x00\x00\x00\x00\x00\x00\x00\x9b\x03\r.\x04V\xe6\xbf\x00\x00\x00\x00\x00\x00\x00\x00\xcd9\xe3\xc17\x89\xe1?\x00\x00\x00\x00\x00\x00\xbe\xbc\x00\x00\x00\x00\x00\x00\x00\x00\x00\x00\x00\x00\x00\x00\xe0<\x00\x00\x00\x00\x00\x00\x00\x00'
p2172
tp2173
bsS'is_holding'
p2174
I00
sbsS'holding_collides'
p2175
NsS'parent_ternary_predicates'
p2176
(dp2177
sS'cached_place_paths'
p2178
(dp2179
(g445
g1000
tp2180
(lp2181
g22
(g23
(I0
tp2182
g25
tp2183
Rp2184
(I1
(I3
tp2185
g163
I00
S'f\xbc\xb4\xdb1\xd8\x02@\xa0X\x1eX\x07\xa4\x19\xc0\xc4n\x04)\x02K\x0b@'
p2186
tp2187
bas(g447
g154
tp2188
g268
s(g444
g154
tp2189
(lp2190
g22
(g23
(I0
tp2191
g25
tp2192
Rp2193
(I1
(I3
tp2194
g163
I00
S'\xb0\x82\xe8\x97\xf2\x00\xe3?Z\xd3n\xc3?C\x16\xc0\xb0\xbbx\x1f`q\x07@'
p2195
tp2196
bag22
(g23
(I0
tp2197
g25
tp2198
Rp2199
(I1
(I3
tp2200
g174
I00
S'&>c9\x01,\xeb?\xb2\xc2\xf0\x02\xce\x8e\x14\xc0\xd8p\xbb2\x14\xd2\x03@'
p2201
tp2202
bag22
(g23
(I0
tp2203
g25
tp2204
Rp2205
(I1
(I3
tp2206
g174
I00
S'\x97\xff-a\x91r\xf0?\x1a\x15\xfe\xb9:\x1b\x12\xc0\nG\xfe\xfa~y\x05@'
p2207
tp2208
bag22
(g23
(I0
tp2209
g25
tp2210
Rp2211
(I1
(I3
tp2212
g174
I00
S"M\xd6\xa3`\xc0H\xe6?\xcbR\xfc\xee\xb5'\x10\xc0\x08B\x8eh>\x9e\x08@"
p2213
tp2214
bag22
(g23
(I0
tp2215
g25
tp2216
Rp2217
(I1
(I3
tp2218
g174
I00
S'3z\xed\x8eN)\xe4?\x0c\x96\xd4\xa2\x0e\xd0\r\xc0\xbd%\xf5{\xe9\xf9\x03@'
p2219
tp2220
bag22
(g23
(I0
tp2221
g25
tp2222
Rp2223
(I1
(I3
tp2224
g174
I00
S'\xaf0\xe9h\xba~\xee?k\xbb\xd8\xd4\xd0g\t\xc09\x9ey\xed\xb06\x06@'
p2225
tp2226
bag22
(g23
(I0
tp2227
g25
tp2228
Rp2229
(I1
(I3
tp2230
g174
I00
S'\xf4\xfdJ\x1a(#\xec?H"\x9cD\x1aE\x05\xc0.\xa9\x0b\x87\xf8\xe1\x02@'
p2231
tp2232
bas(g802
g1000
tp2233
(lp2234
g22
(g23
(I0
tp2235
g25
tp2236
Rp2237
(I1
(I3
tp2238
g163
I00
S'\x8c&\x8c\xd63\xdf\x07@\x97\xe9(m\xaf>\x12\xc0\x00;\xb2\xaap\x8d\x12@'
p2239
tp2240
bas(g444
g1000
tp2241
(lp2242
g22
(g23
(I0
tp2243
g25
tp2244
Rp2245
(I1
(I3
tp2246
g163
I00
S'\xa2\x82\xe8\x97\xf2\x00\xe3?\\\xd3n\xc3?C\x16\xc0\xb0\xbbx\x1f`q\x07@'
p2247
tp2248
bas(g802
g154
tp2249
Ns(g446
g1000
tp2250
(lp2251
g22
(g23
(I0
tp2252
g25
tp2253
Rp2254
(I1
(I3
tp2255
g163
I00
S"\xc8\xaap\x0f5\x14\xfd?'eYf\xb1X\x19\xc0Q\xdc\xd2\xb6\xe2E\x14@"
p2256
tp2257
bas(g446
g154
tp2258
g376
s(g12
g154
tp2259
(lp2260
g22
(g23
(I0
tp2261
g25
tp2262
Rp2263
(I1
(I3
tp2264
g163
I00
S'\xe0\x98\xed\xd0\xfc]\xec?db\xc0c\xe4?\x1d\xc0[\xe1\x0e\xe6\x9f\x06\n@'
p2265
tp2266
bag22
(g23
(I0
tp2267
g25
tp2268
Rp2269
(I1
(I3
tp2270
g174
I00
S'\xf8\xfc\x1a\xd0\xc9l\xe8?\x8a\x897\x8e~\x98\x1a\xc0\xaf\xf7\xb87\xc6\xa7\x01\xc0'
p2271
tp2272
bag22
(g23
(I0
tp2273
g25
tp2274
Rp2275
(I1
(I3
tp2276
g174
I00
S'\xf8C*\xbe\x14\xcf\xe8?\x81d\xab\xeb\xa8<\x18\xc0\xc8\\\xf4\x8c\xc3\xfa\xfe\xbf'
p2277
tp2278
bag22
(g23
(I0
tp2279
g25
tp2280
Rp2281
(I1
(I3
tp2282
g174
I00
S'\xd0\xcb\x13\x8f\xaa\x9d\xed?\x90\x01<]3\x06\x16\xc0F\xf1\xe7x32\x02\xc0'
p2283
tp2284
bag22
(g23
(I0
tp2285
g25
tp2286
Rp2287
(I1
(I3
tp2288
g174
I00
S'l[\xc4\x16<\xe6\xe9?\xa6\xa0\x90\x84X\x9f\x13\xc0\xc2\xd74Q\x00\xaf\xff\xbf'
p2289
tp2290
bag22
(g23
(I0
tp2291
g25
tp2292
Rp2293
(I1
(I3
tp2294
g174
I00
S"\xaeJ\xbd\x1936\xec?\x04\x13\xd4'\x9f\x88\x10\xc0\x805qo\xb6\xe6\xff\xbf"
p2295
tp2296
bag22
(g23
(I0
tp2297
g25
tp2298
Rp2299
(I1
(I3
tp2300
g174
I00
S'\xf09\xb6\x1c*\x86\xee?\xc4\n/\x96\xcb\xe3\n\xc0\xa0\xc9\xd6F6\x0f\x00\xc0'
p2301
tp2302
bag22
(g23
(I0
tp2303
g25
tp2304
Rp2305
(I1
(I3
tp2306
g174
I00
S'3\xe9\xaf\x05T\x89\xe7?+~\xcb\xd3\x15\xc7\x04\xc0x6(d5\xed\x07@'
p2307
tp2308
bas(g612
g154
tp2309
g211
s(g612
g1000
tp2310
(lp2311
g22
(g23
(I0
tp2312
g25
tp2313
Rp2314
(I1
(I3
tp2315
g163
I00
S'\xb6\x86\xb5D\x7fb\n@!\xdb\xd0Z\xee\xd1\x1a\xc0R\x18\xf6\xd6\xfdE\xe2?'
p2316
tp2317
bas(g447
g1000
tp2318
(lp2319
g22
(g23
(I0
tp2320
g25
tp2321
Rp2322
(I1
(I3
tp2323
g163
I00
S'\xcb\x82j&.\\\x04@\xf4zt\xe0\xe6?\x19\xc0\xdf-\x0f\x1b\xd5B\x17@'
p2324
tp2325
bas(g12
g1000
tp2326
(lp2327
g22
(g23
(I0
tp2328
g25
tp2329
Rp2330
(I1
(I3
tp2331
g163
I00
S'\xdb\x98\xed\xd0\xfc]\xec?bb\xc0c\xe4?\x1d\xc0\\\xe1\x0e\xe6\x9f\x06\n@'
p2332
tp2333
bas(g562
g1000
tp2334
(lp2335
g22
(g23
(I0
tp2336
g25
tp2337
Rp2338
(I1
(I3
tp2339
g163
I00
S'\xc4\xf5\x07\r\x98o\xfc?\n\xdc\x81=;\xfa\x16\xc0\x02\x94\xe0\xc2\n<\x14@'
p2340
tp2341
bas(g562
g154
tp2342
g156
s(g445
g154
tp2343
g319
ssS'parent_binary_predicates'
p2344
(dp2345
sS'nodes'
p2346
(dp2347
g1003
(lp2348
I0
aI0
aI0
aI0
aI0
aI0
aI00
aI01
aI00
aI01
aI00
asg1000
(lp2349
I0
aI0
aI0
aI0
aI0
aI0
aI00
aI01
aI00
aI01
aI00
asg154
(lp2350
I0
aI0
aI0
aI0
aI0
aI0
aI00
aI01
aI01
aI01
aI00
asg959
(lp2351
I0
aI0
aI0
ag1573
(g163
S'8I\xaa\x86\xee\xc1\xc3\xbf'
p2352
tp2353
Rp2354
ag1573
(g163
S'\xcaB\xd3\xbbP\x84\x16\xc0'
p2355
tp2356
Rp2357
ag1573
(g163
S'\xf7xX\xfa\xa4\xa5\xfc?'
p2358
tp2359
Rp2360
aI01
aI00
aI00
aI01
aI00
asg153
(lp2361
I0
aI0
aI0
ag1573
(g163
S'\xd2\xcbZ\x933W\x01@'
p2362
tp2363
Rp2364
ag1573
(g163
S'X\xc11s\xdf\xcb\x19\xc0'
p2365
tp2366
Rp2367
ag1573
(g163
S'p6~\xdc\x80\xa3\x01@'
p2368
tp2369
Rp2370
aI01
aI00
aI00
aI00
aI00
asg209
(lp2371
I0
aI0
aI0
ag1573
(g163
S'+\x08\x96\x1f\xf5V\x0f@'
p2372
tp2373
Rp2374
ag1573
(g163
S'\x98x\t(7\xc2\x18\xc0'
p2375
tp2376
Rp2377
ag1573
(g163
S'\x03\x86d\xcc\x10\x86\x15@'
p2378
tp2379
Rp2380
aI01
aI00
aI00
aI00
aI00
asg317
(lp2381
I0
aI0
aI0
ag1573
(g163
S'f\xa7\xe7g\xa0a\xf8?'
p2382
tp2383
Rp2384
ag1573
(g163
S'\x97C\x04\xf6\x9c0\x19\xc0'
p2385
tp2386
Rp2387
ag1573
(g163
S'\x06\xf7h\xb0\xe1C\x18@'
p2388
tp2389
Rp2390
aI01
aI00
aI00
aI01
aI00
asg374
(lp2391
I0
aI0
aI0
ag1573
(g163
S'B\xfd\x82\xf8\x13R\xfd?'
p2392
tp2393
Rp2394
ag1573
(g163
S'6;R\x8b\xe8A\x1c\xc0'
p2395
tp2396
Rp2397
ag1573
(g163
S'\xc7\xef\xac20C\xfe?'
p2398
tp2399
Rp2400
aI01
aI00
aI00
aI01
aI00
asg944
(lp2401
I0
aI0
aI0
ag1573
(g163
S'z\x11\x84\xac\xfd\xdd\x04@'
p2402
tp2403
Rp2404
ag1573
(g163
S'\x19S\xca\xda\xa2h\x15\xc0'
p2405
tp2406
Rp2407
ag1573
(g163
S'V[T!\x9e\xb9\x16@'
p2408
tp2409
Rp2410
aI01
aI00
aI00
aI00
aI00
asg953
(lp2411
I0
aI0
aI0
ag1573
(g163
S'\xa0\xd5:=\x11v\xc7?'
p2412
tp2413
Rp2414
ag1573
(g163
S'\xfa\x99<\xbc\x1d[\x1e\xc0'
p2415
tp2416
Rp2417
ag1573
(g163
S"\\\xae\xeal'\x98\xe3?"
p2418
tp2419
Rp2420
aI01
aI00
aI01
aI01
aI00
asg266
(lp2421
I0
aI0
aI0
ag1573
(g163
S'~\tH1v_\n@'
p2422
tp2423
Rp2424
ag1573
(g163
S'\xd2\xaf\xf8\xfd\xda\xda\x19\xc0'
p2425
tp2426
Rp2427
ag1573
(g163
S'\x08?\xa3F\x7f9\xf5?'
p2428
tp2429
Rp2430
aI01
aI00
aI00
aI01
aI00
assS'mc_place_path'
p2431
(dp2432
sS'parent_state'
p2433
NsS'goal_entities'
p2434
(lp2435
S'square_packing_box1'
p2436
ag154
asS'binary_edges'
p2437
(dp2438
(g374
g266
tp2439
(lp2440
I00
aI00
aI00
as(g374
g959
tp2441
(lp2442
I00
aI00
aI00
as(g209
g944
tp2443
(lp2444
I00
aI00
aI00
as(g209
g209
tp2445
(lp2446
I00
aI00
aI00
as(g153
g944
tp2447
(lp2448
I00
aI01
aI00
as(g153
g209
tp2449
(lp2450
I00
aI00
aI00
as(g266
g153
tp2451
(lp2452
I00
aI01
aI00
as(g374
g953
tp2453
(lp2454
I00
aI00
aI00
as(g317
g209
tp2455
(lp2456
I00
aI00
aI00
as(g959
g959
tp2457
(lp2458
I00
aI00
aI00
as(g153
g1000
tp2459
(lp2460
g1573
(g29
(S'b1'
p2461
I0
I1
tp2462
Rp2463
(I3
S'|'
p2464
NNNI-1
I-1
I0
tp2465
bS'\x01'
p2466
tp2467
Rp2468
aI00
aI01
as(g1003
g1000
tp2469
(lp2470
I00
aI00
aI00
as(g959
g266
tp2471
(lp2472
I00
aI00
aI00
as(g1000
g266
tp2473
(lp2474
I00
aI00
aI00
as(g953
g154
tp2475
(lp2476
I00
aI00
aI01
as(g1003
g153
tp2477
(lp2478
I00
aI00
aI00
as(g153
g266
tp2479
(lp2480
I00
aI00
aI00
as(g209
g1003
tp2481
(lp2482
g2468
aI00
aI00
as(g374
g374
tp2483
(lp2484
I00
aI00
aI00
as(g1000
g374
tp2485
(lp2486
I00
aI00
aI00
as(g944
g153
tp2487
(lp2488
I00
aI00
aI00
as(g153
g154
tp2489
(lp2490
I00
aI00
aI00
as(g317
g944
tp2491
(lp2492
I00
aI00
aI00
as(g959
g317
tp2493
(lp2494
I00
aI00
aI00
as(g953
g953
tp2495
(lp2496
I00
aI00
aI00
as(g153
g1003
tp2497
(lp2498
g2468
aI00
aI00
as(g1000
g153
tp2499
(lp2500
I00
aI00
aI00
as(g1000
g944
tp2501
(lp2502
I00
aI00
aI00
as(g1000
g209
tp2503
(lp2504
I00
aI00
aI00
as(g944
g154
tp2505
(lp2506
I00
aI00
aI00
as(g266
g959
tp2507
(lp2508
I00
aI00
aI00
as(g317
g959
tp2509
(lp2510
I00
aI00
aI00
as(g944
g317
tp2511
(lp2512
I00
aI00
aI00
as(g1000
g959
tp2513
(lp2514
I00
aI00
aI00
as(g1003
g154
tp2515
(lp2516
I00
aI00
aI00
as(g953
g153
tp2517
(lp2518
I00
aI00
aI00
as(g959
g944
tp2519
(lp2520
I00
aI00
aI00
as(g1003
g944
tp2521
(lp2522
I00
aI00
aI00
as(g944
g1003
tp2523
(lp2524
g2468
aI00
aI00
as(g209
g374
tp2525
(lp2526
I00
aI00
aI00
as(g266
g953
tp2527
(lp2528
I00
aI00
aI00
as(g209
g153
tp2529
(lp2530
I00
aI00
aI00
as(g266
g154
tp2531
(lp2532
I00
aI00
aI00
as(g1003
g1003
tp2533
(lp2534
I00
aI00
aI00
as(g944
g959
tp2535
(lp2536
I00
aI00
aI00
as(g953
g374
tp2537
(lp2538
I00
aI00
aI00
as(g154
g953
tp2539
(lp2540
I00
aI00
aI00
as(g317
g1000
tp2541
(lp2542
g2468
aI00
aI01
as(g154
g317
tp2543
(lp2544
I00
aI00
aI00
as(g266
g209
tp2545
(lp2546
I00
aI01
aI00
as(g209
g953
tp2547
(lp2548
I00
aI00
aI00
as(g944
g1000
tp2549
(lp2550
g2468
aI00
aI01
as(g209
g317
tp2551
(lp2552
I00
aI00
aI00
as(g944
g944
tp2553
(lp2554
I00
aI00
aI00
as(g317
g153
tp2555
(lp2556
I00
aI00
aI00
as(g1000
g154
tp2557
(lp2558
I00
aI00
aI00
as(g154
g374
tp2559
(lp2560
I00
aI00
aI00
as(g959
g154
tp2561
(lp2562
I00
aI00
aI01
as(g1003
g317
tp2563
(lp2564
I00
aI00
aI00
as(g154
g266
tp2565
(lp2566
I00
aI00
aI00
as(g209
g266
tp2567
(lp2568
I00
aI00
aI00
as(g317
g1003
tp2569
(lp2570
g2468
aI00
aI00
as(g266
g1000
tp2571
(lp2572
g2468
aI00
aI01
as(g317
g374
tp2573
(lp2574
I00
aI00
aI00
as(g959
g153
tp2575
(lp2576
I00
aI00
aI00
as(g959
g1000
tp2577
(lp2578
g2468
aI00
aI01
as(g154
g209
tp2579
(lp2580
I00
aI00
aI00
as(g1003
g266
tp2581
(lp2582
I00
aI00
aI00
as(g1003
g959
tp2583
(lp2584
I00
aI00
aI00
as(g317
g154
tp2585
(lp2586
I00
aI00
aI00
as(g374
g317
tp2587
(lp2588
I00
aI00
aI00
as(g953
g317
tp2589
(lp2590
I00
aI00
aI00
as(g154
g944
tp2591
(lp2592
I00
aI00
aI00
as(g1000
g1000
tp2593
(lp2594
I00
aI00
aI00
as(g374
g209
tp2595
(lp2596
I00
aI00
aI00
as(g953
g944
tp2597
(lp2598
I00
aI00
aI00
as(g1000
g953
tp2599
(lp2600
I00
aI00
aI00
as(g153
g959
tp2601
(lp2602
I00
aI00
aI00
as(g1000
g317
tp2603
(lp2604
I00
aI00
aI00
as(g953
g1003
tp2605
(lp2606
g2468
aI00
aI00
as(g374
g153
tp2607
(lp2608
I00
aI00
aI00
as(g209
g154
tp2609
(lp2610
I00
aI00
aI00
as(g953
g959
tp2611
(lp2612
I00
aI00
aI00
as(g959
g953
tp2613
(lp2614
I00
aI00
aI00
as(g153
g953
tp2615
(lp2616
I00
aI00
aI00
as(g1003
g374
tp2617
(lp2618
I00
aI00
aI00
as(g153
g317
tp2619
(lp2620
I00
aI00
aI00
as(g944
g374
tp2621
(lp2622
I00
aI00
aI00
as(g374
g1000
tp2623
(lp2624
g2468
aI00
aI01
as(g317
g317
tp2625
(lp2626
I00
aI00
aI00
as(g266
g374
tp2627
(lp2628
I00
aI00
aI00
as(g953
g266
tp2629
(lp2630
I00
aI00
aI00
as(g153
g374
tp2631
(lp2632
I00
aI00
aI00
as(g153
g153
tp2633
(lp2634
I00
aI00
aI00
as(g266
g317
tp2635
(lp2636
I00
aI00
aI00
as(g374
g154
tp2637
(lp2638
I00
aI00
aI00
as(g944
g953
tp2639
(lp2640
I00
aI00
aI00
as(g209
g1000
tp2641
(lp2642
g2468
aI00
aI01
as(g154
g153
tp2643
(lp2644
I00
aI00
aI00
as(g317
g953
tp2645
(lp2646
I00
aI00
aI00
as(g959
g209
tp2647
(lp2648
I00
aI00
aI00
as(g154
g1000
tp2649
(lp2650
I00
aI00
aI00
as(g374
g944
tp2651
(lp2652
I00
aI00
aI00
as(g1003
g209
tp2653
(lp2654
I00
aI00
aI00
as(g374
g1003
tp2655
(lp2656
g2468
aI00
aI00
as(g944
g209
tp2657
(lp2658
I00
aI00
aI00
as(g154
g154
tp2659
(lp2660
I00
aI00
aI00
as(g317
g266
tp2661
(lp2662
I00
aI00
aI00
as(g959
g1003
tp2663
(lp2664
g2468
aI00
aI00
as(g266
g1003
tp2665
(lp2666
g2468
aI00
aI00
as(g154
g1003
tp2667
(lp2668
I00
aI00
aI00
as(g154
g959
tp2669
(lp2670
I00
aI00
aI00
as(g944
g266
tp2671
(lp2672
I00
aI00
aI00
as(g266
g944
tp2673
(lp2674
I00
aI00
aI00
as(g209
g959
tp2675
(lp2676
I00
aI00
aI00
as(g1000
g1003
tp2677
(lp2678
I00
aI00
aI00
as(g953
g209
tp2679
(lp2680
I00
aI00
aI00
as(g959
g374
tp2681
(lp2682
I00
aI00
aI00
as(g266
g266
tp2683
(lp2684
I00
aI00
aI00
as(g953
g1000
tp2685
(lp2686
g2468
aI00
aI01
as(g1003
g953
tp2687
(lp2688
I00
aI00
aI00
assg442
g443
sS'pick_in_way'
p2689
(itrajectory_representation.predicates.pick_in_way
PickInWay
p2690
(dp2691
g151
(dp2692
g959
g513
sg153
g593
sg209
g637
sg317
g680
sg374
g777
sg944
g839
sg953
g869
sg266
g918
ssg419
(dp2693
g959
(lp2694
sg153
(lp2695
Vsquare_packing_box4
p2696
asg209
(lp2697
Vsquare_packing_box4
p2698
asg317
(lp2699
sg374
(lp2700
sg944
(lp2701
Vrectangular_packing_box2
p2702
asg953
(lp2703
sg266
(lp2704
ssg442
(lp2705
g317
ag374
ag266
ag959
ag1003
ag154
ag1000
ag953
ag1003
ag154
ag1000
ag1003
ag154
ag1000
ag1003
ag154
ag1000
ag1003
ag154
ag1000
ag1003
ag154
ag1000
ag1003
ag154
ag1000
ag1003
ag154
ag1000
asg448
g449
sg84
(dp2706
sg483
g484
sg939
Nsg946
g484
sg942
(dp2707
sg945
I8
sg995
I01
sg947
Nsg948
(dp2708
(g374
g266
tp2709
I00
s(g374
g959
tp2710
I00
s(g209
g944
tp2711
I00
s(g209
g209
tp2712
I00
s(g153
g944
tp2713
I01
s(g153
g209
tp2714
I00
s(g266
g153
tp2715
I01
s(g374
g953
tp2716
I00
s(g317
g209
tp2717
I00
s(g959
g959
tp2718
I00
s(g153
g1000
tp2719
I00
s(g1003
g1000
tp2720
I00
s(g959
g266
tp2721
I00
s(g1000
g266
tp2722
I00
s(g953
g154
tp2723
I00
s(g1003
g153
tp2724
I00
s(g153
g266
tp2725
I00
s(g209
g1003
tp2726
I00
s(g374
g374
tp2727
I00
s(g1000
g374
tp2728
I00
s(g944
g153
tp2729
I00
s(g153
g154
tp2730
I00
s(g317
g944
tp2731
I00
s(g959
g317
tp2732
I00
s(g953
g953
tp2733
I00
s(g153
g1003
tp2734
I00
s(g1000
g153
tp2735
I00
s(g1000
g944
tp2736
I00
s(g1000
g209
tp2737
I00
s(g944
g154
tp2738
I00
s(g266
g959
tp2739
I00
s(g317
g959
tp2740
I00
s(g944
g317
tp2741
I00
s(g1000
g959
tp2742
I00
s(g1003
g154
tp2743
I00
s(g953
g153
tp2744
I00
s(g959
g944
tp2745
I00
s(g1003
g944
tp2746
I00
s(g944
g1003
tp2747
I00
s(g209
g374
tp2748
I00
s(g266
g953
tp2749
I00
s(g209
g153
tp2750
I00
s(g266
g154
tp2751
I00
s(g1003
g1003
tp2752
I00
s(g944
g959
tp2753
I00
s(g953
g374
tp2754
I00
s(g154
g953
tp2755
I00
s(g317
g1000
tp2756
I00
s(g154
g317
tp2757
I00
s(g266
g209
tp2758
I01
s(g209
g953
tp2759
I00
s(g944
g1000
tp2760
I00
s(g209
g317
tp2761
I00
s(g944
g944
tp2762
I00
s(g317
g153
tp2763
I00
s(g1000
g154
tp2764
I00
s(g154
g374
tp2765
I00
s(g959
g154
tp2766
I00
s(g1003
g317
tp2767
I00
s(g154
g266
tp2768
I00
s(g209
g266
tp2769
I00
s(g317
g1003
tp2770
I00
s(g266
g1000
tp2771
I00
s(g317
g374
tp2772
I00
s(g959
g153
tp2773
I00
s(g959
g1000
tp2774
I00
s(g154
g209
tp2775
I00
s(g1003
g266
tp2776
I00
s(g1003
g959
tp2777
I00
s(g317
g154
tp2778
I00
s(g374
g317
tp2779
I00
s(g953
g317
tp2780
I00
s(g154
g944
tp2781
I00
s(g1000
g1000
tp2782
I00
s(g374
g209
tp2783
I00
s(g953
g944
tp2784
I00
s(g1000
g953
tp2785
I00
s(g153
g959
tp2786
I00
s(g1000
g317
tp2787
I00
s(g953
g1003
tp2788
I00
s(g374
g153
tp2789
I00
s(g209
g154
tp2790
I00
s(g953
g959
tp2791
I00
s(g959
g953
tp2792
I00
s(g153
g953
tp2793
I00
s(g1003
g374
tp2794
I00
s(g153
g317
tp2795
I00
s(g944
g374
tp2796
I00
s(g374
g1000
tp2797
I00
s(g317
g317
tp2798
I00
s(g266
g374
tp2799
I00
s(g953
g266
tp2800
I00
s(g153
g374
tp2801
I00
s(g153
g153
tp2802
I00
s(g266
g317
tp2803
I00
s(g374
g154
tp2804
I00
s(g944
g953
tp2805
I00
s(g209
g1000
tp2806
I00
s(g154
g153
tp2807
I00
s(g317
g953
tp2808
I00
s(g959
g209
tp2809
I00
s(g154
g1000
tp2810
I00
s(g374
g944
tp2811
I00
s(g1003
g209
tp2812
I00
s(g374
g1003
tp2813
I00
s(g944
g209
tp2814
I00
s(g154
g154
tp2815
I00
s(g317
g266
tp2816
I00
s(g959
g1003
tp2817
I00
s(g266
g1003
tp2818
I00
s(g154
g1003
tp2819
I00
s(g154
g959
tp2820
I00
s(g944
g266
tp2821
I00
s(g266
g944
tp2822
I00
s(g209
g959
tp2823
I00
s(g1000
g1003
tp2824
I00
s(g953
g209
tp2825
I00
s(g959
g374
tp2826
I00
s(g266
g266
tp2827
I00
s(g953
g1000
tp2828
I00
s(g1003
g953
tp2829
I00
ssg994
NsbsS'robot_pose'
p2830
g22
(g23
(I0
tp2831
g25
tp2832
Rp2833
(I1
(I1
I3
tp2834
g163
I00
S'\xce\xb3\xd7\x88[,\x0b@]Cr\xb8E\xed\x1f\xc0\xf7\xb5\x0f\x9adR\x13@'
p2835
tp2836
bsS'is_holding_goal_entity'
p2837
(itrajectory_representation.predicates.is_holding_goal_entity
IsHoldingGoalEntity
p2838
(dp2839
g2434
g2435
sg947
NsbsS'mc_pick_path'
p2840
(dp2841
sS'current_collides'
p2842
g449
sbasS'seed'
p2843
NsS'state_prime'
p2844
(lp2845
sS'problem_idx'
p2846
I3
sb.