(itrajectory_representation.trajectory
Trajectory
p0
(dp1
S'rewards'
p2
(lp3
I10
asS'actions'
p4
(lp5
(itrajectory_representation.operator
Operator
p6
(dp7
S'is_skeleton'
p8
I00
sS'discrete_parameters'
p9
(dp10
S'object'
p11
Vsquare_packing_box1
p12
sS'two_arm_place_region'
p13
S'home_region'
p14
sS'two_arm_place_object'
p15
Vsquare_packing_box1
p16
ssS'type'
p17
S'two_arm_pick_two_arm_place'
p18
sS'continuous_parameters'
p19
(dp20
S'q_goal'
p21
cnumpy.core.multiarray
_reconstruct
p22
(cnumpy
ndarray
p23
(I0
tp24
S'b'
p25
tp26
Rp27
(I1
(I3
tp28
cnumpy
dtype
p29
(S'f8'
p30
I0
I1
tp31
Rp32
(I3
S'<'
p33
NNNI-1
I-1
I0
tp34
bI00
S'\x90TT\x17 \x82\xf3?\xf3U\xef79\xdc\x16\xc0\x8c,\x14I{\xfe\xed?'
p35
tp36
bsS'place'
p37
(dp38
g21
g22
(g23
(I0
tp39
g25
tp40
Rp41
(I1
(I3
tp42
g32
I00
S'\x000\x9e\xb4\xbb\x85k\xbf\xb8\xb1\xb1\xde\x13\xb4\xff\xbfj\xc4t\xc5\xcd\x03\xff\xbf'
p43
tp44
bssS'pick'
p45
(dp46
g21
g27
sssS'low_level_motion'
p47
(lp48
g22
(g23
(I0
tp49
g25
tp50
Rp51
(I1
(I3
tp52
g32
I00
S'O\xbb\x96N2\xbe\x00@~L@.1\xc3\x1b\xc0\x010R\xc5\x9a~\x17@'
p53
tp54
bag22
(g23
(I0
tp55
g25
tp56
Rp57
(I1
(I3
tp58
g29
(S'f8'
p59
I0
I1
tp60
Rp61
(I3
S'<'
p62
NNNI-1
I-1
I0
tp63
bI00
S'\xc2Fo\n7\x11\x03@\xb6=Ya.\xe0\x1a\xc0,\x0b\x04&"Y\x07\xc0'
p64
tp65
bag22
(g23
(I0
tp66
g25
tp67
Rp68
(I1
(I3
tp69
g61
I00
S'\xb1\x91\x83\xd6J:\x00@X\xbf\x9b\xa3\xf7;\x19\xc0\xb4\xa9\x94\xff\xff\xd1\xec?'
p70
tp71
bag22
(g23
(I0
tp72
g25
tp73
Rp74
(I1
(I3
tp75
g61
I00
S'\xf5I-\xc1\xee\x1f\xfa?Zc\rx\x9c\n\x18\xc0?_z:D*\x17@'
p76
tp77
bag27
ag27
asbasS'filename'
p78
S''
p79
sS'states'
p80
(lp81
(itrajectory_representation.shortest_path_pick_and_place_state
ShortestPathPaPState
p82
(dp83
S'place_used'
p84
(dp85
(g16
g14
tp86
(itrajectory_representation.operator
Operator
p87
(dp88
g8
I01
sg9
(dp89
S'region'
p90
g14
sg11
g16
ssg17
S'two_arm_place'
p91
sg19
(dp92
g21
g22
(g23
(I0
tp93
g25
tp94
Rp95
(I1
(I3
tp96
g32
I00
S'\x000\x9e\xb4\xbb\x85k\xbf\xb8\xb1\xb1\xde\x13\xb4\xff\xbfj\xc4t\xc5\xcd\x03\xff\xbf'
p97
tp98
bssg47
(lp99
g22
(g23
(I0
tp100
g25
tp101
Rp102
(I1
(I3
tp103
g32
I00
S'\xa2TT\x17 \x82\xf3?\xf0U\xef79\xdc\x16\xc0\x8c,\x14I{\xfe\xed?'
p104
tp105
bag22
(g23
(I0
tp106
g25
tp107
Rp108
(I1
(I3
tp109
g61
I00
S'E6\xa2Z]\x01\xe8?\x8b\x06T\x92\xa7\x82\x16\xc0q\xc1\x9f~\xe7\n\xfb?'
p110
tp111
bag22
(g23
(I0
tp112
g25
tp113
Rp114
(I1
(I3
tp115
g61
I00
S'v\xb8^\x85\xa7[\xea?x\xbe\xff2t\x8d\x13\xc0\x88\x85\x8cCyH\xf6?'
p116
tp117
bag22
(g23
(I0
tp118
g25
tp119
Rp120
(I1
(I3
tp121
g61
I00
S'\xc2\xda(e\x83\x1a\xeb?\x8au\x8d3\xa6E\x11\xc0\xb4c\x1b\xed_\xfd\xfa?'
p122
tp123
bag22
(g23
(I0
tp124
g25
tp125
Rp126
(I1
(I3
tp127
g61
I00
S'\xe4u**\x0e5\xe9?\xaa\xfd\r\xed\xc4\xf6\r\xc0\x0fDE0\x1f\x0b\xfe?'
p128
tp129
bag22
(g23
(I0
tp130
g25
tp131
Rp132
(I1
(I3
tp133
g61
I00
S'\x06\x11,\xef\x98O\xe7??\x10\x01s=b\t\xc04\x92\xb79o\x8c\x00@'
p134
tp135
bag22
(g23
(I0
tp136
g25
tp137
Rp138
(I1
(I3
tp139
g61
I00
S'\xf4\xfdJ\x1a(#\xec?H"\x9cD\x1aE\x05\xc0.\xa9\x0b\x87\xf8\xe1\x02@'
p140
tp141
bag22
(g23
(I0
tp142
g25
tp143
Rp144
(I1
(I3
tp145
g61
I00
S'd\xadM\x94\x13a\xe5?>u\xbe\x10I>\x02\xc0X\xf3&\xd2U\xdc\xf7\xbf'
p146
tp147
bag95
ag95
asbssS'place_in_way'
p148
(itrajectory_representation.predicates.place_in_way
PlaceInWay
p149
(dp150
S'mc_path_to_entity'
p151
(dp152
(Vrectangular_packing_box4
p153
S'home_region'
p154
tp155
(lp156
g22
(g23
(I0
tp157
g25
tp158
Rp159
(I1
(I3
tp160
g29
(S'f8'
p161
I0
I1
tp162
Rp163
(I3
S'<'
p164
NNNI-1
I-1
I0
tp165
bI00
S'\xe0+\xfb\x0f6i\xd0?z\\^\xd7\xa0\xd1\x1a\xc0\xec\xc6\x98\xfe\xa9\x0e\x15@'
p166
tp167
bag22
(g23
(I0
tp168
g25
tp169
Rp170
(I1
(I3
tp171
g29
(S'f8'
p172
I0
I1
tp173
Rp174
(I3
S'<'
p175
NNNI-1
I-1
I0
tp176
bI00
S'j\x1e\x80\xdd\x0f\xcc\xcc?\xb3\xd8X\xd3%~\x18\xc0\x90\xda\xcf7y\xd5\xe6\xbf'
p177
tp178
bag22
(g23
(I0
tp179
g25
tp180
Rp181
(I1
(I3
tp182
g174
I00
S'\xbc\xcaD\xb3\xa5\xd0\xda?5\x9e\xd8L\xbc\xff\x15\xc0\x86v/\xef\x06;\xe9\xbf'
p183
tp184
bag22
(g23
(I0
tp185
g25
tp186
Rp187
(I1
(I3
tp188
g174
I00
S"\xb2&6mg)\xe8?\x99\xe0G'\x16\xe0\x13\xc0\xc8oL\xf5\x17p\xe6\xbf"
p189
tp190
bag22
(g23
(I0
tp191
g25
tp192
Rp193
(I1
(I3
tp194
g174
I00
S'`\xc8Aw-\x81\xeb?/\xc3\xe6O\x04\xca\x10\xc0\x8a\xb7K)\x91{\xe4\xbf'
p195
tp196
bag22
(g23
(I0
tp197
g25
tp198
Rp199
(I1
(I3
tp200
g174
I00
S'\xe1\xc6\xc7\xa7\x12X\xe7?\x98\x99\xb0\x9a\xfb\xdb\x0b\xc0R\t\x1b)\xeae\xe0\xbf'
p201
tp202
bag22
(g23
(I0
tp203
g25
tp204
Rp205
(I1
(I3
tp206
g174
I00
S'p\xf1\xbdc^\x84\xf1?"\x88LL\xf9D\x06\xc0~w\r\xe9m\x0f\x19@'
p207
tp208
bas(Vrectangular_packing_box2
p209
g154
tp210
(lp211
g22
(g23
(I0
tp212
g25
tp213
Rp214
(I1
(I3
tp215
g163
I00
S'@\x87\t\x8c2\xf7\xf0?\x9a\xdd!0\xffU\x18\xc0\xd4\x0e\xec\xc0\xa4\xfd\x10@'
p216
tp217
bag22
(g23
(I0
tp218
g25
tp219
Rp220
(I1
(I3
tp221
g174
I00
S'\xd0\xcb\x13\x8f\xaa\x9d\xed?\x90\x01<]3\x06\x16\xc0F\xf1\xe7x32\x02\xc0'
p222
tp223
bag22
(g23
(I0
tp224
g25
tp225
Rp226
(I1
(I3
tp227
g174
I00
S'l[\xc4\x16<\xe6\xe9?\xa6\xa0\x90\x84X\x9f\x13\xc0\xc2\xd74Q\x00\xaf\xff\xbf'
p228
tp229
bag22
(g23
(I0
tp230
g25
tp231
Rp232
(I1
(I3
tp233
g174
I00
S"\xaeJ\xbd\x1936\xec?\x04\x13\xd4'\x9f\x88\x10\xc0\x805qo\xb6\xe6\xff\xbf"
p234
tp235
bag22
(g23
(I0
tp236
g25
tp237
Rp238
(I1
(I3
tp239
g174
I00
S'\xf09\xb6\x1c*\x86\xee?\xc4\n/\x96\xcb\xe3\n\xc0\xa0\xc9\xd6F6\x0f\x00\xc0'
p240
tp241
bag22
(g23
(I0
tp242
g25
tp243
Rp244
(I1
(I3
tp245
g174
I00
S'3\xe9\xaf\x05T\x89\xe7?+~\xcb\xd3\x15\xc7\x04\xc0x6(d5\xed\x07@'
p246
tp247
bas(Vrectangular_packing_box3
p248
g154
tp249
(lp250
g22
(g23
(I0
tp251
g25
tp252
Rp253
(I1
(I3
tp254
g163
I00
S'\xdaLK\xce62\x0e@\xa4\xc5\x82\xb8hG\x1a\xc0X\r\x15\xe9\xe7n\xf6?'
p255
tp256
bag22
(g23
(I0
tp257
g25
tp258
Rp259
(I1
(I3
tp260
g174
I00
S'g\x886\x82\xe7\x9e\t@\x81\x00+\xe8\xfe$\x19\xc0m@m\xfd\x93\x06\xf2?'
p261
tp262
bag22
(g23
(I0
tp263
g25
tp264
Rp265
(I1
(I3
tp266
g174
I00
S'\x19\xdbXU\x9c\xa8\x04@\xe6\xf1\xeb\xae\xcb\x05\x18\xc0\xce\x9cp\x98\xaf*\xeb?'
p267
tp268
bag22
(g23
(I0
tp269
g25
tp270
Rp271
(I1
(I3
tp272
g174
I00
S'/\xe1\x02^.|\x00@\xb8\xae\xc5\xcfF\x16\x17\xc0\xf8\x01)d\xc5\xf9\xe2?'
p273
tp274
bag22
(g23
(I0
tp275
g25
tp276
Rp277
(I1
(I3
tp278
g174
I00
S'\x85\\2\xba\x0b5\xf5?I\r\x06\xd10\xfb\x15\xc0\x9e\x11\xee\xd8\xb9\xd7\xf5?'
p279
tp280
bag22
(g23
(I0
tp281
g25
tp282
Rp283
(I1
(I3
tp284
g174
I00
S'v\xb8^\x85\xa7[\xea?x\xbe\xff2t\x8d\x13\xc0\x88\x85\x8cCyH\xf6?'
p285
tp286
bag22
(g23
(I0
tp287
g25
tp288
Rp289
(I1
(I3
tp290
g174
I00
S'\xc2\xda(e\x83\x1a\xeb?\x8au\x8d3\xa6E\x11\xc0\xb4c\x1b\xed_\xfd\xfa?'
p291
tp292
bag22
(g23
(I0
tp293
g25
tp294
Rp295
(I1
(I3
tp296
g174
I00
S'\xe4u**\x0e5\xe9?\xaa\xfd\r\xed\xc4\xf6\r\xc0\x0fDE0\x1f\x0b\xfe?'
p297
tp298
bag22
(g23
(I0
tp299
g25
tp300
Rp301
(I1
(I3
tp302
g174
I00
S'\x06\x11,\xef\x98O\xe7??\x10\x01s=b\t\xc04\x92\xb79o\x8c\x00@'
p303
tp304
bag22
(g23
(I0
tp305
g25
tp306
Rp307
(I1
(I3
tp308
g174
I00
S'\x92\xaf\xf3P\x96O\xc2?(\xa1:\x8er}\x05\xc0\xd4_\x91\xb3\xffL\x02@'
p309
tp310
bas(Vsquare_packing_box4
p311
g154
tp312
(lp313
g22
(g23
(I0
tp314
g25
tp315
Rp316
(I1
(I3
tp317
g163
I00
S'\x90\xaf\xb6\xca\x9d\x1f\xdc?T\xf4\x0e\x10>p\x1a\xc0\x80\x9f\xef.\x7f\xbe\x01@'
p318
tp319
bag22
(g23
(I0
tp320
g25
tp321
Rp322
(I1
(I3
tp323
g174
I00
S'ib\xa2\x0c9\xe9\xd7?\xca\xcd\xb4=\xe6_\x18\xc0tY\xa4\x97\x8d\xd7\x02@'
p324
tp325
bag22
(g23
(I0
tp326
g25
tp327
Rp328
(I1
(I3
tp329
g174
I00
S'o\xd6\x82\xea\x7f\xb2\xed?9\xf2C\x0b?\xfd\x16\xc0(?d\xe9@\xb5\x02@'
p330
tp331
bag22
(g23
(I0
tp332
g25
tp333
Rp334
(I1
(I3
tp335
g174
I00
S'&>c9\x01,\xeb?\xb2\xc2\xf0\x02\xce\x8e\x14\xc0\xd8p\xbb2\x14\xd2\x03@'
p336
tp337
bag22
(g23
(I0
tp338
g25
tp339
Rp340
(I1
(I3
tp341
g174
I00
S'\xc6\x05\xbdtg\xd9\xe2?F\xdf\x9d@\\\xf3\x11\xc0\x1a\xc4.\xbb\xcc\x12\x02@'
p342
tp343
bag22
(g23
(I0
tp344
g25
tp345
Rp346
(I1
(I3
tp347
g174
I00
S'3z\xed\x8eN)\xe4?\x0c\x96\xd4\xa2\x0e\xd0\r\xc0\xbd%\xf5{\xe9\xf9\x03@'
p348
tp349
bag22
(g23
(I0
tp350
g25
tp351
Rp352
(I1
(I3
tp353
g174
I00
S'\xaf0\xe9h\xba~\xee?k\xbb\xd8\xd4\xd0g\t\xc09\x9ey\xed\xb06\x06@'
p354
tp355
bag22
(g23
(I0
tp356
g25
tp357
Rp358
(I1
(I3
tp359
g174
I00
S'\xf4\xfdJ\x1a(#\xec?H"\x9cD\x1aE\x05\xc0.\xa9\x0b\x87\xf8\xe1\x02@'
p360
tp361
bassS'mc_to_entity'
p362
(dp363
(g153
g154
tp364
(lp365
Vrectangular_packing_box2
p366
aVsquare_packing_box4
p367
as(g209
g154
tp368
(lp369
Vrectangular_packing_box1
p370
aVsquare_packing_box4
p371
as(g248
g154
tp372
(lp373
Vsquare_packing_box3
p374
aVsquare_packing_box2
p375
aVsquare_packing_box1
p376
as(g311
g154
tp377
(lp378
Vrectangular_packing_box2
p379
assS'reachable_entities'
p380
(lp381
Vrectangular_packing_box4
p382
aVrectangular_packing_box1
p383
aVsquare_packing_box2
p384
aVsquare_packing_box3
p385
ag12
aVsquare_packing_box4
p386
asS'collides'
p387
(dp388
Vrectangular_packing_box4
p389
c__builtin__
set
p390
((lp391
I384
aI257
aI134
aI135
aI264
aI265
aI394
aI532
aI580
aI158
aI159
aI164
aI296
aI433
aI564
aI575
aI452
aI583
aI328
aI458
aI589
aI83
aI346
aI478
aI356
aI229
aI366
aI502
aI122
atp392
Rp393
sVrectangular_packing_box2
p394
g390
((lp395
I384
aI5
aI6
aI136
aI137
aI394
aI523
aI276
aI155
aI157
aI133
aI35
aI165
aI166
aI296
aI176
aI547
aI308
aI163
aI134
aI262
aI197
aI198
aI518
aI81
aI82
aI83
aI84
aI597
aI355
aI362
aI107
aI338
aI251
aI252
atp396
Rp397
sVrectangular_packing_box3
p398
g390
((lp399
I0
aI545
aI546
aI453
aI425
aI555
aI367
aI368
aI369
aI370
aI371
aI377
aI378
aI571
aI541
aI474
atp400
Rp401
sVrectangular_packing_box1
p402
g390
((lp403
I132
aI133
aI262
aI136
aI137
aI4
aI413
aI5
aI34
aI35
aI36
aI296
aI176
aI584
aI310
aI55
aI570
aI69
aI70
aI456
aI162
aI205
aI80
aI81
aI82
aI84
aI597
aI92
aI93
aI607
aI355
aI230
aI252
aI107
aI251
aI124
atp404
Rp405
sVsquare_packing_box2
p406
g390
((lp407
I2
aI3
aI393
aI403
aI539
aI541
aI160
aI289
aI37
aI38
aI39
aI40
aI41
aI302
aI304
aI561
aI178
aI435
aI54
aI62
aI63
aI288
aI454
aI248
aI342
aI348
aI605
aI611
aI612
aI550
aI115
aI376
aI379
aI380
aI511
atp408
Rp409
sVsquare_packing_box3
p410
g390
((lp411
I193
aI457
aI453
aI614
aI425
aI343
aI565
aI270
aI303
aI307
aI500
aI245
aI246
aI247
aI280
aI473
aI442
aI367
aI381
aI405
atp412
Rp413
sVsquare_packing_box1
p414
g390
((lp415
I160
aI161
aI327
aI203
aI484
aI289
aI42
aI43
aI395
aI554
aI497
aI416
aI372
aI56
aI404
aI187
aI380
aI106
atp416
Rp417
sVsquare_packing_box4
p418
g390
((lp419
I417
aI491
aI196
aI198
aI6
aI7
aI424
aI138
aI139
aI547
aI362
aI275
aI503
aI249
aI152
aI153
aI154
aI383
aI349
aI350
aI351
atp420
Rp421
ssg84
g85
sS'pick_used'
p422
(dp423
g382
(itrajectory_representation.operator
Operator
p424
(dp425
g8
I01
sg9
(dp426
S'object'
p427
Vrectangular_packing_box4
p428
ssg17
S'two_arm_pick'
p429
sg19
(dp430
S'q_goal'
p431
(lp432
g22
(g23
(I0
tp433
g25
tp434
Rp435
(I1
(I3
tp436
g163
I00
S'\xec+\xfb\x0f6i\xd0?z\\^\xd7\xa0\xd1\x1a\xc0\xae\x98\xadVEM\xf0\xbf'
p437
tp438
bag22
(g23
(I0
tp439
g25
tp440
Rp441
(I1
(I3
tp442
g163
I00
S"Yi\x93k\x1d}\xf0?'\xd9\xeaJ\x1e\xa6\x1e\xc0@\xbb\x9cK\xday\x08@"
p443
tp444
bag22
(g23
(I0
tp445
g25
tp446
Rp447
(I1
(I3
tp448
g163
I00
S'\x8e\xc8pwZc\xd5?\xdfP\x87\x16\xdb\x0f\x1b\xc0T!v\xd8\xd2\x99\xf4\xbf'
p449
tp450
bag22
(g23
(I0
tp451
g25
tp452
Rp453
(I1
(I3
tp454
g163
I00
S'Ng(\xb3\xce\xdb\xc1?\x87s\xbf\xbe\xd9i\x1b\xc0Z\x1fy\x1f\x89\xd9\xf2\xbf'
p455
tp456
basS'is_feasible'
p457
I00
ssg47
(lp458
g22
(g23
(I0
tp459
g25
tp460
Rp461
(I1
(I3
tp462
g163
I00
S'T\xbb\x96N2\xbe\x00@\x82L@.1\xc3\x1b\xc0\x010R\xc5\x9a~\x17@'
p463
tp464
bag22
(g23
(I0
tp465
g25
tp466
Rp467
(I1
(I3
tp468
g174
I00
S'\tAsXx\r\x00@F^\x05/\xfdK\x1d\xc0~\xbbB\x0f\xbe\xe6\xd2?'
p469
tp470
bag22
(g23
(I0
tp471
g25
tp472
Rp473
(I1
(I3
tp474
g174
I00
S'g\xbc\x88wT\xd2\xfa?\xf5P\x88(3\xd6\x1f\xc0\x9b\xce<\xfbK\xac\r@'
p475
tp476
bag441
asbsVrectangular_packing_box2
p477
(itrajectory_representation.operator
Operator
p478
(dp479
g8
I01
sg9
(dp480
g427
Vrectangular_packing_box2
p481
ssg17
g429
sg19
(dp482
g431
(lp483
g22
(g23
(I0
tp484
g25
tp485
Rp486
(I1
(I3
tp487
g163
I00
S'D\x87\t\x8c2\xf7\xf0?\x9b\xdd!0\xffU\x18\xc0\x89<\xb0&\xadH\x00\xc0'
p488
tp489
bag22
(g23
(I0
tp490
g25
tp491
Rp492
(I1
(I3
tp493
g163
I00
S'\x98\xd4\xb6V+\xd2\xb4\xbf\xd6\x12I\x94\x00\xab\x19\xc0\x8f\xe3\xcf(\xa0\xb6\xec\xbf'
p494
tp495
bag22
(g23
(I0
tp496
g25
tp497
Rp498
(I1
(I3
tp499
g163
I00
S'\x82/\xb8\x91t\xab\xec?\x03\x9e\xe2:f\xf3\x17\xc0\xea\xe1\x1d\x9b8\xf5\xf9\xbf'
p500
tp501
basg457
I00
ssg47
(lp502
g22
(g23
(I0
tp503
g25
tp504
Rp505
(I1
(I3
tp506
g163
I00
S'T\xbb\x96N2\xbe\x00@\x82L@.1\xc3\x1b\xc0\x010R\xc5\x9a~\x17@'
p507
tp508
bag22
(g23
(I0
tp509
g25
tp510
Rp511
(I1
(I3
tp512
g174
I00
S'\x02:\xde\x84?\xc0\x03@\x16\xfaJE\x8a\x0f\x19\xc0\x13\xc0\x8b\x01\x1d?\xf4\xbf'
p513
tp514
bag22
(g23
(I0
tp515
g25
tp516
Rp517
(I1
(I3
tp518
g174
I00
S'\xa1\x0f=\xe0\x1aF\xfc?e&S\xf6\xb5\xfc\x17\xc0s\xad\xdc\xd8h\x9b\x04\xc0'
p519
tp520
bag486
asbsVrectangular_packing_box3
p521
(itrajectory_representation.operator
Operator
p522
(dp523
g8
I01
sg9
(dp524
g427
Vrectangular_packing_box3
p525
ssg17
g429
sg19
(dp526
g431
(lp527
g22
(g23
(I0
tp528
g25
tp529
Rp530
(I1
(I3
tp531
g163
I00
S'\xdcLK\xce62\x0e@\xa6\xc5\x82\xb8hG\x1a\xc0W\r\x15\xe9\xe7n\xf6?'
p532
tp533
bag22
(g23
(I0
tp534
g25
tp535
Rp536
(I1
(I3
tp537
g163
I00
S'\t-U\x0b\xd8`\t@\nW\xc7T>4\x17\xc08\x05I\xf1u\xf3\xd6\xbf'
p538
tp539
bag22
(g23
(I0
tp540
g25
tp541
Rp542
(I1
(I3
tp543
g163
I00
S'\xc4\xaa\x19M\xccW\r@\xa0S\x91\x94\x97\x13\x1a\xc0\x14\xa4/\xf4tk\xf2?'
p544
tp545
bag22
(g23
(I0
tp546
g25
tp547
Rp548
(I1
(I3
tp549
g163
I00
S"~B\x99\x16\x90\xa2\x08@\x1d\x1e\xe9\x93\x08\xe6\x16\xc0\x9c}\xd6'\xd6\x17\xdd?"
p550
tp551
basg457
I00
ssg47
(lp552
g22
(g23
(I0
tp553
g25
tp554
Rp555
(I1
(I3
tp556
g163
I00
S'T\xbb\x96N2\xbe\x00@\x82L@.1\xc3\x1b\xc0\x010R\xc5\x9a~\x17@'
p557
tp558
bag22
(g23
(I0
tp559
g25
tp560
Rp561
(I1
(I3
tp562
g174
I00
S'\tf\xd5\xc3\xdb\xc1\x02@y9\xac\xaa\x85r\x1a\xc0n\x19\xc0\xf8c\xa8\xe2\xbf'
p563
tp564
bag22
(g23
(I0
tp565
g25
tp566
Rp567
(I1
(I3
tp568
g174
I00
S'\xd3s\x0b\xfa\xdf\xd9\x08@\xc52\xb7\xa7\x86L\x1b\xc0\xca\xe2\x95Rh\xea\xf6?'
p569
tp570
bag542
asbsg383
(itrajectory_representation.operator
Operator
p571
(dp572
g8
I01
sg9
(dp573
g427
Vrectangular_packing_box1
p574
ssg17
g429
sg19
(dp575
g431
(lp576
g22
(g23
(I0
tp577
g25
tp578
Rp579
(I1
(I3
tp580
g163
I00
S'\xa1\x06\x13\x1d\xd1\x1e\xfb?\x13[\x9e\x1a\xdb@\x18\xc0\x0c?F\x9a6\xdb\x05\xc0'
p581
tp582
bag22
(g23
(I0
tp583
g25
tp584
Rp585
(I1
(I3
tp586
g163
I00
S'\xdbl\xb4\xf000\xe2?@\xe5\xcb\xa3\x96\x9a\x1b\xc0f\x19$\x13\xd6\xaf\xd2?'
p587
tp588
bag22
(g23
(I0
tp589
g25
tp590
Rp591
(I1
(I3
tp592
g163
I00
S'E\x06\xc8/*K\xfc?\xe9\xf2;\xce\xc77\x1d\xc0\x12"\xba\xd1\x8c\'\xff?'
p593
tp594
basg457
I00
ssg47
(lp595
g22
(g23
(I0
tp596
g25
tp597
Rp598
(I1
(I3
tp599
g163
I00
S'T\xbb\x96N2\xbe\x00@\x82L@.1\xc3\x1b\xc0\x010R\xc5\x9a~\x17@'
p600
tp601
bag22
(g23
(I0
tp602
g25
tp603
Rp604
(I1
(I3
tp605
g174
I00
S'\tf\xd5\xc3\xdb\xc1\x02@y9\xac\xaa\x85r\x1a\xc0n\x19\xc0\xf8c\xa8\xe2\xbf'
p606
tp607
bag22
(g23
(I0
tp608
g25
tp609
Rp610
(I1
(I3
tp611
g174
I00
S'>\xc0\x12$\xd1\xa3\x02@L\xfb\xe9\xe8\x00\xfd\x1c\xc0\x1dL8%\x1b\x13\x04@'
p612
tp613
bag591
asbsg384
(itrajectory_representation.operator
Operator
p614
(dp615
g8
I01
sg9
(dp616
g427
Vsquare_packing_box2
p617
ssg17
g429
sg19
(dp618
g431
(lp619
g22
(g23
(I0
tp620
g25
tp621
Rp622
(I1
(I3
tp623
g163
I00
S'\xf8\x8bQU\xca\t\x04@\x15Y\x19\xe9\xe9\xaa\x1a\xc0\xa0\xeah\xdc\xc8B\xfa?'
p624
tp625
bag22
(g23
(I0
tp626
g25
tp627
Rp628
(I1
(I3
tp629
g163
I00
S'\x14\xbb\xc2\xe7\xf1\xdd\t@\x06\x80L\xbd\xcd]\x19\xc0\xfd&]pP1\x06@'
p630
tp631
bag22
(g23
(I0
tp632
g25
tp633
Rp634
(I1
(I3
tp635
g163
I00
S"\x8f\x87\x9f\n\xaa\x9b\xfe?\xce\xf7\xa5\xdd\xf2\x1e\x16\xc0\x81\xbe/'d\x8a\xe3\xbf"
p636
tp637
bag22
(g23
(I0
tp638
g25
tp639
Rp640
(I1
(I3
tp641
g163
I00
S'jx6\xd4q\x02\x06@\xfd\x12I\xda5\x93\x1a\xc0\x08\xda\xcdhl\xe6\xf7?'
p642
tp643
bag22
(g23
(I0
tp644
g25
tp645
Rp646
(I1
(I3
tp647
g163
I00
S'\xf5\xb8,\xc9\xb8X\x03@j&\x84\xdc\xa5\xc9\x1a\xc0$\xd3\x12\x1e.&\xf4?'
p648
tp649
basg457
I00
ssg47
(lp650
g22
(g23
(I0
tp651
g25
tp652
Rp653
(I1
(I3
tp654
g163
I00
S'T\xbb\x96N2\xbe\x00@\x82L@.1\xc3\x1b\xc0\x010R\xc5\x9a~\x17@'
p655
tp656
bag22
(g23
(I0
tp657
g25
tp658
Rp659
(I1
(I3
tp660
g174
I00
S'\xc4_\xf9\x03N\xba\x00@R\xfd8\x1fs\r\x1d\xc0\xa1\xe6w68\xd4\x03\xc0'
p661
tp662
bag22
(g23
(I0
tp663
g25
tp664
Rp665
(I1
(I3
tp666
g174
I00
S'>\xc0\x12$\xd1\xa3\x02@L\xfb\xe9\xe8\x00\xfd\x1c\xc0\x1dL8%\x1b\x13\x04@'
p667
tp668
bag646
asbsg385
(itrajectory_representation.operator
Operator
p669
(dp670
g8
I01
sg9
(dp671
g427
Vsquare_packing_box3
p672
ssg17
g429
sg19
(dp673
g431
(lp674
g22
(g23
(I0
tp675
g25
tp676
Rp677
(I1
(I3
tp678
g163
I00
S'3\x7fn3\xd99\t@(\xe2\xb7\x97\x0e)\x1d\xc0\xa2\x8a2\xd1Lu\xdf?'
p679
tp680
bag22
(g23
(I0
tp681
g25
tp682
Rp683
(I1
(I3
tp684
g163
I00
S'ex\xc8]\xc8D\n@\xc7\xb9\xf6\xb4\xc2D\x1d\xc0\x18\xa0\xcd\x82\xee\xaa\xd9?'
p685
tp686
bag22
(g23
(I0
tp687
g25
tp688
Rp689
(I1
(I3
tp690
g163
I00
S'\xb3;\xb5\xb6}F\t@\x0c\xe8\x9ef\n\x91\x1a\xc0FG\x19\x9c\xf2\xcb\xe1\xbf'
p691
tp692
basg457
I00
ssg47
(lp693
g22
(g23
(I0
tp694
g25
tp695
Rp696
(I1
(I3
tp697
g163
I00
S'T\xbb\x96N2\xbe\x00@\x82L@.1\xc3\x1b\xc0\x010R\xc5\x9a~\x17@'
p698
tp699
bag22
(g23
(I0
tp700
g25
tp701
Rp702
(I1
(I3
tp703
g174
I00
S'\xd0F\nX\x99\x97\x00@\x820\x00\xd6\xafP\x1e\xc0V\x17\x0f\xa5\x97\r\xff\xbf'
p704
tp705
bag22
(g23
(I0
tp706
g25
tp707
Rp708
(I1
(I3
tp709
g174
I00
S'h\xe5u\t\x19Z\x05@*\x05#\xa8W\x05\x1f\xc0\t\xdeI\x16\xa6\x8a\xee?'
p710
tp711
bag677
asbsg12
(itrajectory_representation.operator
Operator
p712
(dp713
g8
I01
sg9
(dp714
g11
g12
ssg17
S'two_arm_pick'
p715
sg19
(dp716
g21
g22
(g23
(I0
tp717
g25
tp718
Rp719
(I1
(I3
tp720
g32
I00
S'\x90TT\x17 \x82\xf3?\xf3U\xef79\xdc\x16\xc0\x8c,\x14I{\xfe\xed?'
p721
tp722
bssg47
(lp723
g22
(g23
(I0
tp724
g25
tp725
Rp726
(I1
(I3
tp727
g163
I00
S'T\xbb\x96N2\xbe\x00@\x82L@.1\xc3\x1b\xc0\x010R\xc5\x9a~\x17@'
p728
tp729
bag22
(g23
(I0
tp730
g25
tp731
Rp732
(I1
(I3
tp733
g174
I00
S'/\x08\xfbO\x0f\xe3\x04@j\xb9\xdeR\x8bv\x1a\xc0Nw\xbd\xbe\xd2\x01\xfd\xbf'
p734
tp735
bag22
(g23
(I0
tp736
g25
tp737
Rp738
(I1
(I3
tp739
g174
I00
S'\xb1\x91\x83\xd6J:\x00@X\xbf\x9b\xa3\xf7;\x19\xc0\xb4\xa9\x94\xff\xff\xd1\xec?'
p740
tp741
bag22
(g23
(I0
tp742
g25
tp743
Rp744
(I1
(I3
tp745
g174
I00
S'\x84\xa2s4\xa1\xd0\xf6?E=|\xb9\xcam\x17\xc0\xa93^V\xfc\xed\x05@'
p746
tp747
bag22
(g23
(I0
tp748
g25
tp749
Rp750
(I1
(I3
tp751
g174
I00
S'E6\xa2Z]\x01\xe8?\x8b\x06T\x92\xa7\x82\x16\xc0q\xc1\x9f~\xe7\n\xfb?'
p752
tp753
bag719
asbsg386
(itrajectory_representation.operator
Operator
p754
(dp755
g8
I01
sg9
(dp756
g427
Vsquare_packing_box4
p757
ssg17
g429
sg19
(dp758
g431
(lp759
g22
(g23
(I0
tp760
g25
tp761
Rp762
(I1
(I3
tp763
g163
I00
S'\x8e\xaf\xb6\xca\x9d\x1f\xdc?U\xf4\x0e\x10>p\x1a\xc0\x80\x9f\xef.\x7f\xbe\x01@'
p764
tp765
bag22
(g23
(I0
tp766
g25
tp767
Rp768
(I1
(I3
tp769
g163
I00
S'\xc5\xe1/a\xb1u\xe3?\xf46\x17\xd2\xd4\xe7\x15\xc0\xb1\x88\xb1*\x89\xc2\x06\xc0'
p770
tp771
bag22
(g23
(I0
tp772
g25
tp773
Rp774
(I1
(I3
tp775
g163
I00
S'\x1a\xc2\xc9\xfa\xa9\x97\xe3?\xe7\x97JK\x89G\x18\xc0\x90I\x94}\xaf\x85\x05@'
p776
tp777
bag22
(g23
(I0
tp778
g25
tp779
Rp780
(I1
(I3
tp781
g163
I00
S'\xfe\x9f\x94\xe9K\x1d\xe5?3`J\x8bCS\x17\xc0\x96\xfbh\x1b\x80N\x08\xc0'
p782
tp783
basg457
I00
ssg47
(lp784
g22
(g23
(I0
tp785
g25
tp786
Rp787
(I1
(I3
tp788
g163
I00
S'T\xbb\x96N2\xbe\x00@\x82L@.1\xc3\x1b\xc0\x010R\xc5\x9a~\x17@'
p789
tp790
bag22
(g23
(I0
tp791
g25
tp792
Rp793
(I1
(I3
tp794
g174
I00
S'/\x08\xfbO\x0f\xe3\x04@j\xb9\xdeR\x8bv\x1a\xc0Nw\xbd\xbe\xd2\x01\xfd\xbf'
p795
tp796
bag22
(g23
(I0
tp797
g25
tp798
Rp799
(I1
(I3
tp800
g174
I00
S'\xb1\x91\x83\xd6J:\x00@X\xbf\x9b\xa3\xf7;\x19\xc0\xb4\xa9\x94\xff\xff\xd1\xec?'
p801
tp802
bag22
(g23
(I0
tp803
g25
tp804
Rp805
(I1
(I3
tp806
g174
I00
S'\x84\xa2s4\xa1\xd0\xf6?E=|\xb9\xcam\x17\xc0\xa93^V\xfc\xed\x05@'
p807
tp808
bag780
asbssS'mc_paths'
p809
(dp810
sS'robot'
p811
NsS'reachable_obj_region_pairs'
p812
(lp813
sS'sampled_pick_configs_for_objects'
p814
(dp815
sS'mc_calls'
p816
I0
sS'pick_poses'
p817
g423
sS'problem_env'
p818
NsS'evaluations'
p819
(dp820
(g209
Vsquare_packing_box3
p821
g154
tp822
I00
s(g153
Vsquare_packing_box2
p823
g154
tp824
I00
s(g311
g823
g154
tp825
I00
s(g153
g311
g154
tp826
I01
s(g248
g153
g154
tp827
I00
s(g153
g821
g154
tp828
I00
s(g311
g821
g154
tp829
I00
s(g209
Vrectangular_packing_box1
p830
g154
tp831
I01
s(g248
Vsquare_packing_box1
p832
g154
tp833
I01
s(g311
g830
g154
tp834
I00
s(g153
g830
g154
tp835
I00
s(g209
g832
g154
tp836
I00
s(g209
g311
g154
tp837
I01
s(g248
g830
g154
tp838
I00
s(g311
g209
g154
tp839
I01
s(g153
g209
g154
tp840
I01
s(g311
g153
g154
tp841
I00
s(g248
g821
g154
tp842
I01
s(g311
g248
g154
tp843
I00
s(g248
g311
g154
tp844
I00
s(g153
g248
g154
tp845
I00
s(g248
g209
g154
tp846
I00
s(g209
g823
g154
tp847
I00
s(g153
g832
g154
tp848
I00
s(g311
g832
g154
tp849
I00
s(g209
g153
g154
tp850
I00
s(g248
g823
g154
tp851
I01
s(g209
g248
g154
tp852
I00
ssS'paths_to_reachable_entities'
p853
NsS'use_shortest_path'
p854
I01
sbsS'ternary_edges'
p855
(dp856
(g209
g209
g154
tp857
(lp858
I00
as(g832
S'loading_region'
p859
g859
tp860
(lp861
I00
as(S'entire_region'
p862
g830
g154
tp863
(lp864
I00
as(g823
g311
g859
tp865
(lp866
I00
as(g154
g154
g154
tp867
(lp868
I00
as(g311
g209
g859
tp869
(lp870
I00
as(g832
g248
g154
tp871
(lp872
I00
as(g154
g153
g154
tp873
(lp874
I00
as(g823
g832
g154
tp875
(lp876
I00
as(g248
g153
g859
tp877
(lp878
I00
as(g154
g311
g859
tp879
(lp880
I00
as(g823
g862
g154
tp881
(lp882
I00
as(g859
g154
g859
tp883
(lp884
I00
as(g153
g821
g154
tp885
(lp886
I00
as(g311
g862
g154
tp887
(lp888
I00
as(g823
g830
g859
tp889
(lp890
I00
as(g821
g859
g154
tp891
(lp892
I00
as(g862
g209
g859
tp893
(lp894
I00
as(g154
g862
g154
tp895
(lp896
I00
as(g209
g859
g154
tp897
(lp898
I00
as(g821
g862
g154
tp899
(lp900
I00
as(g832
g832
g859
tp901
(lp902
I00
as(g859
g311
g859
tp903
(lp904
I00
as(g862
g859
g154
tp905
(lp906
I00
as(g862
g823
g154
tp907
(lp908
I00
as(g859
g859
g154
tp909
(lp910
I00
as(g821
g153
g859
tp911
(lp912
I00
as(g154
g154
g859
tp913
(lp914
I00
as(g830
g823
g859
tp915
(lp916
I00
as(g209
g311
g154
tp917
(lp918
I01
as(g821
g832
g154
tp919
(lp920
I00
as(g830
g154
g859
tp921
(lp922
I00
as(g154
g209
g859
tp923
(lp924
I00
as(g830
g248
g859
tp925
(lp926
I00
as(g248
g830
g154
tp927
(lp928
I00
as(g859
g832
g859
tp929
(lp930
I00
as(g311
g823
g859
tp931
(lp932
I00
as(g209
g209
g859
tp933
(lp934
I00
as(g862
g311
g154
tp935
(lp936
I00
as(g859
g154
g154
tp937
(lp938
I00
as(g153
g209
g154
tp939
(lp940
I01
as(g154
g248
g154
tp941
(lp942
I00
as(g823
g830
g154
tp943
(lp944
I00
as(g248
g311
g154
tp945
(lp946
I00
as(g832
g248
g859
tp947
(lp948
I00
as(g821
g823
g154
tp949
(lp950
I00
as(g823
g832
g859
tp951
(lp952
I00
as(g823
g209
g859
tp953
(lp954
I00
as(g862
g823
g859
tp955
(lp956
I00
as(g859
g248
g859
tp957
(lp958
I00
as(g862
g154
g154
tp959
(lp960
I00
as(g153
g154
g154
tp961
(lp962
I00
as(g859
g862
g154
tp963
(lp964
I00
as(g209
g311
g859
tp965
(lp966
I00
as(g821
g209
g859
tp967
(lp968
I00
as(g821
g821
g154
tp969
(lp970
I00
as(g830
g248
g154
tp971
(lp972
I00
as(g862
g209
g154
tp973
(lp974
I00
as(g830
g859
g859
tp975
(lp976
I00
as(g311
g832
g154
tp977
(lp978
I00
as(g832
g832
g154
tp979
(lp980
I00
as(g832
g153
g154
tp981
(lp982
I00
as(g153
g209
g859
tp983
(lp984
I00
as(g311
g830
g859
tp985
(lp986
I00
as(g821
g153
g154
tp987
(lp988
I00
as(g830
g823
g154
tp989
(lp990
I00
as(g209
g830
g859
tp991
(lp992
I00
as(g830
g154
g154
tp993
(lp994
I00
as(g823
g209
g154
tp995
(lp996
I00
as(g209
g821
g154
tp997
(lp998
I00
as(g248
g830
g859
tp999
(lp1000
I00
as(g154
g823
g859
tp1001
(lp1002
I00
as(g862
g154
g859
tp1003
(lp1004
I00
as(g862
g311
g859
tp1005
(lp1006
I00
as(g821
g209
g154
tp1007
(lp1008
I00
as(g248
g821
g859
tp1009
(lp1010
I00
as(g209
g862
g859
tp1011
(lp1012
I00
as(g830
g859
g154
tp1013
(lp1014
I00
as(g821
g823
g859
tp1015
(lp1016
I00
as(g821
g830
g859
tp1017
(lp1018
I00
as(g311
g832
g859
tp1019
(lp1020
I00
as(g154
g248
g859
tp1021
(lp1022
I00
as(g862
g821
g859
tp1023
(lp1024
I00
as(g859
g248
g154
tp1025
(lp1026
I00
as(g859
g823
g859
tp1027
(lp1028
I00
as(g209
g830
g154
tp1029
(lp1030
I01
as(g311
g830
g154
tp1031
(lp1032
I00
as(g859
g821
g154
tp1033
(lp1034
I00
as(g209
g821
g859
tp1035
(lp1036
I00
as(g209
g153
g859
tp1037
(lp1038
I00
as(g248
g311
g859
tp1039
(lp1040
I00
as(g832
g153
g859
tp1041
(lp1042
I00
as(g830
g821
g859
tp1043
(lp1044
I00
as(g154
g832
g859
tp1045
(lp1046
I00
as(g248
g859
g859
tp1047
(lp1048
I00
as(g153
g154
g859
tp1049
(lp1050
I00
as(g832
g830
g154
tp1051
(lp1052
I00
as(g209
g862
g154
tp1053
(lp1054
I00
as(g153
g823
g859
tp1055
(lp1056
I00
as(g248
g209
g859
tp1057
(lp1058
I00
as(g821
g830
g154
tp1059
(lp1060
I00
as(g311
g859
g859
tp1061
(lp1062
I00
as(g823
g154
g154
tp1063
(lp1064
I00
as(g311
g153
g154
tp1065
(lp1066
I00
as(g154
g821
g859
tp1067
(lp1068
I00
as(g859
g830
g859
tp1069
(lp1070
I00
as(g859
g821
g859
tp1071
(lp1072
I00
as(g832
g821
g154
tp1073
(lp1074
I00
as(g830
g821
g154
tp1075
(lp1076
I00
as(g832
g830
g859
tp1077
(lp1078
I00
as(g248
g209
g154
tp1079
(lp1080
I00
as(g209
g823
g154
tp1081
(lp1082
I00
as(g248
g154
g859
tp1083
(lp1084
I00
as(g311
g859
g154
tp1085
(lp1086
I00
as(g859
g153
g859
tp1087
(lp1088
I00
as(g209
g153
g154
tp1089
(lp1090
I00
as(g248
g248
g154
tp1091
(lp1092
I00
as(g153
g153
g154
tp1093
(lp1094
I00
as(g153
g248
g859
tp1095
(lp1096
I00
as(g248
g859
g154
tp1097
(lp1098
I00
as(g821
g311
g154
tp1099
(lp1100
I00
as(g153
g823
g154
tp1101
(lp1102
I00
as(g823
g859
g859
tp1103
(lp1104
I00
as(g248
g862
g859
tp1105
(lp1106
I00
as(g823
g154
g859
tp1107
(lp1108
I00
as(g832
g823
g859
tp1109
(lp1110
I00
as(g311
g153
g859
tp1111
(lp1112
I00
as(g821
g154
g859
tp1113
(lp1114
I00
as(g248
g154
g154
tp1115
(lp1116
I00
as(g859
g153
g154
tp1117
(lp1118
I00
as(g830
g830
g154
tp1119
(lp1120
I00
as(g859
g311
g154
tp1121
(lp1122
I00
as(g311
g821
g154
tp1123
(lp1124
I00
as(g832
g209
g154
tp1125
(lp1126
I00
as(g832
g821
g859
tp1127
(lp1128
I00
as(g153
g832
g859
tp1129
(lp1130
I00
as(g154
g823
g154
tp1131
(lp1132
I00
as(g862
g248
g859
tp1133
(lp1134
I00
as(g248
g832
g154
tp1135
(lp1136
I01
as(g830
g862
g154
tp1137
(lp1138
I00
as(g821
g311
g859
tp1139
(lp1140
I00
as(g821
g248
g859
tp1141
(lp1142
I00
as(g153
g830
g154
tp1143
(lp1144
I00
as(g209
g823
g859
tp1145
(lp1146
I00
as(g153
g859
g154
tp1147
(lp1148
I00
as(g248
g862
g154
tp1149
(lp1150
I00
as(g311
g248
g859
tp1151
(lp1152
I00
as(g209
g832
g154
tp1153
(lp1154
I00
as(g821
g832
g859
tp1155
(lp1156
I00
as(g311
g311
g859
tp1157
(lp1158
I00
as(g153
g153
g859
tp1159
(lp1160
I00
as(g830
g830
g859
tp1161
(lp1162
I00
as(g832
g311
g859
tp1163
(lp1164
I00
as(g311
g823
g154
tp1165
(lp1166
I00
as(g862
g832
g154
tp1167
(lp1168
I00
as(g154
g862
g859
tp1169
(lp1170
I00
as(g154
g830
g859
tp1171
(lp1172
I00
as(g823
g859
g154
tp1173
(lp1174
I00
as(g832
g209
g859
tp1175
(lp1176
I00
as(g830
g832
g859
tp1177
(lp1178
I00
as(g248
g248
g859
tp1179
(lp1180
I00
as(g862
g248
g154
tp1181
(lp1182
I00
as(g823
g248
g859
tp1183
(lp1184
I00
as(g830
g862
g859
tp1185
(lp1186
I00
as(g832
g823
g154
tp1187
(lp1188
I00
as(g153
g830
g859
tp1189
(lp1190
I00
as(g153
g248
g154
tp1191
(lp1192
I00
as(g311
g248
g154
tp1193
(lp1194
I00
as(g832
g154
g859
tp1195
(lp1196
I00
as(g823
g821
g154
tp1197
(lp1198
I00
as(g821
g821
g859
tp1199
(lp1200
I00
as(g153
g862
g154
tp1201
(lp1202
I00
as(g859
g862
g859
tp1203
(lp1204
I00
as(g311
g821
g859
tp1205
(lp1206
I00
as(g859
g830
g154
tp1207
(lp1208
I00
as(g862
g862
g859
tp1209
(lp1210
I00
as(g153
g832
g154
tp1211
(lp1212
I00
as(g832
g311
g154
tp1213
(lp1214
I00
as(g859
g209
g859
tp1215
(lp1216
I00
as(g248
g832
g859
tp1217
(lp1218
I00
as(g821
g154
g154
tp1219
(lp1220
I00
as(g862
g832
g859
tp1221
(lp1222
I00
as(g821
g248
g154
tp1223
(lp1224
I00
as(g248
g823
g154
tp1225
(lp1226
I01
as(g153
g859
g859
tp1227
(lp1228
I00
as(g209
g832
g859
tp1229
(lp1230
I00
as(g830
g209
g154
tp1231
(lp1232
I00
as(g862
g859
g859
tp1233
(lp1234
I00
as(g859
g209
g154
tp1235
(lp1236
I00
as(g832
g862
g154
tp1237
(lp1238
I00
as(g823
g821
g859
tp1239
(lp1240
I00
as(g823
g153
g859
tp1241
(lp1242
I00
as(g311
g154
g154
tp1243
(lp1244
I00
as(g153
g862
g859
tp1245
(lp1246
I00
as(g153
g311
g154
tp1247
(lp1248
I01
as(g862
g153
g859
tp1249
(lp1250
I00
as(g154
g830
g154
tp1251
(lp1252
I00
as(g154
g821
g154
tp1253
(lp1254
I00
as(g830
g832
g154
tp1255
(lp1256
I00
as(g830
g153
g154
tp1257
(lp1258
I00
as(g862
g821
g154
tp1259
(lp1260
I00
as(g823
g248
g154
tp1261
(lp1262
I00
as(g823
g823
g859
tp1263
(lp1264
I00
as(g830
g311
g859
tp1265
(lp1266
I00
as(g311
g154
g859
tp1267
(lp1268
I00
as(g209
g154
g154
tp1269
(lp1270
I00
as(g832
g154
g154
tp1271
(lp1272
I00
as(g830
g209
g859
tp1273
(lp1274
I00
as(g311
g209
g154
tp1275
(lp1276
I01
as(g154
g859
g154
tp1277
(lp1278
I00
as(g862
g862
g154
tp1279
(lp1280
I00
as(g209
g248
g859
tp1281
(lp1282
I00
as(g832
g862
g859
tp1283
(lp1284
I00
as(g859
g823
g154
tp1285
(lp1286
I00
as(g248
g153
g154
tp1287
(lp1288
I00
as(g862
g153
g154
tp1289
(lp1290
I00
as(g832
g859
g154
tp1291
(lp1292
I00
as(g248
g823
g859
tp1293
(lp1294
I00
as(g154
g832
g154
tp1295
(lp1296
I00
as(g862
g830
g859
tp1297
(lp1298
I00
as(g311
g862
g859
tp1299
(lp1300
I00
as(g823
g823
g154
tp1301
(lp1302
I00
as(g830
g311
g154
tp1303
(lp1304
I00
as(g821
g862
g859
tp1305
(lp1306
I00
as(g823
g153
g154
tp1307
(lp1308
I00
as(g154
g311
g154
tp1309
(lp1310
I00
as(g248
g821
g154
tp1311
(lp1312
I01
as(g153
g311
g859
tp1313
(lp1314
I00
as(g311
g311
g154
tp1315
(lp1316
I00
as(g830
g153
g859
tp1317
(lp1318
I00
as(g823
g311
g154
tp1319
(lp1320
I00
as(g821
g859
g859
tp1321
(lp1322
I00
as(g154
g209
g154
tp1323
(lp1324
I00
as(g209
g859
g859
tp1325
(lp1326
I00
as(g154
g153
g859
tp1327
(lp1328
I00
as(g209
g154
g859
tp1329
(lp1330
I00
as(g859
g859
g859
tp1331
(lp1332
I00
as(g823
g862
g859
tp1333
(lp1334
I00
as(g153
g821
g859
tp1335
(lp1336
I00
as(g154
g859
g859
tp1337
(lp1338
I00
as(g209
g248
g154
tp1339
(lp1340
I00
as(g859
g832
g154
tp1341
(lp1342
I00
assg422
g423
sS'use_prm'
p1343
I01
sS'object_names'
p1344
(lp1345
S'square_packing_box1'
p1346
aS'rectangular_packing_box1'
p1347
aS'square_packing_box2'
p1348
aS'rectangular_packing_box2'
p1349
aS'square_packing_box3'
p1350
aS'rectangular_packing_box3'
p1351
aS'square_packing_box4'
p1352
aS'rectangular_packing_box4'
p1353
asg818
NsS'current_holding_collides'
p1354
NsS'object_poses'
p1355
(dp1356
Vrectangular_packing_box4
p1357
g22
(g23
(I0
tp1358
g25
tp1359
Rp1360
(I1
(I1
I3
tp1361
g163
I00
S'v\x97\x1d\xc3D\x8a\xd3? \x17T6\xb5\r\x1e\xc0\x93\xa3\xc5\xcc\xb5\x9e\t@'
p1362
tp1363
bsVrectangular_packing_box2
p1364
g22
(g23
(I0
tp1365
g25
tp1366
Rp1367
(I1
(I1
I3
tp1368
g163
I00
S'\xa0\x87\x87\x9a\xdc\xcf\xe4?/f\xd4\x87\xe3\xe7\x1a\xc0\xb5\n \\{`\x06@'
p1369
tp1370
bsVrectangular_packing_box3
p1371
g22
(g23
(I0
tp1372
g25
tp1373
Rp1374
(I1
(I1
I3
tp1375
g163
I00
S'\x00I\xaf\'A\xff\x0e@\x91\tf"%\xcb\x16\xc0i\xcb\x0b\x18\x03\xad\xfa?'
p1376
tp1377
bsVrectangular_packing_box1
p1378
g22
(g23
(I0
tp1379
g25
tp1380
Rp1381
(I1
(I1
I3
tp1382
g163
I00
S'\xfa\x8f\x80\x1c\xdc\r\xf4?+t\x10\xbe\xea[\x1a\xc0j\xa8\x8f\xb8\x01\x1c\x15@'
p1383
tp1384
bsVsquare_packing_box2
p1385
g22
(g23
(I0
tp1386
g25
tp1387
Rp1388
(I1
(I1
I3
tp1389
g163
I00
S'\xb4\xabc\x8d\xc0|\x05@zG{\xf3H\xcd\x17\xc0~\xe34\x92\xeeR\x17@'
p1390
tp1391
bsVsquare_packing_box3
p1392
g22
(g23
(I0
tp1393
g25
tp1394
Rp1395
(I1
(I1
I3
tp1396
g163
I00
S'\xfc\xe9\xf5\xc6\xe1v\x0e@\n\xed^\xdfSX\x1b\xc0\x19t\xa3\xfe,2\x10@'
p1397
tp1398
bsVsquare_packing_box1
p1399
g22
(g23
(I0
tp1400
g25
tp1401
Rp1402
(I1
(I1
I3
tp1403
g163
I00
S'2RD\xb2e\x90\xfc?\x8bF\x82,\xc6U\x15\xc0s7\x84\xeed\xdd\x0c@'
p1404
tp1405
bsVsquare_packing_box4
p1406
g22
(g23
(I0
tp1407
g25
tp1408
Rp1409
(I1
(I1
I3
tp1410
g163
I00
S'@\xd9\x91a2\xd7-\xbf\x821\xaa\xb5?\x99\x17\xc0h/_g\xbb\x10\x16@'
p1411
tp1412
bssS'reachable_regions_while_holding'
p1413
(lp1414
(g382
g859
tp1415
a(g477
g859
tp1416
a(g521
g859
tp1417
a(g383
g859
tp1418
a(g384
g859
tp1419
a(g385
g859
tp1420
a(g12
g859
tp1421
a(g386
g859
tp1422
a(g383
g154
tp1423
a(g384
g154
tp1424
a(g385
g154
tp1425
a(g12
g154
tp1426
asS'in_region'
p1427
(itrajectory_representation.predicates.in_region
InRegion
p1428
(dp1429
g818
NsbsS'cached_pick_paths'
p1430
(dp1431
g382
g458
sg477
g502
sg521
g552
sg383
g595
sg384
g650
sg385
g693
sg12
g723
sg386
g784
ssg387
(dp1432
(Vsquare_packing_box4
p1433
(cnumpy.core.multiarray
scalar
p1434
(g163
S'$\x0fD\x16i\xe2-\xbf'
p1435
tp1436
Rp1437
g1434
(g163
S'KxB\xaf?\x99\x17\xc0'
p1438
tp1439
Rp1440
g1434
(g163
S'pw\xd6n\xbb\x10\x16@'
p1441
tp1442
Rp1443
tp1444
tp1445
g421
s(Vrectangular_packing_box4
p1446
(g1434
(g163
S'N\xb3@\xbbC\x8a\xd3?'
p1447
tp1448
Rp1449
g1434
(g163
S'&\xc4\\R\xb5\r\x1e\xc0'
p1450
tp1451
Rp1452
g1434
(g163
S'\x02\xd4\xd4\xb2\xb5\x9e\t@'
p1453
tp1454
Rp1455
tp1456
tp1457
g393
s(Vrectangular_packing_box1
p1458
(g1434
(g163
S'NF\x95a\xdc\r\xf4?'
p1459
tp1460
Rp1461
g1434
(g163
S':\x90\xf5\xd4\xea[\x1a\xc0'
p1462
tp1463
Rp1464
g1434
(g163
S'\xb2.n\xa3\x01\x1c\x15@'
p1465
tp1466
Rp1467
tp1468
tp1469
g405
s(Vsquare_packing_box3
p1470
(g1434
(g163
S'!\xc9\xac\xde\xe1v\x0e@'
p1471
tp1472
Rp1473
g1434
(g163
S'L4H\xc1SX\x1b\xc0'
p1474
tp1475
Rp1476
g1434
(g163
S'\x19\x04V\x0e-2\x10@'
p1477
tp1478
Rp1479
tp1480
tp1481
g413
s(Vrectangular_packing_box2
p1482
(g1434
(g163
S'\x06f\x85"\xdd\xcf\xe4?'
p1483
tp1484
Rp1485
g1434
(g163
S'\x8c1\xb0\x8e\xe3\xe7\x1a\xc0'
p1486
tp1487
Rp1488
g1434
(g163
S'8\x84*5{`\x06@'
p1489
tp1490
Rp1491
tp1492
tp1493
g397
s(Vsquare_packing_box2
p1494
(g1434
(g163
S'\xc7\xf2\xaez\xc0|\x05@'
p1495
tp1496
Rp1497
g1434
(g163
S'\x10\xcbf\x0eI\xcd\x17\xc0'
p1498
tp1499
Rp1500
g1434
(g163
S'Jy\xad\x84\xeeR\x17@'
p1501
tp1502
Rp1503
tp1504
tp1505
g409
s(Vsquare_packing_box1
p1506
(g1434
(g163
S'\xcc_!se\x90\xfc?'
p1507
tp1508
Rp1509
g1434
(g163
S'\x1eT\xe2:\xc6U\x15\xc0'
p1510
tp1511
Rp1512
g1434
(g163
S'\xc0\xcb\x0c\x1be\xdd\x0c@'
p1513
tp1514
Rp1515
tp1516
tp1517
g417
s(Vrectangular_packing_box3
p1518
(g1434
(g163
S'\xeb;\xbf(A\xff\x0e@'
p1519
tp1520
Rp1521
g1434
(g163
S'\xdb2\xe0,%\xcb\x16\xc0'
p1522
tp1523
Rp1524
g1434
(g163
S'\x16\xda9\xcd\x02\xad\xfa?'
p1525
tp1526
Rp1527
tp1528
tp1529
g401
ssS'state_saver'
p1530
(igtamp_utils.utils
CustomStateSaver
p1531
(dp1532
S'robot_base_pose'
p1533
g22
(g23
(I0
tp1534
g25
tp1535
Rp1536
(I1
(I1
I3
tp1537
g163
I00
S'X\xbb\x96N2\xbe\x00@\x80L@.1\xc3\x1b\xc0\x010R\xc5\x9a~\x17@'
p1538
tp1539
bsS'held_object'
p1540
NsS'robot_name'
p1541
S'pr2'
p1542
sS'env_id'
p1543
I1
sg1355
(dp1544
Vright_wall_1
p1545
g22
(g23
(I0
tp1546
g25
tp1547
Rp1548
(I1
(I4
tp1549
g163
I00
S'H\xe1z\x14\xaeG\x12@&\\\x8f\xc2\xf5(\xd4\xbf\xcc\x7fH\xbf}\x1d\xed?\x00\x00\x00\x00\x00\x00\x00\x00'
p1550
tp1551
bsVc_obst5
p1552
g22
(g23
(I0
tp1553
g25
tp1554
Rp1555
(I1
(I4
tp1556
g163
I00
S"Fz\xec\x95V2\x12@\xe6\xd6\x8ah\x8fl\xd4?e\xaa`TR'\xed?\x0f\xd0\xb36\x7f0\xf9?"
p1557
tp1558
bsVentrance_right
p1559
g22
(g23
(I0
tp1560
g25
tp1561
Rp1562
(I1
(I4
tp1563
g163
I00
S'ffffff\n@H\xe1z\x14\xaeG\t\xc0\x9c\xc4 \xb0rh\xc1?\x00\x00\x00\x00\x00\x00\x00\x00'
p1564
tp1565
bsVcomputer_table
p1566
g22
(g23
(I0
tp1567
g25
tp1568
Rp1569
(I1
(I4
tp1570
g163
I00
S'\x00\x00\x00\x00\x00\x00\x13@\x00\x00\x00\x00\x00\x00\xf8\xbf\x96C\x8bl\xe7\xfb\xe7?\xd2!3\x7f|\xd9\x12@'
p1571
tp1572
bsVchair_6b56
p1573
g22
(g23
(I0
tp1574
g25
tp1575
Rp1576
(I1
(I4
tp1577
g163
I00
S'u=\n\xd7\xa3p\xf5?K\xe1z\x14\xaeG\xd1?\x00\x00\x00\x00\x00\x00\x00\x00\xd6$\xfaNBm\n@'
p1578
tp1579
bsVsquare_packing_box3
p1580
g22
(g23
(I0
tp1581
g25
tp1582
Rp1583
(I1
(I4
tp1584
g163
I00
S'\xff\xe9\xf5\xc6\xe1v\x0e@\r\xed^\xdfSX\x1b\xc0L7\x89A`\xe5\xd8?\x19t\xa3\xfe,2\x10@'
p1585
tp1586
bsVsquare_packing_box2
p1587
g22
(g23
(I0
tp1588
g25
tp1589
Rp1590
(I1
(I4
tp1591
g163
I00
S'\xb4\xabc\x8d\xc0|\x05@zG{\xf3H\xcd\x17\xc0L7\x89A`\xe5\xd8?~\xe34\x92\xeeR\x17@'
p1592
tp1593
bsVtable
p1594
g22
(g23
(I0
tp1595
g25
tp1596
Rp1597
(I1
(I4
tp1598
g163
I00
S'\x7f\xf6#EdX\xed?\xac\xffs\x98//\xc0\xbf\x00\x00\x00\x00\x00\x00\x00\x00\x00\x00\x00\x00\x00\x00\x00\x00'
p1599
tp1600
bsVsquare_packing_box1
p1601
g22
(g23
(I0
tp1602
g25
tp1603
Rp1604
(I1
(I4
tp1605
g163
I00
S':RD\xb2e\x90\xfc?\x90F\x82,\xc6U\x15\xc0L7\x89A`\xe5\xd8?s7\x84\xeed\xdd\x0c@'
p1606
tp1607
bsVback_wall_2
p1608
g22
(g23
(I0
tp1609
g25
tp1610
Rp1611
(I1
(I4
tp1612
g163
I00
S'\xaeG\xe1z\x14.\x13@\x80\x14\xaeG\xe1z\xc4?xX\xa85\xcd\xbb\xf2?\x00\x00\x00\x00\x00\x00\x00\x00'
p1613
tp1614
bsVchair_083c
p1615
g22
(g23
(I0
tp1616
g25
tp1617
Rp1618
(I1
(I4
tp1619
g163
I00
S'\xa4p=\n\xd7\xa3\xe0?333333\xe3\xbf\x00\x00\x00\x00\x00\x00\x00\x00\x00\x00\x00\x00\x00\x00\x00\x00'
p1620
tp1621
bsVback_wall_1
p1622
g22
(g23
(I0
tp1623
g25
tp1624
Rp1625
(I1
(I4
tp1626
g163
I00
S'\xaeG\xe1z\x14.\x13@\x80\x14\xaeG\xe1z\xc4?\xcc\x7fH\xbf}\x1d\xed?\x00\x00\x00\x00\x00\x00\x00\x00'
p1627
tp1628
bsVbottom_wall
p1629
g22
(g23
(I0
tp1630
g25
tp1631
Rp1632
(I1
(I4
tp1633
g163
I00
S'\x00\x00\x00\x00\x00\x00\xfc?\x00\x00\x00\x00\x00\x00\x00\x00\x00\x00\x00\x00\x00\x00\x00\x00\x00\x00\x00\x00\x00\x00\x00\x00'
p1634
tp1635
bsVcup_905a
p1636
g22
(g23
(I0
tp1637
g25
tp1638
Rp1639
(I1
(I4
tp1640
g163
I00
S'\x00\x00\x00\x00\x00\x00\xf0?\x83\xc0\xca\xa1E\xb6\xdb?\x1b/\xdd$\x06\x81\xed?\x00\x00\x00\x00\x00\x00\x00\x00'
p1641
tp1642
bsVplate_496f
p1643
g22
(g23
(I0
tp1644
g25
tp1645
Rp1646
(I1
(I4
tp1647
g163
I00
S"q=\n\xd7\xa3p\xe5?\x9dhW!\xe5'\xdd\xbf\x1b/\xdd$\x06\x81\xed?\x00\x00\x00\x00\x00\x00\x00\x00"
p1648
tp1649
bsVtoaster
p1650
g22
(g23
(I0
tp1651
g25
tp1652
Rp1653
(I1
(I4
tp1654
g163
I00
S')\\\x8f\xc2\xf5(\xf4\xbf\xe0z\x14\xaeG\xe1\xf2\xbf\xb8\x1e\x85\xebQ\xb8\xee?\x89/`\x9b\xf8\x8a\xe4?'
p1655
tp1656
bsVc_obst1
p1657
g22
(g23
(I0
tp1658
g25
tp1659
Rp1660
(I1
(I4
tp1661
g163
I00
S"\xd4\x00\xa2\xe1\x159\x12@\x10TH6\xd7\xd5\xde?e\xaa`TR'\xed?\xa2O\x916\xe7\xdb\xf6?"
p1662
tp1663
bsVrectangular_packing_box4
p1664
g22
(g23
(I0
tp1665
g25
tp1666
Rp1667
(I1
(I4
tp1668
g163
I00
S'p\x97\x1d\xc3D\x8a\xd3?\x1c\x17T6\xb5\r\x1e\xc0L7\x89A`\xe5\xd8?\x93\xa3\xc5\xcc\xb5\x9e\t@'
p1669
tp1670
bsVmicrowave
p1671
g22
(g23
(I0
tp1672
g25
tp1673
Rp1674
(I1
(I4
tp1675
g163
I00
S'\x9a\x99\x99\x99\x99\x99\xf1\xbf\x00\x00\x00\x00\x00\x00\x00@7\x89A`\xe5\xd0\xee?\x00\x00\x00\x00\x00\x00\x00\x00'
p1676
tp1677
bsVc_obst7
p1678
g22
(g23
(I0
tp1679
g25
tp1680
Rp1681
(I1
(I4
tp1682
g163
I00
S"\x95\xd9?]0^\x12@\xd0B\x18\xca\x8c\x8d\xd8?e\xaa`TR'\xed?N\x81\xd5\x87q-\x04@"
p1683
tp1684
bsVc_obst6
p1685
g22
(g23
(I0
tp1686
g25
tp1687
Rp1688
(I1
(I4
tp1689
g163
I00
S"\xc2\x80S\xc1\xe2s\x12@@\xbc\x86\xb6\x07\xc2\xdd?e\xaa`TR'\xed?O?\x85\x10\xe8!\x12@"
p1690
tp1691
bsVcup_b6af
p1692
g22
(g23
(I0
tp1693
g25
tp1694
Rp1695
(I1
(I4
tp1696
g163
I00
S'R\xb8\x1e\x85\xebQ\xe8?\x9a\x99\x99\x99\x99\x99\xe1?\x1b/\xdd$\x06\x81\xed?\x00\x00\x00\x00\x00\x00\x00\x00'
p1697
tp1698
bsVc_obst4
p1699
g22
(g23
(I0
tp1700
g25
tp1701
Rp1702
(I1
(I4
tp1703
g163
I00
S"Zy\xd5)J,\x12@\x90&\x89\xb2\xdd\xe7\xb9?e\xaa`TR'\xed?\xce\x99>D\xe5\x02\x05@"
p1704
tp1705
bsVrectangular_packing_box2
p1706
g22
(g23
(I0
tp1707
g25
tp1708
Rp1709
(I1
(I4
tp1710
g163
I00
S'\x9e\x87\x87\x9a\xdc\xcf\xe4?,f\xd4\x87\xe3\xe7\x1a\xc0L7\x89A`\xe5\xd8?\xb5\n \\{`\x06@'
p1711
tp1712
bsVplate_fa76
p1713
g22
(g23
(I0
tp1714
g25
tp1715
Rp1716
(I1
(I4
tp1717
g163
I00
S'=\n\xd7\xa3p=\xf2?\x00\x00\x00\x00\x00\x00\x00\x00\x1b/\xdd$\x06\x81\xed?\x00\x00\x00\x00\x00\x00\x00\x00'
p1718
tp1719
bsVfloorwalls
p1720
g22
(g23
(I0
tp1721
g25
tp1722
Rp1723
(I1
(I4
tp1724
g163
I00
S'\xc7\xcc\xcc\xcc\xcc\xcc\xfc?\x00\x00\x00\x00\x00\x00\x18\xc0H\xe1z\x14\xaeG\xc1?\x16-DT\xfb!\xf9?'
p1725
tp1726
bsVpin_c671
p1727
g22
(g23
(I0
tp1728
g25
tp1729
Rp1730
(I1
(I4
tp1731
g163
I00
S'\xc3\xf5(\\\x8f\xc2\xf1\xbf}?5^\xbaI\x02@\xb8\x1e\x85\xebQ\xb8\xfa?\x00\x00\x00\x00\x00\x00\x00\x00'
p1732
tp1733
bsVc_obst3
p1734
g22
(g23
(I0
tp1735
g25
tp1736
Rp1737
(I1
(I4
tp1738
g163
I00
S"\tR\xc8\xd5X\xfb\x11@\x98\xbd\xbdDr\xa2\xd9?e\xaa`TR'\xed?\xf0\x17\xf7JxW\x0b@"
p1739
tp1740
bsVchair_2e39
p1741
g22
(g23
(I0
tp1742
g25
tp1743
Rp1744
(I1
(I4
tp1745
g163
I00
S'hfffff\xee?cfffff\xf2\xbf\x00\x00\x00\x00\x00\x00\x00\x00\x07M\xe8QQF\xf3?'
p1746
tp1747
bsVentrance_left
p1748
g22
(g23
(I0
tp1749
g25
tp1750
Rp1751
(I1
(I4
tp1752
g163
I00
S'\x98\x99\x99\x99\x99\x99\xe9\xbfH\xe1z\x14\xaeG\t\xc0\x9c\xc4 \xb0rh\xc1?\x00\x00\x00\x00\x00\x00\x00\x00'
p1753
tp1754
bsVtop_wall_1
p1755
g22
(g23
(I0
tp1756
g25
tp1757
Rp1758
(I1
(I4
tp1759
g163
I00
S'H\xe1z\x14\xaeG\x12@\x80\x14\xaeG\xe1z\xc4?xX\xa85\xcd\xbb\xf2?\x00\x00\x00\x00\x00\x00\x00\x00'
p1760
tp1761
bsVrectangular_packing_box3
p1762
g22
(g23
(I0
tp1763
g25
tp1764
Rp1765
(I1
(I4
tp1766
g163
I00
S'\xfcH\xaf\'A\xff\x0e@\x94\tf"%\xcb\x16\xc0L7\x89A`\xe5\xd8?i\xcb\x0b\x18\x03\xad\xfa?'
p1767
tp1768
bsVshaker
p1769
g22
(g23
(I0
tp1770
g25
tp1771
Rp1772
(I1
(I4
tp1773
g163
I00
S'\n\xd7\xa3p=\n\x01@\x14\xaeG\xe1z\x14\x02@\\\x8f\xc2\xf5(\\\xef?\x00\x00\x00\x00\x00\x00\x00\x00'
p1774
tp1775
bsVc_obst9
p1776
g22
(g23
(I0
tp1777
g25
tp1778
Rp1779
(I1
(I4
tp1780
g163
I00
S"\x9b\x1e\xdd\xd6\xc9\x94\x12@\x98\x1e\x0c\xe7z\xc9\xbd?e\xaa`TR'\xed?F/\xd3c\xadn\xe1?"
p1781
tp1782
bsVplate_835a
p1783
g22
(g23
(I0
tp1784
g25
tp1785
Rp1786
(I1
(I4
tp1787
g163
I00
S'\xf6(\\\x8f\xc2\xf5\xf0?\\\x8f\xc2\xf5(\\\xe7\xbf\x1b/\xdd$\x06\x81\xed?\x00\x00\x00\x00\x00\x00\x00\x00'
p1788
tp1789
bsVcup_58a2
p1790
g22
(g23
(I0
tp1791
g25
tp1792
Rp1793
(I1
(I4
tp1794
g163
I00
S'\x85\xebQ\xb8\x1e\x85\xe3?\xcd\xcc\xcc\xcc\xcc\xcc\xdc?\x1b/\xdd$\x06\x81\xed?\x00\x00\x00\x00\x00\x00\x00\x00'
p1795
tp1796
bsVleft_wall_1
p1797
g22
(g23
(I0
tp1798
g25
tp1799
Rp1800
(I1
(I4
tp1801
g163
I00
S'H\xe1z\x14\xaeG\x12@S\xb8\x1e\x85\xebQ\xe4?\xcc\x7fH\xbf}\x1d\xed?\x00\x00\x00\x00\x00\x00\x00\x00'
p1802
tp1803
bsVc_obst2
p1804
g22
(g23
(I0
tp1805
g25
tp1806
Rp1807
(I1
(I4
tp1808
g163
I00
S"!\x84caL\xea\x11@@<b\x95\xc4\xde\x9f?e\xaa`TR'\xed?\xee\x17\x03\xb1\x81\x8e\n@"
p1809
tp1810
bsVsquare_packing_box4
p1811
g22
(g23
(I0
tp1812
g25
tp1813
Rp1814
(I1
(I4
tp1815
g163
I00
S'P&\x92a2\xd7-\xbf\x821\xaa\xb5?\x99\x17\xc0L7\x89A`\xe5\xd8?h/_g\xbb\x10\x16@'
p1816
tp1817
bsVrectangular_packing_box1
p1818
g22
(g23
(I0
tp1819
g25
tp1820
Rp1821
(I1
(I4
tp1822
g163
I00
S'\xfe\x8f\x80\x1c\xdc\r\xf4?-t\x10\xbe\xea[\x1a\xc0L7\x89A`\xe5\xd8?j\xa8\x8f\xb8\x01\x1c\x15@'
p1823
tp1824
bsVpin_371e
p1825
g22
(g23
(I0
tp1826
g25
tp1827
Rp1828
(I1
(I4
tp1829
g163
I00
S'333333\xf3\xbfffffff\xf6?\xb8\x1e\x85\xebQ\xb8\xee?\x00\x00\x00\x00\x00\x00\x00\x00'
p1830
tp1831
bsVfridge
p1832
g22
(g23
(I0
tp1833
g25
tp1834
Rp1835
(I1
(I4
tp1836
g163
I00
S'\xd7\xa3p=\n\xd7\xeb\xbf\x00\x00\x00\x00\x00\x00\x00\xc0\xcd\xcc\xcc\xcc\xcc\xcc\xf8?\x00\x00\x00\x00\x00\x00\x00\x00'
p1837
tp1838
bsVcup_d441
p1839
g22
(g23
(I0
tp1840
g25
tp1841
Rp1842
(I1
(I4
tp1843
g163
I00
S'\n\xd7\xa3p=\n\xef?\x8f\xc2\xf5(\\\x8f\xe2?\x1b/\xdd$\x06\x81\xed?\x00\x00\x00\x00\x00\x00\x00\x00'
p1844
tp1845
bsVshelf2
p1846
g22
(g23
(I0
tp1847
g25
tp1848
Rp1849
(I1
(I4
tp1850
g163
I00
S'\x00\x00\x00\x00\x00\x00\x0e@\xaeG\xe1z\x14\xae\x07@\x9c\xc4 \xb0rh\xc1?\xd2!3\x7f|\xd9\x12@'
p1851
tp1852
bsVtop_wall_2
p1853
g22
(g23
(I0
tp1854
g25
tp1855
Rp1856
(I1
(I4
tp1857
g163
I00
S'H\xe1z\x14\xaeG\x12@\x80\x14\xaeG\xe1z\xc4?\x16HP\xfc\x18\xf3\xfd?\x00\x00\x00\x00\x00\x00\x00\x00'
p1858
tp1859
bsVc_obst0
p1860
g22
(g23
(I0
tp1861
g25
tp1862
Rp1863
(I1
(I4
tp1864
g163
I00
S"@Yj;w\xf7\x11@2\xdb\x1e\x9b\xd3\xd3\xc7?e\xaa`TR'\xed?/\x9b\x84\xbe\xa2\x1a\xf3?"
p1865
tp1866
bsVshelf1
p1867
g22
(g23
(I0
tp1868
g25
tp1869
Rp1870
(I1
(I4
tp1871
g163
I00
S'\x00\x00\x00\x00\x00\x00\x13@\xaeG\xe1z\x14\xae\x07@\x9c\xc4 \xb0rh\xc1?\xd2!3\x7f|\xd9\x12@'
p1872
tp1873
bsVsink
p1874
g22
(g23
(I0
tp1875
g25
tp1876
Rp1877
(I1
(I4
tp1878
g163
I00
S'ffffff\xd6?333333\x01@\x9a\x99\x99\x99\x99\x99\xb9\xbf\x00\x00\x00\x00\x00\x00\x00\x00'
p1879
tp1880
bsVpr2
p1881
g22
(g23
(I0
tp1882
g25
tp1883
Rp1884
(I1
(I4
tp1885
g163
I00
S'W\xbb\x96N2\xbe\x00@\x80L@.1\xc3\x1b\xc0\x9a_\x94\xa0\xbf\xd0\xc1?\x010R\xc5\x9a~\x17@'
p1886
tp1887
bsVchair_12d0
p1888
g22
(g23
(I0
tp1889
g25
tp1890
Rp1891
(I1
(I4
tp1892
g163
I00
S'\\\xd2\x18\xad\xa3\xaa\xdb?Of\x83L2r\xc6?\x00\x00\x00\x00\x00\x00\x00\x00\xf8\x81\r\x14M\xa6\x17@'
p1893
tp1894
bsVright_wall_2
p1895
g22
(g23
(I0
tp1896
g25
tp1897
Rp1898
(I1
(I4
tp1899
g163
I00
S'H\xe1z\x14\xaeG\x12@&\\\x8f\xc2\xf5(\xd4\xbfxX\xa85\xcd\xbb\xf2?\x00\x00\x00\x00\x00\x00\x00\x00'
p1900
tp1901
bsVknife_block
p1902
g22
(g23
(I0
tp1903
g25
tp1904
Rp1905
(I1
(I4
tp1906
g163
I00
S'R\xb8\x1e\x85\xebQ\xe0\xbfffffff\x02@`\xe5\xd0"\xdb\xf9\xee?\x00\x00\x00\x00\x00\x00\x00\x00'
p1907
tp1908
bsVleft_wall_2
p1909
g22
(g23
(I0
tp1910
g25
tp1911
Rp1912
(I1
(I4
tp1913
g163
I00
S'H\xe1z\x14\xaeG\x12@S\xb8\x1e\x85\xebQ\xe4?xX\xa85\xcd\xbb\xf2?\x00\x00\x00\x00\x00\x00\x00\x00'
p1914
tp1915
bsVleft_wall
p1916
g22
(g23
(I0
tp1917
g25
tp1918
Rp1919
(I1
(I4
tp1920
g163
I00
S'\x9a\x99\x99\x99\x99\x99\x07@H\xe1z\x14\xaeG\xff?\x9c\xc4 \xb0rh\xc1?\x00\x00\x00\x00\x00\x00\x00\x00'
p1921
tp1922
bsVkitchen
p1923
g22
(g23
(I0
tp1924
g25
tp1925
Rp1926
(I1
(I4
tp1927
g163
I00
S'\x00\x00\x00\x00\x00\x00\x00\x00\x00\x00\x00\x00\x00\x00\x00\x00\x00\x00\x00\x00\x00\x00\x00\x00\x00\x00\x00\x00\x00\x00\x00\x00'
p1928
tp1929
bsVtable2
p1930
g22
(g23
(I0
tp1931
g25
tp1932
Rp1933
(I1
(I4
tp1934
g163
I00
S'\x00\x00\x00\x00\x00\x00\x13@\x80\x14\xaeG\xe1z\xc4?S\x96!\x8euq\xec?\xd2!3\x7f|\xd9\x12@'
p1935
tp1936
bsVc_obst8
p1937
g22
(g23
(I0
tp1938
g25
tp1939
Rp1940
(I1
(I4
tp1941
g163
I00
S")\xaf\xacr\xee\xfb\x11@\xf8\xdf\xa9\x98^\x0c\xdf?e\xaa`TR'\xed?\xe7x\x90{O\x8a\x10@"
p1942
tp1943
bsVplate_b4e7
p1944
g22
(g23
(I0
tp1945
g25
tp1946
Rp1947
(I1
(I4
tp1948
g163
I00
S'\x14\xaeG\xe1z\x14\xf2\xbf\x14\xaeG\xe1z\x14\x00@=\n\xd7\xa3p=\xf2?\x00\x00\x00\x00\x00\x00\x00\x00'
p1949
tp1950
bsVcooker
p1951
g22
(g23
(I0
tp1952
g25
tp1953
Rp1954
(I1
(I4
tp1955
g163
I00
S'\xaeG\xe1z\x14\xae\xff?\x85\xebQ\xb8\x1e\x85\xfb?\x00\x00\x00\x00\x00\x00\xe8?\x00\x00\x00\x00\x00\x00\x00\x00'
p1956
tp1957
bsVpin_a091
p1958
g22
(g23
(I0
tp1959
g25
tp1960
Rp1961
(I1
(I4
tp1962
g163
I00
S'\xdb\xf9~j\xbct\xf7\xbf)\\\x8f\xc2\xf5(\x02@\xb8\x1e\x85\xebQ\xb8\xfa?\x00\x00\x00\x00\x00\x00\x00\x00'
p1963
tp1964
bsVside_wall_2
p1965
g22
(g23
(I0
tp1966
g25
tp1967
Rp1968
(I1
(I4
tp1969
g163
I00
S'\xfa\xff\xff\xff\xff\xff\x14@\x00\x00\x00\x00\x00\x00\x00\x00\x9c\xc4 \xb0rh\xc1?\x18-DT\xfb!\xf9?'
p1970
tp1971
bsVside_wall_3
p1972
g22
(g23
(I0
tp1973
g25
tp1974
Rp1975
(I1
(I4
tp1976
g163
I00
S'\x00\x00\x00\x00\x00\x00\xfc?H\xe1z\x14\xaeG\t@\x9c\xc4 \xb0rh\xc1?\x00\x00\x00\x00\x00\x00\x00\x00'
p1977
tp1978
bsVmixer
p1979
g22
(g23
(I0
tp1980
g25
tp1981
Rp1982
(I1
(I4
tp1983
g163
I00
S'\n\xd7\xa3p=\n\xfb?ffffff\x02@d;\xdfO\x8d\x97\xee?\x00\x00\x00\x00\x00\x00\x00\x00'
p1984
tp1985
bsVside_wall_1
p1986
g22
(g23
(I0
tp1987
g25
tp1988
Rp1989
(I1
(I4
tp1990
g163
I00
S'\xf4\xff\xff\xff\xff\xff\xfb\xbf\x00\x00\x00\x00\x00\x00\x00\x00\x9c\xc4 \xb0rh\xc1?\x18-DT\xfb!\xf9?'
p1991
tp1992
bsVbottom_wall_1
p1993
g22
(g23
(I0
tp1994
g25
tp1995
Rp1996
(I1
(I4
tp1997
g163
I00
S'H\xe1z\x14\xaeG\x12@\x80\x14\xaeG\xe1z\xc4?\xcc\x7fH\xbf}\x1d\xed?\x00\x00\x00\x00\x00\x00\x00\x00'
p1998
tp1999
bsVcan
p2000
g22
(g23
(I0
tp2001
g25
tp2002
Rp2003
(I1
(I4
tp2004
g163
I00
S'\x00\x00\x00\x00\x00\x00\xf4\xbfH\xe1z\x14\xaeG\xe1\xbf\n\xd7\xa3p=\n\xef?\x00\x00\x00\x00\x00\x00\x00\x00'
p2005
tp2006
bsVright_wall
p2007
g22
(g23
(I0
tp2008
g25
tp2009
Rp2010
(I1
(I4
tp2011
g163
I00
S'\x9a\x99\x99\x99\x99\x99\x07@H\xe1z\x14\xaeG\xff\xbf\x9c\xc4 \xb0rh\xc1?\x00\x00\x00\x00\x00\x00\x00\x00'
p2012
tp2013
bsVcoffe_machine
p2014
g22
(g23
(I0
tp2015
g25
tp2016
Rp2017
(I1
(I4
tp2018
g163
I00
S'\\\x8f\xc2\xf5(\\\xf5\xbf\xb8\x1e\x85\xebQ\xb8\xee?\n\xd7\xa3p=\n\xef?\x00\x00\x00\x00\x00\x00\x00\x00'
p2019
tp2020
bsVcomputer_chair
p2021
g22
(g23
(I0
tp2022
g25
tp2023
Rp2024
(I1
(I4
tp2025
g163
I00
S'\xcd\xcc\xcc\xcc\xcc\xcc\x10@\x00\x00\x00\x00\x00\x00\xf8\xbf\xa00\xb6\x10\xe4\xa9\x95\xbf\x00\x00\x00\x00\x00\x00\x00\x00'
p2026
tp2027
bssS'robot_dof_values'
p2028
g22
(g23
(I0
tp2029
g25
tp2030
Rp2031
(I1
(I39
tp2032
g163
I00
S'\x00\x00\x00\x00\x00\x00\x00\x00\x00\x00\x00\x00\x00\x00\x00\x00\x00\x00\x00\x00\x00\x00\x00\x00\x00\x00\x00\x00\x00\x00\x00\x00\x00\x00\x00\x00\x00\x00\x00\x00\x00\x00\x00\x00\x00\x00\x00\x00\x00\x00\x00\x00\x00\x00\x00\x00\x00\x00\x00\x00\x00\x00\x00\x00\x00\x00\x00\x00\x00\x00\x00\x00\x00\x00\x00\x00\x00\x00\x00\x00\x00\x00\x00\x00\x00\x00\x00\x00\x00\x00\x00\x00\x00\x00\x00\x00@d;\xdfO\x8d\x87?\x00\x00\x00\x00\x00\x00\x00\x00\x00\x00\x00\x00\x00\x00\x00\x00\x00\x00\x00\x00\x00\x00\x00\x00\xec\xed\t\xf1\xcc\xa4\xf4?\x00\x00\x00\x00\x00\x00\xb0<M"\xd0^p\xf8\x00\xc0\x00\x00\x00\x00\x00\x00\x00\x00\x9b\x03\r.\x04V\xe6\xbf\x00\x00\x00\x00\x00\x00\x00\x00\x00\x00\x00\x00\x00\x00\x00\x00\x00\x00\x00\x00\x00\x00\xc9<\x00\x00\x00\x00\x00\x00\x00\x00\x00\x00\x00\x00\x00\x00\x00\x00\x00\x00\x00\x00\x00\x00\x00\x00\x00\x00\x00\x00\x00\x00\x00\x00\xec\xed\t\xf1\xcc\xa4\xf4?\x00\x00\x00\x00\x00\x00\xc0\xbcO"\xd0^p\xf8\x00\xc0\x00\x00\x00\x00\x00\x00\x00\x00\x9a\x03\r.\x04V\xe6\xbf\x00\x00\x00\x00\x00\x00\x00\x00\xcc9\xe3\xc17\x89\xe1?\x00\x00\x00\x00\x00\x00\xc1<\x00\x00\x00\x00\x00\x00\x00\x00\x00\x00\x00\x00\x00\x00\xe0<\x00\x00\x00\x00\x00\x00\x00\x00'
p2033
tp2034
bsS'is_holding'
p2035
I00
sbsS'holding_collides'
p2036
NsS'parent_ternary_predicates'
p2037
(dp2038
sS'cached_place_paths'
p2039
(dp2040
(g383
g859
tp2041
(lp2042
g22
(g23
(I0
tp2043
g25
tp2044
Rp2045
(I1
(I3
tp2046
g163
I00
S'\xa3\x06\x13\x1d\xd1\x1e\xfb?\x19[\x9e\x1a\xdb@\x18\xc0$\x1bB\x0e\xc0h\x0c@'
p2047
tp2048
bas(g386
g154
tp2049
g313
s(g382
g154
tp2050
g156
s(g385
g859
tp2051
(lp2052
g22
(g23
(I0
tp2053
g25
tp2054
Rp2055
(I1
(I3
tp2056
g163
I00
S'8\x7fn3\xd99\t@(\xe2\xb7\x97\x0e)\x1d\xc0\xad\x8a2\xd1Lu\xdf?'
p2057
tp2058
bas(g382
g859
tp2059
(lp2060
g22
(g23
(I0
tp2061
g25
tp2062
Rp2063
(I1
(I3
tp2064
g163
I00
S'\xf0+\xfb\x0f6i\xd0?{\\^\xd7\xa0\xd1\x1a\xc0\xec\xc6\x98\xfe\xa9\x0e\x15@'
p2065
tp2066
bas(g385
g154
tp2067
(lp2068
g22
(g23
(I0
tp2069
g25
tp2070
Rp2071
(I1
(I3
tp2072
g163
I00
S'1\x7fn3\xd99\t@&\xe2\xb7\x97\x0e)\x1d\xc0\xa3\x8a2\xd1Lu\xdf?'
p2073
tp2074
bag22
(g23
(I0
tp2075
g25
tp2076
Rp2077
(I1
(I3
tp2078
g174
I00
S'\xc3#\x9b"m=\x05@O\x1c\xaf\xffo\x1c\x1b\xc0\xa4\xc19\xdd\xaa\xea\xdd?'
p2079
tp2080
bag22
(g23
(I0
tp2081
g25
tp2082
Rp2083
(I1
(I3
tp2084
g174
I00
S'\xb1\x91\x83\xd6J:\x00@X\xbf\x9b\xa3\xf7;\x19\xc0\xb4\xa9\x94\xff\xff\xd1\xec?'
p2085
tp2086
bag22
(g23
(I0
tp2087
g25
tp2088
Rp2089
(I1
(I3
tp2090
g174
I00
S'\x84\xa2s4\xa1\xd0\xf6?E=|\xb9\xcam\x17\xc0\xa93^V\xfc\xed\x05@'
p2091
tp2092
bag22
(g23
(I0
tp2093
g25
tp2094
Rp2095
(I1
(I3
tp2096
g174
I00
S'f\xb4\x9c\x07\xac\xbf\xec?n\x96\x96\x9e\x90n\x16\xc0uo!\xa9\x9b\x82\x07@'
p2097
tp2098
bag22
(g23
(I0
tp2099
g25
tp2100
Rp2101
(I1
(I3
tp2102
g174
I00
S'm\xd5h\x072\x03\xea?\xdf\xe5\xe82\xd3\x17\x14\xc0\x08\x9e\xe1\xfbO\x94\x08@'
p2103
tp2104
bag22
(g23
(I0
tp2105
g25
tp2106
Rp2107
(I1
(I3
tp2108
g174
I00
S'\xc6\x05\xbdtg\xd9\xe2?F\xdf\x9d@\\\xf3\x11\xc0\x1a\xc4.\xbb\xcc\x12\x02@'
p2109
tp2110
bag22
(g23
(I0
tp2111
g25
tp2112
Rp2113
(I1
(I3
tp2114
g174
I00
S'3z\xed\x8eN)\xe4?\x0c\x96\xd4\xa2\x0e\xd0\r\xc0\xbd%\xf5{\xe9\xf9\x03@'
p2115
tp2116
bag22
(g23
(I0
tp2117
g25
tp2118
Rp2119
(I1
(I3
tp2120
g174
I00
S'\xaf0\xe9h\xba~\xee?k\xbb\xd8\xd4\xd0g\t\xc09\x9ey\xed\xb06\x06@'
p2121
tp2122
bag22
(g23
(I0
tp2123
g25
tp2124
Rp2125
(I1
(I3
tp2126
g174
I00
S'\xf4\xfdJ\x1a(#\xec?H"\x9cD\x1aE\x05\xc0.\xa9\x0b\x87\xf8\xe1\x02@'
p2127
tp2128
bas(g384
g859
tp2129
(lp2130
g22
(g23
(I0
tp2131
g25
tp2132
Rp2133
(I1
(I3
tp2134
g163
I00
S'\xfb\x8bQU\xca\t\x04@\x0eY\x19\xe9\xe9\xaa\x1a\xc0\xa2\xeah\xdc\xc8B\xfa?'
p2135
tp2136
bas(g384
g154
tp2137
(lp2138
g22
(g23
(I0
tp2139
g25
tp2140
Rp2141
(I1
(I3
tp2142
g163
I00
S'\xf8\x8bQU\xca\t\x04@\x16Y\x19\xe9\xe9\xaa\x1a\xc0\xa0\xeah\xdc\xc8B\xfa?'
p2143
tp2144
bag22
(g23
(I0
tp2145
g25
tp2146
Rp2147
(I1
(I3
tp2148
g174
I00
S'\xb1\x91\x83\xd6J:\x00@X\xbf\x9b\xa3\xf7;\x19\xc0\xb4\xa9\x94\xff\xff\xd1\xec?'
p2149
tp2150
bag22
(g23
(I0
tp2151
g25
tp2152
Rp2153
(I1
(I3
tp2154
g174
I00
S'\x84\xa2s4\xa1\xd0\xf6?E=|\xb9\xcam\x17\xc0\xa93^V\xfc\xed\x05@'
p2155
tp2156
bag22
(g23
(I0
tp2157
g25
tp2158
Rp2159
(I1
(I3
tp2160
g174
I00
S'f\xb4\x9c\x07\xac\xbf\xec?n\x96\x96\x9e\x90n\x16\xc0uo!\xa9\x9b\x82\x07@'
p2161
tp2162
bag22
(g23
(I0
tp2163
g25
tp2164
Rp2165
(I1
(I3
tp2166
g174
I00
S'm\xd5h\x072\x03\xea?\xdf\xe5\xe82\xd3\x17\x14\xc0\x08\x9e\xe1\xfbO\x94\x08@'
p2167
tp2168
bag22
(g23
(I0
tp2169
g25
tp2170
Rp2171
(I1
(I3
tp2172
g174
I00
S'\xc6\x05\xbdtg\xd9\xe2?F\xdf\x9d@\\\xf3\x11\xc0\x1a\xc4.\xbb\xcc\x12\x02@'
p2173
tp2174
bag22
(g23
(I0
tp2175
g25
tp2176
Rp2177
(I1
(I3
tp2178
g174
I00
S'3z\xed\x8eN)\xe4?\x0c\x96\xd4\xa2\x0e\xd0\r\xc0\xbd%\xf5{\xe9\xf9\x03@'
p2179
tp2180
bag22
(g23
(I0
tp2181
g25
tp2182
Rp2183
(I1
(I3
tp2184
g174
I00
S'\xaf0\xe9h\xba~\xee?k\xbb\xd8\xd4\xd0g\t\xc09\x9ey\xed\xb06\x06@'
p2185
tp2186
bag22
(g23
(I0
tp2187
g25
tp2188
Rp2189
(I1
(I3
tp2190
g174
I00
S'\xf4\xfdJ\x1a(#\xec?H"\x9cD\x1aE\x05\xc0.\xa9\x0b\x87\xf8\xe1\x02@'
p2191
tp2192
bas(g12
g154
tp2193
(lp2194
g22
(g23
(I0
tp2195
g25
tp2196
Rp2197
(I1
(I3
tp2198
g163
I00
S'\x8cTT\x17 \x82\xf3?\xf4U\xef79\xdc\x16\xc0\x8c,\x14I{\xfe\xed?'
p2199
tp2200
bag22
(g23
(I0
tp2201
g25
tp2202
Rp2203
(I1
(I3
tp2204
g174
I00
S'\xd8\x87\x03p)T\xe4?\xd5\xabI\xb7V\xd0\x15\xc0vWg\x9a\x87\x8a\xec?'
p2205
tp2206
bag22
(g23
(I0
tp2207
g25
tp2208
Rp2209
(I1
(I3
tp2210
g174
I00
S'\xa9\xd9\x1d\x8d\xa6j\xdf?\xa0\x85\x1a\x84\xc6\xec\x12\xc0\x01\xb6 H\xb1\x91\xeb?'
p2211
tp2212
bag22
(g23
(I0
tp2213
g25
tp2214
Rp2215
(I1
(I3
tp2216
g174
I00
S'\x93k\xbc\xee\xc2\x10\xe8?\xab^\x86?\x08D\x10\xc0\x10;2\x00\xe5\t\xde?'
p2217
tp2218
bag22
(g23
(I0
tp2219
g25
tp2220
Rp2221
(I1
(I3
tp2222
g174
I00
S'\xef\xc3u*\xfb\xdb\xeb?\x8d\xa5\n\xfd\x03<\n\xc0\xd8\xfb\xde\x16R\xac\xde?'
p2223
tp2224
bag22
(g23
(I0
tp2225
g25
tp2226
Rp2227
(I1
(I3
tp2228
g174
I00
S'\xf4\xfdJ\x1a(#\xec?H"\x9cD\x1aE\x05\xc0.\xa9\x0b\x87\xf8\xe1\x02@'
p2229
tp2230
bas(g521
g154
tp2231
g250
s(g521
g859
tp2232
(lp2233
g22
(g23
(I0
tp2234
g25
tp2235
Rp2236
(I1
(I3
tp2237
g163
I00
S'\xddLK\xce62\x0e@\xa4\xc5\x82\xb8hG\x1a\xc0Y\r\x15\xe9\xe7n\xf6?'
p2238
tp2239
bas(g386
g859
tp2240
(lp2241
g22
(g23
(I0
tp2242
g25
tp2243
Rp2244
(I1
(I3
tp2245
g163
I00
S'\xd0\xaf\xb6\xca\x9d\x1f\xdc?P\xf4\x0e\x10>p\x1a\xc0\x80\x9f\xef.\x7f\xbe\x01@'
p2246
tp2247
bas(g12
g859
tp2248
(lp2249
g22
(g23
(I0
tp2250
g25
tp2251
Rp2252
(I1
(I3
tp2253
g163
I00
S'\x84TT\x17 \x82\xf3?\xf2U\xef79\xdc\x16\xc0\x8e,\x14I{\xfe\xed?'
p2254
tp2255
bas(g477
g859
tp2256
(lp2257
g22
(g23
(I0
tp2258
g25
tp2259
Rp2260
(I1
(I3
tp2261
g163
I00
S'T\x87\t\x8c2\xf7\xf0?\x99\xdd!0\xffU\x18\xc0\xd4\x0e\xec\xc0\xa4\xfd\x10@'
p2262
tp2263
bas(g477
g154
tp2264
g211
s(g383
g154
tp2265
(lp2266
g22
(g23
(I0
tp2267
g25
tp2268
Rp2269
(I1
(I3
tp2270
g163
I00
S'\x9c\x06\x13\x1d\xd1\x1e\xfb?\x14[\x9e\x1a\xdb@\x18\xc0$\x1bB\x0e\xc0h\x0c@'
p2271
tp2272
bag22
(g23
(I0
tp2273
g25
tp2274
Rp2275
(I1
(I3
tp2276
g174
I00
S'\x84\xa2s4\xa1\xd0\xf6?E=|\xb9\xcam\x17\xc0\xa93^V\xfc\xed\x05@'
p2277
tp2278
bag22
(g23
(I0
tp2279
g25
tp2280
Rp2281
(I1
(I3
tp2282
g174
I00
S'f\xb4\x9c\x07\xac\xbf\xec?n\x96\x96\x9e\x90n\x16\xc0uo!\xa9\x9b\x82\x07@'
p2283
tp2284
bag22
(g23
(I0
tp2285
g25
tp2286
Rp2287
(I1
(I3
tp2288
g174
I00
S'm\xd5h\x072\x03\xea?\xdf\xe5\xe82\xd3\x17\x14\xc0\x08\x9e\xe1\xfbO\x94\x08@'
p2289
tp2290
bag22
(g23
(I0
tp2291
g25
tp2292
Rp2293
(I1
(I3
tp2294
g174
I00
S'\xc6\x05\xbdtg\xd9\xe2?F\xdf\x9d@\\\xf3\x11\xc0\x1a\xc4.\xbb\xcc\x12\x02@'
p2295
tp2296
bag22
(g23
(I0
tp2297
g25
tp2298
Rp2299
(I1
(I3
tp2300
g174
I00
S'3z\xed\x8eN)\xe4?\x0c\x96\xd4\xa2\x0e\xd0\r\xc0\xbd%\xf5{\xe9\xf9\x03@'
p2301
tp2302
bag22
(g23
(I0
tp2303
g25
tp2304
Rp2305
(I1
(I3
tp2306
g174
I00
S'\xaf0\xe9h\xba~\xee?k\xbb\xd8\xd4\xd0g\t\xc09\x9ey\xed\xb06\x06@'
p2307
tp2308
bag22
(g23
(I0
tp2309
g25
tp2310
Rp2311
(I1
(I3
tp2312
g174
I00
S'\xf4\xfdJ\x1a(#\xec?H"\x9cD\x1aE\x05\xc0.\xa9\x0b\x87\xf8\xe1\x02@'
p2313
tp2314
bassS'parent_binary_predicates'
p2315
(dp2316
sS'nodes'
p2317
(dp2318
g862
(lp2319
I0
aI0
aI0
aI0
aI0
aI0
aI00
aI01
aI00
aI01
aI00
asg859
(lp2320
I0
aI0
aI0
aI0
aI0
aI0
aI00
aI01
aI00
aI01
aI00
asg154
(lp2321
I0
aI0
aI0
aI0
aI0
aI0
aI00
aI01
aI01
aI01
aI00
asg153
(lp2322
I0
aI0
aI0
ag1434
(g163
S'N\x96\x1d\xc3D\x8a\xd3?'
p2323
tp2324
Rp2325
ag1434
(g163
S'\xec\x14T6\xb5\r\x1e\xc0'
p2326
tp2327
Rp2328
ag1434
(g163
S'\x94\xa3\xc5\xcc\xb5\x9e\t@'
p2329
tp2330
Rp2331
aI01
aI00
aI00
aI01
aI00
asg209
(lp2332
I0
aI0
aI0
ag1434
(g163
S'\x84\x87\x87\x9a\xdc\xcf\xe4?'
p2333
tp2334
Rp2335
ag1434
(g163
S'*f\xd4\x87\xe3\xe7\x1a\xc0'
p2336
tp2337
Rp2338
ag1434
(g163
S'\xb6\n \\{`\x06@'
p2339
tp2340
Rp2341
aI01
aI00
aI00
aI00
aI00
asg248
(lp2342
I0
aI0
aI0
ag1434
(g163
S"&G\xaf'A\xff\x0e@"
p2343
tp2344
Rp2345
ag1434
(g163
S'\xdc\x04f"%\xcb\x16\xc0'
p2346
tp2347
Rp2348
ag1434
(g163
S'u\xcb\x0b\x18\x03\xad\xfa?'
p2349
tp2350
Rp2351
aI01
aI00
aI00
aI00
aI00
asg830
(lp2352
I0
aI0
aI0
ag1434
(g163
S'\xe0\x8f\x80\x1c\xdc\r\xf4?'
p2353
tp2354
Rp2355
ag1434
(g163
S'\xe9s\x10\xbe\xea[\x1a\xc0'
p2356
tp2357
Rp2358
ag1434
(g163
S'j\xa8\x8f\xb8\x01\x1c\x15@'
p2359
tp2360
Rp2361
aI01
aI00
aI00
aI01
aI00
asg823
(lp2362
I0
aI0
aI0
ag1434
(g163
S'\xa4\xabc\x8d\xc0|\x05@'
p2363
tp2364
Rp2365
ag1434
(g163
S'\x81G{\xf3H\xcd\x17\xc0'
p2366
tp2367
Rp2368
ag1434
(g163
S'~\xe34\x92\xeeR\x17@'
p2369
tp2370
Rp2371
aI01
aI00
aI00
aI01
aI00
asg821
(lp2372
I0
aI0
aI0
ag1434
(g163
S'n\xe9\xf5\xc6\xe1v\x0e@'
p2373
tp2374
Rp2375
ag1434
(g163
S'\x98\xec^\xdfSX\x1b\xc0'
p2376
tp2377
Rp2378
ag1434
(g163
S'\x19t\xa3\xfe,2\x10@'
p2379
tp2380
Rp2381
aI01
aI00
aI00
aI01
aI00
asg832
(lp2382
I0
aI0
aI0
ag1434
(g163
S'\xc9QD\xb2e\x90\xfc?'
p2383
tp2384
Rp2385
ag1434
(g163
S'>F\x82,\xc6U\x15\xc0'
p2386
tp2387
Rp2388
ag1434
(g163
S's7\x84\xeed\xdd\x0c@'
p2389
tp2390
Rp2391
aI01
aI00
aI01
aI01
aI00
asg311
(lp2392
I0
aI0
aI0
ag1434
(g163
S'\xb6\xb6\xeaa2\xd7-\xbf'
p2393
tp2394
Rp2395
ag1434
(g163
S'\x121\xaa\xb5?\x99\x17\xc0'
p2396
tp2397
Rp2398
ag1434
(g163
S'h/_g\xbb\x10\x16@'
p2399
tp2400
Rp2401
aI01
aI00
aI00
aI01
aI00
assS'mc_place_path'
p2402
(dp2403
sS'parent_state'
p2404
NsS'goal_entities'
p2405
(lp2406
S'square_packing_box1'
p2407
ag154
asS'binary_edges'
p2408
(dp2409
(g823
g311
tp2410
(lp2411
I00
aI00
aI00
as(g823
g153
tp2412
(lp2413
I00
aI00
aI00
as(g248
g821
tp2414
(lp2415
I00
aI00
aI00
as(g248
g248
tp2416
(lp2417
I00
aI00
aI00
as(g209
g821
tp2418
(lp2419
I00
aI00
aI00
as(g209
g248
tp2420
(lp2421
I00
aI00
aI00
as(g311
g209
tp2422
(lp2423
I00
aI00
aI00
as(g823
g832
tp2424
(lp2425
I00
aI00
aI00
as(g830
g248
tp2426
(lp2427
I00
aI00
aI00
as(g153
g153
tp2428
(lp2429
I00
aI00
aI00
as(g209
g859
tp2430
(lp2431
g1434
(g29
(S'b1'
p2432
I0
I1
tp2433
Rp2434
(I3
S'|'
p2435
NNNI-1
I-1
I0
tp2436
bS'\x01'
p2437
tp2438
Rp2439
aI00
aI01
as(g862
g859
tp2440
(lp2441
I00
aI00
aI00
as(g153
g311
tp2442
(lp2443
I00
aI00
aI00
as(g859
g311
tp2444
(lp2445
I00
aI00
aI00
as(g832
g154
tp2446
(lp2447
I00
aI00
aI01
as(g862
g209
tp2448
(lp2449
I00
aI00
aI00
as(g209
g311
tp2450
(lp2451
I00
aI00
aI00
as(g248
g862
tp2452
(lp2453
g2439
aI00
aI00
as(g823
g823
tp2454
(lp2455
I00
aI00
aI00
as(g859
g823
tp2456
(lp2457
I00
aI00
aI00
as(g821
g209
tp2458
(lp2459
I00
aI00
aI00
as(g209
g154
tp2460
(lp2461
I00
aI00
aI00
as(g830
g821
tp2462
(lp2463
I00
aI00
aI00
as(g153
g830
tp2464
(lp2465
I00
aI00
aI00
as(g832
g832
tp2466
(lp2467
I00
aI00
aI00
as(g209
g862
tp2468
(lp2469
g2439
aI00
aI00
as(g859
g209
tp2470
(lp2471
I00
aI00
aI00
as(g859
g821
tp2472
(lp2473
I00
aI00
aI00
as(g859
g248
tp2474
(lp2475
I00
aI00
aI00
as(g821
g154
tp2476
(lp2477
I00
aI00
aI01
as(g311
g153
tp2478
(lp2479
I00
aI00
aI00
as(g830
g153
tp2480
(lp2481
I00
aI00
aI00
as(g821
g830
tp2482
(lp2483
I00
aI00
aI00
as(g859
g153
tp2484
(lp2485
I00
aI00
aI00
as(g862
g154
tp2486
(lp2487
I00
aI00
aI00
as(g832
g209
tp2488
(lp2489
I00
aI00
aI00
as(g153
g821
tp2490
(lp2491
I00
aI00
aI00
as(g862
g821
tp2492
(lp2493
I00
aI00
aI00
as(g821
g862
tp2494
(lp2495
g2439
aI00
aI00
as(g248
g823
tp2496
(lp2497
I00
aI00
aI00
as(g311
g832
tp2498
(lp2499
I00
aI00
aI00
as(g248
g209
tp2500
(lp2501
I00
aI00
aI00
as(g311
g154
tp2502
(lp2503
I00
aI00
aI00
as(g862
g862
tp2504
(lp2505
I00
aI00
aI00
as(g821
g153
tp2506
(lp2507
I00
aI00
aI00
as(g832
g823
tp2508
(lp2509
I00
aI00
aI00
as(g154
g832
tp2510
(lp2511
I00
aI00
aI00
as(g830
g859
tp2512
(lp2513
g2439
aI00
aI01
as(g154
g830
tp2514
(lp2515
I00
aI00
aI00
as(g311
g248
tp2516
(lp2517
I00
aI00
aI00
as(g248
g832
tp2518
(lp2519
I00
aI00
aI00
as(g821
g859
tp2520
(lp2521
g2439
aI00
aI01
as(g248
g830
tp2522
(lp2523
I00
aI00
aI00
as(g821
g821
tp2524
(lp2525
I00
aI00
aI00
as(g830
g209
tp2526
(lp2527
I00
aI01
aI00
as(g859
g154
tp2528
(lp2529
I00
aI00
aI00
as(g154
g823
tp2530
(lp2531
I00
aI00
aI00
as(g153
g154
tp2532
(lp2533
I00
aI00
aI00
as(g862
g830
tp2534
(lp2535
I00
aI00
aI00
as(g154
g311
tp2536
(lp2537
I00
aI00
aI00
as(g248
g311
tp2538
(lp2539
I00
aI00
aI00
as(g830
g862
tp2540
(lp2541
g2439
aI00
aI00
as(g311
g859
tp2542
(lp2543
g2439
aI00
aI01
as(g830
g823
tp2544
(lp2545
I00
aI00
aI00
as(g153
g209
tp2546
(lp2547
I00
aI00
aI00
as(g153
g859
tp2548
(lp2549
g2439
aI00
aI01
as(g154
g248
tp2550
(lp2551
I00
aI00
aI00
as(g862
g311
tp2552
(lp2553
I00
aI00
aI00
as(g862
g153
tp2554
(lp2555
I00
aI00
aI00
as(g830
g154
tp2556
(lp2557
I00
aI00
aI01
as(g823
g830
tp2558
(lp2559
I00
aI00
aI00
as(g832
g830
tp2560
(lp2561
I00
aI00
aI00
as(g154
g821
tp2562
(lp2563
I00
aI00
aI00
as(g859
g859
tp2564
(lp2565
I00
aI00
aI00
as(g823
g248
tp2566
(lp2567
I00
aI00
aI00
as(g832
g821
tp2568
(lp2569
I00
aI00
aI00
as(g859
g832
tp2570
(lp2571
I00
aI00
aI00
as(g209
g153
tp2572
(lp2573
I00
aI00
aI00
as(g859
g830
tp2574
(lp2575
I00
aI00
aI00
as(g832
g862
tp2576
(lp2577
g2439
aI00
aI00
as(g823
g209
tp2578
(lp2579
I00
aI01
aI00
as(g248
g154
tp2580
(lp2581
I00
aI00
aI00
as(g832
g153
tp2582
(lp2583
I00
aI00
aI00
as(g153
g832
tp2584
(lp2585
I00
aI00
aI00
as(g209
g832
tp2586
(lp2587
I00
aI00
aI00
as(g862
g823
tp2588
(lp2589
I00
aI00
aI00
as(g209
g830
tp2590
(lp2591
I00
aI00
aI00
as(g821
g823
tp2592
(lp2593
I00
aI00
aI00
as(g823
g859
tp2594
(lp2595
g2439
aI00
aI01
as(g830
g830
tp2596
(lp2597
I00
aI00
aI00
as(g311
g823
tp2598
(lp2599
I00
aI00
aI00
as(g832
g311
tp2600
(lp2601
I00
aI00
aI00
as(g209
g823
tp2602
(lp2603
I00
aI00
aI00
as(g209
g209
tp2604
(lp2605
I00
aI00
aI00
as(g311
g830
tp2606
(lp2607
I00
aI00
aI00
as(g823
g154
tp2608
(lp2609
I00
aI00
aI01
as(g821
g832
tp2610
(lp2611
I00
aI00
aI00
as(g248
g859
tp2612
(lp2613
g2439
aI00
aI01
as(g154
g209
tp2614
(lp2615
I00
aI00
aI00
as(g830
g832
tp2616
(lp2617
I00
aI00
aI00
as(g153
g248
tp2618
(lp2619
I00
aI00
aI00
as(g154
g859
tp2620
(lp2621
I00
aI00
aI00
as(g823
g821
tp2622
(lp2623
I00
aI00
aI00
as(g862
g248
tp2624
(lp2625
I00
aI00
aI00
as(g823
g862
tp2626
(lp2627
g2439
aI00
aI00
as(g821
g248
tp2628
(lp2629
I00
aI01
aI00
as(g154
g154
tp2630
(lp2631
I00
aI00
aI00
as(g830
g311
tp2632
(lp2633
I00
aI00
aI00
as(g153
g862
tp2634
(lp2635
g2439
aI00
aI00
as(g311
g862
tp2636
(lp2637
g2439
aI00
aI00
as(g154
g862
tp2638
(lp2639
I00
aI00
aI00
as(g154
g153
tp2640
(lp2641
I00
aI00
aI00
as(g821
g311
tp2642
(lp2643
I00
aI00
aI00
as(g311
g821
tp2644
(lp2645
I00
aI00
aI00
as(g248
g153
tp2646
(lp2647
I00
aI00
aI00
as(g859
g862
tp2648
(lp2649
I00
aI00
aI00
as(g832
g248
tp2650
(lp2651
I00
aI00
aI00
as(g153
g823
tp2652
(lp2653
I00
aI00
aI00
as(g311
g311
tp2654
(lp2655
I00
aI00
aI00
as(g832
g859
tp2656
(lp2657
g2439
aI00
aI01
as(g862
g832
tp2658
(lp2659
I00
aI00
aI00
assg380
g381
sS'pick_in_way'
p2660
(itrajectory_representation.predicates.pick_in_way
PickInWay
p2661
(dp2662
g151
(dp2663
g153
g458
sg209
g502
sg248
g552
sg830
g595
sg823
g650
sg821
g693
sg832
g723
sg311
g784
ssg362
(dp2664
g153
(lp2665
sg209
(lp2666
Vsquare_packing_box2
p2667
aVrectangular_packing_box1
p2668
asg248
(lp2669
Vsquare_packing_box3
p2670
asg830
(lp2671
sg823
(lp2672
sg821
(lp2673
sg832
(lp2674
sg311
(lp2675
ssg380
(lp2676
g830
ag823
ag821
ag311
ag153
ag862
ag154
ag859
ag832
ag862
ag154
ag859
ag862
ag154
ag859
ag862
ag154
ag859
ag862
ag154
ag859
ag862
ag154
ag859
ag862
ag154
ag859
ag862
ag154
ag859
asg387
g388
sg84
(dp2677
sg422
g423
sg811
Nsg817
g423
sg814
(dp2678
sg816
I8
sg854
I01
sg818
Nsg819
(dp2679
(g823
g311
tp2680
I00
s(g823
g153
tp2681
I00
s(g248
g821
tp2682
I00
s(g248
g248
tp2683
I00
s(g209
g821
tp2684
I00
s(g209
g248
tp2685
I00
s(g311
g209
tp2686
I00
s(g823
g832
tp2687
I00
s(g830
g248
tp2688
I00
s(g153
g153
tp2689
I00
s(g209
g859
tp2690
I00
s(g862
g859
tp2691
I00
s(g153
g311
tp2692
I00
s(g859
g311
tp2693
I00
s(g832
g154
tp2694
I00
s(g862
g209
tp2695
I00
s(g209
g311
tp2696
I00
s(g248
g862
tp2697
I00
s(g823
g823
tp2698
I00
s(g859
g823
tp2699
I00
s(g821
g209
tp2700
I00
s(g209
g154
tp2701
I00
s(g830
g821
tp2702
I00
s(g153
g830
tp2703
I00
s(g832
g832
tp2704
I00
s(g209
g862
tp2705
I00
s(g859
g209
tp2706
I00
s(g859
g821
tp2707
I00
s(g859
g248
tp2708
I00
s(g821
g154
tp2709
I00
s(g311
g153
tp2710
I00
s(g830
g153
tp2711
I00
s(g821
g830
tp2712
I00
s(g859
g153
tp2713
I00
s(g862
g154
tp2714
I00
s(g832
g209
tp2715
I00
s(g153
g821
tp2716
I00
s(g862
g821
tp2717
I00
s(g821
g862
tp2718
I00
s(g248
g823
tp2719
I00
s(g311
g832
tp2720
I00
s(g248
g209
tp2721
I00
s(g311
g154
tp2722
I00
s(g862
g862
tp2723
I00
s(g821
g153
tp2724
I00
s(g832
g823
tp2725
I00
s(g154
g832
tp2726
I00
s(g830
g859
tp2727
I00
s(g154
g830
tp2728
I00
s(g311
g248
tp2729
I00
s(g248
g832
tp2730
I00
s(g821
g859
tp2731
I00
s(g248
g830
tp2732
I00
s(g821
g821
tp2733
I00
s(g830
g209
tp2734
I01
s(g859
g154
tp2735
I00
s(g154
g823
tp2736
I00
s(g153
g154
tp2737
I00
s(g862
g830
tp2738
I00
s(g154
g311
tp2739
I00
s(g248
g311
tp2740
I00
s(g830
g862
tp2741
I00
s(g311
g859
tp2742
I00
s(g830
g823
tp2743
I00
s(g153
g209
tp2744
I00
s(g153
g859
tp2745
I00
s(g154
g248
tp2746
I00
s(g862
g311
tp2747
I00
s(g862
g153
tp2748
I00
s(g830
g154
tp2749
I00
s(g823
g830
tp2750
I00
s(g832
g830
tp2751
I00
s(g154
g821
tp2752
I00
s(g859
g859
tp2753
I00
s(g823
g248
tp2754
I00
s(g832
g821
tp2755
I00
s(g859
g832
tp2756
I00
s(g209
g153
tp2757
I00
s(g859
g830
tp2758
I00
s(g832
g862
tp2759
I00
s(g823
g209
tp2760
I01
s(g248
g154
tp2761
I00
s(g832
g153
tp2762
I00
s(g153
g832
tp2763
I00
s(g209
g832
tp2764
I00
s(g862
g823
tp2765
I00
s(g209
g830
tp2766
I00
s(g821
g823
tp2767
I00
s(g823
g859
tp2768
I00
s(g830
g830
tp2769
I00
s(g311
g823
tp2770
I00
s(g832
g311
tp2771
I00
s(g209
g823
tp2772
I00
s(g209
g209
tp2773
I00
s(g311
g830
tp2774
I00
s(g823
g154
tp2775
I00
s(g821
g832
tp2776
I00
s(g248
g859
tp2777
I00
s(g154
g209
tp2778
I00
s(g830
g832
tp2779
I00
s(g153
g248
tp2780
I00
s(g154
g859
tp2781
I00
s(g823
g821
tp2782
I00
s(g862
g248
tp2783
I00
s(g823
g862
tp2784
I00
s(g821
g248
tp2785
I01
s(g154
g154
tp2786
I00
s(g830
g311
tp2787
I00
s(g153
g862
tp2788
I00
s(g311
g862
tp2789
I00
s(g154
g862
tp2790
I00
s(g154
g153
tp2791
I00
s(g821
g311
tp2792
I00
s(g311
g821
tp2793
I00
s(g248
g153
tp2794
I00
s(g859
g862
tp2795
I00
s(g832
g248
tp2796
I00
s(g153
g823
tp2797
I00
s(g311
g311
tp2798
I00
s(g832
g859
tp2799
I00
s(g862
g832
tp2800
I00
ssg853
NsbsS'robot_pose'
p2801
g22
(g23
(I0
tp2802
g25
tp2803
Rp2804
(I1
(I1
I3
tp2805
g163
I00
S'X\xbb\x96N2\xbe\x00@\x80L@.1\xc3\x1b\xc0\x010R\xc5\x9a~\x17@'
p2806
tp2807
bsS'is_holding_goal_entity'
p2808
(itrajectory_representation.predicates.is_holding_goal_entity
IsHoldingGoalEntity
p2809
(dp2810
g2405
g2406
sg818
NsbsS'mc_pick_path'
p2811
(dp2812
sS'current_collides'
p2813
g388
sbasS'seed'
p2814
NsS'state_prime'
p2815
(lp2816
sS'problem_idx'
p2817
I224
sb.