(itrajectory_representation.trajectory
Trajectory
p0
(dp1
S'rewards'
p2
(lp3
I10
asS'actions'
p4
(lp5
(itrajectory_representation.operator
Operator
p6
(dp7
S'is_skeleton'
p8
I00
sS'discrete_parameters'
p9
(dp10
S'object'
p11
Vsquare_packing_box1
p12
sS'two_arm_place_region'
p13
S'home_region'
p14
sS'two_arm_place_object'
p15
Vsquare_packing_box1
p16
ssS'type'
p17
S'two_arm_pick_two_arm_place'
p18
sS'continuous_parameters'
p19
(dp20
S'q_goal'
p21
cnumpy.core.multiarray
_reconstruct
p22
(cnumpy
ndarray
p23
(I0
tp24
S'b'
p25
tp26
Rp27
(I1
(I3
tp28
cnumpy
dtype
p29
(S'f8'
p30
I0
I1
tp31
Rp32
(I3
S'<'
p33
NNNI-1
I-1
I0
tp34
bI00
S'\x03h\xf2rx\x04\xf1?\xeez\x04W\x03\x8c\x18\xc0\x18\x8d\xb9\x00n\xa7\xfd?'
p35
tp36
bsS'place'
p37
(dp38
g21
g22
(g23
(I0
tp39
g25
tp40
Rp41
(I1
(I3
tp42
g32
I00
S'H\xc7`\xe5\x93H\xd6?\xf2v%\x02\xcd\xd9\x01\xc0S\x93\x96\xd6\xfb\x97\x10@'
p43
tp44
bssS'pick'
p45
(dp46
g21
g27
sssS'low_level_motion'
p47
(lp48
g22
(g23
(I0
tp49
g25
tp50
Rp51
(I1
(I3
tp52
g32
I00
S'\x8e\x8b\x1d\xbdAr\x03@KN7\x7f\xa5\x93\x1c\xc0\xc8Q\x00~\xb6\xce\xf2?'
p53
tp54
bag22
(g23
(I0
tp55
g25
tp56
Rp57
(I1
(I3
tp58
g29
(S'f8'
p59
I0
I1
tp60
Rp61
(I3
S'<'
p62
NNNI-1
I-1
I0
tp63
bI00
S'\xb9\x81\xdfb\xdf\x92\xfe?\x1a\xe3?2\xb6\xec\x1a\xc0B\x1b\x81\xfa\x93C\xfa?'
p64
tp65
bag22
(g23
(I0
tp66
g25
tp67
Rp68
(I1
(I3
tp69
g61
I00
S'j\xc7\xc0&\x8ag\xf6?h\x9cH4\x7f\xab\x18\xc0\xd8|\x1d\xfc\xcbV\xf2?'
p70
tp71
bag27
ag27
asbasS'filename'
p72
S''
p73
sS'states'
p74
(lp75
(itrajectory_representation.shortest_path_pick_and_place_state
ShortestPathPaPState
p76
(dp77
S'place_used'
p78
(dp79
(g16
g14
tp80
(itrajectory_representation.operator
Operator
p81
(dp82
g8
I01
sg9
(dp83
S'region'
p84
g14
sg11
g16
ssg17
S'two_arm_place'
p85
sg19
(dp86
g21
g22
(g23
(I0
tp87
g25
tp88
Rp89
(I1
(I3
tp90
g32
I00
S'H\xc7`\xe5\x93H\xd6?\xf2v%\x02\xcd\xd9\x01\xc0S\x93\x96\xd6\xfb\x97\x10@'
p91
tp92
bssg47
(lp93
g22
(g23
(I0
tp94
g25
tp95
Rp96
(I1
(I3
tp97
g32
I00
S'\xf1g\xf2rx\x04\xf1?\xe6z\x04W\x03\x8c\x18\xc0\x1a\x8d\xb9\x00n\xa7\xfd?'
p98
tp99
bag22
(g23
(I0
tp100
g25
tp101
Rp102
(I1
(I3
tp103
g61
I00
S'E6\xa2Z]\x01\xe8?\x8b\x06T\x92\xa7\x82\x16\xc0q\xc1\x9f~\xe7\n\xfb?'
p104
tp105
bag22
(g23
(I0
tp106
g25
tp107
Rp108
(I1
(I3
tp109
g61
I00
S'v\xb8^\x85\xa7[\xea?x\xbe\xff2t\x8d\x13\xc0\x88\x85\x8cCyH\xf6?'
p110
tp111
bag22
(g23
(I0
tp112
g25
tp113
Rp114
(I1
(I3
tp115
g61
I00
S'\xc2\xda(e\x83\x1a\xeb?\x8au\x8d3\xa6E\x11\xc0\xb4c\x1b\xed_\xfd\xfa?'
p116
tp117
bag22
(g23
(I0
tp118
g25
tp119
Rp120
(I1
(I3
tp121
g61
I00
S'\xe4u**\x0e5\xe9?\xaa\xfd\r\xed\xc4\xf6\r\xc0\x0fDE0\x1f\x0b\xfe?'
p122
tp123
bag22
(g23
(I0
tp124
g25
tp125
Rp126
(I1
(I3
tp127
g61
I00
S'\x06\x11,\xef\x98O\xe7??\x10\x01s=b\t\xc04\x92\xb79o\x8c\x00@'
p128
tp129
bag22
(g23
(I0
tp130
g25
tp131
Rp132
(I1
(I3
tp133
g61
I00
S'M\x96\xea\xee\x17\x04\xdd?R\xe0T\xecA\xde\x06\xc0\x9a +sW,\xe5\xbf'
p134
tp135
bag89
ag89
asbssS'place_in_way'
p136
(itrajectory_representation.predicates.place_in_way
PlaceInWay
p137
(dp138
S'mc_path_to_entity'
p139
(dp140
(Vrectangular_packing_box3
p141
S'home_region'
p142
tp143
(lp144
g22
(g23
(I0
tp145
g25
tp146
Rp147
(I1
(I3
tp148
g29
(S'f8'
p149
I0
I1
tp150
Rp151
(I3
S'<'
p152
NNNI-1
I-1
I0
tp153
bI00
S"\\,\x9f\x02Yq\xf8?j,\r\xd8\xefT\x17\xc0\xd2'\xdcf\x85\\\x18@"
p154
tp155
bag22
(g23
(I0
tp156
g25
tp157
Rp158
(I1
(I3
tp159
g29
(S'f8'
p160
I0
I1
tp161
Rp162
(I3
S'<'
p163
NNNI-1
I-1
I0
tp164
bI00
S'tx\x8as\xa8b\xed?\x9ej\x15\xfa\xf0{\x15\xc0@\xed\x9a-\x9eD\xf2\xbf'
p165
tp166
bag22
(g23
(I0
tp167
g25
tp168
Rp169
(I1
(I3
tp170
g162
I00
S"\xb2&6mg)\xe8?\x99\xe0G'\x16\xe0\x13\xc0\xc8oL\xf5\x17p\xe6\xbf"
p171
tp172
bag22
(g23
(I0
tp173
g25
tp174
Rp175
(I1
(I3
tp176
g162
I00
S'`\xc8Aw-\x81\xeb?/\xc3\xe6O\x04\xca\x10\xc0\x8a\xb7K)\x91{\xe4\xbf'
p177
tp178
bag22
(g23
(I0
tp179
g25
tp180
Rp181
(I1
(I3
tp182
g162
I00
S'\xe1\xc6\xc7\xa7\x12X\xe7?\x98\x99\xb0\x9a\xfb\xdb\x0b\xc0R\t\x1b)\xeae\xe0\xbf'
p183
tp184
bag22
(g23
(I0
tp185
g25
tp186
Rp187
(I1
(I3
tp188
g162
I00
S'p\xf1\xbdc^\x84\xf1?"\x88LL\xf9D\x06\xc0~w\r\xe9m\x0f\x19@'
p189
tp190
bas(Vsquare_packing_box4
p191
g142
tp192
(lp193
g22
(g23
(I0
tp194
g25
tp195
Rp196
(I1
(I3
tp197
g151
I00
S'\xb8\x18F\x80\x80\xfb\xfc?6tx\xc8o1\x1f\xc0\n\xd6\r\xb4\xbb\x90\x03@'
p198
tp199
bag22
(g23
(I0
tp200
g25
tp201
Rp202
(I1
(I3
tp203
g162
I00
S'\xa4\xc8\xcc\x88S\x9f\xf6?N\xeaYik!\x1e\xc0\x00W\xeas\x1a)\xfa?'
p204
tp205
bag22
(g23
(I0
tp206
g25
tp207
Rp208
(I1
(I3
tp209
g162
I00
S'*4\xc9\xb1\x13|\xf5?=~n\xf8\xb0\xf9\x1b\xc0\x97\x8e\x14L\xfds\x01@'
p210
tp211
bag22
(g23
(I0
tp212
g25
tp213
Rp214
(I1
(I3
tp215
g162
I00
S'{\xe7\xcc\xce\x02,\xf5?\xeb\x85\xf2\xb4\xc9\x08\x19\xc0\xcd\x97\xf6\xcc\xe4z\x00@'
p216
tp217
bag22
(g23
(I0
tp218
g25
tp219
Rp220
(I1
(I3
tp221
g162
I00
S'o\xd6\x82\xea\x7f\xb2\xed?9\xf2C\x0b?\xfd\x16\xc0(?d\xe9@\xb5\x02@'
p222
tp223
bag22
(g23
(I0
tp224
g25
tp225
Rp226
(I1
(I3
tp227
g162
I00
S'&>c9\x01,\xeb?\xb2\xc2\xf0\x02\xce\x8e\x14\xc0\xd8p\xbb2\x14\xd2\x03@'
p228
tp229
bag22
(g23
(I0
tp230
g25
tp231
Rp232
(I1
(I3
tp233
g162
I00
S'\xc6\x05\xbdtg\xd9\xe2?F\xdf\x9d@\\\xf3\x11\xc0\x1a\xc4.\xbb\xcc\x12\x02@'
p234
tp235
bag22
(g23
(I0
tp236
g25
tp237
Rp238
(I1
(I3
tp239
g162
I00
S'3z\xed\x8eN)\xe4?\x0c\x96\xd4\xa2\x0e\xd0\r\xc0\xbd%\xf5{\xe9\xf9\x03@'
p240
tp241
bag22
(g23
(I0
tp242
g25
tp243
Rp244
(I1
(I3
tp245
g162
I00
S'\xaf0\xe9h\xba~\xee?k\xbb\xd8\xd4\xd0g\t\xc09\x9ey\xed\xb06\x06@'
p246
tp247
bag22
(g23
(I0
tp248
g25
tp249
Rp250
(I1
(I3
tp251
g162
I00
S'\xf4\xfdJ\x1a(#\xec?H"\x9cD\x1aE\x05\xc0.\xa9\x0b\x87\xf8\xe1\x02@'
p252
tp253
bas(Vrectangular_packing_box4
p254
g142
tp255
(lp256
g22
(g23
(I0
tp257
g25
tp258
Rp259
(I1
(I3
tp260
g151
I00
S'h\xbcrGD\xb6\xea?\x1b\xae\xfb\xbe\xdb\xd2\x1c\xc0\xf6e\x97\x85\x9a3\n@'
p261
tp262
bag22
(g23
(I0
tp263
g25
tp264
Rp265
(I1
(I3
tp266
g162
I00
S'\xda:H\x99\\\xf4\xd7?\x9d\xfe\xfa\xb2d\xee\x1a\xc0\xb9=\xe66\x01\xe0\x07\xc0'
p267
tp268
bag22
(g23
(I0
tp269
g25
tp270
Rp271
(I1
(I3
tp272
g162
I00
S"\xc6'8AN\xb0\xec?\xe0\x975>\x0f\x03\x19\xc0(\xe0e;\x85\x89\x05\xc0"
p273
tp274
bag22
(g23
(I0
tp275
g25
tp276
Rp277
(I1
(I3
tp278
g162
I00
S'\xd0\xcb\x13\x8f\xaa\x9d\xed?\x90\x01<]3\x06\x16\xc0F\xf1\xe7x32\x02\xc0'
p279
tp280
bag22
(g23
(I0
tp281
g25
tp282
Rp283
(I1
(I3
tp284
g162
I00
S'l[\xc4\x16<\xe6\xe9?\xa6\xa0\x90\x84X\x9f\x13\xc0\xc2\xd74Q\x00\xaf\xff\xbf'
p285
tp286
bag22
(g23
(I0
tp287
g25
tp288
Rp289
(I1
(I3
tp290
g162
I00
S"\xaeJ\xbd\x1936\xec?\x04\x13\xd4'\x9f\x88\x10\xc0\x805qo\xb6\xe6\xff\xbf"
p291
tp292
bag22
(g23
(I0
tp293
g25
tp294
Rp295
(I1
(I3
tp296
g162
I00
S'\xf09\xb6\x1c*\x86\xee?\xc4\n/\x96\xcb\xe3\n\xc0\xa0\xc9\xd6F6\x0f\x00\xc0'
p297
tp298
bag22
(g23
(I0
tp299
g25
tp300
Rp301
(I1
(I3
tp302
g162
I00
S'3\xe9\xaf\x05T\x89\xe7?+~\xcb\xd3\x15\xc7\x04\xc0x6(d5\xed\x07@'
p303
tp304
bas(Vsquare_packing_box1
p305
g142
tp306
(lp307
g22
(g23
(I0
tp308
g25
tp309
Rp310
(I1
(I3
tp311
g151
I00
S'\x00h\xf2rx\x04\xf1?\xf1z\x04W\x03\x8c\x18\xc0\x18\x8d\xb9\x00n\xa7\xfd?'
p312
tp313
bag22
(g23
(I0
tp314
g25
tp315
Rp316
(I1
(I3
tp317
g162
I00
S'o\xd6\x82\xea\x7f\xb2\xed?9\xf2C\x0b?\xfd\x16\xc0(?d\xe9@\xb5\x02@'
p318
tp319
bag22
(g23
(I0
tp320
g25
tp321
Rp322
(I1
(I3
tp323
g162
I00
S'&>c9\x01,\xeb?\xb2\xc2\xf0\x02\xce\x8e\x14\xc0\xd8p\xbb2\x14\xd2\x03@'
p324
tp325
bag22
(g23
(I0
tp326
g25
tp327
Rp328
(I1
(I3
tp329
g162
I00
S'\xc6\x05\xbdtg\xd9\xe2?F\xdf\x9d@\\\xf3\x11\xc0\x1a\xc4.\xbb\xcc\x12\x02@'
p330
tp331
bag22
(g23
(I0
tp332
g25
tp333
Rp334
(I1
(I3
tp335
g162
I00
S'3z\xed\x8eN)\xe4?\x0c\x96\xd4\xa2\x0e\xd0\r\xc0\xbd%\xf5{\xe9\xf9\x03@'
p336
tp337
bag22
(g23
(I0
tp338
g25
tp339
Rp340
(I1
(I3
tp341
g162
I00
S'\xaf0\xe9h\xba~\xee?k\xbb\xd8\xd4\xd0g\t\xc09\x9ey\xed\xb06\x06@'
p342
tp343
bag22
(g23
(I0
tp344
g25
tp345
Rp346
(I1
(I3
tp347
g162
I00
S'\xf4\xfdJ\x1a(#\xec?H"\x9cD\x1aE\x05\xc0.\xa9\x0b\x87\xf8\xe1\x02@'
p348
tp349
bas(Vsquare_packing_box2
p350
g142
tp351
(lp352
g22
(g23
(I0
tp353
g25
tp354
Rp355
(I1
(I3
tp356
g151
I00
S'8\x17\xcbN\xb7\xdf\xd8?\x7f\xe7J\x0f\xc6<\x1b\xc0\xc0\x88Cl\xa3\xf2\xd3?'
p357
tp358
bag22
(g23
(I0
tp359
g25
tp360
Rp361
(I1
(I3
tp362
g162
I00
S'T]\x0c\x0e\xd89\xda?\xf4\x992\x11%\\\x18\xc0\x95\x7f\x10B\xb1)\xe3?'
p363
tp364
bag22
(g23
(I0
tp365
g25
tp366
Rp367
(I1
(I3
tp368
g162
I00
S'\xd8\x87\x03p)T\xe4?\xd5\xabI\xb7V\xd0\x15\xc0vWg\x9a\x87\x8a\xec?'
p369
tp370
bag22
(g23
(I0
tp371
g25
tp372
Rp373
(I1
(I3
tp374
g162
I00
S'\xa9\xd9\x1d\x8d\xa6j\xdf?\xa0\x85\x1a\x84\xc6\xec\x12\xc0\x01\xb6 H\xb1\x91\xeb?'
p375
tp376
bag22
(g23
(I0
tp377
g25
tp378
Rp379
(I1
(I3
tp380
g162
I00
S'\x93k\xbc\xee\xc2\x10\xe8?\xab^\x86?\x08D\x10\xc0\x10;2\x00\xe5\t\xde?'
p381
tp382
bag22
(g23
(I0
tp383
g25
tp384
Rp385
(I1
(I3
tp386
g162
I00
S'\xef\xc3u*\xfb\xdb\xeb?\x8d\xa5\n\xfd\x03<\n\xc0\xd8\xfb\xde\x16R\xac\xde?'
p387
tp388
bag22
(g23
(I0
tp389
g25
tp390
Rp391
(I1
(I3
tp392
g162
I00
S'\xf4\xfdJ\x1a(#\xec?H"\x9cD\x1aE\x05\xc0.\xa9\x0b\x87\xf8\xe1\x02@'
p393
tp394
bas(Vrectangular_packing_box1
p395
g142
tp396
(lp397
g22
(g23
(I0
tp398
g25
tp399
Rp400
(I1
(I3
tp401
g151
I00
S'P}\xc6\xff\xe2\x06\xea?\xa5\x18\xd3\xb6\xaex\x18\xc0\x19\xb9\x1f\x18\xff2\n@'
p402
tp403
bag22
(g23
(I0
tp404
g25
tp405
Rp406
(I1
(I3
tp407
g162
I00
S'K\x19\xdd\x9a\xe6\xce\xe9?\xe1\x08\xb9\xe6+\xc9\x15\xc0\xeeN\x0e\xdd1/\x08\xc0'
p408
tp409
bag22
(g23
(I0
tp410
g25
tp411
Rp412
(I1
(I3
tp413
g162
I00
S'\x16nfXE \xf2?\x06\xf1|#c\xe6\x12\xc08\x98\x8f,\xc1@\x04\xc0'
p414
tp415
bag22
(g23
(I0
tp416
g25
tp417
Rp418
(I1
(I3
tp419
g162
I00
S'\xc1E\xbb\x1b\xed\x13\xf3?\xca\xdcw\xec\x1a\x18\x10\xc0j\xed\xec2j\x8c\x04\xc0'
p420
tp421
bag22
(g23
(I0
tp422
g25
tp423
Rp424
(I1
(I3
tp425
g162
I00
S'\xf09\xb6\x1c*\x86\xee?\xc4\n/\x96\xcb\xe3\n\xc0\xa0\xc9\xd6F6\x0f\x00\xc0'
p426
tp427
bag22
(g23
(I0
tp428
g25
tp429
Rp430
(I1
(I3
tp431
g162
I00
S'3\xe9\xaf\x05T\x89\xe7?+~\xcb\xd3\x15\xc7\x04\xc0x6(d5\xed\x07@'
p432
tp433
bas(Vsquare_packing_box3
p434
g142
tp435
(lp436
g22
(g23
(I0
tp437
g25
tp438
Rp439
(I1
(I3
tp440
g151
I00
S'\x14\xb7\x98P\xcd\x90\xfc?*\xe0\xd7T\xf59\x1d\xc0(\x13\x18\x9dW\x7f\x12@'
p441
tp442
bag22
(g23
(I0
tp443
g25
tp444
Rp445
(I1
(I3
tp446
g162
I00
S'2]\x933g}\x00@\xebx\x00&R!\x1b\xc0\xce\x170ZD}\x00\xc0'
p447
tp448
bag22
(g23
(I0
tp449
g25
tp450
Rp451
(I1
(I3
tp452
g162
I00
S'4#\xe8i\x80D\xf8?\xdd\x1dlTl\\\x19\xc0m\xc1\x1a\xec\xde\x01\x01\xc0'
p453
tp454
bag22
(g23
(I0
tp455
g25
tp456
Rp457
(I1
(I3
tp458
g162
I00
S'\x9f5<Q\xb2\xb3\xf7?\xb3\xd6LI,\xe8\x16\xc0\xc2\x13\xbbtu\x87\x00\xc0'
p459
tp460
bag22
(g23
(I0
tp461
g25
tp462
Rp463
(I1
(I3
tp464
g162
I00
S'\xd0\xcb\x13\x8f\xaa\x9d\xed?\x90\x01<]3\x06\x16\xc0F\xf1\xe7x32\x02\xc0'
p465
tp466
bag22
(g23
(I0
tp467
g25
tp468
Rp469
(I1
(I3
tp470
g162
I00
S'l[\xc4\x16<\xe6\xe9?\xa6\xa0\x90\x84X\x9f\x13\xc0\xc2\xd74Q\x00\xaf\xff\xbf'
p471
tp472
bag22
(g23
(I0
tp473
g25
tp474
Rp475
(I1
(I3
tp476
g162
I00
S"\xaeJ\xbd\x1936\xec?\x04\x13\xd4'\x9f\x88\x10\xc0\x805qo\xb6\xe6\xff\xbf"
p477
tp478
bag22
(g23
(I0
tp479
g25
tp480
Rp481
(I1
(I3
tp482
g162
I00
S'\xf09\xb6\x1c*\x86\xee?\xc4\n/\x96\xcb\xe3\n\xc0\xa0\xc9\xd6F6\x0f\x00\xc0'
p483
tp484
bag22
(g23
(I0
tp485
g25
tp486
Rp487
(I1
(I3
tp488
g162
I00
S'3\xe9\xaf\x05T\x89\xe7?+~\xcb\xd3\x15\xc7\x04\xc0x6(d5\xed\x07@'
p489
tp490
bas(Vrectangular_packing_box2
p491
g142
tp492
(lp493
g22
(g23
(I0
tp494
g25
tp495
Rp496
(I1
(I3
tp497
g151
I00
S"\xfc\x81N\xbf\xf9\xec\n@\xbe\xe9\xea \x12P\x1b\xc0:\xa1'\xc1h\x97\xfe?"
p498
tp499
bag22
(g23
(I0
tp500
g25
tp501
Rp502
(I1
(I3
tp503
g162
I00
S'g\x886\x82\xe7\x9e\t@\x81\x00+\xe8\xfe$\x19\xc0m@m\xfd\x93\x06\xf2?'
p504
tp505
bag22
(g23
(I0
tp506
g25
tp507
Rp508
(I1
(I3
tp509
g162
I00
S'\x19\xdbXU\x9c\xa8\x04@\xe6\xf1\xeb\xae\xcb\x05\x18\xc0\xce\x9cp\x98\xaf*\xeb?'
p510
tp511
bag22
(g23
(I0
tp512
g25
tp513
Rp514
(I1
(I3
tp515
g162
I00
S'/\xe1\x02^.|\x00@\xb8\xae\xc5\xcfF\x16\x17\xc0\xf8\x01)d\xc5\xf9\xe2?'
p516
tp517
bag22
(g23
(I0
tp518
g25
tp519
Rp520
(I1
(I3
tp521
g162
I00
S'\x85\\2\xba\x0b5\xf5?I\r\x06\xd10\xfb\x15\xc0\x9e\x11\xee\xd8\xb9\xd7\xf5?'
p522
tp523
bag22
(g23
(I0
tp524
g25
tp525
Rp526
(I1
(I3
tp527
g162
I00
S'v\xb8^\x85\xa7[\xea?x\xbe\xff2t\x8d\x13\xc0\x88\x85\x8cCyH\xf6?'
p528
tp529
bag22
(g23
(I0
tp530
g25
tp531
Rp532
(I1
(I3
tp533
g162
I00
S'\xc2\xda(e\x83\x1a\xeb?\x8au\x8d3\xa6E\x11\xc0\xb4c\x1b\xed_\xfd\xfa?'
p534
tp535
bag22
(g23
(I0
tp536
g25
tp537
Rp538
(I1
(I3
tp539
g162
I00
S'\xe4u**\x0e5\xe9?\xaa\xfd\r\xed\xc4\xf6\r\xc0\x0fDE0\x1f\x0b\xfe?'
p540
tp541
bag22
(g23
(I0
tp542
g25
tp543
Rp544
(I1
(I3
tp545
g162
I00
S'\x06\x11,\xef\x98O\xe7??\x10\x01s=b\t\xc04\x92\xb79o\x8c\x00@'
p546
tp547
bag22
(g23
(I0
tp548
g25
tp549
Rp550
(I1
(I3
tp551
g162
I00
S'\x92\xaf\xf3P\x96O\xc2?(\xa1:\x8er}\x05\xc0\xd4_\x91\xb3\xffL\x02@'
p552
tp553
bassS'mc_to_entity'
p554
(dp555
(g141
g142
tp556
(lp557
Vsquare_packing_box1
p558
as(g191
g142
tp559
(lp560
Vsquare_packing_box3
p561
aVsquare_packing_box2
p562
aVsquare_packing_box1
p563
as(g254
g142
tp564
(lp565
Vsquare_packing_box2
p566
aVsquare_packing_box4
p567
aVrectangular_packing_box1
p568
aVsquare_packing_box1
p569
as(g305
g142
tp570
(lp571
s(g350
g142
tp572
(lp573
Vrectangular_packing_box1
p574
aVrectangular_packing_box4
p575
aVsquare_packing_box1
p576
as(g395
g142
tp577
(lp578
Vsquare_packing_box1
p579
as(g434
g142
tp580
(lp581
Vsquare_packing_box2
p582
aVrectangular_packing_box3
p583
aVsquare_packing_box4
p584
aVsquare_packing_box1
p585
as(g491
g142
tp586
(lp587
Vrectangular_packing_box3
p588
aVsquare_packing_box1
p589
assS'reachable_entities'
p590
(lp591
Vrectangular_packing_box2
p592
aVrectangular_packing_box3
p593
aVrectangular_packing_box1
p594
aVsquare_packing_box2
p595
aVsquare_packing_box3
p596
ag12
asS'collides'
p597
(dp598
Vrectangular_packing_box4
p599
c__builtin__
set
p600
((lp601
I384
aI257
aI134
aI265
aI394
aI532
aI580
aI158
aI159
aI163
aI164
aI165
aI433
aI564
aI575
aI452
aI197
aI583
aI328
aI458
aI589
aI83
aI478
aI356
aI229
aI366
aI502
aI122
atp602
Rp603
sVrectangular_packing_box2
p604
g600
((lp605
I2
aI3
aI393
aI268
aI435
aI144
aI288
aI548
aI37
aI38
aI39
aI41
aI302
aI303
aI561
aI178
aI307
aI309
aI54
aI442
aI188
aI62
aI63
aI64
aI577
aI194
aI438
aI376
aI342
aI343
aI348
aI89
aI90
aI219
aI220
aI605
aI611
aI612
aI550
aI114
aI115
aI500
aI247
aI248
aI379
aI511
atp606
Rp607
sVrectangular_packing_box3
p608
g600
((lp609
I2
aI3
aI4
aI449
aI393
aI395
aI404
aI160
aI161
aI37
aI38
aI39
aI41
aI42
aI304
aI561
aI178
aI435
aI309
aI54
aI188
aI63
aI288
aI70
aI289
aI201
aI202
aI595
aI89
aI219
aI611
aI497
aI115
aI372
aI376
aI379
aI380
aI554
atp610
Rp611
sVrectangular_packing_box1
p612
g600
((lp613
I491
aI132
aI133
aI6
aI521
aI138
aI139
aI276
aI152
aI153
aI154
aI155
aI157
aI517
aI417
aI163
aI165
aI166
aI424
aI553
aI308
aI523
aI196
aI197
aI198
aI518
aI338
aI547
aI84
aI349
aI362
aI107
aI249
aI251
aI383
atp614
Rp615
sVsquare_packing_box2
p616
g600
((lp617
I4
aI133
aI262
aI263
aI136
aI137
aI146
aI5
aI35
aI36
aI296
aI176
aI308
aI310
aI55
aI570
aI69
aI70
aI205
aI80
aI81
aI82
aI597
aI93
aI355
aI230
aI251
aI124
atp618
Rp619
sVsquare_packing_box3
p620
g600
((lp621
I514
aI259
aI374
aI406
aI593
aI392
aI585
aI407
aI556
aI429
aI463
aI515
aI552
aI67
aI610
aI118
aI119
aI120
aI443
aI286
aI543
atp622
Rp623
sVsquare_packing_box1
p624
g600
((lp625
I517
aI8
aI9
aI301
aI32
aI33
aI34
aI554
aI43
aI44
aI45
aI56
aI186
aI187
aI189
aI416
aI459
aI71
aI456
aI203
aI472
aI94
aI95
aI327
aI484
aI233
aI106
aI235
aI108
aI497
aI234
atp626
Rp627
sVsquare_packing_box4
p628
g600
((lp629
I262
aI135
aI136
aI146
aI134
aI433
aI296
aI263
aI176
aI177
aI448
aI458
aI464
aI81
aI82
aI83
aI505
aI346
aI486
aI230
aI593
aI494
aI240
aI120
aI121
aI122
aI124
aI264
atp630
Rp631
ssg78
g79
sS'pick_used'
p632
(dp633
Vrectangular_packing_box4
p634
(itrajectory_representation.operator
Operator
p635
(dp636
g8
I01
sg9
(dp637
S'object'
p638
Vrectangular_packing_box4
p639
ssg17
S'two_arm_pick'
p640
sg19
(dp641
S'q_goal'
p642
(lp643
g22
(g23
(I0
tp644
g25
tp645
Rp646
(I1
(I3
tp647
g151
I00
S'v\xbcrGD\xb6\xea?\x1f\xae\xfb\xbe\xdb\xd2\x1c\xc09\xf4\xf0"\\\x10\x08\xc0'
p648
tp649
bag22
(g23
(I0
tp650
g25
tp651
Rp652
(I1
(I3
tp653
g151
I00
S'ZB5d\xb0\xd7\xc7\xbf#\xc3\x81\xc6W\xa7\x1a\xc0\xc3\xc4[mK\xee\xf5\xbf'
p654
tp655
bag22
(g23
(I0
tp656
g25
tp657
Rp658
(I1
(I3
tp659
g151
I00
S'?w\xbcZ\x85\xc9\xe9?+\xb9\xfc\x05H\xec\x1c\xc0\x12\xb5_\xa7\xa1b\x03\xc0'
p660
tp661
bag22
(g23
(I0
tp662
g25
tp663
Rp664
(I1
(I3
tp665
g151
I00
S'\x87?D\xb3`\x87\xea?\xb1kG\xc5$\xa3\x1c\xc0NH\xe5\t\xbe8\x05\xc0'
p666
tp667
bag22
(g23
(I0
tp668
g25
tp669
Rp670
(I1
(I3
tp671
g151
I00
S'\n\xe8\x1f\x98\xf9\x9b\xe8?;\x17\xbb\xe6\x8a!\x1d\xc0\x93\xd9<\x84\xc7m\x06\xc0'
p672
tp673
basS'is_feasible'
p674
I00
ssg47
(lp675
g22
(g23
(I0
tp676
g25
tp677
Rp678
(I1
(I3
tp679
g151
I00
S'p\x8b\x1d\xbdAr\x03@TN7\x7f\xa5\x93\x1c\xc0\xc7Q\x00~\xb6\xce\xf2?'
p680
tp681
bag22
(g23
(I0
tp682
g25
tp683
Rp684
(I1
(I3
tp685
g162
I00
S'\xb9O\xa7Y\x02\x91\x00@\x96d\x95\x0e\xe6\xda\x1e\xc0l\xef\x8e\x11Rk\xeb?'
p686
tp687
bag22
(g23
(I0
tp688
g25
tp689
Rp690
(I1
(I3
tp691
g162
I00
S'S@\xf8l\x95\x08\xf8?\xef\x91If\xa4L\x1e\xc0\x8b\xc5pa\xf4C\x04\xc0'
p692
tp693
bag646
asbsg592
(itrajectory_representation.operator
Operator
p694
(dp695
g8
I01
sg9
(dp696
g638
Vrectangular_packing_box2
p697
ssg17
g640
sg19
(dp698
g642
(lp699
g22
(g23
(I0
tp700
g25
tp701
Rp702
(I1
(I3
tp703
g151
I00
S"\xfc\x81N\xbf\xf9\xec\n@\xbd\xe9\xea \x12P\x1b\xc0;\xa1'\xc1h\x97\xfe?"
p704
tp705
bag22
(g23
(I0
tp706
g25
tp707
Rp708
(I1
(I3
tp709
g151
I00
S'\xa9\xd8\xc7b\xd0\xa7\x00@\x8a\xff\xe3\x072\xba\x17\xc0\x1c\xa0\xa0\xb7\xc0\x92\xe2\xbf'
p710
tp711
bag22
(g23
(I0
tp712
g25
tp713
Rp714
(I1
(I3
tp715
g151
I00
S'\xc1]w\x9fB\xe6\x00@D@\x11\xb6\xddK\x17\xc0\xb4(X\x97\x14\x86\xe1\xbf'
p716
tp717
basg674
I00
ssg47
(lp718
g22
(g23
(I0
tp719
g25
tp720
Rp721
(I1
(I3
tp722
g151
I00
S'p\x8b\x1d\xbdAr\x03@TN7\x7f\xa5\x93\x1c\xc0\xc7Q\x00~\xb6\xce\xf2?'
p723
tp724
bag22
(g23
(I0
tp725
g25
tp726
Rp727
(I1
(I3
tp728
g162
I00
S'h\xe5u\t\x19Z\x05@*\x05#\xa8W\x05\x1f\xc0\t\xdeI\x16\xa6\x8a\xee?'
p729
tp730
bag22
(g23
(I0
tp731
g25
tp732
Rp733
(I1
(I3
tp734
g162
I00
S'\xa3\xe7\xb4\x16R\xf0\x07@\xbc\n8\xab\xe3x\x1c\xc0=\x94\xaf\xa7P\t\x01@'
p735
tp736
bag702
asbsg593
(itrajectory_representation.operator
Operator
p737
(dp738
g8
I01
sg9
(dp739
g638
Vrectangular_packing_box3
p740
ssg17
g640
sg19
(dp741
g642
(lp742
g22
(g23
(I0
tp743
g25
tp744
Rp745
(I1
(I3
tp746
g151
I00
S'^,\x9f\x02Yq\xf8?l,\r\xd8\xefT\x17\xc0\xc6\xa8\x00\xad\xbd\xae\xc8\xbf'
p747
tp748
bag22
(g23
(I0
tp749
g25
tp750
Rp751
(I1
(I3
tp752
g151
I00
S'\x8a\x81\xbf\xe6T0\xfa?\x17Ep^\x16#\x1a\xc0D\x99\xa5X.\xd1\xe4?'
p753
tp754
bag22
(g23
(I0
tp755
g25
tp756
Rp757
(I1
(I3
tp758
g151
I00
S'nC%c\x89\xde\xff?_\xff\x11\x8a\x13B\x1b\xc0A\x89\\\x99\xa5\xea\xed?'
p759
tp760
bag22
(g23
(I0
tp761
g25
tp762
Rp763
(I1
(I3
tp764
g151
I00
S'\x1b_\xff{.v\xf8?\xa5*\x83w\xe6\xf2\x16\xc0\x7fS^\xb1\tZ\xdd\xbf'
p765
tp766
basg674
I00
ssg47
(lp767
g22
(g23
(I0
tp768
g25
tp769
Rp770
(I1
(I3
tp771
g151
I00
S'p\x8b\x1d\xbdAr\x03@TN7\x7f\xa5\x93\x1c\xc0\xc7Q\x00~\xb6\xce\xf2?'
p772
tp773
bag757
asbsg594
(itrajectory_representation.operator
Operator
p774
(dp775
g8
I01
sg9
(dp776
g638
Vrectangular_packing_box1
p777
ssg17
g640
sg19
(dp778
g642
(lp779
g22
(g23
(I0
tp780
g25
tp781
Rp782
(I1
(I3
tp783
g151
I00
S'A}\xc6\xff\xe2\x06\xea?\xa5\x18\xd3\xb6\xaex\x18\xc0\x16\xa1h\x90\xf7\x10\x08\xc0'
p784
tp785
bag22
(g23
(I0
tp786
g25
tp787
Rp788
(I1
(I3
tp789
g151
I00
S'\xdc\x1dG\x86\xb7@\xb3?\xdf\x9e\xd14\xe8\xb5\x15\xc0\xf4}\x9b\x08;V\xfa\xbf'
p790
tp791
bag22
(g23
(I0
tp792
g25
tp793
Rp794
(I1
(I3
tp795
g151
I00
S'\xafw\xaa\x82\xe2\xfc\xea?@\x1ct\xd7\xd0K\x18\xc0\xce#\xe9n\xb0]\x03\xc0'
p796
tp797
bag22
(g23
(I0
tp798
g25
tp799
Rp800
(I1
(I3
tp801
g151
I00
S'0\xb9b"\xb0=\xeb?)\x00\x85&\xc6I\x18\xc0\x9a\xc9\t7%d\x03\xc0'
p802
tp803
basg674
I00
ssg47
(lp804
g22
(g23
(I0
tp805
g25
tp806
Rp807
(I1
(I3
tp808
g151
I00
S'p\x8b\x1d\xbdAr\x03@TN7\x7f\xa5\x93\x1c\xc0\xc7Q\x00~\xb6\xce\xf2?'
p809
tp810
bag22
(g23
(I0
tp811
g25
tp812
Rp813
(I1
(I3
tp814
g162
I00
S'\xb9\x81\xdfb\xdf\x92\xfe?\x1a\xe3?2\xb6\xec\x1a\xc0B\x1b\x81\xfa\x93C\xfa?'
p815
tp816
bag22
(g23
(I0
tp817
g25
tp818
Rp819
(I1
(I3
tp820
g162
I00
S'j\xc7\xc0&\x8ag\xf6?h\x9cH4\x7f\xab\x18\xc0\xd8|\x1d\xfc\xcbV\xf2?'
p821
tp822
bag22
(g23
(I0
tp823
g25
tp824
Rp825
(I1
(I3
tp826
g162
I00
S'<k;\xb0\x16\xda\xef?\x01\xf6\xb9DB\xf4\x18\xc0}\xc7/\x02\x8aR\x18@'
p827
tp828
bag782
asbsg595
(itrajectory_representation.operator
Operator
p829
(dp830
g8
I01
sg9
(dp831
g638
Vsquare_packing_box2
p832
ssg17
g640
sg19
(dp833
g642
(lp834
g22
(g23
(I0
tp835
g25
tp836
Rp837
(I1
(I3
tp838
g151
I00
S'\x1a\x17\xcbN\xb7\xdf\xd8?\x80\xe7J\x0f\xc6<\x1b\xc0\xbe\x88Cl\xa3\xf2\xd3?'
p839
tp840
bag22
(g23
(I0
tp841
g25
tp842
Rp843
(I1
(I3
tp844
g151
I00
S'\n\x1c\x9a\\\x0c+\xf5?=$\xa5\xdf\xa2L\x18\xc0\xab|+T\xc6\xd7\x00\xc0'
p845
tp846
bag22
(g23
(I0
tp847
g25
tp848
Rp849
(I1
(I3
tp850
g151
I00
S'\x82\xd3\xec\xe1\xe5q\xf2?\x8c\xd3\x99\xbcaf\x18\xc0}\x15\xe94\xfb\xdc\xf1\xbf'
p851
tp852
basg674
I00
ssg47
(lp853
g22
(g23
(I0
tp854
g25
tp855
Rp856
(I1
(I3
tp857
g151
I00
S'p\x8b\x1d\xbdAr\x03@TN7\x7f\xa5\x93\x1c\xc0\xc7Q\x00~\xb6\xce\xf2?'
p858
tp859
bag22
(g23
(I0
tp860
g25
tp861
Rp862
(I1
(I3
tp863
g162
I00
S'\xb9\x81\xdfb\xdf\x92\xfe?\x1a\xe3?2\xb6\xec\x1a\xc0B\x1b\x81\xfa\x93C\xfa?'
p864
tp865
bag22
(g23
(I0
tp866
g25
tp867
Rp868
(I1
(I3
tp869
g162
I00
S'j\xc7\xc0&\x8ag\xf6?h\x9cH4\x7f\xab\x18\xc0\xd8|\x1d\xfc\xcbV\xf2?'
p870
tp871
bag22
(g23
(I0
tp872
g25
tp873
Rp874
(I1
(I3
tp875
g162
I00
S"\x1aq\xa1\x96-\xd2\xec?\xa2\x8f\xd2'\xa1I\x18\xc0\x06\xea(\x89^*\xf2\xbf"
p876
tp877
bag849
asbsg596
(itrajectory_representation.operator
Operator
p878
(dp879
g8
I01
sg9
(dp880
g638
Vsquare_packing_box3
p881
ssg17
g640
sg19
(dp882
g642
(lp883
g22
(g23
(I0
tp884
g25
tp885
Rp886
(I1
(I3
tp887
g151
I00
S'\x15\xb7\x98P\xcd\x90\xfc?*\xe0\xd7T\xf59\x1d\xc0\xc2g\xb0\xdc\x8e\x8a\xfa\xbf'
p888
tp889
bag22
(g23
(I0
tp890
g25
tp891
Rp892
(I1
(I3
tp893
g151
I00
S'Z\xd5\x1d\x19\xaf|\x06@P\x7fs<\xc7\xb0\x1f\xc0\xc7\xe6\xca\x98l\x95\x08\xc0'
p894
tp895
bag22
(g23
(I0
tp896
g25
tp897
Rp898
(I1
(I3
tp899
g151
I00
S'Y\x07\xba\xbb\xd1\x97\x04@\x99\xcb\x03+\xd3\x90\x1e\xc0\x8d!U5\xcb\x03\x05\xc0'
p900
tp901
bag22
(g23
(I0
tp902
g25
tp903
Rp904
(I1
(I3
tp905
g151
I00
S'\x05\xf5\xd5#\xac\x83\xf4?P?j\xc5^\x04 \xc0\xd4i\xf5\xf4Xg\xc9\xbf'
p906
tp907
basg674
I00
ssg47
(lp908
g22
(g23
(I0
tp909
g25
tp910
Rp911
(I1
(I3
tp912
g151
I00
S'p\x8b\x1d\xbdAr\x03@TN7\x7f\xa5\x93\x1c\xc0\xc7Q\x00~\xb6\xce\xf2?'
p913
tp914
bag22
(g23
(I0
tp915
g25
tp916
Rp917
(I1
(I3
tp918
g162
I00
S'h\xe5u\t\x19Z\x05@*\x05#\xa8W\x05\x1f\xc0\t\xdeI\x16\xa6\x8a\xee?'
p919
tp920
bag22
(g23
(I0
tp921
g25
tp922
Rp923
(I1
(I3
tp924
g162
I00
S'\x89\xcfHU\xa1\xf5\x05@\xee\x9b\xa6\x01<)\x1c\xc0W\xa3jE\xe6\xde\x01\xc0'
p925
tp926
bag898
asbsg12
(itrajectory_representation.operator
Operator
p927
(dp928
g8
I01
sg9
(dp929
g11
g12
ssg17
S'two_arm_pick'
p930
sg19
(dp931
g21
g22
(g23
(I0
tp932
g25
tp933
Rp934
(I1
(I3
tp935
g32
I00
S'\x03h\xf2rx\x04\xf1?\xeez\x04W\x03\x8c\x18\xc0\x18\x8d\xb9\x00n\xa7\xfd?'
p936
tp937
bssg47
(lp938
g22
(g23
(I0
tp939
g25
tp940
Rp941
(I1
(I3
tp942
g151
I00
S'p\x8b\x1d\xbdAr\x03@TN7\x7f\xa5\x93\x1c\xc0\xc7Q\x00~\xb6\xce\xf2?'
p943
tp944
bag22
(g23
(I0
tp945
g25
tp946
Rp947
(I1
(I3
tp948
g162
I00
S'\xb9\x81\xdfb\xdf\x92\xfe?\x1a\xe3?2\xb6\xec\x1a\xc0B\x1b\x81\xfa\x93C\xfa?'
p949
tp950
bag22
(g23
(I0
tp951
g25
tp952
Rp953
(I1
(I3
tp954
g162
I00
S'j\xc7\xc0&\x8ag\xf6?h\x9cH4\x7f\xab\x18\xc0\xd8|\x1d\xfc\xcbV\xf2?'
p955
tp956
bag934
asbsVsquare_packing_box4
p957
(itrajectory_representation.operator
Operator
p958
(dp959
g8
I01
sg9
(dp960
g638
Vsquare_packing_box4
p961
ssg17
g640
sg19
(dp962
g642
(lp963
g22
(g23
(I0
tp964
g25
tp965
Rp966
(I1
(I3
tp967
g151
I00
S'\xb8\x18F\x80\x80\xfb\xfc?:tx\xc8o1\x1f\xc0\n\xd6\r\xb4\xbb\x90\x03@'
p968
tp969
bag22
(g23
(I0
tp970
g25
tp971
Rp972
(I1
(I3
tp973
g151
I00
S'\\c\x9f\x05\x01\x16\xf3?\x93\xfc\xd6\r:C\x1b\xc0\xb2\xd4\x1d\x81\x95\xbf\xf4\xbf'
p974
tp975
bag22
(g23
(I0
tp976
g25
tp977
Rp978
(I1
(I3
tp979
g151
I00
S'\xdb\x90\xa4$\x9e\xe9\xfb?\x1fK@W9H\x1f\xc0v\xbay\xf1\xd6y\x07@'
p980
tp981
bag22
(g23
(I0
tp982
g25
tp983
Rp984
(I1
(I3
tp985
g151
I00
S"b+\xfa'\x9d\xec\xef?d YJN\xa2\x1a\xc0\xee1dKg\x9a\xfa\xbf"
p986
tp987
basg674
I00
ssg47
(lp988
g22
(g23
(I0
tp989
g25
tp990
Rp991
(I1
(I3
tp992
g151
I00
S'p\x8b\x1d\xbdAr\x03@TN7\x7f\xa5\x93\x1c\xc0\xc7Q\x00~\xb6\xce\xf2?'
p993
tp994
bag22
(g23
(I0
tp995
g25
tp996
Rp997
(I1
(I3
tp998
g162
I00
S'\xe8[\xb2\xaa\xa5@\x04@(j\r1!I\x1b\xc0Xj\x8bx\xc9`\xfc?'
p999
tp1000
bag22
(g23
(I0
tp1001
g25
tp1002
Rp1003
(I1
(I3
tp1004
g162
I00
S'\xff\xd7C\xaa\x9ac\xff?\x86\x0e\xb5\xc1\xc7\x12\x1c\xc0\xd6\x18\x81\xcfC-\x12@'
p1005
tp1006
bag966
asbssS'mc_paths'
p1007
(dp1008
sS'robot'
p1009
NsS'reachable_obj_region_pairs'
p1010
(lp1011
(g305
g142
tp1012
asS'sampled_pick_configs_for_objects'
p1013
(dp1014
sS'mc_calls'
p1015
I0
sS'pick_poses'
p1016
g633
sS'problem_env'
p1017
NsS'evaluations'
p1018
(dp1019
(g395
g491
g142
tp1020
I00
s(g350
g491
g142
tp1021
I00
s(g491
g434
g142
tp1022
I00
s(g254
g350
g142
tp1023
I01
s(g434
g305
g142
tp1024
I01
s(g191
g350
g142
tp1025
I01
s(g305
g141
g142
tp1026
I00
s(g434
g491
g142
tp1027
I00
s(g254
g191
g142
tp1028
I01
s(g350
g305
g142
tp1029
I01
s(g395
g305
g142
tp1030
I01
s(g395
g254
g142
tp1031
I00
s(g350
g141
g142
tp1032
I00
s(g254
g434
g142
tp1033
I00
s(g434
g141
g142
tp1034
I01
s(g191
g434
g142
tp1035
I01
s(g305
g491
g142
tp1036
I00
s(g434
g191
g142
tp1037
I01
s(g491
g395
g142
tp1038
I00
s(g141
g305
g142
tp1039
I01
s(g191
g395
g142
tp1040
I00
s(g434
g254
g142
tp1041
I00
s(g491
g305
g142
tp1042
I01
s(g141
g254
g142
tp1043
I00
s(g491
g191
g142
tp1044
I00
s(g254
g395
g142
tp1045
I01
s(g305
g395
g142
tp1046
I00
s(g141
g434
g142
tp1047
I00
s(g141
g395
g142
tp1048
I00
s(g434
g395
g142
tp1049
I00
s(g191
g491
g142
tp1050
I00
s(g254
g491
g142
tp1051
I00
s(g395
g191
g142
tp1052
I00
s(g350
g395
g142
tp1053
I01
s(g191
g254
g142
tp1054
I00
s(g141
g191
g142
tp1055
I00
s(g350
g254
g142
tp1056
I01
s(g434
g350
g142
tp1057
I01
s(g305
g350
g142
tp1058
I00
s(g350
g191
g142
tp1059
I00
s(g191
g141
g142
tp1060
I00
s(g305
g434
g142
tp1061
I00
s(g350
g434
g142
tp1062
I00
s(g254
g141
g142
tp1063
I00
s(g395
g434
g142
tp1064
I00
s(g395
g141
g142
tp1065
I00
s(g141
g491
g142
tp1066
I00
s(g491
g350
g142
tp1067
I00
s(g254
g305
g142
tp1068
I01
s(g305
g191
g142
tp1069
I00
s(g191
g305
g142
tp1070
I01
s(g305
g254
g142
tp1071
I00
s(g491
g254
g142
tp1072
I00
s(g141
g350
g142
tp1073
I00
s(g491
g141
g142
tp1074
I01
s(g395
g350
g142
tp1075
I00
ssS'paths_to_reachable_entities'
p1076
NsS'use_shortest_path'
p1077
I01
sbsS'ternary_edges'
p1078
(dp1079
(g491
g491
g142
tp1080
(lp1081
I00
as(g305
S'loading_region'
p1082
g1082
tp1083
(lp1084
I00
as(S'entire_region'
p1085
g395
g142
tp1086
(lp1087
I00
as(g350
g191
g1082
tp1088
(lp1089
I00
as(g142
g142
g142
tp1090
(lp1091
I00
as(g191
g491
g1082
tp1092
(lp1093
I00
as(g305
g141
g142
tp1094
(lp1095
I00
as(g142
g254
g142
tp1096
(lp1097
I00
as(g350
g305
g142
tp1098
(lp1099
I01
as(g141
g254
g1082
tp1100
(lp1101
I00
as(g142
g191
g1082
tp1102
(lp1103
I00
as(g350
g1085
g142
tp1104
(lp1105
I00
as(g1082
g142
g1082
tp1106
(lp1107
I00
as(g254
g434
g142
tp1108
(lp1109
I00
as(g191
g1085
g142
tp1110
(lp1111
I00
as(g350
g395
g1082
tp1112
(lp1113
I00
as(g434
g1082
g142
tp1114
(lp1115
I00
as(g1085
g491
g1082
tp1116
(lp1117
I00
as(g142
g1085
g142
tp1118
(lp1119
I00
as(g491
g1082
g142
tp1120
(lp1121
I00
as(g434
g1085
g142
tp1122
(lp1123
I00
as(g305
g305
g1082
tp1124
(lp1125
I00
as(g1082
g191
g1082
tp1126
(lp1127
I00
as(g1085
g1082
g142
tp1128
(lp1129
I00
as(g1085
g350
g142
tp1130
(lp1131
I00
as(g1082
g1082
g142
tp1132
(lp1133
I00
as(g434
g254
g1082
tp1134
(lp1135
I00
as(g142
g142
g1082
tp1136
(lp1137
I00
as(g395
g350
g1082
tp1138
(lp1139
I00
as(g491
g191
g142
tp1140
(lp1141
I00
as(g434
g305
g142
tp1142
(lp1143
I01
as(g395
g142
g1082
tp1144
(lp1145
I00
as(g142
g491
g1082
tp1146
(lp1147
I00
as(g395
g141
g1082
tp1148
(lp1149
I00
as(g141
g395
g142
tp1150
(lp1151
I00
as(g1082
g305
g1082
tp1152
(lp1153
I00
as(g191
g350
g1082
tp1154
(lp1155
I00
as(g491
g491
g1082
tp1156
(lp1157
I00
as(g1085
g191
g142
tp1158
(lp1159
I00
as(g1082
g142
g142
tp1160
(lp1161
I00
as(g254
g491
g142
tp1162
(lp1163
I00
as(g142
g141
g142
tp1164
(lp1165
I00
as(g350
g395
g142
tp1166
(lp1167
I01
as(g141
g191
g142
tp1168
(lp1169
I00
as(g305
g141
g1082
tp1170
(lp1171
I00
as(g434
g350
g142
tp1172
(lp1173
I01
as(g350
g305
g1082
tp1174
(lp1175
I00
as(g350
g491
g1082
tp1176
(lp1177
I00
as(g1085
g350
g1082
tp1178
(lp1179
I00
as(g1082
g141
g1082
tp1180
(lp1181
I00
as(g1085
g142
g142
tp1182
(lp1183
I00
as(g254
g142
g142
tp1184
(lp1185
I00
as(g1082
g1085
g142
tp1186
(lp1187
I00
as(g491
g191
g1082
tp1188
(lp1189
I00
as(g434
g491
g1082
tp1190
(lp1191
I00
as(g434
g434
g142
tp1192
(lp1193
I00
as(g395
g141
g142
tp1194
(lp1195
I00
as(g1085
g491
g142
tp1196
(lp1197
I00
as(g395
g1082
g1082
tp1198
(lp1199
I00
as(g191
g305
g142
tp1200
(lp1201
I01
as(g305
g305
g142
tp1202
(lp1203
I00
as(g305
g254
g142
tp1204
(lp1205
I00
as(g254
g491
g1082
tp1206
(lp1207
I00
as(g191
g395
g1082
tp1208
(lp1209
I00
as(g434
g254
g142
tp1210
(lp1211
I00
as(g395
g350
g142
tp1212
(lp1213
I00
as(g491
g395
g1082
tp1214
(lp1215
I00
as(g395
g142
g142
tp1216
(lp1217
I00
as(g350
g491
g142
tp1218
(lp1219
I00
as(g491
g434
g142
tp1220
(lp1221
I00
as(g141
g395
g1082
tp1222
(lp1223
I00
as(g142
g350
g1082
tp1224
(lp1225
I00
as(g1085
g142
g1082
tp1226
(lp1227
I00
as(g1085
g191
g1082
tp1228
(lp1229
I00
as(g434
g491
g142
tp1230
(lp1231
I00
as(g141
g434
g1082
tp1232
(lp1233
I00
as(g491
g1085
g1082
tp1234
(lp1235
I00
as(g395
g1082
g142
tp1236
(lp1237
I00
as(g434
g350
g1082
tp1238
(lp1239
I00
as(g434
g395
g1082
tp1240
(lp1241
I00
as(g191
g305
g1082
tp1242
(lp1243
I00
as(g142
g141
g1082
tp1244
(lp1245
I00
as(g1085
g434
g1082
tp1246
(lp1247
I00
as(g1082
g141
g142
tp1248
(lp1249
I00
as(g1082
g350
g1082
tp1250
(lp1251
I00
as(g491
g395
g142
tp1252
(lp1253
I00
as(g191
g395
g142
tp1254
(lp1255
I00
as(g1082
g434
g142
tp1256
(lp1257
I00
as(g491
g434
g1082
tp1258
(lp1259
I00
as(g491
g254
g1082
tp1260
(lp1261
I00
as(g141
g191
g1082
tp1262
(lp1263
I00
as(g305
g254
g1082
tp1264
(lp1265
I00
as(g395
g434
g1082
tp1266
(lp1267
I00
as(g142
g305
g1082
tp1268
(lp1269
I00
as(g141
g1082
g1082
tp1270
(lp1271
I00
as(g254
g142
g1082
tp1272
(lp1273
I00
as(g305
g395
g142
tp1274
(lp1275
I00
as(g491
g1085
g142
tp1276
(lp1277
I00
as(g254
g350
g1082
tp1278
(lp1279
I00
as(g141
g491
g1082
tp1280
(lp1281
I00
as(g434
g395
g142
tp1282
(lp1283
I00
as(g191
g1082
g1082
tp1284
(lp1285
I00
as(g350
g142
g142
tp1286
(lp1287
I00
as(g191
g254
g142
tp1288
(lp1289
I00
as(g142
g434
g1082
tp1290
(lp1291
I00
as(g1082
g395
g1082
tp1292
(lp1293
I00
as(g1082
g434
g1082
tp1294
(lp1295
I00
as(g305
g434
g142
tp1296
(lp1297
I00
as(g395
g434
g142
tp1298
(lp1299
I00
as(g305
g395
g1082
tp1300
(lp1301
I00
as(g141
g491
g142
tp1302
(lp1303
I00
as(g491
g350
g142
tp1304
(lp1305
I00
as(g141
g142
g1082
tp1306
(lp1307
I00
as(g191
g1082
g142
tp1308
(lp1309
I00
as(g1082
g254
g1082
tp1310
(lp1311
I00
as(g491
g254
g142
tp1312
(lp1313
I00
as(g141
g141
g142
tp1314
(lp1315
I00
as(g254
g254
g142
tp1316
(lp1317
I00
as(g254
g141
g1082
tp1318
(lp1319
I00
as(g141
g1082
g142
tp1320
(lp1321
I00
as(g434
g191
g142
tp1322
(lp1323
I01
as(g254
g350
g142
tp1324
(lp1325
I01
as(g350
g1082
g1082
tp1326
(lp1327
I00
as(g141
g1085
g1082
tp1328
(lp1329
I00
as(g350
g142
g1082
tp1330
(lp1331
I00
as(g305
g350
g1082
tp1332
(lp1333
I00
as(g191
g254
g1082
tp1334
(lp1335
I00
as(g434
g142
g1082
tp1336
(lp1337
I00
as(g141
g142
g142
tp1338
(lp1339
I00
as(g1082
g254
g142
tp1340
(lp1341
I00
as(g395
g395
g142
tp1342
(lp1343
I00
as(g1082
g191
g142
tp1344
(lp1345
I00
as(g191
g434
g142
tp1346
(lp1347
I01
as(g305
g491
g142
tp1348
(lp1349
I00
as(g305
g434
g1082
tp1350
(lp1351
I00
as(g254
g305
g1082
tp1352
(lp1353
I00
as(g142
g350
g142
tp1354
(lp1355
I00
as(g1085
g141
g1082
tp1356
(lp1357
I00
as(g141
g305
g142
tp1358
(lp1359
I01
as(g395
g1085
g142
tp1360
(lp1361
I00
as(g434
g191
g1082
tp1362
(lp1363
I00
as(g434
g141
g1082
tp1364
(lp1365
I00
as(g254
g395
g142
tp1366
(lp1367
I01
as(g491
g350
g1082
tp1368
(lp1369
I00
as(g254
g1082
g142
tp1370
(lp1371
I00
as(g141
g1085
g142
tp1372
(lp1373
I00
as(g191
g141
g1082
tp1374
(lp1375
I00
as(g491
g305
g142
tp1376
(lp1377
I01
as(g434
g305
g1082
tp1378
(lp1379
I00
as(g191
g191
g1082
tp1380
(lp1381
I00
as(g254
g254
g1082
tp1382
(lp1383
I00
as(g395
g395
g1082
tp1384
(lp1385
I00
as(g305
g191
g1082
tp1386
(lp1387
I00
as(g191
g350
g142
tp1388
(lp1389
I01
as(g1085
g305
g142
tp1390
(lp1391
I00
as(g142
g1085
g1082
tp1392
(lp1393
I00
as(g142
g395
g1082
tp1394
(lp1395
I00
as(g350
g1082
g142
tp1396
(lp1397
I00
as(g305
g491
g1082
tp1398
(lp1399
I00
as(g395
g305
g1082
tp1400
(lp1401
I00
as(g141
g141
g1082
tp1402
(lp1403
I00
as(g1085
g141
g142
tp1404
(lp1405
I00
as(g350
g141
g1082
tp1406
(lp1407
I00
as(g395
g1085
g1082
tp1408
(lp1409
I00
as(g305
g350
g142
tp1410
(lp1411
I00
as(g254
g395
g1082
tp1412
(lp1413
I00
as(g254
g141
g142
tp1414
(lp1415
I00
as(g191
g141
g142
tp1416
(lp1417
I00
as(g305
g142
g1082
tp1418
(lp1419
I00
as(g350
g434
g142
tp1420
(lp1421
I00
as(g434
g434
g1082
tp1422
(lp1423
I00
as(g254
g1085
g142
tp1424
(lp1425
I00
as(g1082
g1085
g1082
tp1426
(lp1427
I00
as(g191
g434
g1082
tp1428
(lp1429
I00
as(g1082
g395
g142
tp1430
(lp1431
I00
as(g1085
g1085
g1082
tp1432
(lp1433
I00
as(g254
g305
g142
tp1434
(lp1435
I01
as(g305
g191
g142
tp1436
(lp1437
I00
as(g1082
g491
g1082
tp1438
(lp1439
I00
as(g141
g305
g1082
tp1440
(lp1441
I00
as(g434
g142
g142
tp1442
(lp1443
I00
as(g1085
g305
g1082
tp1444
(lp1445
I00
as(g434
g141
g142
tp1446
(lp1447
I01
as(g141
g350
g142
tp1448
(lp1449
I00
as(g254
g1082
g1082
tp1450
(lp1451
I00
as(g491
g305
g1082
tp1452
(lp1453
I00
as(g395
g491
g142
tp1454
(lp1455
I00
as(g1085
g1082
g1082
tp1456
(lp1457
I00
as(g1082
g491
g142
tp1458
(lp1459
I00
as(g305
g1085
g142
tp1460
(lp1461
I00
as(g350
g434
g1082
tp1462
(lp1463
I00
as(g350
g254
g1082
tp1464
(lp1465
I00
as(g191
g142
g142
tp1466
(lp1467
I00
as(g254
g1085
g1082
tp1468
(lp1469
I00
as(g254
g191
g142
tp1470
(lp1471
I01
as(g1085
g254
g1082
tp1472
(lp1473
I00
as(g142
g395
g142
tp1474
(lp1475
I00
as(g142
g434
g142
tp1476
(lp1477
I00
as(g395
g305
g142
tp1478
(lp1479
I01
as(g395
g254
g142
tp1480
(lp1481
I00
as(g1085
g434
g142
tp1482
(lp1483
I00
as(g350
g141
g142
tp1484
(lp1485
I00
as(g350
g350
g1082
tp1486
(lp1487
I00
as(g395
g191
g1082
tp1488
(lp1489
I00
as(g191
g142
g1082
tp1490
(lp1491
I00
as(g491
g142
g142
tp1492
(lp1493
I00
as(g305
g142
g142
tp1494
(lp1495
I00
as(g395
g491
g1082
tp1496
(lp1497
I00
as(g191
g491
g142
tp1498
(lp1499
I00
as(g142
g1082
g142
tp1500
(lp1501
I00
as(g1085
g1085
g142
tp1502
(lp1503
I00
as(g491
g141
g1082
tp1504
(lp1505
I00
as(g305
g1085
g1082
tp1506
(lp1507
I00
as(g1082
g350
g142
tp1508
(lp1509
I00
as(g141
g254
g142
tp1510
(lp1511
I00
as(g1085
g254
g142
tp1512
(lp1513
I00
as(g305
g1082
g142
tp1514
(lp1515
I00
as(g141
g350
g1082
tp1516
(lp1517
I00
as(g142
g305
g142
tp1518
(lp1519
I00
as(g1085
g395
g1082
tp1520
(lp1521
I00
as(g191
g1085
g1082
tp1522
(lp1523
I00
as(g350
g350
g142
tp1524
(lp1525
I00
as(g395
g191
g142
tp1526
(lp1527
I00
as(g434
g1085
g1082
tp1528
(lp1529
I00
as(g350
g254
g142
tp1530
(lp1531
I01
as(g142
g191
g142
tp1532
(lp1533
I00
as(g141
g434
g142
tp1534
(lp1535
I00
as(g254
g191
g1082
tp1536
(lp1537
I00
as(g191
g191
g142
tp1538
(lp1539
I00
as(g395
g254
g1082
tp1540
(lp1541
I00
as(g350
g191
g142
tp1542
(lp1543
I00
as(g434
g1082
g1082
tp1544
(lp1545
I00
as(g142
g491
g142
tp1546
(lp1547
I00
as(g491
g1082
g1082
tp1548
(lp1549
I00
as(g142
g254
g1082
tp1550
(lp1551
I00
as(g491
g142
g1082
tp1552
(lp1553
I00
as(g1082
g1082
g1082
tp1554
(lp1555
I00
as(g350
g1085
g1082
tp1556
(lp1557
I00
as(g254
g434
g1082
tp1558
(lp1559
I00
as(g142
g1082
g1082
tp1560
(lp1561
I00
as(g491
g141
g142
tp1562
(lp1563
I01
as(g1082
g305
g142
tp1564
(lp1565
I00
assg632
g633
sS'use_prm'
p1566
I01
sS'object_names'
p1567
(lp1568
S'square_packing_box1'
p1569
aS'rectangular_packing_box1'
p1570
aS'square_packing_box2'
p1571
aS'rectangular_packing_box2'
p1572
aS'square_packing_box3'
p1573
aS'rectangular_packing_box3'
p1574
aS'square_packing_box4'
p1575
aS'rectangular_packing_box4'
p1576
asg1017
NsS'current_holding_collides'
p1577
NsS'object_poses'
p1578
(dp1579
Vrectangular_packing_box4
p1580
g22
(g23
(I0
tp1581
g25
tp1582
Rp1583
(I1
(I1
I3
tp1584
g151
I00
S'P\x1d\x90\xb4\xa4\xd4\xc2?\xd6\x16\xd1Q\xf5\xcf\x1d\xc0y\x81\xe4w\x91\xfc\xfd?'
p1585
tp1586
bsVrectangular_packing_box2
p1587
g22
(g23
(I0
tp1588
g25
tp1589
Rp1590
(I1
(I1
I3
tp1591
g151
I00
S"\x80S\x1e\xff\xd2\xfd\x05@\x04\x0e\x90\xa8\x91-\x19\xc0\x7f'\xd4\xebnx\x03@"
p1592
tp1593
bsVrectangular_packing_box3
p1594
g22
(g23
(I0
tp1595
g25
tp1596
Rp1597
(I1
(I1
I3
tp1598
g151
I00
S'\xac\xfc\xa3;\nc\x01@v\xa8\x82\xbb\x9f\x00\x18\xc0\xd7,\x1f\x80r\xe0\xf4?'
p1599
tp1600
bsVrectangular_packing_box1
p1601
g22
(g23
(I0
tp1602
g25
tp1603
Rp1604
(I1
(I1
I3
tp1605
g151
I00
S'@_\x13\xb1\x1e\xaa\xc8?\xe6z\xc7Q80\x19\xc0@?XBG\x9c\x13@'
p1606
tp1607
bsVsquare_packing_box2
p1608
g22
(g23
(I0
tp1609
g25
tp1610
Rp1611
(I1
(I1
I3
tp1612
g151
I00
S'\x8f\\\xff\xa76&\xf4?\xdc\xa9&\x92JS\x1b\xc0\xa9t#\xf6\x8a\xb3\t@'
p1613
tp1614
bsVsquare_packing_box3
p1615
g22
(g23
(I0
tp1616
g25
tp1617
Rp1618
(I1
(I1
I3
tp1619
g151
I00
S'\xe0\xb0_\x00$c\x00@\xbd\xfeycy\x15 \xc0\x95\x97\xd0\xa4\xcd\xce\x13@'
p1620
tp1621
bsVsquare_packing_box1
p1622
g22
(g23
(I0
tp1623
g25
tp1624
Rp1625
(I1
(I1
I3
tp1626
g151
I00
S'\xd8\xc4\x1a\xb0X\xb1\xf1?\x99\xc4\xb5\xcf\x87\xd2\x15\xc0y\xf9M\x8e\xbe\x18\x12@'
p1627
tp1628
bsVsquare_packing_box4
p1629
g22
(g23
(I0
tp1630
g25
tp1631
Rp1632
(I1
(I1
I3
tp1633
g151
I00
S"\x16\xb7\x80\xc7\x05\xb2\xf1?\xd6\xd3\xa7~|\xef\x1d\xc0'\xb6=\xb8\x8b\x84\xf8?"
p1634
tp1635
bssS'reachable_regions_while_holding'
p1636
(lp1637
(g634
g1082
tp1638
a(g592
g1082
tp1639
a(g593
g1082
tp1640
a(g594
g1082
tp1641
a(g595
g1082
tp1642
a(g596
g1082
tp1643
a(g12
g1082
tp1644
a(g957
g1082
tp1645
asS'in_region'
p1646
(itrajectory_representation.predicates.in_region
InRegion
p1647
(dp1648
g1017
NsbsS'cached_pick_paths'
p1649
(dp1650
g634
g675
sg592
g718
sg593
g767
sg594
g804
sg595
g853
sg596
g908
sg12
g938
sg957
g988
ssg597
(dp1651
(Vsquare_packing_box4
p1652
(cnumpy.core.multiarray
scalar
p1653
(g151
S't`9B\x06\xb2\xf1?'
p1654
tp1655
Rp1656
g1653
(g151
S'm\xabYg|\xef\x1d\xc0'
p1657
tp1658
Rp1659
g1653
(g151
S'M-[\xeb\x8b\x84\xf8?'
p1660
tp1661
Rp1662
tp1663
tp1664
g631
s(Vrectangular_packing_box1
p1665
(g1653
(g151
S'\xdd\xb4\x19\xa7!\xaa\xc8?'
p1666
tp1667
Rp1668
g1653
(g151
S'\xe3\xdfg\\80\x19\xc0'
p1669
tp1670
Rp1671
g1653
(g151
S'\xa6bc^G\x9c\x13@'
p1672
tp1673
Rp1674
tp1675
tp1676
g615
s(Vrectangular_packing_box2
p1677
(g1653
(g151
S'j\xda\xc54\xd3\xfd\x05@'
p1678
tp1679
Rp1680
g1653
(g151
S'\xa4\x8e\x8e\xab\x91-\x19\xc0'
p1681
tp1682
Rp1683
g1653
(g151
S'\xf1\xba~\xc1nx\x03@'
p1684
tp1685
Rp1686
tp1687
tp1688
g607
s(Vrectangular_packing_box4
p1689
(g1653
(g151
S'\xb9Qd\xad\xa1\xd4\xc2?'
p1690
tp1691
Rp1692
g1653
(g151
S'\x0b]\x89@\xf5\xcf\x1d\xc0'
p1693
tp1694
Rp1695
g1653
(g151
S'\xc8~\x16K\x91\xfc\xfd?'
p1696
tp1697
Rp1698
tp1699
tp1700
g603
s(Vsquare_packing_box3
p1701
(g1653
(g151
S'\x11\xa8\xfeA$c\x00@'
p1702
tp1703
Rp1704
g1653
(g151
S']\xa8\xfcky\x15 \xc0'
p1705
tp1706
Rp1707
g1653
(g151
S'\x85\xec\xbc\x8d\xcd\xce\x13@'
p1708
tp1709
Rp1710
tp1711
tp1712
g623
s(Vsquare_packing_box2
p1713
(g1653
(g151
S'[x^*6&\xf4?'
p1714
tp1715
Rp1716
g1653
(g151
S'\xb0\x8e\xe3\x87JS\x1b\xc0'
p1717
tp1718
Rp1719
g1653
(g151
S'\xe9\x81\x8f\xc1\x8a\xb3\t@'
p1720
tp1721
Rp1722
tp1723
tp1724
g619
s(Vsquare_packing_box1
p1725
(g1653
(g151
S'\x14=\xf01X\xb1\xf1?'
p1726
tp1727
Rp1728
g1653
(g151
S'\xf0\xc0\x00\xc2\x87\xd2\x15\xc0'
p1729
tp1730
Rp1731
g1653
(g151
S'Q\xf6\x96r\xbe\x18\x12@'
p1732
tp1733
Rp1734
tp1735
tp1736
g627
s(Vrectangular_packing_box3
p1737
(g1653
(g151
S'\xf5\xbc\x1b\x0b\nc\x01@'
p1738
tp1739
Rp1740
g1653
(g151
S'CUL\xa5\x9f\x00\x18\xc0'
p1741
tp1742
Rp1743
g1653
(g151
S'\xdd\xb3\xae\xd1r\xe0\xf4?'
p1744
tp1745
Rp1746
tp1747
tp1748
g611
ssS'state_saver'
p1749
(igtamp_utils.utils
CustomStateSaver
p1750
(dp1751
S'robot_base_pose'
p1752
g22
(g23
(I0
tp1753
g25
tp1754
Rp1755
(I1
(I1
I3
tp1756
g151
I00
S'x\x8b\x1d\xbdAr\x03@ON7\x7f\xa5\x93\x1c\xc0\xc7Q\x00~\xb6\xce\xf2?'
p1757
tp1758
bsS'held_object'
p1759
NsS'robot_name'
p1760
S'pr2'
p1761
sS'env_id'
p1762
I1
sg1578
(dp1763
Vright_wall_1
p1764
g22
(g23
(I0
tp1765
g25
tp1766
Rp1767
(I1
(I4
tp1768
g151
I00
S'H\xe1z\x14\xaeG\x12@&\\\x8f\xc2\xf5(\xd4\xbf\xcc\x7fH\xbf}\x1d\xed?\x00\x00\x00\x00\x00\x00\x00\x00'
p1769
tp1770
bsVc_obst5
p1771
g22
(g23
(I0
tp1772
g25
tp1773
Rp1774
(I1
(I4
tp1775
g151
I00
S"\x1e\x97\xbd7\xaa\xef\x11@5F\x90\x048\r\xd7?e\xaa`TR'\xed?b\xfcc\xe8\x90\xd5\xf7?"
p1776
tp1777
bsVentrance_right
p1778
g22
(g23
(I0
tp1779
g25
tp1780
Rp1781
(I1
(I4
tp1782
g151
I00
S'ffffff\n@H\xe1z\x14\xaeG\t\xc0\x9c\xc4 \xb0rh\xc1?\x00\x00\x00\x00\x00\x00\x00\x00'
p1783
tp1784
bsVcomputer_table
p1785
g22
(g23
(I0
tp1786
g25
tp1787
Rp1788
(I1
(I4
tp1789
g151
I00
S'\x00\x00\x00\x00\x00\x00\x13@\x00\x00\x00\x00\x00\x00\xf8\xbf\x96C\x8bl\xe7\xfb\xe7?\xd2!3\x7f|\xd9\x12@'
p1790
tp1791
bsVchair_6b56
p1792
g22
(g23
(I0
tp1793
g25
tp1794
Rp1795
(I1
(I4
tp1796
g151
I00
S'u=\n\xd7\xa3p\xf5?K\xe1z\x14\xaeG\xd1?\x00\x00\x00\x00\x00\x00\x00\x00\xd6$\xfaNBm\n@'
p1797
tp1798
bsVsquare_packing_box3
p1799
g22
(g23
(I0
tp1800
g25
tp1801
Rp1802
(I1
(I4
tp1803
g151
I00
S'\xdb\xb0_\x00$c\x00@\xbe\xfeycy\x15 \xc0L7\x89A`\xe5\xd8?\x95\x97\xd0\xa4\xcd\xce\x13@'
p1804
tp1805
bsVsquare_packing_box2
p1806
g22
(g23
(I0
tp1807
g25
tp1808
Rp1809
(I1
(I4
tp1810
g151
I00
S'\x91\\\xff\xa76&\xf4?\xde\xa9&\x92JS\x1b\xc0L7\x89A`\xe5\xd8?\xa9t#\xf6\x8a\xb3\t@'
p1811
tp1812
bsVtable
p1813
g22
(g23
(I0
tp1814
g25
tp1815
Rp1816
(I1
(I4
tp1817
g151
I00
S'\x7f\xf6#EdX\xed?\xac\xffs\x98//\xc0\xbf\x00\x00\x00\x00\x00\x00\x00\x00\x00\x00\x00\x00\x00\x00\x00\x00'
p1818
tp1819
bsVsquare_packing_box1
p1820
g22
(g23
(I0
tp1821
g25
tp1822
Rp1823
(I1
(I4
tp1824
g151
I00
S'\xd8\xc4\x1a\xb0X\xb1\xf1?\x99\xc4\xb5\xcf\x87\xd2\x15\xc0L7\x89A`\xe5\xd8?y\xf9M\x8e\xbe\x18\x12@'
p1825
tp1826
bsVback_wall_2
p1827
g22
(g23
(I0
tp1828
g25
tp1829
Rp1830
(I1
(I4
tp1831
g151
I00
S'\xaeG\xe1z\x14.\x13@\x80\x14\xaeG\xe1z\xc4?xX\xa85\xcd\xbb\xf2?\x00\x00\x00\x00\x00\x00\x00\x00'
p1832
tp1833
bsVchair_083c
p1834
g22
(g23
(I0
tp1835
g25
tp1836
Rp1837
(I1
(I4
tp1838
g151
I00
S'\xa4p=\n\xd7\xa3\xe0?333333\xe3\xbf\x00\x00\x00\x00\x00\x00\x00\x00\x00\x00\x00\x00\x00\x00\x00\x00'
p1839
tp1840
bsVback_wall_1
p1841
g22
(g23
(I0
tp1842
g25
tp1843
Rp1844
(I1
(I4
tp1845
g151
I00
S'\xaeG\xe1z\x14.\x13@\x80\x14\xaeG\xe1z\xc4?\xcc\x7fH\xbf}\x1d\xed?\x00\x00\x00\x00\x00\x00\x00\x00'
p1846
tp1847
bsVbottom_wall
p1848
g22
(g23
(I0
tp1849
g25
tp1850
Rp1851
(I1
(I4
tp1852
g151
I00
S'\x00\x00\x00\x00\x00\x00\xfc?\x00\x00\x00\x00\x00\x00\x00\x00\x00\x00\x00\x00\x00\x00\x00\x00\x00\x00\x00\x00\x00\x00\x00\x00'
p1853
tp1854
bsVcup_905a
p1855
g22
(g23
(I0
tp1856
g25
tp1857
Rp1858
(I1
(I4
tp1859
g151
I00
S'\x00\x00\x00\x00\x00\x00\xf0?\x83\xc0\xca\xa1E\xb6\xdb?\x1b/\xdd$\x06\x81\xed?\x00\x00\x00\x00\x00\x00\x00\x00'
p1860
tp1861
bsVplate_496f
p1862
g22
(g23
(I0
tp1863
g25
tp1864
Rp1865
(I1
(I4
tp1866
g151
I00
S"q=\n\xd7\xa3p\xe5?\x9dhW!\xe5'\xdd\xbf\x1b/\xdd$\x06\x81\xed?\x00\x00\x00\x00\x00\x00\x00\x00"
p1867
tp1868
bsVtoaster
p1869
g22
(g23
(I0
tp1870
g25
tp1871
Rp1872
(I1
(I4
tp1873
g151
I00
S')\\\x8f\xc2\xf5(\xf4\xbf\xe0z\x14\xaeG\xe1\xf2\xbf\xb8\x1e\x85\xebQ\xb8\xee?\x89/`\x9b\xf8\x8a\xe4?'
p1874
tp1875
bsVc_obst1
p1876
g22
(g23
(I0
tp1877
g25
tp1878
Rp1879
(I1
(I4
tp1880
g151
I00
S"\x0cL\xfa8\xcd_\x12@\xfc\x01\x18p\xae\x83\xd5?e\xaa`TR'\xed?Jv\xc2\x85\xe3\x8a\x06@"
p1881
tp1882
bsVrectangular_packing_box4
p1883
g22
(g23
(I0
tp1884
g25
tp1885
Rp1886
(I1
(I4
tp1887
g151
I00
S'P\x1d\x90\xb4\xa4\xd4\xc2?\xd6\x16\xd1Q\xf5\xcf\x1d\xc0L7\x89A`\xe5\xd8?y\x81\xe4w\x91\xfc\xfd?'
p1888
tp1889
bsVmicrowave
p1890
g22
(g23
(I0
tp1891
g25
tp1892
Rp1893
(I1
(I4
tp1894
g151
I00
S'\x9a\x99\x99\x99\x99\x99\xf1\xbf\x00\x00\x00\x00\x00\x00\x00@7\x89A`\xe5\xd0\xee?\x00\x00\x00\x00\x00\x00\x00\x00'
p1895
tp1896
bsVc_obst7
p1897
g22
(g23
(I0
tp1898
g25
tp1899
Rp1900
(I1
(I4
tp1901
g151
I00
S"\xdes\xe6\xd5F\x07\x12@\xe0\xd0\xb8\xcb^\xb7\xcd?e\xaa`TR'\xed?\x17h\x8f\xea\x86}\xe1?"
p1902
tp1903
bsVc_obst6
p1904
g22
(g23
(I0
tp1905
g25
tp1906
Rp1907
(I1
(I4
tp1908
g151
I00
S"k(\x0c\xc6Cs\x12@\xb4n\xa2\xd7\xe2\xd3\xc5?e\xaa`TR'\xed?\x0f5\xf9\x06\xb1f\x04@"
p1909
tp1910
bsVcup_b6af
p1911
g22
(g23
(I0
tp1912
g25
tp1913
Rp1914
(I1
(I4
tp1915
g151
I00
S'R\xb8\x1e\x85\xebQ\xe8?\x9a\x99\x99\x99\x99\x99\xe1?\x1b/\xdd$\x06\x81\xed?\x00\x00\x00\x00\x00\x00\x00\x00'
p1916
tp1917
bsVc_obst4
p1918
g22
(g23
(I0
tp1919
g25
tp1920
Rp1921
(I1
(I4
tp1922
g151
I00
S"\xbc!o\xb9\xd0`\x12@\xc0\x91\xf14\x03r\xaf\xbfe\xaa`TR'\xed? \x86\xd6\x9c2\x00\x01@"
p1923
tp1924
bsVrectangular_packing_box2
p1925
g22
(g23
(I0
tp1926
g25
tp1927
Rp1928
(I1
(I4
tp1929
g151
I00
S"zS\x1e\xff\xd2\xfd\x05@\t\x0e\x90\xa8\x91-\x19\xc0L7\x89A`\xe5\xd8?\x7f'\xd4\xebnx\x03@"
p1930
tp1931
bsVplate_fa76
p1932
g22
(g23
(I0
tp1933
g25
tp1934
Rp1935
(I1
(I4
tp1936
g151
I00
S'=\n\xd7\xa3p=\xf2?\x00\x00\x00\x00\x00\x00\x00\x00\x1b/\xdd$\x06\x81\xed?\x00\x00\x00\x00\x00\x00\x00\x00'
p1937
tp1938
bsVfloorwalls
p1939
g22
(g23
(I0
tp1940
g25
tp1941
Rp1942
(I1
(I4
tp1943
g151
I00
S'\xc7\xcc\xcc\xcc\xcc\xcc\xfc?\x00\x00\x00\x00\x00\x00\x18\xc0H\xe1z\x14\xaeG\xc1?\x16-DT\xfb!\xf9?'
p1944
tp1945
bsVpin_c671
p1946
g22
(g23
(I0
tp1947
g25
tp1948
Rp1949
(I1
(I4
tp1950
g151
I00
S'\xc3\xf5(\\\x8f\xc2\xf1\xbf}?5^\xbaI\x02@\xb8\x1e\x85\xebQ\xb8\xfa?\x00\x00\x00\x00\x00\x00\x00\x00'
p1951
tp1952
bsVc_obst3
p1953
g22
(g23
(I0
tp1954
g25
tp1955
Rp1956
(I1
(I4
tp1957
g151
I00
S"l\x92\xab\x7f\x9b8\x12@H\xbb\x16j\xf3\x1f\xa8?e\xaa`TR'\xed?\x9f<\xdc\x0c\xe8\xac\xdb?"
p1958
tp1959
bsVchair_2e39
p1960
g22
(g23
(I0
tp1961
g25
tp1962
Rp1963
(I1
(I4
tp1964
g151
I00
S'hfffff\xee?cfffff\xf2\xbf\x00\x00\x00\x00\x00\x00\x00\x00\x07M\xe8QQF\xf3?'
p1965
tp1966
bsVentrance_left
p1967
g22
(g23
(I0
tp1968
g25
tp1969
Rp1970
(I1
(I4
tp1971
g151
I00
S'\x98\x99\x99\x99\x99\x99\xe9\xbfH\xe1z\x14\xaeG\t\xc0\x9c\xc4 \xb0rh\xc1?\x00\x00\x00\x00\x00\x00\x00\x00'
p1972
tp1973
bsVtop_wall_1
p1974
g22
(g23
(I0
tp1975
g25
tp1976
Rp1977
(I1
(I4
tp1978
g151
I00
S'H\xe1z\x14\xaeG\x12@\x80\x14\xaeG\xe1z\xc4?xX\xa85\xcd\xbb\xf2?\x00\x00\x00\x00\x00\x00\x00\x00'
p1979
tp1980
bsVrectangular_packing_box3
p1981
g22
(g23
(I0
tp1982
g25
tp1983
Rp1984
(I1
(I4
tp1985
g151
I00
S'\xac\xfc\xa3;\nc\x01@v\xa8\x82\xbb\x9f\x00\x18\xc0L7\x89A`\xe5\xd8?\xd7,\x1f\x80r\xe0\xf4?'
p1986
tp1987
bsVshaker
p1988
g22
(g23
(I0
tp1989
g25
tp1990
Rp1991
(I1
(I4
tp1992
g151
I00
S'\n\xd7\xa3p=\n\x01@\x14\xaeG\xe1z\x14\x02@\\\x8f\xc2\xf5(\\\xef?\x00\x00\x00\x00\x00\x00\x00\x00'
p1993
tp1994
bsVc_obst9
p1995
g22
(g23
(I0
tp1996
g25
tp1997
Rp1998
(I1
(I4
tp1999
g151
I00
S"\x1f\xb8\x9c\x00\x05\x92\x12@lx\xaamw\xa8\xc1\xbfe\xaa`TR'\xed?\xbb\x06\xe9\x81\xba$\xf6?"
p2000
tp2001
bsVplate_835a
p2002
g22
(g23
(I0
tp2003
g25
tp2004
Rp2005
(I1
(I4
tp2006
g151
I00
S'\xf6(\\\x8f\xc2\xf5\xf0?\\\x8f\xc2\xf5(\\\xe7\xbf\x1b/\xdd$\x06\x81\xed?\x00\x00\x00\x00\x00\x00\x00\x00'
p2007
tp2008
bsVcup_58a2
p2009
g22
(g23
(I0
tp2010
g25
tp2011
Rp2012
(I1
(I4
tp2013
g151
I00
S'\x85\xebQ\xb8\x1e\x85\xe3?\xcd\xcc\xcc\xcc\xcc\xcc\xdc?\x1b/\xdd$\x06\x81\xed?\x00\x00\x00\x00\x00\x00\x00\x00'
p2014
tp2015
bsVleft_wall_1
p2016
g22
(g23
(I0
tp2017
g25
tp2018
Rp2019
(I1
(I4
tp2020
g151
I00
S'H\xe1z\x14\xaeG\x12@S\xb8\x1e\x85\xebQ\xe4?\xcc\x7fH\xbf}\x1d\xed?\x00\x00\x00\x00\x00\x00\x00\x00'
p2021
tp2022
bsVc_obst2
p2023
g22
(g23
(I0
tp2024
g25
tp2025
Rp2026
(I1
(I4
tp2027
g151
I00
S"\xbf,\xac\x80\x05\x8a\x12@h\x89I\xaav\x90\x94?e\xaa`TR'\xed?\xc8<\x0fv\xc0+\x14@"
p2028
tp2029
bsVsquare_packing_box4
p2030
g22
(g23
(I0
tp2031
g25
tp2032
Rp2033
(I1
(I4
tp2034
g151
I00
S"\x13\xb7\x80\xc7\x05\xb2\xf1?\xd4\xd3\xa7~|\xef\x1d\xc0L7\x89A`\xe5\xd8?'\xb6=\xb8\x8b\x84\xf8?"
p2035
tp2036
bsVrectangular_packing_box1
p2037
g22
(g23
(I0
tp2038
g25
tp2039
Rp2040
(I1
(I4
tp2041
g151
I00
S'H_\x13\xb1\x1e\xaa\xc8?\xe4z\xc7Q80\x19\xc0L7\x89A`\xe5\xd8?@?XBG\x9c\x13@'
p2042
tp2043
bsVpin_371e
p2044
g22
(g23
(I0
tp2045
g25
tp2046
Rp2047
(I1
(I4
tp2048
g151
I00
S'333333\xf3\xbfffffff\xf6?\xb8\x1e\x85\xebQ\xb8\xee?\x00\x00\x00\x00\x00\x00\x00\x00'
p2049
tp2050
bsVfridge
p2051
g22
(g23
(I0
tp2052
g25
tp2053
Rp2054
(I1
(I4
tp2055
g151
I00
S'\xd7\xa3p=\n\xd7\xeb\xbf\x00\x00\x00\x00\x00\x00\x00\xc0\xcd\xcc\xcc\xcc\xcc\xcc\xf8?\x00\x00\x00\x00\x00\x00\x00\x00'
p2056
tp2057
bsVcup_d441
p2058
g22
(g23
(I0
tp2059
g25
tp2060
Rp2061
(I1
(I4
tp2062
g151
I00
S'\n\xd7\xa3p=\n\xef?\x8f\xc2\xf5(\\\x8f\xe2?\x1b/\xdd$\x06\x81\xed?\x00\x00\x00\x00\x00\x00\x00\x00'
p2063
tp2064
bsVshelf2
p2065
g22
(g23
(I0
tp2066
g25
tp2067
Rp2068
(I1
(I4
tp2069
g151
I00
S'\x00\x00\x00\x00\x00\x00\x0e@\xaeG\xe1z\x14\xae\x07@\x9c\xc4 \xb0rh\xc1?\xd2!3\x7f|\xd9\x12@'
p2070
tp2071
bsVtop_wall_2
p2072
g22
(g23
(I0
tp2073
g25
tp2074
Rp2075
(I1
(I4
tp2076
g151
I00
S'H\xe1z\x14\xaeG\x12@\x80\x14\xaeG\xe1z\xc4?\x16HP\xfc\x18\xf3\xfd?\x00\x00\x00\x00\x00\x00\x00\x00'
p2077
tp2078
bsVc_obst0
p2079
g22
(g23
(I0
tp2080
g25
tp2081
Rp2082
(I1
(I4
tp2083
g151
I00
S"\x00\xb0\xae\xc7\xb5\x99\x12@4\xf13\xbd-\x89\xbd?e\xaa`TR'\xed?n{7\xf0\xe2\xea\xed?"
p2084
tp2085
bsVshelf1
p2086
g22
(g23
(I0
tp2087
g25
tp2088
Rp2089
(I1
(I4
tp2090
g151
I00
S'\x00\x00\x00\x00\x00\x00\x13@\xaeG\xe1z\x14\xae\x07@\x9c\xc4 \xb0rh\xc1?\xd2!3\x7f|\xd9\x12@'
p2091
tp2092
bsVsink
p2093
g22
(g23
(I0
tp2094
g25
tp2095
Rp2096
(I1
(I4
tp2097
g151
I00
S'ffffff\xd6?333333\x01@\x9a\x99\x99\x99\x99\x99\xb9\xbf\x00\x00\x00\x00\x00\x00\x00\x00'
p2098
tp2099
bsVpr2
p2100
g22
(g23
(I0
tp2101
g25
tp2102
Rp2103
(I1
(I4
tp2104
g151
I00
S'~\x8b\x1d\xbdAr\x03@MN7\x7f\xa5\x93\x1c\xc0\x9a_\x94\xa0\xbf\xd0\xc1?\xc7Q\x00~\xb6\xce\xf2?'
p2105
tp2106
bsVchair_12d0
p2107
g22
(g23
(I0
tp2108
g25
tp2109
Rp2110
(I1
(I4
tp2111
g151
I00
S'\\\xd2\x18\xad\xa3\xaa\xdb?Of\x83L2r\xc6?\x00\x00\x00\x00\x00\x00\x00\x00\xf8\x81\r\x14M\xa6\x17@'
p2112
tp2113
bsVright_wall_2
p2114
g22
(g23
(I0
tp2115
g25
tp2116
Rp2117
(I1
(I4
tp2118
g151
I00
S'H\xe1z\x14\xaeG\x12@&\\\x8f\xc2\xf5(\xd4\xbfxX\xa85\xcd\xbb\xf2?\x00\x00\x00\x00\x00\x00\x00\x00'
p2119
tp2120
bsVknife_block
p2121
g22
(g23
(I0
tp2122
g25
tp2123
Rp2124
(I1
(I4
tp2125
g151
I00
S'R\xb8\x1e\x85\xebQ\xe0\xbfffffff\x02@`\xe5\xd0"\xdb\xf9\xee?\x00\x00\x00\x00\x00\x00\x00\x00'
p2126
tp2127
bsVleft_wall_2
p2128
g22
(g23
(I0
tp2129
g25
tp2130
Rp2131
(I1
(I4
tp2132
g151
I00
S'H\xe1z\x14\xaeG\x12@S\xb8\x1e\x85\xebQ\xe4?xX\xa85\xcd\xbb\xf2?\x00\x00\x00\x00\x00\x00\x00\x00'
p2133
tp2134
bsVleft_wall
p2135
g22
(g23
(I0
tp2136
g25
tp2137
Rp2138
(I1
(I4
tp2139
g151
I00
S'\x9a\x99\x99\x99\x99\x99\x07@H\xe1z\x14\xaeG\xff?\x9c\xc4 \xb0rh\xc1?\x00\x00\x00\x00\x00\x00\x00\x00'
p2140
tp2141
bsVkitchen
p2142
g22
(g23
(I0
tp2143
g25
tp2144
Rp2145
(I1
(I4
tp2146
g151
I00
S'\x00\x00\x00\x00\x00\x00\x00\x00\x00\x00\x00\x00\x00\x00\x00\x00\x00\x00\x00\x00\x00\x00\x00\x00\x00\x00\x00\x00\x00\x00\x00\x00'
p2147
tp2148
bsVtable2
p2149
g22
(g23
(I0
tp2150
g25
tp2151
Rp2152
(I1
(I4
tp2153
g151
I00
S'\x00\x00\x00\x00\x00\x00\x13@\x80\x14\xaeG\xe1z\xc4?S\x96!\x8euq\xec?\xd2!3\x7f|\xd9\x12@'
p2154
tp2155
bsVc_obst8
p2156
g22
(g23
(I0
tp2157
g25
tp2158
Rp2159
(I1
(I4
tp2160
g151
I00
S"\xd8\x93Pv\xcc*\x12@\xfa\xba\xddF \xaf\xdc?e\xaa`TR'\xed??\xb8:9\x11\x81\x17@"
p2161
tp2162
bsVplate_b4e7
p2163
g22
(g23
(I0
tp2164
g25
tp2165
Rp2166
(I1
(I4
tp2167
g151
I00
S'\x14\xaeG\xe1z\x14\xf2\xbf\x14\xaeG\xe1z\x14\x00@=\n\xd7\xa3p=\xf2?\x00\x00\x00\x00\x00\x00\x00\x00'
p2168
tp2169
bsVcooker
p2170
g22
(g23
(I0
tp2171
g25
tp2172
Rp2173
(I1
(I4
tp2174
g151
I00
S'\xaeG\xe1z\x14\xae\xff?\x85\xebQ\xb8\x1e\x85\xfb?\x00\x00\x00\x00\x00\x00\xe8?\x00\x00\x00\x00\x00\x00\x00\x00'
p2175
tp2176
bsVpin_a091
p2177
g22
(g23
(I0
tp2178
g25
tp2179
Rp2180
(I1
(I4
tp2181
g151
I00
S'\xdb\xf9~j\xbct\xf7\xbf)\\\x8f\xc2\xf5(\x02@\xb8\x1e\x85\xebQ\xb8\xfa?\x00\x00\x00\x00\x00\x00\x00\x00'
p2182
tp2183
bsVside_wall_2
p2184
g22
(g23
(I0
tp2185
g25
tp2186
Rp2187
(I1
(I4
tp2188
g151
I00
S'\xfa\xff\xff\xff\xff\xff\x14@\x00\x00\x00\x00\x00\x00\x00\x00\x9c\xc4 \xb0rh\xc1?\x18-DT\xfb!\xf9?'
p2189
tp2190
bsVside_wall_3
p2191
g22
(g23
(I0
tp2192
g25
tp2193
Rp2194
(I1
(I4
tp2195
g151
I00
S'\x00\x00\x00\x00\x00\x00\xfc?H\xe1z\x14\xaeG\t@\x9c\xc4 \xb0rh\xc1?\x00\x00\x00\x00\x00\x00\x00\x00'
p2196
tp2197
bsVmixer
p2198
g22
(g23
(I0
tp2199
g25
tp2200
Rp2201
(I1
(I4
tp2202
g151
I00
S'\n\xd7\xa3p=\n\xfb?ffffff\x02@d;\xdfO\x8d\x97\xee?\x00\x00\x00\x00\x00\x00\x00\x00'
p2203
tp2204
bsVside_wall_1
p2205
g22
(g23
(I0
tp2206
g25
tp2207
Rp2208
(I1
(I4
tp2209
g151
I00
S'\xf4\xff\xff\xff\xff\xff\xfb\xbf\x00\x00\x00\x00\x00\x00\x00\x00\x9c\xc4 \xb0rh\xc1?\x18-DT\xfb!\xf9?'
p2210
tp2211
bsVbottom_wall_1
p2212
g22
(g23
(I0
tp2213
g25
tp2214
Rp2215
(I1
(I4
tp2216
g151
I00
S'H\xe1z\x14\xaeG\x12@\x80\x14\xaeG\xe1z\xc4?\xcc\x7fH\xbf}\x1d\xed?\x00\x00\x00\x00\x00\x00\x00\x00'
p2217
tp2218
bsVcan
p2219
g22
(g23
(I0
tp2220
g25
tp2221
Rp2222
(I1
(I4
tp2223
g151
I00
S'\x00\x00\x00\x00\x00\x00\xf4\xbfH\xe1z\x14\xaeG\xe1\xbf\n\xd7\xa3p=\n\xef?\x00\x00\x00\x00\x00\x00\x00\x00'
p2224
tp2225
bsVright_wall
p2226
g22
(g23
(I0
tp2227
g25
tp2228
Rp2229
(I1
(I4
tp2230
g151
I00
S'\x9a\x99\x99\x99\x99\x99\x07@H\xe1z\x14\xaeG\xff\xbf\x9c\xc4 \xb0rh\xc1?\x00\x00\x00\x00\x00\x00\x00\x00'
p2231
tp2232
bsVcoffe_machine
p2233
g22
(g23
(I0
tp2234
g25
tp2235
Rp2236
(I1
(I4
tp2237
g151
I00
S'\\\x8f\xc2\xf5(\\\xf5\xbf\xb8\x1e\x85\xebQ\xb8\xee?\n\xd7\xa3p=\n\xef?\x00\x00\x00\x00\x00\x00\x00\x00'
p2238
tp2239
bsVcomputer_chair
p2240
g22
(g23
(I0
tp2241
g25
tp2242
Rp2243
(I1
(I4
tp2244
g151
I00
S'\xcd\xcc\xcc\xcc\xcc\xcc\x10@\x00\x00\x00\x00\x00\x00\xf8\xbf\xa00\xb6\x10\xe4\xa9\x95\xbf\x00\x00\x00\x00\x00\x00\x00\x00'
p2245
tp2246
bssS'robot_dof_values'
p2247
g22
(g23
(I0
tp2248
g25
tp2249
Rp2250
(I1
(I39
tp2251
g151
I00
S'\x00\x00\x00\x00\x00\x00\x00\x00\x00\x00\x00\x00\x00\x00\x00\x00\x00\x00\x00\x00\x00\x00\x00\x00\x00\x00\x00\x00\x00\x00\x00\x00\x00\x00\x00\x00\x00\x00\x00\x00\x00\x00\x00\x00\x00\x00\x00\x00\x00\x00\x00\x00\x00\x00\x00\x00\x00\x00\x00\x00\x00\x00\x00\x00\x00\x00\x00\x00\x00\x00\x00\x00\x00\x00\x00\x00\x00\x00\x00\x00\x00\x00\x00\x00\x00\x00\x00\x00\x00\x00\x00\x00\x00\x00\x00\x00@d;\xdfO\x8d\x87?\x00\x00\x00\x00\x00\x00\x00\x00\x00\x00\x00\x00\x00\x00\x00\x00\x00\x00\x00\x00\x00\x00\x00\x00\xec\xed\t\xf1\xcc\xa4\xf4?\x00\x00\x00\x00\x00\x00\xb0<N"\xd0^p\xf8\x00\xc0\x00\x00\x00\x00\x00\x00\x00\x00\x9a\x03\r.\x04V\xe6\xbf\xdcU\xe2\\I\x9f\xb3<\x00\x00\x00\x00\x00\x00\x00\x00\x00\x00\x00\x00\x00\x80\xd9\xbc\x00\x00\x00\x00\x00\x00\x00\x00\x00\x00\x00\x00\x00\x00\xd0\xbc\x00\x00\x00\x00\x00\x00\x00\x00\x00\x00\x00\x00\x00\x00\x00\x00\xec\xed\t\xf1\xcc\xa4\xf4?\x00\x00\x00\x00\x00\x00\xc0\xbcO"\xd0^p\xf8\x00\xc0\xdal\xdf\xccv\xf8\xa0\xbc\x9d\x03\r.\x04V\xe6\xbf\x00\x00\x00\x00\x00\x00\x00\x00\xcf9\xe3\xc17\x89\xe1?\x00\x00\x00\x00\x00\x00\xcb\xbc\x97`G\xb3\x80b\xa2\xbc\x00\x00\x00\x00\x00\x00\xd0\xbc\x00\x00\x00\x00\x00\x00\x00\x00'
p2252
tp2253
bsS'is_holding'
p2254
I00
sbsS'holding_collides'
p2255
NsS'parent_ternary_predicates'
p2256
(dp2257
sS'cached_place_paths'
p2258
(dp2259
(g594
g1082
tp2260
(lp2261
g22
(g23
(I0
tp2262
g25
tp2263
Rp2264
(I1
(I3
tp2265
g151
I00
S'V}\xc6\xff\xe2\x06\xea?\xa0\x18\xd3\xb6\xaex\x18\xc0\x1a\xb9\x1f\x18\xff2\n@'
p2266
tp2267
bas(g957
g142
tp2268
g193
s(g634
g142
tp2269
g256
s(g596
g1082
tp2270
(lp2271
g22
(g23
(I0
tp2272
g25
tp2273
Rp2274
(I1
(I3
tp2275
g151
I00
S'\x14\xb7\x98P\xcd\x90\xfc?(\xe0\xd7T\xf59\x1d\xc0(\x13\x18\x9dW\x7f\x12@'
p2276
tp2277
bas(g634
g1082
tp2278
(lp2279
g22
(g23
(I0
tp2280
g25
tp2281
Rp2282
(I1
(I3
tp2283
g151
I00
S'\x81\xbcrGD\xb6\xea? \xae\xfb\xbe\xdb\xd2\x1c\xc0\xf7e\x97\x85\x9a3\n@'
p2284
tp2285
bas(g596
g142
tp2286
g436
s(g595
g1082
tp2287
(lp2288
g22
(g23
(I0
tp2289
g25
tp2290
Rp2291
(I1
(I3
tp2292
g151
I00
S'!\x17\xcbN\xb7\xdf\xd8?\x80\xe7J\x0f\xc6<\x1b\xc0\xab\x88Cl\xa3\xf2\xd3?'
p2293
tp2294
bas(g595
g142
tp2295
g352
s(g12
g142
tp2296
g307
s(g593
g142
tp2297
g144
s(g593
g1082
tp2298
(lp2299
g22
(g23
(I0
tp2300
g25
tp2301
Rp2302
(I1
(I3
tp2303
g151
I00
S"[,\x9f\x02Yq\xf8?k,\r\xd8\xefT\x17\xc0\xd1'\xdcf\x85\\\x18@"
p2304
tp2305
bas(g957
g1082
tp2306
(lp2307
g22
(g23
(I0
tp2308
g25
tp2309
Rp2310
(I1
(I3
tp2311
g151
I00
S'\xb4\x18F\x80\x80\xfb\xfc?@tx\xc8o1\x1f\xc0\n\xd6\r\xb4\xbb\x90\x03@'
p2312
tp2313
bas(g12
g1082
tp2314
(lp2315
g22
(g23
(I0
tp2316
g25
tp2317
Rp2318
(I1
(I3
tp2319
g151
I00
S'\x07h\xf2rx\x04\xf1?\xedz\x04W\x03\x8c\x18\xc0\x18\x8d\xb9\x00n\xa7\xfd?'
p2320
tp2321
bas(g592
g1082
tp2322
(lp2323
g22
(g23
(I0
tp2324
g25
tp2325
Rp2326
(I1
(I3
tp2327
g151
I00
S"\xfc\x81N\xbf\xf9\xec\n@\xbd\xe9\xea \x12P\x1b\xc0<\xa1'\xc1h\x97\xfe?"
p2328
tp2329
bas(g592
g142
tp2330
g493
s(g594
g142
tp2331
g397
ssS'parent_binary_predicates'
p2332
(dp2333
sS'nodes'
p2334
(dp2335
g1085
(lp2336
I0
aI0
aI0
aI0
aI0
aI0
aI00
aI01
aI00
aI01
aI00
asg1082
(lp2337
I0
aI0
aI0
aI0
aI0
aI0
aI00
aI01
aI00
aI01
aI00
asg142
(lp2338
I0
aI0
aI0
aI0
aI0
aI0
aI00
aI01
aI01
aI01
aI00
asg254
(lp2339
I0
aI0
aI0
ag1653
(g151
S'N\x12\x90\xb4\xa4\xd4\xc2?'
p2340
tp2341
Rp2342
ag1653
(g151
S'h\x18\xd1Q\xf5\xcf\x1d\xc0'
p2343
tp2344
Rp2345
ag1653
(g151
S'\x7f\x81\xe4w\x91\xfc\xfd?'
p2346
tp2347
Rp2348
aI01
aI00
aI00
aI00
aI00
asg491
(lp2349
I0
aI0
aI0
ag1653
(g151
S'\x14T\x1e\xff\xd2\xfd\x05@'
p2350
tp2351
Rp2352
ag1653
(g151
S'6\x0e\x90\xa8\x91-\x19\xc0'
p2353
tp2354
Rp2355
ag1653
(g151
S"\x7f'\xd4\xebnx\x03@"
p2356
tp2357
Rp2358
aI01
aI00
aI00
aI01
aI00
asg141
(lp2359
I0
aI0
aI0
ag1653
(g151
S'\xd0\xfd\xa3;\nc\x01@'
p2360
tp2361
Rp2362
ag1653
(g151
S'\xff\xa7\x82\xbb\x9f\x00\x18\xc0'
p2363
tp2364
Rp2365
ag1653
(g151
S'\xd7,\x1f\x80r\xe0\xf4?'
p2366
tp2367
Rp2368
aI01
aI00
aI00
aI01
aI00
asg395
(lp2369
I0
aI0
aI0
ag1653
(g151
S'\xd3\\\x13\xb1\x1e\xaa\xc8?'
p2370
tp2371
Rp2372
ag1653
(g151
S'\xb8z\xc7Q80\x19\xc0'
p2373
tp2374
Rp2375
ag1653
(g151
S'??XBG\x9c\x13@'
p2376
tp2377
Rp2378
aI01
aI00
aI00
aI01
aI00
asg350
(lp2379
I0
aI0
aI0
ag1653
(g151
S'g\\\xff\xa76&\xf4?'
p2380
tp2381
Rp2382
ag1653
(g151
S'\xbd\xa9&\x92JS\x1b\xc0'
p2383
tp2384
Rp2385
ag1653
(g151
S'\xa8t#\xf6\x8a\xb3\t@'
p2386
tp2387
Rp2388
aI01
aI00
aI00
aI01
aI00
asg434
(lp2389
I0
aI0
aI0
ag1653
(g151
S'\xba\xb1_\x00$c\x00@'
p2390
tp2391
Rp2392
ag1653
(g151
S'\x8a\xfeycy\x15 \xc0'
p2393
tp2394
Rp2395
ag1653
(g151
S'\x95\x97\xd0\xa4\xcd\xce\x13@'
p2396
tp2397
Rp2398
aI01
aI00
aI00
aI01
aI00
asg305
(lp2399
I0
aI0
aI0
ag1653
(g151
S'\xd8\xc4\x1a\xb0X\xb1\xf1?'
p2400
tp2401
Rp2402
ag1653
(g151
S'\x99\xc4\xb5\xcf\x87\xd2\x15\xc0'
p2403
tp2404
Rp2405
ag1653
(g151
S'y\xf9M\x8e\xbe\x18\x12@'
p2406
tp2407
Rp2408
aI01
aI00
aI01
aI01
aI00
asg191
(lp2409
I0
aI0
aI0
ag1653
(g151
S'\x90\xb7\x80\xc7\x05\xb2\xf1?'
p2410
tp2411
Rp2412
ag1653
(g151
S'\xae\xd4\xa7~|\xef\x1d\xc0'
p2413
tp2414
Rp2415
ag1653
(g151
S"'\xb6=\xb8\x8b\x84\xf8?"
p2416
tp2417
Rp2418
aI01
aI00
aI00
aI00
aI00
assS'mc_place_path'
p2419
(dp2420
sS'parent_state'
p2421
NsS'goal_entities'
p2422
(lp2423
S'square_packing_box1'
p2424
ag142
asS'binary_edges'
p2425
(dp2426
(g350
g191
tp2427
(lp2428
I00
aI00
aI00
as(g350
g254
tp2429
(lp2430
I00
aI01
aI00
as(g141
g434
tp2431
(lp2432
I00
aI00
aI00
as(g141
g141
tp2433
(lp2434
I00
aI00
aI00
as(g491
g434
tp2435
(lp2436
I00
aI00
aI00
as(g491
g141
tp2437
(lp2438
I00
aI00
aI00
as(g191
g491
tp2439
(lp2440
I00
aI00
aI00
as(g350
g305
tp2441
(lp2442
I00
aI00
aI00
as(g395
g141
tp2443
(lp2444
I00
aI00
aI00
as(g254
g254
tp2445
(lp2446
I00
aI00
aI00
as(g491
g1082
tp2447
(lp2448
g1653
(g29
(S'b1'
p2449
I0
I1
tp2450
Rp2451
(I3
S'|'
p2452
NNNI-1
I-1
I0
tp2453
bS'\x01'
p2454
tp2455
Rp2456
aI00
aI01
as(g1085
g1082
tp2457
(lp2458
I00
aI00
aI00
as(g254
g191
tp2459
(lp2460
I00
aI00
aI00
as(g1082
g191
tp2461
(lp2462
I00
aI00
aI00
as(g305
g142
tp2463
(lp2464
I00
aI00
aI00
as(g1085
g491
tp2465
(lp2466
I00
aI00
aI00
as(g491
g191
tp2467
(lp2468
I00
aI01
aI00
as(g141
g1085
tp2469
(lp2470
g2456
aI00
aI00
as(g350
g350
tp2471
(lp2472
I00
aI00
aI00
as(g1082
g350
tp2473
(lp2474
I00
aI00
aI00
as(g434
g491
tp2475
(lp2476
I00
aI00
aI00
as(g491
g142
tp2477
(lp2478
I00
aI00
aI00
as(g395
g434
tp2479
(lp2480
I00
aI00
aI00
as(g254
g395
tp2481
(lp2482
I00
aI00
aI00
as(g305
g305
tp2483
(lp2484
I00
aI00
aI00
as(g491
g1085
tp2485
(lp2486
g2456
aI00
aI00
as(g1082
g491
tp2487
(lp2488
I00
aI00
aI00
as(g1082
g434
tp2489
(lp2490
I00
aI00
aI00
as(g1082
g141
tp2491
(lp2492
I00
aI00
aI00
as(g434
g142
tp2493
(lp2494
I00
aI00
aI00
as(g191
g254
tp2495
(lp2496
I00
aI01
aI00
as(g395
g254
tp2497
(lp2498
I00
aI00
aI00
as(g434
g395
tp2499
(lp2500
I00
aI00
aI00
as(g1082
g254
tp2501
(lp2502
I00
aI00
aI00
as(g1085
g142
tp2503
(lp2504
I00
aI00
aI00
as(g305
g491
tp2505
(lp2506
I00
aI00
aI00
as(g254
g434
tp2507
(lp2508
I00
aI00
aI00
as(g1085
g434
tp2509
(lp2510
I00
aI00
aI00
as(g434
g1085
tp2511
(lp2512
g2456
aI00
aI00
as(g141
g350
tp2513
(lp2514
I00
aI00
aI00
as(g191
g305
tp2515
(lp2516
I00
aI00
aI00
as(g141
g491
tp2517
(lp2518
I00
aI00
aI00
as(g191
g142
tp2519
(lp2520
I00
aI00
aI00
as(g1085
g1085
tp2521
(lp2522
I00
aI00
aI00
as(g434
g254
tp2523
(lp2524
I00
aI01
aI00
as(g305
g350
tp2525
(lp2526
I00
aI00
aI00
as(g142
g305
tp2527
(lp2528
I00
aI00
aI00
as(g395
g1082
tp2529
(lp2530
g2456
aI00
aI01
as(g142
g395
tp2531
(lp2532
I00
aI00
aI00
as(g191
g141
tp2533
(lp2534
I00
aI00
aI00
as(g141
g305
tp2535
(lp2536
I00
aI00
aI00
as(g434
g1082
tp2537
(lp2538
g2456
aI00
aI01
as(g141
g395
tp2539
(lp2540
I00
aI00
aI00
as(g434
g434
tp2541
(lp2542
I00
aI00
aI00
as(g395
g491
tp2543
(lp2544
I00
aI00
aI00
as(g1082
g142
tp2545
(lp2546
I00
aI00
aI00
as(g142
g350
tp2547
(lp2548
I00
aI00
aI00
as(g254
g142
tp2549
(lp2550
I00
aI00
aI00
as(g1085
g395
tp2551
(lp2552
I00
aI00
aI00
as(g142
g191
tp2553
(lp2554
I00
aI00
aI00
as(g141
g191
tp2555
(lp2556
I00
aI00
aI00
as(g395
g1085
tp2557
(lp2558
g2456
aI00
aI00
as(g191
g1082
tp2559
(lp2560
g2456
aI00
aI01
as(g395
g350
tp2561
(lp2562
I00
aI00
aI00
as(g254
g491
tp2563
(lp2564
I00
aI00
aI00
as(g254
g1082
tp2565
(lp2566
g2456
aI00
aI01
as(g142
g141
tp2567
(lp2568
I00
aI00
aI00
as(g1085
g191
tp2569
(lp2570
I00
aI00
aI00
as(g1085
g254
tp2571
(lp2572
I00
aI00
aI00
as(g395
g142
tp2573
(lp2574
I00
aI00
aI00
as(g350
g395
tp2575
(lp2576
I00
aI00
aI00
as(g305
g395
tp2577
(lp2578
I00
aI00
aI00
as(g142
g434
tp2579
(lp2580
I00
aI00
aI00
as(g1082
g1082
tp2581
(lp2582
I00
aI00
aI00
as(g350
g141
tp2583
(lp2584
I00
aI00
aI00
as(g305
g434
tp2585
(lp2586
I00
aI00
aI00
as(g1082
g305
tp2587
(lp2588
I00
aI00
aI00
as(g491
g254
tp2589
(lp2590
I00
aI00
aI00
as(g1082
g395
tp2591
(lp2592
I00
aI00
aI00
as(g305
g1085
tp2593
(lp2594
g2456
aI00
aI00
as(g350
g491
tp2595
(lp2596
I00
aI00
aI00
as(g141
g142
tp2597
(lp2598
I00
aI00
aI00
as(g305
g254
tp2599
(lp2600
I00
aI00
aI00
as(g254
g305
tp2601
(lp2602
I00
aI00
aI00
as(g491
g305
tp2603
(lp2604
I00
aI00
aI00
as(g1085
g350
tp2605
(lp2606
I00
aI00
aI00
as(g491
g395
tp2607
(lp2608
I00
aI00
aI00
as(g434
g350
tp2609
(lp2610
I00
aI00
aI00
as(g350
g1082
tp2611
(lp2612
g2456
aI00
aI01
as(g395
g395
tp2613
(lp2614
I00
aI00
aI00
as(g191
g350
tp2615
(lp2616
I00
aI00
aI00
as(g305
g191
tp2617
(lp2618
I00
aI00
aI00
as(g491
g350
tp2619
(lp2620
I00
aI00
aI00
as(g491
g491
tp2621
(lp2622
I00
aI00
aI00
as(g191
g395
tp2623
(lp2624
I00
aI00
aI00
as(g350
g142
tp2625
(lp2626
I00
aI00
aI00
as(g434
g305
tp2627
(lp2628
I00
aI00
aI00
as(g141
g1082
tp2629
(lp2630
g2456
aI00
aI01
as(g142
g491
tp2631
(lp2632
I00
aI00
aI00
as(g395
g305
tp2633
(lp2634
I00
aI00
aI00
as(g254
g141
tp2635
(lp2636
I00
aI00
aI00
as(g142
g1082
tp2637
(lp2638
I00
aI00
aI00
as(g350
g434
tp2639
(lp2640
I00
aI00
aI00
as(g1085
g141
tp2641
(lp2642
I00
aI00
aI00
as(g350
g1085
tp2643
(lp2644
g2456
aI00
aI00
as(g434
g141
tp2645
(lp2646
I00
aI00
aI00
as(g142
g142
tp2647
(lp2648
I00
aI00
aI00
as(g395
g191
tp2649
(lp2650
I00
aI00
aI00
as(g254
g1085
tp2651
(lp2652
g2456
aI00
aI00
as(g191
g1085
tp2653
(lp2654
g2456
aI00
aI00
as(g142
g1085
tp2655
(lp2656
I00
aI00
aI00
as(g142
g254
tp2657
(lp2658
I00
aI00
aI00
as(g434
g191
tp2659
(lp2660
I00
aI01
aI00
as(g191
g434
tp2661
(lp2662
I00
aI00
aI00
as(g141
g254
tp2663
(lp2664
I00
aI00
aI00
as(g1082
g1085
tp2665
(lp2666
I00
aI00
aI00
as(g305
g141
tp2667
(lp2668
I00
aI00
aI00
as(g254
g350
tp2669
(lp2670
I00
aI00
aI00
as(g191
g191
tp2671
(lp2672
I00
aI00
aI00
as(g305
g1082
tp2673
(lp2674
g2456
aI00
aI01
as(g1085
g305
tp2675
(lp2676
I00
aI00
aI00
assg590
g591
sS'pick_in_way'
p2677
(itrajectory_representation.predicates.pick_in_way
PickInWay
p2678
(dp2679
g139
(dp2680
g254
g675
sg491
g718
sg141
g767
sg395
g804
sg350
g853
sg434
g908
sg305
g938
sg191
g988
ssg554
(dp2681
g254
(lp2682
Vsquare_packing_box3
p2683
aVsquare_packing_box4
p2684
aVsquare_packing_box2
p2685
asg491
(lp2686
sg141
(lp2687
sg395
(lp2688
sg350
(lp2689
sg434
(lp2690
sg305
(lp2691
sg191
(lp2692
Vrectangular_packing_box2
p2693
aVsquare_packing_box3
p2694
assg590
(lp2695
g395
ag350
ag491
ag434
ag141
ag1085
ag142
ag1082
ag305
ag1085
ag142
ag1082
ag1085
ag142
ag1082
ag1085
ag142
ag1082
ag1085
ag142
ag1082
ag1085
ag142
ag1082
ag1085
ag142
ag1082
ag1085
ag142
ag1082
asg597
g598
sg78
(dp2696
sg632
g633
sg1009
Nsg1016
g633
sg1013
(dp2697
sg1015
I8
sg1077
I01
sg1017
Nsg1018
(dp2698
(g350
g191
tp2699
I00
s(g350
g254
tp2700
I01
s(g141
g434
tp2701
I00
s(g141
g141
tp2702
I00
s(g491
g434
tp2703
I00
s(g491
g141
tp2704
I00
s(g191
g491
tp2705
I00
s(g350
g305
tp2706
I00
s(g395
g141
tp2707
I00
s(g254
g254
tp2708
I00
s(g491
g1082
tp2709
I00
s(g1085
g1082
tp2710
I00
s(g254
g191
tp2711
I00
s(g1082
g191
tp2712
I00
s(g305
g142
tp2713
I00
s(g1085
g491
tp2714
I00
s(g491
g191
tp2715
I01
s(g141
g1085
tp2716
I00
s(g350
g350
tp2717
I00
s(g1082
g350
tp2718
I00
s(g434
g491
tp2719
I00
s(g491
g142
tp2720
I00
s(g395
g434
tp2721
I00
s(g254
g395
tp2722
I00
s(g305
g305
tp2723
I00
s(g491
g1085
tp2724
I00
s(g1082
g491
tp2725
I00
s(g1082
g434
tp2726
I00
s(g1082
g141
tp2727
I00
s(g434
g142
tp2728
I00
s(g191
g254
tp2729
I01
s(g395
g254
tp2730
I00
s(g434
g395
tp2731
I00
s(g1082
g254
tp2732
I00
s(g1085
g142
tp2733
I00
s(g305
g491
tp2734
I00
s(g254
g434
tp2735
I00
s(g1085
g434
tp2736
I00
s(g434
g1085
tp2737
I00
s(g141
g350
tp2738
I00
s(g191
g305
tp2739
I00
s(g141
g491
tp2740
I00
s(g191
g142
tp2741
I00
s(g1085
g1085
tp2742
I00
s(g434
g254
tp2743
I01
s(g305
g350
tp2744
I00
s(g142
g305
tp2745
I00
s(g395
g1082
tp2746
I00
s(g142
g395
tp2747
I00
s(g191
g141
tp2748
I00
s(g141
g305
tp2749
I00
s(g434
g1082
tp2750
I00
s(g141
g395
tp2751
I00
s(g434
g434
tp2752
I00
s(g395
g491
tp2753
I00
s(g1082
g142
tp2754
I00
s(g142
g350
tp2755
I00
s(g254
g142
tp2756
I00
s(g1085
g395
tp2757
I00
s(g142
g191
tp2758
I00
s(g141
g191
tp2759
I00
s(g395
g1085
tp2760
I00
s(g191
g1082
tp2761
I00
s(g395
g350
tp2762
I00
s(g254
g491
tp2763
I00
s(g254
g1082
tp2764
I00
s(g142
g141
tp2765
I00
s(g1085
g191
tp2766
I00
s(g1085
g254
tp2767
I00
s(g395
g142
tp2768
I00
s(g350
g395
tp2769
I00
s(g305
g395
tp2770
I00
s(g142
g434
tp2771
I00
s(g1082
g1082
tp2772
I00
s(g350
g141
tp2773
I00
s(g305
g434
tp2774
I00
s(g1082
g305
tp2775
I00
s(g491
g254
tp2776
I00
s(g1082
g395
tp2777
I00
s(g305
g1085
tp2778
I00
s(g350
g491
tp2779
I00
s(g141
g142
tp2780
I00
s(g305
g254
tp2781
I00
s(g254
g305
tp2782
I00
s(g491
g305
tp2783
I00
s(g1085
g350
tp2784
I00
s(g491
g395
tp2785
I00
s(g434
g350
tp2786
I00
s(g350
g1082
tp2787
I00
s(g395
g395
tp2788
I00
s(g191
g350
tp2789
I00
s(g305
g191
tp2790
I00
s(g491
g350
tp2791
I00
s(g491
g491
tp2792
I00
s(g191
g395
tp2793
I00
s(g350
g142
tp2794
I00
s(g434
g305
tp2795
I00
s(g141
g1082
tp2796
I00
s(g142
g491
tp2797
I00
s(g395
g305
tp2798
I00
s(g254
g141
tp2799
I00
s(g142
g1082
tp2800
I00
s(g350
g434
tp2801
I00
s(g1085
g141
tp2802
I00
s(g350
g1085
tp2803
I00
s(g434
g141
tp2804
I00
s(g142
g142
tp2805
I00
s(g395
g191
tp2806
I00
s(g254
g1085
tp2807
I00
s(g191
g1085
tp2808
I00
s(g142
g1085
tp2809
I00
s(g142
g254
tp2810
I00
s(g434
g191
tp2811
I01
s(g191
g434
tp2812
I00
s(g141
g254
tp2813
I00
s(g1082
g1085
tp2814
I00
s(g305
g141
tp2815
I00
s(g254
g350
tp2816
I00
s(g191
g191
tp2817
I00
s(g305
g1082
tp2818
I00
s(g1085
g305
tp2819
I00
ssg1076
NsbsS'robot_pose'
p2820
g22
(g23
(I0
tp2821
g25
tp2822
Rp2823
(I1
(I1
I3
tp2824
g151
I00
S'u\x8b\x1d\xbdAr\x03@QN7\x7f\xa5\x93\x1c\xc0\xc7Q\x00~\xb6\xce\xf2?'
p2825
tp2826
bsS'is_holding_goal_entity'
p2827
(itrajectory_representation.predicates.is_holding_goal_entity
IsHoldingGoalEntity
p2828
(dp2829
g2422
g2423
sg1017
NsbsS'mc_pick_path'
p2830
(dp2831
sS'current_collides'
p2832
g598
sbasS'seed'
p2833
NsS'state_prime'
p2834
(lp2835
sS'problem_idx'
p2836
I147
sb.