(itrajectory_representation.trajectory
Trajectory
p0
(dp1
S'rewards'
p2
(lp3
I10
asS'actions'
p4
(lp5
(itrajectory_representation.operator
Operator
p6
(dp7
S'is_skeleton'
p8
I00
sS'discrete_parameters'
p9
(dp10
S'object'
p11
Vsquare_packing_box1
p12
sS'two_arm_place_region'
p13
S'home_region'
p14
sS'two_arm_place_object'
p15
Vsquare_packing_box1
p16
ssS'type'
p17
S'two_arm_pick_two_arm_place'
p18
sS'continuous_parameters'
p19
(dp20
S'q_goal'
p21
cnumpy.core.multiarray
_reconstruct
p22
(cnumpy
ndarray
p23
(I0
tp24
S'b'
p25
tp26
Rp27
(I1
(I3
tp28
cnumpy
dtype
p29
(S'f8'
p30
I0
I1
tp31
Rp32
(I3
S'<'
p33
NNNI-1
I-1
I0
tp34
bI00
S'\xa0\xdbH\x1d\xedd\x00@\xe9>\xd8p_#\x18\xc0\xf0\x96\x108\x15\xb5\x04@'
p35
tp36
bsS'place'
p37
(dp38
g21
g22
(g23
(I0
tp39
g25
tp40
Rp41
(I1
(I3
tp42
g32
I00
S'\xb4\xff\xb8N\xf2\xea\xe1?\x00h\\\x84\xaa\x82\x02\xc0\xd9I\xf6x\xffN\x07@'
p43
tp44
bssS'pick'
p45
(dp46
g21
g27
sssS'low_level_motion'
p47
(lp48
g22
(g23
(I0
tp49
g25
tp50
Rp51
(I1
(I3
tp52
g32
I00
S'\x19+\xdc!xj\x0b@\x99\x1a\xfb\xf0\xab\xac\x16\xc02\\\xba\xb5H,\xee?'
p53
tp54
bag22
(g23
(I0
tp55
g25
tp56
Rp57
(I1
(I3
tp58
g29
(S'f8'
p59
I0
I1
tp60
Rp61
(I3
S'<'
p62
NNNI-1
I-1
I0
tp63
bI00
S'\x00\xaa\xc9.!g\t@\x8d6\x8e\x15\x9c\xb2\x17\xc0"\xda\xa0\x8dBb\xe0?'
p64
tp65
bag22
(g23
(I0
tp66
g25
tp67
Rp68
(I1
(I3
tp69
g61
I00
S'\xf8d\x877\x12\xfd\x04@h\xdbW\x9a\x83\x8e\x16\xc0\x87\xf16\xb9\x03k\x05@'
p70
tp71
bag27
ag27
asbasS'filename'
p72
S''
p73
sS'states'
p74
(lp75
(itrajectory_representation.shortest_path_pick_and_place_state
ShortestPathPaPState
p76
(dp77
S'place_used'
p78
(dp79
(g16
g14
tp80
(itrajectory_representation.operator
Operator
p81
(dp82
g8
I01
sg9
(dp83
S'region'
p84
g14
sg11
g16
ssg17
S'two_arm_place'
p85
sg19
(dp86
g21
g22
(g23
(I0
tp87
g25
tp88
Rp89
(I1
(I3
tp90
g32
I00
S'\xb4\xff\xb8N\xf2\xea\xe1?\x00h\\\x84\xaa\x82\x02\xc0\xd9I\xf6x\xffN\x07@'
p91
tp92
bssg47
(lp93
g22
(g23
(I0
tp94
g25
tp95
Rp96
(I1
(I3
tp97
g32
I00
S'\xa6\xdbH\x1d\xedd\x00@\xde>\xd8p_#\x18\xc0\xf1\x96\x108\x15\xb5\x04@'
p98
tp99
bag22
(g23
(I0
tp100
g25
tp101
Rp102
(I1
(I3
tp103
g61
I00
S'_\x1fd\x97D>\x00@W\xf2\x9b\xb2\x92\xd8\x15\xc0\x99\xbc\xd43\xf6\xfa\x08\xc0'
p104
tp105
bag22
(g23
(I0
tp106
g25
tp107
Rp108
(I1
(I3
tp109
g61
I00
S'R\x12);\xaf\xa5\xf7?\xf3\xf9\xeb\x07c\xef\x15\xc0\xf0V^\xd6\x94\x96\x05\xc0'
p110
tp111
bag22
(g23
(I0
tp112
g25
tp113
Rp114
(I1
(I3
tp115
g61
I00
S'K\x19\xdd\x9a\xe6\xce\xe9?\xe1\x08\xb9\xe6+\xc9\x15\xc0\xeeN\x0e\xdd1/\x08\xc0'
p116
tp117
bag22
(g23
(I0
tp118
g25
tp119
Rp120
(I1
(I3
tp121
g61
I00
S'\x16nfXE \xf2?\x06\xf1|#c\xe6\x12\xc08\x98\x8f,\xc1@\x04\xc0'
p122
tp123
bag22
(g23
(I0
tp124
g25
tp125
Rp126
(I1
(I3
tp127
g61
I00
S"\xaeJ\xbd\x1936\xec?\x04\x13\xd4'\x9f\x88\x10\xc0\x805qo\xb6\xe6\xff\xbf"
p128
tp129
bag22
(g23
(I0
tp130
g25
tp131
Rp132
(I1
(I3
tp133
g61
I00
S'\xceT\x9e/\xb5f\xd8?VQ\xf7\xbeD\xed\x0c\xc0:\xc1\x11<R\xda\xfb\xbf'
p134
tp135
bag22
(g23
(I0
tp136
g25
tp137
Rp138
(I1
(I3
tp139
g61
I00
S'\xe9\xca\xa9P\xc7p\xea?\x95\x90<\xe4\xba+\x08\xc0)\x87n\x0cR\xb7\x04\xc0'
p140
tp141
bag89
ag89
asbssS'place_in_way'
p142
(itrajectory_representation.predicates.place_in_way
PlaceInWay
p143
(dp144
S'mc_path_to_entity'
p145
(dp146
(Vrectangular_packing_box3
p147
S'home_region'
p148
tp149
(lp150
g22
(g23
(I0
tp151
g25
tp152
Rp153
(I1
(I3
tp154
g29
(S'f8'
p155
I0
I1
tp156
Rp157
(I3
S'<'
p158
NNNI-1
I-1
I0
tp159
bI00
S'\xc8\xa77rc\xd2\x01@\x80\xde`\xa4^I\x1f\xc0\xf0u\xd7R\xb6\x89\x00@'
p160
tp161
bag22
(g23
(I0
tp162
g25
tp163
Rp164
(I1
(I3
tp165
g29
(S'f8'
p166
I0
I1
tp167
Rp168
(I3
S'<'
p169
NNNI-1
I-1
I0
tp170
bI00
S'>\xc0\x12$\xd1\xa3\x02@L\xfb\xe9\xe8\x00\xfd\x1c\xc0\x1dL8%\x1b\x13\x04@'
p171
tp172
bag22
(g23
(I0
tp173
g25
tp174
Rp175
(I1
(I3
tp176
g168
I00
S'zNu~${\xfb?c\xfe\x8c\xbf\x1f\xab\x1b\xc0\x9b\xbb\x05m\x02\x02\x07@'
p177
tp178
bag22
(g23
(I0
tp179
g25
tp180
Rp181
(I1
(I3
tp182
g168
I00
S'{\xe7\xcc\xce\x02,\xf5?\xeb\x85\xf2\xb4\xc9\x08\x19\xc0\xcd\x97\xf6\xcc\xe4z\x00@'
p183
tp184
bag22
(g23
(I0
tp185
g25
tp186
Rp187
(I1
(I3
tp188
g168
I00
S'o\xd6\x82\xea\x7f\xb2\xed?9\xf2C\x0b?\xfd\x16\xc0(?d\xe9@\xb5\x02@'
p189
tp190
bag22
(g23
(I0
tp191
g25
tp192
Rp193
(I1
(I3
tp194
g168
I00
S'&>c9\x01,\xeb?\xb2\xc2\xf0\x02\xce\x8e\x14\xc0\xd8p\xbb2\x14\xd2\x03@'
p195
tp196
bag22
(g23
(I0
tp197
g25
tp198
Rp199
(I1
(I3
tp200
g168
I00
S'\xc6\x05\xbdtg\xd9\xe2?F\xdf\x9d@\\\xf3\x11\xc0\x1a\xc4.\xbb\xcc\x12\x02@'
p201
tp202
bag22
(g23
(I0
tp203
g25
tp204
Rp205
(I1
(I3
tp206
g168
I00
S'3z\xed\x8eN)\xe4?\x0c\x96\xd4\xa2\x0e\xd0\r\xc0\xbd%\xf5{\xe9\xf9\x03@'
p207
tp208
bag22
(g23
(I0
tp209
g25
tp210
Rp211
(I1
(I3
tp212
g168
I00
S'\xaf0\xe9h\xba~\xee?k\xbb\xd8\xd4\xd0g\t\xc09\x9ey\xed\xb06\x06@'
p213
tp214
bag22
(g23
(I0
tp215
g25
tp216
Rp217
(I1
(I3
tp218
g168
I00
S'\xf4\xfdJ\x1a(#\xec?H"\x9cD\x1aE\x05\xc0.\xa9\x0b\x87\xf8\xe1\x02@'
p219
tp220
bas(Vsquare_packing_box4
p221
g148
tp222
(lp223
g22
(g23
(I0
tp224
g25
tp225
Rp226
(I1
(I3
tp227
g157
I00
S'`\xca\x0f;\x04\xfc\xba\xbf\xae\x17\x12\x14\xafw\x1d\xc0\x99\x85\x02\xba\x8c\xfd\xec?'
p228
tp229
bag22
(g23
(I0
tp230
g25
tp231
Rp232
(I1
(I3
tp233
g168
I00
S'X\x9b\x8c[e\xe8\xdb?\xdc\xc11jk\x8b\x1b\xc0\xfe\x18\xeb6\xf7\x88\xc3?'
p234
tp235
bag22
(g23
(I0
tp236
g25
tp237
Rp238
(I1
(I3
tp239
g168
I00
S'\xa6\xc4l\x8d\x92\xcc\xe5?\x10\xc7\xe9C\x0b\xd8\x18\xc0@\xb9\xa4\xa6\xc5\xc5\x8e\xbf'
p240
tp241
bag22
(g23
(I0
tp242
g25
tp243
Rp244
(I1
(I3
tp245
g168
I00
S'\xd8\x87\x03p)T\xe4?\xd5\xabI\xb7V\xd0\x15\xc0vWg\x9a\x87\x8a\xec?'
p246
tp247
bag22
(g23
(I0
tp248
g25
tp249
Rp250
(I1
(I3
tp251
g168
I00
S'\xa9\xd9\x1d\x8d\xa6j\xdf?\xa0\x85\x1a\x84\xc6\xec\x12\xc0\x01\xb6 H\xb1\x91\xeb?'
p252
tp253
bag22
(g23
(I0
tp254
g25
tp255
Rp256
(I1
(I3
tp257
g168
I00
S'\x93k\xbc\xee\xc2\x10\xe8?\xab^\x86?\x08D\x10\xc0\x10;2\x00\xe5\t\xde?'
p258
tp259
bag22
(g23
(I0
tp260
g25
tp261
Rp262
(I1
(I3
tp263
g168
I00
S'\xef\xc3u*\xfb\xdb\xeb?\x8d\xa5\n\xfd\x03<\n\xc0\xd8\xfb\xde\x16R\xac\xde?'
p264
tp265
bag22
(g23
(I0
tp266
g25
tp267
Rp268
(I1
(I3
tp269
g168
I00
S'\xf4\xfdJ\x1a(#\xec?H"\x9cD\x1aE\x05\xc0.\xa9\x0b\x87\xf8\xe1\x02@'
p270
tp271
bas(Vrectangular_packing_box4
p272
g148
tp273
(lp274
g22
(g23
(I0
tp275
g25
tp276
Rp277
(I1
(I3
tp278
g157
I00
S'\xe4"\xc9\x14\xb2\xe9\xe8?\xfc<\xc2\x83\x82Q\x18\xc0\xc9\xf8\xac5\x15\x1d\x0c@'
p279
tp280
bag22
(g23
(I0
tp281
g25
tp282
Rp283
(I1
(I3
tp284
g168
I00
S'K\x19\xdd\x9a\xe6\xce\xe9?\xe1\x08\xb9\xe6+\xc9\x15\xc0\xeeN\x0e\xdd1/\x08\xc0'
p285
tp286
bag22
(g23
(I0
tp287
g25
tp288
Rp289
(I1
(I3
tp290
g168
I00
S'\x16nfXE \xf2?\x06\xf1|#c\xe6\x12\xc08\x98\x8f,\xc1@\x04\xc0'
p291
tp292
bag22
(g23
(I0
tp293
g25
tp294
Rp295
(I1
(I3
tp296
g168
I00
S'\xc1E\xbb\x1b\xed\x13\xf3?\xca\xdcw\xec\x1a\x18\x10\xc0j\xed\xec2j\x8c\x04\xc0'
p297
tp298
bag22
(g23
(I0
tp299
g25
tp300
Rp301
(I1
(I3
tp302
g168
I00
S'\xf09\xb6\x1c*\x86\xee?\xc4\n/\x96\xcb\xe3\n\xc0\xa0\xc9\xd6F6\x0f\x00\xc0'
p303
tp304
bag22
(g23
(I0
tp305
g25
tp306
Rp307
(I1
(I3
tp308
g168
I00
S'3\xe9\xaf\x05T\x89\xe7?+~\xcb\xd3\x15\xc7\x04\xc0x6(d5\xed\x07@'
p309
tp310
bas(Vsquare_packing_box1
p311
g148
tp312
(lp313
g22
(g23
(I0
tp314
g25
tp315
Rp316
(I1
(I3
tp317
g157
I00
S'\xa0\xdbH\x1d\xedd\x00@\xeb>\xd8p_#\x18\xc0\xf0\x96\x108\x15\xb5\x04@'
p318
tp319
bag22
(g23
(I0
tp320
g25
tp321
Rp322
(I1
(I3
tp323
g168
I00
S'\x84\xa2s4\xa1\xd0\xf6?E=|\xb9\xcam\x17\xc0\xa93^V\xfc\xed\x05@'
p324
tp325
bag22
(g23
(I0
tp326
g25
tp327
Rp328
(I1
(I3
tp329
g168
I00
S'f\xb4\x9c\x07\xac\xbf\xec?n\x96\x96\x9e\x90n\x16\xc0uo!\xa9\x9b\x82\x07@'
p330
tp331
bag22
(g23
(I0
tp332
g25
tp333
Rp334
(I1
(I3
tp335
g168
I00
S'm\xd5h\x072\x03\xea?\xdf\xe5\xe82\xd3\x17\x14\xc0\x08\x9e\xe1\xfbO\x94\x08@'
p336
tp337
bag22
(g23
(I0
tp338
g25
tp339
Rp340
(I1
(I3
tp341
g168
I00
S'\xc6\x05\xbdtg\xd9\xe2?F\xdf\x9d@\\\xf3\x11\xc0\x1a\xc4.\xbb\xcc\x12\x02@'
p342
tp343
bag22
(g23
(I0
tp344
g25
tp345
Rp346
(I1
(I3
tp347
g168
I00
S'3z\xed\x8eN)\xe4?\x0c\x96\xd4\xa2\x0e\xd0\r\xc0\xbd%\xf5{\xe9\xf9\x03@'
p348
tp349
bag22
(g23
(I0
tp350
g25
tp351
Rp352
(I1
(I3
tp353
g168
I00
S'\xaf0\xe9h\xba~\xee?k\xbb\xd8\xd4\xd0g\t\xc09\x9ey\xed\xb06\x06@'
p354
tp355
bag22
(g23
(I0
tp356
g25
tp357
Rp358
(I1
(I3
tp359
g168
I00
S'\xf4\xfdJ\x1a(#\xec?H"\x9cD\x1aE\x05\xc0.\xa9\x0b\x87\xf8\xe1\x02@'
p360
tp361
bas(Vsquare_packing_box2
p362
g148
tp363
(lp364
g22
(g23
(I0
tp365
g25
tp366
Rp367
(I1
(I3
tp368
g157
I00
S'\x84\xcb1\x82\x1dy\x06@l\xd2k\x1f\x1c\x0e \xc0]\xf2\xe7\x10O\\\x08@'
p369
tp370
bag22
(g23
(I0
tp371
g25
tp372
Rp373
(I1
(I3
tp374
g168
I00
S'~\xb5g\xe2\xce"\x06@\xde\xf4\xbc@Ne\x1d\xc0\xca\x97\xa7\xf7\x9d\x1e\n@'
p375
tp376
bag22
(g23
(I0
tp377
g25
tp378
Rp379
(I1
(I3
tp380
g168
I00
S"'DJ\xaet\xe5\x02@&#\x93\x97\x82\xb8\x1b\xc0\xdbM\xcc\xf6#.\x08@"
p381
tp382
bag22
(g23
(I0
tp383
g25
tp384
Rp385
(I1
(I3
tp386
g168
I00
S'zNu~${\xfb?c\xfe\x8c\xbf\x1f\xab\x1b\xc0\x9b\xbb\x05m\x02\x02\x07@'
p387
tp388
bag22
(g23
(I0
tp389
g25
tp390
Rp391
(I1
(I3
tp392
g168
I00
S'{\xe7\xcc\xce\x02,\xf5?\xeb\x85\xf2\xb4\xc9\x08\x19\xc0\xcd\x97\xf6\xcc\xe4z\x00@'
p393
tp394
bag22
(g23
(I0
tp395
g25
tp396
Rp397
(I1
(I3
tp398
g168
I00
S'o\xd6\x82\xea\x7f\xb2\xed?9\xf2C\x0b?\xfd\x16\xc0(?d\xe9@\xb5\x02@'
p399
tp400
bag22
(g23
(I0
tp401
g25
tp402
Rp403
(I1
(I3
tp404
g168
I00
S'm\xd5h\x072\x03\xea?\xdf\xe5\xe82\xd3\x17\x14\xc0\x08\x9e\xe1\xfbO\x94\x08@'
p405
tp406
bag22
(g23
(I0
tp407
g25
tp408
Rp409
(I1
(I3
tp410
g168
I00
S'\xc6\x05\xbdtg\xd9\xe2?F\xdf\x9d@\\\xf3\x11\xc0\x1a\xc4.\xbb\xcc\x12\x02@'
p411
tp412
bag22
(g23
(I0
tp413
g25
tp414
Rp415
(I1
(I3
tp416
g168
I00
S'3z\xed\x8eN)\xe4?\x0c\x96\xd4\xa2\x0e\xd0\r\xc0\xbd%\xf5{\xe9\xf9\x03@'
p417
tp418
bag22
(g23
(I0
tp419
g25
tp420
Rp421
(I1
(I3
tp422
g168
I00
S'\xaf0\xe9h\xba~\xee?k\xbb\xd8\xd4\xd0g\t\xc09\x9ey\xed\xb06\x06@'
p423
tp424
bag22
(g23
(I0
tp425
g25
tp426
Rp427
(I1
(I3
tp428
g168
I00
S'\xf4\xfdJ\x1a(#\xec?H"\x9cD\x1aE\x05\xc0.\xa9\x0b\x87\xf8\xe1\x02@'
p429
tp430
bas(Vrectangular_packing_box1
p431
g148
tp432
(lp433
g22
(g23
(I0
tp434
g25
tp435
Rp436
(I1
(I3
tp437
g157
I00
S'h+9\xf3\xcd\x8a\x07@`,\xce\x01a\x85\x1c\xc0f6\xa0\xc3?K\x13@'
p438
tp439
bag22
(g23
(I0
tp440
g25
tp441
Rp442
(I1
(I3
tp443
g168
I00
S'/\x08\xfbO\x0f\xe3\x04@j\xb9\xdeR\x8bv\x1a\xc0Nw\xbd\xbe\xd2\x01\xfd\xbf'
p444
tp445
bag22
(g23
(I0
tp446
g25
tp447
Rp448
(I1
(I3
tp449
g168
I00
S'2]\x933g}\x00@\xebx\x00&R!\x1b\xc0\xce\x170ZD}\x00\xc0'
p450
tp451
bag22
(g23
(I0
tp452
g25
tp453
Rp454
(I1
(I3
tp455
g168
I00
S'4#\xe8i\x80D\xf8?\xdd\x1dlTl\\\x19\xc0m\xc1\x1a\xec\xde\x01\x01\xc0'
p456
tp457
bag22
(g23
(I0
tp458
g25
tp459
Rp460
(I1
(I3
tp461
g168
I00
S'\x9f5<Q\xb2\xb3\xf7?\xb3\xd6LI,\xe8\x16\xc0\xc2\x13\xbbtu\x87\x00\xc0'
p462
tp463
bag22
(g23
(I0
tp464
g25
tp465
Rp466
(I1
(I3
tp467
g168
I00
S'\xd0\xcb\x13\x8f\xaa\x9d\xed?\x90\x01<]3\x06\x16\xc0F\xf1\xe7x32\x02\xc0'
p468
tp469
bag22
(g23
(I0
tp470
g25
tp471
Rp472
(I1
(I3
tp473
g168
I00
S'l[\xc4\x16<\xe6\xe9?\xa6\xa0\x90\x84X\x9f\x13\xc0\xc2\xd74Q\x00\xaf\xff\xbf'
p474
tp475
bag22
(g23
(I0
tp476
g25
tp477
Rp478
(I1
(I3
tp479
g168
I00
S"\xaeJ\xbd\x1936\xec?\x04\x13\xd4'\x9f\x88\x10\xc0\x805qo\xb6\xe6\xff\xbf"
p480
tp481
bag22
(g23
(I0
tp482
g25
tp483
Rp484
(I1
(I3
tp485
g168
I00
S'\xf09\xb6\x1c*\x86\xee?\xc4\n/\x96\xcb\xe3\n\xc0\xa0\xc9\xd6F6\x0f\x00\xc0'
p486
tp487
bag22
(g23
(I0
tp488
g25
tp489
Rp490
(I1
(I3
tp491
g168
I00
S'3\xe9\xaf\x05T\x89\xe7?+~\xcb\xd3\x15\xc7\x04\xc0x6(d5\xed\x07@'
p492
tp493
bas(Vsquare_packing_box3
p494
g148
tp495
(lp496
g22
(g23
(I0
tp497
g25
tp498
Rp499
(I1
(I3
tp500
g157
I00
S'\x1e\x92\xdb\x89\x91\xf2\xe1?\xb3A;\x8d\xb7\x84\x1b\xc0Y\x00\xea\xba\xde<\xe5?'
p501
tp502
bag22
(g23
(I0
tp503
g25
tp504
Rp505
(I1
(I3
tp506
g168
I00
S'\xa6\xc4l\x8d\x92\xcc\xe5?\x10\xc7\xe9C\x0b\xd8\x18\xc0@\xb9\xa4\xa6\xc5\xc5\x8e\xbf'
p507
tp508
bag22
(g23
(I0
tp509
g25
tp510
Rp511
(I1
(I3
tp512
g168
I00
S'\xbc\xcaD\xb3\xa5\xd0\xda?5\x9e\xd8L\xbc\xff\x15\xc0\x86v/\xef\x06;\xe9\xbf'
p513
tp514
bag22
(g23
(I0
tp515
g25
tp516
Rp517
(I1
(I3
tp518
g168
I00
S"\xb2&6mg)\xe8?\x99\xe0G'\x16\xe0\x13\xc0\xc8oL\xf5\x17p\xe6\xbf"
p519
tp520
bag22
(g23
(I0
tp521
g25
tp522
Rp523
(I1
(I3
tp524
g168
I00
S'`\xc8Aw-\x81\xeb?/\xc3\xe6O\x04\xca\x10\xc0\x8a\xb7K)\x91{\xe4\xbf'
p525
tp526
bag22
(g23
(I0
tp527
g25
tp528
Rp529
(I1
(I3
tp530
g168
I00
S'\xe1\xc6\xc7\xa7\x12X\xe7?\x98\x99\xb0\x9a\xfb\xdb\x0b\xc0R\t\x1b)\xeae\xe0\xbf'
p531
tp532
bag22
(g23
(I0
tp533
g25
tp534
Rp535
(I1
(I3
tp536
g168
I00
S'p\xf1\xbdc^\x84\xf1?"\x88LL\xf9D\x06\xc0~w\r\xe9m\x0f\x19@'
p537
tp538
bas(Vrectangular_packing_box2
p539
g148
tp540
(lp541
g22
(g23
(I0
tp542
g25
tp543
Rp544
(I1
(I3
tp545
g157
I00
S'\xa8\x01VvjU\xe1?\xa1zQ\xef\xb17\x1b\xc0\xf4@\xf4\x87\x84]\x11@'
p546
tp547
bag22
(g23
(I0
tp548
g25
tp549
Rp550
(I1
(I3
tp551
g168
I00
S"\xc6'8AN\xb0\xec?\xe0\x975>\x0f\x03\x19\xc0(\xe0e;\x85\x89\x05\xc0"
p552
tp553
bag22
(g23
(I0
tp554
g25
tp555
Rp556
(I1
(I3
tp557
g168
I00
S'\xd0\xcb\x13\x8f\xaa\x9d\xed?\x90\x01<]3\x06\x16\xc0F\xf1\xe7x32\x02\xc0'
p558
tp559
bag22
(g23
(I0
tp560
g25
tp561
Rp562
(I1
(I3
tp563
g168
I00
S'l[\xc4\x16<\xe6\xe9?\xa6\xa0\x90\x84X\x9f\x13\xc0\xc2\xd74Q\x00\xaf\xff\xbf'
p564
tp565
bag22
(g23
(I0
tp566
g25
tp567
Rp568
(I1
(I3
tp569
g168
I00
S"\xaeJ\xbd\x1936\xec?\x04\x13\xd4'\x9f\x88\x10\xc0\x805qo\xb6\xe6\xff\xbf"
p570
tp571
bag22
(g23
(I0
tp572
g25
tp573
Rp574
(I1
(I3
tp575
g168
I00
S'\xf09\xb6\x1c*\x86\xee?\xc4\n/\x96\xcb\xe3\n\xc0\xa0\xc9\xd6F6\x0f\x00\xc0'
p576
tp577
bag22
(g23
(I0
tp578
g25
tp579
Rp580
(I1
(I3
tp581
g168
I00
S'3\xe9\xaf\x05T\x89\xe7?+~\xcb\xd3\x15\xc7\x04\xc0x6(d5\xed\x07@'
p582
tp583
bassS'mc_to_entity'
p584
(dp585
(g147
g148
tp586
(lp587
Vsquare_packing_box2
p588
aVsquare_packing_box3
p589
aVsquare_packing_box1
p590
as(g221
g148
tp591
(lp592
Vrectangular_packing_box2
p593
aVsquare_packing_box3
p594
as(g272
g148
tp595
(lp596
Vsquare_packing_box3
p597
as(g311
g148
tp598
(lp599
Vsquare_packing_box3
p600
as(g362
g148
tp601
(lp602
Vrectangular_packing_box1
p603
aVrectangular_packing_box3
p604
aVsquare_packing_box3
p605
aVsquare_packing_box1
p606
as(g431
g148
tp607
(lp608
Vsquare_packing_box2
p609
aVrectangular_packing_box3
p610
aVsquare_packing_box1
p611
aVsquare_packing_box3
p612
aVrectangular_packing_box4
p613
as(g494
g148
tp614
(lp615
Vsquare_packing_box4
p616
aVsquare_packing_box1
p617
as(g539
g148
tp618
(lp619
Vsquare_packing_box4
p620
aVsquare_packing_box3
p621
aVrectangular_packing_box4
p622
assS'reachable_entities'
p623
(lp624
Vrectangular_packing_box1
p625
ag12
asS'collides'
p626
(dp627
Vrectangular_packing_box4
p628
c__builtin__
set
p629
((lp630
I6
aI7
aI521
aI138
aI139
aI275
aI276
aI152
aI153
aI154
aI155
aI157
aI417
aI547
aI165
aI166
aI424
aI553
aI196
aI198
aI518
aI338
aI349
aI350
aI351
aI362
aI491
aI503
aI249
aI383
atp631
Rp632
sVrectangular_packing_box2
p633
g629
((lp634
I384
aI257
aI134
aI265
aI394
aI532
aI580
aI155
aI157
aI158
aI163
aI164
aI165
aI433
aI575
aI452
aI197
aI583
aI328
aI458
aI589
aI338
aI83
aI478
aI356
aI229
aI518
aI502
atp635
Rp636
sVrectangular_packing_box3
p637
g629
((lp638
I256
aI514
aI262
aI263
aI392
aI145
aI146
aI407
aI538
aI413
aI543
aI36
aI422
aI556
aI429
aI176
aI443
aI444
aI64
aI65
aI66
aI67
aI69
aI205
aI79
aI80
aI81
aI215
aI463
aI92
aI464
aI358
aI230
aI593
aI240
aI374
aI120
aI505
aI123
aI124
atp639
Rp640
sVrectangular_packing_box1
p641
g629
((lp642
I513
aI386
aI387
aI260
aI269
aI436
aI565
aI440
aI572
aI573
aI193
aI68
aI337
aI339
aI340
aI213
aI479
aI354
aI613
aI617
aI111
aI112
aI113
aI211
aI117
aI375
aI212
aI254
atp643
Rp644
sVsquare_packing_box2
p645
g629
((lp646
I256
aI514
aI259
aI392
aI406
aI407
aI286
aI543
aI556
aI429
aI443
aI444
aI67
aI118
aI585
aI463
aI464
aI593
aI610
aI358
aI374
aI119
aI120
aI123
atp647
Rp648
sVsquare_packing_box3
p649
g629
((lp650
I4
aI5
aI137
aI276
aI132
aI133
aI34
aI35
aI301
aI584
aI310
aI55
aI570
aI187
aI449
aI70
aI456
aI202
aI162
aI205
aI81
aI595
aI84
aI597
aI93
aI607
aI355
aI107
aI251
aI252
atp651
Rp652
sVsquare_packing_box1
p653
g629
((lp654
I4
aI395
aI161
aI404
aI416
aI33
aI34
aI42
aI43
aI301
aI55
aI56
aI187
aI449
aI70
aI71
aI456
aI201
aI202
aI203
aI162
aI93
aI94
aI327
aI484
aI233
aI106
aI497
aI372
aI554
atp655
Rp656
sVsquare_packing_box4
p657
g629
((lp658
I384
aI133
aI518
aI136
aI394
aI523
aI276
aI154
aI155
aI157
aI163
aI134
aI166
aI296
aI547
aI308
aI197
aI338
aI83
aI165
aI362
aI82
aI251
atp659
Rp660
ssg78
g79
sS'pick_used'
p661
(dp662
Vrectangular_packing_box4
p663
(itrajectory_representation.operator
Operator
p664
(dp665
g8
I01
sg9
(dp666
S'object'
p667
Vrectangular_packing_box4
p668
ssg17
S'two_arm_pick'
p669
sg19
(dp670
S'q_goal'
p671
(lp672
g22
(g23
(I0
tp673
g25
tp674
Rp675
(I1
(I3
tp676
g157
I00
S'\xe0"\xc9\x14\xb2\xe9\xe8?\xfc<\xc2\x83\x82Q\x18\xc0fa\xdbr\xe1&\x06\xc0'
p677
tp678
bag22
(g23
(I0
tp679
g25
tp680
Rp681
(I1
(I3
tp682
g157
I00
S'\xbc\xccD\x9a\xd9i\xe8?<U\xf4\xd8\xc6b\x18\xc0~ \xce?\xffb\x07\xc0'
p683
tp684
bag22
(g23
(I0
tp685
g25
tp686
Rp687
(I1
(I3
tp688
g157
I00
S't\x13\xadSM\xab\xd0?$|\x14\x04\xab\x99\x1b\xc0B\x06\xde\xf8K\xe3\x01@'
p689
tp690
basS'is_feasible'
p691
I00
ssg47
(lp692
g22
(g23
(I0
tp693
g25
tp694
Rp695
(I1
(I3
tp696
g157
I00
S'\x18+\xdc!xj\x0b@\x9c\x1a\xfb\xf0\xab\xac\x16\xc02\\\xba\xb5H,\xee?'
p697
tp698
bag22
(g23
(I0
tp699
g25
tp700
Rp701
(I1
(I3
tp702
g168
I00
S'\xf0\xc9\xfbt\r)\x06@W\xcf\xbd\x98LA\x17\xc0\x12{h\xe4\xea2\xf8?'
p703
tp704
bag22
(g23
(I0
tp705
g25
tp706
Rp707
(I1
(I3
tp708
g168
I00
S'/\xe1\x02^.|\x00@\xb8\xae\xc5\xcfF\x16\x17\xc0\xf8\x01)d\xc5\xf9\xe2?'
p709
tp710
bag22
(g23
(I0
tp711
g25
tp712
Rp713
(I1
(I3
tp714
g168
I00
S'4#\xe8i\x80D\xf8?\xdd\x1dlTl\\\x19\xc0m\xc1\x1a\xec\xde\x01\x01\xc0'
p715
tp716
bag675
asbsVrectangular_packing_box2
p717
(itrajectory_representation.operator
Operator
p718
(dp719
g8
I01
sg9
(dp720
g667
Vrectangular_packing_box2
p721
ssg17
g669
sg19
(dp722
g671
(lp723
g22
(g23
(I0
tp724
g25
tp725
Rp726
(I1
(I3
tp727
g157
I00
S'\xb9\x01VvjU\xe1?\xa1zQ\xef\xb17\x1b\xc0\x8e\xb0?1\xdb\x11\xff\xbf'
p728
tp729
bag22
(g23
(I0
tp730
g25
tp731
Rp732
(I1
(I3
tp733
g157
I00
S'1\xe3<\x1a&\xe1\xea?\xc4C#\xf5\xf2\x15\x1e\xc0%\x1e\x80\\q\x0f\x08@'
p734
tp735
bag22
(g23
(I0
tp736
g25
tp737
Rp738
(I1
(I3
tp739
g157
I00
S'T!l\xe4\xf4\x03\xe5?\x07\x9b+XC>\x1b\xc0v\xfdFa{\xf6\x02\xc0'
p740
tp741
bag22
(g23
(I0
tp742
g25
tp743
Rp744
(I1
(I3
tp745
g157
I00
S'\xc5\x1c\xe2&i\xba\xea?E+\xba\xdc\xa3N\x1f\xc0\x17\xea\xde\xfbN\x1d\x03@'
p746
tp747
bag22
(g23
(I0
tp748
g25
tp749
Rp750
(I1
(I3
tp751
g157
I00
S'\xd1J"\x17\x1cr\xd2\xbf\xd11c\xa2`\x00 \xc0\xea\xdd\xaa\xf5\xa7\xa0\xf3?'
p752
tp753
basg691
I00
ssg47
(lp754
g22
(g23
(I0
tp755
g25
tp756
Rp757
(I1
(I3
tp758
g157
I00
S'\x18+\xdc!xj\x0b@\x9c\x1a\xfb\xf0\xab\xac\x16\xc02\\\xba\xb5H,\xee?'
p759
tp760
bag22
(g23
(I0
tp761
g25
tp762
Rp763
(I1
(I3
tp764
g168
I00
S'g\x886\x82\xe7\x9e\t@\x81\x00+\xe8\xfe$\x19\xc0m@m\xfd\x93\x06\xf2?'
p765
tp766
bag22
(g23
(I0
tp767
g25
tp768
Rp769
(I1
(I3
tp770
g168
I00
S'\x80e\xcc\t\x9a\xde\x04@<\x13[@\x0e\xa9\x19\xc0\xca\xb9\x9c\x08\r\xad\xf4?'
p771
tp772
bag22
(g23
(I0
tp773
g25
tp774
Rp775
(I1
(I3
tp776
g168
I00
S'\xb9\x81\xdfb\xdf\x92\xfe?\x1a\xe3?2\xb6\xec\x1a\xc0B\x1b\x81\xfa\x93C\xfa?'
p777
tp778
bag22
(g23
(I0
tp779
g25
tp780
Rp781
(I1
(I3
tp782
g168
I00
S'Z\xd4U\x1d\xf6`\xf4? %_\x1c\x06\x1f\x1b\xc0T\xcf(@X`\r@'
p783
tp784
bag738
asbsVrectangular_packing_box3
p785
(itrajectory_representation.operator
Operator
p786
(dp787
g8
I01
sg9
(dp788
g667
Vrectangular_packing_box3
p789
ssg17
g669
sg19
(dp790
g671
(lp791
g22
(g23
(I0
tp792
g25
tp793
Rp794
(I1
(I3
tp795
g157
I00
S'\xc9\xa77rc\xd2\x01@\x82\xde`\xa4^I\x1f\xc0\xf0u\xd7R\xb6\x89\x00@'
p796
tp797
bag22
(g23
(I0
tp798
g25
tp799
Rp800
(I1
(I3
tp801
g157
I00
S'\x10$\xdf\x7f\xcd\x0e\xf6?\xb3\xc4R\xd3\x93\xcc\x1a\xc0\x00\xc4\xd1\x80%\x13\xe6\xbf'
p802
tp803
bag22
(g23
(I0
tp804
g25
tp805
Rp806
(I1
(I3
tp807
g157
I00
S'\x1c\xc3\xa4\xe6`\x1a\xf6?\x1f\xe3N#\x8f\xaa\x1a\xc07\xb1\xc4\xe8K\xe7\xf2\xbf'
p808
tp809
basg691
I00
ssg47
(lp810
g22
(g23
(I0
tp811
g25
tp812
Rp813
(I1
(I3
tp814
g157
I00
S'\x18+\xdc!xj\x0b@\x9c\x1a\xfb\xf0\xab\xac\x16\xc02\\\xba\xb5H,\xee?'
p815
tp816
bag22
(g23
(I0
tp817
g25
tp818
Rp819
(I1
(I3
tp820
g168
I00
S'\xf0\xc9\xfbt\r)\x06@W\xcf\xbd\x98LA\x17\xc0\x12{h\xe4\xea2\xf8?'
p821
tp822
bag22
(g23
(I0
tp823
g25
tp824
Rp825
(I1
(I3
tp826
g168
I00
S'v\x9f}*\xb2\x19\x02@\x02_\xf4PZ7\x16\xc0\xa8G\xd0\x03\xa3 \x01@'
p827
tp828
bag22
(g23
(I0
tp829
g25
tp830
Rp831
(I1
(I3
tp832
g168
I00
S'\xf5I-\xc1\xee\x1f\xfa?Zc\rx\x9c\n\x18\xc0?_z:D*\x17@'
p833
tp834
bag806
asbsg625
(itrajectory_representation.operator
Operator
p835
(dp836
g8
I01
sg9
(dp837
g667
Vrectangular_packing_box1
p838
ssg17
g669
sg19
(dp839
g671
(lp840
g22
(g23
(I0
tp841
g25
tp842
Rp843
(I1
(I3
tp844
g157
I00
S'm+9\xf3\xcd\x8a\x07@_,\xce\x01a\x85\x1c\xc0\xca\xda\x8fB\xeeZ\xf7\xbf'
p845
tp846
bag22
(g23
(I0
tp847
g25
tp848
Rp849
(I1
(I3
tp850
g157
I00
S'5\x10\x9f\xcd\xb8i\x0e@\xe2fY\xef7<\x1e\xc07\xec\xac\xb9_[\x04\xc0'
p851
tp852
bag22
(g23
(I0
tp853
g25
tp854
Rp855
(I1
(I3
tp856
g157
I00
S'\x95\xaa7Z\xfbK\x0e@\xe3&\xe0\x88\x0f\xaa\x1d\xc0\xea1 M\xe91\x06\xc0'
p857
tp858
bag22
(g23
(I0
tp859
g25
tp860
Rp861
(I1
(I3
tp862
g157
I00
S'eci\xf30\xe6\x0e@\x83j\xab\xad<<\x1e\xc0\xee\xb7EQG\x07\x07\xc0'
p863
tp864
basg691
I00
ssg47
(lp865
g22
(g23
(I0
tp866
g25
tp867
Rp868
(I1
(I3
tp869
g157
I00
S'\x18+\xdc!xj\x0b@\x9c\x1a\xfb\xf0\xab\xac\x16\xc02\\\xba\xb5H,\xee?'
p870
tp871
bag22
(g23
(I0
tp872
g25
tp873
Rp874
(I1
(I3
tp875
g168
I00
S'g\x886\x82\xe7\x9e\t@\x81\x00+\xe8\xfe$\x19\xc0m@m\xfd\x93\x06\xf2?'
p876
tp877
bag22
(g23
(I0
tp878
g25
tp879
Rp880
(I1
(I3
tp881
g168
I00
S'\xe6\x83F\x0b\xbb\x05\x0b@\x7f\x83\xe4\xa0W \x1c\xc02\xb7S\x89\xf6\xf7\x03\xc0'
p882
tp883
bag843
asbsVsquare_packing_box2
p884
(itrajectory_representation.operator
Operator
p885
(dp886
g8
I01
sg9
(dp887
g667
Vsquare_packing_box2
p888
ssg17
g669
sg19
(dp889
g671
(lp890
g22
(g23
(I0
tp891
g25
tp892
Rp893
(I1
(I3
tp894
g157
I00
S'\x85\xcb1\x82\x1dy\x06@l\xd2k\x1f\x1c\x0e \xc0]\xf2\xe7\x10O\\\x08@'
p895
tp896
bag22
(g23
(I0
tp897
g25
tp898
Rp899
(I1
(I3
tp900
g157
I00
S':\xce\x0f<\xec}\x06@2\xccc\x8c\xd9\x01 \xc0\x95A[\xb3\xad\x9c\x04@'
p901
tp902
bag22
(g23
(I0
tp903
g25
tp904
Rp905
(I1
(I3
tp906
g157
I00
S'j\x89\xdc\x8e\xd1\x03\x03@B\n\x16\xb0\x0b\xdd\x1c\xc0\x10\x11k\xfd\xdc\x19\x00\xc0'
p907
tp908
bag22
(g23
(I0
tp909
g25
tp910
Rp911
(I1
(I3
tp912
g157
I00
S'\xbe=\xe1\xba\x81:\xf5?+S{\nZR\x1e\xc0\xfe\xd4q\x08\xf7\xe0\xd1\xbf'
p913
tp914
basg691
I00
ssg47
(lp915
g22
(g23
(I0
tp916
g25
tp917
Rp918
(I1
(I3
tp919
g157
I00
S'\x18+\xdc!xj\x0b@\x9c\x1a\xfb\xf0\xab\xac\x16\xc02\\\xba\xb5H,\xee?'
p920
tp921
bag22
(g23
(I0
tp922
g25
tp923
Rp924
(I1
(I3
tp925
g168
I00
S'\xe2\x90\xda\xb0m\x9a\x0b@7Q\xb0\xf5\xd4\xbe\x19\xc0\xee\xbc\x06\xc4\xdeD\xd0?'
p926
tp927
bag22
(g23
(I0
tp928
g25
tp929
Rp930
(I1
(I3
tp931
g168
I00
S'\xac\x81\x98\xbc\x1b\x7f\x06@8\x1d\xa5\x10)H\x1a\xc0\xcd\xc4]\x0b\xc1`\x10@'
p932
tp933
bag905
asbsVsquare_packing_box3
p934
(itrajectory_representation.operator
Operator
p935
(dp936
g8
I01
sg9
(dp937
g667
Vsquare_packing_box3
p938
ssg17
g669
sg19
(dp939
g671
(lp940
g22
(g23
(I0
tp941
g25
tp942
Rp943
(I1
(I3
tp944
g157
I00
S'"\x92\xdb\x89\x91\xf2\xe1?\xb2A;\x8d\xb7\x84\x1b\xc0X\x00\xea\xba\xde<\xe5?'
p945
tp946
bag22
(g23
(I0
tp947
g25
tp948
Rp949
(I1
(I3
tp950
g157
I00
S'\xf0x\xcb\x03\x8b\xcb\xfa?^\xe77\x9er\xfe\x16\xc0\x08\x7f vM\xc7\xff\xbf'
p951
tp952
bag22
(g23
(I0
tp953
g25
tp954
Rp955
(I1
(I3
tp956
g157
I00
S':3\xd9\xa2/\x16\xfd?\xc2c\x16\x1d\xe6\xe5\x1b\xc0#\xdb+j\x81\xd5\x06@'
p957
tp958
bag22
(g23
(I0
tp959
g25
tp960
Rp961
(I1
(I3
tp962
g157
I00
S"K\xca\xd2~'g\xf9?>.2lb\r\x17\xc0\x87\xc3\xd4\xbf9\x01\x02\xc0"
p963
tp964
basg691
I00
ssg47
(lp965
g22
(g23
(I0
tp966
g25
tp967
Rp968
(I1
(I3
tp969
g157
I00
S'\x18+\xdc!xj\x0b@\x9c\x1a\xfb\xf0\xab\xac\x16\xc02\\\xba\xb5H,\xee?'
p970
tp971
bag22
(g23
(I0
tp972
g25
tp973
Rp974
(I1
(I3
tp975
g168
I00
S'\xf0\xc9\xfbt\r)\x06@W\xcf\xbd\x98LA\x17\xc0\x12{h\xe4\xea2\xf8?'
p976
tp977
bag22
(g23
(I0
tp978
g25
tp979
Rp980
(I1
(I3
tp981
g168
I00
S'\x08\xd0\xb5\xc6%\xc5\x01@\xbd\x02\xc9.\xfeS\x18\xc0\xafSz\xf3%\xbc\x07\xc0'
p982
tp983
bag949
asbsg12
(itrajectory_representation.operator
Operator
p984
(dp985
g8
I01
sg9
(dp986
g11
g12
ssg17
S'two_arm_pick'
p987
sg19
(dp988
g21
g22
(g23
(I0
tp989
g25
tp990
Rp991
(I1
(I3
tp992
g32
I00
S'\xa0\xdbH\x1d\xedd\x00@\xe9>\xd8p_#\x18\xc0\xf0\x96\x108\x15\xb5\x04@'
p993
tp994
bssg47
(lp995
g22
(g23
(I0
tp996
g25
tp997
Rp998
(I1
(I3
tp999
g157
I00
S'\x18+\xdc!xj\x0b@\x9c\x1a\xfb\xf0\xab\xac\x16\xc02\\\xba\xb5H,\xee?'
p1000
tp1001
bag22
(g23
(I0
tp1002
g25
tp1003
Rp1004
(I1
(I3
tp1005
g168
I00
S')\xe4)\xbb\xb3I\x0b@#ZE\x1c-I\x18\xc0vZ9\x82\x18Q\xfc?'
p1006
tp1007
bag22
(g23
(I0
tp1008
g25
tp1009
Rp1010
(I1
(I3
tp1011
g168
I00
S'\xd8\xd6B\xff\x18\xb2\x05@\xf2%;\x9a\xab\xd5\x18\xc0\xce\xc8,\xa0\x8a\x9a\x00@'
p1012
tp1013
bag991
asbsVsquare_packing_box4
p1014
(itrajectory_representation.operator
Operator
p1015
(dp1016
g8
I01
sg9
(dp1017
g667
Vsquare_packing_box4
p1018
ssg17
g669
sg19
(dp1019
g671
(lp1020
g22
(g23
(I0
tp1021
g25
tp1022
Rp1023
(I1
(I3
tp1024
g157
I00
S'$\xca\x0f;\x04\xfc\xba\xbf\xaf\x17\x12\x14\xafw\x1d\xc0\x9b\x85\x02\xba\x8c\xfd\xec?'
p1025
tp1026
bag22
(g23
(I0
tp1027
g25
tp1028
Rp1029
(I1
(I3
tp1030
g157
I00
S'\xec\xc9\x039!\x0e\xb2\xbfJ\xa2\xc0V\xf4\xa3\x19\xc0\xfa\x97~\xd9B?\xe5\xbf'
p1031
tp1032
bag22
(g23
(I0
tp1033
g25
tp1034
Rp1035
(I1
(I3
tp1036
g157
I00
S'7\xeb,\xbc\xf5\xe1\xea?\xe8\xc6U\xea{\x85\x1d\xc0\x16\x17\x1f\xeeD\x89\x00@'
p1037
tp1038
bag22
(g23
(I0
tp1039
g25
tp1040
Rp1041
(I1
(I3
tp1042
g157
I00
S'\x96Z\x9d\xd9\x8a\x14\xee?\xb6/\xc7\xd8\x16\xf3\x1c\xc0~!\xdf \xf4J\x06@'
p1043
tp1044
basg691
I00
ssg47
(lp1045
g22
(g23
(I0
tp1046
g25
tp1047
Rp1048
(I1
(I3
tp1049
g157
I00
S'\x18+\xdc!xj\x0b@\x9c\x1a\xfb\xf0\xab\xac\x16\xc02\\\xba\xb5H,\xee?'
p1050
tp1051
bag22
(g23
(I0
tp1052
g25
tp1053
Rp1054
(I1
(I3
tp1055
g168
I00
S'\xf0\xc9\xfbt\r)\x06@W\xcf\xbd\x98LA\x17\xc0\x12{h\xe4\xea2\xf8?'
p1056
tp1057
bag22
(g23
(I0
tp1058
g25
tp1059
Rp1060
(I1
(I3
tp1061
g168
I00
S'\x80e\xcc\t\x9a\xde\x04@<\x13[@\x0e\xa9\x19\xc0\xca\xb9\x9c\x08\r\xad\xf4?'
p1062
tp1063
bag22
(g23
(I0
tp1064
g25
tp1065
Rp1066
(I1
(I3
tp1067
g168
I00
S'\xb9\x81\xdfb\xdf\x92\xfe?\x1a\xe3?2\xb6\xec\x1a\xc0B\x1b\x81\xfa\x93C\xfa?'
p1068
tp1069
bag22
(g23
(I0
tp1070
g25
tp1071
Rp1072
(I1
(I3
tp1073
g168
I00
S'Sx\x1f\xdc\xa9\xe1\xf5?\xb7\xb2\x19\xd8\xf1{\x1c\xc0\x8c\xd5\xa8XX\x00\x08\xc0'
p1074
tp1075
bag1041
asbssS'mc_paths'
p1076
(dp1077
sS'robot'
p1078
NsS'reachable_obj_region_pairs'
p1079
(lp1080
sS'sampled_pick_configs_for_objects'
p1081
(dp1082
sS'mc_calls'
p1083
I0
sS'pick_poses'
p1084
g662
sS'problem_env'
p1085
NsS'evaluations'
p1086
(dp1087
(g431
g539
g148
tp1088
I00
s(g362
g539
g148
tp1089
I00
s(g539
g494
g148
tp1090
I01
s(g272
g362
g148
tp1091
I00
s(g494
g311
g148
tp1092
I01
s(g221
g362
g148
tp1093
I00
s(g311
g147
g148
tp1094
I00
s(g494
g539
g148
tp1095
I00
s(g272
g221
g148
tp1096
I00
s(g362
g311
g148
tp1097
I01
s(g431
g311
g148
tp1098
I01
s(g431
g272
g148
tp1099
I01
s(g362
g147
g148
tp1100
I01
s(g272
g494
g148
tp1101
I01
s(g494
g147
g148
tp1102
I00
s(g221
g494
g148
tp1103
I01
s(g311
g539
g148
tp1104
I00
s(g494
g221
g148
tp1105
I01
s(g539
g431
g148
tp1106
I00
s(g147
g311
g148
tp1107
I01
s(g221
g431
g148
tp1108
I00
s(g494
g272
g148
tp1109
I00
s(g539
g311
g148
tp1110
I00
s(g147
g272
g148
tp1111
I00
s(g539
g221
g148
tp1112
I01
s(g272
g431
g148
tp1113
I00
s(g311
g431
g148
tp1114
I00
s(g147
g494
g148
tp1115
I01
s(g147
g431
g148
tp1116
I00
s(g494
g431
g148
tp1117
I00
s(g221
g539
g148
tp1118
I01
s(g272
g539
g148
tp1119
I00
s(g431
g221
g148
tp1120
I00
s(g362
g431
g148
tp1121
I01
s(g221
g272
g148
tp1122
I00
s(g147
g221
g148
tp1123
I00
s(g362
g272
g148
tp1124
I00
s(g494
g362
g148
tp1125
I00
s(g311
g362
g148
tp1126
I00
s(g362
g221
g148
tp1127
I00
s(g221
g147
g148
tp1128
I00
s(g311
g494
g148
tp1129
I01
s(g362
g494
g148
tp1130
I01
s(g272
g147
g148
tp1131
I00
s(g431
g494
g148
tp1132
I01
s(g431
g147
g148
tp1133
I01
s(g147
g539
g148
tp1134
I00
s(g539
g362
g148
tp1135
I00
s(g272
g311
g148
tp1136
I00
s(g311
g221
g148
tp1137
I00
s(g221
g311
g148
tp1138
I00
s(g311
g272
g148
tp1139
I00
s(g539
g272
g148
tp1140
I01
s(g147
g362
g148
tp1141
I01
s(g539
g147
g148
tp1142
I00
s(g431
g362
g148
tp1143
I01
ssS'paths_to_reachable_entities'
p1144
NsS'use_shortest_path'
p1145
I01
sbsS'ternary_edges'
p1146
(dp1147
(g539
g539
g148
tp1148
(lp1149
I00
as(g311
S'loading_region'
p1150
g1150
tp1151
(lp1152
I00
as(S'entire_region'
p1153
g431
g148
tp1154
(lp1155
I00
as(g362
g221
g1150
tp1156
(lp1157
I00
as(g148
g148
g148
tp1158
(lp1159
I00
as(g221
g539
g1150
tp1160
(lp1161
I00
as(g311
g147
g148
tp1162
(lp1163
I00
as(g148
g272
g148
tp1164
(lp1165
I00
as(g362
g311
g148
tp1166
(lp1167
I01
as(g147
g272
g1150
tp1168
(lp1169
I00
as(g148
g221
g1150
tp1170
(lp1171
I00
as(g362
g1153
g148
tp1172
(lp1173
I00
as(g1150
g148
g1150
tp1174
(lp1175
I00
as(g272
g494
g148
tp1176
(lp1177
I01
as(g221
g1153
g148
tp1178
(lp1179
I00
as(g362
g431
g1150
tp1180
(lp1181
I00
as(g494
g1150
g148
tp1182
(lp1183
I00
as(g1153
g539
g1150
tp1184
(lp1185
I00
as(g148
g1153
g148
tp1186
(lp1187
I00
as(g539
g1150
g148
tp1188
(lp1189
I00
as(g494
g1153
g148
tp1190
(lp1191
I00
as(g311
g311
g1150
tp1192
(lp1193
I00
as(g1150
g221
g1150
tp1194
(lp1195
I00
as(g1153
g1150
g148
tp1196
(lp1197
I00
as(g1153
g362
g148
tp1198
(lp1199
I00
as(g1150
g1150
g148
tp1200
(lp1201
I00
as(g494
g272
g1150
tp1202
(lp1203
I00
as(g148
g148
g1150
tp1204
(lp1205
I00
as(g431
g362
g1150
tp1206
(lp1207
I00
as(g539
g221
g148
tp1208
(lp1209
I01
as(g494
g311
g148
tp1210
(lp1211
I01
as(g431
g148
g1150
tp1212
(lp1213
I00
as(g148
g539
g1150
tp1214
(lp1215
I00
as(g431
g147
g1150
tp1216
(lp1217
I00
as(g147
g431
g148
tp1218
(lp1219
I00
as(g1150
g311
g1150
tp1220
(lp1221
I00
as(g221
g362
g1150
tp1222
(lp1223
I00
as(g539
g539
g1150
tp1224
(lp1225
I00
as(g1153
g221
g148
tp1226
(lp1227
I00
as(g1150
g148
g148
tp1228
(lp1229
I00
as(g272
g539
g148
tp1230
(lp1231
I00
as(g148
g147
g148
tp1232
(lp1233
I00
as(g362
g431
g148
tp1234
(lp1235
I01
as(g147
g221
g148
tp1236
(lp1237
I00
as(g311
g147
g1150
tp1238
(lp1239
I00
as(g494
g362
g148
tp1240
(lp1241
I00
as(g362
g311
g1150
tp1242
(lp1243
I00
as(g362
g539
g1150
tp1244
(lp1245
I00
as(g1153
g362
g1150
tp1246
(lp1247
I00
as(g1150
g147
g1150
tp1248
(lp1249
I00
as(g1153
g148
g148
tp1250
(lp1251
I00
as(g272
g148
g148
tp1252
(lp1253
I00
as(g1150
g1153
g148
tp1254
(lp1255
I00
as(g539
g221
g1150
tp1256
(lp1257
I00
as(g494
g539
g1150
tp1258
(lp1259
I00
as(g494
g494
g148
tp1260
(lp1261
I00
as(g431
g147
g148
tp1262
(lp1263
I01
as(g1153
g539
g148
tp1264
(lp1265
I00
as(g431
g1150
g1150
tp1266
(lp1267
I00
as(g221
g311
g148
tp1268
(lp1269
I00
as(g311
g311
g148
tp1270
(lp1271
I00
as(g311
g272
g148
tp1272
(lp1273
I00
as(g272
g539
g1150
tp1274
(lp1275
I00
as(g221
g431
g1150
tp1276
(lp1277
I00
as(g494
g272
g148
tp1278
(lp1279
I00
as(g431
g362
g148
tp1280
(lp1281
I01
as(g539
g431
g1150
tp1282
(lp1283
I00
as(g431
g148
g148
tp1284
(lp1285
I00
as(g362
g539
g148
tp1286
(lp1287
I00
as(g539
g494
g148
tp1288
(lp1289
I01
as(g147
g431
g1150
tp1290
(lp1291
I00
as(g148
g362
g1150
tp1292
(lp1293
I00
as(g1153
g148
g1150
tp1294
(lp1295
I00
as(g1153
g221
g1150
tp1296
(lp1297
I00
as(g494
g539
g148
tp1298
(lp1299
I00
as(g147
g494
g1150
tp1300
(lp1301
I00
as(g539
g1153
g1150
tp1302
(lp1303
I00
as(g431
g1150
g148
tp1304
(lp1305
I00
as(g494
g362
g1150
tp1306
(lp1307
I00
as(g494
g431
g1150
tp1308
(lp1309
I00
as(g221
g311
g1150
tp1310
(lp1311
I00
as(g148
g147
g1150
tp1312
(lp1313
I00
as(g1153
g494
g1150
tp1314
(lp1315
I00
as(g1150
g147
g148
tp1316
(lp1317
I00
as(g1150
g362
g1150
tp1318
(lp1319
I00
as(g539
g431
g148
tp1320
(lp1321
I00
as(g221
g431
g148
tp1322
(lp1323
I00
as(g1150
g494
g148
tp1324
(lp1325
I00
as(g539
g494
g1150
tp1326
(lp1327
I00
as(g539
g272
g1150
tp1328
(lp1329
I00
as(g147
g221
g1150
tp1330
(lp1331
I00
as(g311
g272
g1150
tp1332
(lp1333
I00
as(g431
g494
g1150
tp1334
(lp1335
I00
as(g148
g311
g1150
tp1336
(lp1337
I00
as(g147
g1150
g1150
tp1338
(lp1339
I00
as(g272
g148
g1150
tp1340
(lp1341
I00
as(g311
g431
g148
tp1342
(lp1343
I00
as(g539
g1153
g148
tp1344
(lp1345
I00
as(g272
g362
g1150
tp1346
(lp1347
I00
as(g147
g539
g1150
tp1348
(lp1349
I00
as(g494
g431
g148
tp1350
(lp1351
I00
as(g221
g1150
g1150
tp1352
(lp1353
I00
as(g362
g148
g148
tp1354
(lp1355
I00
as(g221
g272
g148
tp1356
(lp1357
I00
as(g148
g494
g1150
tp1358
(lp1359
I00
as(g1150
g431
g1150
tp1360
(lp1361
I00
as(g1150
g494
g1150
tp1362
(lp1363
I00
as(g311
g494
g148
tp1364
(lp1365
I01
as(g431
g494
g148
tp1366
(lp1367
I01
as(g311
g431
g1150
tp1368
(lp1369
I00
as(g147
g539
g148
tp1370
(lp1371
I00
as(g539
g362
g148
tp1372
(lp1373
I00
as(g147
g148
g1150
tp1374
(lp1375
I00
as(g221
g1150
g148
tp1376
(lp1377
I00
as(g1150
g272
g1150
tp1378
(lp1379
I00
as(g539
g272
g148
tp1380
(lp1381
I01
as(g147
g147
g148
tp1382
(lp1383
I00
as(g272
g272
g148
tp1384
(lp1385
I00
as(g272
g147
g1150
tp1386
(lp1387
I00
as(g147
g1150
g148
tp1388
(lp1389
I00
as(g494
g221
g148
tp1390
(lp1391
I01
as(g272
g362
g148
tp1392
(lp1393
I00
as(g362
g1150
g1150
tp1394
(lp1395
I00
as(g147
g1153
g1150
tp1396
(lp1397
I00
as(g362
g148
g1150
tp1398
(lp1399
I00
as(g311
g362
g1150
tp1400
(lp1401
I00
as(g221
g272
g1150
tp1402
(lp1403
I00
as(g494
g148
g1150
tp1404
(lp1405
I00
as(g147
g148
g148
tp1406
(lp1407
I00
as(g1150
g272
g148
tp1408
(lp1409
I00
as(g431
g431
g148
tp1410
(lp1411
I00
as(g1150
g221
g148
tp1412
(lp1413
I00
as(g221
g494
g148
tp1414
(lp1415
I01
as(g311
g539
g148
tp1416
(lp1417
I00
as(g311
g494
g1150
tp1418
(lp1419
I00
as(g272
g311
g1150
tp1420
(lp1421
I00
as(g148
g362
g148
tp1422
(lp1423
I00
as(g1153
g147
g1150
tp1424
(lp1425
I00
as(g147
g311
g148
tp1426
(lp1427
I01
as(g431
g1153
g148
tp1428
(lp1429
I00
as(g494
g221
g1150
tp1430
(lp1431
I00
as(g494
g147
g1150
tp1432
(lp1433
I00
as(g272
g431
g148
tp1434
(lp1435
I00
as(g539
g362
g1150
tp1436
(lp1437
I00
as(g272
g1150
g148
tp1438
(lp1439
I00
as(g147
g1153
g148
tp1440
(lp1441
I00
as(g221
g147
g1150
tp1442
(lp1443
I00
as(g539
g311
g148
tp1444
(lp1445
I00
as(g494
g311
g1150
tp1446
(lp1447
I00
as(g221
g221
g1150
tp1448
(lp1449
I00
as(g272
g272
g1150
tp1450
(lp1451
I00
as(g431
g431
g1150
tp1452
(lp1453
I00
as(g311
g221
g1150
tp1454
(lp1455
I00
as(g221
g362
g148
tp1456
(lp1457
I00
as(g1153
g311
g148
tp1458
(lp1459
I00
as(g148
g1153
g1150
tp1460
(lp1461
I00
as(g148
g431
g1150
tp1462
(lp1463
I00
as(g362
g1150
g148
tp1464
(lp1465
I00
as(g311
g539
g1150
tp1466
(lp1467
I00
as(g431
g311
g1150
tp1468
(lp1469
I00
as(g147
g147
g1150
tp1470
(lp1471
I00
as(g1153
g147
g148
tp1472
(lp1473
I00
as(g362
g147
g1150
tp1474
(lp1475
I00
as(g431
g1153
g1150
tp1476
(lp1477
I00
as(g311
g362
g148
tp1478
(lp1479
I00
as(g272
g431
g1150
tp1480
(lp1481
I00
as(g272
g147
g148
tp1482
(lp1483
I00
as(g221
g147
g148
tp1484
(lp1485
I00
as(g311
g148
g1150
tp1486
(lp1487
I00
as(g362
g494
g148
tp1488
(lp1489
I01
as(g494
g494
g1150
tp1490
(lp1491
I00
as(g272
g1153
g148
tp1492
(lp1493
I00
as(g1150
g1153
g1150
tp1494
(lp1495
I00
as(g221
g494
g1150
tp1496
(lp1497
I00
as(g1150
g431
g148
tp1498
(lp1499
I00
as(g1153
g1153
g1150
tp1500
(lp1501
I00
as(g272
g311
g148
tp1502
(lp1503
I00
as(g311
g221
g148
tp1504
(lp1505
I00
as(g1150
g539
g1150
tp1506
(lp1507
I00
as(g147
g311
g1150
tp1508
(lp1509
I00
as(g494
g148
g148
tp1510
(lp1511
I00
as(g1153
g311
g1150
tp1512
(lp1513
I00
as(g494
g147
g148
tp1514
(lp1515
I00
as(g147
g362
g148
tp1516
(lp1517
I01
as(g272
g1150
g1150
tp1518
(lp1519
I00
as(g539
g311
g1150
tp1520
(lp1521
I00
as(g431
g539
g148
tp1522
(lp1523
I00
as(g1153
g1150
g1150
tp1524
(lp1525
I00
as(g1150
g539
g148
tp1526
(lp1527
I00
as(g311
g1153
g148
tp1528
(lp1529
I00
as(g362
g494
g1150
tp1530
(lp1531
I00
as(g362
g272
g1150
tp1532
(lp1533
I00
as(g221
g148
g148
tp1534
(lp1535
I00
as(g272
g1153
g1150
tp1536
(lp1537
I00
as(g272
g221
g148
tp1538
(lp1539
I00
as(g1153
g272
g1150
tp1540
(lp1541
I00
as(g148
g431
g148
tp1542
(lp1543
I00
as(g148
g494
g148
tp1544
(lp1545
I00
as(g431
g311
g148
tp1546
(lp1547
I01
as(g431
g272
g148
tp1548
(lp1549
I01
as(g1153
g494
g148
tp1550
(lp1551
I00
as(g362
g147
g148
tp1552
(lp1553
I01
as(g362
g362
g1150
tp1554
(lp1555
I00
as(g431
g221
g1150
tp1556
(lp1557
I00
as(g221
g148
g1150
tp1558
(lp1559
I00
as(g539
g148
g148
tp1560
(lp1561
I00
as(g311
g148
g148
tp1562
(lp1563
I00
as(g431
g539
g1150
tp1564
(lp1565
I00
as(g221
g539
g148
tp1566
(lp1567
I01
as(g148
g1150
g148
tp1568
(lp1569
I00
as(g1153
g1153
g148
tp1570
(lp1571
I00
as(g539
g147
g1150
tp1572
(lp1573
I00
as(g311
g1153
g1150
tp1574
(lp1575
I00
as(g1150
g362
g148
tp1576
(lp1577
I00
as(g147
g272
g148
tp1578
(lp1579
I00
as(g1153
g272
g148
tp1580
(lp1581
I00
as(g311
g1150
g148
tp1582
(lp1583
I00
as(g147
g362
g1150
tp1584
(lp1585
I00
as(g148
g311
g148
tp1586
(lp1587
I00
as(g1153
g431
g1150
tp1588
(lp1589
I00
as(g221
g1153
g1150
tp1590
(lp1591
I00
as(g362
g362
g148
tp1592
(lp1593
I00
as(g431
g221
g148
tp1594
(lp1595
I00
as(g494
g1153
g1150
tp1596
(lp1597
I00
as(g362
g272
g148
tp1598
(lp1599
I00
as(g148
g221
g148
tp1600
(lp1601
I00
as(g147
g494
g148
tp1602
(lp1603
I01
as(g272
g221
g1150
tp1604
(lp1605
I00
as(g221
g221
g148
tp1606
(lp1607
I00
as(g431
g272
g1150
tp1608
(lp1609
I00
as(g362
g221
g148
tp1610
(lp1611
I00
as(g494
g1150
g1150
tp1612
(lp1613
I00
as(g148
g539
g148
tp1614
(lp1615
I00
as(g539
g1150
g1150
tp1616
(lp1617
I00
as(g148
g272
g1150
tp1618
(lp1619
I00
as(g539
g148
g1150
tp1620
(lp1621
I00
as(g1150
g1150
g1150
tp1622
(lp1623
I00
as(g362
g1153
g1150
tp1624
(lp1625
I00
as(g272
g494
g1150
tp1626
(lp1627
I00
as(g148
g1150
g1150
tp1628
(lp1629
I00
as(g539
g147
g148
tp1630
(lp1631
I00
as(g1150
g311
g148
tp1632
(lp1633
I00
assg661
g662
sS'use_prm'
p1634
I01
sS'object_names'
p1635
(lp1636
S'square_packing_box1'
p1637
aS'rectangular_packing_box1'
p1638
aS'square_packing_box2'
p1639
aS'rectangular_packing_box2'
p1640
aS'square_packing_box3'
p1641
aS'rectangular_packing_box3'
p1642
aS'square_packing_box4'
p1643
aS'rectangular_packing_box4'
p1644
asg1085
NsS'current_holding_collides'
p1645
NsS'object_poses'
p1646
(dp1647
Vrectangular_packing_box4
p1648
g22
(g23
(I0
tp1649
g25
tp1650
Rp1651
(I1
(I1
I3
tp1652
g157
I00
S'"53\x08\xbc\xca\xaf??P\x02C\xf3\x8c\x18\xc0,5##\xc5\xf1\x13@'
p1653
tp1654
bsVrectangular_packing_box2
p1655
g22
(g23
(I0
tp1656
g25
tp1657
Rp1658
(I1
(I1
I3
tp1659
g157
I00
S'\x90Q\xcc\x92\x06\x93\xba?~\x82\x86C]_\x1d\xc0R\x1dG\xa2\xd1\x86\x16@'
p1660
tp1661
bsVrectangular_packing_box3
p1662
g22
(g23
(I0
tp1663
g25
tp1664
Rp1665
(I1
(I1
I3
tp1666
g157
I00
S'\x16\xf0>D\xea#\xfd?L\x901x\x10\x04\x1d\xc0\xa5\xd4\xa76\xa2\xde\x0e@'
p1667
tp1668
bsVrectangular_packing_box1
p1669
g22
(g23
(I0
tp1670
g25
tp1671
Rp1672
(I1
(I1
I3
tp1673
g157
I00
S'\xb6\x19\xdbRf\xca\t@\xe5\xe8)\xe9\xder\x1f\xc0l@\xcd\xbaP\x93\x14@'
p1674
tp1675
bsVsquare_packing_box2
p1676
g22
(g23
(I0
tp1677
g25
tp1678
Rp1679
(I1
(I1
I3
tp1680
g157
I00
S'B\xfcnt\x87x\xff?y\xe1\xebtF,\x1f\xc0 J\x7f\x18g\xc2\xf2?'
p1681
tp1682
bsVsquare_packing_box3
p1683
g22
(g23
(I0
tp1684
g25
tp1685
Rp1686
(I1
(I1
I3
tp1687
g157
I00
S'\xa8.\xac\xfa\x8a\xf8\xf2?\xf1{\xe1A\xd3o\x19\xc0B\xf6\xf0\xd6\xd1\x93\xec?'
p1688
tp1689
bsVsquare_packing_box1
p1690
g22
(g23
(I0
tp1691
g25
tp1692
Rp1693
(I1
(I1
I3
tp1694
g157
I00
S'\xdeF\x80\xc20n\xf7?}r[\xa8N\xd6\x16\xc0\xb9\x9ek\xb1\x03O\xed?'
p1695
tp1696
bsVsquare_packing_box4
p1697
g22
(g23
(I0
tp1698
g25
tp1699
Rp1700
(I1
(I1
I3
tp1701
g157
I00
S'\xc0\x8f3\xc0\x80\xc1\xda?\x84\x82\xae\x9e97\x1b\xc0\xf8m|-}\x83\x16@'
p1702
tp1703
bssS'reachable_regions_while_holding'
p1704
(lp1705
(g663
g1150
tp1706
a(g717
g1150
tp1707
a(g785
g1150
tp1708
a(g625
g1150
tp1709
a(g884
g1150
tp1710
a(g934
g1150
tp1711
a(g12
g1150
tp1712
a(g1014
g1150
tp1713
asS'in_region'
p1714
(itrajectory_representation.predicates.in_region
InRegion
p1715
(dp1716
g1085
NsbsS'cached_pick_paths'
p1717
(dp1718
g663
g692
sg717
g754
sg785
g810
sg625
g865
sg884
g915
sg934
g965
sg12
g995
sg1014
g1045
ssg626
(dp1719
(Vsquare_packing_box3
p1720
(cnumpy.core.multiarray
scalar
p1721
(g157
S'\x1e\xdd\x08\x8b\x8a\xf8\xf2?'
p1722
tp1723
Rp1724
g1721
(g157
S'\x9a^b,\xd3o\x19\xc0'
p1725
tp1726
Rp1727
g1721
(g157
S'\xe2r\xbc\x02\xd1\x93\xec?'
p1728
tp1729
Rp1730
tp1731
tp1732
g652
s(Vrectangular_packing_box4
p1733
(g1721
(g157
S'\xf3>\x8e\xe6\xc8\xca\xaf?'
p1734
tp1735
Rp1736
g1721
(g157
S'\xef\x91\xcdU\xf3\x8c\x18\xc0'
p1737
tp1738
Rp1739
g1721
(g157
S'\xb3\xd19?\xc5\xf1\x13@'
p1740
tp1741
Rp1742
tp1743
tp1744
g632
s(Vrectangular_packing_box2
p1745
(g1721
(g157
S'[\xea \xaf\x07\x93\xba?'
p1746
tp1747
Rp1748
g1721
(g157
S'\x9b<e5]_\x1d\xc0'
p1749
tp1750
Rp1751
g1721
(g157
S'q\xe5\xec\x9d\xd1\x86\x16@'
p1752
tp1753
Rp1754
tp1755
tp1756
g636
s(Vrectangular_packing_box1
p1757
(g1721
(g157
S'\xc6n\x9fUf\xca\t@'
p1758
tp1759
Rp1760
g1721
(g157
S'\xa0R%\xca\xder\x1f\xc0'
p1761
tp1762
Rp1763
g1721
(g157
S'\xf4j\x80\xd2P\x93\x14@'
p1764
tp1765
Rp1766
tp1767
tp1768
g644
s(Vsquare_packing_box2
p1769
(g1721
(g157
S'\xfcn\xbae\x87x\xff?'
p1770
tp1771
Rp1772
g1721
(g157
S'\x1d\xc7\x0f\x95F,\x1f\xc0'
p1773
tp1774
Rp1775
g1721
(g157
S'\x12\xd8\x9c\x83g\xc2\xf2?'
p1776
tp1777
Rp1778
tp1779
tp1780
g648
s(Vsquare_packing_box4
p1781
(g1721
(g157
S'6\x02\xf1\xba~\xc1\xda?'
p1782
tp1783
Rp1784
g1721
(g157
S'Z\xf6$\xb097\x1b\xc0'
p1785
tp1786
Rp1787
g1721
(g157
S'UO\xe6\x1f}\x83\x16@'
p1788
tp1789
Rp1790
tp1791
tp1792
g660
s(Vsquare_packing_box1
p1793
(g1721
(g157
S'\xe1&\xa3\xca0n\xf7?'
p1794
tp1795
Rp1796
g1721
(g157
S'\xe4M~\x8bN\xd6\x16\xc0'
p1797
tp1798
Rp1799
g1721
(g157
S'\xc9<\xf2\x07\x03O\xed?'
p1800
tp1801
Rp1802
tp1803
tp1804
g656
s(Vrectangular_packing_box3
p1805
(g1721
(g157
S'q\x05\x14\xea\xe9#\xfd?'
p1806
tp1807
Rp1808
g1721
(g157
S'\x92\xca\x14s\x10\x04\x1d\xc0'
p1809
tp1810
Rp1811
g1721
(g157
S'0\x82\xc6L\xa2\xde\x0e@'
p1812
tp1813
Rp1814
tp1815
tp1816
g640
ssS'state_saver'
p1817
(igtamp_utils.utils
CustomStateSaver
p1818
(dp1819
S'robot_base_pose'
p1820
g22
(g23
(I0
tp1821
g25
tp1822
Rp1823
(I1
(I1
I3
tp1824
g157
I00
S'\x18+\xdc!xj\x0b@\x9a\x1a\xfb\xf0\xab\xac\x16\xc02\\\xba\xb5H,\xee?'
p1825
tp1826
bsS'held_object'
p1827
NsS'robot_name'
p1828
S'pr2'
p1829
sS'env_id'
p1830
I1
sg1646
(dp1831
Vright_wall_1
p1832
g22
(g23
(I0
tp1833
g25
tp1834
Rp1835
(I1
(I4
tp1836
g157
I00
S'H\xe1z\x14\xaeG\x12@&\\\x8f\xc2\xf5(\xd4\xbf\xcc\x7fH\xbf}\x1d\xed?\x00\x00\x00\x00\x00\x00\x00\x00'
p1837
tp1838
bsVc_obst5
p1839
g22
(g23
(I0
tp1840
g25
tp1841
Rp1842
(I1
(I4
tp1843
g157
I00
S"\x9e\xbb\xa0b`T\x12@\xfc\x88A\x06\xa8\x91\xcb?e\xaa`TR'\xed?4\xfdxA\x94\xf5\x07@"
p1844
tp1845
bsVentrance_right
p1846
g22
(g23
(I0
tp1847
g25
tp1848
Rp1849
(I1
(I4
tp1850
g157
I00
S'ffffff\n@H\xe1z\x14\xaeG\t\xc0\x9c\xc4 \xb0rh\xc1?\x00\x00\x00\x00\x00\x00\x00\x00'
p1851
tp1852
bsVcomputer_table
p1853
g22
(g23
(I0
tp1854
g25
tp1855
Rp1856
(I1
(I4
tp1857
g157
I00
S'\x00\x00\x00\x00\x00\x00\x13@\x00\x00\x00\x00\x00\x00\xf8\xbf\x96C\x8bl\xe7\xfb\xe7?\xd2!3\x7f|\xd9\x12@'
p1858
tp1859
bsVchair_6b56
p1860
g22
(g23
(I0
tp1861
g25
tp1862
Rp1863
(I1
(I4
tp1864
g157
I00
S'u=\n\xd7\xa3p\xf5?K\xe1z\x14\xaeG\xd1?\x00\x00\x00\x00\x00\x00\x00\x00\xd6$\xfaNBm\n@'
p1865
tp1866
bsVsquare_packing_box3
p1867
g22
(g23
(I0
tp1868
g25
tp1869
Rp1870
(I1
(I4
tp1871
g157
I00
S'\xa6.\xac\xfa\x8a\xf8\xf2?\xf0{\xe1A\xd3o\x19\xc0L7\x89A`\xe5\xd8?B\xf6\xf0\xd6\xd1\x93\xec?'
p1872
tp1873
bsVsquare_packing_box2
p1874
g22
(g23
(I0
tp1875
g25
tp1876
Rp1877
(I1
(I4
tp1878
g157
I00
S'H\xfcnt\x87x\xff?w\xe1\xebtF,\x1f\xc0L7\x89A`\xe5\xd8? J\x7f\x18g\xc2\xf2?'
p1879
tp1880
bsVtable
p1881
g22
(g23
(I0
tp1882
g25
tp1883
Rp1884
(I1
(I4
tp1885
g157
I00
S'\x7f\xf6#EdX\xed?\xac\xffs\x98//\xc0\xbf\x00\x00\x00\x00\x00\x00\x00\x00\x00\x00\x00\x00\x00\x00\x00\x00'
p1886
tp1887
bsVsquare_packing_box1
p1888
g22
(g23
(I0
tp1889
g25
tp1890
Rp1891
(I1
(I4
tp1892
g157
I00
S'\xd0F\x80\xc20n\xf7?\x7fr[\xa8N\xd6\x16\xc0L7\x89A`\xe5\xd8?\xb9\x9ek\xb1\x03O\xed?'
p1893
tp1894
bsVback_wall_2
p1895
g22
(g23
(I0
tp1896
g25
tp1897
Rp1898
(I1
(I4
tp1899
g157
I00
S'\xaeG\xe1z\x14.\x13@\x80\x14\xaeG\xe1z\xc4?xX\xa85\xcd\xbb\xf2?\x00\x00\x00\x00\x00\x00\x00\x00'
p1900
tp1901
bsVchair_083c
p1902
g22
(g23
(I0
tp1903
g25
tp1904
Rp1905
(I1
(I4
tp1906
g157
I00
S'\xa4p=\n\xd7\xa3\xe0?333333\xe3\xbf\x00\x00\x00\x00\x00\x00\x00\x00\x00\x00\x00\x00\x00\x00\x00\x00'
p1907
tp1908
bsVback_wall_1
p1909
g22
(g23
(I0
tp1910
g25
tp1911
Rp1912
(I1
(I4
tp1913
g157
I00
S'\xaeG\xe1z\x14.\x13@\x80\x14\xaeG\xe1z\xc4?\xcc\x7fH\xbf}\x1d\xed?\x00\x00\x00\x00\x00\x00\x00\x00'
p1914
tp1915
bsVbottom_wall
p1916
g22
(g23
(I0
tp1917
g25
tp1918
Rp1919
(I1
(I4
tp1920
g157
I00
S'\x00\x00\x00\x00\x00\x00\xfc?\x00\x00\x00\x00\x00\x00\x00\x00\x00\x00\x00\x00\x00\x00\x00\x00\x00\x00\x00\x00\x00\x00\x00\x00'
p1921
tp1922
bsVcup_905a
p1923
g22
(g23
(I0
tp1924
g25
tp1925
Rp1926
(I1
(I4
tp1927
g157
I00
S'\x00\x00\x00\x00\x00\x00\xf0?\x83\xc0\xca\xa1E\xb6\xdb?\x1b/\xdd$\x06\x81\xed?\x00\x00\x00\x00\x00\x00\x00\x00'
p1928
tp1929
bsVplate_496f
p1930
g22
(g23
(I0
tp1931
g25
tp1932
Rp1933
(I1
(I4
tp1934
g157
I00
S"q=\n\xd7\xa3p\xe5?\x9dhW!\xe5'\xdd\xbf\x1b/\xdd$\x06\x81\xed?\x00\x00\x00\x00\x00\x00\x00\x00"
p1935
tp1936
bsVtoaster
p1937
g22
(g23
(I0
tp1938
g25
tp1939
Rp1940
(I1
(I4
tp1941
g157
I00
S')\\\x8f\xc2\xf5(\xf4\xbf\xe0z\x14\xaeG\xe1\xf2\xbf\xb8\x1e\x85\xebQ\xb8\xee?\x89/`\x9b\xf8\x8a\xe4?'
p1942
tp1943
bsVc_obst1
p1944
g22
(g23
(I0
tp1945
g25
tp1946
Rp1947
(I1
(I4
tp1948
g157
I00
S"\x11d\xb1D\xadf\x12@\xec#I\t<\xf5\xd6?e\xaa`TR'\xed?\x8d\xe7+\x8fj\xfe\n@"
p1949
tp1950
bsVrectangular_packing_box4
p1951
g22
(g23
(I0
tp1952
g25
tp1953
Rp1954
(I1
(I4
tp1955
g157
I00
S'\xfa53\x08\xbc\xca\xaf?AP\x02C\xf3\x8c\x18\xc0L7\x89A`\xe5\xd8?,5##\xc5\xf1\x13@'
p1956
tp1957
bsVmicrowave
p1958
g22
(g23
(I0
tp1959
g25
tp1960
Rp1961
(I1
(I4
tp1962
g157
I00
S'\x9a\x99\x99\x99\x99\x99\xf1\xbf\x00\x00\x00\x00\x00\x00\x00@7\x89A`\xe5\xd0\xee?\x00\x00\x00\x00\x00\x00\x00\x00'
p1963
tp1964
bsVc_obst7
p1965
g22
(g23
(I0
tp1966
g25
tp1967
Rp1968
(I1
(I4
tp1969
g157
I00
S"\x11\xb6\xb0\x102\x13\x12@xo\xb5\x0bs%\xc0?e\xaa`TR'\xed?(\x9f\xfa\xa8\xdbF\xfe?"
p1970
tp1971
bsVc_obst6
p1972
g22
(g23
(I0
tp1973
g25
tp1974
Rp1975
(I1
(I4
tp1976
g157
I00
S"\xe6\xdba*\x03\xee\x11@Zy\xd8\xa9\x83X\xe0?e\xaa`TR'\xed?\x80\x1eW-\x9f\xcc\xfc?"
p1977
tp1978
bsVcup_b6af
p1979
g22
(g23
(I0
tp1980
g25
tp1981
Rp1982
(I1
(I4
tp1983
g157
I00
S'R\xb8\x1e\x85\xebQ\xe8?\x9a\x99\x99\x99\x99\x99\xe1?\x1b/\xdd$\x06\x81\xed?\x00\x00\x00\x00\x00\x00\x00\x00'
p1984
tp1985
bsVc_obst4
p1986
g22
(g23
(I0
tp1987
g25
tp1988
Rp1989
(I1
(I4
tp1990
g157
I00
S"y\xc2\xbe\x14\xbc\x96\x12@XS\xedSj\xd7\xbd\xbfe\xaa`TR'\xed?\x19\x1a0^\x95H\xff?"
p1991
tp1992
bsVrectangular_packing_box2
p1993
g22
(g23
(I0
tp1994
g25
tp1995
Rp1996
(I1
(I4
tp1997
g157
I00
S'\x84R\xcc\x92\x06\x93\xba?~\x82\x86C]_\x1d\xc0L7\x89A`\xe5\xd8?R\x1dG\xa2\xd1\x86\x16@'
p1998
tp1999
bsVplate_fa76
p2000
g22
(g23
(I0
tp2001
g25
tp2002
Rp2003
(I1
(I4
tp2004
g157
I00
S'=\n\xd7\xa3p=\xf2?\x00\x00\x00\x00\x00\x00\x00\x00\x1b/\xdd$\x06\x81\xed?\x00\x00\x00\x00\x00\x00\x00\x00'
p2005
tp2006
bsVfloorwalls
p2007
g22
(g23
(I0
tp2008
g25
tp2009
Rp2010
(I1
(I4
tp2011
g157
I00
S'\xc7\xcc\xcc\xcc\xcc\xcc\xfc?\x00\x00\x00\x00\x00\x00\x18\xc0H\xe1z\x14\xaeG\xc1?\x16-DT\xfb!\xf9?'
p2012
tp2013
bsVpin_c671
p2014
g22
(g23
(I0
tp2015
g25
tp2016
Rp2017
(I1
(I4
tp2018
g157
I00
S'\xc3\xf5(\\\x8f\xc2\xf1\xbf}?5^\xbaI\x02@\xb8\x1e\x85\xebQ\xb8\xfa?\x00\x00\x00\x00\x00\x00\x00\x00'
p2019
tp2020
bsVc_obst3
p2021
g22
(g23
(I0
tp2022
g25
tp2023
Rp2024
(I1
(I4
tp2025
g157
I00
S"DC\x9d\xc9\x8d\xee\x11@\x801\x19Y\x05(\xd7?e\xaa`TR'\xed?e\xf2\xee\xb9\xa3\xbc\x14@"
p2026
tp2027
bsVchair_2e39
p2028
g22
(g23
(I0
tp2029
g25
tp2030
Rp2031
(I1
(I4
tp2032
g157
I00
S'hfffff\xee?cfffff\xf2\xbf\x00\x00\x00\x00\x00\x00\x00\x00\x07M\xe8QQF\xf3?'
p2033
tp2034
bsVentrance_left
p2035
g22
(g23
(I0
tp2036
g25
tp2037
Rp2038
(I1
(I4
tp2039
g157
I00
S'\x98\x99\x99\x99\x99\x99\xe9\xbfH\xe1z\x14\xaeG\t\xc0\x9c\xc4 \xb0rh\xc1?\x00\x00\x00\x00\x00\x00\x00\x00'
p2040
tp2041
bsVtop_wall_1
p2042
g22
(g23
(I0
tp2043
g25
tp2044
Rp2045
(I1
(I4
tp2046
g157
I00
S'H\xe1z\x14\xaeG\x12@\x80\x14\xaeG\xe1z\xc4?xX\xa85\xcd\xbb\xf2?\x00\x00\x00\x00\x00\x00\x00\x00'
p2047
tp2048
bsVrectangular_packing_box3
p2049
g22
(g23
(I0
tp2050
g25
tp2051
Rp2052
(I1
(I4
tp2053
g157
I00
S'&\xf0>D\xea#\xfd?L\x901x\x10\x04\x1d\xc0L7\x89A`\xe5\xd8?\xa5\xd4\xa76\xa2\xde\x0e@'
p2054
tp2055
bsVshaker
p2056
g22
(g23
(I0
tp2057
g25
tp2058
Rp2059
(I1
(I4
tp2060
g157
I00
S'\n\xd7\xa3p=\n\x01@\x14\xaeG\xe1z\x14\x02@\\\x8f\xc2\xf5(\\\xef?\x00\x00\x00\x00\x00\x00\x00\x00'
p2061
tp2062
bsVc_obst9
p2063
g22
(g23
(I0
tp2064
g25
tp2065
Rp2066
(I1
(I4
tp2067
g157
I00
S"s\xdc\xe9\xb2\xcc\x1a\x12@\x1c\x0b\x03r\xcb\xcb\xd2?e\xaa`TR'\xed?\x95\xac\xed\xbb\x9d,w?"
p2068
tp2069
bsVplate_835a
p2070
g22
(g23
(I0
tp2071
g25
tp2072
Rp2073
(I1
(I4
tp2074
g157
I00
S'\xf6(\\\x8f\xc2\xf5\xf0?\\\x8f\xc2\xf5(\\\xe7\xbf\x1b/\xdd$\x06\x81\xed?\x00\x00\x00\x00\x00\x00\x00\x00'
p2075
tp2076
bsVcup_58a2
p2077
g22
(g23
(I0
tp2078
g25
tp2079
Rp2080
(I1
(I4
tp2081
g157
I00
S'\x85\xebQ\xb8\x1e\x85\xe3?\xcd\xcc\xcc\xcc\xcc\xcc\xdc?\x1b/\xdd$\x06\x81\xed?\x00\x00\x00\x00\x00\x00\x00\x00'
p2082
tp2083
bsVleft_wall_1
p2084
g22
(g23
(I0
tp2085
g25
tp2086
Rp2087
(I1
(I4
tp2088
g157
I00
S'H\xe1z\x14\xaeG\x12@S\xb8\x1e\x85\xebQ\xe4?\xcc\x7fH\xbf}\x1d\xed?\x00\x00\x00\x00\x00\x00\x00\x00'
p2089
tp2090
bsVc_obst2
p2091
g22
(g23
(I0
tp2092
g25
tp2093
Rp2094
(I1
(I4
tp2095
g157
I00
S"\xa1_\xe7T\xa8\xe3\x11@u\xca\xd34\x9f6\xd3?e\xaa`TR'\xed?\\\x1dZ\x8e$\xc7\x18@"
p2096
tp2097
bsVsquare_packing_box4
p2098
g22
(g23
(I0
tp2099
g25
tp2100
Rp2101
(I1
(I4
tp2102
g157
I00
S'\xc0\x8f3\xc0\x80\xc1\xda?\x82\x82\xae\x9e97\x1b\xc0L7\x89A`\xe5\xd8?\xf8m|-}\x83\x16@'
p2103
tp2104
bsVrectangular_packing_box1
p2105
g22
(g23
(I0
tp2106
g25
tp2107
Rp2108
(I1
(I4
tp2109
g157
I00
S'\xc4\x19\xdbRf\xca\t@\xe4\xe8)\xe9\xder\x1f\xc0L7\x89A`\xe5\xd8?l@\xcd\xbaP\x93\x14@'
p2110
tp2111
bsVpin_371e
p2112
g22
(g23
(I0
tp2113
g25
tp2114
Rp2115
(I1
(I4
tp2116
g157
I00
S'333333\xf3\xbfffffff\xf6?\xb8\x1e\x85\xebQ\xb8\xee?\x00\x00\x00\x00\x00\x00\x00\x00'
p2117
tp2118
bsVfridge
p2119
g22
(g23
(I0
tp2120
g25
tp2121
Rp2122
(I1
(I4
tp2123
g157
I00
S'\xd7\xa3p=\n\xd7\xeb\xbf\x00\x00\x00\x00\x00\x00\x00\xc0\xcd\xcc\xcc\xcc\xcc\xcc\xf8?\x00\x00\x00\x00\x00\x00\x00\x00'
p2124
tp2125
bsVcup_d441
p2126
g22
(g23
(I0
tp2127
g25
tp2128
Rp2129
(I1
(I4
tp2130
g157
I00
S'\n\xd7\xa3p=\n\xef?\x8f\xc2\xf5(\\\x8f\xe2?\x1b/\xdd$\x06\x81\xed?\x00\x00\x00\x00\x00\x00\x00\x00'
p2131
tp2132
bsVshelf2
p2133
g22
(g23
(I0
tp2134
g25
tp2135
Rp2136
(I1
(I4
tp2137
g157
I00
S'\x00\x00\x00\x00\x00\x00\x0e@\xaeG\xe1z\x14\xae\x07@\x9c\xc4 \xb0rh\xc1?\xd2!3\x7f|\xd9\x12@'
p2138
tp2139
bsVtop_wall_2
p2140
g22
(g23
(I0
tp2141
g25
tp2142
Rp2143
(I1
(I4
tp2144
g157
I00
S'H\xe1z\x14\xaeG\x12@\x80\x14\xaeG\xe1z\xc4?\x16HP\xfc\x18\xf3\xfd?\x00\x00\x00\x00\x00\x00\x00\x00'
p2145
tp2146
bsVc_obst0
p2147
g22
(g23
(I0
tp2148
g25
tp2149
Rp2150
(I1
(I4
tp2151
g157
I00
S"\xf3\x84\x84;\x9c\x9b\x12@h\xf97>\xa6\x96\xdc?e\xaa`TR'\xed?8\xe1\xd3\xe4\xa6Z\xfe?"
p2152
tp2153
bsVshelf1
p2154
g22
(g23
(I0
tp2155
g25
tp2156
Rp2157
(I1
(I4
tp2158
g157
I00
S'\x00\x00\x00\x00\x00\x00\x13@\xaeG\xe1z\x14\xae\x07@\x9c\xc4 \xb0rh\xc1?\xd2!3\x7f|\xd9\x12@'
p2159
tp2160
bsVsink
p2161
g22
(g23
(I0
tp2162
g25
tp2163
Rp2164
(I1
(I4
tp2165
g157
I00
S'ffffff\xd6?333333\x01@\x9a\x99\x99\x99\x99\x99\xb9\xbf\x00\x00\x00\x00\x00\x00\x00\x00'
p2166
tp2167
bsVpr2
p2168
g22
(g23
(I0
tp2169
g25
tp2170
Rp2171
(I1
(I4
tp2172
g157
I00
S'\x18+\xdc!xj\x0b@\x9a\x1a\xfb\xf0\xab\xac\x16\xc0\x9a_\x94\xa0\xbf\xd0\xc1?2\\\xba\xb5H,\xee?'
p2173
tp2174
bsVchair_12d0
p2175
g22
(g23
(I0
tp2176
g25
tp2177
Rp2178
(I1
(I4
tp2179
g157
I00
S'\\\xd2\x18\xad\xa3\xaa\xdb?Of\x83L2r\xc6?\x00\x00\x00\x00\x00\x00\x00\x00\xf8\x81\r\x14M\xa6\x17@'
p2180
tp2181
bsVright_wall_2
p2182
g22
(g23
(I0
tp2183
g25
tp2184
Rp2185
(I1
(I4
tp2186
g157
I00
S'H\xe1z\x14\xaeG\x12@&\\\x8f\xc2\xf5(\xd4\xbfxX\xa85\xcd\xbb\xf2?\x00\x00\x00\x00\x00\x00\x00\x00'
p2187
tp2188
bsVknife_block
p2189
g22
(g23
(I0
tp2190
g25
tp2191
Rp2192
(I1
(I4
tp2193
g157
I00
S'R\xb8\x1e\x85\xebQ\xe0\xbfffffff\x02@`\xe5\xd0"\xdb\xf9\xee?\x00\x00\x00\x00\x00\x00\x00\x00'
p2194
tp2195
bsVleft_wall_2
p2196
g22
(g23
(I0
tp2197
g25
tp2198
Rp2199
(I1
(I4
tp2200
g157
I00
S'H\xe1z\x14\xaeG\x12@S\xb8\x1e\x85\xebQ\xe4?xX\xa85\xcd\xbb\xf2?\x00\x00\x00\x00\x00\x00\x00\x00'
p2201
tp2202
bsVleft_wall
p2203
g22
(g23
(I0
tp2204
g25
tp2205
Rp2206
(I1
(I4
tp2207
g157
I00
S'\x9a\x99\x99\x99\x99\x99\x07@H\xe1z\x14\xaeG\xff?\x9c\xc4 \xb0rh\xc1?\x00\x00\x00\x00\x00\x00\x00\x00'
p2208
tp2209
bsVkitchen
p2210
g22
(g23
(I0
tp2211
g25
tp2212
Rp2213
(I1
(I4
tp2214
g157
I00
S'\x00\x00\x00\x00\x00\x00\x00\x00\x00\x00\x00\x00\x00\x00\x00\x00\x00\x00\x00\x00\x00\x00\x00\x00\x00\x00\x00\x00\x00\x00\x00\x00'
p2215
tp2216
bsVtable2
p2217
g22
(g23
(I0
tp2218
g25
tp2219
Rp2220
(I1
(I4
tp2221
g157
I00
S'\x00\x00\x00\x00\x00\x00\x13@\x80\x14\xaeG\xe1z\xc4?S\x96!\x8euq\xec?\xd2!3\x7f|\xd9\x12@'
p2222
tp2223
bsVc_obst8
p2224
g22
(g23
(I0
tp2225
g25
tp2226
Rp2227
(I1
(I4
tp2228
g157
I00
S"\x1c\x05i\xac\x83`\x12@x\xefs\x8e\x80)\xb8?e\xaa`TR'\xed?\xf2J\xb6=V\xeb\x16@"
p2229
tp2230
bsVplate_b4e7
p2231
g22
(g23
(I0
tp2232
g25
tp2233
Rp2234
(I1
(I4
tp2235
g157
I00
S'\x14\xaeG\xe1z\x14\xf2\xbf\x14\xaeG\xe1z\x14\x00@=\n\xd7\xa3p=\xf2?\x00\x00\x00\x00\x00\x00\x00\x00'
p2236
tp2237
bsVcooker
p2238
g22
(g23
(I0
tp2239
g25
tp2240
Rp2241
(I1
(I4
tp2242
g157
I00
S'\xaeG\xe1z\x14\xae\xff?\x85\xebQ\xb8\x1e\x85\xfb?\x00\x00\x00\x00\x00\x00\xe8?\x00\x00\x00\x00\x00\x00\x00\x00'
p2243
tp2244
bsVpin_a091
p2245
g22
(g23
(I0
tp2246
g25
tp2247
Rp2248
(I1
(I4
tp2249
g157
I00
S'\xdb\xf9~j\xbct\xf7\xbf)\\\x8f\xc2\xf5(\x02@\xb8\x1e\x85\xebQ\xb8\xfa?\x00\x00\x00\x00\x00\x00\x00\x00'
p2250
tp2251
bsVside_wall_2
p2252
g22
(g23
(I0
tp2253
g25
tp2254
Rp2255
(I1
(I4
tp2256
g157
I00
S'\xfa\xff\xff\xff\xff\xff\x14@\x00\x00\x00\x00\x00\x00\x00\x00\x9c\xc4 \xb0rh\xc1?\x18-DT\xfb!\xf9?'
p2257
tp2258
bsVside_wall_3
p2259
g22
(g23
(I0
tp2260
g25
tp2261
Rp2262
(I1
(I4
tp2263
g157
I00
S'\x00\x00\x00\x00\x00\x00\xfc?H\xe1z\x14\xaeG\t@\x9c\xc4 \xb0rh\xc1?\x00\x00\x00\x00\x00\x00\x00\x00'
p2264
tp2265
bsVmixer
p2266
g22
(g23
(I0
tp2267
g25
tp2268
Rp2269
(I1
(I4
tp2270
g157
I00
S'\n\xd7\xa3p=\n\xfb?ffffff\x02@d;\xdfO\x8d\x97\xee?\x00\x00\x00\x00\x00\x00\x00\x00'
p2271
tp2272
bsVside_wall_1
p2273
g22
(g23
(I0
tp2274
g25
tp2275
Rp2276
(I1
(I4
tp2277
g157
I00
S'\xf4\xff\xff\xff\xff\xff\xfb\xbf\x00\x00\x00\x00\x00\x00\x00\x00\x9c\xc4 \xb0rh\xc1?\x18-DT\xfb!\xf9?'
p2278
tp2279
bsVbottom_wall_1
p2280
g22
(g23
(I0
tp2281
g25
tp2282
Rp2283
(I1
(I4
tp2284
g157
I00
S'H\xe1z\x14\xaeG\x12@\x80\x14\xaeG\xe1z\xc4?\xcc\x7fH\xbf}\x1d\xed?\x00\x00\x00\x00\x00\x00\x00\x00'
p2285
tp2286
bsVcan
p2287
g22
(g23
(I0
tp2288
g25
tp2289
Rp2290
(I1
(I4
tp2291
g157
I00
S'\x00\x00\x00\x00\x00\x00\xf4\xbfH\xe1z\x14\xaeG\xe1\xbf\n\xd7\xa3p=\n\xef?\x00\x00\x00\x00\x00\x00\x00\x00'
p2292
tp2293
bsVright_wall
p2294
g22
(g23
(I0
tp2295
g25
tp2296
Rp2297
(I1
(I4
tp2298
g157
I00
S'\x9a\x99\x99\x99\x99\x99\x07@H\xe1z\x14\xaeG\xff\xbf\x9c\xc4 \xb0rh\xc1?\x00\x00\x00\x00\x00\x00\x00\x00'
p2299
tp2300
bsVcoffe_machine
p2301
g22
(g23
(I0
tp2302
g25
tp2303
Rp2304
(I1
(I4
tp2305
g157
I00
S'\\\x8f\xc2\xf5(\\\xf5\xbf\xb8\x1e\x85\xebQ\xb8\xee?\n\xd7\xa3p=\n\xef?\x00\x00\x00\x00\x00\x00\x00\x00'
p2306
tp2307
bsVcomputer_chair
p2308
g22
(g23
(I0
tp2309
g25
tp2310
Rp2311
(I1
(I4
tp2312
g157
I00
S'\xcd\xcc\xcc\xcc\xcc\xcc\x10@\x00\x00\x00\x00\x00\x00\xf8\xbf\xa00\xb6\x10\xe4\xa9\x95\xbf\x00\x00\x00\x00\x00\x00\x00\x00'
p2313
tp2314
bssS'robot_dof_values'
p2315
g22
(g23
(I0
tp2316
g25
tp2317
Rp2318
(I1
(I39
tp2319
g157
I00
S'\x00\x00\x00\x00\x00\x00\x00\x00\x00\x00\x00\x00\x00\x00\x00\x00\x00\x00\x00\x00\x00\x00\x00\x00\x00\x00\x00\x00\x00\x00\x00\x00\x00\x00\x00\x00\x00\x00\x00\x00\x00\x00\x00\x00\x00\x00\x00\x00\x00\x00\x00\x00\x00\x00\x00\x00\x00\x00\x00\x00\x00\x00\x00\x00\x00\x00\x00\x00\x00\x00\x00\x00\x00\x00\x00\x00\x00\x00\x00\x00\x00\x00\x00\x00\x00\x00\x00\x00\x00\x00\x00\x00\x00\x00\x00\x00@d;\xdfO\x8d\x87?\x00\x00\x00\x00\x00\x00\x00\x00\x00\x00\x00\x00\x00\x00\x00\x00\x00\x00\x00\x00\x00\x00\x00\x00\xee\xed\t\xf1\xcc\xa4\xf4?\x00\x00\x00\x00\x00\x00\x00\x00N"\xd0^p\xf8\x00\xc0\x00\x00\x00\x00\x00\x00\x00\x00\x9b\x03\r.\x04V\xe6\xbf\x16\xecEk\x17\x0f\xb1\xbc\x00\x00\x00\x00\x00\x00\x00\x00\x00\x00\x00\x00\x00\x00\xb2<\x00\x00\x00\x00\x00\x00\x00\x00\x00\x00\x00\x00\x00\x00\xe0\xbc\x00\x00\x00\x00\x00\x00\x00\x00\x00\x00\x00\x00\x00\x00\x00\x00\xec\xed\t\xf1\xcc\xa4\xf4?\x00\x00\x00\x00\x00\x00\xb0\xbcN"\xd0^p\xf8\x00\xc0\x00\x00\x00\x00\x00\x00\x00\x00\x9d\x03\r.\x04V\xe6\xbf\x00\x00\x00\x00\x00\x00\x00\x00\xcd9\xe3\xc17\x89\xe1?\x00\x00\x00\x00\x00\x00\xbe\xbc\x00\x00\x00\x00\x00\x00\x00\x00\x00\x00\x00\x00\x00\x00\xe0<\x00\x00\x00\x00\x00\x00\x00\x00'
p2320
tp2321
bsS'is_holding'
p2322
I00
sbsS'holding_collides'
p2323
NsS'parent_ternary_predicates'
p2324
(dp2325
sS'cached_place_paths'
p2326
(dp2327
(g625
g1150
tp2328
(lp2329
g22
(g23
(I0
tp2330
g25
tp2331
Rp2332
(I1
(I3
tp2333
g157
I00
S'j+9\xf3\xcd\x8a\x07@_,\xce\x01a\x85\x1c\xc0f6\xa0\xc3?K\x13@'
p2334
tp2335
bas(g1014
g148
tp2336
g223
s(g663
g148
tp2337
g274
s(g934
g1150
tp2338
(lp2339
g22
(g23
(I0
tp2340
g25
tp2341
Rp2342
(I1
(I3
tp2343
g157
I00
S'\x1b\x92\xdb\x89\x91\xf2\xe1?\xb1A;\x8d\xb7\x84\x1b\xc0T\x00\xea\xba\xde<\xe5?'
p2344
tp2345
bas(g663
g1150
tp2346
(lp2347
g22
(g23
(I0
tp2348
g25
tp2349
Rp2350
(I1
(I3
tp2351
g157
I00
S'\xe3"\xc9\x14\xb2\xe9\xe8?\x00=\xc2\x83\x82Q\x18\xc0\xca\xf8\xac5\x15\x1d\x0c@'
p2352
tp2353
bas(g934
g148
tp2354
g496
s(g884
g1150
tp2355
(lp2356
g22
(g23
(I0
tp2357
g25
tp2358
Rp2359
(I1
(I3
tp2360
g157
I00
S'\x84\xcb1\x82\x1dy\x06@i\xd2k\x1f\x1c\x0e \xc0]\xf2\xe7\x10O\\\x08@'
p2361
tp2362
bas(g884
g148
tp2363
g364
s(g12
g148
tp2364
g313
s(g785
g148
tp2365
g150
s(g785
g1150
tp2366
(lp2367
g22
(g23
(I0
tp2368
g25
tp2369
Rp2370
(I1
(I3
tp2371
g157
I00
S'\xc6\xa77rc\xd2\x01@\x83\xde`\xa4^I\x1f\xc0\xf1u\xd7R\xb6\x89\x00@'
p2372
tp2373
bas(g1014
g1150
tp2374
(lp2375
g22
(g23
(I0
tp2376
g25
tp2377
Rp2378
(I1
(I3
tp2379
g157
I00
S'\xe0\xc9\x0f;\x04\xfc\xba\xbf\xae\x17\x12\x14\xafw\x1d\xc0\x99\x85\x02\xba\x8c\xfd\xec?'
p2380
tp2381
bas(g12
g1150
tp2382
(lp2383
g22
(g23
(I0
tp2384
g25
tp2385
Rp2386
(I1
(I3
tp2387
g157
I00
S'\x9e\xdbH\x1d\xedd\x00@\xea>\xd8p_#\x18\xc0\xf0\x96\x108\x15\xb5\x04@'
p2388
tp2389
bas(g717
g1150
tp2390
(lp2391
g22
(g23
(I0
tp2392
g25
tp2393
Rp2394
(I1
(I3
tp2395
g157
I00
S'\xa0\x01VvjU\xe1?\x9ezQ\xef\xb17\x1b\xc0\xf4@\xf4\x87\x84]\x11@'
p2396
tp2397
bas(g717
g148
tp2398
g541
s(g625
g148
tp2399
g433
ssS'parent_binary_predicates'
p2400
(dp2401
sS'nodes'
p2402
(dp2403
g1153
(lp2404
I0
aI0
aI0
aI0
aI0
aI0
aI00
aI01
aI00
aI01
aI00
asg1150
(lp2405
I0
aI0
aI0
aI0
aI0
aI0
aI00
aI01
aI00
aI01
aI00
asg148
(lp2406
I0
aI0
aI0
aI0
aI0
aI0
aI00
aI01
aI01
aI01
aI00
asg272
(lp2407
I0
aI0
aI0
ag1721
(g157
S'\x8a\xd72\x08\xbc\xca\xaf?'
p2408
tp2409
Rp2410
ag1721
(g157
S'\xb2O\x02C\xf3\x8c\x18\xc0'
p2411
tp2412
Rp2413
ag1721
(g157
S',5##\xc5\xf1\x13@'
p2414
tp2415
Rp2416
aI01
aI00
aI00
aI00
aI00
asg539
(lp2417
I0
aI0
aI0
ag1721
(g157
S' /\xcb\x92\x06\x93\xba?'
p2418
tp2419
Rp2420
ag1721
(g157
S'n\x82\x86C]_\x1d\xc0'
p2421
tp2422
Rp2423
ag1721
(g157
S'R\x1dG\xa2\xd1\x86\x16@'
p2424
tp2425
Rp2426
aI01
aI00
aI00
aI00
aI00
asg147
(lp2427
I0
aI0
aI0
ag1721
(g157
S'\x86\xeb>D\xea#\xfd?'
p2428
tp2429
Rp2430
ag1721
(g157
S'\xd2\x901x\x10\x04\x1d\xc0'
p2431
tp2432
Rp2433
ag1721
(g157
S'\xa5\xd4\xa76\xa2\xde\x0e@'
p2434
tp2435
Rp2436
aI01
aI00
aI00
aI00
aI00
asg431
(lp2437
I0
aI0
aI0
ag1721
(g157
S'\xc5\t\xdbRf\xca\t@'
p2438
tp2439
Rp2440
ag1721
(g157
S'O\xe9)\xe9\xder\x1f\xc0'
p2441
tp2442
Rp2443
ag1721
(g157
S'k@\xcd\xbaP\x93\x14@'
p2444
tp2445
Rp2446
aI01
aI00
aI00
aI01
aI00
asg362
(lp2447
I0
aI0
aI0
ag1721
(g157
S'j\xfdnt\x87x\xff?'
p2448
tp2449
Rp2450
ag1721
(g157
S'|\xe1\xebtF,\x1f\xc0'
p2451
tp2452
Rp2453
ag1721
(g157
S'%J\x7f\x18g\xc2\xf2?'
p2454
tp2455
Rp2456
aI01
aI00
aI00
aI00
aI00
asg494
(lp2457
I0
aI0
aI0
ag1721
(g157
S'\x120\xac\xfa\x8a\xf8\xf2?'
p2458
tp2459
Rp2460
ag1721
(g157
S'\xe1{\xe1A\xd3o\x19\xc0'
p2461
tp2462
Rp2463
ag1721
(g157
S'B\xf6\xf0\xd6\xd1\x93\xec?'
p2464
tp2465
Rp2466
aI01
aI00
aI00
aI00
aI00
asg311
(lp2467
I0
aI0
aI0
ag1721
(g157
S'DG\x80\xc20n\xf7?'
p2468
tp2469
Rp2470
ag1721
(g157
S'dr[\xa8N\xd6\x16\xc0'
p2471
tp2472
Rp2473
ag1721
(g157
S'\xb9\x9ek\xb1\x03O\xed?'
p2474
tp2475
Rp2476
aI01
aI00
aI01
aI01
aI00
asg221
(lp2477
I0
aI0
aI0
ag1721
(g157
S'p\x8f3\xc0\x80\xc1\xda?'
p2478
tp2479
Rp2480
ag1721
(g157
S'|\x82\xae\x9e97\x1b\xc0'
p2481
tp2482
Rp2483
ag1721
(g157
S'\xf8m|-}\x83\x16@'
p2484
tp2485
Rp2486
aI01
aI00
aI00
aI00
aI00
assS'mc_place_path'
p2487
(dp2488
sS'parent_state'
p2489
NsS'goal_entities'
p2490
(lp2491
S'square_packing_box1'
p2492
ag148
asS'binary_edges'
p2493
(dp2494
(g362
g221
tp2495
(lp2496
I00
aI00
aI00
as(g362
g272
tp2497
(lp2498
I00
aI00
aI00
as(g147
g494
tp2499
(lp2500
I00
aI00
aI00
as(g147
g147
tp2501
(lp2502
I00
aI00
aI00
as(g539
g494
tp2503
(lp2504
I00
aI00
aI00
as(g539
g147
tp2505
(lp2506
I00
aI00
aI00
as(g221
g539
tp2507
(lp2508
I00
aI01
aI00
as(g362
g311
tp2509
(lp2510
I00
aI00
aI00
as(g431
g147
tp2511
(lp2512
I00
aI00
aI00
as(g272
g272
tp2513
(lp2514
I00
aI00
aI00
as(g539
g1150
tp2515
(lp2516
g1721
(g29
(S'b1'
p2517
I0
I1
tp2518
Rp2519
(I3
S'|'
p2520
NNNI-1
I-1
I0
tp2521
bS'\x01'
p2522
tp2523
Rp2524
aI00
aI01
as(g1153
g1150
tp2525
(lp2526
I00
aI00
aI00
as(g272
g221
tp2527
(lp2528
I00
aI00
aI00
as(g1150
g221
tp2529
(lp2530
I00
aI00
aI00
as(g311
g148
tp2531
(lp2532
I00
aI00
aI00
as(g1153
g539
tp2533
(lp2534
I00
aI00
aI00
as(g539
g221
tp2535
(lp2536
I00
aI00
aI00
as(g147
g1153
tp2537
(lp2538
g2524
aI00
aI00
as(g362
g362
tp2539
(lp2540
I00
aI00
aI00
as(g1150
g362
tp2541
(lp2542
I00
aI00
aI00
as(g494
g539
tp2543
(lp2544
I00
aI01
aI00
as(g539
g148
tp2545
(lp2546
I00
aI00
aI00
as(g431
g494
tp2547
(lp2548
I00
aI00
aI00
as(g272
g431
tp2549
(lp2550
I00
aI00
aI00
as(g311
g311
tp2551
(lp2552
I00
aI00
aI00
as(g539
g1153
tp2553
(lp2554
g2524
aI00
aI00
as(g1150
g539
tp2555
(lp2556
I00
aI00
aI00
as(g1150
g494
tp2557
(lp2558
I00
aI00
aI00
as(g1150
g147
tp2559
(lp2560
I00
aI00
aI00
as(g494
g148
tp2561
(lp2562
I00
aI00
aI00
as(g221
g272
tp2563
(lp2564
I00
aI00
aI00
as(g431
g272
tp2565
(lp2566
I00
aI00
aI00
as(g494
g431
tp2567
(lp2568
I00
aI00
aI00
as(g1150
g272
tp2569
(lp2570
I00
aI00
aI00
as(g1153
g148
tp2571
(lp2572
I00
aI00
aI00
as(g311
g539
tp2573
(lp2574
I00
aI00
aI00
as(g272
g494
tp2575
(lp2576
I00
aI00
aI00
as(g1153
g494
tp2577
(lp2578
I00
aI00
aI00
as(g494
g1153
tp2579
(lp2580
g2524
aI00
aI00
as(g147
g362
tp2581
(lp2582
I00
aI01
aI00
as(g221
g311
tp2583
(lp2584
I00
aI00
aI00
as(g147
g539
tp2585
(lp2586
I00
aI01
aI00
as(g221
g148
tp2587
(lp2588
I00
aI00
aI00
as(g1153
g1153
tp2589
(lp2590
I00
aI00
aI00
as(g494
g272
tp2591
(lp2592
I00
aI01
aI00
as(g311
g362
tp2593
(lp2594
I00
aI00
aI00
as(g148
g311
tp2595
(lp2596
I00
aI00
aI00
as(g431
g1150
tp2597
(lp2598
g2524
aI00
aI01
as(g148
g431
tp2599
(lp2600
I00
aI00
aI00
as(g221
g147
tp2601
(lp2602
I00
aI00
aI00
as(g147
g311
tp2603
(lp2604
I00
aI00
aI00
as(g494
g1150
tp2605
(lp2606
g2524
aI00
aI01
as(g147
g431
tp2607
(lp2608
I00
aI00
aI00
as(g494
g494
tp2609
(lp2610
I00
aI00
aI00
as(g431
g539
tp2611
(lp2612
I00
aI00
aI00
as(g1150
g148
tp2613
(lp2614
I00
aI00
aI00
as(g148
g362
tp2615
(lp2616
I00
aI00
aI00
as(g272
g148
tp2617
(lp2618
I00
aI00
aI00
as(g1153
g431
tp2619
(lp2620
I00
aI00
aI00
as(g148
g221
tp2621
(lp2622
I00
aI00
aI00
as(g147
g221
tp2623
(lp2624
I00
aI01
aI00
as(g431
g1153
tp2625
(lp2626
g2524
aI00
aI00
as(g221
g1150
tp2627
(lp2628
g2524
aI00
aI01
as(g431
g362
tp2629
(lp2630
I00
aI00
aI00
as(g272
g539
tp2631
(lp2632
I00
aI00
aI00
as(g272
g1150
tp2633
(lp2634
g2524
aI00
aI01
as(g148
g147
tp2635
(lp2636
I00
aI00
aI00
as(g1153
g221
tp2637
(lp2638
I00
aI00
aI00
as(g1153
g272
tp2639
(lp2640
I00
aI00
aI00
as(g431
g148
tp2641
(lp2642
I00
aI00
aI00
as(g362
g431
tp2643
(lp2644
I00
aI00
aI00
as(g311
g431
tp2645
(lp2646
I00
aI00
aI00
as(g148
g494
tp2647
(lp2648
I00
aI00
aI00
as(g1150
g1150
tp2649
(lp2650
I00
aI00
aI00
as(g362
g147
tp2651
(lp2652
I00
aI00
aI00
as(g311
g494
tp2653
(lp2654
I00
aI01
aI00
as(g1150
g311
tp2655
(lp2656
I00
aI00
aI00
as(g539
g272
tp2657
(lp2658
I00
aI00
aI00
as(g1150
g431
tp2659
(lp2660
I00
aI00
aI00
as(g311
g1153
tp2661
(lp2662
g2524
aI00
aI00
as(g362
g539
tp2663
(lp2664
I00
aI00
aI00
as(g147
g148
tp2665
(lp2666
I00
aI00
aI00
as(g311
g272
tp2667
(lp2668
I00
aI01
aI00
as(g272
g311
tp2669
(lp2670
I00
aI00
aI00
as(g539
g311
tp2671
(lp2672
I00
aI00
aI00
as(g1153
g362
tp2673
(lp2674
I00
aI00
aI00
as(g539
g431
tp2675
(lp2676
I00
aI00
aI00
as(g494
g362
tp2677
(lp2678
I00
aI00
aI00
as(g362
g1150
tp2679
(lp2680
g2524
aI00
aI01
as(g431
g431
tp2681
(lp2682
I00
aI00
aI00
as(g221
g362
tp2683
(lp2684
I00
aI00
aI00
as(g311
g221
tp2685
(lp2686
I00
aI00
aI00
as(g539
g362
tp2687
(lp2688
I00
aI00
aI00
as(g539
g539
tp2689
(lp2690
I00
aI00
aI00
as(g221
g431
tp2691
(lp2692
I00
aI00
aI00
as(g362
g148
tp2693
(lp2694
I00
aI00
aI00
as(g494
g311
tp2695
(lp2696
I00
aI00
aI00
as(g147
g1150
tp2697
(lp2698
g2524
aI00
aI01
as(g148
g539
tp2699
(lp2700
I00
aI00
aI00
as(g431
g311
tp2701
(lp2702
I00
aI00
aI00
as(g272
g147
tp2703
(lp2704
I00
aI00
aI00
as(g148
g1150
tp2705
(lp2706
I00
aI00
aI00
as(g362
g494
tp2707
(lp2708
I00
aI00
aI00
as(g1153
g147
tp2709
(lp2710
I00
aI00
aI00
as(g362
g1153
tp2711
(lp2712
g2524
aI00
aI00
as(g494
g147
tp2713
(lp2714
I00
aI01
aI00
as(g148
g148
tp2715
(lp2716
I00
aI00
aI00
as(g431
g221
tp2717
(lp2718
I00
aI00
aI00
as(g272
g1153
tp2719
(lp2720
g2524
aI00
aI00
as(g221
g1153
tp2721
(lp2722
g2524
aI00
aI00
as(g148
g1153
tp2723
(lp2724
I00
aI00
aI00
as(g148
g272
tp2725
(lp2726
I00
aI00
aI00
as(g494
g221
tp2727
(lp2728
I00
aI00
aI00
as(g221
g494
tp2729
(lp2730
I00
aI00
aI00
as(g147
g272
tp2731
(lp2732
I00
aI00
aI00
as(g1150
g1153
tp2733
(lp2734
I00
aI00
aI00
as(g311
g147
tp2735
(lp2736
I00
aI01
aI00
as(g272
g362
tp2737
(lp2738
I00
aI00
aI00
as(g221
g221
tp2739
(lp2740
I00
aI00
aI00
as(g311
g1150
tp2741
(lp2742
g2524
aI00
aI01
as(g1153
g311
tp2743
(lp2744
I00
aI00
aI00
assg623
g624
sS'pick_in_way'
p2745
(itrajectory_representation.predicates.pick_in_way
PickInWay
p2746
(dp2747
g145
(dp2748
g272
g692
sg539
g754
sg147
g810
sg431
g865
sg362
g915
sg494
g965
sg311
g995
sg221
g1045
ssg584
(dp2749
g272
(lp2750
Vsquare_packing_box1
p2751
aVsquare_packing_box3
p2752
asg539
(lp2753
Vrectangular_packing_box3
p2754
aVsquare_packing_box3
p2755
aVsquare_packing_box4
p2756
asg147
(lp2757
Vsquare_packing_box1
p2758
aVsquare_packing_box3
p2759
asg431
(lp2760
sg362
(lp2761
Vrectangular_packing_box3
p2762
asg494
(lp2763
Vsquare_packing_box1
p2764
asg311
(lp2765
sg221
(lp2766
Vrectangular_packing_box3
p2767
assg623
(lp2768
g431
ag1153
ag148
ag1150
ag311
ag1153
ag148
ag1150
ag1153
ag148
ag1150
ag1153
ag148
ag1150
ag1153
ag148
ag1150
ag1153
ag148
ag1150
ag1153
ag148
ag1150
ag1153
ag148
ag1150
asg626
g627
sg78
(dp2769
sg661
g662
sg1078
Nsg1084
g662
sg1081
(dp2770
sg1083
I8
sg1145
I01
sg1085
Nsg1086
(dp2771
(g362
g221
tp2772
I00
s(g362
g272
tp2773
I00
s(g147
g494
tp2774
I00
s(g147
g147
tp2775
I00
s(g539
g494
tp2776
I00
s(g539
g147
tp2777
I00
s(g221
g539
tp2778
I01
s(g362
g311
tp2779
I00
s(g431
g147
tp2780
I00
s(g272
g272
tp2781
I00
s(g539
g1150
tp2782
I00
s(g1153
g1150
tp2783
I00
s(g272
g221
tp2784
I00
s(g1150
g221
tp2785
I00
s(g311
g148
tp2786
I00
s(g1153
g539
tp2787
I00
s(g539
g221
tp2788
I00
s(g147
g1153
tp2789
I00
s(g362
g362
tp2790
I00
s(g1150
g362
tp2791
I00
s(g494
g539
tp2792
I01
s(g539
g148
tp2793
I00
s(g431
g494
tp2794
I00
s(g272
g431
tp2795
I00
s(g311
g311
tp2796
I00
s(g539
g1153
tp2797
I00
s(g1150
g539
tp2798
I00
s(g1150
g494
tp2799
I00
s(g1150
g147
tp2800
I00
s(g494
g148
tp2801
I00
s(g221
g272
tp2802
I00
s(g431
g272
tp2803
I00
s(g494
g431
tp2804
I00
s(g1150
g272
tp2805
I00
s(g1153
g148
tp2806
I00
s(g311
g539
tp2807
I00
s(g272
g494
tp2808
I00
s(g1153
g494
tp2809
I00
s(g494
g1153
tp2810
I00
s(g147
g362
tp2811
I01
s(g221
g311
tp2812
I00
s(g147
g539
tp2813
I01
s(g221
g148
tp2814
I00
s(g1153
g1153
tp2815
I00
s(g494
g272
tp2816
I01
s(g311
g362
tp2817
I00
s(g148
g311
tp2818
I00
s(g431
g1150
tp2819
I00
s(g148
g431
tp2820
I00
s(g221
g147
tp2821
I00
s(g147
g311
tp2822
I00
s(g494
g1150
tp2823
I00
s(g147
g431
tp2824
I00
s(g494
g494
tp2825
I00
s(g431
g539
tp2826
I00
s(g1150
g148
tp2827
I00
s(g148
g362
tp2828
I00
s(g272
g148
tp2829
I00
s(g1153
g431
tp2830
I00
s(g148
g221
tp2831
I00
s(g147
g221
tp2832
I01
s(g431
g1153
tp2833
I00
s(g221
g1150
tp2834
I00
s(g431
g362
tp2835
I00
s(g272
g539
tp2836
I00
s(g272
g1150
tp2837
I00
s(g148
g147
tp2838
I00
s(g1153
g221
tp2839
I00
s(g1153
g272
tp2840
I00
s(g431
g148
tp2841
I00
s(g362
g431
tp2842
I00
s(g311
g431
tp2843
I00
s(g148
g494
tp2844
I00
s(g1150
g1150
tp2845
I00
s(g362
g147
tp2846
I00
s(g311
g494
tp2847
I01
s(g1150
g311
tp2848
I00
s(g539
g272
tp2849
I00
s(g1150
g431
tp2850
I00
s(g311
g1153
tp2851
I00
s(g362
g539
tp2852
I00
s(g147
g148
tp2853
I00
s(g311
g272
tp2854
I01
s(g272
g311
tp2855
I00
s(g539
g311
tp2856
I00
s(g1153
g362
tp2857
I00
s(g539
g431
tp2858
I00
s(g494
g362
tp2859
I00
s(g362
g1150
tp2860
I00
s(g431
g431
tp2861
I00
s(g221
g362
tp2862
I00
s(g311
g221
tp2863
I00
s(g539
g362
tp2864
I00
s(g539
g539
tp2865
I00
s(g221
g431
tp2866
I00
s(g362
g148
tp2867
I00
s(g494
g311
tp2868
I00
s(g147
g1150
tp2869
I00
s(g148
g539
tp2870
I00
s(g431
g311
tp2871
I00
s(g272
g147
tp2872
I00
s(g148
g1150
tp2873
I00
s(g362
g494
tp2874
I00
s(g1153
g147
tp2875
I00
s(g362
g1153
tp2876
I00
s(g494
g147
tp2877
I01
s(g148
g148
tp2878
I00
s(g431
g221
tp2879
I00
s(g272
g1153
tp2880
I00
s(g221
g1153
tp2881
I00
s(g148
g1153
tp2882
I00
s(g148
g272
tp2883
I00
s(g494
g221
tp2884
I00
s(g221
g494
tp2885
I00
s(g147
g272
tp2886
I00
s(g1150
g1153
tp2887
I00
s(g311
g147
tp2888
I01
s(g272
g362
tp2889
I00
s(g221
g221
tp2890
I00
s(g311
g1150
tp2891
I00
s(g1153
g311
tp2892
I00
ssg1144
NsbsS'robot_pose'
p2893
g22
(g23
(I0
tp2894
g25
tp2895
Rp2896
(I1
(I1
I3
tp2897
g157
I00
S'\x18+\xdc!xj\x0b@\x9a\x1a\xfb\xf0\xab\xac\x16\xc02\\\xba\xb5H,\xee?'
p2898
tp2899
bsS'is_holding_goal_entity'
p2900
(itrajectory_representation.predicates.is_holding_goal_entity
IsHoldingGoalEntity
p2901
(dp2902
g2490
g2491
sg1085
NsbsS'mc_pick_path'
p2903
(dp2904
sS'current_collides'
p2905
g627
sbasS'seed'
p2906
NsS'state_prime'
p2907
(lp2908
sS'problem_idx'
p2909
I230
sb.