(itrajectory_representation.trajectory
Trajectory
p0
(dp1
S'rewards'
p2
(lp3
I0
aI10
asS'actions'
p4
(lp5
(itrajectory_representation.operator
Operator
p6
(dp7
S'is_skeleton'
p8
I00
sS'discrete_parameters'
p9
(dp10
S'object'
p11
Vrectangular_packing_box4
p12
sS'two_arm_place_region'
p13
S'loading_region'
p14
sS'two_arm_place_object'
p15
g12
ssS'type'
p16
S'two_arm_pick_two_arm_place'
p17
sS'continuous_parameters'
p18
(dp19
S'q_goal'
p20
cnumpy.core.multiarray
_reconstruct
p21
(cnumpy
ndarray
p22
(I0
tp23
S'b'
p24
tp25
Rp26
(I1
(I3
tp27
cnumpy
dtype
p28
(S'f8'
p29
I0
I1
tp30
Rp31
(I3
S'<'
p32
NNNI-1
I-1
I0
tp33
bI00
S'Jo1t\xa4\x13\xd2?\x87\x0f:\xadGv\x18\xc0_\x07\xc7\x18\x0b\xcc\xf6\xbf'
p34
tp35
bsS'place'
p36
(dp37
g20
g21
(g22
(I0
tp38
g24
tp39
Rp40
(I1
(I3
tp41
g31
I00
S'0\xad\xff\xf5i!\xd2?1\xa0OD\x8a\xc9\x1d\xc0\x98\x12\x14\x14\xffz\x00\xc0'
p42
tp43
bssS'pick'
p44
(dp45
g20
g26
sssS'low_level_motion'
p46
(lp47
g21
(g22
(I0
tp48
g24
tp49
Rp50
(I1
(I3
tp51
g31
I00
S'N?>\xed\x17\xe2\xd5?X\xfc\x8e\xf7\xf0\x05\x17\xc0\x86[o\x93v\x8e\x18@'
p52
tp53
bag26
ag26
asba(itrajectory_representation.operator
Operator
p54
(dp55
g8
I00
sg9
(dp56
g11
Vsquare_packing_box1
p57
sS'two_arm_place_region'
p58
S'home_region'
p59
sS'two_arm_place_object'
p60
g57
ssg16
S'two_arm_pick_two_arm_place'
p61
sg18
(dp62
g20
g21
(g22
(I0
tp63
g24
tp64
Rp65
(I1
(I3
tp66
g31
I00
S'z6w_\x07\x10\x08@\xc9\xd95\x02l\x15\x19\xc0F\xecMH\x81\x88\xfa\xbf'
p67
tp68
bsg36
(dp69
g20
g21
(g22
(I0
tp70
g24
tp71
Rp72
(I1
(I3
tp73
g31
I00
S"x#\xe3\x0bx\xea\xe2?x'$\x1bm]\xfd\xbf\x98(mB\xfb\x8a\x06@"
p74
tp75
bssg44
(dp76
g20
g65
sssg46
(lp77
g21
(g22
(I0
tp78
g24
tp79
Rp80
(I1
(I3
tp81
g31
I00
S'\x10\xad\xff\xf5i!\xd2?/\xa0OD\x8a\xc9\x1d\xc0\xcc#:\xca{\xe4\x10@'
p82
tp83
bag21
(g22
(I0
tp84
g24
tp85
Rp86
(I1
(I3
tp87
g28
(S'f8'
p88
I0
I1
tp89
Rp90
(I3
S'<'
p91
NNNI-1
I-1
I0
tp92
bI00
S'\xd23W\xd6\xdd\xe3\xe6?\xdc\xcai,~\xa9\x1c\xc0\xe4\x03\x93/\x16_\x04\xc0'
p93
tp94
bag21
(g22
(I0
tp95
g24
tp96
Rp97
(I1
(I3
tp98
g90
I00
S'X\xa4u\xbc=r\xf6?\x90\xee\xc4\x1eW\xf8\x1b\xc0\xcc: \xa4-\x95\x01\xc0'
p99
tp100
bag21
(g22
(I0
tp101
g24
tp102
Rp103
(I1
(I3
tp104
g90
I00
S'4#\xe8i\x80D\xf8?\xdd\x1dlTl\\\x19\xc0m\xc1\x1a\xec\xde\x01\x01\xc0'
p105
tp106
bag21
(g22
(I0
tp107
g24
tp108
Rp109
(I1
(I3
tp110
g90
I00
S'!\x83\xc0\xf3W\x85\xff?\xed\x8f\x90/y\xfd\x16\xc06jP\xfe\x98\xf5\xf4\xbf'
p111
tp112
bag21
(g22
(I0
tp113
g24
tp114
Rp115
(I1
(I3
tp116
g90
I00
S'nv\xf9k\xe2Y\x05@\xbf\xa3\xf80pj\x16\xc0\x85\x14\xd6\xdd\x83\x18\x04\xc0'
p117
tp118
bag65
ag65
asbasS'filename'
p119
S''
p120
sS'states'
p121
(lp122
(itrajectory_representation.shortest_path_pick_and_place_state
ShortestPathPaPState
p123
(dp124
S'place_used'
p125
(dp126
(Vsquare_packing_box1
p127
g59
tp128
(itrajectory_representation.operator
Operator
p129
(dp130
g8
I01
sg9
(dp131
S'region'
p132
g59
sg11
g127
ssg16
S'two_arm_place'
p133
sg18
(dp134
g20
g21
(g22
(I0
tp135
g24
tp136
Rp137
(I1
(I3
tp138
g31
I00
S"x#\xe3\x0bx\xea\xe2?x'$\x1bm]\xfd\xbf\x98(mB\xfb\x8a\x06@"
p139
tp140
bssg46
(lp141
g21
(g22
(I0
tp142
g24
tp143
Rp144
(I1
(I3
tp145
g31
I00
S'l6w_\x07\x10\x08@\xca\xd95\x02l\x15\x19\xc0N\xecMH\x81\x88\xfa\xbf'
p146
tp147
bag21
(g22
(I0
tp148
g24
tp149
Rp150
(I1
(I3
tp151
g90
I00
S'\x16\x9e\xd06H\xd3\x04@\xe5\xe1\xfb\xc5\xb8\xd1\x16\xc0es\x86\x03\xdb\x8e\x17@'
p152
tp153
bag21
(g22
(I0
tp154
g24
tp155
Rp156
(I1
(I3
tp157
g90
I00
S'/\xe1\x02^.|\x00@\xb8\xae\xc5\xcfF\x16\x17\xc0\xf8\x01)d\xc5\xf9\xe2?'
p158
tp159
bag21
(g22
(I0
tp160
g24
tp161
Rp162
(I1
(I3
tp163
g90
I00
S'j\xc7\xc0&\x8ag\xf6?h\x9cH4\x7f\xab\x18\xc0\xd8|\x1d\xfc\xcbV\xf2?'
p164
tp165
bag21
(g22
(I0
tp166
g24
tp167
Rp168
(I1
(I3
tp169
g90
I00
S'\xa6\xc4l\x8d\x92\xcc\xe5?\x10\xc7\xe9C\x0b\xd8\x18\xc0@\xb9\xa4\xa6\xc5\xc5\x8e\xbf'
p170
tp171
bag21
(g22
(I0
tp172
g24
tp173
Rp174
(I1
(I3
tp175
g90
I00
S'\xbc\xcaD\xb3\xa5\xd0\xda?5\x9e\xd8L\xbc\xff\x15\xc0\x86v/\xef\x06;\xe9\xbf'
p176
tp177
bag21
(g22
(I0
tp178
g24
tp179
Rp180
(I1
(I3
tp181
g90
I00
S'l[\xc4\x16<\xe6\xe9?\xa6\xa0\x90\x84X\x9f\x13\xc0\xc2\xd74Q\x00\xaf\xff\xbf'
p182
tp183
bag21
(g22
(I0
tp184
g24
tp185
Rp186
(I1
(I3
tp187
g90
I00
S"\xaeJ\xbd\x1936\xec?\x04\x13\xd4'\x9f\x88\x10\xc0\x805qo\xb6\xe6\xff\xbf"
p188
tp189
bag21
(g22
(I0
tp190
g24
tp191
Rp192
(I1
(I3
tp193
g90
I00
S'\xf09\xb6\x1c*\x86\xee?\xc4\n/\x96\xcb\xe3\n\xc0\xa0\xc9\xd6F6\x0f\x00\xc0'
p194
tp195
bag21
(g22
(I0
tp196
g24
tp197
Rp198
(I1
(I3
tp199
g90
I00
S'3\xe9\xaf\x05T\x89\xe7?+~\xcb\xd3\x15\xc7\x04\xc0x6(d5\xed\x07@'
p200
tp201
bag137
ag137
asbs(Vrectangular_packing_box4
p202
g14
tp203
(itrajectory_representation.operator
Operator
p204
(dp205
g8
I01
sg9
(dp206
g132
g14
sg11
g202
ssg16
g133
sg18
(dp207
g20
g21
(g22
(I0
tp208
g24
tp209
Rp210
(I1
(I3
tp211
g31
I00
S'0\xad\xff\xf5i!\xd2?1\xa0OD\x8a\xc9\x1d\xc0\x98\x12\x14\x14\xffz\x00\xc0'
p212
tp213
bssg46
(lp214
g21
(g22
(I0
tp215
g24
tp216
Rp217
(I1
(I3
tp218
g31
I00
S'pn1t\xa4\x13\xd2?x\x0f:\xadGv\x18\xc0g\x07\xc7\x18\x0b\xcc\xf6\xbf'
p219
tp220
bag21
(g22
(I0
tp221
g24
tp222
Rp223
(I1
(I3
tp224
g90
I00
S'\xf8\xfc\x1a\xd0\xc9l\xe8?\x8a\x897\x8e~\x98\x1a\xc0\xaf\xf7\xb87\xc6\xa7\x01\xc0'
p225
tp226
bag21
(g22
(I0
tp227
g24
tp228
Rp229
(I1
(I3
tp230
g90
I00
S'\x138\xde\xf8\x80\xc4\xdb?\xb0\xa4\x99\x1dq\x81\x1c\xc0\xc06d\xa1\x11\xde\x10@'
p231
tp232
bag210
ag210
asbssS'place_in_way'
p233
(itrajectory_representation.predicates.place_in_way
PlaceInWay
p234
(dp235
S'mc_path_to_entity'
p236
(dp237
(Vsquare_packing_box1
p238
S'home_region'
p239
tp240
(lp241
g21
(g22
(I0
tp242
g24
tp243
Rp244
(I1
(I3
tp245
g28
(S'f8'
p246
I0
I1
tp247
Rp248
(I3
S'<'
p249
NNNI-1
I-1
I0
tp250
bI00
S't6w_\x07\x10\x08@\xc8\xd95\x02l\x15\x19\xc0\x06\xb20\x02\xdb\x7f\x12@'
p251
tp252
bag21
(g22
(I0
tp253
g24
tp254
Rp255
(I1
(I3
tp256
g28
(S'f8'
p257
I0
I1
tp258
Rp259
(I3
S'<'
p260
NNNI-1
I-1
I0
tp261
bI00
S'\x9a\xbe.\\\\1\x02@n\xc71\xde\x16\x1f\x18\xc0\xa5\xb9\xb4\xac*z\xff\xbf'
p262
tp263
bag21
(g22
(I0
tp264
g24
tp265
Rp266
(I1
(I3
tp267
g259
I00
S'!\x83\xc0\xf3W\x85\xff?\xed\x8f\x90/y\xfd\x16\xc06jP\xfe\x98\xf5\xf4\xbf'
p268
tp269
bag21
(g22
(I0
tp270
g24
tp271
Rp272
(I1
(I3
tp273
g259
I00
S'2Z\xe1\xe97J\xf6?\\\x1e`@2v\x16\xc0\xc4\x0c\xcc\x14<\xf9\xf6\xbf'
p274
tp275
bag21
(g22
(I0
tp276
g24
tp277
Rp278
(I1
(I3
tp279
g259
I00
S'tx\x8as\xa8b\xed?\x9ej\x15\xfa\xf0{\x15\xc0@\xed\x9a-\x9eD\xf2\xbf'
p280
tp281
bag21
(g22
(I0
tp282
g24
tp283
Rp284
(I1
(I3
tp285
g259
I00
S"\xb2&6mg)\xe8?\x99\xe0G'\x16\xe0\x13\xc0\xc8oL\xf5\x17p\xe6\xbf"
p286
tp287
bag21
(g22
(I0
tp288
g24
tp289
Rp290
(I1
(I3
tp291
g259
I00
S'`\xc8Aw-\x81\xeb?/\xc3\xe6O\x04\xca\x10\xc0\x8a\xb7K)\x91{\xe4\xbf'
p292
tp293
bag21
(g22
(I0
tp294
g24
tp295
Rp296
(I1
(I3
tp297
g259
I00
S'\xe1\xc6\xc7\xa7\x12X\xe7?\x98\x99\xb0\x9a\xfb\xdb\x0b\xc0R\t\x1b)\xeae\xe0\xbf'
p298
tp299
bag21
(g22
(I0
tp300
g24
tp301
Rp302
(I1
(I3
tp303
g259
I00
S'p\xf1\xbdc^\x84\xf1?"\x88LL\xf9D\x06\xc0~w\r\xe9m\x0f\x19@'
p304
tp305
bas(Vrectangular_packing_box2
p306
g239
tp307
(lp308
g21
(g22
(I0
tp309
g24
tp310
Rp311
(I1
(I3
tp312
g248
I00
S'\xa2\xf4Mk\x11f\x07@\x8b\x18\\K\x9a\xc5\x1c\xc0u\xaak\xe7j\xab\r@'
p313
tp314
bag21
(g22
(I0
tp315
g24
tp316
Rp317
(I1
(I3
tp318
g259
I00
S'\xf9\xba\xbb\xd8\xde<\x02@\x99\xbe:\xeaE5\x1b\xc0!\x7fo\x1e\nW\x0f@'
p319
tp320
bag21
(g22
(I0
tp321
g24
tp322
Rp323
(I1
(I3
tp324
g259
I00
S'\xc6\xf1T\x16)\x02\xfe?\xa8\x7fQ\xf5\xbb\x10\x19\xc0\xa38\tS\x83\x84\x05@'
p325
tp326
bag21
(g22
(I0
tp327
g24
tp328
Rp329
(I1
(I3
tp330
g259
I00
S'\x84\xa2s4\xa1\xd0\xf6?E=|\xb9\xcam\x17\xc0\xa93^V\xfc\xed\x05@'
p331
tp332
bag21
(g22
(I0
tp333
g24
tp334
Rp335
(I1
(I3
tp336
g259
I00
S'f\xb4\x9c\x07\xac\xbf\xec?n\x96\x96\x9e\x90n\x16\xc0uo!\xa9\x9b\x82\x07@'
p337
tp338
bag21
(g22
(I0
tp339
g24
tp340
Rp341
(I1
(I3
tp342
g259
I00
S'm\xd5h\x072\x03\xea?\xdf\xe5\xe82\xd3\x17\x14\xc0\x08\x9e\xe1\xfbO\x94\x08@'
p343
tp344
bag21
(g22
(I0
tp345
g24
tp346
Rp347
(I1
(I3
tp348
g259
I00
S'\xc6\x05\xbdtg\xd9\xe2?F\xdf\x9d@\\\xf3\x11\xc0\x1a\xc4.\xbb\xcc\x12\x02@'
p349
tp350
bag21
(g22
(I0
tp351
g24
tp352
Rp353
(I1
(I3
tp354
g259
I00
S'3z\xed\x8eN)\xe4?\x0c\x96\xd4\xa2\x0e\xd0\r\xc0\xbd%\xf5{\xe9\xf9\x03@'
p355
tp356
bag21
(g22
(I0
tp357
g24
tp358
Rp359
(I1
(I3
tp360
g259
I00
S'\xaf0\xe9h\xba~\xee?k\xbb\xd8\xd4\xd0g\t\xc09\x9ey\xed\xb06\x06@'
p361
tp362
bag21
(g22
(I0
tp363
g24
tp364
Rp365
(I1
(I3
tp366
g259
I00
S'\xf4\xfdJ\x1a(#\xec?H"\x9cD\x1aE\x05\xc0.\xa9\x0b\x87\xf8\xe1\x02@'
p367
tp368
bas(Vrectangular_packing_box3
p369
g239
tp370
(lp371
g21
(g22
(I0
tp372
g24
tp373
Rp374
(I1
(I3
tp375
g248
I00
S'\x10\x1f\xf0\xdc\xc6\x18\xfa?vVJ\xdc+\xa3\x17\xc0U\x13\xaf\x0bi\xf5\x13@'
p376
tp377
bag21
(g22
(I0
tp378
g24
tp379
Rp380
(I1
(I3
tp381
g259
I00
S"\x1aq\xa1\x96-\xd2\xec?\xa2\x8f\xd2'\xa1I\x18\xc0\x06\xea(\x89^*\xf2\xbf"
p382
tp383
bag21
(g22
(I0
tp384
g24
tp385
Rp386
(I1
(I3
tp387
g259
I00
S'tx\x8as\xa8b\xed?\x9ej\x15\xfa\xf0{\x15\xc0@\xed\x9a-\x9eD\xf2\xbf'
p388
tp389
bag21
(g22
(I0
tp390
g24
tp391
Rp392
(I1
(I3
tp393
g259
I00
S'\xb0E\xbb;Cb\xeb?\x9e\xde\xa7\xdd\xbdd\x12\xc0\xc6\xee\xbd\x16\x8c\xaa\xf3\xbf'
p394
tp395
bag21
(g22
(I0
tp396
g24
tp397
Rp398
(I1
(I3
tp399
g259
I00
S'`\xc8Aw-\x81\xeb?/\xc3\xe6O\x04\xca\x10\xc0\x8a\xb7K)\x91{\xe4\xbf'
p400
tp401
bag21
(g22
(I0
tp402
g24
tp403
Rp404
(I1
(I3
tp405
g259
I00
S'\xe1\xc6\xc7\xa7\x12X\xe7?\x98\x99\xb0\x9a\xfb\xdb\x0b\xc0R\t\x1b)\xeae\xe0\xbf'
p406
tp407
bag21
(g22
(I0
tp408
g24
tp409
Rp410
(I1
(I3
tp411
g259
I00
S'p\xf1\xbdc^\x84\xf1?"\x88LL\xf9D\x06\xc0~w\r\xe9m\x0f\x19@'
p412
tp413
bas(Vsquare_packing_box2
p414
g239
tp415
(lp416
g21
(g22
(I0
tp417
g24
tp418
Rp419
(I1
(I3
tp420
g248
I00
S'pU\x12\xf0\xbdf\r@\xdc\x1f" \xc1\xc9\x17\xc0\x8e\x9a\x81\xb6\x8e\x18\x14@'
p421
tp422
bag21
(g22
(I0
tp423
g24
tp424
Rp425
(I1
(I3
tp426
g259
I00
S"\xae\xe0\x95'\x8b\xa2\x07@\xe8=\xcelvy\x17\xc0\xf2r\xcc\xc2\xc1\xb6\xfe\xbf"
p427
tp428
bag21
(g22
(I0
tp429
g24
tp430
Rp431
(I1
(I3
tp432
g259
I00
S'\x9a\xbe.\\\\1\x02@n\xc71\xde\x16\x1f\x18\xc0\xa5\xb9\xb4\xac*z\xff\xbf'
p433
tp434
bag21
(g22
(I0
tp435
g24
tp436
Rp437
(I1
(I3
tp438
g259
I00
S'!\x83\xc0\xf3W\x85\xff?\xed\x8f\x90/y\xfd\x16\xc06jP\xfe\x98\xf5\xf4\xbf'
p439
tp440
bag21
(g22
(I0
tp441
g24
tp442
Rp443
(I1
(I3
tp444
g259
I00
S'2Z\xe1\xe97J\xf6?\\\x1e`@2v\x16\xc0\xc4\x0c\xcc\x14<\xf9\xf6\xbf'
p445
tp446
bag21
(g22
(I0
tp447
g24
tp448
Rp449
(I1
(I3
tp450
g259
I00
S'tx\x8as\xa8b\xed?\x9ej\x15\xfa\xf0{\x15\xc0@\xed\x9a-\x9eD\xf2\xbf'
p451
tp452
bag21
(g22
(I0
tp453
g24
tp454
Rp455
(I1
(I3
tp456
g259
I00
S"\xb2&6mg)\xe8?\x99\xe0G'\x16\xe0\x13\xc0\xc8oL\xf5\x17p\xe6\xbf"
p457
tp458
bag21
(g22
(I0
tp459
g24
tp460
Rp461
(I1
(I3
tp462
g259
I00
S'`\xc8Aw-\x81\xeb?/\xc3\xe6O\x04\xca\x10\xc0\x8a\xb7K)\x91{\xe4\xbf'
p463
tp464
bag21
(g22
(I0
tp465
g24
tp466
Rp467
(I1
(I3
tp468
g259
I00
S'\xe1\xc6\xc7\xa7\x12X\xe7?\x98\x99\xb0\x9a\xfb\xdb\x0b\xc0R\t\x1b)\xeae\xe0\xbf'
p469
tp470
bag21
(g22
(I0
tp471
g24
tp472
Rp473
(I1
(I3
tp474
g259
I00
S'p\xf1\xbdc^\x84\xf1?"\x88LL\xf9D\x06\xc0~w\r\xe9m\x0f\x19@'
p475
tp476
bas(Vsquare_packing_box3
p477
g239
tp478
(lp479
g21
(g22
(I0
tp480
g24
tp481
Rp482
(I1
(I3
tp483
g248
I00
S"\x06\x84?\x97'\xc0\xf8?W\xae\xbc\xe5tH\x1c\xc0\x15\xf2K\xeb\xc8\x86\r@"
p484
tp485
bag21
(g22
(I0
tp486
g24
tp487
Rp488
(I1
(I3
tp489
g259
I00
S'~\x1a}\xaa\x02\xe0\xf6?N\xaex\xdd\xfd\x81\x19\xc0\xa8\x14\xd5\xf2I\xd8\x07\xc0'
p490
tp491
bag21
(g22
(I0
tp492
g24
tp493
Rp494
(I1
(I3
tp495
g259
I00
S"\xc6'8AN\xb0\xec?\xe0\x975>\x0f\x03\x19\xc0(\xe0e;\x85\x89\x05\xc0"
p496
tp497
bag21
(g22
(I0
tp498
g24
tp499
Rp500
(I1
(I3
tp501
g259
I00
S'\xd0\xcb\x13\x8f\xaa\x9d\xed?\x90\x01<]3\x06\x16\xc0F\xf1\xe7x32\x02\xc0'
p502
tp503
bag21
(g22
(I0
tp504
g24
tp505
Rp506
(I1
(I3
tp507
g259
I00
S'l[\xc4\x16<\xe6\xe9?\xa6\xa0\x90\x84X\x9f\x13\xc0\xc2\xd74Q\x00\xaf\xff\xbf'
p508
tp509
bag21
(g22
(I0
tp510
g24
tp511
Rp512
(I1
(I3
tp513
g259
I00
S"\xaeJ\xbd\x1936\xec?\x04\x13\xd4'\x9f\x88\x10\xc0\x805qo\xb6\xe6\xff\xbf"
p514
tp515
bag21
(g22
(I0
tp516
g24
tp517
Rp518
(I1
(I3
tp519
g259
I00
S'\xf09\xb6\x1c*\x86\xee?\xc4\n/\x96\xcb\xe3\n\xc0\xa0\xc9\xd6F6\x0f\x00\xc0'
p520
tp521
bag21
(g22
(I0
tp522
g24
tp523
Rp524
(I1
(I3
tp525
g259
I00
S'3\xe9\xaf\x05T\x89\xe7?+~\xcb\xd3\x15\xc7\x04\xc0x6(d5\xed\x07@'
p526
tp527
bassS'mc_to_entity'
p528
(dp529
(g238
g239
tp530
(lp531
Vrectangular_packing_box3
p532
aVsquare_packing_box4
p533
as(g306
g239
tp534
(lp535
Vsquare_packing_box1
p536
aVrectangular_packing_box3
p537
aVsquare_packing_box4
p538
as(g369
g239
tp539
(lp540
Vsquare_packing_box4
p541
aVrectangular_packing_box4
p542
as(g414
g239
tp543
(lp544
Vsquare_packing_box1
p545
aVrectangular_packing_box3
p546
aVsquare_packing_box4
p547
as(g477
g239
tp548
(lp549
Vrectangular_packing_box3
p550
aVrectangular_packing_box4
p551
aVsquare_packing_box4
p552
assS'reachable_entities'
p553
(lp554
g12
aVrectangular_packing_box1
p555
aVsquare_packing_box4
p556
asS'collides'
p557
(dp558
Vrectangular_packing_box4
p559
c__builtin__
set
p560
((lp561
I384
aI132
aI5
aI134
aI136
aI137
aI394
aI523
aI276
aI154
aI155
aI157
aI133
aI35
aI165
aI166
aI296
aI176
aI547
aI308
aI197
aI584
aI518
aI82
aI163
aI84
aI597
aI607
aI355
aI362
aI107
aI338
aI83
aI251
aI252
atp562
Rp563
sVrectangular_packing_box2
p564
g560
((lp565
I256
aI513
aI514
aI259
aI260
aI577
aI194
aI145
aI538
aI413
aI543
aI219
aI422
aI556
aI429
aI179
aI436
aI443
aI444
aI64
aI65
aI66
aI67
aI69
aI585
aI79
aI80
aI340
aI215
aI89
aI90
aI91
aI92
aI610
aI374
aI358
aI572
aI114
aI118
aI119
aI123
aI255
atp566
Rp567
sVrectangular_packing_box3
p568
g560
((lp569
I3
aI4
aI577
aI194
aI145
aI538
aI413
aI36
aI37
aI422
aI561
aI178
aI611
aI309
aI54
aI570
aI188
aI63
aI64
aI65
aI66
aI69
aI205
aI79
aI80
aI595
aI215
aI89
aI90
aI219
aI92
aI310
aI444
aI114
aI115
aI376
aI379
aI511
atp570
Rp571
sVrectangular_packing_box1
p572
g560
((lp573
I553
aI164
aI197
aI518
aI356
aI394
aI452
aI589
aI580
aI338
aI575
aI521
aI502
aI249
aI153
aI154
aI155
aI157
aI478
aI229
atp574
Rp575
sVsquare_packing_box2
p576
g560
((lp577
I474
aI193
aI457
aI438
aI614
aI425
aI343
aI565
aI270
aI303
aI307
aI500
aI405
aI246
aI247
aI280
aI473
aI442
aI367
aI381
aI453
atp578
Rp579
sVsquare_packing_box3
p580
g560
((lp581
I135
aI264
aI146
aI158
aI159
aI433
aI296
aI263
aI176
aI177
aI448
aI583
aI458
aI463
aI464
aI593
aI505
aI346
aI486
aI490
aI494
aI240
aI120
aI121
aI122
atp582
Rp583
sVsquare_packing_box1
p584
g560
((lp585
I577
aI268
aI194
aI405
aI91
aI548
aI511
aI303
aI561
aI179
aI436
aI438
aI440
aI64
aI65
aI66
aI68
aI79
aI210
aI211
aI340
aI343
aI89
aI90
aI219
aI220
aI354
aI358
aI113
aI114
aI500
aI375
aI376
aI123
aI255
atp586
Rp587
sVsquare_packing_box4
p588
g560
((lp589
I8
aI416
aI33
aI34
aI554
aI43
aI44
aI301
aI584
aI56
aI186
aI187
aI71
aI456
aI203
aI472
aI94
aI95
aI327
aI484
aI233
aI106
aI235
aI108
aI497
aI234
atp590
Rp591
ssg125
g126
sS'pick_used'
p592
(dp593
g12
(itrajectory_representation.operator
Operator
p594
(dp595
g8
I01
sg9
(dp596
g11
g12
ssg16
S'two_arm_pick'
p597
sg18
(dp598
g20
g21
(g22
(I0
tp599
g24
tp600
Rp601
(I1
(I3
tp602
g31
I00
S'Jo1t\xa4\x13\xd2?\x87\x0f:\xadGv\x18\xc0_\x07\xc7\x18\x0b\xcc\xf6\xbf'
p603
tp604
bssg46
(lp605
g21
(g22
(I0
tp606
g24
tp607
Rp608
(I1
(I3
tp609
g248
I00
S'@?>\xed\x17\xe2\xd5?V\xfc\x8e\xf7\xf0\x05\x17\xc0\x86[o\x93v\x8e\x18@'
p610
tp611
bag601
asbsVrectangular_packing_box2
p612
(itrajectory_representation.operator
Operator
p613
(dp614
g8
I01
sg9
(dp615
S'object'
p616
Vrectangular_packing_box2
p617
ssg16
S'two_arm_pick'
p618
sg18
(dp619
S'q_goal'
p620
(lp621
g21
(g22
(I0
tp622
g24
tp623
Rp624
(I1
(I3
tp625
g248
I00
S'\xa4\xf4Mk\x11f\x07@\x8a\x18\\K\x9a\xc5\x1c\xc0\xba\xaf\x1c\xc1\x8b\x98\x04\xc0'
p626
tp627
bag21
(g22
(I0
tp628
g24
tp629
Rp630
(I1
(I3
tp631
g248
I00
S'\xb3\xd0\xe2\x1b\x07\x8d\xf8?#M\xb3_\x82\xdb\x1d\xc0p2\xd1t\xb6\x05\xcb\xbf'
p632
tp633
bag21
(g22
(I0
tp634
g24
tp635
Rp636
(I1
(I3
tp637
g248
I00
S'`Ha\x00I\x8c\x07@4&\x1aq\xba\x08\x1d\xc0\xb2\xd4\xe1\r\x92|\x0c\xc0'
p638
tp639
basS'is_feasible'
p640
I00
ssg46
(lp641
g21
(g22
(I0
tp642
g24
tp643
Rp644
(I1
(I3
tp645
g248
I00
S"v#\xe3\x0bx\xea\xe2?`'$\x1bm]\xfd\xbf\x98(mB\xfb\x8a\x06@"
p646
tp647
bag21
(g22
(I0
tp648
g24
tp649
Rp650
(I1
(I3
tp651
g259
I00
S'3\xe9\xaf\x05T\x89\xe7?+~\xcb\xd3\x15\xc7\x04\xc0x6(d5\xed\x07@'
p652
tp653
bag21
(g22
(I0
tp654
g24
tp655
Rp656
(I1
(I3
tp657
g259
I00
S'\xaf0\xe9h\xba~\xee?k\xbb\xd8\xd4\xd0g\t\xc09\x9ey\xed\xb06\x06@'
p658
tp659
bag21
(g22
(I0
tp660
g24
tp661
Rp662
(I1
(I3
tp663
g259
I00
S'3z\xed\x8eN)\xe4?\x0c\x96\xd4\xa2\x0e\xd0\r\xc0\xbd%\xf5{\xe9\xf9\x03@'
p664
tp665
bag21
(g22
(I0
tp666
g24
tp667
Rp668
(I1
(I3
tp669
g259
I00
S'\xc6\x05\xbdtg\xd9\xe2?F\xdf\x9d@\\\xf3\x11\xc0\x1a\xc4.\xbb\xcc\x12\x02@'
p670
tp671
bag21
(g22
(I0
tp672
g24
tp673
Rp674
(I1
(I3
tp675
g259
I00
S'\xcc\x87!\x1f\xfb\x05\xe6?\x14;\x08\xf1<\xc6\x13\xc0V!\xac1j\x94\xc8?'
p676
tp677
bag21
(g22
(I0
tp678
g24
tp679
Rp680
(I1
(I3
tp681
g259
I00
S'\xe4\x02R\xd9\x08\x8c\xc7?2\xc1\xd4;\xf6\xf3\x15\xc0>\x8c\x8fa?0\xd8?'
p682
tp683
bag21
(g22
(I0
tp684
g24
tp685
Rp686
(I1
(I3
tp687
g259
I00
S'T]\x0c\x0e\xd89\xda?\xf4\x992\x11%\\\x18\xc0\x95\x7f\x10B\xb1)\xe3?'
p688
tp689
bag21
(g22
(I0
tp690
g24
tp691
Rp692
(I1
(I3
tp693
g259
I00
S'B\x9aa8\x98\xa6\xe8?\xf3\xe9\x94/\xc2\xe4\x18\xc0u\xf8\xb0\x7fO\xb8\xf2?'
p694
tp695
bag21
(g22
(I0
tp696
g24
tp697
Rp698
(I1
(I3
tp699
g259
I00
S'j\xc7\xc0&\x8ag\xf6?h\x9cH4\x7f\xab\x18\xc0\xd8|\x1d\xfc\xcbV\xf2?'
p700
tp701
bag21
(g22
(I0
tp702
g24
tp703
Rp704
(I1
(I3
tp705
g259
I00
S'\xe0 ;\x819w\xfd?\xe7\xcc\xc2\xa0\xa5f\x17\xc04\xedq\x1c\x8eK\xfa?'
p706
tp707
bag21
(g22
(I0
tp708
g24
tp709
Rp710
(I1
(I3
tp711
g259
I00
S'\x19\xdbXU\x9c\xa8\x04@\xe6\xf1\xeb\xae\xcb\x05\x18\xc0\xce\x9cp\x98\xaf*\xeb?'
p712
tp713
bag21
(g22
(I0
tp714
g24
tp715
Rp716
(I1
(I3
tp717
g259
I00
S'g\x886\x82\xe7\x9e\t@\x81\x00+\xe8\xfe$\x19\xc0m@m\xfd\x93\x06\xf2?'
p718
tp719
bag21
(g22
(I0
tp720
g24
tp721
Rp722
(I1
(I3
tp723
g259
I00
S'py\xe7\x92\x10\x1c\x08@_z\xb4M\xdc\xbc\x1b\xc0\xe2\x81s\x12\x81\x12\x08\xc0'
p724
tp725
bag624
asbsVrectangular_packing_box3
p726
(itrajectory_representation.operator
Operator
p727
(dp728
g8
I01
sg9
(dp729
g616
Vrectangular_packing_box3
p730
ssg16
g618
sg18
(dp731
g620
(lp732
g21
(g22
(I0
tp733
g24
tp734
Rp735
(I1
(I3
tp736
g248
I00
S'\x11\x1f\xf0\xdc\xc6\x18\xfa?vVJ\xdc+\xa3\x17\xc0\x0cgT"I\xb2\xf4\xbf'
p737
tp738
bag21
(g22
(I0
tp739
g24
tp740
Rp741
(I1
(I3
tp742
g248
I00
S'\xaf\x8a\xf9\x9bj\xff\x04@e\xb2h\x1a\xe7\xca\x1c\xc0\x88\xd2\x9fop\x80\x03@'
p743
tp744
bag21
(g22
(I0
tp745
g24
tp746
Rp747
(I1
(I3
tp748
g248
I00
S'8\x14"\xcc\x8cl\xf5?\x1e<7@\x19\xfe\x1b\xc0Z\xa9\x92\x908\xa1\xed?'
p749
tp750
basg640
I00
ssg46
(lp751
g21
(g22
(I0
tp752
g24
tp753
Rp754
(I1
(I3
tp755
g248
I00
S"v#\xe3\x0bx\xea\xe2?`'$\x1bm]\xfd\xbf\x98(mB\xfb\x8a\x06@"
p756
tp757
bag21
(g22
(I0
tp758
g24
tp759
Rp760
(I1
(I3
tp761
g259
I00
S'3\xe9\xaf\x05T\x89\xe7?+~\xcb\xd3\x15\xc7\x04\xc0x6(d5\xed\x07@'
p762
tp763
bag21
(g22
(I0
tp764
g24
tp765
Rp766
(I1
(I3
tp767
g259
I00
S'\xaf0\xe9h\xba~\xee?k\xbb\xd8\xd4\xd0g\t\xc09\x9ey\xed\xb06\x06@'
p768
tp769
bag21
(g22
(I0
tp770
g24
tp771
Rp772
(I1
(I3
tp773
g259
I00
S'3z\xed\x8eN)\xe4?\x0c\x96\xd4\xa2\x0e\xd0\r\xc0\xbd%\xf5{\xe9\xf9\x03@'
p774
tp775
bag21
(g22
(I0
tp776
g24
tp777
Rp778
(I1
(I3
tp779
g259
I00
S'\xc6\x05\xbdtg\xd9\xe2?F\xdf\x9d@\\\xf3\x11\xc0\x1a\xc4.\xbb\xcc\x12\x02@'
p780
tp781
bag21
(g22
(I0
tp782
g24
tp783
Rp784
(I1
(I3
tp785
g259
I00
S'\xcc\x87!\x1f\xfb\x05\xe6?\x14;\x08\xf1<\xc6\x13\xc0V!\xac1j\x94\xc8?'
p786
tp787
bag21
(g22
(I0
tp788
g24
tp789
Rp790
(I1
(I3
tp791
g259
I00
S'\xe4\x02R\xd9\x08\x8c\xc7?2\xc1\xd4;\xf6\xf3\x15\xc0>\x8c\x8fa?0\xd8?'
p792
tp793
bag21
(g22
(I0
tp794
g24
tp795
Rp796
(I1
(I3
tp797
g259
I00
S'T]\x0c\x0e\xd89\xda?\xf4\x992\x11%\\\x18\xc0\x95\x7f\x10B\xb1)\xe3?'
p798
tp799
bag21
(g22
(I0
tp800
g24
tp801
Rp802
(I1
(I3
tp803
g259
I00
S'\xcb\xa0\xb6M\xadU\xef?ny]\x1b[.\x1a\xc0\x99\xfe\xc1BBE\xde?'
p804
tp805
bag747
asbsg555
(itrajectory_representation.operator
Operator
p806
(dp807
g8
I01
sg9
(dp808
g616
Vrectangular_packing_box1
p809
ssg16
g618
sg18
(dp810
g620
(lp811
g21
(g22
(I0
tp812
g24
tp813
Rp814
(I1
(I3
tp815
g248
I00
S'C\x8d\xc7JC\xc3\xc6\xbf\xca_\xfb!\xd7\xb9\x18\xc0\x10\x96\xad?\x9e\xc5\xf7\xbf'
p816
tp817
bag21
(g22
(I0
tp818
g24
tp819
Rp820
(I1
(I3
tp821
g248
I00
S'\xe0_\x0b\xf4\x0f0\xe1?|\xf7O=\xfe5\x1c\xc0"\xd5\xde8\x8b\x93\x0c@'
p822
tp823
bag21
(g22
(I0
tp824
g24
tp825
Rp826
(I1
(I3
tp827
g248
I00
S'\xab\x8ef\xe9\xfb\x02\xdb?\xdb\x8cS}/\x89\x1d\xc0r\xd1\xa9\xff8}\x03@'
p828
tp829
basg640
I00
ssg46
(lp830
g21
(g22
(I0
tp831
g24
tp832
Rp833
(I1
(I3
tp834
g248
I00
S"v#\xe3\x0bx\xea\xe2?`'$\x1bm]\xfd\xbf\x98(mB\xfb\x8a\x06@"
p835
tp836
bag21
(g22
(I0
tp837
g24
tp838
Rp839
(I1
(I3
tp840
g259
I00
S'3\xe9\xaf\x05T\x89\xe7?+~\xcb\xd3\x15\xc7\x04\xc0x6(d5\xed\x07@'
p841
tp842
bag21
(g22
(I0
tp843
g24
tp844
Rp845
(I1
(I3
tp846
g259
I00
S'\xaf0\xe9h\xba~\xee?k\xbb\xd8\xd4\xd0g\t\xc09\x9ey\xed\xb06\x06@'
p847
tp848
bag21
(g22
(I0
tp849
g24
tp850
Rp851
(I1
(I3
tp852
g259
I00
S'3z\xed\x8eN)\xe4?\x0c\x96\xd4\xa2\x0e\xd0\r\xc0\xbd%\xf5{\xe9\xf9\x03@'
p853
tp854
bag21
(g22
(I0
tp855
g24
tp856
Rp857
(I1
(I3
tp858
g259
I00
S'\xc6\x05\xbdtg\xd9\xe2?F\xdf\x9d@\\\xf3\x11\xc0\x1a\xc4.\xbb\xcc\x12\x02@'
p859
tp860
bag21
(g22
(I0
tp861
g24
tp862
Rp863
(I1
(I3
tp864
g259
I00
S'\xcc\x87!\x1f\xfb\x05\xe6?\x14;\x08\xf1<\xc6\x13\xc0V!\xac1j\x94\xc8?'
p865
tp866
bag21
(g22
(I0
tp867
g24
tp868
Rp869
(I1
(I3
tp870
g259
I00
S'\xe4\x02R\xd9\x08\x8c\xc7?2\xc1\xd4;\xf6\xf3\x15\xc0>\x8c\x8fa?0\xd8?'
p871
tp872
bag21
(g22
(I0
tp873
g24
tp874
Rp875
(I1
(I3
tp876
g259
I00
S'xnY\x12\x1f5\xb9\xbf\xb3~\xb6Z\xbb\xc6\x16\xc0\x80_\xc0b\xcb\xb1\xf7\xbf'
p877
tp878
bag814
asbsVsquare_packing_box2
p879
(itrajectory_representation.operator
Operator
p880
(dp881
g8
I01
sg9
(dp882
g616
Vsquare_packing_box2
p883
ssg16
g618
sg18
(dp884
g620
(lp885
g21
(g22
(I0
tp886
g24
tp887
Rp888
(I1
(I3
tp889
g248
I00
S'qU\x12\xf0\xbdf\r@\xdd\x1f" \xc1\xc9\x17\xc0$J\nw\xb2%\xf4\xbf'
p890
tp891
bag21
(g22
(I0
tp892
g24
tp893
Rp894
(I1
(I3
tp895
g248
I00
S'\x1fB\xb1!\xd3^\x0b@\xae#\xe6\xd2\xf0~\x18\xc0\x06\xc5\xd0\xe7\xc3\x1d\xf1\xbf'
p896
tp897
bag21
(g22
(I0
tp898
g24
tp899
Rp900
(I1
(I3
tp901
g248
I00
S"t:'x\x99\xad\t@A\xbdz\xb7}\x81\x18\xc00\xc2\xb72\xbd\xf4\xf1\xbf"
p902
tp903
basg640
I00
ssg46
(lp904
g21
(g22
(I0
tp905
g24
tp906
Rp907
(I1
(I3
tp908
g248
I00
S"v#\xe3\x0bx\xea\xe2?`'$\x1bm]\xfd\xbf\x98(mB\xfb\x8a\x06@"
p909
tp910
bag21
(g22
(I0
tp911
g24
tp912
Rp913
(I1
(I3
tp914
g259
I00
S'3\xe9\xaf\x05T\x89\xe7?+~\xcb\xd3\x15\xc7\x04\xc0x6(d5\xed\x07@'
p915
tp916
bag21
(g22
(I0
tp917
g24
tp918
Rp919
(I1
(I3
tp920
g259
I00
S'\xaf0\xe9h\xba~\xee?k\xbb\xd8\xd4\xd0g\t\xc09\x9ey\xed\xb06\x06@'
p921
tp922
bag21
(g22
(I0
tp923
g24
tp924
Rp925
(I1
(I3
tp926
g259
I00
S'3z\xed\x8eN)\xe4?\x0c\x96\xd4\xa2\x0e\xd0\r\xc0\xbd%\xf5{\xe9\xf9\x03@'
p927
tp928
bag21
(g22
(I0
tp929
g24
tp930
Rp931
(I1
(I3
tp932
g259
I00
S'\xc6\x05\xbdtg\xd9\xe2?F\xdf\x9d@\\\xf3\x11\xc0\x1a\xc4.\xbb\xcc\x12\x02@'
p933
tp934
bag21
(g22
(I0
tp935
g24
tp936
Rp937
(I1
(I3
tp938
g259
I00
S'\xcc\x87!\x1f\xfb\x05\xe6?\x14;\x08\xf1<\xc6\x13\xc0V!\xac1j\x94\xc8?'
p939
tp940
bag21
(g22
(I0
tp941
g24
tp942
Rp943
(I1
(I3
tp944
g259
I00
S'\xe4\x02R\xd9\x08\x8c\xc7?2\xc1\xd4;\xf6\xf3\x15\xc0>\x8c\x8fa?0\xd8?'
p945
tp946
bag21
(g22
(I0
tp947
g24
tp948
Rp949
(I1
(I3
tp950
g259
I00
S'T]\x0c\x0e\xd89\xda?\xf4\x992\x11%\\\x18\xc0\x95\x7f\x10B\xb1)\xe3?'
p951
tp952
bag21
(g22
(I0
tp953
g24
tp954
Rp955
(I1
(I3
tp956
g259
I00
S'B\x9aa8\x98\xa6\xe8?\xf3\xe9\x94/\xc2\xe4\x18\xc0u\xf8\xb0\x7fO\xb8\xf2?'
p957
tp958
bag21
(g22
(I0
tp959
g24
tp960
Rp961
(I1
(I3
tp962
g259
I00
S'j\xc7\xc0&\x8ag\xf6?h\x9cH4\x7f\xab\x18\xc0\xd8|\x1d\xfc\xcbV\xf2?'
p963
tp964
bag21
(g22
(I0
tp965
g24
tp966
Rp967
(I1
(I3
tp968
g259
I00
S'\xe0 ;\x819w\xfd?\xe7\xcc\xc2\xa0\xa5f\x17\xc04\xedq\x1c\x8eK\xfa?'
p969
tp970
bag21
(g22
(I0
tp971
g24
tp972
Rp973
(I1
(I3
tp974
g259
I00
S'\x16\x9e\xd06H\xd3\x04@\xe5\xe1\xfb\xc5\xb8\xd1\x16\xc0es\x86\x03\xdb\x8e\x17@'
p975
tp976
bag900
asbsVsquare_packing_box3
p977
(itrajectory_representation.operator
Operator
p978
(dp979
g8
I01
sg9
(dp980
g616
Vsquare_packing_box3
p981
ssg16
g618
sg18
(dp982
g620
(lp983
g21
(g22
(I0
tp984
g24
tp985
Rp986
(I1
(I3
tp987
g248
I00
S"\x07\x84?\x97'\xc0\xf8?X\xae\xbc\xe5tH\x1c\xc0\x1ah<\xbd-\xbd\x04\xc0"
p988
tp989
bag21
(g22
(I0
tp990
g24
tp991
Rp992
(I1
(I3
tp993
g248
I00
S"\xb3U\xe5ui\xa9\xd7?\x80\xd8)\xd5\x15'\x1e\xc0\x98&\xa96\xe9\xdf\xb5\xbf"
p994
tp995
bag21
(g22
(I0
tp996
g24
tp997
Rp998
(I1
(I3
tp999
g248
I00
S'\x047\xbb\xf8\x16*\xfc?\x06\xce\x80\xed\xdf\xd5\x1e\xc06a\xe0!0u\x07@'
p1000
tp1001
basg640
I00
ssg46
(lp1002
g21
(g22
(I0
tp1003
g24
tp1004
Rp1005
(I1
(I3
tp1006
g248
I00
S"v#\xe3\x0bx\xea\xe2?`'$\x1bm]\xfd\xbf\x98(mB\xfb\x8a\x06@"
p1007
tp1008
bag21
(g22
(I0
tp1009
g24
tp1010
Rp1011
(I1
(I3
tp1012
g259
I00
S'3\xe9\xaf\x05T\x89\xe7?+~\xcb\xd3\x15\xc7\x04\xc0x6(d5\xed\x07@'
p1013
tp1014
bag21
(g22
(I0
tp1015
g24
tp1016
Rp1017
(I1
(I3
tp1018
g259
I00
S'\xaf0\xe9h\xba~\xee?k\xbb\xd8\xd4\xd0g\t\xc09\x9ey\xed\xb06\x06@'
p1019
tp1020
bag21
(g22
(I0
tp1021
g24
tp1022
Rp1023
(I1
(I3
tp1024
g259
I00
S'3z\xed\x8eN)\xe4?\x0c\x96\xd4\xa2\x0e\xd0\r\xc0\xbd%\xf5{\xe9\xf9\x03@'
p1025
tp1026
bag21
(g22
(I0
tp1027
g24
tp1028
Rp1029
(I1
(I3
tp1030
g259
I00
S'\xc6\x05\xbdtg\xd9\xe2?F\xdf\x9d@\\\xf3\x11\xc0\x1a\xc4.\xbb\xcc\x12\x02@'
p1031
tp1032
bag21
(g22
(I0
tp1033
g24
tp1034
Rp1035
(I1
(I3
tp1036
g259
I00
S'\xcc\x87!\x1f\xfb\x05\xe6?\x14;\x08\xf1<\xc6\x13\xc0V!\xac1j\x94\xc8?'
p1037
tp1038
bag21
(g22
(I0
tp1039
g24
tp1040
Rp1041
(I1
(I3
tp1042
g259
I00
S'\xe4\x02R\xd9\x08\x8c\xc7?2\xc1\xd4;\xf6\xf3\x15\xc0>\x8c\x8fa?0\xd8?'
p1043
tp1044
bag21
(g22
(I0
tp1045
g24
tp1046
Rp1047
(I1
(I3
tp1048
g259
I00
S'T]\x0c\x0e\xd89\xda?\xf4\x992\x11%\\\x18\xc0\x95\x7f\x10B\xb1)\xe3?'
p1049
tp1050
bag21
(g22
(I0
tp1051
g24
tp1052
Rp1053
(I1
(I3
tp1054
g259
I00
S'B\x9aa8\x98\xa6\xe8?\xf3\xe9\x94/\xc2\xe4\x18\xc0u\xf8\xb0\x7fO\xb8\xf2?'
p1055
tp1056
bag21
(g22
(I0
tp1057
g24
tp1058
Rp1059
(I1
(I3
tp1060
g259
I00
S'Z\xd4U\x1d\xf6`\xf4? %_\x1c\x06\x1f\x1b\xc0T\xcf(@X`\r@'
p1061
tp1062
bag986
asbsg57
(itrajectory_representation.operator
Operator
p1063
(dp1064
g8
I01
sg9
(dp1065
g11
g57
ssg16
g597
sg18
(dp1066
g20
g21
(g22
(I0
tp1067
g24
tp1068
Rp1069
(I1
(I3
tp1070
g31
I00
S'z6w_\x07\x10\x08@\xc9\xd95\x02l\x15\x19\xc0F\xecMH\x81\x88\xfa\xbf'
p1071
tp1072
bssg46
(lp1073
g21
(g22
(I0
tp1074
g24
tp1075
Rp1076
(I1
(I3
tp1077
g248
I00
S'@?>\xed\x17\xe2\xd5?V\xfc\x8e\xf7\xf0\x05\x17\xc0\x86[o\x93v\x8e\x18@'
p1078
tp1079
bag21
(g22
(I0
tp1080
g24
tp1081
Rp1082
(I1
(I3
tp1083
g259
I00
S'\xf8C*\xbe\x14\xcf\xe8?\x81d\xab\xeb\xa8<\x18\xc0\xc8\\\xf4\x8c\xc3\xfa\xfe\xbf'
p1084
tp1085
bag21
(g22
(I0
tp1086
g24
tp1087
Rp1088
(I1
(I3
tp1089
g259
I00
S"'\xc1{\xbc\xf6\x05\xf8?\x02^\x18\xdc\xb7\xac\x18\xc0o\x85MZ3\x91\xf3\xbf"
p1090
tp1091
bag21
(g22
(I0
tp1092
g24
tp1093
Rp1094
(I1
(I3
tp1095
g259
I00
S'\x9a\xbe.\\\\1\x02@n\xc71\xde\x16\x1f\x18\xc0\xa5\xb9\xb4\xac*z\xff\xbf'
p1096
tp1097
bag1069
asbsg556
(itrajectory_representation.operator
Operator
p1098
(dp1099
g8
I01
sg9
(dp1100
g616
Vsquare_packing_box4
p1101
ssg16
g618
sg18
(dp1102
g620
(lp1103
g21
(g22
(I0
tp1104
g24
tp1105
Rp1106
(I1
(I3
tp1107
g248
I00
S'6\x92\xaa$\x83\x99\xf0?\xa2(\xa4&\xd7\x93\x18\xc0\xa2\xac\x88A\x0b\xdb\xf7?'
p1108
tp1109
bag21
(g22
(I0
tp1110
g24
tp1111
Rp1112
(I1
(I3
tp1113
g248
I00
S'\xbc\x15\xceY\x9eG\xff?`\xaf\x1d\xf6c\xf2\x15\xc0h\x1f\x14\xe0\xe3y\x0b@'
p1114
tp1115
bag21
(g22
(I0
tp1116
g24
tp1117
Rp1118
(I1
(I3
tp1119
g248
I00
S'<]\x9c\xb8\xecc\xfe?\xd3\x04\xa8\xc2\t\x80\x16\xc0\xe7\xaa\x15{\xc2\x8c\n@'
p1120
tp1121
basg640
I00
ssg46
(lp1122
g21
(g22
(I0
tp1123
g24
tp1124
Rp1125
(I1
(I3
tp1126
g248
I00
S"v#\xe3\x0bx\xea\xe2?`'$\x1bm]\xfd\xbf\x98(mB\xfb\x8a\x06@"
p1127
tp1128
bag21
(g22
(I0
tp1129
g24
tp1130
Rp1131
(I1
(I3
tp1132
g259
I00
S'3\xe9\xaf\x05T\x89\xe7?+~\xcb\xd3\x15\xc7\x04\xc0x6(d5\xed\x07@'
p1133
tp1134
bag21
(g22
(I0
tp1135
g24
tp1136
Rp1137
(I1
(I3
tp1138
g259
I00
S'\xaf0\xe9h\xba~\xee?k\xbb\xd8\xd4\xd0g\t\xc09\x9ey\xed\xb06\x06@'
p1139
tp1140
bag21
(g22
(I0
tp1141
g24
tp1142
Rp1143
(I1
(I3
tp1144
g259
I00
S'3z\xed\x8eN)\xe4?\x0c\x96\xd4\xa2\x0e\xd0\r\xc0\xbd%\xf5{\xe9\xf9\x03@'
p1145
tp1146
bag21
(g22
(I0
tp1147
g24
tp1148
Rp1149
(I1
(I3
tp1150
g259
I00
S'\xc6\x05\xbdtg\xd9\xe2?F\xdf\x9d@\\\xf3\x11\xc0\x1a\xc4.\xbb\xcc\x12\x02@'
p1151
tp1152
bag21
(g22
(I0
tp1153
g24
tp1154
Rp1155
(I1
(I3
tp1156
g259
I00
S'\xcc\x87!\x1f\xfb\x05\xe6?\x14;\x08\xf1<\xc6\x13\xc0V!\xac1j\x94\xc8?'
p1157
tp1158
bag21
(g22
(I0
tp1159
g24
tp1160
Rp1161
(I1
(I3
tp1162
g259
I00
S'\xe4\x02R\xd9\x08\x8c\xc7?2\xc1\xd4;\xf6\xf3\x15\xc0>\x8c\x8fa?0\xd8?'
p1163
tp1164
bag21
(g22
(I0
tp1165
g24
tp1166
Rp1167
(I1
(I3
tp1168
g259
I00
S'ib\xa2\x0c9\xe9\xd7?\xca\xcd\xb4=\xe6_\x18\xc0tY\xa4\x97\x8d\xd7\x02@'
p1169
tp1170
bag1106
asbssS'mc_paths'
p1171
(dp1172
sS'robot'
p1173
NsS'reachable_obj_region_pairs'
p1174
(lp1175
sS'sampled_pick_configs_for_objects'
p1176
(dp1177
sS'mc_calls'
p1178
I0
sS'pick_poses'
p1179
g593
sS'problem_env'
p1180
NsS'evaluations'
p1181
(dp1182
(g414
g306
g239
tp1183
I00
s(g306
g477
g239
tp1184
I00
s(g477
g238
g239
tp1185
I00
s(g238
g369
g239
tp1186
I01
s(g477
g306
g239
tp1187
I00
s(g414
g238
g239
tp1188
I01
s(g414
g369
g239
tp1189
I01
s(g477
g369
g239
tp1190
I01
s(g238
g306
g239
tp1191
I00
s(g477
Vsquare_packing_box4
p1192
g239
tp1193
I01
s(g306
Vrectangular_packing_box1
p1194
g239
tp1195
I00
s(g369
g238
g239
tp1196
I00
s(g477
Vrectangular_packing_box4
p1197
g239
tp1198
I01
s(g306
g238
g239
tp1199
I01
s(g369
g1197
g239
tp1200
I01
s(g306
g1192
g239
tp1201
I01
s(g238
g1194
g239
tp1202
I00
s(g369
g477
g239
tp1203
I00
s(g369
g1194
g239
tp1204
I00
s(g477
g1194
g239
tp1205
I00
s(g414
g1194
g239
tp1206
I00
s(g369
g1192
g239
tp1207
I01
s(g414
g1197
g239
tp1208
I00
s(g477
g414
g239
tp1209
I00
s(g238
g414
g239
tp1210
I00
s(g414
g1192
g239
tp1211
I01
s(g238
g477
g239
tp1212
I00
s(g414
g477
g239
tp1213
I00
s(g369
g306
g239
tp1214
I00
s(g306
g414
g239
tp1215
I00
s(g238
g1192
g239
tp1216
I01
s(g238
g1197
g239
tp1217
I00
s(g306
g1197
g239
tp1218
I00
s(g369
g414
g239
tp1219
I00
s(g306
g369
g239
tp1220
I01
ssS'paths_to_reachable_entities'
p1221
NsS'use_shortest_path'
p1222
I01
sbsS'ternary_edges'
p1223
(dp1224
(g306
g306
g239
tp1225
(lp1226
I00
as(g238
S'loading_region'
p1227
g1227
tp1228
(lp1229
I00
as(S'entire_region'
p1230
g1194
g239
tp1231
(lp1232
I00
as(g414
g1192
g1227
tp1233
(lp1234
I00
as(g239
g239
g239
tp1235
(lp1236
I00
as(g1192
g306
g1227
tp1237
(lp1238
I00
as(g238
g369
g239
tp1239
(lp1240
I01
as(g239
g1197
g239
tp1241
(lp1242
I00
as(g414
g238
g239
tp1243
(lp1244
I01
as(g369
g1197
g1227
tp1245
(lp1246
I00
as(g239
g1192
g1227
tp1247
(lp1248
I00
as(g414
g1230
g239
tp1249
(lp1250
I00
as(g1227
g239
g1227
tp1251
(lp1252
I00
as(g1197
g477
g239
tp1253
(lp1254
I00
as(g1192
g1230
g239
tp1255
(lp1256
I00
as(g414
g1194
g1227
tp1257
(lp1258
I00
as(g477
g1227
g239
tp1259
(lp1260
I00
as(g1230
g306
g1227
tp1261
(lp1262
I00
as(g239
g1230
g239
tp1263
(lp1264
I00
as(g306
g1227
g239
tp1265
(lp1266
I00
as(g477
g1230
g239
tp1267
(lp1268
I00
as(g238
g238
g1227
tp1269
(lp1270
I00
as(g1227
g1192
g1227
tp1271
(lp1272
I00
as(g1230
g1227
g239
tp1273
(lp1274
I00
as(g1230
g414
g239
tp1275
(lp1276
I00
as(g1227
g1227
g239
tp1277
(lp1278
I00
as(g477
g1197
g1227
tp1279
(lp1280
I00
as(g239
g239
g1227
tp1281
(lp1282
I00
as(g1194
g414
g1227
tp1283
(lp1284
I00
as(g306
g1192
g239
tp1285
(lp1286
I01
as(g477
g238
g239
tp1287
(lp1288
I00
as(g1194
g239
g1227
tp1289
(lp1290
I00
as(g239
g306
g1227
tp1291
(lp1292
I00
as(g1194
g369
g1227
tp1293
(lp1294
I00
as(g369
g1194
g239
tp1295
(lp1296
I00
as(g1227
g238
g1227
tp1297
(lp1298
I00
as(g1192
g414
g1227
tp1299
(lp1300
I00
as(g306
g306
g1227
tp1301
(lp1302
I00
as(g1230
g1192
g239
tp1303
(lp1304
I00
as(g1227
g239
g239
tp1305
(lp1306
I00
as(g1197
g306
g239
tp1307
(lp1308
I00
as(g239
g369
g239
tp1309
(lp1310
I00
as(g414
g1194
g239
tp1311
(lp1312
I00
as(g369
g1192
g239
tp1313
(lp1314
I01
as(g238
g369
g1227
tp1315
(lp1316
I00
as(g477
g414
g239
tp1317
(lp1318
I00
as(g414
g238
g1227
tp1319
(lp1320
I00
as(g414
g306
g1227
tp1321
(lp1322
I00
as(g1230
g414
g1227
tp1323
(lp1324
I00
as(g1227
g369
g1227
tp1325
(lp1326
I00
as(g1230
g239
g239
tp1327
(lp1328
I00
as(g1197
g239
g239
tp1329
(lp1330
I00
as(g1227
g1230
g239
tp1331
(lp1332
I00
as(g306
g1192
g1227
tp1333
(lp1334
I00
as(g477
g306
g1227
tp1335
(lp1336
I00
as(g477
g477
g239
tp1337
(lp1338
I00
as(g1194
g369
g239
tp1339
(lp1340
I00
as(g1230
g306
g239
tp1341
(lp1342
I00
as(g1194
g1227
g1227
tp1343
(lp1344
I00
as(g1192
g238
g239
tp1345
(lp1346
I00
as(g238
g238
g239
tp1347
(lp1348
I00
as(g238
g1197
g239
tp1349
(lp1350
I00
as(g1197
g306
g1227
tp1351
(lp1352
I00
as(g1192
g1194
g1227
tp1353
(lp1354
I00
as(g477
g1197
g239
tp1355
(lp1356
I01
as(g1194
g414
g239
tp1357
(lp1358
I00
as(g306
g1194
g1227
tp1359
(lp1360
I00
as(g1194
g239
g239
tp1361
(lp1362
I00
as(g414
g306
g239
tp1363
(lp1364
I00
as(g306
g477
g239
tp1365
(lp1366
I00
as(g369
g1194
g1227
tp1367
(lp1368
I00
as(g239
g414
g1227
tp1369
(lp1370
I00
as(g1230
g239
g1227
tp1371
(lp1372
I00
as(g1230
g1192
g1227
tp1373
(lp1374
I00
as(g477
g306
g239
tp1375
(lp1376
I00
as(g369
g477
g1227
tp1377
(lp1378
I00
as(g306
g1230
g1227
tp1379
(lp1380
I00
as(g1194
g1227
g239
tp1381
(lp1382
I00
as(g477
g414
g1227
tp1383
(lp1384
I00
as(g477
g1194
g1227
tp1385
(lp1386
I00
as(g1192
g238
g1227
tp1387
(lp1388
I00
as(g239
g369
g1227
tp1389
(lp1390
I00
as(g1230
g477
g1227
tp1391
(lp1392
I00
as(g1227
g369
g239
tp1393
(lp1394
I00
as(g1227
g414
g1227
tp1395
(lp1396
I00
as(g306
g1194
g239
tp1397
(lp1398
I00
as(g1192
g1194
g239
tp1399
(lp1400
I00
as(g1227
g477
g239
tp1401
(lp1402
I00
as(g306
g477
g1227
tp1403
(lp1404
I00
as(g306
g1197
g1227
tp1405
(lp1406
I00
as(g369
g1192
g1227
tp1407
(lp1408
I00
as(g238
g1197
g1227
tp1409
(lp1410
I00
as(g1194
g477
g1227
tp1411
(lp1412
I00
as(g239
g238
g1227
tp1413
(lp1414
I00
as(g369
g1227
g1227
tp1415
(lp1416
I00
as(g1197
g239
g1227
tp1417
(lp1418
I00
as(g238
g1194
g239
tp1419
(lp1420
I00
as(g306
g1230
g239
tp1421
(lp1422
I00
as(g1197
g414
g1227
tp1423
(lp1424
I00
as(g369
g306
g1227
tp1425
(lp1426
I00
as(g477
g1194
g239
tp1427
(lp1428
I00
as(g1192
g1227
g1227
tp1429
(lp1430
I00
as(g414
g239
g239
tp1431
(lp1432
I00
as(g1192
g1197
g239
tp1433
(lp1434
I00
as(g239
g477
g1227
tp1435
(lp1436
I00
as(g1227
g1194
g1227
tp1437
(lp1438
I00
as(g1227
g477
g1227
tp1439
(lp1440
I00
as(g238
g477
g239
tp1441
(lp1442
I00
as(g1194
g477
g239
tp1443
(lp1444
I00
as(g238
g1194
g1227
tp1445
(lp1446
I00
as(g369
g306
g239
tp1447
(lp1448
I00
as(g306
g414
g239
tp1449
(lp1450
I00
as(g369
g239
g1227
tp1451
(lp1452
I00
as(g1192
g1227
g239
tp1453
(lp1454
I00
as(g1227
g1197
g1227
tp1455
(lp1456
I00
as(g306
g1197
g239
tp1457
(lp1458
I00
as(g369
g369
g239
tp1459
(lp1460
I00
as(g1197
g1197
g239
tp1461
(lp1462
I00
as(g1197
g369
g1227
tp1463
(lp1464
I00
as(g369
g1227
g239
tp1465
(lp1466
I00
as(g477
g1192
g239
tp1467
(lp1468
I01
as(g1197
g414
g239
tp1469
(lp1470
I00
as(g414
g1227
g1227
tp1471
(lp1472
I00
as(g369
g1230
g1227
tp1473
(lp1474
I00
as(g414
g239
g1227
tp1475
(lp1476
I00
as(g238
g414
g1227
tp1477
(lp1478
I00
as(g1192
g1197
g1227
tp1479
(lp1480
I00
as(g477
g239
g1227
tp1481
(lp1482
I00
as(g369
g239
g239
tp1483
(lp1484
I00
as(g1227
g1197
g239
tp1485
(lp1486
I00
as(g1194
g1194
g239
tp1487
(lp1488
I00
as(g1227
g1192
g239
tp1489
(lp1490
I00
as(g1192
g477
g239
tp1491
(lp1492
I00
as(g238
g306
g239
tp1493
(lp1494
I00
as(g238
g477
g1227
tp1495
(lp1496
I00
as(g1197
g238
g1227
tp1497
(lp1498
I00
as(g239
g414
g239
tp1499
(lp1500
I00
as(g1230
g369
g1227
tp1501
(lp1502
I00
as(g369
g238
g239
tp1503
(lp1504
I00
as(g1194
g1230
g239
tp1505
(lp1506
I00
as(g477
g1192
g1227
tp1507
(lp1508
I00
as(g477
g369
g1227
tp1509
(lp1510
I00
as(g1197
g1194
g239
tp1511
(lp1512
I00
as(g306
g414
g1227
tp1513
(lp1514
I00
as(g1197
g1227
g239
tp1515
(lp1516
I00
as(g369
g1230
g239
tp1517
(lp1518
I00
as(g1192
g369
g1227
tp1519
(lp1520
I00
as(g306
g238
g239
tp1521
(lp1522
I01
as(g477
g238
g1227
tp1523
(lp1524
I00
as(g1192
g1192
g1227
tp1525
(lp1526
I00
as(g1197
g1197
g1227
tp1527
(lp1528
I00
as(g1194
g1194
g1227
tp1529
(lp1530
I00
as(g238
g1192
g1227
tp1531
(lp1532
I00
as(g1192
g414
g239
tp1533
(lp1534
I00
as(g1230
g238
g239
tp1535
(lp1536
I00
as(g239
g1230
g1227
tp1537
(lp1538
I00
as(g239
g1194
g1227
tp1539
(lp1540
I00
as(g414
g1227
g239
tp1541
(lp1542
I00
as(g238
g306
g1227
tp1543
(lp1544
I00
as(g1194
g238
g1227
tp1545
(lp1546
I00
as(g369
g369
g1227
tp1547
(lp1548
I00
as(g1230
g369
g239
tp1549
(lp1550
I00
as(g414
g369
g1227
tp1551
(lp1552
I00
as(g1194
g1230
g1227
tp1553
(lp1554
I00
as(g238
g414
g239
tp1555
(lp1556
I00
as(g1197
g1194
g1227
tp1557
(lp1558
I00
as(g1197
g369
g239
tp1559
(lp1560
I00
as(g1192
g369
g239
tp1561
(lp1562
I00
as(g238
g239
g1227
tp1563
(lp1564
I00
as(g414
g477
g239
tp1565
(lp1566
I00
as(g477
g477
g1227
tp1567
(lp1568
I00
as(g1197
g1230
g239
tp1569
(lp1570
I00
as(g1227
g1230
g1227
tp1571
(lp1572
I00
as(g1192
g477
g1227
tp1573
(lp1574
I00
as(g1227
g1194
g239
tp1575
(lp1576
I00
as(g1230
g1230
g1227
tp1577
(lp1578
I00
as(g1197
g238
g239
tp1579
(lp1580
I00
as(g238
g1192
g239
tp1581
(lp1582
I01
as(g1227
g306
g1227
tp1583
(lp1584
I00
as(g369
g238
g1227
tp1585
(lp1586
I00
as(g477
g239
g239
tp1587
(lp1588
I00
as(g1230
g238
g1227
tp1589
(lp1590
I00
as(g477
g369
g239
tp1591
(lp1592
I01
as(g369
g414
g239
tp1593
(lp1594
I00
as(g1197
g1227
g1227
tp1595
(lp1596
I00
as(g306
g238
g1227
tp1597
(lp1598
I00
as(g1194
g306
g239
tp1599
(lp1600
I00
as(g1230
g1227
g1227
tp1601
(lp1602
I00
as(g1227
g306
g239
tp1603
(lp1604
I00
as(g238
g1230
g239
tp1605
(lp1606
I00
as(g414
g477
g1227
tp1607
(lp1608
I00
as(g414
g1197
g1227
tp1609
(lp1610
I00
as(g1192
g239
g239
tp1611
(lp1612
I00
as(g1197
g1230
g1227
tp1613
(lp1614
I00
as(g1197
g1192
g239
tp1615
(lp1616
I00
as(g1230
g1197
g1227
tp1617
(lp1618
I00
as(g239
g1194
g239
tp1619
(lp1620
I00
as(g239
g477
g239
tp1621
(lp1622
I00
as(g1194
g238
g239
tp1623
(lp1624
I00
as(g1194
g1197
g239
tp1625
(lp1626
I00
as(g1230
g477
g239
tp1627
(lp1628
I00
as(g414
g369
g239
tp1629
(lp1630
I01
as(g414
g414
g1227
tp1631
(lp1632
I00
as(g1194
g1192
g1227
tp1633
(lp1634
I00
as(g1192
g239
g1227
tp1635
(lp1636
I00
as(g306
g239
g239
tp1637
(lp1638
I00
as(g238
g239
g239
tp1639
(lp1640
I00
as(g1194
g306
g1227
tp1641
(lp1642
I00
as(g1192
g306
g239
tp1643
(lp1644
I00
as(g239
g1227
g239
tp1645
(lp1646
I00
as(g1230
g1230
g239
tp1647
(lp1648
I00
as(g306
g369
g1227
tp1649
(lp1650
I00
as(g238
g1230
g1227
tp1651
(lp1652
I00
as(g1227
g414
g239
tp1653
(lp1654
I00
as(g369
g1197
g239
tp1655
(lp1656
I01
as(g1230
g1197
g239
tp1657
(lp1658
I00
as(g238
g1227
g239
tp1659
(lp1660
I00
as(g369
g414
g1227
tp1661
(lp1662
I00
as(g239
g238
g239
tp1663
(lp1664
I00
as(g1230
g1194
g1227
tp1665
(lp1666
I00
as(g1192
g1230
g1227
tp1667
(lp1668
I00
as(g414
g414
g239
tp1669
(lp1670
I00
as(g1194
g1192
g239
tp1671
(lp1672
I00
as(g477
g1230
g1227
tp1673
(lp1674
I00
as(g414
g1197
g239
tp1675
(lp1676
I00
as(g239
g1192
g239
tp1677
(lp1678
I00
as(g369
g477
g239
tp1679
(lp1680
I00
as(g1197
g1192
g1227
tp1681
(lp1682
I00
as(g1192
g1192
g239
tp1683
(lp1684
I00
as(g1194
g1197
g1227
tp1685
(lp1686
I00
as(g414
g1192
g239
tp1687
(lp1688
I01
as(g477
g1227
g1227
tp1689
(lp1690
I00
as(g239
g306
g239
tp1691
(lp1692
I00
as(g306
g1227
g1227
tp1693
(lp1694
I00
as(g239
g1197
g1227
tp1695
(lp1696
I00
as(g306
g239
g1227
tp1697
(lp1698
I00
as(g1227
g1227
g1227
tp1699
(lp1700
I00
as(g414
g1230
g1227
tp1701
(lp1702
I00
as(g1197
g477
g1227
tp1703
(lp1704
I00
as(g239
g1227
g1227
tp1705
(lp1706
I00
as(g306
g369
g239
tp1707
(lp1708
I01
as(g1227
g238
g239
tp1709
(lp1710
I00
assg592
g593
sS'use_prm'
p1711
I01
sS'object_names'
p1712
(lp1713
S'square_packing_box1'
p1714
aS'rectangular_packing_box1'
p1715
aS'square_packing_box2'
p1716
aS'rectangular_packing_box2'
p1717
aS'square_packing_box3'
p1718
aS'rectangular_packing_box3'
p1719
aS'square_packing_box4'
p1720
aS'rectangular_packing_box4'
p1721
asg1180
NsS'current_holding_collides'
p1722
NsS'object_poses'
p1723
(dp1724
Vrectangular_packing_box4
p1725
g21
(g22
(I0
tp1726
g24
tp1727
Rp1728
(I1
(I1
I3
tp1729
g248
I00
S'c\xb3\xe1+\xc6\x16\xe2?\x91L\xc0V\x01\xe3\x1a\xc06\x8ew\x05#\xa1\x8f?'
p1730
tp1731
bsVrectangular_packing_box2
p1732
g21
(g22
(I0
tp1733
g24
tp1734
Rp1735
(I1
(I1
I3
tp1736
g248
I00
S'\xcb\x8bYh\xf7\xc3\x01@\xc4`\xc8\x17\xcd\n\x1d\xc0\x16\x14\x99\x83\x1fO\xf9?'
p1737
tp1738
bsVrectangular_packing_box3
p1739
g21
(g22
(I0
tp1740
g24
tp1741
Rp1742
(I1
(I1
I3
tp1743
g248
I00
S'\xda\xf2\xb3\x90f\xd0\x00@\x887\x15\x05K\x81\x1a\xc0G\xcb\xc5qO\xcd\r@'
p1744
tp1745
bsVrectangular_packing_box1
p1746
g21
(g22
(I0
tp1747
g24
tp1748
Rp1749
(I1
(I1
I3
tp1750
g248
I00
S'\x0f\xdd\xda\xf2r\x8d\xd3\xbf\xdfLP\x06\xdc\xe5\x1b\xc0\xdb\x07\x00\x87\x1cH\x18@'
p1751
tp1752
bsVsquare_packing_box2
p1753
g21
(g22
(I0
tp1754
g24
tp1755
Rp1756
(I1
(I1
I3
tp1757
g248
I00
S'^ k\xcc\x07W\x0e@\xd4\xe0C\xfd\xfe\xb9\x1a\xc0\x86\x88C\xe9\n/\x15@'
p1758
tp1759
bsVsquare_packing_box3
p1760
g21
(g22
(I0
tp1761
g24
tp1762
Rp1763
(I1
(I1
I3
tp1764
g248
I00
S'\x9a\xdf\xcfL<z\xf1?0:\xd1\xbf\xd2\xba\x1e\xc0~\x80\xf9\xd0\xa0\x81\x11@'
p1765
tp1766
bsVsquare_packing_box1
p1767
g21
(g22
(I0
tp1768
g24
tp1769
Rp1770
(I1
(I1
I3
tp1771
g248
I00
S'\n<\xc3\x02\x11\xe3\x05@ll}\x8f\xa7\xd2\x1b\xc0\x8a\x1c\xd5\x14\x86\xaa\x04@'
p1772
tp1773
bsVsquare_packing_box4
p1774
g21
(g22
(I0
tp1775
g24
tp1776
Rp1777
(I1
(I1
I3
tp1778
g248
I00
S'*\xd2\x0eX\x04v\xf3?\xf4&\x0b\x0b\n\xe5\x15\xc0\x82\xa2\x81\x17\xb71\xa3?'
p1779
tp1780
bssS'reachable_regions_while_holding'
p1781
(lp1782
(g12
g1227
tp1783
a(g612
g1227
tp1784
a(g726
g1227
tp1785
a(g555
g1227
tp1786
a(g879
g1227
tp1787
a(g977
g1227
tp1788
a(g57
g1227
tp1789
a(g556
g1227
tp1790
a(g12
g239
tp1791
a(g555
g239
tp1792
a(g556
g239
tp1793
asS'in_region'
p1794
(itrajectory_representation.predicates.in_region
InRegion
p1795
(dp1796
g1180
NsbsS'cached_pick_paths'
p1797
(dp1798
g12
g605
sg612
(lp1799
g21
(g22
(I0
tp1800
g24
tp1801
Rp1802
(I1
(I3
tp1803
g248
I00
S'@?>\xed\x17\xe2\xd5?V\xfc\x8e\xf7\xf0\x05\x17\xc0\x86[o\x93v\x8e\x18@'
p1804
tp1805
bag21
(g22
(I0
tp1806
g24
tp1807
Rp1808
(I1
(I3
tp1809
g259
I00
S"\xc6'8AN\xb0\xec?\xe0\x975>\x0f\x03\x19\xc0(\xe0e;\x85\x89\x05\xc0"
p1810
tp1811
bag21
(g22
(I0
tp1812
g24
tp1813
Rp1814
(I1
(I3
tp1815
g259
I00
S'~\x1a}\xaa\x02\xe0\xf6?N\xaex\xdd\xfd\x81\x19\xc0\xa8\x14\xd5\xf2I\xd8\x07\xc0'
p1816
tp1817
bag21
(g22
(I0
tp1818
g24
tp1819
Rp1820
(I1
(I3
tp1821
g259
I00
S'\x05\x83iK\x01\x86\xfb?\x162zB{\xdc\x1a\xc0T\xd8\x04\x17\xd4b\xea\xbf'
p1822
tp1823
bag630
asg726
(lp1824
g21
(g22
(I0
tp1825
g24
tp1826
Rp1827
(I1
(I3
tp1828
g248
I00
S'@?>\xed\x17\xe2\xd5?V\xfc\x8e\xf7\xf0\x05\x17\xc0\x86[o\x93v\x8e\x18@'
p1829
tp1830
bag21
(g22
(I0
tp1831
g24
tp1832
Rp1833
(I1
(I3
tp1834
g259
I00
S'\xd0\xcb\x13\x8f\xaa\x9d\xed?\x90\x01<]3\x06\x16\xc0F\xf1\xe7x32\x02\xc0'
p1835
tp1836
bag21
(g22
(I0
tp1837
g24
tp1838
Rp1839
(I1
(I3
tp1840
g259
I00
S'2Z\xe1\xe97J\xf6?\\\x1e`@2v\x16\xc0\xc4\x0c\xcc\x14<\xf9\xf6\xbf'
p1841
tp1842
bag735
asg555
(lp1843
g21
(g22
(I0
tp1844
g24
tp1845
Rp1846
(I1
(I3
tp1847
g248
I00
S'@?>\xed\x17\xe2\xd5?V\xfc\x8e\xf7\xf0\x05\x17\xc0\x86[o\x93v\x8e\x18@'
p1848
tp1849
bag814
asg879
(lp1850
g21
(g22
(I0
tp1851
g24
tp1852
Rp1853
(I1
(I3
tp1854
g248
I00
S'@?>\xed\x17\xe2\xd5?V\xfc\x8e\xf7\xf0\x05\x17\xc0\x86[o\x93v\x8e\x18@'
p1855
tp1856
bag21
(g22
(I0
tp1857
g24
tp1858
Rp1859
(I1
(I3
tp1860
g259
I00
S'\xe4\x9e\xb7\xac\xe0!\xeb?\x8a\x83\x10\xb1\xa2\xad\x15\xc0\x9aS\xfbY\xaf\x8f\xd2\xbf'
p1861
tp1862
bag21
(g22
(I0
tp1863
g24
tp1864
Rp1865
(I1
(I3
tp1866
g259
I00
S'\x12\xfe\xe1\x95\xb8\x19\xf8?\x8c#.~\xd7\xc6\x16\xc0\xfe\xd3A\xf0\xcat\xc0\xbf'
p1867
tp1868
bag21
(g22
(I0
tp1869
g24
tp1870
Rp1871
(I1
(I3
tp1872
g259
I00
S'\x00\xda\x1c<\xfd\xdc\x00@j"\x91\xe3 \x1a\x18\xc0i~!@)\xb0\xdc\xbf'
p1873
tp1874
bag21
(g22
(I0
tp1875
g24
tp1876
Rp1877
(I1
(I3
tp1878
g259
I00
S'\xe6rt0\xc6`\x05@\xe8\xf6\xaa\xc7\x03\x10\x17\xc0v\x9e\xc9\x80o\x15\xed\xbf'
p1879
tp1880
bag900
asg977
(lp1881
g21
(g22
(I0
tp1882
g24
tp1883
Rp1884
(I1
(I3
tp1885
g248
I00
S'@?>\xed\x17\xe2\xd5?V\xfc\x8e\xf7\xf0\x05\x17\xc0\x86[o\x93v\x8e\x18@'
p1886
tp1887
bag21
(g22
(I0
tp1888
g24
tp1889
Rp1890
(I1
(I3
tp1891
g259
I00
S'\xa6\xc4l\x8d\x92\xcc\xe5?\x10\xc7\xe9C\x0b\xd8\x18\xc0@\xb9\xa4\xa6\xc5\xc5\x8e\xbf'
p1892
tp1893
bag21
(g22
(I0
tp1894
g24
tp1895
Rp1896
(I1
(I3
tp1897
g259
I00
S'~\x1a}\xaa\x02\xe0\xf6?N\xaex\xdd\xfd\x81\x19\xc0\xa8\x14\xd5\xf2I\xd8\x07\xc0'
p1898
tp1899
bag986
asg57
g1073
sg556
(lp1900
g21
(g22
(I0
tp1901
g24
tp1902
Rp1903
(I1
(I3
tp1904
g248
I00
S'@?>\xed\x17\xe2\xd5?V\xfc\x8e\xf7\xf0\x05\x17\xc0\x86[o\x93v\x8e\x18@'
p1905
tp1906
bag21
(g22
(I0
tp1907
g24
tp1908
Rp1909
(I1
(I3
tp1910
g259
I00
S'\xac\xb4\xd5\x83\xbb\xf9\xe0?\xe1\x80\xe9+%\xe6\x16\xc0<\xd6N\xab\x06\xcc\xf7\xbf'
p1911
tp1912
bag21
(g22
(I0
tp1913
g24
tp1914
Rp1915
(I1
(I3
tp1916
g259
I00
S'ib\xa2\x0c9\xe9\xd7?\xca\xcd\xb4=\xe6_\x18\xc0tY\xa4\x97\x8d\xd7\x02@'
p1917
tp1918
bag1106
assg557
(dp1919
(Vsquare_packing_box1
p1920
(cnumpy.core.multiarray
scalar
p1921
(g248
S'?V\xf0\xdb\x10\xe3\x05@'
p1922
tp1923
Rp1924
g1921
(g248
S'\xc8\xec,z\xa7\xd2\x1b\xc0'
p1925
tp1926
Rp1927
g1921
(g248
S' y\xe7P\x86\xaa\x04@'
p1928
tp1929
Rp1930
tp1931
tp1932
g587
s(Vrectangular_packing_box4
p1933
(g1921
(g248
S'\xf4\xa6"\x15\xc6\x16\xe2?'
p1934
tp1935
Rp1936
g1921
(g248
S'\x17\x0e\x84d\x01\xe3\x1a\xc0'
p1937
tp1938
Rp1939
g1921
(g248
S'\xf8\xfaZ\x97\x1a\xa1\x8f?'
p1940
tp1941
Rp1942
tp1943
tp1944
g563
s(Vsquare_packing_box3
p1945
(g1921
(g248
S'\x82;P\xa7<z\xf1?'
p1946
tp1947
Rp1948
g1921
(g248
S'_F\xb1\xdc\xd2\xba\x1e\xc0'
p1949
tp1950
Rp1951
g1921
(g248
S'\xa8\x00\x18\xcf\xa0\x81\x11@'
p1952
tp1953
Rp1954
tp1955
tp1956
g583
s(Vsquare_packing_box4
p1957
(g1921
(g248
S'\xc21\xcb\x9e\x04v\xf3?'
p1958
tp1959
Rp1960
g1921
(g248
S'%A\xb8\x02\n\xe5\x15\xc0'
p1961
tp1962
Rp1963
g1921
(g248
S'\x91c\xeb\x19\xc21\xa3?'
p1964
tp1965
Rp1966
tp1967
tp1968
g591
s(Vrectangular_packing_box1
p1969
(g1921
(g248
S'\xc6\xa5*mq\x8d\xd3\xbf'
p1970
tp1971
Rp1972
g1921
(g248
S'\x89x\xeb\xfc\xdb\xe5\x1b\xc0'
p1973
tp1974
Rp1975
g1921
(g248
S't\xceOq\x1cH\x18@'
p1976
tp1977
Rp1978
tp1979
tp1980
g575
s(Vrectangular_packing_box3
p1981
(g1921
(g248
S'\xd7\xd9\x90\x7ff\xd0\x00@'
p1982
tp1983
Rp1984
g1921
(g248
S'\x86\xc7~\x16K\x81\x1a\xc0'
p1985
tp1986
Rp1987
g1921
(g248
S'T\xa7\x03YO\xcd\r@'
p1988
tp1989
Rp1990
tp1991
tp1992
g571
s(Vsquare_packing_box2
p1993
(g1921
(g248
S'\xbb\xf2Y\x9e\x07W\x0e@'
p1994
tp1995
Rp1996
g1921
(g248
S'f\xf9\xba\x0c\xff\xb9\x1a\xc0'
p1997
tp1998
Rp1999
g1921
(g248
S'\x1eP6\xe5\n/\x15@'
p2000
tp2001
Rp2002
tp2003
tp2004
g579
s(Vrectangular_packing_box2
p2005
(g1921
(g248
S'\x048\xbd\x8b\xf7\xc3\x01@'
p2006
tp2007
Rp2008
g1921
(g248
S" 'L\x18\xcd\n\x1d\xc0"
p2009
tp2010
Rp2011
g1921
(g248
S'\xfc\x1b\xb4W\x1fO\xf9?'
p2012
tp2013
Rp2014
tp2015
tp2016
g567
ssS'state_saver'
p2017
(igtamp_utils.utils
CustomStateSaver
p2018
(dp2019
S'robot_base_pose'
p2020
g21
(g22
(I0
tp2021
g24
tp2022
Rp2023
(I1
(I1
I3
tp2024
g248
I00
S'V?>\xed\x17\xe2\xd5?X\xfc\x8e\xf7\xf0\x05\x17\xc0\x86[o\x93v\x8e\x18@'
p2025
tp2026
bsS'held_object'
p2027
NsS'robot_name'
p2028
S'pr2'
p2029
sS'env_id'
p2030
I1
sg1723
(dp2031
Vright_wall_1
p2032
g21
(g22
(I0
tp2033
g24
tp2034
Rp2035
(I1
(I4
tp2036
g248
I00
S'H\xe1z\x14\xaeG\x12@&\\\x8f\xc2\xf5(\xd4\xbf\xcc\x7fH\xbf}\x1d\xed?\x00\x00\x00\x00\x00\x00\x00\x00'
p2037
tp2038
bsVc_obst5
p2039
g21
(g22
(I0
tp2040
g24
tp2041
Rp2042
(I1
(I4
tp2043
g248
I00
S"\x80c_%ki\x12@\xd7\xb1\xcc\xc6\xce\xfd\xc8\xbfe\xaa`TR'\xed?#\x9cs\xf8\xb7\xed\x12@"
p2044
tp2045
bsVentrance_right
p2046
g21
(g22
(I0
tp2047
g24
tp2048
Rp2049
(I1
(I4
tp2050
g248
I00
S'ffffff\n@H\xe1z\x14\xaeG\t\xc0\x9c\xc4 \xb0rh\xc1?\x00\x00\x00\x00\x00\x00\x00\x00'
p2051
tp2052
bsVcomputer_table
p2053
g21
(g22
(I0
tp2054
g24
tp2055
Rp2056
(I1
(I4
tp2057
g248
I00
S'\x00\x00\x00\x00\x00\x00\x13@\x00\x00\x00\x00\x00\x00\xf8\xbf\x96C\x8bl\xe7\xfb\xe7?\xd2!3\x7f|\xd9\x12@'
p2058
tp2059
bsVchair_6b56
p2060
g21
(g22
(I0
tp2061
g24
tp2062
Rp2063
(I1
(I4
tp2064
g248
I00
S'u=\n\xd7\xa3p\xf5?K\xe1z\x14\xaeG\xd1?\x00\x00\x00\x00\x00\x00\x00\x00\xd6$\xfaNBm\n@'
p2065
tp2066
bsVsquare_packing_box3
p2067
g21
(g22
(I0
tp2068
g24
tp2069
Rp2070
(I1
(I4
tp2071
g248
I00
S"\x94\xdf\xcfL<z\xf1?':\xd1\xbf\xd2\xba\x1e\xc0L7\x89A`\xe5\xd8?~\x80\xf9\xd0\xa0\x81\x11@"
p2072
tp2073
bsVsquare_packing_box2
p2074
g21
(g22
(I0
tp2075
g24
tp2076
Rp2077
(I1
(I4
tp2078
g248
I00
S'b k\xcc\x07W\x0e@\xd6\xe0C\xfd\xfe\xb9\x1a\xc0L7\x89A`\xe5\xd8?\x86\x88C\xe9\n/\x15@'
p2079
tp2080
bsVtable
p2081
g21
(g22
(I0
tp2082
g24
tp2083
Rp2084
(I1
(I4
tp2085
g248
I00
S'\x7f\xf6#EdX\xed?\xac\xffs\x98//\xc0\xbf\x00\x00\x00\x00\x00\x00\x00\x00\x00\x00\x00\x00\x00\x00\x00\x00'
p2086
tp2087
bsVsquare_packing_box1
p2088
g21
(g22
(I0
tp2089
g24
tp2090
Rp2091
(I1
(I4
tp2092
g248
I00
S'\x0c<\xc3\x02\x11\xe3\x05@pl}\x8f\xa7\xd2\x1b\xc0L7\x89A`\xe5\xd8?\x8a\x1c\xd5\x14\x86\xaa\x04@'
p2093
tp2094
bsVback_wall_2
p2095
g21
(g22
(I0
tp2096
g24
tp2097
Rp2098
(I1
(I4
tp2099
g248
I00
S'\xaeG\xe1z\x14.\x13@\x80\x14\xaeG\xe1z\xc4?xX\xa85\xcd\xbb\xf2?\x00\x00\x00\x00\x00\x00\x00\x00'
p2100
tp2101
bsVchair_083c
p2102
g21
(g22
(I0
tp2103
g24
tp2104
Rp2105
(I1
(I4
tp2106
g248
I00
S'\xa4p=\n\xd7\xa3\xe0?333333\xe3\xbf\x00\x00\x00\x00\x00\x00\x00\x00\x00\x00\x00\x00\x00\x00\x00\x00'
p2107
tp2108
bsVback_wall_1
p2109
g21
(g22
(I0
tp2110
g24
tp2111
Rp2112
(I1
(I4
tp2113
g248
I00
S'\xaeG\xe1z\x14.\x13@\x80\x14\xaeG\xe1z\xc4?\xcc\x7fH\xbf}\x1d\xed?\x00\x00\x00\x00\x00\x00\x00\x00'
p2114
tp2115
bsVbottom_wall
p2116
g21
(g22
(I0
tp2117
g24
tp2118
Rp2119
(I1
(I4
tp2120
g248
I00
S'\x00\x00\x00\x00\x00\x00\xfc?\x00\x00\x00\x00\x00\x00\x00\x00\x00\x00\x00\x00\x00\x00\x00\x00\x00\x00\x00\x00\x00\x00\x00\x00'
p2121
tp2122
bsVcup_905a
p2123
g21
(g22
(I0
tp2124
g24
tp2125
Rp2126
(I1
(I4
tp2127
g248
I00
S'\x00\x00\x00\x00\x00\x00\xf0?\x83\xc0\xca\xa1E\xb6\xdb?\x1b/\xdd$\x06\x81\xed?\x00\x00\x00\x00\x00\x00\x00\x00'
p2128
tp2129
bsVplate_496f
p2130
g21
(g22
(I0
tp2131
g24
tp2132
Rp2133
(I1
(I4
tp2134
g248
I00
S"q=\n\xd7\xa3p\xe5?\x9dhW!\xe5'\xdd\xbf\x1b/\xdd$\x06\x81\xed?\x00\x00\x00\x00\x00\x00\x00\x00"
p2135
tp2136
bsVtoaster
p2137
g21
(g22
(I0
tp2138
g24
tp2139
Rp2140
(I1
(I4
tp2141
g248
I00
S')\\\x8f\xc2\xf5(\xf4\xbf\xe0z\x14\xaeG\xe1\xf2\xbf\xb8\x1e\x85\xebQ\xb8\xee?\x89/`\x9b\xf8\x8a\xe4?'
p2142
tp2143
bsVc_obst1
p2144
g21
(g22
(I0
tp2145
g24
tp2146
Rp2147
(I1
(I4
tp2148
g248
I00
S" ,d(8o\x12@\xff}`\xa0\xde\x8f\xc1?e\xaa`TR'\xed?\x8c\xfb\xff\xc3\xd0\xea\x12@"
p2149
tp2150
bsVrectangular_packing_box4
p2151
g21
(g22
(I0
tp2152
g24
tp2153
Rp2154
(I1
(I4
tp2155
g248
I00
S'c\xb3\xe1+\xc6\x16\xe2?\x91L\xc0V\x01\xe3\x1a\xc0L7\x89A`\xe5\xd8?\xf6\xcew\x05#\xa1\x8f?'
p2156
tp2157
bsVmicrowave
p2158
g21
(g22
(I0
tp2159
g24
tp2160
Rp2161
(I1
(I4
tp2162
g248
I00
S'\x9a\x99\x99\x99\x99\x99\xf1\xbf\x00\x00\x00\x00\x00\x00\x00@7\x89A`\xe5\xd0\xee?\x00\x00\x00\x00\x00\x00\x00\x00'
p2163
tp2164
bsVc_obst7
p2165
g21
(g22
(I0
tp2166
g24
tp2167
Rp2168
(I1
(I4
tp2169
g248
I00
S"\xe0\x83\xe5\xc6\xd1N\x12@\xe4T\x96\x18\x02\x9a\xd6?e\xaa`TR'\xed?\xc1\x12\xde\xb7\x0cz\x04@"
p2170
tp2171
bsVc_obst6
p2172
g21
(g22
(I0
tp2173
g24
tp2174
Rp2175
(I1
(I4
tp2176
g248
I00
S"\xb8\x14G\x0e\xc2\xf8\x11@TNp\xbf\x05\n\xd1?e\xaa`TR'\xed?\x19>@\xaae\xed\x0c@"
p2177
tp2178
bsVcup_b6af
p2179
g21
(g22
(I0
tp2180
g24
tp2181
Rp2182
(I1
(I4
tp2183
g248
I00
S'R\xb8\x1e\x85\xebQ\xe8?\x9a\x99\x99\x99\x99\x99\xe1?\x1b/\xdd$\x06\x81\xed?\x00\x00\x00\x00\x00\x00\x00\x00'
p2184
tp2185
bsVc_obst4
p2186
g21
(g22
(I0
tp2187
g24
tp2188
Rp2189
(I1
(I4
tp2190
g248
I00
S"G\xafO\x1e\xc2N\x12@P\xee\x1f\x169\x9a\xab\xbfe\xaa`TR'\xed?\xcd\xa3\xac~,\xf7\x07@"
p2191
tp2192
bsVrectangular_packing_box2
p2193
g21
(g22
(I0
tp2194
g24
tp2195
Rp2196
(I1
(I4
tp2197
g248
I00
S'\xd3\x8bYh\xf7\xc3\x01@\xc4`\xc8\x17\xcd\n\x1d\xc0L7\x89A`\xe5\xd8?\x16\x14\x99\x83\x1fO\xf9?'
p2198
tp2199
bsVplate_fa76
p2200
g21
(g22
(I0
tp2201
g24
tp2202
Rp2203
(I1
(I4
tp2204
g248
I00
S'=\n\xd7\xa3p=\xf2?\x00\x00\x00\x00\x00\x00\x00\x00\x1b/\xdd$\x06\x81\xed?\x00\x00\x00\x00\x00\x00\x00\x00'
p2205
tp2206
bsVfloorwalls
p2207
g21
(g22
(I0
tp2208
g24
tp2209
Rp2210
(I1
(I4
tp2211
g248
I00
S'\xc7\xcc\xcc\xcc\xcc\xcc\xfc?\x00\x00\x00\x00\x00\x00\x18\xc0H\xe1z\x14\xaeG\xc1?\x16-DT\xfb!\xf9?'
p2212
tp2213
bsVpin_c671
p2214
g21
(g22
(I0
tp2215
g24
tp2216
Rp2217
(I1
(I4
tp2218
g248
I00
S'\xc3\xf5(\\\x8f\xc2\xf1\xbf}?5^\xbaI\x02@\xb8\x1e\x85\xebQ\xb8\xfa?\x00\x00\x00\x00\x00\x00\x00\x00'
p2219
tp2220
bsVc_obst3
p2221
g21
(g22
(I0
tp2222
g24
tp2223
Rp2224
(I1
(I4
tp2225
g248
I00
S"Dp\x93Ug\x05\x12@Ho\xb6\xa8a\xc6\xca?e\xaa`TR'\xed?&\x88I\x82\xbb\xa9\x0e@"
p2226
tp2227
bsVchair_2e39
p2228
g21
(g22
(I0
tp2229
g24
tp2230
Rp2231
(I1
(I4
tp2232
g248
I00
S'hfffff\xee?cfffff\xf2\xbf\x00\x00\x00\x00\x00\x00\x00\x00\x07M\xe8QQF\xf3?'
p2233
tp2234
bsVentrance_left
p2235
g21
(g22
(I0
tp2236
g24
tp2237
Rp2238
(I1
(I4
tp2239
g248
I00
S'\x98\x99\x99\x99\x99\x99\xe9\xbfH\xe1z\x14\xaeG\t\xc0\x9c\xc4 \xb0rh\xc1?\x00\x00\x00\x00\x00\x00\x00\x00'
p2240
tp2241
bsVtop_wall_1
p2242
g21
(g22
(I0
tp2243
g24
tp2244
Rp2245
(I1
(I4
tp2246
g248
I00
S'H\xe1z\x14\xaeG\x12@\x80\x14\xaeG\xe1z\xc4?xX\xa85\xcd\xbb\xf2?\x00\x00\x00\x00\x00\x00\x00\x00'
p2247
tp2248
bsVrectangular_packing_box3
p2249
g21
(g22
(I0
tp2250
g24
tp2251
Rp2252
(I1
(I4
tp2253
g248
I00
S'\xe2\xf2\xb3\x90f\xd0\x00@\x887\x15\x05K\x81\x1a\xc0L7\x89A`\xe5\xd8?G\xcb\xc5qO\xcd\r@'
p2254
tp2255
bsVshaker
p2256
g21
(g22
(I0
tp2257
g24
tp2258
Rp2259
(I1
(I4
tp2260
g248
I00
S'\n\xd7\xa3p=\n\x01@\x14\xaeG\xe1z\x14\x02@\\\x8f\xc2\xf5(\\\xef?\x00\x00\x00\x00\x00\x00\x00\x00'
p2261
tp2262
bsVc_obst9
p2263
g21
(g22
(I0
tp2264
g24
tp2265
Rp2266
(I1
(I4
tp2267
g248
I00
S"@/\x92y\xef\x8d\x12@L\xee\x07\x13\x08\x03\xb2\xbfe\xaa`TR'\xed?\xec\x1d\x1b\x1e\x02r\x16@"
p2268
tp2269
bsVplate_835a
p2270
g21
(g22
(I0
tp2271
g24
tp2272
Rp2273
(I1
(I4
tp2274
g248
I00
S'\xf6(\\\x8f\xc2\xf5\xf0?\\\x8f\xc2\xf5(\\\xe7\xbf\x1b/\xdd$\x06\x81\xed?\x00\x00\x00\x00\x00\x00\x00\x00'
p2275
tp2276
bsVcup_58a2
p2277
g21
(g22
(I0
tp2278
g24
tp2279
Rp2280
(I1
(I4
tp2281
g248
I00
S'\x85\xebQ\xb8\x1e\x85\xe3?\xcd\xcc\xcc\xcc\xcc\xcc\xdc?\x1b/\xdd$\x06\x81\xed?\x00\x00\x00\x00\x00\x00\x00\x00'
p2282
tp2283
bsVleft_wall_1
p2284
g21
(g22
(I0
tp2285
g24
tp2286
Rp2287
(I1
(I4
tp2288
g248
I00
S'H\xe1z\x14\xaeG\x12@S\xb8\x1e\x85\xebQ\xe4?\xcc\x7fH\xbf}\x1d\xed?\x00\x00\x00\x00\x00\x00\x00\x00'
p2289
tp2290
bsVc_obst2
p2291
g21
(g22
(I0
tp2292
g24
tp2293
Rp2294
(I1
(I4
tp2295
g248
I00
S"\x82U\x0b\xf2\xb4=\x12@\x022\xa6\xc4i\xe4\xdb?e\xaa`TR'\xed?\x02V\xf6\xd4<\xf1\x12@"
p2296
tp2297
bsVsquare_packing_box4
p2298
g21
(g22
(I0
tp2299
g24
tp2300
Rp2301
(I1
(I4
tp2302
g248
I00
S',\xd2\x0eX\x04v\xf3?\xf4&\x0b\x0b\n\xe5\x15\xc0L7\x89A`\xe5\xd8?\x82\xa2\x81\x17\xb71\xa3?'
p2303
tp2304
bsVrectangular_packing_box1
p2305
g21
(g22
(I0
tp2306
g24
tp2307
Rp2308
(I1
(I4
tp2309
g248
I00
S'\x0e\xdd\xda\xf2r\x8d\xd3\xbf\xe0LP\x06\xdc\xe5\x1b\xc0L7\x89A`\xe5\xd8?\xdb\x07\x00\x87\x1cH\x18@'
p2310
tp2311
bsVpin_371e
p2312
g21
(g22
(I0
tp2313
g24
tp2314
Rp2315
(I1
(I4
tp2316
g248
I00
S'333333\xf3\xbfffffff\xf6?\xb8\x1e\x85\xebQ\xb8\xee?\x00\x00\x00\x00\x00\x00\x00\x00'
p2317
tp2318
bsVfridge
p2319
g21
(g22
(I0
tp2320
g24
tp2321
Rp2322
(I1
(I4
tp2323
g248
I00
S'\xd7\xa3p=\n\xd7\xeb\xbf\x00\x00\x00\x00\x00\x00\x00\xc0\xcd\xcc\xcc\xcc\xcc\xcc\xf8?\x00\x00\x00\x00\x00\x00\x00\x00'
p2324
tp2325
bsVcup_d441
p2326
g21
(g22
(I0
tp2327
g24
tp2328
Rp2329
(I1
(I4
tp2330
g248
I00
S'\n\xd7\xa3p=\n\xef?\x8f\xc2\xf5(\\\x8f\xe2?\x1b/\xdd$\x06\x81\xed?\x00\x00\x00\x00\x00\x00\x00\x00'
p2331
tp2332
bsVshelf2
p2333
g21
(g22
(I0
tp2334
g24
tp2335
Rp2336
(I1
(I4
tp2337
g248
I00
S'\x00\x00\x00\x00\x00\x00\x0e@\xaeG\xe1z\x14\xae\x07@\x9c\xc4 \xb0rh\xc1?\xd2!3\x7f|\xd9\x12@'
p2338
tp2339
bsVtop_wall_2
p2340
g21
(g22
(I0
tp2341
g24
tp2342
Rp2343
(I1
(I4
tp2344
g248
I00
S'H\xe1z\x14\xaeG\x12@\x80\x14\xaeG\xe1z\xc4?\x16HP\xfc\x18\xf3\xfd?\x00\x00\x00\x00\x00\x00\x00\x00'
p2345
tp2346
bsVc_obst0
p2347
g21
(g22
(I0
tp2348
g24
tp2349
Rp2350
(I1
(I4
tp2351
g248
I00
S"\x80\x1e'`\xd7\xea\x11@\x00\x80t\x07`\x19I\xbfe\xaa`TR'\xed?k\xfbr\x9d\xcd]\x00@"
p2352
tp2353
bsVshelf1
p2354
g21
(g22
(I0
tp2355
g24
tp2356
Rp2357
(I1
(I4
tp2358
g248
I00
S'\x00\x00\x00\x00\x00\x00\x13@\xaeG\xe1z\x14\xae\x07@\x9c\xc4 \xb0rh\xc1?\xd2!3\x7f|\xd9\x12@'
p2359
tp2360
bsVsink
p2361
g21
(g22
(I0
tp2362
g24
tp2363
Rp2364
(I1
(I4
tp2365
g248
I00
S'ffffff\xd6?333333\x01@\x9a\x99\x99\x99\x99\x99\xb9\xbf\x00\x00\x00\x00\x00\x00\x00\x00'
p2366
tp2367
bsVpr2
p2368
g21
(g22
(I0
tp2369
g24
tp2370
Rp2371
(I1
(I4
tp2372
g248
I00
S'V?>\xed\x17\xe2\xd5?X\xfc\x8e\xf7\xf0\x05\x17\xc0\x9a_\x94\xa0\xbf\xd0\xc1?\x86[o\x93v\x8e\x18@'
p2373
tp2374
bsVchair_12d0
p2375
g21
(g22
(I0
tp2376
g24
tp2377
Rp2378
(I1
(I4
tp2379
g248
I00
S'\\\xd2\x18\xad\xa3\xaa\xdb?Of\x83L2r\xc6?\x00\x00\x00\x00\x00\x00\x00\x00\xf8\x81\r\x14M\xa6\x17@'
p2380
tp2381
bsVright_wall_2
p2382
g21
(g22
(I0
tp2383
g24
tp2384
Rp2385
(I1
(I4
tp2386
g248
I00
S'H\xe1z\x14\xaeG\x12@&\\\x8f\xc2\xf5(\xd4\xbfxX\xa85\xcd\xbb\xf2?\x00\x00\x00\x00\x00\x00\x00\x00'
p2387
tp2388
bsVknife_block
p2389
g21
(g22
(I0
tp2390
g24
tp2391
Rp2392
(I1
(I4
tp2393
g248
I00
S'R\xb8\x1e\x85\xebQ\xe0\xbfffffff\x02@`\xe5\xd0"\xdb\xf9\xee?\x00\x00\x00\x00\x00\x00\x00\x00'
p2394
tp2395
bsVleft_wall_2
p2396
g21
(g22
(I0
tp2397
g24
tp2398
Rp2399
(I1
(I4
tp2400
g248
I00
S'H\xe1z\x14\xaeG\x12@S\xb8\x1e\x85\xebQ\xe4?xX\xa85\xcd\xbb\xf2?\x00\x00\x00\x00\x00\x00\x00\x00'
p2401
tp2402
bsVleft_wall
p2403
g21
(g22
(I0
tp2404
g24
tp2405
Rp2406
(I1
(I4
tp2407
g248
I00
S'\x9a\x99\x99\x99\x99\x99\x07@H\xe1z\x14\xaeG\xff?\x9c\xc4 \xb0rh\xc1?\x00\x00\x00\x00\x00\x00\x00\x00'
p2408
tp2409
bsVkitchen
p2410
g21
(g22
(I0
tp2411
g24
tp2412
Rp2413
(I1
(I4
tp2414
g248
I00
S'\x00\x00\x00\x00\x00\x00\x00\x00\x00\x00\x00\x00\x00\x00\x00\x00\x00\x00\x00\x00\x00\x00\x00\x00\x00\x00\x00\x00\x00\x00\x00\x00'
p2415
tp2416
bsVtable2
p2417
g21
(g22
(I0
tp2418
g24
tp2419
Rp2420
(I1
(I4
tp2421
g248
I00
S'\x00\x00\x00\x00\x00\x00\x13@\x80\x14\xaeG\xe1z\xc4?S\x96!\x8euq\xec?\xd2!3\x7f|\xd9\x12@'
p2422
tp2423
bsVc_obst8
p2424
g21
(g22
(I0
tp2425
g24
tp2426
Rp2427
(I1
(I4
tp2428
g248
I00
S"6\xc0<\xf8\x94k\x12@\x80\xbfm8\x1emu?e\xaa`TR'\xed?\r\x01\xe5\xb9\xd4\x92\x13@"
p2429
tp2430
bsVplate_b4e7
p2431
g21
(g22
(I0
tp2432
g24
tp2433
Rp2434
(I1
(I4
tp2435
g248
I00
S'\x14\xaeG\xe1z\x14\xf2\xbf\x14\xaeG\xe1z\x14\x00@=\n\xd7\xa3p=\xf2?\x00\x00\x00\x00\x00\x00\x00\x00'
p2436
tp2437
bsVcooker
p2438
g21
(g22
(I0
tp2439
g24
tp2440
Rp2441
(I1
(I4
tp2442
g248
I00
S'\xaeG\xe1z\x14\xae\xff?\x85\xebQ\xb8\x1e\x85\xfb?\x00\x00\x00\x00\x00\x00\xe8?\x00\x00\x00\x00\x00\x00\x00\x00'
p2443
tp2444
bsVpin_a091
p2445
g21
(g22
(I0
tp2446
g24
tp2447
Rp2448
(I1
(I4
tp2449
g248
I00
S'\xdb\xf9~j\xbct\xf7\xbf)\\\x8f\xc2\xf5(\x02@\xb8\x1e\x85\xebQ\xb8\xfa?\x00\x00\x00\x00\x00\x00\x00\x00'
p2450
tp2451
bsVside_wall_2
p2452
g21
(g22
(I0
tp2453
g24
tp2454
Rp2455
(I1
(I4
tp2456
g248
I00
S'\xfa\xff\xff\xff\xff\xff\x14@\x00\x00\x00\x00\x00\x00\x00\x00\x9c\xc4 \xb0rh\xc1?\x18-DT\xfb!\xf9?'
p2457
tp2458
bsVside_wall_3
p2459
g21
(g22
(I0
tp2460
g24
tp2461
Rp2462
(I1
(I4
tp2463
g248
I00
S'\x00\x00\x00\x00\x00\x00\xfc?H\xe1z\x14\xaeG\t@\x9c\xc4 \xb0rh\xc1?\x00\x00\x00\x00\x00\x00\x00\x00'
p2464
tp2465
bsVmixer
p2466
g21
(g22
(I0
tp2467
g24
tp2468
Rp2469
(I1
(I4
tp2470
g248
I00
S'\n\xd7\xa3p=\n\xfb?ffffff\x02@d;\xdfO\x8d\x97\xee?\x00\x00\x00\x00\x00\x00\x00\x00'
p2471
tp2472
bsVside_wall_1
p2473
g21
(g22
(I0
tp2474
g24
tp2475
Rp2476
(I1
(I4
tp2477
g248
I00
S'\xf4\xff\xff\xff\xff\xff\xfb\xbf\x00\x00\x00\x00\x00\x00\x00\x00\x9c\xc4 \xb0rh\xc1?\x18-DT\xfb!\xf9?'
p2478
tp2479
bsVbottom_wall_1
p2480
g21
(g22
(I0
tp2481
g24
tp2482
Rp2483
(I1
(I4
tp2484
g248
I00
S'H\xe1z\x14\xaeG\x12@\x80\x14\xaeG\xe1z\xc4?\xcc\x7fH\xbf}\x1d\xed?\x00\x00\x00\x00\x00\x00\x00\x00'
p2485
tp2486
bsVcan
p2487
g21
(g22
(I0
tp2488
g24
tp2489
Rp2490
(I1
(I4
tp2491
g248
I00
S'\x00\x00\x00\x00\x00\x00\xf4\xbfH\xe1z\x14\xaeG\xe1\xbf\n\xd7\xa3p=\n\xef?\x00\x00\x00\x00\x00\x00\x00\x00'
p2492
tp2493
bsVright_wall
p2494
g21
(g22
(I0
tp2495
g24
tp2496
Rp2497
(I1
(I4
tp2498
g248
I00
S'\x9a\x99\x99\x99\x99\x99\x07@H\xe1z\x14\xaeG\xff\xbf\x9c\xc4 \xb0rh\xc1?\x00\x00\x00\x00\x00\x00\x00\x00'
p2499
tp2500
bsVcoffe_machine
p2501
g21
(g22
(I0
tp2502
g24
tp2503
Rp2504
(I1
(I4
tp2505
g248
I00
S'\\\x8f\xc2\xf5(\\\xf5\xbf\xb8\x1e\x85\xebQ\xb8\xee?\n\xd7\xa3p=\n\xef?\x00\x00\x00\x00\x00\x00\x00\x00'
p2506
tp2507
bsVcomputer_chair
p2508
g21
(g22
(I0
tp2509
g24
tp2510
Rp2511
(I1
(I4
tp2512
g248
I00
S'\xcd\xcc\xcc\xcc\xcc\xcc\x10@\x00\x00\x00\x00\x00\x00\xf8\xbf\xa00\xb6\x10\xe4\xa9\x95\xbf\x00\x00\x00\x00\x00\x00\x00\x00'
p2513
tp2514
bssS'robot_dof_values'
p2515
g21
(g22
(I0
tp2516
g24
tp2517
Rp2518
(I1
(I39
tp2519
g248
I00
S'\x00\x00\x00\x00\x00\x00\x00\x00\x00\x00\x00\x00\x00\x00\x00\x00\x00\x00\x00\x00\x00\x00\x00\x00\x00\x00\x00\x00\x00\x00\x00\x00\x00\x00\x00\x00\x00\x00\x00\x00\x00\x00\x00\x00\x00\x00\x00\x00\x00\x00\x00\x00\x00\x00\x00\x00\x00\x00\x00\x00\x00\x00\x00\x00\x00\x00\x00\x00\x00\x00\x00\x00\x00\x00\x00\x00\x00\x00\x00\x00\x00\x00\x00\x00\x00\x00\x00\x00\x00\x00\x00\x00\x00\x00\x00\x00@d;\xdfO\x8d\x87?\x00\x00\x00\x00\x00\x00\x00\x00\x00\x00\x00\x00\x00\x00\x00\x00\x00\x00\x00\x00\x00\x00\x00\x00\xee\xed\t\xf1\xcc\xa4\xf4?\x00\x00\x00\x00\x00\x00\x00\x00N"\xd0^p\xf8\x00\xc0\x00\x00\x00\x00\x00\x00\x00\x00\x9b\x03\r.\x04V\xe6\xbf\x00\x00\x00\x00\x00\x00\x00\x00\x00\x00\x00\x00\x00\x00\x00\x00\x00\x00\x00\x00\x00\x00\xac\xbc\x00\x00\x00\x00\x00\x00\x00\x00\x00\x00\x00\x00\x00\x00\xe0\xbc\x00\x00\x00\x00\x00\x00\x00\x00\x00\x00\x00\x00\x00\x00\x00\x00\xee\xed\t\xf1\xcc\xa4\xf4?\x00\x00\x00\x00\x00\x00\xb0\xbcN"\xd0^p\xf8\x00\xc0\x00\x00\x00\x00\x00\x00\x00\x00\x9f\x03\r.\x04V\xe6\xbf\x00\x00\x00\x00\x00\x00\x00\x00\xcc9\xe3\xc17\x89\xe1?\xfe\xff\xff\xff\xff\xff\x7f<\x93`G\xb3\x80b\xa2\xbc\x00\x00\x00\x00\x00\x00\xe0\xbc\x00\x00\x00\x00\x00\x00\x00\x00'
p2520
tp2521
bsS'is_holding'
p2522
I00
sbsS'holding_collides'
p2523
NsS'parent_ternary_predicates'
p2524
(dp2525
sS'cached_place_paths'
p2526
(dp2527
(g555
g1227
tp2528
(lp2529
g21
(g22
(I0
tp2530
g24
tp2531
Rp2532
(I1
(I3
tp2533
g248
I00
S'(\x8d\xc7JC\xc3\xc6\xbf\xca_\xfb!\xd7\xb9\x18\xc0\x94\xc7X\xc4\x930\x13@'
p2534
tp2535
bas(g556
g239
tp2536
(lp2537
g21
(g22
(I0
tp2538
g24
tp2539
Rp2540
(I1
(I3
tp2541
g248
I00
S'@\x92\xaa$\x83\x99\xf0?\xa0(\xa4&\xd7\x93\x18\xc0\xa3\xac\x88A\x0b\xdb\xf7?'
p2542
tp2543
bag21
(g22
(I0
tp2544
g24
tp2545
Rp2546
(I1
(I3
tp2547
g259
I00
S'ib\xa2\x0c9\xe9\xd7?\xca\xcd\xb4=\xe6_\x18\xc0tY\xa4\x97\x8d\xd7\x02@'
p2548
tp2549
bag21
(g22
(I0
tp2550
g24
tp2551
Rp2552
(I1
(I3
tp2553
g259
I00
S'\xe4\x02R\xd9\x08\x8c\xc7?2\xc1\xd4;\xf6\xf3\x15\xc0>\x8c\x8fa?0\xd8?'
p2554
tp2555
bag21
(g22
(I0
tp2556
g24
tp2557
Rp2558
(I1
(I3
tp2559
g259
I00
S'\xcc\x87!\x1f\xfb\x05\xe6?\x14;\x08\xf1<\xc6\x13\xc0V!\xac1j\x94\xc8?'
p2560
tp2561
bag21
(g22
(I0
tp2562
g24
tp2563
Rp2564
(I1
(I3
tp2565
g259
I00
S'`\xc8Aw-\x81\xeb?/\xc3\xe6O\x04\xca\x10\xc0\x8a\xb7K)\x91{\xe4\xbf'
p2566
tp2567
bag21
(g22
(I0
tp2568
g24
tp2569
Rp2570
(I1
(I3
tp2571
g259
I00
S'\xe1\xc6\xc7\xa7\x12X\xe7?\x98\x99\xb0\x9a\xfb\xdb\x0b\xc0R\t\x1b)\xeae\xe0\xbf'
p2572
tp2573
bag21
(g22
(I0
tp2574
g24
tp2575
Rp2576
(I1
(I3
tp2577
g259
I00
S'p\xf1\xbdc^\x84\xf1?"\x88LL\xf9D\x06\xc0~w\r\xe9m\x0f\x19@'
p2578
tp2579
bas(g12
g239
tp2580
(lp2581
g21
(g22
(I0
tp2582
g24
tp2583
Rp2584
(I1
(I3
tp2585
g248
I00
S'Po1t\xa4\x13\xd2?\x86\x0f:\xadGv\x18\xc0@k\x12\x8e\xf8n\x13@'
p2586
tp2587
bag21
(g22
(I0
tp2588
g24
tp2589
Rp2590
(I1
(I3
tp2591
g259
I00
S'\xbc\xcaD\xb3\xa5\xd0\xda?5\x9e\xd8L\xbc\xff\x15\xc0\x86v/\xef\x06;\xe9\xbf'
p2592
tp2593
bag21
(g22
(I0
tp2594
g24
tp2595
Rp2596
(I1
(I3
tp2597
g259
I00
S"\xb2&6mg)\xe8?\x99\xe0G'\x16\xe0\x13\xc0\xc8oL\xf5\x17p\xe6\xbf"
p2598
tp2599
bag21
(g22
(I0
tp2600
g24
tp2601
Rp2602
(I1
(I3
tp2603
g259
I00
S'`\xc8Aw-\x81\xeb?/\xc3\xe6O\x04\xca\x10\xc0\x8a\xb7K)\x91{\xe4\xbf'
p2604
tp2605
bag21
(g22
(I0
tp2606
g24
tp2607
Rp2608
(I1
(I3
tp2609
g259
I00
S'\xe1\xc6\xc7\xa7\x12X\xe7?\x98\x99\xb0\x9a\xfb\xdb\x0b\xc0R\t\x1b)\xeae\xe0\xbf'
p2610
tp2611
bag21
(g22
(I0
tp2612
g24
tp2613
Rp2614
(I1
(I3
tp2615
g259
I00
S'p\xf1\xbdc^\x84\xf1?"\x88LL\xf9D\x06\xc0~w\r\xe9m\x0f\x19@'
p2616
tp2617
bas(g977
g1227
tp2618
(lp2619
g21
(g22
(I0
tp2620
g24
tp2621
Rp2622
(I1
(I3
tp2623
g248
I00
S"\xfa\x83?\x97'\xc0\xf8?T\xae\xbc\xe5tH\x1c\xc0\x16\xf2K\xeb\xc8\x86\r@"
p2624
tp2625
bas(g12
g1227
tp2626
(lp2627
g21
(g22
(I0
tp2628
g24
tp2629
Rp2630
(I1
(I3
tp2631
g248
I00
S'&o1t\xa4\x13\xd2?\x86\x0f:\xadGv\x18\xc0@k\x12\x8e\xf8n\x13@'
p2632
tp2633
bas(g977
g239
tp2634
g479
s(g879
g1227
tp2635
(lp2636
g21
(g22
(I0
tp2637
g24
tp2638
Rp2639
(I1
(I3
tp2640
g248
I00
S'qU\x12\xf0\xbdf\r@\xdb\x1f" \xc1\xc9\x17\xc0\x8e\x9a\x81\xb6\x8e\x18\x14@'
p2641
tp2642
bas(g879
g239
tp2643
g416
s(g57
g239
tp2644
g241
s(g726
g239
tp2645
g371
s(g726
g1227
tp2646
(lp2647
g21
(g22
(I0
tp2648
g24
tp2649
Rp2650
(I1
(I3
tp2651
g248
I00
S'\x15\x1f\xf0\xdc\xc6\x18\xfa?xVJ\xdc+\xa3\x17\xc0U\x13\xaf\x0bi\xf5\x13@'
p2652
tp2653
bas(g556
g1227
tp2654
(lp2655
g21
(g22
(I0
tp2656
g24
tp2657
Rp2658
(I1
(I3
tp2659
g248
I00
S'I\x92\xaa$\x83\x99\xf0?\x9e(\xa4&\xd7\x93\x18\xc0\xa4\xac\x88A\x0b\xdb\xf7?'
p2660
tp2661
bas(g57
g1227
tp2662
(lp2663
g21
(g22
(I0
tp2664
g24
tp2665
Rp2666
(I1
(I3
tp2667
g248
I00
S'u6w_\x07\x10\x08@\xc9\xd95\x02l\x15\x19\xc0\x06\xb20\x02\xdb\x7f\x12@'
p2668
tp2669
bas(g612
g1227
tp2670
(lp2671
g21
(g22
(I0
tp2672
g24
tp2673
Rp2674
(I1
(I3
tp2675
g248
I00
S'\xa0\xf4Mk\x11f\x07@\x8a\x18\\K\x9a\xc5\x1c\xc0v\xaak\xe7j\xab\r@'
p2676
tp2677
bas(g612
g239
tp2678
g308
s(g555
g239
tp2679
(lp2680
g21
(g22
(I0
tp2681
g24
tp2682
Rp2683
(I1
(I3
tp2684
g248
I00
S'`\x8d\xc7JC\xc3\xc6\xbf\xca_\xfb!\xd7\xb9\x18\xc0\x94\xc7X\xc4\x930\x13@'
p2685
tp2686
bag21
(g22
(I0
tp2687
g24
tp2688
Rp2689
(I1
(I3
tp2690
g259
I00
S'\xff\x1dX8\xbe\xd2\xc9?\x91h\xd1{\x1e(\x16\xc0\xee\xfeSI\xc3\xd4\x03\xc0'
p2691
tp2692
bag21
(g22
(I0
tp2693
g24
tp2694
Rp2695
(I1
(I3
tp2696
g259
I00
S"\xb2&6mg)\xe8?\x99\xe0G'\x16\xe0\x13\xc0\xc8oL\xf5\x17p\xe6\xbf"
p2697
tp2698
bag21
(g22
(I0
tp2699
g24
tp2700
Rp2701
(I1
(I3
tp2702
g259
I00
S'`\xc8Aw-\x81\xeb?/\xc3\xe6O\x04\xca\x10\xc0\x8a\xb7K)\x91{\xe4\xbf'
p2703
tp2704
bag21
(g22
(I0
tp2705
g24
tp2706
Rp2707
(I1
(I3
tp2708
g259
I00
S'\xe1\xc6\xc7\xa7\x12X\xe7?\x98\x99\xb0\x9a\xfb\xdb\x0b\xc0R\t\x1b)\xeae\xe0\xbf'
p2709
tp2710
bag21
(g22
(I0
tp2711
g24
tp2712
Rp2713
(I1
(I3
tp2714
g259
I00
S'p\xf1\xbdc^\x84\xf1?"\x88LL\xf9D\x06\xc0~w\r\xe9m\x0f\x19@'
p2715
tp2716
bassS'parent_binary_predicates'
p2717
(dp2718
sS'nodes'
p2719
(dp2720
g1230
(lp2721
I0
aI0
aI0
aI0
aI0
aI0
aI00
aI01
aI00
aI01
aI00
asg1227
(lp2722
I0
aI0
aI0
aI0
aI0
aI0
aI00
aI01
aI00
aI01
aI00
asg239
(lp2723
I0
aI0
aI0
aI0
aI0
aI0
aI00
aI01
aI01
aI01
aI00
asg1197
(lp2724
I0
aI0
aI0
ag1921
(g248
S'^\xb3\xe1+\xc6\x16\xe2?'
p2725
tp2726
Rp2727
ag1921
(g248
S'\x92L\xc0V\x01\xe3\x1a\xc0'
p2728
tp2729
Rp2730
ag1921
(g248
S'\xb2\xf4n\x05#\xa1\x8f?'
p2731
tp2732
Rp2733
aI01
aI00
aI00
aI01
aI00
asg306
(lp2734
I0
aI0
aI0
ag1921
(g248
S'_\x8eYh\xf7\xc3\x01@'
p2735
tp2736
Rp2737
ag1921
(g248
S'\xd5a\xc8\x17\xcd\n\x1d\xc0'
p2738
tp2739
Rp2740
ag1921
(g248
S'\x1a\x14\x99\x83\x1fO\xf9?'
p2741
tp2742
Rp2743
aI01
aI00
aI00
aI00
aI00
asg369
(lp2744
I0
aI0
aI0
ag1921
(g248
S'\xf4\xf0\xb3\x90f\xd0\x00@'
p2745
tp2746
Rp2747
ag1921
(g248
S'37\x15\x05K\x81\x1a\xc0'
p2748
tp2749
Rp2750
ag1921
(g248
S'G\xcb\xc5qO\xcd\r@'
p2751
tp2752
Rp2753
aI01
aI00
aI00
aI00
aI00
asg1194
(lp2754
I0
aI0
aI0
ag1921
(g248
S'w\xdd\xda\xf2r\x8d\xd3\xbf'
p2755
tp2756
Rp2757
ag1921
(g248
S'\xe5LP\x06\xdc\xe5\x1b\xc0'
p2758
tp2759
Rp2760
ag1921
(g248
S'\xdb\x07\x00\x87\x1cH\x18@'
p2761
tp2762
Rp2763
aI01
aI00
aI00
aI01
aI00
asg414
(lp2764
I0
aI0
aI0
ag1921
(g248
S'\x1f k\xcc\x07W\x0e@'
p2765
tp2766
Rp2767
ag1921
(g248
S'\xa0\xe0C\xfd\xfe\xb9\x1a\xc0'
p2768
tp2769
Rp2770
ag1921
(g248
S'\x86\x88C\xe9\n/\x15@'
p2771
tp2772
Rp2773
aI01
aI00
aI00
aI00
aI00
asg477
(lp2774
I0
aI0
aI0
ag1921
(g248
S'8\xe0\xcfL<z\xf1?'
p2775
tp2776
Rp2777
ag1921
(g248
S');\xd1\xbf\xd2\xba\x1e\xc0'
p2778
tp2779
Rp2780
ag1921
(g248
S'~\x80\xf9\xd0\xa0\x81\x11@'
p2781
tp2782
Rp2783
aI01
aI00
aI00
aI00
aI00
asg238
(lp2784
I0
aI0
aI0
ag1921
(g248
S'\xde;\xc3\x02\x11\xe3\x05@'
p2785
tp2786
Rp2787
ag1921
(g248
S'.l}\x8f\xa7\xd2\x1b\xc0'
p2788
tp2789
Rp2790
ag1921
(g248
S'\x8a\x1c\xd5\x14\x86\xaa\x04@'
p2791
tp2792
Rp2793
aI01
aI00
aI01
aI00
aI00
asg1192
(lp2794
I0
aI0
aI0
ag1921
(g248
S'\xda\xd1\x0eX\x04v\xf3?'
p2795
tp2796
Rp2797
ag1921
(g248
S'\xeb&\x0b\x0b\n\xe5\x15\xc0'
p2798
tp2799
Rp2800
ag1921
(g248
S'\x82\xa2\x81\x17\xb71\xa3?'
p2801
tp2802
Rp2803
aI01
aI00
aI00
aI01
aI00
assS'mc_place_path'
p2804
(dp2805
sS'parent_state'
p2806
NsS'goal_entities'
p2807
(lp2808
S'square_packing_box1'
p2809
ag239
asS'binary_edges'
p2810
(dp2811
(g414
g1192
tp2812
(lp2813
I00
aI00
aI00
as(g414
g1197
tp2814
(lp2815
I00
aI00
aI00
as(g369
g477
tp2816
(lp2817
I00
aI01
aI00
as(g369
g369
tp2818
(lp2819
I00
aI00
aI00
as(g306
g477
tp2820
(lp2821
I00
aI00
aI00
as(g306
g369
tp2822
(lp2823
I00
aI00
aI00
as(g1192
g306
tp2824
(lp2825
I00
aI00
aI00
as(g414
g238
tp2826
(lp2827
I00
aI00
aI00
as(g1194
g369
tp2828
(lp2829
I00
aI00
aI00
as(g1197
g1197
tp2830
(lp2831
I00
aI00
aI00
as(g306
g1227
tp2832
(lp2833
g1921
(g28
(S'b1'
p2834
I0
I1
tp2835
Rp2836
(I3
S'|'
p2837
NNNI-1
I-1
I0
tp2838
bS'\x01'
p2839
tp2840
Rp2841
aI00
aI01
as(g1230
g1227
tp2842
(lp2843
I00
aI00
aI00
as(g1197
g1192
tp2844
(lp2845
I00
aI00
aI00
as(g1227
g1192
tp2846
(lp2847
I00
aI00
aI00
as(g238
g239
tp2848
(lp2849
I00
aI00
aI00
as(g1230
g306
tp2850
(lp2851
I00
aI00
aI00
as(g306
g1192
tp2852
(lp2853
I00
aI00
aI00
as(g369
g1230
tp2854
(lp2855
g2841
aI00
aI00
as(g414
g414
tp2856
(lp2857
I00
aI00
aI00
as(g1227
g414
tp2858
(lp2859
I00
aI00
aI00
as(g477
g306
tp2860
(lp2861
I00
aI01
aI00
as(g306
g239
tp2862
(lp2863
I00
aI00
aI00
as(g1194
g477
tp2864
(lp2865
I00
aI00
aI00
as(g1197
g1194
tp2866
(lp2867
I00
aI00
aI00
as(g238
g238
tp2868
(lp2869
I00
aI00
aI00
as(g306
g1230
tp2870
(lp2871
g2841
aI00
aI00
as(g1227
g306
tp2872
(lp2873
I00
aI00
aI00
as(g1227
g477
tp2874
(lp2875
I00
aI00
aI00
as(g1227
g369
tp2876
(lp2877
I00
aI00
aI00
as(g477
g239
tp2878
(lp2879
I00
aI00
aI00
as(g1192
g1197
tp2880
(lp2881
I00
aI00
aI00
as(g1194
g1197
tp2882
(lp2883
I00
aI00
aI00
as(g477
g1194
tp2884
(lp2885
I00
aI00
aI00
as(g1227
g1197
tp2886
(lp2887
I00
aI00
aI00
as(g1230
g239
tp2888
(lp2889
I00
aI00
aI00
as(g238
g306
tp2890
(lp2891
I00
aI00
aI00
as(g1197
g477
tp2892
(lp2893
I00
aI01
aI00
as(g1230
g477
tp2894
(lp2895
I00
aI00
aI00
as(g477
g1230
tp2896
(lp2897
g2841
aI00
aI00
as(g369
g414
tp2898
(lp2899
I00
aI01
aI00
as(g1192
g238
tp2900
(lp2901
I00
aI00
aI00
as(g369
g306
tp2902
(lp2903
I00
aI01
aI00
as(g1192
g239
tp2904
(lp2905
I00
aI00
aI01
as(g1230
g1230
tp2906
(lp2907
I00
aI00
aI00
as(g477
g1197
tp2908
(lp2909
I00
aI00
aI00
as(g238
g414
tp2910
(lp2911
I00
aI00
aI00
as(g239
g238
tp2912
(lp2913
I00
aI00
aI00
as(g1194
g1227
tp2914
(lp2915
g2841
aI00
aI01
as(g239
g1194
tp2916
(lp2917
I00
aI00
aI00
as(g1192
g369
tp2918
(lp2919
I00
aI01
aI00
as(g369
g238
tp2920
(lp2921
I00
aI01
aI00
as(g477
g1227
tp2922
(lp2923
g2841
aI00
aI01
as(g369
g1194
tp2924
(lp2925
I00
aI00
aI00
as(g477
g477
tp2926
(lp2927
I00
aI00
aI00
as(g1194
g306
tp2928
(lp2929
I00
aI00
aI00
as(g1227
g239
tp2930
(lp2931
I00
aI00
aI00
as(g239
g414
tp2932
(lp2933
I00
aI00
aI00
as(g1197
g239
tp2934
(lp2935
I00
aI00
aI01
as(g1230
g1194
tp2936
(lp2937
I00
aI00
aI00
as(g239
g1192
tp2938
(lp2939
I00
aI00
aI00
as(g369
g1192
tp2940
(lp2941
I00
aI00
aI00
as(g1194
g1230
tp2942
(lp2943
g2841
aI00
aI00
as(g1192
g1227
tp2944
(lp2945
g2841
aI00
aI01
as(g1194
g414
tp2946
(lp2947
I00
aI00
aI00
as(g1197
g306
tp2948
(lp2949
I00
aI01
aI00
as(g1197
g1227
tp2950
(lp2951
g2841
aI00
aI01
as(g239
g369
tp2952
(lp2953
I00
aI00
aI00
as(g1230
g1192
tp2954
(lp2955
I00
aI00
aI00
as(g1230
g1197
tp2956
(lp2957
I00
aI00
aI00
as(g1194
g239
tp2958
(lp2959
I00
aI00
aI01
as(g414
g1194
tp2960
(lp2961
I00
aI00
aI00
as(g238
g1194
tp2962
(lp2963
I00
aI00
aI00
as(g239
g477
tp2964
(lp2965
I00
aI00
aI00
as(g1227
g1227
tp2966
(lp2967
I00
aI00
aI00
as(g414
g369
tp2968
(lp2969
I00
aI00
aI00
as(g238
g477
tp2970
(lp2971
I00
aI00
aI00
as(g1227
g238
tp2972
(lp2973
I00
aI00
aI00
as(g306
g1197
tp2974
(lp2975
I00
aI00
aI00
as(g1227
g1194
tp2976
(lp2977
I00
aI00
aI00
as(g238
g1230
tp2978
(lp2979
g2841
aI00
aI00
as(g414
g306
tp2980
(lp2981
I00
aI00
aI00
as(g369
g239
tp2982
(lp2983
I00
aI00
aI00
as(g238
g1197
tp2984
(lp2985
I00
aI00
aI00
as(g1197
g238
tp2986
(lp2987
I00
aI01
aI00
as(g306
g238
tp2988
(lp2989
I00
aI00
aI00
as(g1230
g414
tp2990
(lp2991
I00
aI00
aI00
as(g306
g1194
tp2992
(lp2993
I00
aI00
aI00
as(g477
g414
tp2994
(lp2995
I00
aI00
aI00
as(g414
g1227
tp2996
(lp2997
g2841
aI00
aI01
as(g1194
g1194
tp2998
(lp2999
I00
aI00
aI00
as(g1192
g414
tp3000
(lp3001
I00
aI01
aI00
as(g238
g1192
tp3002
(lp3003
I00
aI00
aI00
as(g306
g414
tp3004
(lp3005
I00
aI00
aI00
as(g306
g306
tp3006
(lp3007
I00
aI00
aI00
as(g1192
g1194
tp3008
(lp3009
I00
aI00
aI00
as(g414
g239
tp3010
(lp3011
I00
aI00
aI00
as(g477
g238
tp3012
(lp3013
I00
aI00
aI00
as(g369
g1227
tp3014
(lp3015
g2841
aI00
aI01
as(g239
g306
tp3016
(lp3017
I00
aI00
aI00
as(g1194
g238
tp3018
(lp3019
I00
aI00
aI00
as(g1197
g369
tp3020
(lp3021
I00
aI00
aI00
as(g239
g1227
tp3022
(lp3023
I00
aI00
aI00
as(g414
g477
tp3024
(lp3025
I00
aI00
aI00
as(g1230
g369
tp3026
(lp3027
I00
aI00
aI00
as(g414
g1230
tp3028
(lp3029
g2841
aI00
aI00
as(g477
g369
tp3030
(lp3031
I00
aI00
aI00
as(g239
g239
tp3032
(lp3033
I00
aI00
aI00
as(g1194
g1192
tp3034
(lp3035
I00
aI00
aI00
as(g1197
g1230
tp3036
(lp3037
g2841
aI00
aI00
as(g1192
g1230
tp3038
(lp3039
g2841
aI00
aI00
as(g239
g1230
tp3040
(lp3041
I00
aI00
aI00
as(g239
g1197
tp3042
(lp3043
I00
aI00
aI00
as(g477
g1192
tp3044
(lp3045
I00
aI00
aI00
as(g1192
g477
tp3046
(lp3047
I00
aI00
aI00
as(g369
g1197
tp3048
(lp3049
I00
aI00
aI00
as(g1227
g1230
tp3050
(lp3051
I00
aI00
aI00
as(g238
g369
tp3052
(lp3053
I00
aI00
aI00
as(g1197
g414
tp3054
(lp3055
I00
aI00
aI00
as(g1192
g1192
tp3056
(lp3057
I00
aI00
aI00
as(g238
g1227
tp3058
(lp3059
g2841
aI00
aI01
as(g1230
g238
tp3060
(lp3061
I00
aI00
aI00
assg553
g554
sS'pick_in_way'
p3062
(itrajectory_representation.predicates.pick_in_way
PickInWay
p3063
(dp3064
g236
(dp3065
g1197
g605
sg306
g1799
sg369
g1824
sg1194
g1843
sg414
g1850
sg477
g1881
sg238
g1073
sg1192
g1900
ssg528
(dp3066
g1197
(lp3067
sg306
(lp3068
Vrectangular_packing_box4
p3069
aVrectangular_packing_box3
p3070
aVsquare_packing_box3
p3071
asg369
(lp3072
Vsquare_packing_box4
p3073
asg1194
(lp3074
sg414
(lp3075
Vsquare_packing_box4
p3076
aVrectangular_packing_box3
p3077
asg477
(lp3078
Vrectangular_packing_box4
p3079
aVrectangular_packing_box3
p3080
asg238
(lp3081
Vrectangular_packing_box4
p3082
aVrectangular_packing_box3
p3083
asg1192
(lp3084
ssg553
(lp3085
g1194
ag1192
ag1197
ag1230
ag239
ag1227
ag1230
ag239
ag1227
ag1230
ag239
ag1227
ag1230
ag239
ag1227
ag1230
ag239
ag1227
ag1230
ag239
ag1227
ag1230
ag239
ag1227
ag1230
ag239
ag1227
asg557
g558
sg125
(dp3086
sg592
g593
sg1173
Nsg1179
g593
sg1176
(dp3087
sg1178
I8
sg1222
I01
sg1180
Nsg1181
(dp3088
(g414
g1192
tp3089
I00
s(g414
g1197
tp3090
I00
s(g369
g477
tp3091
I01
s(g369
g369
tp3092
I00
s(g306
g477
tp3093
I00
s(g306
g369
tp3094
I00
s(g1192
g306
tp3095
I00
s(g414
g238
tp3096
I00
s(g1194
g369
tp3097
I00
s(g1197
g1197
tp3098
I00
s(g306
g1227
tp3099
I00
s(g1230
g1227
tp3100
I00
s(g1197
g1192
tp3101
I00
s(g1227
g1192
tp3102
I00
s(g238
g239
tp3103
I00
s(g1230
g306
tp3104
I00
s(g306
g1192
tp3105
I00
s(g369
g1230
tp3106
I00
s(g414
g414
tp3107
I00
s(g1227
g414
tp3108
I00
s(g477
g306
tp3109
I01
s(g306
g239
tp3110
I00
s(g1194
g477
tp3111
I00
s(g1197
g1194
tp3112
I00
s(g238
g238
tp3113
I00
s(g306
g1230
tp3114
I00
s(g1227
g306
tp3115
I00
s(g1227
g477
tp3116
I00
s(g1227
g369
tp3117
I00
s(g477
g239
tp3118
I00
s(g1192
g1197
tp3119
I00
s(g1194
g1197
tp3120
I00
s(g477
g1194
tp3121
I00
s(g1227
g1197
tp3122
I00
s(g1230
g239
tp3123
I00
s(g238
g306
tp3124
I00
s(g1197
g477
tp3125
I01
s(g1230
g477
tp3126
I00
s(g477
g1230
tp3127
I00
s(g369
g414
tp3128
I01
s(g1192
g238
tp3129
I00
s(g369
g306
tp3130
I01
s(g1192
g239
tp3131
I00
s(g1230
g1230
tp3132
I00
s(g477
g1197
tp3133
I00
s(g238
g414
tp3134
I00
s(g239
g238
tp3135
I00
s(g1194
g1227
tp3136
I00
s(g239
g1194
tp3137
I00
s(g1192
g369
tp3138
I01
s(g369
g238
tp3139
I01
s(g477
g1227
tp3140
I00
s(g369
g1194
tp3141
I00
s(g477
g477
tp3142
I00
s(g1194
g306
tp3143
I00
s(g1227
g239
tp3144
I00
s(g239
g414
tp3145
I00
s(g1197
g239
tp3146
I00
s(g1230
g1194
tp3147
I00
s(g239
g1192
tp3148
I00
s(g369
g1192
tp3149
I00
s(g1194
g1230
tp3150
I00
s(g1192
g1227
tp3151
I00
s(g1194
g414
tp3152
I00
s(g1197
g306
tp3153
I01
s(g1197
g1227
tp3154
I00
s(g239
g369
tp3155
I00
s(g1230
g1192
tp3156
I00
s(g1230
g1197
tp3157
I00
s(g1194
g239
tp3158
I00
s(g414
g1194
tp3159
I00
s(g238
g1194
tp3160
I00
s(g239
g477
tp3161
I00
s(g1227
g1227
tp3162
I00
s(g414
g369
tp3163
I00
s(g238
g477
tp3164
I00
s(g1227
g238
tp3165
I00
s(g306
g1197
tp3166
I00
s(g1227
g1194
tp3167
I00
s(g238
g1230
tp3168
I00
s(g414
g306
tp3169
I00
s(g369
g239
tp3170
I00
s(g238
g1197
tp3171
I00
s(g1197
g238
tp3172
I01
s(g306
g238
tp3173
I00
s(g1230
g414
tp3174
I00
s(g306
g1194
tp3175
I00
s(g477
g414
tp3176
I00
s(g414
g1227
tp3177
I00
s(g1194
g1194
tp3178
I00
s(g1192
g414
tp3179
I01
s(g238
g1192
tp3180
I00
s(g306
g414
tp3181
I00
s(g306
g306
tp3182
I00
s(g1192
g1194
tp3183
I00
s(g414
g239
tp3184
I00
s(g477
g238
tp3185
I00
s(g369
g1227
tp3186
I00
s(g239
g306
tp3187
I00
s(g1194
g238
tp3188
I00
s(g1197
g369
tp3189
I00
s(g239
g1227
tp3190
I00
s(g414
g477
tp3191
I00
s(g1230
g369
tp3192
I00
s(g414
g1230
tp3193
I00
s(g477
g369
tp3194
I00
s(g239
g239
tp3195
I00
s(g1194
g1192
tp3196
I00
s(g1197
g1230
tp3197
I00
s(g1192
g1230
tp3198
I00
s(g239
g1230
tp3199
I00
s(g239
g1197
tp3200
I00
s(g477
g1192
tp3201
I00
s(g1192
g477
tp3202
I00
s(g369
g1197
tp3203
I00
s(g1227
g1230
tp3204
I00
s(g238
g369
tp3205
I00
s(g1197
g414
tp3206
I00
s(g1192
g1192
tp3207
I00
s(g238
g1227
tp3208
I00
s(g1230
g238
tp3209
I00
ssg1221
NsbsS'robot_pose'
p3210
g21
(g22
(I0
tp3211
g24
tp3212
Rp3213
(I1
(I1
I3
tp3214
g248
I00
S'V?>\xed\x17\xe2\xd5?X\xfc\x8e\xf7\xf0\x05\x17\xc0\x86[o\x93v\x8e\x18@'
p3215
tp3216
bsS'is_holding_goal_entity'
p3217
(itrajectory_representation.predicates.is_holding_goal_entity
IsHoldingGoalEntity
p3218
(dp3219
g2807
g2808
sg1180
NsbsS'mc_pick_path'
p3220
(dp3221
sS'current_collides'
p3222
g558
sba(itrajectory_representation.shortest_path_pick_and_place_state
ShortestPathPaPState
p3223
(dp3224
g125
(dp3225
g128
(itrajectory_representation.operator
Operator
p3226
(dp3227
g8
I01
sg9
(dp3228
g132
g59
sg11
g127
ssg16
g133
sg18
(dp3229
g20
g21
(g22
(I0
tp3230
g24
tp3231
Rp3232
(I1
(I3
tp3233
g31
I00
S"x#\xe3\x0bx\xea\xe2?x'$\x1bm]\xfd\xbf\x98(mB\xfb\x8a\x06@"
p3234
tp3235
bssg46
(lp3236
g21
(g22
(I0
tp3237
g24
tp3238
Rp3239
(I1
(I3
tp3240
g31
I00
S'l6w_\x07\x10\x08@\xca\xd95\x02l\x15\x19\xc0N\xecMH\x81\x88\xfa\xbf'
p3241
tp3242
bag21
(g22
(I0
tp3243
g24
tp3244
Rp3245
(I1
(I3
tp3246
g90
I00
S'\x16\x9e\xd06H\xd3\x04@\xe5\xe1\xfb\xc5\xb8\xd1\x16\xc0es\x86\x03\xdb\x8e\x17@'
p3247
tp3248
bag21
(g22
(I0
tp3249
g24
tp3250
Rp3251
(I1
(I3
tp3252
g90
I00
S'/\xe1\x02^.|\x00@\xb8\xae\xc5\xcfF\x16\x17\xc0\xf8\x01)d\xc5\xf9\xe2?'
p3253
tp3254
bag21
(g22
(I0
tp3255
g24
tp3256
Rp3257
(I1
(I3
tp3258
g90
I00
S'j\xc7\xc0&\x8ag\xf6?h\x9cH4\x7f\xab\x18\xc0\xd8|\x1d\xfc\xcbV\xf2?'
p3259
tp3260
bag21
(g22
(I0
tp3261
g24
tp3262
Rp3263
(I1
(I3
tp3264
g90
I00
S'\xa6\xc4l\x8d\x92\xcc\xe5?\x10\xc7\xe9C\x0b\xd8\x18\xc0@\xb9\xa4\xa6\xc5\xc5\x8e\xbf'
p3265
tp3266
bag21
(g22
(I0
tp3267
g24
tp3268
Rp3269
(I1
(I3
tp3270
g90
I00
S'\xbc\xcaD\xb3\xa5\xd0\xda?5\x9e\xd8L\xbc\xff\x15\xc0\x86v/\xef\x06;\xe9\xbf'
p3271
tp3272
bag21
(g22
(I0
tp3273
g24
tp3274
Rp3275
(I1
(I3
tp3276
g90
I00
S'l[\xc4\x16<\xe6\xe9?\xa6\xa0\x90\x84X\x9f\x13\xc0\xc2\xd74Q\x00\xaf\xff\xbf'
p3277
tp3278
bag21
(g22
(I0
tp3279
g24
tp3280
Rp3281
(I1
(I3
tp3282
g90
I00
S"\xaeJ\xbd\x1936\xec?\x04\x13\xd4'\x9f\x88\x10\xc0\x805qo\xb6\xe6\xff\xbf"
p3283
tp3284
bag21
(g22
(I0
tp3285
g24
tp3286
Rp3287
(I1
(I3
tp3288
g90
I00
S'\xf09\xb6\x1c*\x86\xee?\xc4\n/\x96\xcb\xe3\n\xc0\xa0\xc9\xd6F6\x0f\x00\xc0'
p3289
tp3290
bag21
(g22
(I0
tp3291
g24
tp3292
Rp3293
(I1
(I3
tp3294
g90
I00
S'3\xe9\xaf\x05T\x89\xe7?+~\xcb\xd3\x15\xc7\x04\xc0x6(d5\xed\x07@'
p3295
tp3296
bag3232
ag3232
asbssg233
(itrajectory_representation.predicates.place_in_way
PlaceInWay
p3297
(dp3298
g236
(dp3299
(g1197
g239
tp3300
(lp3301
g21
(g22
(I0
tp3302
g24
tp3303
Rp3304
(I1
(I3
tp3305
g248
I00
S'\xe04\xa3\x04\xda\xe1\xcd\xbf<\xea\x87\x98\x90\xa9\x1d\xc0\x14\xb6=\x0b\xcc\xad\x15@'
p3306
tp3307
bag21
(g22
(I0
tp3308
g24
tp3309
Rp3310
(I1
(I3
tp3311
g259
I00
S'P\xad\x15Z\x16\xf4\xc0\xbf\xd7"\xb9r\x97\xa6\x1a\xc0\xffA\xf5\xafMp\xe8\xbf'
p3312
tp3313
bag21
(g22
(I0
tp3314
g24
tp3315
Rp3316
(I1
(I3
tp3317
g259
I00
S'j\x1e\x80\xdd\x0f\xcc\xcc?\xb3\xd8X\xd3%~\x18\xc0\x90\xda\xcf7y\xd5\xe6\xbf'
p3318
tp3319
bag21
(g22
(I0
tp3320
g24
tp3321
Rp3322
(I1
(I3
tp3323
g259
I00
S'\xbc\xcaD\xb3\xa5\xd0\xda?5\x9e\xd8L\xbc\xff\x15\xc0\x86v/\xef\x06;\xe9\xbf'
p3324
tp3325
bag21
(g22
(I0
tp3326
g24
tp3327
Rp3328
(I1
(I3
tp3329
g259
I00
S"\xb2&6mg)\xe8?\x99\xe0G'\x16\xe0\x13\xc0\xc8oL\xf5\x17p\xe6\xbf"
p3330
tp3331
bag21
(g22
(I0
tp3332
g24
tp3333
Rp3334
(I1
(I3
tp3335
g259
I00
S'`\xc8Aw-\x81\xeb?/\xc3\xe6O\x04\xca\x10\xc0\x8a\xb7K)\x91{\xe4\xbf'
p3336
tp3337
bag21
(g22
(I0
tp3338
g24
tp3339
Rp3340
(I1
(I3
tp3341
g259
I00
S'\xe1\xc6\xc7\xa7\x12X\xe7?\x98\x99\xb0\x9a\xfb\xdb\x0b\xc0R\t\x1b)\xeae\xe0\xbf'
p3342
tp3343
bag21
(g22
(I0
tp3344
g24
tp3345
Rp3346
(I1
(I3
tp3347
g259
I00
S'p\xf1\xbdc^\x84\xf1?"\x88LL\xf9D\x06\xc0~w\r\xe9m\x0f\x19@'
p3348
tp3349
bas(g306
g239
tp3350
(lp3351
g21
(g22
(I0
tp3352
g24
tp3353
Rp3354
(I1
(I3
tp3355
g248
I00
S'\xa4\xf4Mk\x11f\x07@\x8b\x18\\K\x9a\xc5\x1c\xc0v\xaak\xe7j\xab\r@'
p3356
tp3357
bag21
(g22
(I0
tp3358
g24
tp3359
Rp3360
(I1
(I3
tp3361
g259
I00
S'\xf9\xba\xbb\xd8\xde<\x02@\x99\xbe:\xeaE5\x1b\xc0!\x7fo\x1e\nW\x0f@'
p3362
tp3363
bag21
(g22
(I0
tp3364
g24
tp3365
Rp3366
(I1
(I3
tp3367
g259
I00
S'\xc6\xf1T\x16)\x02\xfe?\xa8\x7fQ\xf5\xbb\x10\x19\xc0\xa38\tS\x83\x84\x05@'
p3368
tp3369
bag21
(g22
(I0
tp3370
g24
tp3371
Rp3372
(I1
(I3
tp3373
g259
I00
S'\x84\xa2s4\xa1\xd0\xf6?E=|\xb9\xcam\x17\xc0\xa93^V\xfc\xed\x05@'
p3374
tp3375
bag21
(g22
(I0
tp3376
g24
tp3377
Rp3378
(I1
(I3
tp3379
g259
I00
S'f\xb4\x9c\x07\xac\xbf\xec?n\x96\x96\x9e\x90n\x16\xc0uo!\xa9\x9b\x82\x07@'
p3380
tp3381
bag21
(g22
(I0
tp3382
g24
tp3383
Rp3384
(I1
(I3
tp3385
g259
I00
S'm\xd5h\x072\x03\xea?\xdf\xe5\xe82\xd3\x17\x14\xc0\x08\x9e\xe1\xfbO\x94\x08@'
p3386
tp3387
bag21
(g22
(I0
tp3388
g24
tp3389
Rp3390
(I1
(I3
tp3391
g259
I00
S'\xc6\x05\xbdtg\xd9\xe2?F\xdf\x9d@\\\xf3\x11\xc0\x1a\xc4.\xbb\xcc\x12\x02@'
p3392
tp3393
bag21
(g22
(I0
tp3394
g24
tp3395
Rp3396
(I1
(I3
tp3397
g259
I00
S'3z\xed\x8eN)\xe4?\x0c\x96\xd4\xa2\x0e\xd0\r\xc0\xbd%\xf5{\xe9\xf9\x03@'
p3398
tp3399
bag21
(g22
(I0
tp3400
g24
tp3401
Rp3402
(I1
(I3
tp3403
g259
I00
S'\xaf0\xe9h\xba~\xee?k\xbb\xd8\xd4\xd0g\t\xc09\x9ey\xed\xb06\x06@'
p3404
tp3405
bag21
(g22
(I0
tp3406
g24
tp3407
Rp3408
(I1
(I3
tp3409
g259
I00
S'\xf4\xfdJ\x1a(#\xec?H"\x9cD\x1aE\x05\xc0.\xa9\x0b\x87\xf8\xe1\x02@'
p3410
tp3411
bas(g369
g239
tp3412
(lp3413
g21
(g22
(I0
tp3414
g24
tp3415
Rp3416
(I1
(I3
tp3417
g248
I00
S'\x0c\x1f\xf0\xdc\xc6\x18\xfa?xVJ\xdc+\xa3\x17\xc0U\x13\xaf\x0bi\xf5\x13@'
p3418
tp3419
bag21
(g22
(I0
tp3420
g24
tp3421
Rp3422
(I1
(I3
tp3423
g259
I00
S'2Z\xe1\xe97J\xf6?\\\x1e`@2v\x16\xc0\xc4\x0c\xcc\x14<\xf9\xf6\xbf'
p3424
tp3425
bag21
(g22
(I0
tp3426
g24
tp3427
Rp3428
(I1
(I3
tp3429
g259
I00
S'tx\x8as\xa8b\xed?\x9ej\x15\xfa\xf0{\x15\xc0@\xed\x9a-\x9eD\xf2\xbf'
p3430
tp3431
bag21
(g22
(I0
tp3432
g24
tp3433
Rp3434
(I1
(I3
tp3435
g259
I00
S"\xb2&6mg)\xe8?\x99\xe0G'\x16\xe0\x13\xc0\xc8oL\xf5\x17p\xe6\xbf"
p3436
tp3437
bag21
(g22
(I0
tp3438
g24
tp3439
Rp3440
(I1
(I3
tp3441
g259
I00
S'`\xc8Aw-\x81\xeb?/\xc3\xe6O\x04\xca\x10\xc0\x8a\xb7K)\x91{\xe4\xbf'
p3442
tp3443
bag21
(g22
(I0
tp3444
g24
tp3445
Rp3446
(I1
(I3
tp3447
g259
I00
S'\xe1\xc6\xc7\xa7\x12X\xe7?\x98\x99\xb0\x9a\xfb\xdb\x0b\xc0R\t\x1b)\xeae\xe0\xbf'
p3448
tp3449
bag21
(g22
(I0
tp3450
g24
tp3451
Rp3452
(I1
(I3
tp3453
g259
I00
S'p\xf1\xbdc^\x84\xf1?"\x88LL\xf9D\x06\xc0~w\r\xe9m\x0f\x19@'
p3454
tp3455
bassg528
(dp3456
(g1197
g239
tp3457
(lp3458
Vrectangular_packing_box1
p3459
aVsquare_packing_box4
p3460
as(g306
g239
tp3461
(lp3462
Vsquare_packing_box1
p3463
aVrectangular_packing_box3
p3464
aVsquare_packing_box4
p3465
as(g369
g239
tp3466
(lp3467
Vsquare_packing_box4
p3468
assg553
(lp3469
Vrectangular_packing_box3
p3470
aVrectangular_packing_box1
p3471
aVsquare_packing_box2
p3472
aVsquare_packing_box3
p3473
ag57
aVsquare_packing_box4
p3474
asg557
(dp3475
Vrectangular_packing_box4
p3476
g560
((lp3477
I257
aI356
aI583
aI265
aI589
aI366
aI564
aI532
aI478
aI502
aI452
aI122
aI158
aI159
atp3478
Rp3479
sVrectangular_packing_box2
p3480
g567
sVrectangular_packing_box3
p3481
g571
sVrectangular_packing_box1
p3482
g575
sVsquare_packing_box2
p3483
g579
sVsquare_packing_box3
p3484
g583
sVsquare_packing_box1
p3485
g587
sVsquare_packing_box4
p3486
g591
ssg125
g3225
sg592
(dp3487
Vrectangular_packing_box4
p3488
(itrajectory_representation.operator
Operator
p3489
(dp3490
g8
I01
sg9
(dp3491
g616
Vrectangular_packing_box4
p3492
ssg16
g618
sg18
(dp3493
g620
(lp3494
g21
(g22
(I0
tp3495
g24
tp3496
Rp3497
(I1
(I3
tp3498
g248
I00
S'\xaa4\xa3\x04\xda\xe1\xcd\xbf;\xea\x87\x98\x90\xa9\x1d\xc0\x1e\xb83Hz\xa1\xeb\xbf'
p3499
tp3500
bag21
(g22
(I0
tp3501
g24
tp3502
Rp3503
(I1
(I3
tp3504
g248
I00
S'i\xca$@\xa7\xdf\xe5?!_K\xb0R\x87\x1e\xc0\xce\xce\xaa\xcb/W\x05\xc0'
p3505
tp3506
bag21
(g22
(I0
tp3507
g24
tp3508
Rp3509
(I1
(I3
tp3510
g248
I00
S'\xf9\x18M\xc3\x88\x13\xe3?\xb91*\x19\x00\xf9\x1d\xc0\x01\xd2j\xf0\x9d\x94\x01\xc0'
p3511
tp3512
basg640
I00
ssg46
(lp3513
g21
(g22
(I0
tp3514
g24
tp3515
Rp3516
(I1
(I3
tp3517
g248
I00
S"v#\xe3\x0bx\xea\xe2?`'$\x1bm]\xfd\xbf\x98(mB\xfb\x8a\x06@"
p3518
tp3519
bag21
(g22
(I0
tp3520
g24
tp3521
Rp3522
(I1
(I3
tp3523
g259
I00
S'3\xe9\xaf\x05T\x89\xe7?+~\xcb\xd3\x15\xc7\x04\xc0x6(d5\xed\x07@'
p3524
tp3525
bag21
(g22
(I0
tp3526
g24
tp3527
Rp3528
(I1
(I3
tp3529
g259
I00
S'\xaf0\xe9h\xba~\xee?k\xbb\xd8\xd4\xd0g\t\xc09\x9ey\xed\xb06\x06@'
p3530
tp3531
bag21
(g22
(I0
tp3532
g24
tp3533
Rp3534
(I1
(I3
tp3535
g259
I00
S'3z\xed\x8eN)\xe4?\x0c\x96\xd4\xa2\x0e\xd0\r\xc0\xbd%\xf5{\xe9\xf9\x03@'
p3536
tp3537
bag21
(g22
(I0
tp3538
g24
tp3539
Rp3540
(I1
(I3
tp3541
g259
I00
S'\xc6\x05\xbdtg\xd9\xe2?F\xdf\x9d@\\\xf3\x11\xc0\x1a\xc4.\xbb\xcc\x12\x02@'
p3542
tp3543
bag21
(g22
(I0
tp3544
g24
tp3545
Rp3546
(I1
(I3
tp3547
g259
I00
S'&>c9\x01,\xeb?\xb2\xc2\xf0\x02\xce\x8e\x14\xc0\xd8p\xbb2\x14\xd2\x03@'
p3548
tp3549
bag21
(g22
(I0
tp3550
g24
tp3551
Rp3552
(I1
(I3
tp3553
g259
I00
S'o\xd6\x82\xea\x7f\xb2\xed?9\xf2C\x0b?\xfd\x16\xc0(?d\xe9@\xb5\x02@'
p3554
tp3555
bag21
(g22
(I0
tp3556
g24
tp3557
Rp3558
(I1
(I3
tp3559
g259
I00
S'ib\xa2\x0c9\xe9\xd7?\xca\xcd\xb4=\xe6_\x18\xc0tY\xa4\x97\x8d\xd7\x02@'
p3560
tp3561
bag21
(g22
(I0
tp3562
g24
tp3563
Rp3564
(I1
(I3
tp3565
g259
I00
S'|\x19\x01\xc0X_\xe1?\x01|\x99B_.\x1b\xc0T\x04\xb4\xbc\xd6\xd1\x13@'
p3566
tp3567
bag3509
asbsVrectangular_packing_box2
p3568
g613
sg3470
g727
sg3471
g806
sg3472
g880
sg3473
g978
sg57
(itrajectory_representation.operator
Operator
p3569
(dp3570
g8
I01
sg9
(dp3571
g11
g57
ssg16
g597
sg18
(dp3572
g20
g21
(g22
(I0
tp3573
g24
tp3574
Rp3575
(I1
(I3
tp3576
g31
I00
S'z6w_\x07\x10\x08@\xc9\xd95\x02l\x15\x19\xc0F\xecMH\x81\x88\xfa\xbf'
p3577
tp3578
bssg46
(lp3579
g21
(g22
(I0
tp3580
g24
tp3581
Rp3582
(I1
(I3
tp3583
g248
I00
S' \xad\xff\xf5i!\xd2?0\xa0OD\x8a\xc9\x1d\xc0\xcc#:\xca{\xe4\x10@'
p3584
tp3585
bag21
(g22
(I0
tp3586
g24
tp3587
Rp3588
(I1
(I3
tp3589
g259
I00
S'\xd23W\xd6\xdd\xe3\xe6?\xdc\xcai,~\xa9\x1c\xc0\xe4\x03\x93/\x16_\x04\xc0'
p3590
tp3591
bag21
(g22
(I0
tp3592
g24
tp3593
Rp3594
(I1
(I3
tp3595
g259
I00
S'X\xa4u\xbc=r\xf6?\x90\xee\xc4\x1eW\xf8\x1b\xc0\xcc: \xa4-\x95\x01\xc0'
p3596
tp3597
bag21
(g22
(I0
tp3598
g24
tp3599
Rp3600
(I1
(I3
tp3601
g259
I00
S'4#\xe8i\x80D\xf8?\xdd\x1dlTl\\\x19\xc0m\xc1\x1a\xec\xde\x01\x01\xc0'
p3602
tp3603
bag21
(g22
(I0
tp3604
g24
tp3605
Rp3606
(I1
(I3
tp3607
g259
I00
S'!\x83\xc0\xf3W\x85\xff?\xed\x8f\x90/y\xfd\x16\xc06jP\xfe\x98\xf5\xf4\xbf'
p3608
tp3609
bag21
(g22
(I0
tp3610
g24
tp3611
Rp3612
(I1
(I3
tp3613
g259
I00
S'nv\xf9k\xe2Y\x05@\xbf\xa3\xf80pj\x16\xc0\x85\x14\xd6\xdd\x83\x18\x04\xc0'
p3614
tp3615
bag3575
asbsg3474
g1098
ssg1171
(dp3616
sg1173
Nsg1174
(lp3617
sg1176
(dp3618
sg1178
I0
sg1179
g3487
sg1180
Nsg1181
(dp3619
(g1197
g477
g239
tp3620
I00
s(g1197
g369
g239
tp3621
I00
s(g1197
g414
g239
tp3622
I00
s(g1197
g306
g239
tp3623
I00
s(g1197
g238
g239
tp3624
I00
s(g1197
g1192
g239
tp3625
I01
s(g1197
g1194
g239
tp3626
I01
s(g306
g1197
g239
tp3627
I00
s(g369
g1197
g239
tp3628
I00
ssg1221
Nsg1222
I01
sbsg1223
(dp3629
(g306
g306
g239
tp3630
g1226
s(g238
g1227
g1227
tp3631
g1229
s(g1230
g1194
g239
tp3632
g1232
s(g414
g1192
g1227
tp3633
g1234
s(g239
g239
g239
tp3634
g1236
s(g1192
g306
g1227
tp3635
g1238
s(g238
g369
g239
tp3636
g1240
s(g239
g1197
g239
tp3637
(lp3638
I00
as(g414
g238
g239
tp3639
g1244
s(g369
g1197
g1227
tp3640
(lp3641
I00
as(g239
g1192
g1227
tp3642
g1248
s(g414
g1230
g239
tp3643
g1250
s(g1227
g239
g1227
tp3644
g1252
s(g1197
g477
g239
tp3645
(lp3646
I00
as(g1192
g1230
g239
tp3647
g1256
s(g414
g1194
g1227
tp3648
g1258
s(g477
g1227
g239
tp3649
g1260
s(g1230
g306
g1227
tp3650
g1262
s(g239
g1230
g239
tp3651
g1264
s(g306
g1227
g239
tp3652
g1266
s(g477
g1230
g239
tp3653
g1268
s(g238
g238
g1227
tp3654
g1270
s(g1227
g1192
g1227
tp3655
g1272
s(g1230
g1227
g239
tp3656
g1274
s(g1230
g414
g239
tp3657
g1276
s(g1227
g1227
g239
tp3658
g1278
s(g477
g1197
g1227
tp3659
(lp3660
I00
as(g239
g239
g1227
tp3661
g1282
s(g1194
g414
g1227
tp3662
g1284
s(g306
g1192
g239
tp3663
g1286
s(g477
g238
g239
tp3664
g1288
s(g1194
g239
g1227
tp3665
g1290
s(g239
g306
g1227
tp3666
g1292
s(g1194
g369
g1227
tp3667
g1294
s(g369
g1194
g239
tp3668
g1296
s(g1227
g238
g1227
tp3669
g1298
s(g1192
g414
g1227
tp3670
g1300
s(g306
g306
g1227
tp3671
g1302
s(g1230
g1192
g239
tp3672
g1304
s(g1227
g239
g239
tp3673
g1306
s(g1197
g306
g239
tp3674
(lp3675
I00
as(g239
g369
g239
tp3676
g1310
s(g414
g1194
g239
tp3677
g1312
s(g369
g1192
g239
tp3678
g1314
s(g238
g369
g1227
tp3679
g1316
s(g477
g414
g239
tp3680
g1318
s(g414
g238
g1227
tp3681
g1320
s(g414
g306
g1227
tp3682
g1322
s(g1230
g414
g1227
tp3683
g1324
s(g1227
g369
g1227
tp3684
g1326
s(g1230
g239
g239
tp3685
g1328
s(g1197
g239
g239
tp3686
(lp3687
I00
as(g1227
g1230
g239
tp3688
g1332
s(g306
g1192
g1227
tp3689
g1334
s(g477
g306
g1227
tp3690
g1336
s(g477
g477
g239
tp3691
g1338
s(g1194
g369
g239
tp3692
g1340
s(g1230
g306
g239
tp3693
g1342
s(g1194
g1227
g1227
tp3694
g1344
s(g1192
g238
g239
tp3695
g1346
s(g238
g238
g239
tp3696
g1348
s(g238
g1197
g239
tp3697
(lp3698
I00
as(g1197
g306
g1227
tp3699
(lp3700
I00
as(g1192
g1194
g1227
tp3701
g1354
s(g477
g1197
g239
tp3702
(lp3703
I00
as(g1194
g414
g239
tp3704
g1358
s(g306
g1194
g1227
tp3705
g1360
s(g1194
g239
g239
tp3706
g1362
s(g414
g306
g239
tp3707
g1364
s(g306
g477
g239
tp3708
g1366
s(g369
g1194
g1227
tp3709
g1368
s(g239
g414
g1227
tp3710
g1370
s(g1230
g239
g1227
tp3711
g1372
s(g1230
g1192
g1227
tp3712
g1374
s(g477
g306
g239
tp3713
g1376
s(g369
g477
g1227
tp3714
g1378
s(g306
g1230
g1227
tp3715
g1380
s(g1194
g1227
g239
tp3716
g1382
s(g477
g414
g1227
tp3717
g1384
s(g477
g1194
g1227
tp3718
g1386
s(g1192
g238
g1227
tp3719
g1388
s(g239
g369
g1227
tp3720
g1390
s(g1230
g477
g1227
tp3721
g1392
s(g1227
g369
g239
tp3722
g1394
s(g1227
g414
g1227
tp3723
g1396
s(g306
g1194
g239
tp3724
g1398
s(g1192
g1194
g239
tp3725
g1400
s(g1227
g477
g239
tp3726
g1402
s(g306
g477
g1227
tp3727
g1404
s(g306
g1197
g1227
tp3728
(lp3729
I00
as(g369
g1192
g1227
tp3730
g1408
s(g238
g1197
g1227
tp3731
(lp3732
I00
as(g1194
g477
g1227
tp3733
g1412
s(g239
g238
g1227
tp3734
g1414
s(g369
g1227
g1227
tp3735
g1416
s(g1197
g239
g1227
tp3736
(lp3737
I00
as(g238
g1194
g239
tp3738
g1420
s(g306
g1230
g239
tp3739
g1422
s(g1197
g414
g1227
tp3740
(lp3741
I00
as(g369
g306
g1227
tp3742
g1426
s(g477
g1194
g239
tp3743
g1428
s(g1192
g1227
g1227
tp3744
g1430
s(g414
g239
g239
tp3745
g1432
s(g1192
g1197
g239
tp3746
(lp3747
I00
as(g239
g477
g1227
tp3748
g1436
s(g1227
g1194
g1227
tp3749
g1438
s(g1227
g477
g1227
tp3750
g1440
s(g238
g477
g239
tp3751
g1442
s(g1194
g477
g239
tp3752
g1444
s(g238
g1194
g1227
tp3753
g1446
s(g369
g306
g239
tp3754
g1448
s(g306
g414
g239
tp3755
g1450
s(g369
g239
g1227
tp3756
g1452
s(g1192
g1227
g239
tp3757
g1454
s(g1227
g1197
g1227
tp3758
(lp3759
I00
as(g306
g1197
g239
tp3760
(lp3761
I00
as(g369
g369
g239
tp3762
g1460
s(g1197
g1197
g239
tp3763
(lp3764
I00
as(g1197
g369
g1227
tp3765
(lp3766
I00
as(g369
g1227
g239
tp3767
g1466
s(g477
g1192
g239
tp3768
g1468
s(g1197
g414
g239
tp3769
(lp3770
I00
as(g414
g1227
g1227
tp3771
g1472
s(g369
g1230
g1227
tp3772
g1474
s(g414
g239
g1227
tp3773
g1476
s(g238
g414
g1227
tp3774
g1478
s(g1192
g1197
g1227
tp3775
(lp3776
I00
as(g477
g239
g1227
tp3777
g1482
s(g369
g239
g239
tp3778
g1484
s(g1227
g1197
g239
tp3779
(lp3780
I00
as(g1194
g1194
g239
tp3781
g1488
s(g1227
g1192
g239
tp3782
g1490
s(g1192
g477
g239
tp3783
g1492
s(g238
g306
g239
tp3784
g1494
s(g238
g477
g1227
tp3785
g1496
s(g1197
g238
g1227
tp3786
(lp3787
I00
as(g239
g414
g239
tp3788
g1500
s(g1230
g369
g1227
tp3789
g1502
s(g369
g238
g239
tp3790
g1504
s(g1194
g1230
g239
tp3791
g1506
s(g477
g1192
g1227
tp3792
g1508
s(g477
g369
g1227
tp3793
g1510
s(g1197
g1194
g239
tp3794
(lp3795
I01
as(g306
g414
g1227
tp3796
g1514
s(g1197
g1227
g239
tp3797
(lp3798
I00
as(g369
g1230
g239
tp3799
g1518
s(g1192
g369
g1227
tp3800
g1520
s(g306
g238
g239
tp3801
g1522
s(g477
g238
g1227
tp3802
g1524
s(g1192
g1192
g1227
tp3803
g1526
s(g1197
g1197
g1227
tp3804
(lp3805
I00
as(g1194
g1194
g1227
tp3806
g1530
s(g238
g1192
g1227
tp3807
g1532
s(g1192
g414
g239
tp3808
g1534
s(g1230
g238
g239
tp3809
g1536
s(g239
g1230
g1227
tp3810
g1538
s(g239
g1194
g1227
tp3811
g1540
s(g414
g1227
g239
tp3812
g1542
s(g238
g306
g1227
tp3813
g1544
s(g1194
g238
g1227
tp3814
g1546
s(g369
g369
g1227
tp3815
g1548
s(g1230
g369
g239
tp3816
g1550
s(g414
g369
g1227
tp3817
g1552
s(g1194
g1230
g1227
tp3818
g1554
s(g238
g414
g239
tp3819
g1556
s(g1197
g1194
g1227
tp3820
(lp3821
I00
as(g1197
g369
g239
tp3822
(lp3823
I00
as(g1192
g369
g239
tp3824
g1562
s(g238
g239
g1227
tp3825
g1564
s(g414
g477
g239
tp3826
g1566
s(g477
g477
g1227
tp3827
g1568
s(g1197
g1230
g239
tp3828
(lp3829
I00
as(g1227
g1230
g1227
tp3830
g1572
s(g1192
g477
g1227
tp3831
g1574
s(g1227
g1194
g239
tp3832
g1576
s(g1230
g1230
g1227
tp3833
g1578
s(g1197
g238
g239
tp3834
(lp3835
I00
as(g238
g1192
g239
tp3836
g1582
s(g1227
g306
g1227
tp3837
g1584
s(g369
g238
g1227
tp3838
g1586
s(g477
g239
g239
tp3839
g1588
s(g1230
g238
g1227
tp3840
g1590
s(g477
g369
g239
tp3841
g1592
s(g369
g414
g239
tp3842
g1594
s(g1197
g1227
g1227
tp3843
(lp3844
I00
as(g306
g238
g1227
tp3845
g1598
s(g1194
g306
g239
tp3846
g1600
s(g1230
g1227
g1227
tp3847
g1602
s(g1227
g306
g239
tp3848
g1604
s(g238
g1230
g239
tp3849
g1606
s(g414
g477
g1227
tp3850
g1608
s(g414
g1197
g1227
tp3851
(lp3852
I00
as(g1192
g239
g239
tp3853
g1612
s(g1197
g1230
g1227
tp3854
(lp3855
I00
as(g1197
g1192
g239
tp3856
(lp3857
I01
as(g1230
g1197
g1227
tp3858
(lp3859
I00
as(g239
g1194
g239
tp3860
g1620
s(g239
g477
g239
tp3861
g1622
s(g1194
g238
g239
tp3862
g1624
s(g1194
g1197
g239
tp3863
(lp3864
I00
as(g1230
g477
g239
tp3865
g1628
s(g414
g369
g239
tp3866
g1630
s(g414
g414
g1227
tp3867
g1632
s(g1194
g1192
g1227
tp3868
g1634
s(g1192
g239
g1227
tp3869
g1636
s(g306
g239
g239
tp3870
g1638
s(g238
g239
g239
tp3871
g1640
s(g1194
g306
g1227
tp3872
g1642
s(g1192
g306
g239
tp3873
g1644
s(g239
g1227
g239
tp3874
g1646
s(g1230
g1230
g239
tp3875
g1648
s(g306
g369
g1227
tp3876
g1650
s(g238
g1230
g1227
tp3877
g1652
s(g1227
g414
g239
tp3878
g1654
s(g369
g1197
g239
tp3879
(lp3880
I00
as(g1230
g1197
g239
tp3881
(lp3882
I00
as(g238
g1227
g239
tp3883
g1660
s(g369
g414
g1227
tp3884
g1662
s(g239
g238
g239
tp3885
g1664
s(g1230
g1194
g1227
tp3886
g1666
s(g1192
g1230
g1227
tp3887
g1668
s(g414
g414
g239
tp3888
g1670
s(g1194
g1192
g239
tp3889
g1672
s(g477
g1230
g1227
tp3890
g1674
s(g414
g1197
g239
tp3891
(lp3892
I00
as(g239
g1192
g239
tp3893
g1678
s(g369
g477
g239
tp3894
g1680
s(g1197
g1192
g1227
tp3895
(lp3896
I00
as(g1192
g1192
g239
tp3897
g1684
s(g1194
g1197
g1227
tp3898
(lp3899
I00
as(g414
g1192
g239
tp3900
g1688
s(g477
g1227
g1227
tp3901
g1690
s(g239
g306
g239
tp3902
g1692
s(g306
g1227
g1227
tp3903
g1694
s(g239
g1197
g1227
tp3904
(lp3905
I00
as(g306
g239
g1227
tp3906
g1698
s(g1227
g1227
g1227
tp3907
g1700
s(g414
g1230
g1227
tp3908
g1702
s(g1197
g477
g1227
tp3909
(lp3910
I00
as(g239
g1227
g1227
tp3911
g1706
s(g306
g369
g239
tp3912
g1708
s(g1227
g238
g239
tp3913
g1710
ssg592
g3487
sg1711
I01
sg1712
(lp3914
S'square_packing_box1'
p3915
aS'rectangular_packing_box1'
p3916
aS'square_packing_box2'
p3917
aS'rectangular_packing_box2'
p3918
aS'square_packing_box3'
p3919
aS'rectangular_packing_box3'
p3920
aS'square_packing_box4'
p3921
aS'rectangular_packing_box4'
p3922
asg1180
Nsg1722
Nsg1723
(dp3923
Vrectangular_packing_box4
p3924
g21
(g22
(I0
tp3925
g24
tp3926
Rp3927
(I1
(I1
I3
tp3928
g248
I00
S'\xdc\x97\x0eK{\\\xc3?\x1e\x9e\xcc\x02\x844 \xc0\xdb\x9b\xee!O\xa7\x16@'
p3929
tp3930
bsVrectangular_packing_box2
p3931
g21
(g22
(I0
tp3932
g24
tp3933
Rp3934
(I1
(I1
I3
tp3935
g248
I00
S'\x89\x8eYh\xf7\xc3\x01@\xc7a\xc8\x17\xcd\n\x1d\xc0\x1c\x14\x99\x83\x1fO\xf9?'
p3936
tp3937
bsVrectangular_packing_box3
p3938
g21
(g22
(I0
tp3939
g24
tp3940
Rp3941
(I1
(I1
I3
tp3942
g248
I00
S'\xc6\xf0\xb3\x90f\xd0\x00@\x1e7\x15\x05K\x81\x1a\xc0G\xcb\xc5qO\xcd\r@'
p3943
tp3944
bsVrectangular_packing_box1
p3945
g21
(g22
(I0
tp3946
g24
tp3947
Rp3948
(I1
(I1
I3
tp3949
g248
I00
S'x\xdd\xda\xf2r\x8d\xd3\xbf\xe6LP\x06\xdc\xe5\x1b\xc0\xdb\x07\x00\x87\x1cH\x18@'
p3950
tp3951
bsVsquare_packing_box2
p3952
g21
(g22
(I0
tp3953
g24
tp3954
Rp3955
(I1
(I1
I3
tp3956
g248
I00
S'\xdd\x1fk\xcc\x07W\x0e@\x9a\xe0C\xfd\xfe\xb9\x1a\xc0\x86\x88C\xe9\n/\x15@'
p3957
tp3958
bsVsquare_packing_box3
p3959
g21
(g22
(I0
tp3960
g24
tp3961
Rp3962
(I1
(I1
I3
tp3963
g248
I00
S'X\xe0\xcfL<z\xf1?`;\xd1\xbf\xd2\xba\x1e\xc0~\x80\xf9\xd0\xa0\x81\x11@'
p3964
tp3965
bsVsquare_packing_box1
p3966
g21
(g22
(I0
tp3967
g24
tp3968
Rp3969
(I1
(I1
I3
tp3970
g248
I00
S'\xd0;\xc3\x02\x11\xe3\x05@\x1al}\x8f\xa7\xd2\x1b\xc0\x8a\x1c\xd5\x14\x86\xaa\x04@'
p3971
tp3972
bsVsquare_packing_box4
p3973
g21
(g22
(I0
tp3974
g24
tp3975
Rp3976
(I1
(I1
I3
tp3977
g248
I00
S'\xce\xd1\x0eX\x04v\xf3?\xde&\x0b\x0b\n\xe5\x15\xc0\x82\xa2\x81\x17\xb71\xa3?'
p3978
tp3979
bssg1781
(lp3980
(g3488
g1227
tp3981
a(g3568
g1227
tp3982
a(g3470
g1227
tp3983
a(g3471
g1227
tp3984
a(g3472
g1227
tp3985
a(g3473
g1227
tp3986
a(g57
g1227
tp3987
a(g3474
g1227
tp3988
a(g3471
g239
tp3989
a(g3472
g239
tp3990
a(g3473
g239
tp3991
a(g57
g239
tp3992
a(g3474
g239
tp3993
asg1794
(itrajectory_representation.predicates.in_region
InRegion
p3994
(dp3995
g1180
Nsbsg1797
(dp3996
g3488
(lp3997
g21
(g22
(I0
tp3998
g24
tp3999
Rp4000
(I1
(I3
tp4001
g248
I00
S' \xad\xff\xf5i!\xd2?0\xa0OD\x8a\xc9\x1d\xc0\xcc#:\xca{\xe4\x10@'
p4002
tp4003
bag3503
asg3568
(lp4004
g21
(g22
(I0
tp4005
g24
tp4006
Rp4007
(I1
(I3
tp4008
g248
I00
S' \xad\xff\xf5i!\xd2?0\xa0OD\x8a\xc9\x1d\xc0\xcc#:\xca{\xe4\x10@'
p4009
tp4010
bag21
(g22
(I0
tp4011
g24
tp4012
Rp4013
(I1
(I3
tp4014
g259
I00
S'\x138\xde\xf8\x80\xc4\xdb?\xb0\xa4\x99\x1dq\x81\x1c\xc0\xc06d\xa1\x11\xde\x10@'
p4015
tp4016
bag21
(g22
(I0
tp4017
g24
tp4018
Rp4019
(I1
(I3
tp4020
g259
I00
S'|\xfa\xe6W\xd6\x85\xed?\xf8 \x068~N\x1c\xc0o\xb7\xf7\x8b\xdd*\xd7\xbf'
p4021
tp4022
bag630
asg3470
(lp4023
g21
(g22
(I0
tp4024
g24
tp4025
Rp4026
(I1
(I3
tp4027
g248
I00
S' \xad\xff\xf5i!\xd2?0\xa0OD\x8a\xc9\x1d\xc0\xcc#:\xca{\xe4\x10@'
p4028
tp4029
bag21
(g22
(I0
tp4030
g24
tp4031
Rp4032
(I1
(I3
tp4033
g259
I00
S'|\x19\x01\xc0X_\xe1?\x01|\x99B_.\x1b\xc0T\x04\xb4\xbc\xd6\xd1\x13@'
p4034
tp4035
bag21
(g22
(I0
tp4036
g24
tp4037
Rp4038
(I1
(I3
tp4039
g259
I00
S'\xcb\xa0\xb6M\xadU\xef?ny]\x1b[.\x1a\xc0\x99\xfe\xc1BBE\xde?'
p4040
tp4041
bag747
asg3471
(lp4042
g21
(g22
(I0
tp4043
g24
tp4044
Rp4045
(I1
(I3
tp4046
g248
I00
S' \xad\xff\xf5i!\xd2?0\xa0OD\x8a\xc9\x1d\xc0\xcc#:\xca{\xe4\x10@'
p4047
tp4048
bag820
asg3472
(lp4049
g21
(g22
(I0
tp4050
g24
tp4051
Rp4052
(I1
(I3
tp4053
g248
I00
S' \xad\xff\xf5i!\xd2?0\xa0OD\x8a\xc9\x1d\xc0\xcc#:\xca{\xe4\x10@'
p4054
tp4055
bag21
(g22
(I0
tp4056
g24
tp4057
Rp4058
(I1
(I3
tp4059
g259
I00
S'\xd23W\xd6\xdd\xe3\xe6?\xdc\xcai,~\xa9\x1c\xc0\xe4\x03\x93/\x16_\x04\xc0'
p4060
tp4061
bag21
(g22
(I0
tp4062
g24
tp4063
Rp4064
(I1
(I3
tp4065
g259
I00
S'X\xa4u\xbc=r\xf6?\x90\xee\xc4\x1eW\xf8\x1b\xc0\xcc: \xa4-\x95\x01\xc0'
p4066
tp4067
bag21
(g22
(I0
tp4068
g24
tp4069
Rp4070
(I1
(I3
tp4071
g259
I00
S'4#\xe8i\x80D\xf8?\xdd\x1dlTl\\\x19\xc0m\xc1\x1a\xec\xde\x01\x01\xc0'
p4072
tp4073
bag21
(g22
(I0
tp4074
g24
tp4075
Rp4076
(I1
(I3
tp4077
g259
I00
S'!\x83\xc0\xf3W\x85\xff?\xed\x8f\x90/y\xfd\x16\xc06jP\xfe\x98\xf5\xf4\xbf'
p4078
tp4079
bag21
(g22
(I0
tp4080
g24
tp4081
Rp4082
(I1
(I3
tp4083
g259
I00
S'\xe6rt0\xc6`\x05@\xe8\xf6\xaa\xc7\x03\x10\x17\xc0v\x9e\xc9\x80o\x15\xed\xbf'
p4084
tp4085
bag900
asg3473
(lp4086
g21
(g22
(I0
tp4087
g24
tp4088
Rp4089
(I1
(I3
tp4090
g248
I00
S' \xad\xff\xf5i!\xd2?0\xa0OD\x8a\xc9\x1d\xc0\xcc#:\xca{\xe4\x10@'
p4091
tp4092
bag21
(g22
(I0
tp4093
g24
tp4094
Rp4095
(I1
(I3
tp4096
g259
I00
S'|\x19\x01\xc0X_\xe1?\x01|\x99B_.\x1b\xc0T\x04\xb4\xbc\xd6\xd1\x13@'
p4097
tp4098
bag21
(g22
(I0
tp4099
g24
tp4100
Rp4101
(I1
(I3
tp4102
g259
I00
S'\x0c\x0f=\x82\xe8\x10\xef?\x95;\xd2\x17&\xe7\x1b\xc0\xf2\xbb\xbd\xb4q\x0b\t@'
p4103
tp4104
bag986
asg57
g3579
sg3474
(lp4105
g21
(g22
(I0
tp4106
g24
tp4107
Rp4108
(I1
(I3
tp4109
g248
I00
S' \xad\xff\xf5i!\xd2?0\xa0OD\x8a\xc9\x1d\xc0\xcc#:\xca{\xe4\x10@'
p4110
tp4111
bag21
(g22
(I0
tp4112
g24
tp4113
Rp4114
(I1
(I3
tp4115
g259
I00
S'\xd23W\xd6\xdd\xe3\xe6?\xdc\xcai,~\xa9\x1c\xc0\xe4\x03\x93/\x16_\x04\xc0'
p4116
tp4117
bag21
(g22
(I0
tp4118
g24
tp4119
Rp4120
(I1
(I3
tp4121
g259
I00
S'\xfe\xcb\x95>\x9aG\xe1?\xc8?\x9f\xd9\xb8\xe7\x19\xc0\xdb\x1a;\xf0\x837\xfe?'
p4122
tp4123
bag1106
assg557
(dp4124
(Vsquare_packing_box1
p4125
(g1921
(g248
S'?V\xf0\xdb\x10\xe3\x05@'
p4126
tp4127
Rp4128
g1921
(g248
S'\xc8\xec,z\xa7\xd2\x1b\xc0'
p4129
tp4130
Rp4131
g1921
(g248
S' y\xe7P\x86\xaa\x04@'
p4132
tp4133
Rp4134
tp4135
tp4136
g587
s(Vsquare_packing_box3
p4137
(g1921
(g248
S'\x82;P\xa7<z\xf1?'
p4138
tp4139
Rp4140
g1921
(g248
S'_F\xb1\xdc\xd2\xba\x1e\xc0'
p4141
tp4142
Rp4143
g1921
(g248
S'\xa8\x00\x18\xcf\xa0\x81\x11@'
p4144
tp4145
Rp4146
tp4147
tp4148
g583
s(Vrectangular_packing_box4
p4149
(g1921
(g248
S'\xea\xb2\x98\xd8|\\\xc3?'
p4150
tp4151
Rp4152
g1921
(g248
S'\xf8\x19\x17\x0e\x844 \xc0'
p4153
tp4154
Rp4155
g1921
(g248
S'C<\x12/O\xa7\x16@'
p4156
tp4157
Rp4158
tp4159
tp4160
g3479
s(Vsquare_packing_box4
p4161
(g1921
(g248
S'\xc21\xcb\x9e\x04v\xf3?'
p4162
tp4163
Rp4164
g1921
(g248
S'%A\xb8\x02\n\xe5\x15\xc0'
p4165
tp4166
Rp4167
g1921
(g248
S'\x91c\xeb\x19\xc21\xa3?'
p4168
tp4169
Rp4170
tp4171
tp4172
g591
s(Vrectangular_packing_box1
p4173
(g1921
(g248
S'\xc6\xa5*mq\x8d\xd3\xbf'
p4174
tp4175
Rp4176
g1921
(g248
S'\x89x\xeb\xfc\xdb\xe5\x1b\xc0'
p4177
tp4178
Rp4179
g1921
(g248
S't\xceOq\x1cH\x18@'
p4180
tp4181
Rp4182
tp4183
tp4184
g575
s(Vrectangular_packing_box3
p4185
(g1921
(g248
S'\xd7\xd9\x90\x7ff\xd0\x00@'
p4186
tp4187
Rp4188
g1921
(g248
S'\x86\xc7~\x16K\x81\x1a\xc0'
p4189
tp4190
Rp4191
g1921
(g248
S'T\xa7\x03YO\xcd\r@'
p4192
tp4193
Rp4194
tp4195
tp4196
g571
s(Vsquare_packing_box2
p4197
(g1921
(g248
S'\xbb\xf2Y\x9e\x07W\x0e@'
p4198
tp4199
Rp4200
g1921
(g248
S'f\xf9\xba\x0c\xff\xb9\x1a\xc0'
p4201
tp4202
Rp4203
g1921
(g248
S'\x1eP6\xe5\n/\x15@'
p4204
tp4205
Rp4206
tp4207
tp4208
g579
s(Vrectangular_packing_box2
p4209
(g1921
(g248
S'\x048\xbd\x8b\xf7\xc3\x01@'
p4210
tp4211
Rp4212
g1921
(g248
S" 'L\x18\xcd\n\x1d\xc0"
p4213
tp4214
Rp4215
g1921
(g248
S'\xfc\x1b\xb4W\x1fO\xf9?'
p4216
tp4217
Rp4218
tp4219
tp4220
g567
ssg2017
(igtamp_utils.utils
CustomStateSaver
p4221
(dp4222
g2020
g21
(g22
(I0
tp4223
g24
tp4224
Rp4225
(I1
(I1
I3
tp4226
g248
I00
S'(\xad\xff\xf5i!\xd2?0\xa0OD\x8a\xc9\x1d\xc0\xcc#:\xca{\xe4\x10@'
p4227
tp4228
bsg2027
Nsg2028
g2029
sg2030
I1
sg1723
(dp4229
Vright_wall_1
p4230
g21
(g22
(I0
tp4231
g24
tp4232
Rp4233
(I1
(I4
tp4234
g248
I00
S'H\xe1z\x14\xaeG\x12@&\\\x8f\xc2\xf5(\xd4\xbf\xcc\x7fH\xbf}\x1d\xed?\x00\x00\x00\x00\x00\x00\x00\x00'
p4235
tp4236
bsVc_obst5
p4237
g21
(g22
(I0
tp4238
g24
tp4239
Rp4240
(I1
(I4
tp4241
g248
I00
S"Fc_%ki\x12@\xcc\xb4\xcc\xc6\xce\xfd\xc8\xbfe\xaa`TR'\xed?#\x9cs\xf8\xb7\xed\x12@"
p4242
tp4243
bsVentrance_right
p4244
g21
(g22
(I0
tp4245
g24
tp4246
Rp4247
(I1
(I4
tp4248
g248
I00
S'ffffff\n@H\xe1z\x14\xaeG\t\xc0\x9c\xc4 \xb0rh\xc1?\x00\x00\x00\x00\x00\x00\x00\x00'
p4249
tp4250
bsVcomputer_table
p4251
g21
(g22
(I0
tp4252
g24
tp4253
Rp4254
(I1
(I4
tp4255
g248
I00
S'\x00\x00\x00\x00\x00\x00\x13@\x00\x00\x00\x00\x00\x00\xf8\xbf\x96C\x8bl\xe7\xfb\xe7?\xd2!3\x7f|\xd9\x12@'
p4256
tp4257
bsVchair_6b56
p4258
g21
(g22
(I0
tp4259
g24
tp4260
Rp4261
(I1
(I4
tp4262
g248
I00
S'\x94=\n\xd7\xa3p\xf5?]\xe1z\x14\xaeG\xd1?\x00\x00\x00\x00\x00\x00\x00\x00\xd6$\xfaNBm\n@'
p4263
tp4264
bsVsquare_packing_box3
p4265
g21
(g22
(I0
tp4266
g24
tp4267
Rp4268
(I1
(I4
tp4269
g248
I00
S'R\xe0\xcfL<z\xf1?V;\xd1\xbf\xd2\xba\x1e\xc087\x89A`\xe5\xd8?~\x80\xf9\xd0\xa0\x81\x11@'
p4270
tp4271
bsVsquare_packing_box2
p4272
g21
(g22
(I0
tp4273
g24
tp4274
Rp4275
(I1
(I4
tp4276
g248
I00
S'\xea\x1fk\xcc\x07W\x0e@\x99\xe0C\xfd\xfe\xb9\x1a\xc0N7\x89A`\xe5\xd8?\x86\x88C\xe9\n/\x15@'
p4277
tp4278
bsVtable
p4279
g21
(g22
(I0
tp4280
g24
tp4281
Rp4282
(I1
(I4
tp4283
g248
I00
S'\x7f\xf6#EdX\xed?\xac\xffs\x98//\xc0\xbf\x00\x00\x00\x00\x00\x00\x00\x00\x00\x00\x00\x00\x00\x00\x00\x00'
p4284
tp4285
bsVsquare_packing_box1
p4286
g21
(g22
(I0
tp4287
g24
tp4288
Rp4289
(I1
(I4
tp4290
g248
I00
S'\xd3;\xc3\x02\x11\xe3\x05@\x1el}\x8f\xa7\xd2\x1b\xc0L7\x89A`\xe5\xd8?\x8a\x1c\xd5\x14\x86\xaa\x04@'
p4291
tp4292
bsVback_wall_2
p4293
g21
(g22
(I0
tp4294
g24
tp4295
Rp4296
(I1
(I4
tp4297
g248
I00
S'\xaeG\xe1z\x14.\x13@\x80\x14\xaeG\xe1z\xc4?xX\xa85\xcd\xbb\xf2?\x00\x00\x00\x00\x00\x00\x00\x00'
p4298
tp4299
bsVchair_083c
p4300
g21
(g22
(I0
tp4301
g24
tp4302
Rp4303
(I1
(I4
tp4304
g248
I00
S'\xa4p=\n\xd7\xa3\xe0?333333\xe3\xbf\x00\x00\x00\x00\x00\x00\x00\x00\x00\x00\x00\x00\x00\x00\x00\x00'
p4305
tp4306
bsVback_wall_1
p4307
g21
(g22
(I0
tp4308
g24
tp4309
Rp4310
(I1
(I4
tp4311
g248
I00
S'\xaeG\xe1z\x14.\x13@\x80\x14\xaeG\xe1z\xc4?\xcc\x7fH\xbf}\x1d\xed?\x00\x00\x00\x00\x00\x00\x00\x00'
p4312
tp4313
bsVbottom_wall
p4314
g21
(g22
(I0
tp4315
g24
tp4316
Rp4317
(I1
(I4
tp4318
g248
I00
S'\x00\x00\x00\x00\x00\x00\xfc?\x00\x00\x00\x00\x00\x00\x00\x00\x00\x00\x00\x00\x00\x00\x00\x00\x00\x00\x00\x00\x00\x00\x00\x00'
p4319
tp4320
bsVcup_905a
p4321
g21
(g22
(I0
tp4322
g24
tp4323
Rp4324
(I1
(I4
tp4325
g248
I00
S'\x00\x00\x00\x00\x00\x00\xf0?\x83\xc0\xca\xa1E\xb6\xdb?\x1b/\xdd$\x06\x81\xed?\x00\x00\x00\x00\x00\x00\x00\x00'
p4326
tp4327
bsVplate_496f
p4328
g21
(g22
(I0
tp4329
g24
tp4330
Rp4331
(I1
(I4
tp4332
g248
I00
S"q=\n\xd7\xa3p\xe5?\x9dhW!\xe5'\xdd\xbf\x1b/\xdd$\x06\x81\xed?\x00\x00\x00\x00\x00\x00\x00\x00"
p4333
tp4334
bsVtoaster
p4335
g21
(g22
(I0
tp4336
g24
tp4337
Rp4338
(I1
(I4
tp4339
g248
I00
S')\\\x8f\xc2\xf5(\xf4\xbf\xe0z\x14\xaeG\xe1\xf2\xbf\xb8\x1e\x85\xebQ\xb8\xee?\x89/`\x9b\xf8\x8a\xe4?'
p4340
tp4341
bsVc_obst1
p4342
g21
(g22
(I0
tp4343
g24
tp4344
Rp4345
(I1
(I4
tp4346
g248
I00
S">,d(8o\x12@\xc9w`\xa0\xde\x8f\xc1?e\xaa`TR'\xed?\x8c\xfb\xff\xc3\xd0\xea\x12@"
p4347
tp4348
bsVrectangular_packing_box4
p4349
g21
(g22
(I0
tp4350
g24
tp4351
Rp4352
(I1
(I4
tp4353
g248
I00
S'O\x98\x0eK{\\\xc3?\x1e\x9e\xcc\x02\x844 \xc0R7\x89A`\xe5\xd8?\xdb\x9b\xee!O\xa7\x16@'
p4354
tp4355
bsVmicrowave
p4356
g21
(g22
(I0
tp4357
g24
tp4358
Rp4359
(I1
(I4
tp4360
g248
I00
S'\x9a\x99\x99\x99\x99\x99\xf1\xbf\x00\x00\x00\x00\x00\x00\x00@7\x89A`\xe5\xd0\xee?\x00\x00\x00\x00\x00\x00\x00\x00'
p4361
tp4362
bsVc_obst7
p4363
g21
(g22
(I0
tp4364
g24
tp4365
Rp4366
(I1
(I4
tp4367
g248
I00
S"\xe0\x83\xe5\xc6\xd1N\x12@\xe4T\x96\x18\x02\x9a\xd6?e\xaa`TR'\xed?\xc1\x12\xde\xb7\x0cz\x04@"
p4368
tp4369
bsVc_obst6
p4370
g21
(g22
(I0
tp4371
g24
tp4372
Rp4373
(I1
(I4
tp4374
g248
I00
S"\x8f\x14G\x0e\xc2\xf8\x11@HNp\xbf\x05\n\xd1?e\xaa`TR'\xed?\x19>@\xaae\xed\x0c@"
p4375
tp4376
bsVcup_b6af
p4377
g21
(g22
(I0
tp4378
g24
tp4379
Rp4380
(I1
(I4
tp4381
g248
I00
S'R\xb8\x1e\x85\xebQ\xe8?\x9a\x99\x99\x99\x99\x99\xe1?\x1b/\xdd$\x06\x81\xed?\x00\x00\x00\x00\x00\x00\x00\x00'
p4382
tp4383
bsVc_obst4
p4384
g21
(g22
(I0
tp4385
g24
tp4386
Rp4387
(I1
(I4
tp4388
g248
I00
S"H\xafO\x1e\xc2N\x12@P\xee\x1f\x169\x9a\xab\xbfe\xaa`TR'\xed?\xcd\xa3\xac~,\xf7\x07@"
p4389
tp4390
bsVrectangular_packing_box2
p4391
g21
(g22
(I0
tp4392
g24
tp4393
Rp4394
(I1
(I4
tp4395
g248
I00
S'\x87\x8eYh\xf7\xc3\x01@\xcda\xc8\x17\xcd\n\x1d\xc0P7\x89A`\xe5\xd8?\x1c\x14\x99\x83\x1fO\xf9?'
p4396
tp4397
bsVplate_fa76
p4398
g21
(g22
(I0
tp4399
g24
tp4400
Rp4401
(I1
(I4
tp4402
g248
I00
S'=\n\xd7\xa3p=\xf2?\x00\x00\x00\x00\x00\x00\x00\x00\x1b/\xdd$\x06\x81\xed?\x00\x00\x00\x00\x00\x00\x00\x00'
p4403
tp4404
bsVfloorwalls
p4405
g21
(g22
(I0
tp4406
g24
tp4407
Rp4408
(I1
(I4
tp4409
g248
I00
S'\xc7\xcc\xcc\xcc\xcc\xcc\xfc?\x00\x00\x00\x00\x00\x00\x18\xc0H\xe1z\x14\xaeG\xc1?\x16-DT\xfb!\xf9?'
p4410
tp4411
bsVpin_c671
p4412
g21
(g22
(I0
tp4413
g24
tp4414
Rp4415
(I1
(I4
tp4416
g248
I00
S'\xc3\xf5(\\\x8f\xc2\xf1\xbf}?5^\xbaI\x02@\xb8\x1e\x85\xebQ\xb8\xfa?\x00\x00\x00\x00\x00\x00\x00\x00'
p4417
tp4418
bsVc_obst3
p4419
g21
(g22
(I0
tp4420
g24
tp4421
Rp4422
(I1
(I4
tp4423
g248
I00
S"Dp\x93Ug\x05\x12@@o\xb6\xa8a\xc6\xca?e\xaa`TR'\xed?&\x88I\x82\xbb\xa9\x0e@"
p4424
tp4425
bsVchair_2e39
p4426
g21
(g22
(I0
tp4427
g24
tp4428
Rp4429
(I1
(I4
tp4430
g248
I00
S'\x92fffff\xee?\x1dfffff\xf2\xbf\x00\x00\x00\x00\x00\x00\x00\x00\x07M\xe8QQF\xf3?'
p4431
tp4432
bsVentrance_left
p4433
g21
(g22
(I0
tp4434
g24
tp4435
Rp4436
(I1
(I4
tp4437
g248
I00
S'\x98\x99\x99\x99\x99\x99\xe9\xbfH\xe1z\x14\xaeG\t\xc0\x9c\xc4 \xb0rh\xc1?\x00\x00\x00\x00\x00\x00\x00\x00'
p4438
tp4439
bsVtop_wall_1
p4440
g21
(g22
(I0
tp4441
g24
tp4442
Rp4443
(I1
(I4
tp4444
g248
I00
S'H\xe1z\x14\xaeG\x12@\x80\x14\xaeG\xe1z\xc4?xX\xa85\xcd\xbb\xf2?\x00\x00\x00\x00\x00\x00\x00\x00'
p4445
tp4446
bsVrectangular_packing_box3
p4447
g21
(g22
(I0
tp4448
g24
tp4449
Rp4450
(I1
(I4
tp4451
g248
I00
S'\xcc\xf0\xb3\x90f\xd0\x00@\x1e7\x15\x05K\x81\x1a\xc0R7\x89A`\xe5\xd8?G\xcb\xc5qO\xcd\r@'
p4452
tp4453
bsVshaker
p4454
g21
(g22
(I0
tp4455
g24
tp4456
Rp4457
(I1
(I4
tp4458
g248
I00
S'\n\xd7\xa3p=\n\x01@\x14\xaeG\xe1z\x14\x02@\\\x8f\xc2\xf5(\\\xef?\x00\x00\x00\x00\x00\x00\x00\x00'
p4459
tp4460
bsVc_obst9
p4461
g21
(g22
(I0
tp4462
g24
tp4463
Rp4464
(I1
(I4
tp4465
g248
I00
S"B/\x92y\xef\x8d\x12@\xc0\xea\x07\x13\x08\x03\xb2\xbfe\xaa`TR'\xed?\xec\x1d\x1b\x1e\x02r\x16@"
p4466
tp4467
bsVplate_835a
p4468
g21
(g22
(I0
tp4469
g24
tp4470
Rp4471
(I1
(I4
tp4472
g248
I00
S'\xf6(\\\x8f\xc2\xf5\xf0?\\\x8f\xc2\xf5(\\\xe7\xbf\x1b/\xdd$\x06\x81\xed?\x00\x00\x00\x00\x00\x00\x00\x00'
p4473
tp4474
bsVcup_58a2
p4475
g21
(g22
(I0
tp4476
g24
tp4477
Rp4478
(I1
(I4
tp4479
g248
I00
S'\x85\xebQ\xb8\x1e\x85\xe3?\xcd\xcc\xcc\xcc\xcc\xcc\xdc?\x1b/\xdd$\x06\x81\xed?\x00\x00\x00\x00\x00\x00\x00\x00'
p4480
tp4481
bsVleft_wall_1
p4482
g21
(g22
(I0
tp4483
g24
tp4484
Rp4485
(I1
(I4
tp4486
g248
I00
S'H\xe1z\x14\xaeG\x12@S\xb8\x1e\x85\xebQ\xe4?\xcc\x7fH\xbf}\x1d\xed?\x00\x00\x00\x00\x00\x00\x00\x00'
p4487
tp4488
bsVc_obst2
p4489
g21
(g22
(I0
tp4490
g24
tp4491
Rp4492
(I1
(I4
tp4493
g248
I00
S"eU\x0b\xf2\xb4=\x12@\x8d-\xa6\xc4i\xe4\xdb?e\xaa`TR'\xed?\x02V\xf6\xd4<\xf1\x12@"
p4494
tp4495
bsVsquare_packing_box4
p4496
g21
(g22
(I0
tp4497
g24
tp4498
Rp4499
(I1
(I4
tp4500
g248
I00
S'\xd0\xd1\x0eX\x04v\xf3?\xe0&\x0b\x0b\n\xe5\x15\xc0T7\x89A`\xe5\xd8?\x82\xa2\x81\x17\xb71\xa3?'
p4501
tp4502
bsVrectangular_packing_box1
p4503
g21
(g22
(I0
tp4504
g24
tp4505
Rp4506
(I1
(I4
tp4507
g248
I00
S'w\xdd\xda\xf2r\x8d\xd3\xbf\xe5LP\x06\xdc\xe5\x1b\xc0Z7\x89A`\xe5\xd8?\xdb\x07\x00\x87\x1cH\x18@'
p4508
tp4509
bsVpin_371e
p4510
g21
(g22
(I0
tp4511
g24
tp4512
Rp4513
(I1
(I4
tp4514
g248
I00
S'333333\xf3\xbfffffff\xf6?\xb8\x1e\x85\xebQ\xb8\xee?\x00\x00\x00\x00\x00\x00\x00\x00'
p4515
tp4516
bsVfridge
p4517
g21
(g22
(I0
tp4518
g24
tp4519
Rp4520
(I1
(I4
tp4521
g248
I00
S'\xd7\xa3p=\n\xd7\xeb\xbf\x00\x00\x00\x00\x00\x00\x00\xc0\xcd\xcc\xcc\xcc\xcc\xcc\xf8?\x00\x00\x00\x00\x00\x00\x00\x00'
p4522
tp4523
bsVcup_d441
p4524
g21
(g22
(I0
tp4525
g24
tp4526
Rp4527
(I1
(I4
tp4528
g248
I00
S'\n\xd7\xa3p=\n\xef?\x8f\xc2\xf5(\\\x8f\xe2?\x1b/\xdd$\x06\x81\xed?\x00\x00\x00\x00\x00\x00\x00\x00'
p4529
tp4530
bsVshelf2
p4531
g21
(g22
(I0
tp4532
g24
tp4533
Rp4534
(I1
(I4
tp4535
g248
I00
S'\x00\x00\x00\x00\x00\x00\x0e@\xaeG\xe1z\x14\xae\x07@\x9c\xc4 \xb0rh\xc1?\xd2!3\x7f|\xd9\x12@'
p4536
tp4537
bsVtop_wall_2
p4538
g21
(g22
(I0
tp4539
g24
tp4540
Rp4541
(I1
(I4
tp4542
g248
I00
S'H\xe1z\x14\xaeG\x12@\x80\x14\xaeG\xe1z\xc4?\x16HP\xfc\x18\xf3\xfd?\x00\x00\x00\x00\x00\x00\x00\x00'
p4543
tp4544
bsVc_obst0
p4545
g21
(g22
(I0
tp4546
g24
tp4547
Rp4548
(I1
(I4
tp4549
g248
I00
S"\x80\x1e'`\xd7\xea\x11@\x00\x80t\x07`\x19I\xbfe\xaa`TR'\xed?k\xfbr\x9d\xcd]\x00@"
p4550
tp4551
bsVshelf1
p4552
g21
(g22
(I0
tp4553
g24
tp4554
Rp4555
(I1
(I4
tp4556
g248
I00
S'\x00\x00\x00\x00\x00\x00\x13@\xaeG\xe1z\x14\xae\x07@\x9c\xc4 \xb0rh\xc1?\xd2!3\x7f|\xd9\x12@'
p4557
tp4558
bsVsink
p4559
g21
(g22
(I0
tp4560
g24
tp4561
Rp4562
(I1
(I4
tp4563
g248
I00
S'ffffff\xd6?333333\x01@\x9a\x99\x99\x99\x99\x99\xb9\xbf\x00\x00\x00\x00\x00\x00\x00\x00'
p4564
tp4565
bsVpr2
p4566
g21
(g22
(I0
tp4567
g24
tp4568
Rp4569
(I1
(I4
tp4570
g248
I00
S'(\xad\xff\xf5i!\xd2?0\xa0OD\x8a\xc9\x1d\xc0\x9a_\x94\xa0\xbf\xd0\xc1?\xcc#:\xca{\xe4\x10@'
p4571
tp4572
bsVchair_12d0
p4573
g21
(g22
(I0
tp4574
g24
tp4575
Rp4576
(I1
(I4
tp4577
g248
I00
S'^\xd2\x18\xad\xa3\xaa\xdb?Pf\x83L2r\xc6?\x00\x00\x00\x00\x00\x00\x00\x00\xf8\x81\r\x14M\xa6\x17@'
p4578
tp4579
bsVright_wall_2
p4580
g21
(g22
(I0
tp4581
g24
tp4582
Rp4583
(I1
(I4
tp4584
g248
I00
S'H\xe1z\x14\xaeG\x12@&\\\x8f\xc2\xf5(\xd4\xbfxX\xa85\xcd\xbb\xf2?\x00\x00\x00\x00\x00\x00\x00\x00'
p4585
tp4586
bsVknife_block
p4587
g21
(g22
(I0
tp4588
g24
tp4589
Rp4590
(I1
(I4
tp4591
g248
I00
S'R\xb8\x1e\x85\xebQ\xe0\xbfffffff\x02@`\xe5\xd0"\xdb\xf9\xee?\x00\x00\x00\x00\x00\x00\x00\x00'
p4592
tp4593
bsVleft_wall_2
p4594
g21
(g22
(I0
tp4595
g24
tp4596
Rp4597
(I1
(I4
tp4598
g248
I00
S'H\xe1z\x14\xaeG\x12@S\xb8\x1e\x85\xebQ\xe4?xX\xa85\xcd\xbb\xf2?\x00\x00\x00\x00\x00\x00\x00\x00'
p4599
tp4600
bsVleft_wall
p4601
g21
(g22
(I0
tp4602
g24
tp4603
Rp4604
(I1
(I4
tp4605
g248
I00
S'\x9a\x99\x99\x99\x99\x99\x07@H\xe1z\x14\xaeG\xff?\x9c\xc4 \xb0rh\xc1?\x00\x00\x00\x00\x00\x00\x00\x00'
p4606
tp4607
bsVkitchen
p4608
g21
(g22
(I0
tp4609
g24
tp4610
Rp4611
(I1
(I4
tp4612
g248
I00
S'\x00\x00\x00\x00\x00\x00\x00\x00\x00\x00\x00\x00\x00\x00\x00\x00\x00\x00\x00\x00\x00\x00\x00\x00\x00\x00\x00\x00\x00\x00\x00\x00'
p4613
tp4614
bsVtable2
p4615
g21
(g22
(I0
tp4616
g24
tp4617
Rp4618
(I1
(I4
tp4619
g248
I00
S'\x00\x00\x00\x00\x00\x00\x13@\x80\x14\xaeG\xe1z\xc4?S\x96!\x8euq\xec?\xd2!3\x7f|\xd9\x12@'
p4620
tp4621
bsVc_obst8
p4622
g21
(g22
(I0
tp4623
g24
tp4624
Rp4625
(I1
(I4
tp4626
g248
I00
S"9\xc0<\xf8\x94k\x12@\x00\xbfm8\x1emu?e\xaa`TR'\xed?\r\x01\xe5\xb9\xd4\x92\x13@"
p4627
tp4628
bsVplate_b4e7
p4629
g21
(g22
(I0
tp4630
g24
tp4631
Rp4632
(I1
(I4
tp4633
g248
I00
S'\x14\xaeG\xe1z\x14\xf2\xbf\x14\xaeG\xe1z\x14\x00@=\n\xd7\xa3p=\xf2?\x00\x00\x00\x00\x00\x00\x00\x00'
p4634
tp4635
bsVcooker
p4636
g21
(g22
(I0
tp4637
g24
tp4638
Rp4639
(I1
(I4
tp4640
g248
I00
S'\xaeG\xe1z\x14\xae\xff?\x85\xebQ\xb8\x1e\x85\xfb?\x00\x00\x00\x00\x00\x00\xe8?\x00\x00\x00\x00\x00\x00\x00\x00'
p4641
tp4642
bsVpin_a091
p4643
g21
(g22
(I0
tp4644
g24
tp4645
Rp4646
(I1
(I4
tp4647
g248
I00
S'\xdb\xf9~j\xbct\xf7\xbf)\\\x8f\xc2\xf5(\x02@\xb8\x1e\x85\xebQ\xb8\xfa?\x00\x00\x00\x00\x00\x00\x00\x00'
p4648
tp4649
bsVside_wall_2
p4650
g21
(g22
(I0
tp4651
g24
tp4652
Rp4653
(I1
(I4
tp4654
g248
I00
S'\xcf\xff\xff\xff\xff\xff\x14@\xc4\xff\xff\xff\xff\xb7!=\x9c\xc4 \xb0rh\xc1?#-DT\xfb!\xf9?'
p4655
tp4656
bsVside_wall_3
p4657
g21
(g22
(I0
tp4658
g24
tp4659
Rp4660
(I1
(I4
tp4661
g248
I00
S'\x00\x00\x00\x00\x00\x00\xfc?H\xe1z\x14\xaeG\t@\x9c\xc4 \xb0rh\xc1?\x00\x00\x00\x00\x00\x00\x00\x00'
p4662
tp4663
bsVmixer
p4664
g21
(g22
(I0
tp4665
g24
tp4666
Rp4667
(I1
(I4
tp4668
g248
I00
S'\n\xd7\xa3p=\n\xfb?ffffff\x02@d;\xdfO\x8d\x97\xee?\x00\x00\x00\x00\x00\x00\x00\x00'
p4669
tp4670
bsVside_wall_1
p4671
g21
(g22
(I0
tp4672
g24
tp4673
Rp4674
(I1
(I4
tp4675
g248
I00
S'\x9e\xff\xff\xff\xff\xff\xfb\xbf\x9b\xff\xff\xff\xff\x9f\x07\xbd\x9c\xc4 \xb0rh\xc1?#-DT\xfb!\xf9?'
p4676
tp4677
bsVbottom_wall_1
p4678
g21
(g22
(I0
tp4679
g24
tp4680
Rp4681
(I1
(I4
tp4682
g248
I00
S'H\xe1z\x14\xaeG\x12@\x80\x14\xaeG\xe1z\xc4?\xcc\x7fH\xbf}\x1d\xed?\x00\x00\x00\x00\x00\x00\x00\x00'
p4683
tp4684
bsVcan
p4685
g21
(g22
(I0
tp4686
g24
tp4687
Rp4688
(I1
(I4
tp4689
g248
I00
S'\x00\x00\x00\x00\x00\x00\xf4\xbfH\xe1z\x14\xaeG\xe1\xbf\n\xd7\xa3p=\n\xef?\x00\x00\x00\x00\x00\x00\x00\x00'
p4690
tp4691
bsVright_wall
p4692
g21
(g22
(I0
tp4693
g24
tp4694
Rp4695
(I1
(I4
tp4696
g248
I00
S'\x9a\x99\x99\x99\x99\x99\x07@H\xe1z\x14\xaeG\xff\xbf\x9c\xc4 \xb0rh\xc1?\x00\x00\x00\x00\x00\x00\x00\x00'
p4697
tp4698
bsVcoffe_machine
p4699
g21
(g22
(I0
tp4700
g24
tp4701
Rp4702
(I1
(I4
tp4703
g248
I00
S'\\\x8f\xc2\xf5(\\\xf5\xbf\xb8\x1e\x85\xebQ\xb8\xee?\n\xd7\xa3p=\n\xef?\x00\x00\x00\x00\x00\x00\x00\x00'
p4704
tp4705
bsVcomputer_chair
p4706
g21
(g22
(I0
tp4707
g24
tp4708
Rp4709
(I1
(I4
tp4710
g248
I00
S'\xcd\xcc\xcc\xcc\xcc\xcc\x10@\x00\x00\x00\x00\x00\x00\xf8\xbf\xa00\xb6\x10\xe4\xa9\x95\xbf\x00\x00\x00\x00\x00\x00\x00\x00'
p4711
tp4712
bssg2515
g21
(g22
(I0
tp4713
g24
tp4714
Rp4715
(I1
(I39
tp4716
g248
I00
S'\x00\x00\x00\x00\x00\x00\x00\x00\x00\x00\x00\x00\x00\x00\x00\x00\x00\x00\x00\x00\x00\x00\x00\x00\x00\x00\x00\x00\x00\x00\x00\x00\x00\x00\x00\x00\x00\x00\x00\x00\x00\x00\x00\x00\x00\x00\x00\x00\x00\x00\x00\x00\x00\x00\x00\x00\x00\x00\x00\x00\x00\x00\x00\x00\x00\x00\x00\x00\x00\x00\x00\x00\x00\x00\x00\x00\x00\x00\x00\x00\x00\x00\x00\x00\x00\x00\x00\x00\x00\x00\x00\x00\x00\x00\x00\x00@d;\xdfO\x8d\x87?\x00\x00\x00\x00\x00\x00\x00\x00\x00\x00\x00\x00\x00\x00\x00\x00\x00\x00\x00\x00\x00\x00\x00\x00\xec\xed\t\xf1\xcc\xa4\xf4?\x00\x00\x00\x00\x00\x00\xb0<M"\xd0^p\xf8\x00\xc0\x00\x00\x00\x00\x00\x00\x00\x00\xa1\x03\r.\x04V\xe6\xbf\x00\x00\x00\x00\x00\x00\x00\x00\x00\x00\x00\x00\x00\x00\x00\x00\x00\x00\x00\x00\x00@\xe0<\x00\x00\x00\x00\x00\x00\x00\x00\x00\x00\x00\x00\x00\xc0#=\x00\x00\x00\x00\x00\x00\x00\x00\x00\x00\x00\x00\x00\x00\x00\x00\xec\xed\t\xf1\xcc\xa4\xf4?\x00\x00\x00\x00\x00\x00\x00\x00M"\xd0^p\xf8\x00\xc0\x00\x00\x00\x00\x00\x00\x00\x00\xa0\x03\r.\x04V\xe6\xbf\x00\x00\x00\x00\x00\x00\x00\x00\xce9\xe3\xc17\x89\xe1?\x00\x00\x00\x00\x00 \xf9<\xdcl\xdf\xccv\xf8\xa0<\x00\x00\x00\x00\x00\x00\xf4\xbc\x00\x00\x00\x00\x00\x00\x00\x00'
p4717
tp4718
bsg2522
I00
sbsg2523
Nsg2524
(dp4719
(g306
g306
g239
tp4720
g1226
s(g238
g1227
g1227
tp4721
g1229
s(g1230
g1194
g239
tp4722
g1232
s(g414
g1192
g1227
tp4723
g1234
s(g239
g239
g239
tp4724
g1236
s(g1192
g306
g1227
tp4725
g1238
s(g238
g369
g239
tp4726
g1240
s(g414
g238
g239
tp4727
g1244
s(g239
g1192
g1227
tp4728
g1248
s(g414
g1230
g239
tp4729
g1250
s(g1227
g239
g1227
tp4730
g1252
s(g1192
g1230
g239
tp4731
g1256
s(g414
g1194
g1227
tp4732
g1258
s(g477
g1227
g239
tp4733
g1260
s(g1230
g306
g1227
tp4734
g1262
s(g306
g1227
g239
tp4735
g1266
s(g238
g238
g1227
tp4736
g1270
s(g1227
g1192
g1227
tp4737
g1272
s(g1230
g414
g239
tp4738
g1276
s(g1227
g1227
g239
tp4739
g1278
s(g239
g239
g1227
tp4740
g1282
s(g1192
g306
g239
tp4741
g1644
s(g1194
g414
g1227
tp4742
g1284
s(g306
g1192
g239
tp4743
g1286
s(g369
g477
g1227
tp4744
g1378
s(g1194
g239
g1227
tp4745
g1290
s(g306
g369
g1227
tp4746
g1650
s(g1194
g369
g1227
tp4747
g1294
s(g369
g1194
g239
tp4748
g1296
s(g1227
g238
g1227
tp4749
g1298
s(g238
g1230
g1227
tp4750
g1652
s(g306
g306
g1227
tp4751
g1302
s(g1230
g1192
g239
tp4752
g1304
s(g1227
g239
g239
tp4753
g1306
s(g414
g1194
g239
tp4754
g1312
s(g414
g477
g239
tp4755
g1566
s(g238
g369
g1227
tp4756
g1316
s(g477
g414
g239
tp4757
g1318
s(g414
g238
g1227
tp4758
g1320
s(g414
g306
g1227
tp4759
g1322
s(g1230
g414
g1227
tp4760
g1324
s(g1227
g369
g1227
tp4761
g1326
s(g1230
g239
g239
tp4762
g1328
s(g1227
g1230
g239
tp4763
g1332
s(g306
g1192
g1227
tp4764
g1334
s(g477
g306
g1227
tp4765
g1336
s(g477
g477
g239
tp4766
g1338
s(g1194
g369
g239
tp4767
g1340
s(g1230
g306
g239
tp4768
g1342
s(g1230
g477
g1227
tp4769
g1392
s(g477
g238
g239
tp4770
g1288
s(g1192
g238
g239
tp4771
g1346
s(g238
g238
g239
tp4772
g1348
s(g1192
g1194
g1227
tp4773
g1354
s(g1194
g414
g239
tp4774
g1358
s(g306
g1194
g1227
tp4775
g1360
s(g1194
g239
g239
tp4776
g1362
s(g414
g306
g239
tp4777
g1364
s(g306
g477
g239
tp4778
g1366
s(g369
g1194
g1227
tp4779
g1368
s(g1230
g239
g1227
tp4780
g1372
s(g1230
g1192
g1227
tp4781
g1374
s(g477
g306
g239
tp4782
g1376
s(g1227
g1194
g239
tp4783
g1576
s(g306
g1230
g1227
tp4784
g1380
s(g414
g477
g1227
tp4785
g1608
s(g1194
g1227
g239
tp4786
g1382
s(g477
g414
g1227
tp4787
g1384
s(g477
g1194
g1227
tp4788
g1386
s(g1192
g238
g1227
tp4789
g1388
s(g238
g414
g239
tp4790
g1556
s(g1194
g1227
g1227
tp4791
g1344
s(g1227
g369
g239
tp4792
g1394
s(g306
g1194
g239
tp4793
g1398
s(g1192
g1194
g239
tp4794
g1400
s(g1227
g477
g239
tp4795
g1402
s(g239
g414
g1227
tp4796
g1370
s(g477
g1230
g239
tp4797
g1268
s(g1194
g477
g1227
tp4798
g1412
s(g414
g414
g239
tp4799
g1670
s(g369
g1227
g1227
tp4800
g1416
s(g238
g1194
g239
tp4801
g1420
s(g306
g1230
g239
tp4802
g1422
s(g369
g306
g1227
tp4803
g1426
s(g477
g1194
g239
tp4804
g1428
s(g1192
g1227
g1227
tp4805
g1430
s(g414
g239
g239
tp4806
g1432
s(g239
g369
g239
tp4807
g1310
s(g1227
g1194
g1227
tp4808
g1438
s(g1227
g477
g1227
tp4809
g1440
s(g238
g477
g239
tp4810
g1442
s(g1230
g1227
g239
tp4811
g1274
s(g238
g1194
g1227
tp4812
g1446
s(g369
g306
g239
tp4813
g1448
s(g306
g414
g239
tp4814
g1450
s(g369
g239
g1227
tp4815
g1452
s(g1192
g1227
g239
tp4816
g1454
s(g477
g1230
g1227
tp4817
g1674
s(g369
g1227
g239
tp4818
g1466
s(g414
g1192
g239
tp4819
g1688
s(g477
g1192
g239
tp4820
g1468
s(g414
g1227
g1227
tp4821
g1472
s(g369
g1230
g1227
tp4822
g1474
s(g414
g239
g1227
tp4823
g1476
s(g238
g414
g1227
tp4824
g1478
s(g477
g239
g1227
tp4825
g1482
s(g369
g239
g239
tp4826
g1484
s(g1194
g1194
g239
tp4827
g1488
s(g238
g477
g1227
tp4828
g1496
s(g1192
g477
g239
tp4829
g1492
s(g238
g306
g239
tp4830
g1494
s(g239
g1230
g239
tp4831
g1264
s(g239
g414
g239
tp4832
g1500
s(g1230
g369
g1227
tp4833
g1502
s(g369
g238
g239
tp4834
g1504
s(g1194
g1230
g239
tp4835
g1506
s(g477
g1192
g1227
tp4836
g1508
s(g477
g369
g1227
tp4837
g1510
s(g1227
g1192
g239
tp4838
g1490
s(g239
g477
g1227
tp4839
g1436
s(g369
g1230
g239
tp4840
g1518
s(g1192
g369
g1227
tp4841
g1520
s(g306
g414
g1227
tp4842
g1514
s(g369
g477
g239
tp4843
g1680
s(g1192
g1192
g1227
tp4844
g1526
s(g1194
g1194
g1227
tp4845
g1530
s(g238
g1192
g1227
tp4846
g1532
s(g238
g1230
g239
tp4847
g1606
s(g1230
g238
g239
tp4848
g1536
s(g239
g1230
g1227
tp4849
g1538
s(g239
g1194
g1227
tp4850
g1540
s(g414
g1227
g239
tp4851
g1542
s(g238
g306
g1227
tp4852
g1544
s(g1194
g238
g1227
tp4853
g1546
s(g1230
g369
g239
tp4854
g1550
s(g306
g238
g239
tp4855
g1522
s(g414
g369
g1227
tp4856
g1552
s(g1194
g1230
g1227
tp4857
g1554
s(g1227
g414
g1227
tp4858
g1396
s(g1192
g369
g239
tp4859
g1562
s(g238
g239
g1227
tp4860
g1564
s(g369
g1192
g239
tp4861
g1314
s(g1194
g477
g239
tp4862
g1444
s(g1227
g1230
g1227
tp4863
g1572
s(g1192
g477
g1227
tp4864
g1574
s(g1230
g1230
g1227
tp4865
g1578
s(g238
g1192
g239
tp4866
g1582
s(g369
g238
g1227
tp4867
g1586
s(g477
g239
g239
tp4868
g1588
s(g1230
g238
g1227
tp4869
g1590
s(g477
g369
g239
tp4870
g1592
s(g369
g414
g239
tp4871
g1594
s(g306
g238
g1227
tp4872
g1598
s(g1194
g306
g239
tp4873
g1600
s(g1230
g1227
g1227
tp4874
g1602
s(g1192
g414
g239
tp4875
g1534
s(g369
g1192
g1227
tp4876
g1408
s(g369
g369
g1227
tp4877
g1548
s(g1192
g239
g239
tp4878
g1612
s(g477
g477
g1227
tp4879
g1568
s(g1227
g306
g1227
tp4880
g1584
s(g239
g1194
g239
tp4881
g1620
s(g239
g477
g239
tp4882
g1622
s(g1194
g238
g239
tp4883
g1624
s(g306
g477
g1227
tp4884
g1404
s(g1230
g477
g239
tp4885
g1628
s(g414
g369
g239
tp4886
g1630
s(g414
g414
g1227
tp4887
g1632
s(g1194
g1192
g1227
tp4888
g1634
s(g1192
g239
g1227
tp4889
g1636
s(g306
g239
g239
tp4890
g1638
s(g238
g239
g239
tp4891
g1640
s(g1194
g306
g1227
tp4892
g1642
s(g239
g369
g1227
tp4893
g1390
s(g239
g1227
g239
tp4894
g1646
s(g1230
g1230
g239
tp4895
g1648
s(g239
g306
g1227
tp4896
g1292
s(g1192
g414
g1227
tp4897
g1300
s(g1227
g414
g239
tp4898
g1654
s(g1227
g306
g239
tp4899
g1604
s(g238
g1227
g239
tp4900
g1660
s(g369
g414
g1227
tp4901
g1662
s(g239
g238
g239
tp4902
g1664
s(g1230
g1194
g1227
tp4903
g1666
s(g1192
g1230
g1227
tp4904
g1668
s(g239
g238
g1227
tp4905
g1414
s(g1194
g1192
g239
tp4906
g1672
s(g369
g369
g239
tp4907
g1460
s(g239
g1192
g239
tp4908
g1678
s(g1192
g1192
g239
tp4909
g1684
s(g477
g238
g1227
tp4910
g1524
s(g477
g1227
g1227
tp4911
g1690
s(g306
g369
g239
tp4912
g1708
s(g306
g1227
g1227
tp4913
g1694
s(g306
g239
g1227
tp4914
g1698
s(g1227
g1227
g1227
tp4915
g1700
s(g414
g1230
g1227
tp4916
g1702
s(g239
g1227
g1227
tp4917
g1706
s(g239
g306
g239
tp4918
g1692
s(g1227
g238
g239
tp4919
g1710
ssg2526
(dp4920
(g3471
g1227
tp4921
(lp4922
g21
(g22
(I0
tp4923
g24
tp4924
Rp4925
(I1
(I3
tp4926
g248
I00
S'\xb7\x8c\xc7JC\xc3\xc6\xbf\xce_\xfb!\xd7\xb9\x18\xc0\x94\xc7X\xc4\x930\x13@'
p4927
tp4928
bas(g3474
g239
tp4929
(lp4930
g21
(g22
(I0
tp4931
g24
tp4932
Rp4933
(I1
(I3
tp4934
g248
I00
S'6\x92\xaa$\x83\x99\xf0?\xa4(\xa4&\xd7\x93\x18\xc0\xa3\xac\x88A\x0b\xdb\xf7?'
p4935
tp4936
bag21
(g22
(I0
tp4937
g24
tp4938
Rp4939
(I1
(I3
tp4940
g259
I00
S'ib\xa2\x0c9\xe9\xd7?\xca\xcd\xb4=\xe6_\x18\xc0tY\xa4\x97\x8d\xd7\x02@'
p4941
tp4942
bag21
(g22
(I0
tp4943
g24
tp4944
Rp4945
(I1
(I3
tp4946
g259
I00
S'\xe4\x02R\xd9\x08\x8c\xc7?2\xc1\xd4;\xf6\xf3\x15\xc0>\x8c\x8fa?0\xd8?'
p4947
tp4948
bag21
(g22
(I0
tp4949
g24
tp4950
Rp4951
(I1
(I3
tp4952
g259
I00
S'\xcc\x87!\x1f\xfb\x05\xe6?\x14;\x08\xf1<\xc6\x13\xc0V!\xac1j\x94\xc8?'
p4953
tp4954
bag21
(g22
(I0
tp4955
g24
tp4956
Rp4957
(I1
(I3
tp4958
g259
I00
S'`\xc8Aw-\x81\xeb?/\xc3\xe6O\x04\xca\x10\xc0\x8a\xb7K)\x91{\xe4\xbf'
p4959
tp4960
bag21
(g22
(I0
tp4961
g24
tp4962
Rp4963
(I1
(I3
tp4964
g259
I00
S'\xe1\xc6\xc7\xa7\x12X\xe7?\x98\x99\xb0\x9a\xfb\xdb\x0b\xc0R\t\x1b)\xeae\xe0\xbf'
p4965
tp4966
bag21
(g22
(I0
tp4967
g24
tp4968
Rp4969
(I1
(I3
tp4970
g259
I00
S'p\xf1\xbdc^\x84\xf1?"\x88LL\xf9D\x06\xc0~w\r\xe9m\x0f\x19@'
p4971
tp4972
bas(g3488
g239
tp4973
g3301
s(g3473
g1227
tp4974
(lp4975
g21
(g22
(I0
tp4976
g24
tp4977
Rp4978
(I1
(I3
tp4979
g248
I00
S"\x04\x84?\x97'\xc0\xf8?U\xae\xbc\xe5tH\x1c\xc0\x16\xf2K\xeb\xc8\x86\r@"
p4980
tp4981
bas(g3488
g1227
tp4982
(lp4983
g21
(g22
(I0
tp4984
g24
tp4985
Rp4986
(I1
(I3
tp4987
g248
I00
S'R4\xa3\x04\xda\xe1\xcd\xbf=\xea\x87\x98\x90\xa9\x1d\xc0\x14\xb6=\x0b\xcc\xad\x15@'
p4988
tp4989
bas(g3473
g239
tp4990
(lp4991
g21
(g22
(I0
tp4992
g24
tp4993
Rp4994
(I1
(I3
tp4995
g248
I00
S"\x06\x84?\x97'\xc0\xf8?S\xae\xbc\xe5tH\x1c\xc0\x16\xf2K\xeb\xc8\x86\r@"
p4996
tp4997
bag21
(g22
(I0
tp4998
g24
tp4999
Rp5000
(I1
(I3
tp5001
g259
I00
S'4#\xe8i\x80D\xf8?\xdd\x1dlTl\\\x19\xc0m\xc1\x1a\xec\xde\x01\x01\xc0'
p5002
tp5003
bag21
(g22
(I0
tp5004
g24
tp5005
Rp5006
(I1
(I3
tp5007
g259
I00
S'\xf8C*\xbe\x14\xcf\xe8?\x81d\xab\xeb\xa8<\x18\xc0\xc8\\\xf4\x8c\xc3\xfa\xfe\xbf'
p5008
tp5009
bag21
(g22
(I0
tp5010
g24
tp5011
Rp5012
(I1
(I3
tp5013
g259
I00
S'\xbc\xcaD\xb3\xa5\xd0\xda?5\x9e\xd8L\xbc\xff\x15\xc0\x86v/\xef\x06;\xe9\xbf'
p5014
tp5015
bag21
(g22
(I0
tp5016
g24
tp5017
Rp5018
(I1
(I3
tp5019
g259
I00
S'l[\xc4\x16<\xe6\xe9?\xa6\xa0\x90\x84X\x9f\x13\xc0\xc2\xd74Q\x00\xaf\xff\xbf'
p5020
tp5021
bag21
(g22
(I0
tp5022
g24
tp5023
Rp5024
(I1
(I3
tp5025
g259
I00
S"\xaeJ\xbd\x1936\xec?\x04\x13\xd4'\x9f\x88\x10\xc0\x805qo\xb6\xe6\xff\xbf"
p5026
tp5027
bag21
(g22
(I0
tp5028
g24
tp5029
Rp5030
(I1
(I3
tp5031
g259
I00
S'\xf09\xb6\x1c*\x86\xee?\xc4\n/\x96\xcb\xe3\n\xc0\xa0\xc9\xd6F6\x0f\x00\xc0'
p5032
tp5033
bag21
(g22
(I0
tp5034
g24
tp5035
Rp5036
(I1
(I3
tp5037
g259
I00
S'3\xe9\xaf\x05T\x89\xe7?+~\xcb\xd3\x15\xc7\x04\xc0x6(d5\xed\x07@'
p5038
tp5039
bas(g3472
g1227
tp5040
(lp5041
g21
(g22
(I0
tp5042
g24
tp5043
Rp5044
(I1
(I3
tp5045
g248
I00
S'qU\x12\xf0\xbdf\r@\xde\x1f" \xc1\xc9\x17\xc0\x8e\x9a\x81\xb6\x8e\x18\x14@'
p5046
tp5047
bas(g3472
g239
tp5048
(lp5049
g21
(g22
(I0
tp5050
g24
tp5051
Rp5052
(I1
(I3
tp5053
g248
I00
S'mU\x12\xf0\xbdf\r@\xde\x1f" \xc1\xc9\x17\xc0\x8e\x9a\x81\xb6\x8e\x18\x14@'
p5054
tp5055
bag21
(g22
(I0
tp5056
g24
tp5057
Rp5058
(I1
(I3
tp5059
g259
I00
S"\xae\xe0\x95'\x8b\xa2\x07@\xe8=\xcelvy\x17\xc0\xf2r\xcc\xc2\xc1\xb6\xfe\xbf"
p5060
tp5061
bag21
(g22
(I0
tp5062
g24
tp5063
Rp5064
(I1
(I3
tp5065
g259
I00
S'\x93\xe8\x9a\xb2\xd1\xfa\x03@\x8aHE%\xee\xed\x15\xc0\xf8hW\x99?x\xfa\xbf'
p5066
tp5067
bag21
(g22
(I0
tp5068
g24
tp5069
Rp5070
(I1
(I3
tp5071
g259
I00
S'!\x83\xc0\xf3W\x85\xff?\xed\x8f\x90/y\xfd\x16\xc06jP\xfe\x98\xf5\xf4\xbf'
p5072
tp5073
bag21
(g22
(I0
tp5074
g24
tp5075
Rp5076
(I1
(I3
tp5077
g259
I00
S"'\xc1{\xbc\xf6\x05\xf8?\x02^\x18\xdc\xb7\xac\x18\xc0o\x85MZ3\x91\xf3\xbf"
p5078
tp5079
bag21
(g22
(I0
tp5080
g24
tp5081
Rp5082
(I1
(I3
tp5083
g259
I00
S'\xf8C*\xbe\x14\xcf\xe8?\x81d\xab\xeb\xa8<\x18\xc0\xc8\\\xf4\x8c\xc3\xfa\xfe\xbf'
p5084
tp5085
bag21
(g22
(I0
tp5086
g24
tp5087
Rp5088
(I1
(I3
tp5089
g259
I00
S'\xac\xb4\xd5\x83\xbb\xf9\xe0?\xe1\x80\xe9+%\xe6\x16\xc0<\xd6N\xab\x06\xcc\xf7\xbf'
p5090
tp5091
bag21
(g22
(I0
tp5092
g24
tp5093
Rp5094
(I1
(I3
tp5095
g259
I00
S"\xb2&6mg)\xe8?\x99\xe0G'\x16\xe0\x13\xc0\xc8oL\xf5\x17p\xe6\xbf"
p5096
tp5097
bag21
(g22
(I0
tp5098
g24
tp5099
Rp5100
(I1
(I3
tp5101
g259
I00
S'`\xc8Aw-\x81\xeb?/\xc3\xe6O\x04\xca\x10\xc0\x8a\xb7K)\x91{\xe4\xbf'
p5102
tp5103
bag21
(g22
(I0
tp5104
g24
tp5105
Rp5106
(I1
(I3
tp5107
g259
I00
S'\xe1\xc6\xc7\xa7\x12X\xe7?\x98\x99\xb0\x9a\xfb\xdb\x0b\xc0R\t\x1b)\xeae\xe0\xbf'
p5108
tp5109
bag21
(g22
(I0
tp5110
g24
tp5111
Rp5112
(I1
(I3
tp5113
g259
I00
S'p\xf1\xbdc^\x84\xf1?"\x88LL\xf9D\x06\xc0~w\r\xe9m\x0f\x19@'
p5114
tp5115
bas(g57
g239
tp5116
(lp5117
g21
(g22
(I0
tp5118
g24
tp5119
Rp5120
(I1
(I3
tp5121
g248
I00
S'y6w_\x07\x10\x08@\xca\xd95\x02l\x15\x19\xc0\x06\xb20\x02\xdb\x7f\x12@'
p5122
tp5123
bag21
(g22
(I0
tp5124
g24
tp5125
Rp5126
(I1
(I3
tp5127
g259
I00
S'nv\xf9k\xe2Y\x05@\xbf\xa3\xf80pj\x16\xc0\x85\x14\xd6\xdd\x83\x18\x04\xc0'
p5128
tp5129
bag21
(g22
(I0
tp5130
g24
tp5131
Rp5132
(I1
(I3
tp5133
g259
I00
S'!\x83\xc0\xf3W\x85\xff?\xed\x8f\x90/y\xfd\x16\xc06jP\xfe\x98\xf5\xf4\xbf'
p5134
tp5135
bag21
(g22
(I0
tp5136
g24
tp5137
Rp5138
(I1
(I3
tp5139
g259
I00
S"'\xc1{\xbc\xf6\x05\xf8?\x02^\x18\xdc\xb7\xac\x18\xc0o\x85MZ3\x91\xf3\xbf"
p5140
tp5141
bag21
(g22
(I0
tp5142
g24
tp5143
Rp5144
(I1
(I3
tp5145
g259
I00
S'\xf8C*\xbe\x14\xcf\xe8?\x81d\xab\xeb\xa8<\x18\xc0\xc8\\\xf4\x8c\xc3\xfa\xfe\xbf'
p5146
tp5147
bag21
(g22
(I0
tp5148
g24
tp5149
Rp5150
(I1
(I3
tp5151
g259
I00
S'\xac\xb4\xd5\x83\xbb\xf9\xe0?\xe1\x80\xe9+%\xe6\x16\xc0<\xd6N\xab\x06\xcc\xf7\xbf'
p5152
tp5153
bag21
(g22
(I0
tp5154
g24
tp5155
Rp5156
(I1
(I3
tp5157
g259
I00
S"\xb2&6mg)\xe8?\x99\xe0G'\x16\xe0\x13\xc0\xc8oL\xf5\x17p\xe6\xbf"
p5158
tp5159
bag21
(g22
(I0
tp5160
g24
tp5161
Rp5162
(I1
(I3
tp5163
g259
I00
S'`\xc8Aw-\x81\xeb?/\xc3\xe6O\x04\xca\x10\xc0\x8a\xb7K)\x91{\xe4\xbf'
p5164
tp5165
bag21
(g22
(I0
tp5166
g24
tp5167
Rp5168
(I1
(I3
tp5169
g259
I00
S'\xe1\xc6\xc7\xa7\x12X\xe7?\x98\x99\xb0\x9a\xfb\xdb\x0b\xc0R\t\x1b)\xeae\xe0\xbf'
p5170
tp5171
bag21
(g22
(I0
tp5172
g24
tp5173
Rp5174
(I1
(I3
tp5175
g259
I00
S'p\xf1\xbdc^\x84\xf1?"\x88LL\xf9D\x06\xc0~w\r\xe9m\x0f\x19@'
p5176
tp5177
bas(g3470
g239
tp5178
g3413
s(g3470
g1227
tp5179
(lp5180
g21
(g22
(I0
tp5181
g24
tp5182
Rp5183
(I1
(I3
tp5184
g248
I00
S'\x0c\x1f\xf0\xdc\xc6\x18\xfa?yVJ\xdc+\xa3\x17\xc0U\x13\xaf\x0bi\xf5\x13@'
p5185
tp5186
bas(g3474
g1227
tp5187
(lp5188
g21
(g22
(I0
tp5189
g24
tp5190
Rp5191
(I1
(I3
tp5192
g248
I00
S'5\x92\xaa$\x83\x99\xf0?\xa3(\xa4&\xd7\x93\x18\xc0\xa3\xac\x88A\x0b\xdb\xf7?'
p5193
tp5194
bas(g57
g1227
tp5195
(lp5196
g21
(g22
(I0
tp5197
g24
tp5198
Rp5199
(I1
(I3
tp5200
g248
I00
S'\x806w_\x07\x10\x08@\xcb\xd95\x02l\x15\x19\xc0\x06\xb20\x02\xdb\x7f\x12@'
p5201
tp5202
bas(g3568
g1227
tp5203
(lp5204
g21
(g22
(I0
tp5205
g24
tp5206
Rp5207
(I1
(I3
tp5208
g248
I00
S'\xa8\xf4Mk\x11f\x07@\x90\x18\\K\x9a\xc5\x1c\xc0v\xaak\xe7j\xab\r@'
p5209
tp5210
bas(g3568
g239
tp5211
g3351
s(g3471
g239
tp5212
(lp5213
g21
(g22
(I0
tp5214
g24
tp5215
Rp5216
(I1
(I3
tp5217
g248
I00
S' \x8d\xc7JC\xc3\xc6\xbf\xcb_\xfb!\xd7\xb9\x18\xc0\x94\xc7X\xc4\x930\x13@'
p5218
tp5219
bag21
(g22
(I0
tp5220
g24
tp5221
Rp5222
(I1
(I3
tp5223
g259
I00
S'\xff\x1dX8\xbe\xd2\xc9?\x91h\xd1{\x1e(\x16\xc0\xee\xfeSI\xc3\xd4\x03\xc0'
p5224
tp5225
bag21
(g22
(I0
tp5226
g24
tp5227
Rp5228
(I1
(I3
tp5229
g259
I00
S"\xb2&6mg)\xe8?\x99\xe0G'\x16\xe0\x13\xc0\xc8oL\xf5\x17p\xe6\xbf"
p5230
tp5231
bag21
(g22
(I0
tp5232
g24
tp5233
Rp5234
(I1
(I3
tp5235
g259
I00
S'`\xc8Aw-\x81\xeb?/\xc3\xe6O\x04\xca\x10\xc0\x8a\xb7K)\x91{\xe4\xbf'
p5236
tp5237
bag21
(g22
(I0
tp5238
g24
tp5239
Rp5240
(I1
(I3
tp5241
g259
I00
S'\xe1\xc6\xc7\xa7\x12X\xe7?\x98\x99\xb0\x9a\xfb\xdb\x0b\xc0R\t\x1b)\xeae\xe0\xbf'
p5242
tp5243
bag21
(g22
(I0
tp5244
g24
tp5245
Rp5246
(I1
(I3
tp5247
g259
I00
S'p\xf1\xbdc^\x84\xf1?"\x88LL\xf9D\x06\xc0~w\r\xe9m\x0f\x19@'
p5248
tp5249
bassg2717
(dp5250
(g414
g1192
tp5251
g2813
s(g369
g369
tp5252
g2819
s(g369
g477
tp5253
g2817
s(g306
g306
tp5254
g3007
s(g306
g477
tp5255
g2821
s(g239
g306
tp5256
g3017
s(g1192
g306
tp5257
g2825
s(g414
g238
tp5258
g2827
s(g1194
g369
tp5259
g2829
s(g306
g1227
tp5260
g2833
s(g1194
g477
tp5261
g2865
s(g1230
g414
tp5262
g2991
s(g238
g239
tp5263
g2849
s(g1230
g306
tp5264
g2851
s(g306
g1192
tp5265
g2853
s(g369
g1230
tp5266
g2855
s(g414
g414
tp5267
g2857
s(g1230
g1192
tp5268
g2955
s(g477
g306
tp5269
g2861
s(g306
g239
tp5270
g2863
s(g1230
g1227
tp5271
g2843
s(g238
g238
tp5272
g2869
s(g306
g1230
tp5273
g2871
s(g1227
g477
tp5274
g2875
s(g306
g414
tp5275
g3005
s(g1227
g369
tp5276
g2877
s(g477
g239
tp5277
g2879
s(g477
g1194
tp5278
g2885
s(g1230
g239
tp5279
g2889
s(g238
g306
tp5280
g2891
s(g1230
g477
tp5281
g2895
s(g477
g1230
tp5282
g2897
s(g369
g414
tp5283
g2899
s(g1192
g238
tp5284
g2901
s(g369
g306
tp5285
g2903
s(g1192
g239
tp5286
g2905
s(g1230
g1230
tp5287
g2907
s(g306
g369
tp5288
g2823
s(g1192
g1230
tp5289
g3039
s(g239
g238
tp5290
g2913
s(g1194
g1227
tp5291
g2915
s(g239
g1194
tp5292
g2917
s(g1192
g369
tp5293
g2919
s(g369
g238
tp5294
g2921
s(g477
g1227
tp5295
g2923
s(g369
g1194
tp5296
g2925
s(g477
g477
tp5297
g2927
s(g1194
g306
tp5298
g2929
s(g1227
g239
tp5299
g2931
s(g239
g414
tp5300
g2933
s(g1230
g1194
tp5301
g2937
s(g239
g1192
tp5302
g2939
s(g414
g477
tp5303
g3025
s(g1194
g1230
tp5304
g2943
s(g1192
g1227
tp5305
g2945
s(g1194
g414
tp5306
g2947
s(g1227
g414
tp5307
g2859
s(g1227
g306
tp5308
g2873
s(g1194
g239
tp5309
g2959
s(g414
g1194
tp5310
g2961
s(g238
g1194
tp5311
g2963
s(g1227
g1227
tp5312
g2967
s(g238
g477
tp5313
g2971
s(g1227
g238
tp5314
g2973
s(g1227
g1194
tp5315
g2977
s(g238
g1230
tp5316
g2979
s(g414
g306
tp5317
g2981
s(g369
g239
tp5318
g2983
s(g306
g238
tp5319
g2989
s(g1227
g1192
tp5320
g2847
s(g306
g1194
tp5321
g2993
s(g477
g414
tp5322
g2995
s(g414
g1227
tp5323
g2997
s(g1194
g1194
tp5324
g2999
s(g1192
g414
tp5325
g3001
s(g238
g1192
tp5326
g3003
s(g239
g477
tp5327
g2965
s(g239
g369
tp5328
g2953
s(g1192
g1194
tp5329
g3009
s(g414
g239
tp5330
g3011
s(g477
g238
tp5331
g3013
s(g369
g1227
tp5332
g3015
s(g1194
g238
tp5333
g3019
s(g239
g1227
tp5334
g3023
s(g369
g1192
tp5335
g2941
s(g1230
g369
tp5336
g3027
s(g414
g1230
tp5337
g3029
s(g477
g369
tp5338
g3031
s(g239
g239
tp5339
g3033
s(g1194
g1192
tp5340
g3035
s(g238
g414
tp5341
g2911
s(g239
g1230
tp5342
g3041
s(g477
g1192
tp5343
g3045
s(g1192
g477
tp5344
g3047
s(g414
g369
tp5345
g2969
s(g1227
g1230
tp5346
g3051
s(g238
g369
tp5347
g3053
s(g1192
g1192
tp5348
g3057
s(g238
g1227
tp5349
g3059
s(g1230
g238
tp5350
g3061
ssg2719
(dp5351
g1230
(lp5352
I0
aI0
aI0
aI0
aI0
aI0
aI00
aI01
aI00
aI01
aI00
asg1227
(lp5353
I0
aI0
aI0
aI0
aI0
aI0
aI00
aI01
aI00
aI01
aI00
asg239
(lp5354
I0
aI0
aI0
aI0
aI0
aI0
aI00
aI01
aI01
aI01
aI00
asg1197
(lp5355
I0
aI0
aI0
ag1921
(g248
S'@I\x0eK{\\\xc3?'
p5356
tp5357
Rp5358
ag1921
(g248
S'\xf3\x9d\xcc\x02\x844 \xc0'
p5359
tp5360
Rp5361
ag1921
(g248
S'\xdb\x9b\xee!O\xa7\x16@'
p5362
tp5363
Rp5364
aI01
aI00
aI00
aI00
aI00
asg306
(lp5365
I0
aI0
aI0
ag1921
(g248
S'\xaa\x8eYh\xf7\xc3\x01@'
p5366
tp5367
Rp5368
ag1921
(g248
S'aa\xc8\x17\xcd\n\x1d\xc0'
p5369
tp5370
Rp5371
ag1921
(g248
S'\x1c\x14\x99\x83\x1fO\xf9?'
p5372
tp5373
Rp5374
aI01
aI00
aI00
aI00
aI00
asg369
(lp5375
I0
aI0
aI0
ag1921
(g248
S'T\xf0\xb3\x90f\xd0\x00@'
p5376
tp5377
Rp5378
ag1921
(g248
S'\xdf6\x15\x05K\x81\x1a\xc0'
p5379
tp5380
Rp5381
ag1921
(g248
S'G\xcb\xc5qO\xcd\r@'
p5382
tp5383
Rp5384
aI01
aI00
aI00
aI01
aI00
asg1194
(lp5385
I0
aI0
aI0
ag1921
(g248
S'w\xdd\xda\xf2r\x8d\xd3\xbf'
p5386
tp5387
Rp5388
ag1921
(g248
S'\xe5LP\x06\xdc\xe5\x1b\xc0'
p5389
tp5390
Rp5391
ag1921
(g248
S'\xdb\x07\x00\x87\x1cH\x18@'
p5392
tp5393
Rp5394
aI01
aI00
aI00
aI01
aI00
asg414
(lp5395
I0
aI0
aI0
ag1921
(g248
S'\x95\x1fk\xcc\x07W\x0e@'
p5396
tp5397
Rp5398
ag1921
(g248
S'\x8f\xe0C\xfd\xfe\xb9\x1a\xc0'
p5399
tp5400
Rp5401
ag1921
(g248
S'\x86\x88C\xe9\n/\x15@'
p5402
tp5403
Rp5404
aI01
aI00
aI00
aI01
aI00
asg477
(lp5405
I0
aI0
aI0
ag1921
(g248
S'\xa8\xe0\xcfL<z\xf1?'
p5406
tp5407
Rp5408
ag1921
(g248
S'\xf4;\xd1\xbf\xd2\xba\x1e\xc0'
p5409
tp5410
Rp5411
ag1921
(g248
S'~\x80\xf9\xd0\xa0\x81\x11@'
p5412
tp5413
Rp5414
aI01
aI00
aI00
aI01
aI00
asg238
(lp5415
I0
aI0
aI0
ag1921
(g248
S'\x9e;\xc3\x02\x11\xe3\x05@'
p5416
tp5417
Rp5418
ag1921
(g248
S'\xe0k}\x8f\xa7\xd2\x1b\xc0'
p5419
tp5420
Rp5421
ag1921
(g248
S'\x8a\x1c\xd5\x14\x86\xaa\x04@'
p5422
tp5423
Rp5424
aI01
aI00
aI01
aI01
aI00
asg1192
(lp5425
I0
aI0
aI0
ag1921
(g248
S'\xc3\xd1\x0eX\x04v\xf3?'
p5426
tp5427
Rp5428
ag1921
(g248
S'\xd1&\x0b\x0b\n\xe5\x15\xc0'
p5429
tp5430
Rp5431
ag1921
(g248
S'\x82\xa2\x81\x17\xb71\xa3?'
p5432
tp5433
Rp5434
aI01
aI00
aI00
aI01
aI00
assg2804
(dp5435
sg2806
g123
sg2807
g2808
sg2810
(dp5436
(g414
g1192
tp5437
(lp5438
I00
aI00
aI00
as(g414
g1197
tp5439
(lp5440
I00
aI00
aI00
as(g369
g477
tp5441
(lp5442
I00
aI00
aI00
as(g369
g369
tp5443
(lp5444
I00
aI00
aI00
as(g306
g477
tp5445
(lp5446
I00
aI00
aI00
as(g306
g369
tp5447
(lp5448
I00
aI00
aI00
as(g1192
g306
tp5449
(lp5450
I00
aI00
aI00
as(g414
g238
tp5451
(lp5452
I00
aI00
aI00
as(g1194
g369
tp5453
(lp5454
I00
aI00
aI00
as(g1197
g1197
tp5455
(lp5456
I00
aI00
aI00
as(g306
g1227
tp5457
(lp5458
g2841
aI00
aI01
as(g1230
g1227
tp5459
(lp5460
I00
aI00
aI00
as(g1197
g1192
tp5461
(lp5462
I00
aI00
aI00
as(g1227
g1192
tp5463
(lp5464
I00
aI00
aI00
as(g238
g239
tp5465
(lp5466
I00
aI00
aI01
as(g1230
g306
tp5467
(lp5468
I00
aI00
aI00
as(g306
g1192
tp5469
(lp5470
I00
aI00
aI00
as(g369
g1230
tp5471
(lp5472
g2841
aI00
aI00
as(g414
g414
tp5473
(lp5474
I00
aI00
aI00
as(g1227
g414
tp5475
(lp5476
I00
aI00
aI00
as(g477
g306
tp5477
(lp5478
I00
aI01
aI00
as(g306
g239
tp5479
(lp5480
I00
aI00
aI00
as(g1194
g477
tp5481
(lp5482
I00
aI00
aI00
as(g1197
g1194
tp5483
(lp5484
I00
aI00
aI00
as(g238
g238
tp5485
(lp5486
I00
aI00
aI00
as(g306
g1230
tp5487
(lp5488
g2841
aI00
aI00
as(g1227
g306
tp5489
(lp5490
I00
aI00
aI00
as(g1227
g477
tp5491
(lp5492
I00
aI00
aI00
as(g1227
g369
tp5493
(lp5494
I00
aI00
aI00
as(g477
g239
tp5495
(lp5496
I00
aI00
aI01
as(g1192
g1197
tp5497
(lp5498
I00
aI00
aI00
as(g1194
g1197
tp5499
(lp5500
I00
aI00
aI00
as(g477
g1194
tp5501
(lp5502
I00
aI00
aI00
as(g1227
g1197
tp5503
(lp5504
I00
aI00
aI00
as(g1230
g239
tp5505
(lp5506
I00
aI00
aI00
as(g238
g306
tp5507
(lp5508
I00
aI00
aI00
as(g1197
g477
tp5509
(lp5510
I00
aI00
aI00
as(g1230
g477
tp5511
(lp5512
I00
aI00
aI00
as(g477
g1230
tp5513
(lp5514
g2841
aI00
aI00
as(g369
g414
tp5515
(lp5516
I00
aI00
aI00
as(g1192
g238
tp5517
(lp5518
I00
aI00
aI00
as(g369
g306
tp5519
(lp5520
I00
aI00
aI00
as(g1192
g239
tp5521
(lp5522
I00
aI00
aI01
as(g1230
g1230
tp5523
(lp5524
I00
aI00
aI00
as(g477
g1197
tp5525
(lp5526
I00
aI01
aI00
as(g238
g414
tp5527
(lp5528
I00
aI00
aI00
as(g239
g238
tp5529
(lp5530
I00
aI00
aI00
as(g1194
g1227
tp5531
(lp5532
g2841
aI00
aI01
as(g239
g1194
tp5533
(lp5534
I00
aI00
aI00
as(g1192
g369
tp5535
(lp5536
I00
aI00
aI00
as(g369
g238
tp5537
(lp5538
I00
aI00
aI00
as(g477
g1227
tp5539
(lp5540
g2841
aI00
aI01
as(g369
g1194
tp5541
(lp5542
I00
aI00
aI00
as(g477
g477
tp5543
(lp5544
I00
aI00
aI00
as(g1194
g306
tp5545
(lp5546
I00
aI00
aI00
as(g1227
g239
tp5547
(lp5548
I00
aI00
aI00
as(g239
g414
tp5549
(lp5550
I00
aI00
aI00
as(g1197
g239
tp5551
(lp5552
I00
aI00
aI00
as(g1230
g1194
tp5553
(lp5554
I00
aI00
aI00
as(g239
g1192
tp5555
(lp5556
I00
aI00
aI00
as(g369
g1192
tp5557
(lp5558
I00
aI00
aI00
as(g1194
g1230
tp5559
(lp5560
g2841
aI00
aI00
as(g1192
g1227
tp5561
(lp5562
g2841
aI00
aI01
as(g1194
g414
tp5563
(lp5564
I00
aI00
aI00
as(g1197
g306
tp5565
(lp5566
I00
aI00
aI00
as(g1197
g1227
tp5567
(lp5568
g2841
aI00
aI01
as(g239
g369
tp5569
(lp5570
I00
aI00
aI00
as(g1230
g1192
tp5571
(lp5572
I00
aI00
aI00
as(g1230
g1197
tp5573
(lp5574
I00
aI00
aI00
as(g1194
g239
tp5575
(lp5576
I00
aI00
aI01
as(g414
g1194
tp5577
(lp5578
I00
aI00
aI00
as(g238
g1194
tp5579
(lp5580
I00
aI00
aI00
as(g239
g477
tp5581
(lp5582
I00
aI00
aI00
as(g1227
g1227
tp5583
(lp5584
I00
aI00
aI00
as(g414
g369
tp5585
(lp5586
I00
aI00
aI00
as(g238
g477
tp5587
(lp5588
I00
aI00
aI00
as(g1227
g238
tp5589
(lp5590
I00
aI00
aI00
as(g306
g1197
tp5591
(lp5592
I00
aI00
aI00
as(g1227
g1194
tp5593
(lp5594
I00
aI00
aI00
as(g238
g1230
tp5595
(lp5596
g2841
aI00
aI00
as(g414
g306
tp5597
(lp5598
I00
aI00
aI00
as(g369
g239
tp5599
(lp5600
I00
aI00
aI00
as(g238
g1197
tp5601
(lp5602
I00
aI00
aI00
as(g1197
g238
tp5603
(lp5604
I00
aI00
aI00
as(g306
g238
tp5605
(lp5606
I00
aI00
aI00
as(g1230
g414
tp5607
(lp5608
I00
aI00
aI00
as(g306
g1194
tp5609
(lp5610
I00
aI00
aI00
as(g477
g414
tp5611
(lp5612
I00
aI00
aI00
as(g414
g1227
tp5613
(lp5614
g2841
aI00
aI01
as(g1194
g1194
tp5615
(lp5616
I00
aI00
aI00
as(g1192
g414
tp5617
(lp5618
I00
aI00
aI00
as(g238
g1192
tp5619
(lp5620
I00
aI00
aI00
as(g306
g414
tp5621
(lp5622
I00
aI00
aI00
as(g306
g306
tp5623
(lp5624
I00
aI00
aI00
as(g1192
g1194
tp5625
(lp5626
I00
aI00
aI00
as(g414
g239
tp5627
(lp5628
I00
aI00
aI01
as(g477
g238
tp5629
(lp5630
I00
aI00
aI00
as(g369
g1227
tp5631
(lp5632
g2841
aI00
aI01
as(g239
g306
tp5633
(lp5634
I00
aI00
aI00
as(g1194
g238
tp5635
(lp5636
I00
aI00
aI00
as(g1197
g369
tp5637
(lp5638
I00
aI00
aI00
as(g239
g1227
tp5639
(lp5640
I00
aI00
aI00
as(g414
g477
tp5641
(lp5642
I00
aI00
aI00
as(g1230
g369
tp5643
(lp5644
I00
aI00
aI00
as(g414
g1230
tp5645
(lp5646
g2841
aI00
aI00
as(g477
g369
tp5647
(lp5648
I00
aI00
aI00
as(g239
g239
tp5649
(lp5650
I00
aI00
aI00
as(g1194
g1192
tp5651
(lp5652
I00
aI00
aI00
as(g1197
g1230
tp5653
(lp5654
g2841
aI00
aI00
as(g1192
g1230
tp5655
(lp5656
g2841
aI00
aI00
as(g239
g1230
tp5657
(lp5658
I00
aI00
aI00
as(g239
g1197
tp5659
(lp5660
I00
aI00
aI00
as(g477
g1192
tp5661
(lp5662
I00
aI00
aI00
as(g1192
g477
tp5663
(lp5664
I00
aI00
aI00
as(g369
g1197
tp5665
(lp5666
I00
aI00
aI00
as(g1227
g1230
tp5667
(lp5668
I00
aI00
aI00
as(g238
g369
tp5669
(lp5670
I00
aI00
aI00
as(g1197
g414
tp5671
(lp5672
I00
aI00
aI00
as(g1192
g1192
tp5673
(lp5674
I00
aI00
aI00
as(g238
g1227
tp5675
(lp5676
g2841
aI00
aI01
as(g1230
g238
tp5677
(lp5678
I00
aI00
aI00
assg553
g3469
sg3062
(itrajectory_representation.predicates.pick_in_way
PickInWay
p5679
(dp5680
g236
(dp5681
g1197
g3997
sg306
g4004
sg369
g4023
sg1194
g4042
sg414
g4049
sg477
g4086
sg238
g3579
sg1192
g4105
ssg528
(dp5682
g1197
(lp5683
Vsquare_packing_box3
p5684
asg306
(lp5685
Vsquare_packing_box3
p5686
asg369
(lp5687
sg1194
(lp5688
sg414
(lp5689
sg477
(lp5690
sg238
(lp5691
sg1192
(lp5692
ssg553
(lp5693
g1194
ag414
ag477
ag369
ag1192
ag1230
ag239
ag1227
ag238
ag1230
ag239
ag1227
ag1230
ag239
ag1227
ag1230
ag239
ag1227
ag1230
ag239
ag1227
ag1230
ag239
ag1227
ag1230
ag239
ag1227
ag1230
ag239
ag1227
asg557
g3475
sg125
(dp5694
sg592
g3487
sg1173
Nsg1179
g3487
sg1176
(dp5695
sg1178
I8
sg1222
I01
sg1180
Nsg1181
(dp5696
(g414
g1192
tp5697
I00
s(g414
g1197
tp5698
I00
s(g369
g477
tp5699
I00
s(g369
g369
tp5700
I00
s(g306
g477
tp5701
I00
s(g306
g369
tp5702
I00
s(g1192
g306
tp5703
I00
s(g414
g238
tp5704
I00
s(g1194
g369
tp5705
I00
s(g1197
g1197
tp5706
I00
s(g306
g1227
tp5707
I00
s(g1230
g1227
tp5708
I00
s(g1197
g1192
tp5709
I00
s(g1227
g1192
tp5710
I00
s(g238
g239
tp5711
I00
s(g1230
g306
tp5712
I00
s(g306
g1192
tp5713
I00
s(g369
g1230
tp5714
I00
s(g414
g414
tp5715
I00
s(g1227
g414
tp5716
I00
s(g477
g306
tp5717
I01
s(g306
g239
tp5718
I00
s(g1194
g477
tp5719
I00
s(g1197
g1194
tp5720
I00
s(g238
g238
tp5721
I00
s(g306
g1230
tp5722
I00
s(g1227
g306
tp5723
I00
s(g1227
g477
tp5724
I00
s(g1227
g369
tp5725
I00
s(g477
g239
tp5726
I00
s(g1192
g1197
tp5727
I00
s(g1194
g1197
tp5728
I00
s(g477
g1194
tp5729
I00
s(g1227
g1197
tp5730
I00
s(g1230
g239
tp5731
I00
s(g238
g306
tp5732
I00
s(g1197
g477
tp5733
I00
s(g1230
g477
tp5734
I00
s(g477
g1230
tp5735
I00
s(g369
g414
tp5736
I00
s(g1192
g238
tp5737
I00
s(g369
g306
tp5738
I00
s(g1192
g239
tp5739
I00
s(g1230
g1230
tp5740
I00
s(g477
g1197
tp5741
I01
s(g238
g414
tp5742
I00
s(g239
g238
tp5743
I00
s(g1194
g1227
tp5744
I00
s(g239
g1194
tp5745
I00
s(g1192
g369
tp5746
I00
s(g369
g238
tp5747
I00
s(g477
g1227
tp5748
I00
s(g369
g1194
tp5749
I00
s(g477
g477
tp5750
I00
s(g1194
g306
tp5751
I00
s(g1227
g239
tp5752
I00
s(g239
g414
tp5753
I00
s(g1197
g239
tp5754
I00
s(g1230
g1194
tp5755
I00
s(g239
g1192
tp5756
I00
s(g369
g1192
tp5757
I00
s(g1194
g1230
tp5758
I00
s(g1192
g1227
tp5759
I00
s(g1194
g414
tp5760
I00
s(g1197
g306
tp5761
I00
s(g1197
g1227
tp5762
I00
s(g239
g369
tp5763
I00
s(g1230
g1192
tp5764
I00
s(g1230
g1197
tp5765
I00
s(g1194
g239
tp5766
I00
s(g414
g1194
tp5767
I00
s(g238
g1194
tp5768
I00
s(g239
g477
tp5769
I00
s(g1227
g1227
tp5770
I00
s(g414
g369
tp5771
I00
s(g238
g477
tp5772
I00
s(g1227
g238
tp5773
I00
s(g306
g1197
tp5774
I00
s(g1227
g1194
tp5775
I00
s(g238
g1230
tp5776
I00
s(g414
g306
tp5777
I00
s(g369
g239
tp5778
I00
s(g238
g1197
tp5779
I00
s(g1197
g238
tp5780
I00
s(g306
g238
tp5781
I00
s(g1230
g414
tp5782
I00
s(g306
g1194
tp5783
I00
s(g477
g414
tp5784
I00
s(g414
g1227
tp5785
I00
s(g1194
g1194
tp5786
I00
s(g1192
g414
tp5787
I00
s(g238
g1192
tp5788
I00
s(g306
g414
tp5789
I00
s(g306
g306
tp5790
I00
s(g1192
g1194
tp5791
I00
s(g414
g239
tp5792
I00
s(g477
g238
tp5793
I00
s(g369
g1227
tp5794
I00
s(g239
g306
tp5795
I00
s(g1194
g238
tp5796
I00
s(g1197
g369
tp5797
I00
s(g239
g1227
tp5798
I00
s(g414
g477
tp5799
I00
s(g1230
g369
tp5800
I00
s(g414
g1230
tp5801
I00
s(g477
g369
tp5802
I00
s(g239
g239
tp5803
I00
s(g1194
g1192
tp5804
I00
s(g1197
g1230
tp5805
I00
s(g1192
g1230
tp5806
I00
s(g239
g1230
tp5807
I00
s(g239
g1197
tp5808
I00
s(g477
g1192
tp5809
I00
s(g1192
g477
tp5810
I00
s(g369
g1197
tp5811
I00
s(g1227
g1230
tp5812
I00
s(g238
g369
tp5813
I00
s(g1197
g414
tp5814
I00
s(g1192
g1192
tp5815
I00
s(g238
g1227
tp5816
I00
s(g1230
g238
tp5817
I00
ssg1221
Nsbsg3210
g21
(g22
(I0
tp5818
g24
tp5819
Rp5820
(I1
(I1
I3
tp5821
g248
I00
S'(\xad\xff\xf5i!\xd2?0\xa0OD\x8a\xc9\x1d\xc0\xcc#:\xca{\xe4\x10@'
p5822
tp5823
bsg3217
(itrajectory_representation.predicates.is_holding_goal_entity
IsHoldingGoalEntity
p5824
(dp5825
g2807
g2808
sg1180
Nsbsg3220
(dp5826
sg3222
g3475
sbasS'seed'
p5827
NsS'state_prime'
p5828
(lp5829
g3223
asS'problem_idx'
p5830
I201
sb.