(itrajectory_representation.trajectory
Trajectory
p0
(dp1
S'rewards'
p2
(lp3
I10
asS'actions'
p4
(lp5
(itrajectory_representation.operator
Operator
p6
(dp7
S'is_skeleton'
p8
I00
sS'discrete_parameters'
p9
(dp10
S'object'
p11
Vsquare_packing_box1
p12
sS'two_arm_place_region'
p13
S'home_region'
p14
sS'two_arm_place_object'
p15
Vsquare_packing_box1
p16
ssS'type'
p17
S'two_arm_pick_two_arm_place'
p18
sS'continuous_parameters'
p19
(dp20
S'q_goal'
p21
cnumpy.core.multiarray
_reconstruct
p22
(cnumpy
ndarray
p23
(I0
tp24
S'b'
p25
tp26
Rp27
(I1
(I3
tp28
cnumpy
dtype
p29
(S'f8'
p30
I0
I1
tp31
Rp32
(I3
S'<'
p33
NNNI-1
I-1
I0
tp34
bI00
S'Q\xce\xa6\x0e\xd0E\xd8?\xb4\xcf\xd3\xda\xe7e\x1a\xc0\x96\xcev\x1bhw\xf8?'
p35
tp36
bsS'place'
p37
(dp38
g21
g22
(g23
(I0
tp39
g25
tp40
Rp41
(I1
(I3
tp42
g32
I00
S'\x8cD\x9a9\xee\x8b\xf4?\x14\xe9\x05-\x8am\x01\xc02\xd5\xa2\x9b\x033\xee?'
p43
tp44
bssS'pick'
p45
(dp46
g21
g27
sssS'low_level_motion'
p47
(lp48
g22
(g23
(I0
tp49
g25
tp50
Rp51
(I1
(I3
tp52
g32
I00
S'\x8c\xc6\x9e\xf1\x97\x85\xc4\xbf]|j`"+\x19\xc0\x83\x01\xfa\xbf9\xc5\x04@'
p53
tp54
bag22
(g23
(I0
tp55
g25
tp56
Rp57
(I1
(I3
tp58
g29
(S'f8'
p59
I0
I1
tp60
Rp61
(I3
S'<'
p62
NNNI-1
I-1
I0
tp63
bI00
S'\xa1\xa7\xe1\x952\xb8\xd3?\xa5q<Z@\x9e\x1b\xc0\xbc\xd6\x90\xe8\x98\xf3\x08@'
p64
tp65
bag22
(g23
(I0
tp66
g25
tp67
Rp68
(I1
(I3
tp69
g61
I00
S'X\x9b\x8c[e\xe8\xdb?\xdc\xc11jk\x8b\x1b\xc0\xfe\x18\xeb6\xf7\x88\xc3?'
p70
tp71
bag27
ag27
asbasS'filename'
p72
S''
p73
sS'states'
p74
(lp75
(itrajectory_representation.shortest_path_pick_and_place_state
ShortestPathPaPState
p76
(dp77
S'place_used'
p78
(dp79
(g16
g14
tp80
(itrajectory_representation.operator
Operator
p81
(dp82
g8
I01
sg9
(dp83
S'region'
p84
g14
sg11
g16
ssg17
S'two_arm_place'
p85
sg19
(dp86
g21
g22
(g23
(I0
tp87
g25
tp88
Rp89
(I1
(I3
tp90
g32
I00
S'\x8cD\x9a9\xee\x8b\xf4?\x14\xe9\x05-\x8am\x01\xc02\xd5\xa2\x9b\x033\xee?'
p91
tp92
bssg47
(lp93
g22
(g23
(I0
tp94
g25
tp95
Rp96
(I1
(I3
tp97
g32
I00
S'\x84\xce\xa6\x0e\xd0E\xd8?\xae\xcf\xd3\xda\xe7e\x1a\xc0\x97\xcev\x1bhw\xf8?'
p98
tp99
bag22
(g23
(I0
tp100
g25
tp101
Rp102
(I1
(I3
tp103
g61
I00
S'Dz\xddx\xe9\xf0\xb4?\x9c\xf2\xf6\xf0\xef \x18\xc0\x03\xe5\x88\xf0JN\xf3?'
p104
tp105
bag22
(g23
(I0
tp106
g25
tp107
Rp108
(I1
(I3
tp109
g61
I00
S'\xe4\x02R\xd9\x08\x8c\xc7?2\xc1\xd4;\xf6\xf3\x15\xc0>\x8c\x8fa?0\xd8?'
p110
tp111
bag22
(g23
(I0
tp112
g25
tp113
Rp114
(I1
(I3
tp115
g61
I00
S'\xcc\x87!\x1f\xfb\x05\xe6?\x14;\x08\xf1<\xc6\x13\xc0V!\xac1j\x94\xc8?'
p116
tp117
bag22
(g23
(I0
tp118
g25
tp119
Rp120
(I1
(I3
tp121
g61
I00
S'`\xc8Aw-\x81\xeb?/\xc3\xe6O\x04\xca\x10\xc0\x8a\xb7K)\x91{\xe4\xbf'
p122
tp123
bag22
(g23
(I0
tp124
g25
tp125
Rp126
(I1
(I3
tp127
g61
I00
S'\xe1\xc6\xc7\xa7\x12X\xe7?\x98\x99\xb0\x9a\xfb\xdb\x0b\xc0R\t\x1b)\xeae\xe0\xbf'
p128
tp129
bag22
(g23
(I0
tp130
g25
tp131
Rp132
(I1
(I3
tp133
g61
I00
S'X91+\xcd0\xe7?\x10t\x86\x8cV\xe3\x05\xc0\xfe\xb2\xd83\xdc\xcb\xee?'
p134
tp135
bag89
ag89
asbssS'place_in_way'
p136
(itrajectory_representation.predicates.place_in_way
PlaceInWay
p137
(dp138
S'mc_path_to_entity'
p139
(dp140
(Vrectangular_packing_box3
p141
S'home_region'
p142
tp143
(lp144
g22
(g23
(I0
tp145
g25
tp146
Rp147
(I1
(I3
tp148
g29
(S'f8'
p149
I0
I1
tp150
Rp151
(I3
S'<'
p152
NNNI-1
I-1
I0
tp153
bI00
S'<r\xb5\xe45\xdd\xea?\xcez$k\xcbH\x1d\xc0\x17K\xa8E:E\t@'
p154
tp155
bag22
(g23
(I0
tp156
g25
tp157
Rp158
(I1
(I3
tp159
g29
(S'f8'
p160
I0
I1
tp161
Rp162
(I3
S'<'
p163
NNNI-1
I-1
I0
tp164
bI00
S'\xda:H\x99\\\xf4\xd7?\x9d\xfe\xfa\xb2d\xee\x1a\xc0\xb9=\xe66\x01\xe0\x07\xc0'
p165
tp166
bag22
(g23
(I0
tp167
g25
tp168
Rp169
(I1
(I3
tp170
g162
I00
S'\xf8C*\xbe\x14\xcf\xe8?\x81d\xab\xeb\xa8<\x18\xc0\xc8\\\xf4\x8c\xc3\xfa\xfe\xbf'
p171
tp172
bag22
(g23
(I0
tp173
g25
tp174
Rp175
(I1
(I3
tp176
g162
I00
S'tx\x8as\xa8b\xed?\x9ej\x15\xfa\xf0{\x15\xc0@\xed\x9a-\x9eD\xf2\xbf'
p177
tp178
bag22
(g23
(I0
tp179
g25
tp180
Rp181
(I1
(I3
tp182
g162
I00
S'\xb0E\xbb;Cb\xeb?\x9e\xde\xa7\xdd\xbdd\x12\xc0\xc6\xee\xbd\x16\x8c\xaa\xf3\xbf'
p183
tp184
bag22
(g23
(I0
tp185
g25
tp186
Rp187
(I1
(I3
tp188
g162
I00
S'`\xc8Aw-\x81\xeb?/\xc3\xe6O\x04\xca\x10\xc0\x8a\xb7K)\x91{\xe4\xbf'
p189
tp190
bag22
(g23
(I0
tp191
g25
tp192
Rp193
(I1
(I3
tp194
g162
I00
S'\xe1\xc6\xc7\xa7\x12X\xe7?\x98\x99\xb0\x9a\xfb\xdb\x0b\xc0R\t\x1b)\xeae\xe0\xbf'
p195
tp196
bag22
(g23
(I0
tp197
g25
tp198
Rp199
(I1
(I3
tp200
g162
I00
S'p\xf1\xbdc^\x84\xf1?"\x88LL\xf9D\x06\xc0~w\r\xe9m\x0f\x19@'
p201
tp202
bas(Vsquare_packing_box4
p203
g142
tp204
(lp205
g22
(g23
(I0
tp206
g25
tp207
Rp208
(I1
(I3
tp209
g151
I00
S'@]c\xbd.\xba\xf0?\xdeD?}\xa0=\x1a\xc0p\xc1dv\x1a\x86\x13@'
p210
tp211
bag22
(g23
(I0
tp212
g25
tp213
Rp214
(I1
(I3
tp215
g162
I00
S"\x1aq\xa1\x96-\xd2\xec?\xa2\x8f\xd2'\xa1I\x18\xc0\x06\xea(\x89^*\xf2\xbf"
p216
tp217
bag22
(g23
(I0
tp218
g25
tp219
Rp220
(I1
(I3
tp221
g162
I00
S'tx\x8as\xa8b\xed?\x9ej\x15\xfa\xf0{\x15\xc0@\xed\x9a-\x9eD\xf2\xbf'
p222
tp223
bag22
(g23
(I0
tp224
g25
tp225
Rp226
(I1
(I3
tp227
g162
I00
S'\xb0E\xbb;Cb\xeb?\x9e\xde\xa7\xdd\xbdd\x12\xc0\xc6\xee\xbd\x16\x8c\xaa\xf3\xbf'
p228
tp229
bag22
(g23
(I0
tp230
g25
tp231
Rp232
(I1
(I3
tp233
g162
I00
S'`\xc8Aw-\x81\xeb?/\xc3\xe6O\x04\xca\x10\xc0\x8a\xb7K)\x91{\xe4\xbf'
p234
tp235
bag22
(g23
(I0
tp236
g25
tp237
Rp238
(I1
(I3
tp239
g162
I00
S'\xe1\xc6\xc7\xa7\x12X\xe7?\x98\x99\xb0\x9a\xfb\xdb\x0b\xc0R\t\x1b)\xeae\xe0\xbf'
p240
tp241
bag22
(g23
(I0
tp242
g25
tp243
Rp244
(I1
(I3
tp245
g162
I00
S'p\xf1\xbdc^\x84\xf1?"\x88LL\xf9D\x06\xc0~w\r\xe9m\x0f\x19@'
p246
tp247
bas(Vsquare_packing_box1
p248
g142
tp249
(lp250
g22
(g23
(I0
tp251
g25
tp252
Rp253
(I1
(I3
tp254
g151
I00
S'\x80\xce\xa6\x0e\xd0E\xd8?\xb4\xcf\xd3\xda\xe7e\x1a\xc0\x97\xcev\x1bhw\xf8?'
p255
tp256
bag22
(g23
(I0
tp257
g25
tp258
Rp259
(I1
(I3
tp260
g162
I00
S'B\x9aa8\x98\xa6\xe8?\xf3\xe9\x94/\xc2\xe4\x18\xc0u\xf8\xb0\x7fO\xb8\xf2?'
p261
tp262
bag22
(g23
(I0
tp263
g25
tp264
Rp265
(I1
(I3
tp266
g162
I00
S'\xd8\x87\x03p)T\xe4?\xd5\xabI\xb7V\xd0\x15\xc0vWg\x9a\x87\x8a\xec?'
p267
tp268
bag22
(g23
(I0
tp269
g25
tp270
Rp271
(I1
(I3
tp272
g162
I00
S'\xa9\xd9\x1d\x8d\xa6j\xdf?\xa0\x85\x1a\x84\xc6\xec\x12\xc0\x01\xb6 H\xb1\x91\xeb?'
p273
tp274
bag22
(g23
(I0
tp275
g25
tp276
Rp277
(I1
(I3
tp278
g162
I00
S'\x93k\xbc\xee\xc2\x10\xe8?\xab^\x86?\x08D\x10\xc0\x10;2\x00\xe5\t\xde?'
p279
tp280
bag22
(g23
(I0
tp281
g25
tp282
Rp283
(I1
(I3
tp284
g162
I00
S'\xef\xc3u*\xfb\xdb\xeb?\x8d\xa5\n\xfd\x03<\n\xc0\xd8\xfb\xde\x16R\xac\xde?'
p285
tp286
bag22
(g23
(I0
tp287
g25
tp288
Rp289
(I1
(I3
tp290
g162
I00
S'\xf4\xfdJ\x1a(#\xec?H"\x9cD\x1aE\x05\xc0.\xa9\x0b\x87\xf8\xe1\x02@'
p291
tp292
bas(Vsquare_packing_box2
p293
g142
tp294
(lp295
g22
(g23
(I0
tp296
g25
tp297
Rp298
(I1
(I3
tp299
g151
I00
S'0\x89\x97\xc0\xcen\xf9?\xac*p\xcf52\x1a\xc0\xc0\xf7E\xfan^\x04@'
p300
tp301
bag22
(g23
(I0
tp302
g25
tp303
Rp304
(I1
(I3
tp305
g162
I00
S'\xae\xea\x9e\xa3\xa2\xb1\xed?\xa4\xca\x1d?h\x96\x19\xc0dq\xdf\xb1\x9d\xe4\x05@'
p306
tp307
bag22
(g23
(I0
tp308
g25
tp309
Rp310
(I1
(I3
tp311
g162
I00
S'o\xd6\x82\xea\x7f\xb2\xed?9\xf2C\x0b?\xfd\x16\xc0(?d\xe9@\xb5\x02@'
p312
tp313
bag22
(g23
(I0
tp314
g25
tp315
Rp316
(I1
(I3
tp317
g162
I00
S'&>c9\x01,\xeb?\xb2\xc2\xf0\x02\xce\x8e\x14\xc0\xd8p\xbb2\x14\xd2\x03@'
p318
tp319
bag22
(g23
(I0
tp320
g25
tp321
Rp322
(I1
(I3
tp323
g162
I00
S'\xc6\x05\xbdtg\xd9\xe2?F\xdf\x9d@\\\xf3\x11\xc0\x1a\xc4.\xbb\xcc\x12\x02@'
p324
tp325
bag22
(g23
(I0
tp326
g25
tp327
Rp328
(I1
(I3
tp329
g162
I00
S'3z\xed\x8eN)\xe4?\x0c\x96\xd4\xa2\x0e\xd0\r\xc0\xbd%\xf5{\xe9\xf9\x03@'
p330
tp331
bag22
(g23
(I0
tp332
g25
tp333
Rp334
(I1
(I3
tp335
g162
I00
S'\xaf0\xe9h\xba~\xee?k\xbb\xd8\xd4\xd0g\t\xc09\x9ey\xed\xb06\x06@'
p336
tp337
bag22
(g23
(I0
tp338
g25
tp339
Rp340
(I1
(I3
tp341
g162
I00
S'\xf4\xfdJ\x1a(#\xec?H"\x9cD\x1aE\x05\xc0.\xa9\x0b\x87\xf8\xe1\x02@'
p342
tp343
bas(Vrectangular_packing_box1
p344
g142
tp345
(lp346
g22
(g23
(I0
tp347
g25
tp348
Rp349
(I1
(I3
tp350
g151
I00
S'\xe2\xb7\x93\xcc\xe0\x0c\x03@*\x1e)H\xec\\\x19\xc0\xf8\x035\xae-6\x17@'
p351
tp352
bag22
(g23
(I0
tp353
g25
tp354
Rp355
(I1
(I3
tp356
g162
I00
S'!\x83\xc0\xf3W\x85\xff?\xed\x8f\x90/y\xfd\x16\xc06jP\xfe\x98\xf5\xf4\xbf'
p357
tp358
bag22
(g23
(I0
tp359
g25
tp360
Rp361
(I1
(I3
tp362
g162
I00
S'2Z\xe1\xe97J\xf6?\\\x1e`@2v\x16\xc0\xc4\x0c\xcc\x14<\xf9\xf6\xbf'
p363
tp364
bag22
(g23
(I0
tp365
g25
tp366
Rp367
(I1
(I3
tp368
g162
I00
S'tx\x8as\xa8b\xed?\x9ej\x15\xfa\xf0{\x15\xc0@\xed\x9a-\x9eD\xf2\xbf'
p369
tp370
bag22
(g23
(I0
tp371
g25
tp372
Rp373
(I1
(I3
tp374
g162
I00
S"\xb2&6mg)\xe8?\x99\xe0G'\x16\xe0\x13\xc0\xc8oL\xf5\x17p\xe6\xbf"
p375
tp376
bag22
(g23
(I0
tp377
g25
tp378
Rp379
(I1
(I3
tp380
g162
I00
S'`\xc8Aw-\x81\xeb?/\xc3\xe6O\x04\xca\x10\xc0\x8a\xb7K)\x91{\xe4\xbf'
p381
tp382
bag22
(g23
(I0
tp383
g25
tp384
Rp385
(I1
(I3
tp386
g162
I00
S'\xe1\xc6\xc7\xa7\x12X\xe7?\x98\x99\xb0\x9a\xfb\xdb\x0b\xc0R\t\x1b)\xeae\xe0\xbf'
p387
tp388
bag22
(g23
(I0
tp389
g25
tp390
Rp391
(I1
(I3
tp392
g162
I00
S'p\xf1\xbdc^\x84\xf1?"\x88LL\xf9D\x06\xc0~w\r\xe9m\x0f\x19@'
p393
tp394
bas(Vsquare_packing_box3
p395
g142
tp396
(lp397
g22
(g23
(I0
tp398
g25
tp399
Rp400
(I1
(I3
tp401
g151
I00
S'|\xdbns\xd9\x0b\xf8? \xf4E\xa0\xf5\x8e\x17\xc0\xbe\xed\x81\xe68\x1f\x18@'
p402
tp403
bag22
(g23
(I0
tp404
g25
tp405
Rp406
(I1
(I3
tp407
g162
I00
S'tx\x8as\xa8b\xed?\x9ej\x15\xfa\xf0{\x15\xc0@\xed\x9a-\x9eD\xf2\xbf'
p408
tp409
bag22
(g23
(I0
tp410
g25
tp411
Rp412
(I1
(I3
tp413
g162
I00
S"\xb2&6mg)\xe8?\x99\xe0G'\x16\xe0\x13\xc0\xc8oL\xf5\x17p\xe6\xbf"
p414
tp415
bag22
(g23
(I0
tp416
g25
tp417
Rp418
(I1
(I3
tp419
g162
I00
S'`\xc8Aw-\x81\xeb?/\xc3\xe6O\x04\xca\x10\xc0\x8a\xb7K)\x91{\xe4\xbf'
p420
tp421
bag22
(g23
(I0
tp422
g25
tp423
Rp424
(I1
(I3
tp425
g162
I00
S'\xe1\xc6\xc7\xa7\x12X\xe7?\x98\x99\xb0\x9a\xfb\xdb\x0b\xc0R\t\x1b)\xeae\xe0\xbf'
p426
tp427
bag22
(g23
(I0
tp428
g25
tp429
Rp430
(I1
(I3
tp431
g162
I00
S'p\xf1\xbdc^\x84\xf1?"\x88LL\xf9D\x06\xc0~w\r\xe9m\x0f\x19@'
p432
tp433
bas(Vrectangular_packing_box2
p434
g142
tp435
(lp436
g22
(g23
(I0
tp437
g25
tp438
Rp439
(I1
(I3
tp440
g151
I00
S'\x06\xf55U\xe8b\x07@\xe4{\xfa\xb7\x08\x86\x1d\xc0\xf9\xc3\x11\xd1\x872\x03@'
p441
tp442
bag22
(g23
(I0
tp443
g25
tp444
Rp445
(I1
(I3
tp446
g162
I00
S'>\xc0\x12$\xd1\xa3\x02@L\xfb\xe9\xe8\x00\xfd\x1c\xc0\x1dL8%\x1b\x13\x04@'
p447
tp448
bag22
(g23
(I0
tp449
g25
tp450
Rp451
(I1
(I3
tp452
g162
I00
S'zNu~${\xfb?c\xfe\x8c\xbf\x1f\xab\x1b\xc0\x9b\xbb\x05m\x02\x02\x07@'
p453
tp454
bag22
(g23
(I0
tp455
g25
tp456
Rp457
(I1
(I3
tp458
g162
I00
S'{\xe7\xcc\xce\x02,\xf5?\xeb\x85\xf2\xb4\xc9\x08\x19\xc0\xcd\x97\xf6\xcc\xe4z\x00@'
p459
tp460
bag22
(g23
(I0
tp461
g25
tp462
Rp463
(I1
(I3
tp464
g162
I00
S'o\xd6\x82\xea\x7f\xb2\xed?9\xf2C\x0b?\xfd\x16\xc0(?d\xe9@\xb5\x02@'
p465
tp466
bag22
(g23
(I0
tp467
g25
tp468
Rp469
(I1
(I3
tp470
g162
I00
S'&>c9\x01,\xeb?\xb2\xc2\xf0\x02\xce\x8e\x14\xc0\xd8p\xbb2\x14\xd2\x03@'
p471
tp472
bag22
(g23
(I0
tp473
g25
tp474
Rp475
(I1
(I3
tp476
g162
I00
S'\xc6\x05\xbdtg\xd9\xe2?F\xdf\x9d@\\\xf3\x11\xc0\x1a\xc4.\xbb\xcc\x12\x02@'
p477
tp478
bag22
(g23
(I0
tp479
g25
tp480
Rp481
(I1
(I3
tp482
g162
I00
S'3z\xed\x8eN)\xe4?\x0c\x96\xd4\xa2\x0e\xd0\r\xc0\xbd%\xf5{\xe9\xf9\x03@'
p483
tp484
bag22
(g23
(I0
tp485
g25
tp486
Rp487
(I1
(I3
tp488
g162
I00
S'\xaf0\xe9h\xba~\xee?k\xbb\xd8\xd4\xd0g\t\xc09\x9ey\xed\xb06\x06@'
p489
tp490
bag22
(g23
(I0
tp491
g25
tp492
Rp493
(I1
(I3
tp494
g162
I00
S'\xf4\xfdJ\x1a(#\xec?H"\x9cD\x1aE\x05\xc0.\xa9\x0b\x87\xf8\xe1\x02@'
p495
tp496
bassS'mc_to_entity'
p497
(dp498
(g141
g142
tp499
(lp500
Vsquare_packing_box4
p501
aVsquare_packing_box1
p502
aVsquare_packing_box2
p503
as(g203
g142
tp504
(lp505
Vsquare_packing_box2
p506
aVsquare_packing_box1
p507
as(g248
g142
tp508
(lp509
Vsquare_packing_box2
p510
as(g293
g142
tp511
(lp512
Vsquare_packing_box1
p513
as(g344
g142
tp514
(lp515
Vrectangular_packing_box2
p516
aVsquare_packing_box3
p517
aVsquare_packing_box2
p518
as(g395
g142
tp519
(lp520
Vsquare_packing_box2
p521
as(g434
g142
tp522
(lp523
Vrectangular_packing_box1
p524
aVsquare_packing_box4
p525
aVsquare_packing_box2
p526
aVsquare_packing_box1
p527
assS'reachable_entities'
p528
(lp529
Vrectangular_packing_box3
p530
ag12
aVsquare_packing_box4
p531
asS'collides'
p532
(dp533
Vrectangular_packing_box4
p534
c__builtin__
set
p535
((lp536
I0
aI1
aI546
aI454
aI40
aI555
aI403
aI369
aI370
aI371
aI342
aI378
aI571
aI541
atp537
Rp538
sVrectangular_packing_box2
p539
g535
((lp540
I256
aI577
aI268
aI194
aI145
aI538
aI413
aI219
aI36
aI37
aI422
aI220
aI561
aI178
aI179
aI54
aI443
aI444
aI63
aI64
aI65
aI66
aI67
aI69
aI205
aI79
aI80
aI210
aI215
aI89
aI90
aI91
aI92
aI358
aI114
aI511
aI376
aI123
aI255
atp541
Rp542
sVrectangular_packing_box3
p543
g535
((lp544
I384
aI257
aI264
aI265
aI394
aI532
aI580
aI158
aI159
aI164
aI433
aI564
aI575
aI452
aI583
aI328
aI458
aI589
aI478
aI356
aI229
aI366
aI502
aI122
atp545
Rp546
sVrectangular_packing_box1
p547
g535
((lp548
I577
aI307
aI268
aI435
aI405
aI280
aI91
aI548
aI302
aI303
aI561
aI179
aI436
aI565
aI54
aI442
aI63
aI64
aI65
aI194
aI438
aI457
aI79
aI210
aI211
aI340
aI343
aI89
aI90
aI219
aI220
aI479
aI354
aI614
aI113
aI114
aI500
aI247
aI376
aI511
aI381
aI254
aI255
atp549
Rp550
sVsquare_packing_box2
p551
g535
((lp552
I4
aI5
aI137
aI276
aI132
aI517
aI34
aI35
aI44
aI301
aI584
aI310
aI55
aI56
aI570
aI187
aI449
aI70
aI327
aI456
aI201
aI202
aI203
aI162
aI84
aI597
aI93
aI94
aI607
aI233
aI106
aI107
aI108
aI251
aI252
atp553
Rp554
sVsquare_packing_box3
p555
g535
((lp556
I3
aI4
aI393
aI395
aI404
aI160
aI161
aI37
aI38
aI561
aI178
aI309
aI54
aI187
aI188
aI63
aI449
aI69
aI70
aI327
aI201
aI202
aI205
aI595
aI89
aI219
aI92
aI611
aI106
aI497
aI115
aI372
aI376
aI379
aI380
atp557
Rp558
sVsquare_packing_box1
p559
g535
((lp560
I491
aI132
aI517
aI6
aI7
aI8
aI138
aI139
aI275
aI276
aI152
aI417
aI34
aI547
aI166
aI424
aI584
aI94
aI196
aI198
aI456
aI459
aI84
aI349
aI350
aI351
aI233
aI234
aI107
aI108
aI503
aI252
aI362
aI383
atp561
Rp562
sVsquare_packing_box4
p563
g535
((lp564
I256
aI262
aI135
aI136
aI145
aI146
aI413
aI543
aI422
aI296
aI263
aI176
aI177
aI444
aI448
aI69
aI205
aI80
aI81
aI82
aI346
aI464
aI355
aI230
aI593
aI240
aI374
aI505
aI124
atp565
Rp566
ssg78
g79
sS'pick_used'
p567
(dp568
Vrectangular_packing_box4
p569
(itrajectory_representation.operator
Operator
p570
(dp571
g8
I01
sg9
(dp572
S'object'
p573
Vrectangular_packing_box4
p574
ssg17
S'two_arm_pick'
p575
sg19
(dp576
S'q_goal'
p577
(lp578
g22
(g23
(I0
tp579
g25
tp580
Rp581
(I1
(I3
tp582
g151
I00
S'\x07p\xe4\xeb\xc1Y\n@\xe3\x96\xdb^/\x0b\x12\xc0\x9d\xe3"\xb9@\x0c\xf6\xbf'
p583
tp584
bag22
(g23
(I0
tp585
g25
tp586
Rp587
(I1
(I3
tp588
g151
I00
S'.\xc9\x9a\x05\xa3v\x0c@~-\xe3\xab\xcd\xb7\x18\xc0t\xfa\xf7\x9e\x19\x0e\x01@'
p589
tp590
bag22
(g23
(I0
tp591
g25
tp592
Rp593
(I1
(I3
tp594
g151
I00
S'/\x103\xbd*\xa0\x0c@OR\xa8\xb0\xcfN\x18\xc0\xfb\x03\xc42s\x85\x01@'
p595
tp596
bag22
(g23
(I0
tp597
g25
tp598
Rp599
(I1
(I3
tp600
g151
I00
S'\xc2\x9f?\xae&\xe7\x0c@\xae\xcb\x00\xe3\xec\xde\x18\xc0\x85\xaa\xfc\xaf\xee-\x00@'
p601
tp602
bag22
(g23
(I0
tp603
g25
tp604
Rp605
(I1
(I3
tp606
g151
I00
S'\xa2s\xe4\xc8\xbe\x86\x0c@\x84\x0c\x8c\x92&\xf9\x17\xc0x\xfb\xc6a\x13>\xfd?'
p607
tp608
basS'is_feasible'
p609
I00
ssg47
(lp610
g22
(g23
(I0
tp611
g25
tp612
Rp613
(I1
(I3
tp614
g151
I00
S'p\xc4\x9e\xf1\x97\x85\xc4\xbfJ|j`"+\x19\xc0\x83\x01\xfa\xbf9\xc5\x04@'
p615
tp616
bag22
(g23
(I0
tp617
g25
tp618
Rp619
(I1
(I3
tp620
g162
I00
S'ib\xa2\x0c9\xe9\xd7?\xca\xcd\xb4=\xe6_\x18\xc0tY\xa4\x97\x8d\xd7\x02@'
p621
tp622
bag22
(g23
(I0
tp623
g25
tp624
Rp625
(I1
(I3
tp626
g162
I00
S'o\xd6\x82\xea\x7f\xb2\xed?9\xf2C\x0b?\xfd\x16\xc0(?d\xe9@\xb5\x02@'
p627
tp628
bag22
(g23
(I0
tp629
g25
tp630
Rp631
(I1
(I3
tp632
g162
I00
S'\xc2:\x1b=\xad,\xfa?(\x190\xa5<\xab\x16\xc0\x9d\x91\xdc8Kq\x01@'
p633
tp634
bag22
(g23
(I0
tp635
g25
tp636
Rp637
(I1
(I3
tp638
g162
I00
S'v\x9f}*\xb2\x19\x02@\x02_\xf4PZ7\x16\xc0\xa8G\xd0\x03\xa3 \x01@'
p639
tp640
bag22
(g23
(I0
tp641
g25
tp642
Rp643
(I1
(I3
tp644
g162
I00
S'\xc6\xb8\x9e\x94~\xa9\x07@\xc9\xac\x8f\x82\xcd|\x16\xc0\xdeSL\xfe>h\x01@'
p645
tp646
bag605
asbsVrectangular_packing_box2
p647
(itrajectory_representation.operator
Operator
p648
(dp649
g8
I01
sg9
(dp650
g573
Vrectangular_packing_box2
p651
ssg17
g575
sg19
(dp652
g577
(lp653
g22
(g23
(I0
tp654
g25
tp655
Rp656
(I1
(I3
tp657
g151
I00
S'\x01\xf55U\xe8b\x07@\xe5{\xfa\xb7\x08\x86\x1d\xc0\xf9\xc3\x11\xd1\x872\x03@'
p658
tp659
bag22
(g23
(I0
tp660
g25
tp661
Rp662
(I1
(I3
tp663
g151
I00
S'\xbbw\\I\x91<\x06@\xec\x137\xf9v\x98\x18\xc0\x9b\xff]`\xc1\x08\xfb\xbf'
p664
tp665
bag22
(g23
(I0
tp666
g25
tp667
Rp668
(I1
(I3
tp669
g151
I00
S'@}G\x7f\xffI\xfc?\xb3gtB\x8a\xb5\x1d\xc0\xb2\x8d\xdd\\\xa5\xa1\xd2?'
p670
tp671
basg609
I00
ssg47
(lp672
g22
(g23
(I0
tp673
g25
tp674
Rp675
(I1
(I3
tp676
g151
I00
S'p\xc4\x9e\xf1\x97\x85\xc4\xbfJ|j`"+\x19\xc0\x83\x01\xfa\xbf9\xc5\x04@'
p677
tp678
bag22
(g23
(I0
tp679
g25
tp680
Rp681
(I1
(I3
tp682
g162
I00
S'\xda:H\x99\\\xf4\xd7?\x9d\xfe\xfa\xb2d\xee\x1a\xc0\xb9=\xe66\x01\xe0\x07\xc0'
p683
tp684
bag22
(g23
(I0
tp685
g25
tp686
Rp687
(I1
(I3
tp688
g162
I00
S"4]r\xd3'>\xf0?\xfe\x80\xde\xa9\xc5\xab\x1c\xc0\xda:\xc6?\xd9\x17\xd0?"
p689
tp690
bag668
asbsg530
(itrajectory_representation.operator
Operator
p691
(dp692
g8
I01
sg9
(dp693
g573
Vrectangular_packing_box3
p694
ssg17
g575
sg19
(dp695
g577
(lp696
g22
(g23
(I0
tp697
g25
tp698
Rp699
(I1
(I3
tp700
g151
I00
S'3r\xb5\xe45\xdd\xea?\xd1z$k\xcbH\x1d\xc0\x19\x0f\xe0b\xbc\xfe\x08\xc0'
p701
tp702
bag22
(g23
(I0
tp703
g25
tp704
Rp705
(I1
(I3
tp706
g151
I00
S'9\xea\xf5\xe8\xe0j\xec?umSe\xeb\x94\x1d\xc0\xca\xd5V\xef\xe4\xd4\x01\xc0'
p707
tp708
bag22
(g23
(I0
tp709
g25
tp710
Rp711
(I1
(I3
tp712
g151
I00
S"\x93\x01Wi3\xa2\xe8?U[i\x1b\xbc#\x1d\xc0F\x91\x07\xd7'*\x04\xc0"
p713
tp714
basg609
I00
ssg47
(lp715
g22
(g23
(I0
tp716
g25
tp717
Rp718
(I1
(I3
tp719
g151
I00
S'p\xc4\x9e\xf1\x97\x85\xc4\xbfJ|j`"+\x19\xc0\x83\x01\xfa\xbf9\xc5\x04@'
p720
tp721
bag22
(g23
(I0
tp722
g25
tp723
Rp724
(I1
(I3
tp725
g162
I00
S'\xda:H\x99\\\xf4\xd7?\x9d\xfe\xfa\xb2d\xee\x1a\xc0\xb9=\xe66\x01\xe0\x07\xc0'
p726
tp727
bag22
(g23
(I0
tp728
g25
tp729
Rp730
(I1
(I3
tp731
g162
I00
S'\xf8\xfc\x1a\xd0\xc9l\xe8?\x8a\x897\x8e~\x98\x1a\xc0\xaf\xf7\xb87\xc6\xa7\x01\xc0'
p732
tp733
bag711
asbsVrectangular_packing_box1
p734
(itrajectory_representation.operator
Operator
p735
(dp736
g8
I01
sg9
(dp737
g573
Vrectangular_packing_box1
p738
ssg17
g575
sg19
(dp739
g577
(lp740
g22
(g23
(I0
tp741
g25
tp742
Rp743
(I1
(I3
tp744
g151
I00
S'\xe0\xb7\x93\xcc\xe0\x0c\x03@+\x1e)H\xec\\\x19\xc0\x00\x92\xf2`\xda\xbc\xde\xbf'
p745
tp746
bag22
(g23
(I0
tp747
g25
tp748
Rp749
(I1
(I3
tp750
g151
I00
S'D\x1b\xe0\x0c(\x0b\x07@3\x14\x9aJ\x0eh\x1e\xc0\xe2"CD>\xd1\xf0?'
p751
tp752
bag22
(g23
(I0
tp753
g25
tp754
Rp755
(I1
(I3
tp756
g151
I00
S'\x95\\\xbdk.,\t@[D\xf7&\xe6B\x18\xc0\xb3L\x18\x0fS5\xfb\xbf'
p757
tp758
bag22
(g23
(I0
tp759
g25
tp760
Rp761
(I1
(I3
tp762
g151
I00
S'ZK~\xa8\x94\xb8\x01@\xf8!\x13\x87\xdb\x1d\x1b\xc0\x84\xa2r\x9e\xff\xf0\xd3\xbf'
p763
tp764
bag22
(g23
(I0
tp765
g25
tp766
Rp767
(I1
(I3
tp768
g151
I00
S'\xfa\x01\xefz\xa7L\x02@\xf8\x9fp\x93\xc7\xa4\x19\xc0p\x90f\x9f_/\xc1\xbf'
p769
tp770
basg609
I00
ssg47
(lp771
g22
(g23
(I0
tp772
g25
tp773
Rp774
(I1
(I3
tp775
g151
I00
S'p\xc4\x9e\xf1\x97\x85\xc4\xbfJ|j`"+\x19\xc0\x83\x01\xfa\xbf9\xc5\x04@'
p776
tp777
bag22
(g23
(I0
tp778
g25
tp779
Rp780
(I1
(I3
tp781
g162
I00
S'ib\xa2\x0c9\xe9\xd7?\xca\xcd\xb4=\xe6_\x18\xc0tY\xa4\x97\x8d\xd7\x02@'
p782
tp783
bag22
(g23
(I0
tp784
g25
tp785
Rp786
(I1
(I3
tp787
g162
I00
S'o\xd6\x82\xea\x7f\xb2\xed?9\xf2C\x0b?\xfd\x16\xc0(?d\xe9@\xb5\x02@'
p788
tp789
bag22
(g23
(I0
tp790
g25
tp791
Rp792
(I1
(I3
tp793
g162
I00
S'\xf5I-\xc1\xee\x1f\xfa?Zc\rx\x9c\n\x18\xc0?_z:D*\x17@'
p794
tp795
bag767
asbsVsquare_packing_box2
p796
(itrajectory_representation.operator
Operator
p797
(dp798
g8
I01
sg9
(dp799
g573
Vsquare_packing_box2
p800
ssg17
g575
sg19
(dp801
g577
(lp802
g22
(g23
(I0
tp803
g25
tp804
Rp805
(I1
(I3
tp806
g151
I00
S'1\x89\x97\xc0\xcen\xf9?\xac*p\xcf52\x1a\xc0\xc0\xf7E\xfan^\x04@'
p807
tp808
bag22
(g23
(I0
tp809
g25
tp810
Rp811
(I1
(I3
tp812
g151
I00
S'\xc8TS\x8c:\x9e\xd7?\x90Q\xd5\xcd\xbf\xea\x17\xc0\xf0\x0f\xfd\xbbW\x98\xe3\xbf'
p813
tp814
bag22
(g23
(I0
tp815
g25
tp816
Rp817
(I1
(I3
tp818
g151
I00
S'\x82\xb1\xe1&\x10\xff\xd8?\x17\xb3=k\x15\xd5\x17\xc0\xb4\xa6B\xf0\xf3d\xda\xbf'
p819
tp820
basg609
I00
ssg47
(lp821
g22
(g23
(I0
tp822
g25
tp823
Rp824
(I1
(I3
tp825
g151
I00
S'p\xc4\x9e\xf1\x97\x85\xc4\xbfJ|j`"+\x19\xc0\x83\x01\xfa\xbf9\xc5\x04@'
p826
tp827
bag22
(g23
(I0
tp828
g25
tp829
Rp830
(I1
(I3
tp831
g162
I00
S'\x0c\x8b\xaa\xe9\xe8%\xb0\xbf\xf7\x05\x80\xfb=|\x18\xc0X\xd6!\xf5\xa2\x12\x07@'
p832
tp833
bag22
(g23
(I0
tp834
g25
tp835
Rp836
(I1
(I3
tp837
g162
I00
S",0}\x1d\xd8'\xe3?\x1a_'\xd6T\x08\x17\xc0A\xde\xdb2\xd8\xd0\x14@"
p838
tp839
bag817
asbsVsquare_packing_box3
p840
(itrajectory_representation.operator
Operator
p841
(dp842
g8
I01
sg9
(dp843
g573
Vsquare_packing_box3
p844
ssg17
g575
sg19
(dp845
g577
(lp846
g22
(g23
(I0
tp847
g25
tp848
Rp849
(I1
(I3
tp850
g151
I00
S'\x80\xdbns\xd9\x0b\xf8?#\xf4E\xa0\xf5\x8e\x17\xc0\x9d\xf5#\xdc&,\xd0\xbf'
p851
tp852
bag22
(g23
(I0
tp853
g25
tp854
Rp855
(I1
(I3
tp856
g151
I00
S'2\x7fem\xfc\xf4\x04@\xb8uO5\x00\xc3\x16\xc0W$\xe2\xa7C\x8c\x03\xc0'
p857
tp858
bag22
(g23
(I0
tp859
g25
tp860
Rp861
(I1
(I3
tp862
g151
I00
S'q\xad\xa5\xf42q\xf7?\xbc-\xae9\xc9$\x19\xc0:C\xc3\xd1\xe1\x01\xc9?'
p863
tp864
bag22
(g23
(I0
tp865
g25
tp866
Rp867
(I1
(I3
tp868
g151
I00
S'n\xc6\xf4\xb0,G\xf6?!\x82!zj}\x19\xc0\xac\xce)\xd8\x0b\x1f\xe7?'
p869
tp870
bag22
(g23
(I0
tp871
g25
tp872
Rp873
(I1
(I3
tp874
g151
I00
S'.U\xdd\x90\xffg\xf4?\xec\x07\xe1\xc5{\x82\x18\xc0\x99b\x80\xdf\x9e\xd0\xb7\xbf'
p875
tp876
basg609
I00
ssg47
(lp877
g22
(g23
(I0
tp878
g25
tp879
Rp880
(I1
(I3
tp881
g151
I00
S'p\xc4\x9e\xf1\x97\x85\xc4\xbfJ|j`"+\x19\xc0\x83\x01\xfa\xbf9\xc5\x04@'
p882
tp883
bag22
(g23
(I0
tp884
g25
tp885
Rp886
(I1
(I3
tp887
g162
I00
S'\xfe\xcb\x95>\x9aG\xe1?\xc8?\x9f\xd9\xb8\xe7\x19\xc0\xdb\x1a;\xf0\x837\xfe?'
p888
tp889
bag22
(g23
(I0
tp890
g25
tp891
Rp892
(I1
(I3
tp893
g162
I00
S'\xcb\xa0\xb6M\xadU\xef?ny]\x1b[.\x1a\xc0\x99\xfe\xc1BBE\xde?'
p894
tp895
bag867
asbsg12
(itrajectory_representation.operator
Operator
p896
(dp897
g8
I01
sg9
(dp898
g11
g12
ssg17
S'two_arm_pick'
p899
sg19
(dp900
g21
g22
(g23
(I0
tp901
g25
tp902
Rp903
(I1
(I3
tp904
g32
I00
S'Q\xce\xa6\x0e\xd0E\xd8?\xb4\xcf\xd3\xda\xe7e\x1a\xc0\x96\xcev\x1bhw\xf8?'
p905
tp906
bssg47
(lp907
g22
(g23
(I0
tp908
g25
tp909
Rp910
(I1
(I3
tp911
g151
I00
S'p\xc4\x9e\xf1\x97\x85\xc4\xbfJ|j`"+\x19\xc0\x83\x01\xfa\xbf9\xc5\x04@'
p912
tp913
bag22
(g23
(I0
tp914
g25
tp915
Rp916
(I1
(I3
tp917
g162
I00
S'\xa1\xa7\xe1\x952\xb8\xd3?\xa5q<Z@\x9e\x1b\xc0\xbc\xd6\x90\xe8\x98\xf3\x08@'
p918
tp919
bag22
(g23
(I0
tp920
g25
tp921
Rp922
(I1
(I3
tp923
g162
I00
S'\x00{\xeeM\xfb\x06\xd8?\xa7W\x1e\xc1\xa5F\x1b\xc0\xd0\xcaV\x8a\x88D\xf6?'
p924
tp925
bag903
asbsg531
(itrajectory_representation.operator
Operator
p926
(dp927
g8
I01
sg9
(dp928
g573
Vsquare_packing_box4
p929
ssg17
g575
sg19
(dp930
g577
(lp931
g22
(g23
(I0
tp932
g25
tp933
Rp934
(I1
(I3
tp935
g151
I00
S'D]c\xbd.\xba\xf0?\xe0D?}\xa0=\x1a\xc0\xa2\xae}w\x83o\xf6\xbf'
p936
tp937
bag22
(g23
(I0
tp938
g25
tp939
Rp940
(I1
(I3
tp941
g151
I00
S'\xe7w\xe6\x11\xee\xf5\xea?\xc2\xcbx\x85U\xc8\x1e\xc0J\xad\x8a\xd6EZ\xd2?'
p942
tp943
bag22
(g23
(I0
tp944
g25
tp945
Rp946
(I1
(I3
tp947
g151
I00
S'\xa7\x91\xbdJ\x94z\xfd?\x9d\x9b5\x08@\x01\x1b\xc0+\xb67_\xa5\xbd\x03\xc0'
p948
tp949
basg609
I00
ssg47
(lp950
g22
(g23
(I0
tp951
g25
tp952
Rp953
(I1
(I3
tp954
g151
I00
S'p\xc4\x9e\xf1\x97\x85\xc4\xbfJ|j`"+\x19\xc0\x83\x01\xfa\xbf9\xc5\x04@'
p955
tp956
bag22
(g23
(I0
tp957
g25
tp958
Rp959
(I1
(I3
tp960
g162
I00
S'\xc0T\xe2\x97\xaf3h\xbfv\xa30\xd5\xeb\xd1\x1a\xc0\x8a\rz\xc6\xa6z\x04@'
p961
tp962
bag22
(g23
(I0
tp963
g25
tp964
Rp965
(I1
(I3
tp966
g162
I00
S'\x0c\xff\xe10\xe4\xfb\xe2?\xf1}1j\xd3\x96\x1c\xc0B\xd2\xc8(\xcc_\xe9?'
p967
tp968
bag940
asbssS'mc_paths'
p969
(dp970
sS'robot'
p971
NsS'reachable_obj_region_pairs'
p972
(lp973
sS'sampled_pick_configs_for_objects'
p974
(dp975
Vrectangular_packing_box4
p976
g578
ssS'mc_calls'
p977
I7
sS'pick_poses'
p978
g568
sS'problem_env'
p979
NsS'evaluations'
p980
(dp981
(g344
g434
g142
tp982
I01
s(g293
g434
g142
tp983
I00
s(g434
g395
g142
tp984
I00
s(g976
g293
g142
tp985
I00
s(g395
g248
g142
tp986
I00
s(g203
g293
g142
tp987
I01
s(g248
g141
g142
tp988
I00
s(g395
g434
g142
tp989
I00
s(g976
g203
g142
tp990
I00
s(g293
g248
g142
tp991
I01
s(g344
g248
g142
tp992
I00
s(g344
g976
g142
tp993
I00
s(g293
g141
g142
tp994
I00
s(g976
g395
g142
tp995
I00
s(g395
g141
g142
tp996
I00
s(g203
g395
g142
tp997
I00
s(g248
g434
g142
tp998
I00
s(g395
g203
g142
tp999
I00
s(g434
g344
g142
tp1000
I01
s(g141
g248
g142
tp1001
I01
s(g203
g344
g142
tp1002
I00
s(g395
g976
g142
tp1003
I00
s(g434
g248
g142
tp1004
I01
s(g141
g976
g142
tp1005
I00
s(g434
g203
g142
tp1006
I01
s(g976
g344
g142
tp1007
I00
s(g248
g344
g142
tp1008
I00
s(g141
g395
g142
tp1009
I00
s(g141
g344
g142
tp1010
I00
s(g395
g344
g142
tp1011
I00
s(g203
g434
g142
tp1012
I00
s(g976
g434
g142
tp1013
I00
s(g344
g203
g142
tp1014
I00
s(g293
g344
g142
tp1015
I00
s(g203
g976
g142
tp1016
I00
s(g141
g203
g142
tp1017
I01
s(g293
g976
g142
tp1018
I00
s(g395
g293
g142
tp1019
I01
s(g248
g293
g142
tp1020
I01
s(g293
g203
g142
tp1021
I00
s(g203
g141
g142
tp1022
I00
s(g248
g395
g142
tp1023
I00
s(g293
g395
g142
tp1024
I00
s(g976
g141
g142
tp1025
I00
s(g344
g395
g142
tp1026
I01
s(g344
g141
g142
tp1027
I00
s(g141
g434
g142
tp1028
I00
s(g434
g293
g142
tp1029
I01
s(g976
g248
g142
tp1030
I00
s(g248
g203
g142
tp1031
I00
s(g203
g248
g142
tp1032
I01
s(g248
g976
g142
tp1033
I00
s(g434
g976
g142
tp1034
I00
s(g141
g293
g142
tp1035
I01
s(g434
g141
g142
tp1036
I00
s(g344
g293
g142
tp1037
I01
ssS'paths_to_reachable_entities'
p1038
NsS'use_shortest_path'
p1039
I01
sbsS'ternary_edges'
p1040
(dp1041
(g434
g434
g142
tp1042
(lp1043
I00
as(g248
S'loading_region'
p1044
g1044
tp1045
(lp1046
I00
as(S'entire_region'
p1047
g344
g142
tp1048
(lp1049
I00
as(g293
g203
g1044
tp1050
(lp1051
I00
as(g142
g142
g142
tp1052
(lp1053
I00
as(g203
g434
g1044
tp1054
(lp1055
I00
as(g248
g141
g142
tp1056
(lp1057
I00
as(g142
g976
g142
tp1058
(lp1059
I00
as(g293
g248
g142
tp1060
(lp1061
I01
as(g141
g976
g1044
tp1062
(lp1063
I00
as(g142
g203
g1044
tp1064
(lp1065
I00
as(g293
g1047
g142
tp1066
(lp1067
I00
as(g1044
g142
g1044
tp1068
(lp1069
I00
as(g976
g395
g142
tp1070
(lp1071
I00
as(g203
g1047
g142
tp1072
(lp1073
I00
as(g293
g344
g1044
tp1074
(lp1075
I00
as(g395
g1044
g142
tp1076
(lp1077
I00
as(g1047
g434
g1044
tp1078
(lp1079
I00
as(g142
g1047
g142
tp1080
(lp1081
I00
as(g434
g1044
g142
tp1082
(lp1083
I00
as(g395
g1047
g142
tp1084
(lp1085
I00
as(g248
g248
g1044
tp1086
(lp1087
I00
as(g1044
g203
g1044
tp1088
(lp1089
I00
as(g1047
g1044
g142
tp1090
(lp1091
I00
as(g1047
g293
g142
tp1092
(lp1093
I00
as(g1044
g1044
g142
tp1094
(lp1095
I00
as(g395
g976
g1044
tp1096
(lp1097
I00
as(g142
g142
g1044
tp1098
(lp1099
I00
as(g344
g293
g1044
tp1100
(lp1101
I00
as(g434
g203
g142
tp1102
(lp1103
I01
as(g395
g248
g142
tp1104
(lp1105
I00
as(g344
g142
g1044
tp1106
(lp1107
I00
as(g142
g434
g1044
tp1108
(lp1109
I00
as(g344
g141
g1044
tp1110
(lp1111
I00
as(g141
g344
g142
tp1112
(lp1113
I00
as(g1044
g248
g1044
tp1114
(lp1115
I00
as(g203
g293
g1044
tp1116
(lp1117
I00
as(g434
g434
g1044
tp1118
(lp1119
I00
as(g1047
g203
g142
tp1120
(lp1121
I00
as(g1044
g142
g142
tp1122
(lp1123
I00
as(g976
g434
g142
tp1124
(lp1125
I00
as(g142
g141
g142
tp1126
(lp1127
I00
as(g293
g344
g142
tp1128
(lp1129
I00
as(g141
g203
g142
tp1130
(lp1131
I01
as(g248
g141
g1044
tp1132
(lp1133
I00
as(g395
g293
g142
tp1134
(lp1135
I01
as(g293
g248
g1044
tp1136
(lp1137
I00
as(g293
g434
g1044
tp1138
(lp1139
I00
as(g1047
g293
g1044
tp1140
(lp1141
I00
as(g1044
g141
g1044
tp1142
(lp1143
I00
as(g1047
g142
g142
tp1144
(lp1145
I00
as(g976
g142
g142
tp1146
(lp1147
I00
as(g1044
g1047
g142
tp1148
(lp1149
I00
as(g434
g203
g1044
tp1150
(lp1151
I00
as(g395
g434
g1044
tp1152
(lp1153
I00
as(g395
g395
g142
tp1154
(lp1155
I00
as(g344
g141
g142
tp1156
(lp1157
I00
as(g1047
g434
g142
tp1158
(lp1159
I00
as(g344
g1044
g1044
tp1160
(lp1161
I00
as(g203
g248
g142
tp1162
(lp1163
I01
as(g248
g248
g142
tp1164
(lp1165
I00
as(g248
g976
g142
tp1166
(lp1167
I00
as(g976
g434
g1044
tp1168
(lp1169
I00
as(g203
g344
g1044
tp1170
(lp1171
I00
as(g395
g976
g142
tp1172
(lp1173
I00
as(g344
g293
g142
tp1174
(lp1175
I01
as(g434
g344
g1044
tp1176
(lp1177
I00
as(g344
g142
g142
tp1178
(lp1179
I00
as(g293
g434
g142
tp1180
(lp1181
I00
as(g434
g395
g142
tp1182
(lp1183
I00
as(g141
g344
g1044
tp1184
(lp1185
I00
as(g142
g293
g1044
tp1186
(lp1187
I00
as(g1047
g142
g1044
tp1188
(lp1189
I00
as(g1047
g203
g1044
tp1190
(lp1191
I00
as(g395
g434
g142
tp1192
(lp1193
I00
as(g141
g395
g1044
tp1194
(lp1195
I00
as(g434
g1047
g1044
tp1196
(lp1197
I00
as(g344
g1044
g142
tp1198
(lp1199
I00
as(g395
g293
g1044
tp1200
(lp1201
I00
as(g395
g344
g1044
tp1202
(lp1203
I00
as(g203
g248
g1044
tp1204
(lp1205
I00
as(g142
g141
g1044
tp1206
(lp1207
I00
as(g1047
g395
g1044
tp1208
(lp1209
I00
as(g1044
g141
g142
tp1210
(lp1211
I00
as(g1044
g293
g1044
tp1212
(lp1213
I00
as(g434
g344
g142
tp1214
(lp1215
I01
as(g203
g344
g142
tp1216
(lp1217
I00
as(g1044
g395
g142
tp1218
(lp1219
I00
as(g434
g395
g1044
tp1220
(lp1221
I00
as(g434
g976
g1044
tp1222
(lp1223
I00
as(g141
g203
g1044
tp1224
(lp1225
I00
as(g248
g976
g1044
tp1226
(lp1227
I00
as(g344
g395
g1044
tp1228
(lp1229
I00
as(g142
g248
g1044
tp1230
(lp1231
I00
as(g141
g1044
g1044
tp1232
(lp1233
I00
as(g976
g142
g1044
tp1234
(lp1235
I00
as(g248
g344
g142
tp1236
(lp1237
I00
as(g434
g1047
g142
tp1238
(lp1239
I00
as(g976
g293
g1044
tp1240
(lp1241
I00
as(g141
g434
g1044
tp1242
(lp1243
I00
as(g395
g344
g142
tp1244
(lp1245
I00
as(g203
g1044
g1044
tp1246
(lp1247
I00
as(g293
g142
g142
tp1248
(lp1249
I00
as(g203
g976
g142
tp1250
(lp1251
I00
as(g142
g395
g1044
tp1252
(lp1253
I00
as(g1044
g344
g1044
tp1254
(lp1255
I00
as(g1044
g395
g1044
tp1256
(lp1257
I00
as(g248
g395
g142
tp1258
(lp1259
I00
as(g344
g395
g142
tp1260
(lp1261
I01
as(g248
g344
g1044
tp1262
(lp1263
I00
as(g141
g434
g142
tp1264
(lp1265
I00
as(g434
g293
g142
tp1266
(lp1267
I01
as(g141
g142
g1044
tp1268
(lp1269
I00
as(g203
g1044
g142
tp1270
(lp1271
I00
as(g1044
g976
g1044
tp1272
(lp1273
I00
as(g434
g976
g142
tp1274
(lp1275
I00
as(g141
g141
g142
tp1276
(lp1277
I00
as(g976
g976
g142
tp1278
(lp1279
I00
as(g976
g141
g1044
tp1280
(lp1281
I00
as(g141
g1044
g142
tp1282
(lp1283
I00
as(g395
g203
g142
tp1284
(lp1285
I00
as(g976
g293
g142
tp1286
(lp1287
I00
as(g293
g1044
g1044
tp1288
(lp1289
I00
as(g141
g1047
g1044
tp1290
(lp1291
I00
as(g293
g142
g1044
tp1292
(lp1293
I00
as(g248
g293
g1044
tp1294
(lp1295
I00
as(g203
g976
g1044
tp1296
(lp1297
I00
as(g395
g142
g1044
tp1298
(lp1299
I00
as(g141
g142
g142
tp1300
(lp1301
I00
as(g1044
g976
g142
tp1302
(lp1303
I00
as(g344
g344
g142
tp1304
(lp1305
I00
as(g1044
g203
g142
tp1306
(lp1307
I00
as(g203
g395
g142
tp1308
(lp1309
I00
as(g248
g434
g142
tp1310
(lp1311
I00
as(g248
g395
g1044
tp1312
(lp1313
I00
as(g976
g248
g1044
tp1314
(lp1315
I00
as(g142
g293
g142
tp1316
(lp1317
I00
as(g1047
g141
g1044
tp1318
(lp1319
I00
as(g141
g248
g142
tp1320
(lp1321
I01
as(g344
g1047
g142
tp1322
(lp1323
I00
as(g395
g203
g1044
tp1324
(lp1325
I00
as(g395
g141
g1044
tp1326
(lp1327
I00
as(g976
g344
g142
tp1328
(lp1329
I00
as(g434
g293
g1044
tp1330
(lp1331
I00
as(g976
g1044
g142
tp1332
(lp1333
I00
as(g141
g1047
g142
tp1334
(lp1335
I00
as(g203
g141
g1044
tp1336
(lp1337
I00
as(g434
g248
g142
tp1338
(lp1339
I01
as(g395
g248
g1044
tp1340
(lp1341
I00
as(g203
g203
g1044
tp1342
(lp1343
I00
as(g976
g976
g1044
tp1344
(lp1345
I00
as(g344
g344
g1044
tp1346
(lp1347
I00
as(g248
g203
g1044
tp1348
(lp1349
I00
as(g203
g293
g142
tp1350
(lp1351
I01
as(g1047
g248
g142
tp1352
(lp1353
I00
as(g142
g1047
g1044
tp1354
(lp1355
I00
as(g142
g344
g1044
tp1356
(lp1357
I00
as(g293
g1044
g142
tp1358
(lp1359
I00
as(g248
g434
g1044
tp1360
(lp1361
I00
as(g344
g248
g1044
tp1362
(lp1363
I00
as(g141
g141
g1044
tp1364
(lp1365
I00
as(g1047
g141
g142
tp1366
(lp1367
I00
as(g293
g141
g1044
tp1368
(lp1369
I00
as(g344
g1047
g1044
tp1370
(lp1371
I00
as(g248
g293
g142
tp1372
(lp1373
I01
as(g976
g344
g1044
tp1374
(lp1375
I00
as(g976
g141
g142
tp1376
(lp1377
I00
as(g203
g141
g142
tp1378
(lp1379
I00
as(g248
g142
g1044
tp1380
(lp1381
I00
as(g293
g395
g142
tp1382
(lp1383
I00
as(g395
g395
g1044
tp1384
(lp1385
I00
as(g976
g1047
g142
tp1386
(lp1387
I00
as(g1044
g1047
g1044
tp1388
(lp1389
I00
as(g203
g395
g1044
tp1390
(lp1391
I00
as(g1044
g344
g142
tp1392
(lp1393
I00
as(g1047
g1047
g1044
tp1394
(lp1395
I00
as(g976
g248
g142
tp1396
(lp1397
I00
as(g248
g203
g142
tp1398
(lp1399
I00
as(g1044
g434
g1044
tp1400
(lp1401
I00
as(g141
g248
g1044
tp1402
(lp1403
I00
as(g395
g142
g142
tp1404
(lp1405
I00
as(g1047
g248
g1044
tp1406
(lp1407
I00
as(g395
g141
g142
tp1408
(lp1409
I00
as(g141
g293
g142
tp1410
(lp1411
I01
as(g976
g1044
g1044
tp1412
(lp1413
I00
as(g434
g248
g1044
tp1414
(lp1415
I00
as(g344
g434
g142
tp1416
(lp1417
I01
as(g1047
g1044
g1044
tp1418
(lp1419
I00
as(g1044
g434
g142
tp1420
(lp1421
I00
as(g248
g1047
g142
tp1422
(lp1423
I00
as(g293
g395
g1044
tp1424
(lp1425
I00
as(g293
g976
g1044
tp1426
(lp1427
I00
as(g203
g142
g142
tp1428
(lp1429
I00
as(g976
g1047
g1044
tp1430
(lp1431
I00
as(g976
g203
g142
tp1432
(lp1433
I00
as(g1047
g976
g1044
tp1434
(lp1435
I00
as(g142
g344
g142
tp1436
(lp1437
I00
as(g142
g395
g142
tp1438
(lp1439
I00
as(g344
g248
g142
tp1440
(lp1441
I00
as(g344
g976
g142
tp1442
(lp1443
I00
as(g1047
g395
g142
tp1444
(lp1445
I00
as(g293
g141
g142
tp1446
(lp1447
I00
as(g293
g293
g1044
tp1448
(lp1449
I00
as(g344
g203
g1044
tp1450
(lp1451
I00
as(g203
g142
g1044
tp1452
(lp1453
I00
as(g434
g142
g142
tp1454
(lp1455
I00
as(g248
g142
g142
tp1456
(lp1457
I00
as(g344
g434
g1044
tp1458
(lp1459
I00
as(g203
g434
g142
tp1460
(lp1461
I00
as(g142
g1044
g142
tp1462
(lp1463
I00
as(g1047
g1047
g142
tp1464
(lp1465
I00
as(g434
g141
g1044
tp1466
(lp1467
I00
as(g248
g1047
g1044
tp1468
(lp1469
I00
as(g1044
g293
g142
tp1470
(lp1471
I00
as(g141
g976
g142
tp1472
(lp1473
I00
as(g1047
g976
g142
tp1474
(lp1475
I00
as(g248
g1044
g142
tp1476
(lp1477
I00
as(g141
g293
g1044
tp1478
(lp1479
I00
as(g142
g248
g142
tp1480
(lp1481
I00
as(g1047
g344
g1044
tp1482
(lp1483
I00
as(g203
g1047
g1044
tp1484
(lp1485
I00
as(g293
g293
g142
tp1486
(lp1487
I00
as(g344
g203
g142
tp1488
(lp1489
I00
as(g395
g1047
g1044
tp1490
(lp1491
I00
as(g293
g976
g142
tp1492
(lp1493
I00
as(g142
g203
g142
tp1494
(lp1495
I00
as(g141
g395
g142
tp1496
(lp1497
I00
as(g976
g203
g1044
tp1498
(lp1499
I00
as(g203
g203
g142
tp1500
(lp1501
I00
as(g344
g976
g1044
tp1502
(lp1503
I00
as(g293
g203
g142
tp1504
(lp1505
I00
as(g395
g1044
g1044
tp1506
(lp1507
I00
as(g142
g434
g142
tp1508
(lp1509
I00
as(g434
g1044
g1044
tp1510
(lp1511
I00
as(g142
g976
g1044
tp1512
(lp1513
I00
as(g434
g142
g1044
tp1514
(lp1515
I00
as(g1044
g1044
g1044
tp1516
(lp1517
I00
as(g293
g1047
g1044
tp1518
(lp1519
I00
as(g976
g395
g1044
tp1520
(lp1521
I00
as(g142
g1044
g1044
tp1522
(lp1523
I00
as(g434
g141
g142
tp1524
(lp1525
I00
as(g1044
g248
g142
tp1526
(lp1527
I00
assg567
g568
sS'use_prm'
p1528
I01
sS'object_names'
p1529
(lp1530
S'square_packing_box1'
p1531
aS'rectangular_packing_box1'
p1532
aS'square_packing_box2'
p1533
aS'rectangular_packing_box2'
p1534
aS'square_packing_box3'
p1535
aS'rectangular_packing_box3'
p1536
aS'square_packing_box4'
p1537
aS'rectangular_packing_box4'
p1538
asg979
NsS'current_holding_collides'
p1539
NsS'object_poses'
p1540
(dp1541
Vrectangular_packing_box4
p1542
g22
(g23
(I0
tp1543
g25
tp1544
Rp1545
(I1
(I1
I3
tp1546
g151
I00
S'0\xa8\n\xa1\x87\xf6\x0b@zAk\xfb\x98n\x15\xc0\x0f\xc9(\xb6)\x13\xca?'
p1547
tp1548
bsVrectangular_packing_box2
p1549
g22
(g23
(I0
tp1550
g25
tp1551
Rp1552
(I1
(I1
I3
tp1553
g151
I00
S'3\xb0]-\x1c\x8a\x02@\xfe\x17\x96\xa5\x8am\x1b\xc0y\xb6\x830\xc9\xec\xe7?'
p1554
tp1555
bsVrectangular_packing_box3
p1556
g22
(g23
(I0
tp1557
g25
tp1558
Rp1559
(I1
(I1
I3
tp1560
g151
I00
S'1\xef\x941"\xa0\xc3?\xa1\t>\x12O\xec\x1e\xc0!\xda\x02N\x86\xcf\xff?'
p1561
tp1562
bsVrectangular_packing_box1
p1563
g22
(g23
(I0
tp1564
g25
tp1565
Rp1566
(I1
(I1
I3
tp1567
g151
I00
S'\rv\x16\xdbs\xf0\x07@qd\x04\x1d\x9eZ\x1b\xc0\x9d\xffvV\x93\xe1\x06@'
p1568
tp1569
bsVsquare_packing_box2
p1570
g22
(g23
(I0
tp1571
g25
tp1572
Rp1573
(I1
(I1
I3
tp1574
g151
I00
S'\xa08]Y\xe3\xa8\xf1?\xd8\xfaz2\x02z\x18\xc0\x99\x013\xd4\x1a\xdb\x05@'
p1575
tp1576
bsVsquare_packing_box3
p1577
g22
(g23
(I0
tp1578
g25
tp1579
Rp1580
(I1
(I1
I3
tp1581
g151
I00
S'\x94\xb3\xcd\xd0\xa4\x9a\x00@?f\x85O\xf8u\x18\xc0\x85b\xd7\x89\x07\xb9\xfc?'
p1582
tp1583
bsVsquare_packing_box1
p1584
g22
(g23
(I0
tp1585
g25
tp1586
Rp1587
(I1
(I1
I3
tp1588
g151
I00
S'\xfc\xfc\xa8\xff\x19o\xd9?O\xca\xc4`b\xab\x17\xc0\xdd\xaesz\xc4"\x11@'
p1589
tp1590
bsVsquare_packing_box4
p1591
g22
(g23
(I0
tp1592
g25
tp1593
Rp1594
(I1
(I1
I3
tp1595
g151
I00
S'\x10=C|/w\xf6?h\xc5q\nj\xe7\x1c\xc0\x8f\xe0R\x9e\xf1\x99\x00@'
p1596
tp1597
bssS'reachable_regions_while_holding'
p1598
(lp1599
(g569
g1044
tp1600
a(g647
g1044
tp1601
a(g530
g1044
tp1602
a(g734
g1044
tp1603
a(g796
g1044
tp1604
a(g840
g1044
tp1605
a(g12
g1044
tp1606
a(g531
g1044
tp1607
asS'in_region'
p1608
(itrajectory_representation.predicates.in_region
InRegion
p1609
(dp1610
g979
NsbsS'cached_pick_paths'
p1611
(dp1612
g569
g610
sg647
g672
sg530
g715
sg734
g771
sg796
g821
sg840
g877
sg12
g907
sg531
g950
ssg532
(dp1613
(Vsquare_packing_box4
p1614
(cnumpy.core.multiarray
scalar
p1615
(g151
S'k\x10\xe6v/w\xf6?'
p1616
tp1617
Rp1618
g1615
(g151
S'e\xe4,\xeci\xe7\x1c\xc0'
p1619
tp1620
Rp1621
g1615
(g151
S'U\xa5-\xae\xf1\x99\x00@'
p1622
tp1623
Rp1624
tp1625
tp1626
g566
s(Vsquare_packing_box3
p1627
(g1615
(g151
S'\xed*\xa4\xfc\xa4\x9a\x00@'
p1628
tp1629
Rp1630
g1615
(g151
S'\xbcW\xadL\xf8u\x18\xc0'
p1631
tp1632
Rp1633
g1615
(g151
S'g\x98\xdaR\x07\xb9\xfc?'
p1634
tp1635
Rp1636
tp1637
tp1638
g558
s(Vrectangular_packing_box3
p1639
(g1615
(g151
S'O\x90\xd8\xee\x1e\xa0\xc3?'
p1640
tp1641
Rp1642
g1615
(g151
S'x\x97\x8b\xf8N\xec\x1e\xc0'
p1643
tp1644
Rp1645
g1615
(g151
S'V\xd4`\x1a\x86\xcf\xff?'
p1646
tp1647
Rp1648
tp1649
tp1650
g546
s(Vrectangular_packing_box1
p1651
(g1615
(g151
S'fO\x02\x9bs\xf0\x07@'
p1652
tp1653
Rp1654
g1615
(g151
S'\xa3\x91\xcf+\x9eZ\x1b\xc0'
p1655
tp1656
Rp1657
g1615
(g151
S'\x14\xcen-\x93\xe1\x06@'
p1658
tp1659
Rp1660
tp1661
tp1662
g550
s(Vrectangular_packing_box2
p1663
(g1615
(g151
S'\xa4R\xech\x1c\x8a\x02@'
p1664
tp1665
Rp1666
g1615
(g151
S'\xd7\x16\x9e\x97\x8am\x1b\xc0'
p1667
tp1668
Rp1669
g1615
(g151
S'\xb0\x1b\xb6-\xca\xec\xe7?'
p1670
tp1671
Rp1672
tp1673
tp1674
g542
s(Vsquare_packing_box1
p1675
(g1615
(g151
S'\xbd\xfcN\x93\x19o\xd9?'
p1676
tp1677
Rp1678
g1615
(g151
S'\xf1\xb7=Ab\xab\x17\xc0'
p1679
tp1680
Rp1681
g1615
(g151
S'\x84gB\x93\xc4"\x11@'
p1682
tp1683
Rp1684
tp1685
tp1686
g562
s(Vsquare_packing_box2
p1687
(g1615
(g151
S'\\\xc7\xb8\xe2\xe2\xa8\xf1?'
p1688
tp1689
Rp1690
g1615
(g151
S'\x88g\t2\x02z\x18\xc0'
p1691
tp1692
Rp1693
g1615
(g151
S'\xecL\xa1\xf3\x1a\xdb\x05@'
p1694
tp1695
Rp1696
tp1697
tp1698
g554
s(Vrectangular_packing_box4
p1699
(g1615
(g151
S'O\xc99\xb1\x87\xf6\x0b@'
p1700
tp1701
Rp1702
g1615
(g151
S'\xca7\xdb\xdc\x98n\x15\xc0'
p1703
tp1704
Rp1705
g1615
(g151
S'\xde\x1f\xefU+\x13\xca?'
p1706
tp1707
Rp1708
tp1709
tp1710
g538
ssS'state_saver'
p1711
(igtamp_utils.utils
CustomStateSaver
p1712
(dp1713
S'robot_base_pose'
p1714
g22
(g23
(I0
tp1715
g25
tp1716
Rp1717
(I1
(I1
I3
tp1718
g151
I00
S'0\xc5\x9e\xf1\x97\x85\xc4\xbfO|j`"+\x19\xc0\x83\x01\xfa\xbf9\xc5\x04@'
p1719
tp1720
bsS'held_object'
p1721
NsS'robot_name'
p1722
S'pr2'
p1723
sS'env_id'
p1724
I1
sg1540
(dp1725
Vright_wall_1
p1726
g22
(g23
(I0
tp1727
g25
tp1728
Rp1729
(I1
(I4
tp1730
g151
I00
S'H\xe1z\x14\xaeG\x12@&\\\x8f\xc2\xf5(\xd4\xbf\xcc\x7fH\xbf}\x1d\xed?\x00\x00\x00\x00\x00\x00\x00\x00'
p1731
tp1732
bsVc_obst5
p1733
g22
(g23
(I0
tp1734
g25
tp1735
Rp1736
(I1
(I4
tp1737
g151
I00
S"TN<\x05\xb6J\x12@x\xdf\xea,\xe4c\xe0?e\xaa`TR'\xed?\x06\x8c\x80\x8d`\xc6\x13@"
p1738
tp1739
bsVentrance_right
p1740
g22
(g23
(I0
tp1741
g25
tp1742
Rp1743
(I1
(I4
tp1744
g151
I00
S'ffffff\n@H\xe1z\x14\xaeG\t\xc0\x9c\xc4 \xb0rh\xc1?\x00\x00\x00\x00\x00\x00\x00\x00'
p1745
tp1746
bsVcomputer_table
p1747
g22
(g23
(I0
tp1748
g25
tp1749
Rp1750
(I1
(I4
tp1751
g151
I00
S'\x00\x00\x00\x00\x00\x00\x13@\x00\x00\x00\x00\x00\x00\xf8\xbf\x96C\x8bl\xe7\xfb\xe7?\xd2!3\x7f|\xd9\x12@'
p1752
tp1753
bsVchair_6b56
p1754
g22
(g23
(I0
tp1755
g25
tp1756
Rp1757
(I1
(I4
tp1758
g151
I00
S'u=\n\xd7\xa3p\xf5?K\xe1z\x14\xaeG\xd1?\x00\x00\x00\x00\x00\x00\x00\x00\xd6$\xfaNBm\n@'
p1759
tp1760
bsVsquare_packing_box3
p1761
g22
(g23
(I0
tp1762
g25
tp1763
Rp1764
(I1
(I4
tp1765
g151
I00
S'\x96\xb3\xcd\xd0\xa4\x9a\x00@Bf\x85O\xf8u\x18\xc0L7\x89A`\xe5\xd8?\x85b\xd7\x89\x07\xb9\xfc?'
p1766
tp1767
bsVsquare_packing_box2
p1768
g22
(g23
(I0
tp1769
g25
tp1770
Rp1771
(I1
(I4
tp1772
g151
I00
S'\xa08]Y\xe3\xa8\xf1?\xd8\xfaz2\x02z\x18\xc0L7\x89A`\xe5\xd8?\x99\x013\xd4\x1a\xdb\x05@'
p1773
tp1774
bsVtable
p1775
g22
(g23
(I0
tp1776
g25
tp1777
Rp1778
(I1
(I4
tp1779
g151
I00
S'\x7f\xf6#EdX\xed?\xac\xffs\x98//\xc0\xbf\x00\x00\x00\x00\x00\x00\x00\x00\x00\x00\x00\x00\x00\x00\x00\x00'
p1780
tp1781
bsVsquare_packing_box1
p1782
g22
(g23
(I0
tp1783
g25
tp1784
Rp1785
(I1
(I4
tp1786
g151
I00
S'$\xfd\xa8\xff\x19o\xd9?T\xca\xc4`b\xab\x17\xc0L7\x89A`\xe5\xd8?\xdd\xaesz\xc4"\x11@'
p1787
tp1788
bsVback_wall_2
p1789
g22
(g23
(I0
tp1790
g25
tp1791
Rp1792
(I1
(I4
tp1793
g151
I00
S'\xaeG\xe1z\x14.\x13@\x80\x14\xaeG\xe1z\xc4?xX\xa85\xcd\xbb\xf2?\x00\x00\x00\x00\x00\x00\x00\x00'
p1794
tp1795
bsVchair_083c
p1796
g22
(g23
(I0
tp1797
g25
tp1798
Rp1799
(I1
(I4
tp1800
g151
I00
S'\xa4p=\n\xd7\xa3\xe0?333333\xe3\xbf\x00\x00\x00\x00\x00\x00\x00\x00\x00\x00\x00\x00\x00\x00\x00\x00'
p1801
tp1802
bsVback_wall_1
p1803
g22
(g23
(I0
tp1804
g25
tp1805
Rp1806
(I1
(I4
tp1807
g151
I00
S'\xaeG\xe1z\x14.\x13@\x80\x14\xaeG\xe1z\xc4?\xcc\x7fH\xbf}\x1d\xed?\x00\x00\x00\x00\x00\x00\x00\x00'
p1808
tp1809
bsVbottom_wall
p1810
g22
(g23
(I0
tp1811
g25
tp1812
Rp1813
(I1
(I4
tp1814
g151
I00
S'\x00\x00\x00\x00\x00\x00\xfc?\x00\x00\x00\x00\x00\x00\x00\x00\x00\x00\x00\x00\x00\x00\x00\x00\x00\x00\x00\x00\x00\x00\x00\x00'
p1815
tp1816
bsVcup_905a
p1817
g22
(g23
(I0
tp1818
g25
tp1819
Rp1820
(I1
(I4
tp1821
g151
I00
S'\x00\x00\x00\x00\x00\x00\xf0?\x83\xc0\xca\xa1E\xb6\xdb?\x1b/\xdd$\x06\x81\xed?\x00\x00\x00\x00\x00\x00\x00\x00'
p1822
tp1823
bsVplate_496f
p1824
g22
(g23
(I0
tp1825
g25
tp1826
Rp1827
(I1
(I4
tp1828
g151
I00
S"q=\n\xd7\xa3p\xe5?\x9dhW!\xe5'\xdd\xbf\x1b/\xdd$\x06\x81\xed?\x00\x00\x00\x00\x00\x00\x00\x00"
p1829
tp1830
bsVtoaster
p1831
g22
(g23
(I0
tp1832
g25
tp1833
Rp1834
(I1
(I4
tp1835
g151
I00
S')\\\x8f\xc2\xf5(\xf4\xbf\xe0z\x14\xaeG\xe1\xf2\xbf\xb8\x1e\x85\xebQ\xb8\xee?\x89/`\x9b\xf8\x8a\xe4?'
p1836
tp1837
bsVc_obst1
p1838
g22
(g23
(I0
tp1839
g25
tp1840
Rp1841
(I1
(I4
tp1842
g151
I00
S"\xc839\x90\x92j\x12@\x00\xabYBK\x0c{\xbfe\xaa`TR'\xed?\xc4X,\x99\xb3\x7f\x02@"
p1843
tp1844
bsVrectangular_packing_box4
p1845
g22
(g23
(I0
tp1846
g25
tp1847
Rp1848
(I1
(I4
tp1849
g151
I00
S'0\xa8\n\xa1\x87\xf6\x0b@zAk\xfb\x98n\x15\xc0L7\x89A`\xe5\xd8?\x0f\xc9(\xb6)\x13\xca?'
p1850
tp1851
bsVmicrowave
p1852
g22
(g23
(I0
tp1853
g25
tp1854
Rp1855
(I1
(I4
tp1856
g151
I00
S'\x9a\x99\x99\x99\x99\x99\xf1\xbf\x00\x00\x00\x00\x00\x00\x00@7\x89A`\xe5\xd0\xee?\x00\x00\x00\x00\x00\x00\x00\x00'
p1857
tp1858
bsVc_obst7
p1859
g22
(g23
(I0
tp1860
g25
tp1861
Rp1862
(I1
(I4
tp1863
g151
I00
S"\xa461\x8ey\xff\x11@\\\xf3.m1~\xc5\xbfe\xaa`TR'\xed?\x1e\x82\xc1\x99FJ\x13@"
p1864
tp1865
bsVc_obst6
p1866
g22
(g23
(I0
tp1867
g25
tp1868
Rp1869
(I1
(I4
tp1870
g151
I00
S"\x8bw~\xaf\x1dS\x12@h\x96\xbd\x7f-\xe5\xd4?e\xaa`TR'\xed?\xdf\xff\xa6\xc5\x1fR\x10@"
p1871
tp1872
bsVcup_b6af
p1873
g22
(g23
(I0
tp1874
g25
tp1875
Rp1876
(I1
(I4
tp1877
g151
I00
S'R\xb8\x1e\x85\xebQ\xe8?\x9a\x99\x99\x99\x99\x99\xe1?\x1b/\xdd$\x06\x81\xed?\x00\x00\x00\x00\x00\x00\x00\x00'
p1878
tp1879
bsVc_obst4
p1880
g22
(g23
(I0
tp1881
g25
tp1882
Rp1883
(I1
(I4
tp1884
g151
I00
S",\xcb\x1f\x8fc\x0b\x12@\x04D\xb2\x1a\xa7?\xbd\xbfe\xaa`TR'\xed?Vs\x05\xab^j\xc1?"
p1885
tp1886
bsVrectangular_packing_box2
p1887
g22
(g23
(I0
tp1888
g25
tp1889
Rp1890
(I1
(I4
tp1891
g151
I00
S'3\xb0]-\x1c\x8a\x02@\xfe\x17\x96\xa5\x8am\x1b\xc0L7\x89A`\xe5\xd8?y\xb6\x830\xc9\xec\xe7?'
p1892
tp1893
bsVplate_fa76
p1894
g22
(g23
(I0
tp1895
g25
tp1896
Rp1897
(I1
(I4
tp1898
g151
I00
S'=\n\xd7\xa3p=\xf2?\x00\x00\x00\x00\x00\x00\x00\x00\x1b/\xdd$\x06\x81\xed?\x00\x00\x00\x00\x00\x00\x00\x00'
p1899
tp1900
bsVfloorwalls
p1901
g22
(g23
(I0
tp1902
g25
tp1903
Rp1904
(I1
(I4
tp1905
g151
I00
S'\xc7\xcc\xcc\xcc\xcc\xcc\xfc?\x00\x00\x00\x00\x00\x00\x18\xc0H\xe1z\x14\xaeG\xc1?\x16-DT\xfb!\xf9?'
p1906
tp1907
bsVpin_c671
p1908
g22
(g23
(I0
tp1909
g25
tp1910
Rp1911
(I1
(I4
tp1912
g151
I00
S'\xc3\xf5(\\\x8f\xc2\xf1\xbf}?5^\xbaI\x02@\xb8\x1e\x85\xebQ\xb8\xfa?\x00\x00\x00\x00\x00\x00\x00\x00'
p1913
tp1914
bsVc_obst3
p1915
g22
(g23
(I0
tp1916
g25
tp1917
Rp1918
(I1
(I4
tp1919
g151
I00
S"\xf7\xfb\x8a\xc8H\t\x12@\xe8Tj\x13-\xa0\xd7?e\xaa`TR'\xed?^\xf5\xbf\xcdY\x8d\x14@"
p1920
tp1921
bsVchair_2e39
p1922
g22
(g23
(I0
tp1923
g25
tp1924
Rp1925
(I1
(I4
tp1926
g151
I00
S'hfffff\xee?cfffff\xf2\xbf\x00\x00\x00\x00\x00\x00\x00\x00\x07M\xe8QQF\xf3?'
p1927
tp1928
bsVentrance_left
p1929
g22
(g23
(I0
tp1930
g25
tp1931
Rp1932
(I1
(I4
tp1933
g151
I00
S'\x98\x99\x99\x99\x99\x99\xe9\xbfH\xe1z\x14\xaeG\t\xc0\x9c\xc4 \xb0rh\xc1?\x00\x00\x00\x00\x00\x00\x00\x00'
p1934
tp1935
bsVtop_wall_1
p1936
g22
(g23
(I0
tp1937
g25
tp1938
Rp1939
(I1
(I4
tp1940
g151
I00
S'H\xe1z\x14\xaeG\x12@\x80\x14\xaeG\xe1z\xc4?xX\xa85\xcd\xbb\xf2?\x00\x00\x00\x00\x00\x00\x00\x00'
p1941
tp1942
bsVrectangular_packing_box3
p1943
g22
(g23
(I0
tp1944
g25
tp1945
Rp1946
(I1
(I4
tp1947
g151
I00
S'\xb9\xef\x941"\xa0\xc3?\x9f\t>\x12O\xec\x1e\xc0L7\x89A`\xe5\xd8?!\xda\x02N\x86\xcf\xff?'
p1948
tp1949
bsVshaker
p1950
g22
(g23
(I0
tp1951
g25
tp1952
Rp1953
(I1
(I4
tp1954
g151
I00
S'\n\xd7\xa3p=\n\x01@\x14\xaeG\xe1z\x14\x02@\\\x8f\xc2\xf5(\\\xef?\x00\x00\x00\x00\x00\x00\x00\x00'
p1955
tp1956
bsVc_obst9
p1957
g22
(g23
(I0
tp1958
g25
tp1959
Rp1960
(I1
(I4
tp1961
g151
I00
S"\xb1\xaa\xda\xa7\x16T\x12@\x04\x1d=\xdf'\x80\xdc?e\xaa`TR'\xed?\xbc*n\xb5\x12U\x0e@"
p1962
tp1963
bsVplate_835a
p1964
g22
(g23
(I0
tp1965
g25
tp1966
Rp1967
(I1
(I4
tp1968
g151
I00
S'\xf6(\\\x8f\xc2\xf5\xf0?\\\x8f\xc2\xf5(\\\xe7\xbf\x1b/\xdd$\x06\x81\xed?\x00\x00\x00\x00\x00\x00\x00\x00'
p1969
tp1970
bsVcup_58a2
p1971
g22
(g23
(I0
tp1972
g25
tp1973
Rp1974
(I1
(I4
tp1975
g151
I00
S'\x85\xebQ\xb8\x1e\x85\xe3?\xcd\xcc\xcc\xcc\xcc\xcc\xdc?\x1b/\xdd$\x06\x81\xed?\x00\x00\x00\x00\x00\x00\x00\x00'
p1976
tp1977
bsVleft_wall_1
p1978
g22
(g23
(I0
tp1979
g25
tp1980
Rp1981
(I1
(I4
tp1982
g151
I00
S'H\xe1z\x14\xaeG\x12@S\xb8\x1e\x85\xebQ\xe4?\xcc\x7fH\xbf}\x1d\xed?\x00\x00\x00\x00\x00\x00\x00\x00'
p1983
tp1984
bsVc_obst2
p1985
g22
(g23
(I0
tp1986
g25
tp1987
Rp1988
(I1
(I4
tp1989
g151
I00
S"\xee\x1a\xfbd\x00\x98\x12@\xfa\x93DQ\r\x07\xe0?e\xaa`TR'\xed?\xad\xc4\xda\xaf\xed\xaf\x0e@"
p1990
tp1991
bsVsquare_packing_box4
p1992
g22
(g23
(I0
tp1993
g25
tp1994
Rp1995
(I1
(I4
tp1996
g151
I00
S'\x11=C|/w\xf6?d\xc5q\nj\xe7\x1c\xc0L7\x89A`\xe5\xd8?\x8f\xe0R\x9e\xf1\x99\x00@'
p1997
tp1998
bsVrectangular_packing_box1
p1999
g22
(g23
(I0
tp2000
g25
tp2001
Rp2002
(I1
(I4
tp2003
g151
I00
S'\x19v\x16\xdbs\xf0\x07@}d\x04\x1d\x9eZ\x1b\xc0L7\x89A`\xe5\xd8?\x9d\xffvV\x93\xe1\x06@'
p2004
tp2005
bsVpin_371e
p2006
g22
(g23
(I0
tp2007
g25
tp2008
Rp2009
(I1
(I4
tp2010
g151
I00
S'333333\xf3\xbfffffff\xf6?\xb8\x1e\x85\xebQ\xb8\xee?\x00\x00\x00\x00\x00\x00\x00\x00'
p2011
tp2012
bsVfridge
p2013
g22
(g23
(I0
tp2014
g25
tp2015
Rp2016
(I1
(I4
tp2017
g151
I00
S'\xd7\xa3p=\n\xd7\xeb\xbf\x00\x00\x00\x00\x00\x00\x00\xc0\xcd\xcc\xcc\xcc\xcc\xcc\xf8?\x00\x00\x00\x00\x00\x00\x00\x00'
p2018
tp2019
bsVcup_d441
p2020
g22
(g23
(I0
tp2021
g25
tp2022
Rp2023
(I1
(I4
tp2024
g151
I00
S'\n\xd7\xa3p=\n\xef?\x8f\xc2\xf5(\\\x8f\xe2?\x1b/\xdd$\x06\x81\xed?\x00\x00\x00\x00\x00\x00\x00\x00'
p2025
tp2026
bsVshelf2
p2027
g22
(g23
(I0
tp2028
g25
tp2029
Rp2030
(I1
(I4
tp2031
g151
I00
S'\x00\x00\x00\x00\x00\x00\x0e@\xaeG\xe1z\x14\xae\x07@\x9c\xc4 \xb0rh\xc1?\xd2!3\x7f|\xd9\x12@'
p2032
tp2033
bsVtop_wall_2
p2034
g22
(g23
(I0
tp2035
g25
tp2036
Rp2037
(I1
(I4
tp2038
g151
I00
S'H\xe1z\x14\xaeG\x12@\x80\x14\xaeG\xe1z\xc4?\x16HP\xfc\x18\xf3\xfd?\x00\x00\x00\x00\x00\x00\x00\x00'
p2039
tp2040
bsVc_obst0
p2041
g22
(g23
(I0
tp2042
g25
tp2043
Rp2044
(I1
(I4
tp2045
g151
I00
S"\xf2\x9b\x8a\xdb\xafc\x12@\x80\xd8\x18qIN\xc4?e\xaa`TR'\xed?@\xa1\xb1\x02\x0e\n\x02@"
p2046
tp2047
bsVshelf1
p2048
g22
(g23
(I0
tp2049
g25
tp2050
Rp2051
(I1
(I4
tp2052
g151
I00
S'\x00\x00\x00\x00\x00\x00\x13@\xaeG\xe1z\x14\xae\x07@\x9c\xc4 \xb0rh\xc1?\xd2!3\x7f|\xd9\x12@'
p2053
tp2054
bsVsink
p2055
g22
(g23
(I0
tp2056
g25
tp2057
Rp2058
(I1
(I4
tp2059
g151
I00
S'ffffff\xd6?333333\x01@\x9a\x99\x99\x99\x99\x99\xb9\xbf\x00\x00\x00\x00\x00\x00\x00\x00'
p2060
tp2061
bsVpr2
p2062
g22
(g23
(I0
tp2063
g25
tp2064
Rp2065
(I1
(I4
tp2066
g151
I00
S'\xb0\xc5\x9e\xf1\x97\x85\xc4\xbfS|j`"+\x19\xc0\x9a_\x94\xa0\xbf\xd0\xc1?\x83\x01\xfa\xbf9\xc5\x04@'
p2067
tp2068
bsVchair_12d0
p2069
g22
(g23
(I0
tp2070
g25
tp2071
Rp2072
(I1
(I4
tp2073
g151
I00
S'\\\xd2\x18\xad\xa3\xaa\xdb?Of\x83L2r\xc6?\x00\x00\x00\x00\x00\x00\x00\x00\xf8\x81\r\x14M\xa6\x17@'
p2074
tp2075
bsVright_wall_2
p2076
g22
(g23
(I0
tp2077
g25
tp2078
Rp2079
(I1
(I4
tp2080
g151
I00
S'H\xe1z\x14\xaeG\x12@&\\\x8f\xc2\xf5(\xd4\xbfxX\xa85\xcd\xbb\xf2?\x00\x00\x00\x00\x00\x00\x00\x00'
p2081
tp2082
bsVknife_block
p2083
g22
(g23
(I0
tp2084
g25
tp2085
Rp2086
(I1
(I4
tp2087
g151
I00
S'R\xb8\x1e\x85\xebQ\xe0\xbfffffff\x02@`\xe5\xd0"\xdb\xf9\xee?\x00\x00\x00\x00\x00\x00\x00\x00'
p2088
tp2089
bsVleft_wall_2
p2090
g22
(g23
(I0
tp2091
g25
tp2092
Rp2093
(I1
(I4
tp2094
g151
I00
S'H\xe1z\x14\xaeG\x12@S\xb8\x1e\x85\xebQ\xe4?xX\xa85\xcd\xbb\xf2?\x00\x00\x00\x00\x00\x00\x00\x00'
p2095
tp2096
bsVleft_wall
p2097
g22
(g23
(I0
tp2098
g25
tp2099
Rp2100
(I1
(I4
tp2101
g151
I00
S'\x9a\x99\x99\x99\x99\x99\x07@H\xe1z\x14\xaeG\xff?\x9c\xc4 \xb0rh\xc1?\x00\x00\x00\x00\x00\x00\x00\x00'
p2102
tp2103
bsVkitchen
p2104
g22
(g23
(I0
tp2105
g25
tp2106
Rp2107
(I1
(I4
tp2108
g151
I00
S'\x00\x00\x00\x00\x00\x00\x00\x00\x00\x00\x00\x00\x00\x00\x00\x00\x00\x00\x00\x00\x00\x00\x00\x00\x00\x00\x00\x00\x00\x00\x00\x00'
p2109
tp2110
bsVtable2
p2111
g22
(g23
(I0
tp2112
g25
tp2113
Rp2114
(I1
(I4
tp2115
g151
I00
S'\x00\x00\x00\x00\x00\x00\x13@\x80\x14\xaeG\xe1z\xc4?S\x96!\x8euq\xec?\xd2!3\x7f|\xd9\x12@'
p2116
tp2117
bsVc_obst8
p2118
g22
(g23
(I0
tp2119
g25
tp2120
Rp2121
(I1
(I4
tp2122
g151
I00
S"p\xf3a\xb2.\xa3\x12@t\xc5\x9c\xadA\xe0\xaf\xbfe\xaa`TR'\xed?\xf0\xc6<\x9d\x05\x85\x06@"
p2123
tp2124
bsVplate_b4e7
p2125
g22
(g23
(I0
tp2126
g25
tp2127
Rp2128
(I1
(I4
tp2129
g151
I00
S'\x14\xaeG\xe1z\x14\xf2\xbf\x14\xaeG\xe1z\x14\x00@=\n\xd7\xa3p=\xf2?\x00\x00\x00\x00\x00\x00\x00\x00'
p2130
tp2131
bsVcooker
p2132
g22
(g23
(I0
tp2133
g25
tp2134
Rp2135
(I1
(I4
tp2136
g151
I00
S'\xaeG\xe1z\x14\xae\xff?\x85\xebQ\xb8\x1e\x85\xfb?\x00\x00\x00\x00\x00\x00\xe8?\x00\x00\x00\x00\x00\x00\x00\x00'
p2137
tp2138
bsVpin_a091
p2139
g22
(g23
(I0
tp2140
g25
tp2141
Rp2142
(I1
(I4
tp2143
g151
I00
S'\xdb\xf9~j\xbct\xf7\xbf)\\\x8f\xc2\xf5(\x02@\xb8\x1e\x85\xebQ\xb8\xfa?\x00\x00\x00\x00\x00\x00\x00\x00'
p2144
tp2145
bsVside_wall_2
p2146
g22
(g23
(I0
tp2147
g25
tp2148
Rp2149
(I1
(I4
tp2150
g151
I00
S'\xfa\xff\xff\xff\xff\xff\x14@\x00\x00\x00\x00\x00\x00\x00\x00\x9c\xc4 \xb0rh\xc1?\x18-DT\xfb!\xf9?'
p2151
tp2152
bsVside_wall_3
p2153
g22
(g23
(I0
tp2154
g25
tp2155
Rp2156
(I1
(I4
tp2157
g151
I00
S'\x00\x00\x00\x00\x00\x00\xfc?H\xe1z\x14\xaeG\t@\x9c\xc4 \xb0rh\xc1?\x00\x00\x00\x00\x00\x00\x00\x00'
p2158
tp2159
bsVmixer
p2160
g22
(g23
(I0
tp2161
g25
tp2162
Rp2163
(I1
(I4
tp2164
g151
I00
S'\n\xd7\xa3p=\n\xfb?ffffff\x02@d;\xdfO\x8d\x97\xee?\x00\x00\x00\x00\x00\x00\x00\x00'
p2165
tp2166
bsVside_wall_1
p2167
g22
(g23
(I0
tp2168
g25
tp2169
Rp2170
(I1
(I4
tp2171
g151
I00
S'\xf4\xff\xff\xff\xff\xff\xfb\xbf\x00\x00\x00\x00\x00\x00\x00\x00\x9c\xc4 \xb0rh\xc1?\x18-DT\xfb!\xf9?'
p2172
tp2173
bsVbottom_wall_1
p2174
g22
(g23
(I0
tp2175
g25
tp2176
Rp2177
(I1
(I4
tp2178
g151
I00
S'H\xe1z\x14\xaeG\x12@\x80\x14\xaeG\xe1z\xc4?\xcc\x7fH\xbf}\x1d\xed?\x00\x00\x00\x00\x00\x00\x00\x00'
p2179
tp2180
bsVcan
p2181
g22
(g23
(I0
tp2182
g25
tp2183
Rp2184
(I1
(I4
tp2185
g151
I00
S'\x00\x00\x00\x00\x00\x00\xf4\xbfH\xe1z\x14\xaeG\xe1\xbf\n\xd7\xa3p=\n\xef?\x00\x00\x00\x00\x00\x00\x00\x00'
p2186
tp2187
bsVright_wall
p2188
g22
(g23
(I0
tp2189
g25
tp2190
Rp2191
(I1
(I4
tp2192
g151
I00
S'\x9a\x99\x99\x99\x99\x99\x07@H\xe1z\x14\xaeG\xff\xbf\x9c\xc4 \xb0rh\xc1?\x00\x00\x00\x00\x00\x00\x00\x00'
p2193
tp2194
bsVcoffe_machine
p2195
g22
(g23
(I0
tp2196
g25
tp2197
Rp2198
(I1
(I4
tp2199
g151
I00
S'\\\x8f\xc2\xf5(\\\xf5\xbf\xb8\x1e\x85\xebQ\xb8\xee?\n\xd7\xa3p=\n\xef?\x00\x00\x00\x00\x00\x00\x00\x00'
p2200
tp2201
bsVcomputer_chair
p2202
g22
(g23
(I0
tp2203
g25
tp2204
Rp2205
(I1
(I4
tp2206
g151
I00
S'\xcd\xcc\xcc\xcc\xcc\xcc\x10@\x00\x00\x00\x00\x00\x00\xf8\xbf\xa00\xb6\x10\xe4\xa9\x95\xbf\x00\x00\x00\x00\x00\x00\x00\x00'
p2207
tp2208
bssS'robot_dof_values'
p2209
g22
(g23
(I0
tp2210
g25
tp2211
Rp2212
(I1
(I39
tp2213
g151
I00
S'\x00\x00\x00\x00\x00\x00\x00\x00\x00\x00\x00\x00\x00\x00\x00\x00\x00\x00\x00\x00\x00\x00\x00\x00\x00\x00\x00\x00\x00\x00\x00\x00\x00\x00\x00\x00\x00\x00\x00\x00\x00\x00\x00\x00\x00\x00\x00\x00\x00\x00\x00\x00\x00\x00\x00\x00\x00\x00\x00\x00\x00\x00\x00\x00\x00\x00\x00\x00\x00\x00\x00\x00\x00\x00\x00\x00\x00\x00\x00\x00\x00\x00\x00\x00\x00\x00\x00\x00\x00\x00\x00\x00\x00\x00\x00\x00@d;\xdfO\x8d\x87?\x00\x00\x00\x00\x00\x00\x00\x00\x00\x00\x00\x00\x00\x00\x00\x00\x00\x00\x00\x00\x00\x00\x00\x00\xec\xed\t\xf1\xcc\xa4\xf4?\x00\x00\x00\x00\x00\x00\x00\x00N"\xd0^p\xf8\x00\xc0\x00\x00\x00\x00\x00\x00\x00\x00\x9a\x03\r.\x04V\xe6\xbf\x00\x00\x00\x00\x00\x00\x00\x00\x00\x00\x00\x00\x00\x00\x00\x00\x00\x00\x00\x00\x00\x00\xbe\xbc\x00\x00\x00\x00\x00\x00\x00\x00\x00\x00\x00\x00\x00\x00\xd0\xbc\x00\x00\x00\x00\x00\x00\x00\x00\x00\x00\x00\x00\x00\x00\x00\x00\xec\xed\t\xf1\xcc\xa4\xf4?\x00\x00\x00\x00\x00\x00\xb0\xbcN"\xd0^p\xf8\x00\xc0\x00\x00\x00\x00\x00\x00\x00\x00\x9b\x03\r.\x04V\xe6\xbf\x00\x00\x00\x00\x00\x00\x00\x00\xcd9\xe3\xc17\x89\xe1?\x00\x00\x00\x00\x00\x00\xb6\xbc\x00\x00\x00\x00\x00\x00\x00\x00\x00\x00\x00\x00\x00\x00\xd0<\x00\x00\x00\x00\x00\x00\x00\x00'
p2214
tp2215
bsS'is_holding'
p2216
I00
sbsS'holding_collides'
p2217
NsS'parent_ternary_predicates'
p2218
(dp2219
sS'cached_place_paths'
p2220
(dp2221
(g734
g1044
tp2222
(lp2223
g22
(g23
(I0
tp2224
g25
tp2225
Rp2226
(I1
(I3
tp2227
g151
I00
S'\xe0\xb7\x93\xcc\xe0\x0c\x03@,\x1e)H\xec\\\x19\xc0\xf8\x035\xae-6\x17@'
p2228
tp2229
bas(g531
g142
tp2230
g205
s(g569
g142
tp2231
Ns(g840
g1044
tp2232
(lp2233
g22
(g23
(I0
tp2234
g25
tp2235
Rp2236
(I1
(I3
tp2237
g151
I00
S'\x82\xdbns\xd9\x0b\xf8?#\xf4E\xa0\xf5\x8e\x17\xc0\xc0\xed\x81\xe68\x1f\x18@'
p2238
tp2239
bas(g569
g1044
tp2240
(lp2241
g22
(g23
(I0
tp2242
g25
tp2243
Rp2244
(I1
(I3
tp2245
g151
I00
S'\x04p\xe4\xeb\xc1Y\n@\xe2\x96\xdb^/\x0b\x12\xc00t\xfb%\xeb\x9e\x13@'
p2246
tp2247
bas(g840
g142
tp2248
g397
s(g796
g1044
tp2249
(lp2250
g22
(g23
(I0
tp2251
g25
tp2252
Rp2253
(I1
(I3
tp2254
g151
I00
S',\x89\x97\xc0\xcen\xf9?\xaa*p\xcf52\x1a\xc0\xc0\xf7E\xfan^\x04@'
p2255
tp2256
bas(g796
g142
tp2257
g295
s(g12
g142
tp2258
g250
s(g530
g142
tp2259
g144
s(g530
g1044
tp2260
(lp2261
g22
(g23
(I0
tp2262
g25
tp2263
Rp2264
(I1
(I3
tp2265
g151
I00
S'7r\xb5\xe45\xdd\xea?\xd0z$k\xcbH\x1d\xc0\x17K\xa8E:E\t@'
p2266
tp2267
bas(g531
g1044
tp2268
(lp2269
g22
(g23
(I0
tp2270
g25
tp2271
Rp2272
(I1
(I3
tp2273
g151
I00
S'H]c\xbd.\xba\xf0?\xdeD?}\xa0=\x1a\xc0p\xc1dv\x1a\x86\x13@'
p2274
tp2275
bas(g12
g1044
tp2276
(lp2277
g22
(g23
(I0
tp2278
g25
tp2279
Rp2280
(I1
(I3
tp2281
g151
I00
S'_\xce\xa6\x0e\xd0E\xd8?\xb4\xcf\xd3\xda\xe7e\x1a\xc0\x97\xcev\x1bhw\xf8?'
p2282
tp2283
bas(g647
g1044
tp2284
(lp2285
g22
(g23
(I0
tp2286
g25
tp2287
Rp2288
(I1
(I3
tp2289
g151
I00
S'\x06\xf55U\xe8b\x07@\xe6{\xfa\xb7\x08\x86\x1d\xc0\xf9\xc3\x11\xd1\x872\x03@'
p2290
tp2291
bas(g647
g142
tp2292
g436
s(g734
g142
tp2293
g346
ssS'parent_binary_predicates'
p2294
(dp2295
sS'nodes'
p2296
(dp2297
g1047
(lp2298
I0
aI0
aI0
aI0
aI0
aI0
aI00
aI01
aI00
aI01
aI00
asg1044
(lp2299
I0
aI0
aI0
aI0
aI0
aI0
aI00
aI01
aI00
aI01
aI00
asg142
(lp2300
I0
aI0
aI0
aI0
aI0
aI0
aI00
aI01
aI01
aI01
aI00
asg976
(lp2301
I0
aI0
aI0
ag1615
(g151
S'$\xa8\n\xa1\x87\xf6\x0b@'
p2302
tp2303
Rp2304
ag1615
(g151
S'oAk\xfb\x98n\x15\xc0'
p2305
tp2306
Rp2307
ag1615
(g151
S'\x0f\xc9(\xb6)\x13\xca?'
p2308
tp2309
Rp2310
aI01
aI00
aI00
aI00
aI00
asg434
(lp2311
I0
aI0
aI0
ag1615
(g151
S'L\xb0]-\x1c\x8a\x02@'
p2312
tp2313
Rp2314
ag1615
(g151
S'\xea\x17\x96\xa5\x8am\x1b\xc0'
p2315
tp2316
Rp2317
ag1615
(g151
S'y\xb6\x830\xc9\xec\xe7?'
p2318
tp2319
Rp2320
aI01
aI00
aI00
aI00
aI00
asg141
(lp2321
I0
aI0
aI0
ag1615
(g151
S'\x80\xdf\x941"\xa0\xc3?'
p2322
tp2323
Rp2324
ag1615
(g151
S'4\t>\x12O\xec\x1e\xc0'
p2325
tp2326
Rp2327
ag1615
(g151
S'"\xda\x02N\x86\xcf\xff?'
p2328
tp2329
Rp2330
aI01
aI00
aI00
aI01
aI00
asg344
(lp2331
I0
aI0
aI0
ag1615
(g151
S'\xaes\x16\xdbs\xf0\x07@'
p2332
tp2333
Rp2334
ag1615
(g151
S'\xa4a\x04\x1d\x9eZ\x1b\xc0'
p2335
tp2336
Rp2337
ag1615
(g151
S'\x9d\xffvV\x93\xe1\x06@'
p2338
tp2339
Rp2340
aI01
aI00
aI00
aI00
aI00
asg293
(lp2341
I0
aI0
aI0
ag1615
(g151
S'\xa28]Y\xe3\xa8\xf1?'
p2342
tp2343
Rp2344
ag1615
(g151
S'\xd8\xfaz2\x02z\x18\xc0'
p2345
tp2346
Rp2347
ag1615
(g151
S'\x99\x013\xd4\x1a\xdb\x05@'
p2348
tp2349
Rp2350
aI01
aI00
aI00
aI00
aI00
asg395
(lp2351
I0
aI0
aI0
ag1615
(g151
S'T\xb3\xcd\xd0\xa4\x9a\x00@'
p2352
tp2353
Rp2354
ag1615
(g151
S'\xe7e\x85O\xf8u\x18\xc0'
p2355
tp2356
Rp2357
ag1615
(g151
S'\x85b\xd7\x89\x07\xb9\xfc?'
p2358
tp2359
Rp2360
aI01
aI00
aI00
aI00
aI00
asg248
(lp2361
I0
aI0
aI0
ag1615
(g151
S'@\x02\xa9\xff\x19o\xd9?'
p2362
tp2363
Rp2364
ag1615
(g151
S'<\xca\xc4`b\xab\x17\xc0'
p2365
tp2366
Rp2367
ag1615
(g151
S'\xdd\xaesz\xc4"\x11@'
p2368
tp2369
Rp2370
aI01
aI00
aI01
aI01
aI00
asg203
(lp2371
I0
aI0
aI0
ag1615
(g151
S'\x82>C|/w\xf6?'
p2372
tp2373
Rp2374
ag1615
(g151
S')\xc5q\nj\xe7\x1c\xc0'
p2375
tp2376
Rp2377
ag1615
(g151
S'\x92\xe0R\x9e\xf1\x99\x00@'
p2378
tp2379
Rp2380
aI01
aI00
aI00
aI01
aI00
assS'mc_place_path'
p2381
(dp2382
sS'parent_state'
p2383
NsS'goal_entities'
p2384
(lp2385
S'square_packing_box1'
p2386
ag142
asS'binary_edges'
p2387
(dp2388
(g293
g203
tp2389
(lp2390
I00
aI00
aI00
as(g293
g976
tp2391
(lp2392
I00
aI01
aI00
as(g141
g395
tp2393
(lp2394
I00
aI00
aI00
as(g141
g141
tp2395
(lp2396
I00
aI00
aI00
as(g434
g395
tp2397
(lp2398
I00
aI00
aI00
as(g434
g141
tp2399
(lp2400
I00
aI00
aI00
as(g203
g434
tp2401
(lp2402
I00
aI01
aI00
as(g293
g248
tp2403
(lp2404
I00
aI00
aI00
as(g344
g141
tp2405
(lp2406
I00
aI00
aI00
as(g976
g976
tp2407
(lp2408
I00
aI00
aI00
as(g434
g1044
tp2409
(lp2410
g1615
(g29
(S'b1'
p2411
I0
I1
tp2412
Rp2413
(I3
S'|'
p2414
NNNI-1
I-1
I0
tp2415
bS'\x01'
p2416
tp2417
Rp2418
aI00
aI01
as(g1047
g1044
tp2419
(lp2420
I00
aI00
aI00
as(g976
g203
tp2421
(lp2422
I00
aI00
aI00
as(g1044
g203
tp2423
(lp2424
I00
aI00
aI00
as(g248
g142
tp2425
(lp2426
I00
aI00
aI00
as(g1047
g434
tp2427
(lp2428
I00
aI00
aI00
as(g434
g203
tp2429
(lp2430
I00
aI00
aI00
as(g141
g1047
tp2431
(lp2432
g2418
aI00
aI00
as(g293
g293
tp2433
(lp2434
I00
aI00
aI00
as(g1044
g293
tp2435
(lp2436
I00
aI00
aI00
as(g395
g434
tp2437
(lp2438
I00
aI00
aI00
as(g434
g142
tp2439
(lp2440
I00
aI00
aI00
as(g344
g395
tp2441
(lp2442
I00
aI00
aI00
as(g976
g344
tp2443
(lp2444
I00
aI00
aI00
as(g248
g248
tp2445
(lp2446
I00
aI00
aI00
as(g434
g1047
tp2447
(lp2448
g2418
aI00
aI00
as(g1044
g434
tp2449
(lp2450
I00
aI00
aI00
as(g1044
g395
tp2451
(lp2452
I00
aI00
aI00
as(g1044
g141
tp2453
(lp2454
I00
aI00
aI00
as(g395
g142
tp2455
(lp2456
I00
aI00
aI00
as(g203
g976
tp2457
(lp2458
I00
aI00
aI00
as(g344
g976
tp2459
(lp2460
I00
aI00
aI00
as(g395
g344
tp2461
(lp2462
I00
aI01
aI00
as(g1044
g976
tp2463
(lp2464
I00
aI00
aI00
as(g1047
g142
tp2465
(lp2466
I00
aI00
aI00
as(g248
g434
tp2467
(lp2468
I00
aI00
aI00
as(g976
g395
tp2469
(lp2470
I00
aI00
aI00
as(g1047
g395
tp2471
(lp2472
I00
aI00
aI00
as(g395
g1047
tp2473
(lp2474
g2418
aI00
aI00
as(g141
g293
tp2475
(lp2476
I00
aI00
aI00
as(g203
g248
tp2477
(lp2478
I00
aI00
aI00
as(g141
g434
tp2479
(lp2480
I00
aI00
aI00
as(g203
g142
tp2481
(lp2482
I00
aI00
aI00
as(g1047
g1047
tp2483
(lp2484
I00
aI00
aI00
as(g395
g976
tp2485
(lp2486
I00
aI01
aI00
as(g248
g293
tp2487
(lp2488
I00
aI01
aI00
as(g142
g248
tp2489
(lp2490
I00
aI00
aI00
as(g344
g1044
tp2491
(lp2492
g2418
aI00
aI01
as(g142
g344
tp2493
(lp2494
I00
aI00
aI00
as(g203
g141
tp2495
(lp2496
I00
aI00
aI00
as(g141
g248
tp2497
(lp2498
I00
aI00
aI00
as(g395
g1044
tp2499
(lp2500
g2418
aI00
aI01
as(g141
g344
tp2501
(lp2502
I00
aI00
aI00
as(g395
g395
tp2503
(lp2504
I00
aI00
aI00
as(g344
g434
tp2505
(lp2506
I00
aI00
aI00
as(g1044
g142
tp2507
(lp2508
I00
aI00
aI00
as(g142
g293
tp2509
(lp2510
I00
aI00
aI00
as(g976
g142
tp2511
(lp2512
I00
aI00
aI00
as(g1047
g344
tp2513
(lp2514
I00
aI00
aI00
as(g142
g203
tp2515
(lp2516
I00
aI00
aI00
as(g141
g203
tp2517
(lp2518
I00
aI00
aI00
as(g344
g1047
tp2519
(lp2520
g2418
aI00
aI00
as(g203
g1044
tp2521
(lp2522
g2418
aI00
aI01
as(g344
g293
tp2523
(lp2524
I00
aI00
aI00
as(g976
g434
tp2525
(lp2526
I00
aI00
aI00
as(g976
g1044
tp2527
(lp2528
g2418
aI00
aI01
as(g142
g141
tp2529
(lp2530
I00
aI00
aI00
as(g1047
g203
tp2531
(lp2532
I00
aI00
aI00
as(g1047
g976
tp2533
(lp2534
I00
aI00
aI00
as(g344
g142
tp2535
(lp2536
I00
aI00
aI00
as(g293
g344
tp2537
(lp2538
I00
aI01
aI00
as(g248
g344
tp2539
(lp2540
I00
aI01
aI00
as(g142
g395
tp2541
(lp2542
I00
aI00
aI00
as(g1044
g1044
tp2543
(lp2544
I00
aI00
aI00
as(g293
g141
tp2545
(lp2546
I00
aI00
aI00
as(g248
g395
tp2547
(lp2548
I00
aI01
aI00
as(g1044
g248
tp2549
(lp2550
I00
aI00
aI00
as(g434
g976
tp2551
(lp2552
I00
aI00
aI00
as(g1044
g344
tp2553
(lp2554
I00
aI00
aI00
as(g248
g1047
tp2555
(lp2556
g2418
aI00
aI00
as(g293
g434
tp2557
(lp2558
I00
aI00
aI00
as(g141
g142
tp2559
(lp2560
I00
aI00
aI00
as(g248
g976
tp2561
(lp2562
I00
aI01
aI00
as(g976
g248
tp2563
(lp2564
I00
aI00
aI00
as(g434
g248
tp2565
(lp2566
I00
aI00
aI00
as(g1047
g293
tp2567
(lp2568
I00
aI00
aI00
as(g434
g344
tp2569
(lp2570
I00
aI01
aI00
as(g395
g293
tp2571
(lp2572
I00
aI00
aI00
as(g293
g1044
tp2573
(lp2574
g2418
aI00
aI01
as(g344
g344
tp2575
(lp2576
I00
aI00
aI00
as(g203
g293
tp2577
(lp2578
I00
aI00
aI00
as(g248
g203
tp2579
(lp2580
I00
aI00
aI00
as(g434
g293
tp2581
(lp2582
I00
aI00
aI00
as(g434
g434
tp2583
(lp2584
I00
aI00
aI00
as(g203
g344
tp2585
(lp2586
I00
aI00
aI00
as(g293
g142
tp2587
(lp2588
I00
aI00
aI00
as(g395
g248
tp2589
(lp2590
I00
aI00
aI00
as(g141
g1044
tp2591
(lp2592
g2418
aI00
aI01
as(g142
g434
tp2593
(lp2594
I00
aI00
aI00
as(g344
g248
tp2595
(lp2596
I00
aI00
aI00
as(g976
g141
tp2597
(lp2598
I00
aI00
aI00
as(g142
g1044
tp2599
(lp2600
I00
aI00
aI00
as(g293
g395
tp2601
(lp2602
I00
aI01
aI00
as(g1047
g141
tp2603
(lp2604
I00
aI00
aI00
as(g293
g1047
tp2605
(lp2606
g2418
aI00
aI00
as(g395
g141
tp2607
(lp2608
I00
aI00
aI00
as(g142
g142
tp2609
(lp2610
I00
aI00
aI00
as(g344
g203
tp2611
(lp2612
I00
aI00
aI00
as(g976
g1047
tp2613
(lp2614
g2418
aI00
aI00
as(g203
g1047
tp2615
(lp2616
g2418
aI00
aI00
as(g142
g1047
tp2617
(lp2618
I00
aI00
aI00
as(g142
g976
tp2619
(lp2620
I00
aI00
aI00
as(g395
g203
tp2621
(lp2622
I00
aI00
aI00
as(g203
g395
tp2623
(lp2624
I00
aI00
aI00
as(g141
g976
tp2625
(lp2626
I00
aI00
aI00
as(g1044
g1047
tp2627
(lp2628
I00
aI00
aI00
as(g248
g141
tp2629
(lp2630
I00
aI00
aI00
as(g976
g293
tp2631
(lp2632
I00
aI00
aI00
as(g203
g203
tp2633
(lp2634
I00
aI00
aI00
as(g248
g1044
tp2635
(lp2636
g2418
aI00
aI01
as(g1047
g248
tp2637
(lp2638
I00
aI00
aI00
assg528
g529
sS'pick_in_way'
p2639
(itrajectory_representation.predicates.pick_in_way
PickInWay
p2640
(dp2641
g139
(dp2642
g976
g610
sg434
g672
sg141
g715
sg344
g771
sg293
g821
sg395
g877
sg248
g907
sg203
g950
ssg497
(dp2643
g976
(lp2644
Vsquare_packing_box1
p2645
aVsquare_packing_box2
p2646
aVsquare_packing_box3
p2647
aVrectangular_packing_box4
p2648
asg434
(lp2649
Vsquare_packing_box4
p2650
asg141
(lp2651
sg344
(lp2652
Vsquare_packing_box1
p2653
aVsquare_packing_box2
p2654
aVsquare_packing_box3
p2655
aVrectangular_packing_box2
p2656
asg293
(lp2657
Vsquare_packing_box1
p2658
aVsquare_packing_box2
p2659
asg395
(lp2660
Vsquare_packing_box1
p2661
aVsquare_packing_box2
p2662
asg248
(lp2663
sg203
(lp2664
ssg528
(lp2665
g141
ag203
ag1047
ag142
ag1044
ag248
ag1047
ag142
ag1044
ag1047
ag142
ag1044
ag1047
ag142
ag1044
ag1047
ag142
ag1044
ag1047
ag142
ag1044
ag1047
ag142
ag1044
ag1047
ag142
ag1044
asg532
g533
sg78
(dp2666
sg567
g568
sg971
Nsg978
g568
sg974
(dp2667
sg977
I8
sg1039
I01
sg979
Nsg980
(dp2668
(g293
g203
tp2669
I00
s(g293
g976
tp2670
I01
s(g141
g395
tp2671
I00
s(g141
g141
tp2672
I00
s(g434
g395
tp2673
I00
s(g434
g141
tp2674
I00
s(g203
g434
tp2675
I01
s(g293
g248
tp2676
I00
s(g344
g141
tp2677
I00
s(g976
g976
tp2678
I00
s(g434
g1044
tp2679
I00
s(g1047
g1044
tp2680
I00
s(g976
g203
tp2681
I00
s(g1044
g203
tp2682
I00
s(g248
g142
tp2683
I00
s(g1047
g434
tp2684
I00
s(g434
g203
tp2685
I00
s(g141
g1047
tp2686
I00
s(g293
g293
tp2687
I00
s(g1044
g293
tp2688
I00
s(g395
g434
tp2689
I00
s(g434
g142
tp2690
I00
s(g344
g395
tp2691
I00
s(g976
g344
tp2692
I00
s(g248
g248
tp2693
I00
s(g434
g1047
tp2694
I00
s(g1044
g434
tp2695
I00
s(g1044
g395
tp2696
I00
s(g1044
g141
tp2697
I00
s(g395
g142
tp2698
I00
s(g203
g976
tp2699
I00
s(g344
g976
tp2700
I00
s(g395
g344
tp2701
I01
s(g1044
g976
tp2702
I00
s(g1047
g142
tp2703
I00
s(g248
g434
tp2704
I00
s(g976
g395
tp2705
I00
s(g1047
g395
tp2706
I00
s(g395
g1047
tp2707
I00
s(g141
g293
tp2708
I00
s(g203
g248
tp2709
I00
s(g141
g434
tp2710
I00
s(g203
g142
tp2711
I00
s(g1047
g1047
tp2712
I00
s(g395
g976
tp2713
I01
s(g248
g293
tp2714
I01
s(g142
g248
tp2715
I00
s(g344
g1044
tp2716
I00
s(g142
g344
tp2717
I00
s(g203
g141
tp2718
I00
s(g141
g248
tp2719
I00
s(g395
g1044
tp2720
I00
s(g141
g344
tp2721
I00
s(g395
g395
tp2722
I00
s(g344
g434
tp2723
I00
s(g1044
g142
tp2724
I00
s(g142
g293
tp2725
I00
s(g976
g142
tp2726
I00
s(g1047
g344
tp2727
I00
s(g142
g203
tp2728
I00
s(g141
g203
tp2729
I00
s(g344
g1047
tp2730
I00
s(g203
g1044
tp2731
I00
s(g344
g293
tp2732
I00
s(g976
g434
tp2733
I00
s(g976
g1044
tp2734
I00
s(g142
g141
tp2735
I00
s(g1047
g203
tp2736
I00
s(g1047
g976
tp2737
I00
s(g344
g142
tp2738
I00
s(g293
g344
tp2739
I01
s(g248
g344
tp2740
I01
s(g142
g395
tp2741
I00
s(g1044
g1044
tp2742
I00
s(g293
g141
tp2743
I00
s(g248
g395
tp2744
I01
s(g1044
g248
tp2745
I00
s(g434
g976
tp2746
I00
s(g1044
g344
tp2747
I00
s(g248
g1047
tp2748
I00
s(g293
g434
tp2749
I00
s(g141
g142
tp2750
I00
s(g248
g976
tp2751
I01
s(g976
g248
tp2752
I00
s(g434
g248
tp2753
I00
s(g1047
g293
tp2754
I00
s(g434
g344
tp2755
I01
s(g395
g293
tp2756
I00
s(g293
g1044
tp2757
I00
s(g344
g344
tp2758
I00
s(g203
g293
tp2759
I00
s(g248
g203
tp2760
I00
s(g434
g293
tp2761
I00
s(g434
g434
tp2762
I00
s(g203
g344
tp2763
I00
s(g293
g142
tp2764
I00
s(g395
g248
tp2765
I00
s(g141
g1044
tp2766
I00
s(g142
g434
tp2767
I00
s(g344
g248
tp2768
I00
s(g976
g141
tp2769
I00
s(g142
g1044
tp2770
I00
s(g293
g395
tp2771
I01
s(g1047
g141
tp2772
I00
s(g293
g1047
tp2773
I00
s(g395
g141
tp2774
I00
s(g142
g142
tp2775
I00
s(g344
g203
tp2776
I00
s(g976
g1047
tp2777
I00
s(g203
g1047
tp2778
I00
s(g142
g1047
tp2779
I00
s(g142
g976
tp2780
I00
s(g395
g203
tp2781
I00
s(g203
g395
tp2782
I00
s(g141
g976
tp2783
I00
s(g1044
g1047
tp2784
I00
s(g248
g141
tp2785
I00
s(g976
g293
tp2786
I00
s(g203
g203
tp2787
I00
s(g248
g1044
tp2788
I00
s(g1047
g248
tp2789
I00
ssg1038
NsbsS'robot_pose'
p2790
g22
(g23
(I0
tp2791
g25
tp2792
Rp2793
(I1
(I1
I3
tp2794
g151
I00
S'\xf0\xc4\x9e\xf1\x97\x85\xc4\xbfL|j`"+\x19\xc0\x83\x01\xfa\xbf9\xc5\x04@'
p2795
tp2796
bsS'is_holding_goal_entity'
p2797
(itrajectory_representation.predicates.is_holding_goal_entity
IsHoldingGoalEntity
p2798
(dp2799
g2384
g2385
sg979
NsbsS'mc_pick_path'
p2800
(dp2801
sS'current_collides'
p2802
g533
sbasS'seed'
p2803
NsS'state_prime'
p2804
(lp2805
sS'problem_idx'
p2806
I272
sb.