(itrajectory_representation.trajectory
Trajectory
p0
(dp1
S'rewards'
p2
(lp3
I10
asS'actions'
p4
(lp5
(itrajectory_representation.operator
Operator
p6
(dp7
S'is_skeleton'
p8
I00
sS'discrete_parameters'
p9
(dp10
S'object'
p11
Vsquare_packing_box1
p12
sS'two_arm_place_region'
p13
S'home_region'
p14
sS'two_arm_place_object'
p15
Vsquare_packing_box1
p16
ssS'type'
p17
S'two_arm_pick_two_arm_place'
p18
sS'continuous_parameters'
p19
(dp20
S'q_goal'
p21
cnumpy.core.multiarray
_reconstruct
p22
(cnumpy
ndarray
p23
(I0
tp24
S'b'
p25
tp26
Rp27
(I1
(I3
tp28
cnumpy
dtype
p29
(S'f8'
p30
I0
I1
tp31
Rp32
(I3
S'<'
p33
NNNI-1
I-1
I0
tp34
bI00
S"I0\x11B:b\xf1?\xe5\xd8\x99\xe7;\xb1\x18\xc0'\xc8\x0b\xe2Pc\xda\xbf"
p35
tp36
bsS'place'
p37
(dp38
g21
g22
(g23
(I0
tp39
g25
tp40
Rp41
(I1
(I3
tp42
g32
I00
S'\x94\xf4\xb2\x04K\xe5\xeb?^\xb6\xca`\r\xc2\x05\xc0\x14\xea\xf1+\x1d\x11\x00@'
p43
tp44
bssS'pick'
p45
(dp46
g21
g27
sssS'low_level_motion'
p47
(lp48
g22
(g23
(I0
tp49
g25
tp50
Rp51
(I1
(I3
tp52
g32
I00
S'hZK\xc34\xa3\xd9?9\xe2\xa5\xce\xf5A\x16\xc0\xfa\x97W\xe2\xfa\x15\xf2?'
p53
tp54
bag22
(g23
(I0
tp55
g25
tp56
Rp57
(I1
(I3
tp58
g29
(S'f8'
p59
I0
I1
tp60
Rp61
(I3
S'<'
p62
NNNI-1
I-1
I0
tp63
bI00
S'\xd8\x87\x03p)T\xe4?\xd5\xabI\xb7V\xd0\x15\xc0vWg\x9a\x87\x8a\xec?'
p64
tp65
bag22
(g23
(I0
tp66
g25
tp67
Rp68
(I1
(I3
tp69
g61
I00
S",0}\x1d\xd8'\xe3?\x1a_'\xd6T\x08\x17\xc0A\xde\xdb2\xd8\xd0\x14@"
p70
tp71
bag27
ag27
asbasS'filename'
p72
S''
p73
sS'states'
p74
(lp75
(itrajectory_representation.shortest_path_pick_and_place_state
ShortestPathPaPState
p76
(dp77
S'place_used'
p78
(dp79
(g16
g14
tp80
(itrajectory_representation.operator
Operator
p81
(dp82
g8
I01
sg9
(dp83
S'region'
p84
g14
sg11
g16
ssg17
S'two_arm_place'
p85
sg19
(dp86
g21
g22
(g23
(I0
tp87
g25
tp88
Rp89
(I1
(I3
tp90
g32
I00
S'\x94\xf4\xb2\x04K\xe5\xeb?^\xb6\xca`\r\xc2\x05\xc0\x14\xea\xf1+\x1d\x11\x00@'
p91
tp92
bssg47
(lp93
g22
(g23
(I0
tp94
g25
tp95
Rp96
(I1
(I3
tp97
g32
I00
S'V0\x11B:b\xf1?\xe6\xd8\x99\xe7;\xb1\x18\xc0.\xc8\x0b\xe2Pc\xda\xbf'
p98
tp99
bag22
(g23
(I0
tp100
g25
tp101
Rp102
(I1
(I3
tp103
g61
I00
S",0}\x1d\xd8'\xe3?\x1a_'\xd6T\x08\x17\xc0A\xde\xdb2\xd8\xd0\x14@"
p104
tp105
bag22
(g23
(I0
tp106
g25
tp107
Rp108
(I1
(I3
tp109
g61
I00
S'\xa5P\xd1\x87\x88:\xe5?\xd8\xf1\xd1l\xc6\x00\x15\xc0{\xeaM\xb0\xfa\x02\x0e@'
p110
tp111
bag22
(g23
(I0
tp112
g25
tp113
Rp114
(I1
(I3
tp115
g61
I00
S'\xc6\x05\xbdtg\xd9\xe2?F\xdf\x9d@\\\xf3\x11\xc0\x1a\xc4.\xbb\xcc\x12\x02@'
p116
tp117
bag22
(g23
(I0
tp118
g25
tp119
Rp120
(I1
(I3
tp121
g61
I00
S'\xe4u**\x0e5\xe9?\xaa\xfd\r\xed\xc4\xf6\r\xc0\x0fDE0\x1f\x0b\xfe?'
p122
tp123
bag22
(g23
(I0
tp124
g25
tp125
Rp126
(I1
(I3
tp127
g61
I00
S'\xd1\xaa\x15!\x8c\x06\xed?\x8c\xab\xab^w\xe3\t\xc0~&\xcc\xa2\xcbw\xf6?'
p128
tp129
bag89
ag89
asbssS'place_in_way'
p130
(itrajectory_representation.predicates.place_in_way
PlaceInWay
p131
(dp132
S'mc_path_to_entity'
p133
(dp134
(Vrectangular_packing_box3
p135
S'home_region'
p136
tp137
(lp138
g22
(g23
(I0
tp139
g25
tp140
Rp141
(I1
(I3
tp142
g29
(S'f8'
p143
I0
I1
tp144
Rp145
(I3
S'<'
p146
NNNI-1
I-1
I0
tp147
bI00
S'\x08W\\\xb8\xe3Q\x03@\xb2\x12\xad\xb7\x11\xe2\x1b\xc0\xedeC:\xfb*\x15@'
p148
tp149
bag22
(g23
(I0
tp150
g25
tp151
Rp152
(I1
(I3
tp153
g29
(S'f8'
p154
I0
I1
tp155
Rp156
(I3
S'<'
p157
NNNI-1
I-1
I0
tp158
bI00
S'\x05\x83iK\x01\x86\xfb?\x162zB{\xdc\x1a\xc0T\xd8\x04\x17\xd4b\xea\xbf'
p159
tp160
bag22
(g23
(I0
tp161
g25
tp162
Rp163
(I1
(I3
tp164
g156
I00
S"'\xc1{\xbc\xf6\x05\xf8?\x02^\x18\xdc\xb7\xac\x18\xc0o\x85MZ3\x91\xf3\xbf"
p165
tp166
bag22
(g23
(I0
tp167
g25
tp168
Rp169
(I1
(I3
tp170
g156
I00
S'2Z\xe1\xe97J\xf6?\\\x1e`@2v\x16\xc0\xc4\x0c\xcc\x14<\xf9\xf6\xbf'
p171
tp172
bag22
(g23
(I0
tp173
g25
tp174
Rp175
(I1
(I3
tp176
g156
I00
S'tx\x8as\xa8b\xed?\x9ej\x15\xfa\xf0{\x15\xc0@\xed\x9a-\x9eD\xf2\xbf'
p177
tp178
bag22
(g23
(I0
tp179
g25
tp180
Rp181
(I1
(I3
tp182
g156
I00
S"\xb2&6mg)\xe8?\x99\xe0G'\x16\xe0\x13\xc0\xc8oL\xf5\x17p\xe6\xbf"
p183
tp184
bag22
(g23
(I0
tp185
g25
tp186
Rp187
(I1
(I3
tp188
g156
I00
S'`\xc8Aw-\x81\xeb?/\xc3\xe6O\x04\xca\x10\xc0\x8a\xb7K)\x91{\xe4\xbf'
p189
tp190
bag22
(g23
(I0
tp191
g25
tp192
Rp193
(I1
(I3
tp194
g156
I00
S'\xe1\xc6\xc7\xa7\x12X\xe7?\x98\x99\xb0\x9a\xfb\xdb\x0b\xc0R\t\x1b)\xeae\xe0\xbf'
p195
tp196
bag22
(g23
(I0
tp197
g25
tp198
Rp199
(I1
(I3
tp200
g156
I00
S'p\xf1\xbdc^\x84\xf1?"\x88LL\xf9D\x06\xc0~w\r\xe9m\x0f\x19@'
p201
tp202
bas(Vsquare_packing_box4
p203
g136
tp204
(lp205
g22
(g23
(I0
tp206
g25
tp207
Rp208
(I1
(I3
tp209
g145
I00
S'\n\x93\x1e\x98\x85\xef\x06@n 4\xcc\xea\x01\x18\xc0~x\xce;M\x02\x08@'
p210
tp211
bag22
(g23
(I0
tp212
g25
tp213
Rp214
(I1
(I3
tp215
g156
I00
S'\xf8d\x877\x12\xfd\x04@h\xdbW\x9a\x83\x8e\x16\xc0\x87\xf16\xb9\x03k\x05@'
p216
tp217
bag22
(g23
(I0
tp218
g25
tp219
Rp220
(I1
(I3
tp221
g156
I00
S'\xc7\xc7\x06s\xd6\xa3\xff?3\x91\xe4\x97\xb5\x07\x16\xc0\x1bW\xbc\xbfY:\x06@'
p222
tp223
bag22
(g23
(I0
tp224
g25
tp225
Rp226
(I1
(I3
tp227
g156
I00
S'\x85\\2\xba\x0b5\xf5?I\r\x06\xd10\xfb\x15\xc0\x9e\x11\xee\xd8\xb9\xd7\xf5?'
p228
tp229
bag22
(g23
(I0
tp230
g25
tp231
Rp232
(I1
(I3
tp233
g156
I00
S'v\xb8^\x85\xa7[\xea?x\xbe\xff2t\x8d\x13\xc0\x88\x85\x8cCyH\xf6?'
p234
tp235
bag22
(g23
(I0
tp236
g25
tp237
Rp238
(I1
(I3
tp239
g156
I00
S'\xc2\xda(e\x83\x1a\xeb?\x8au\x8d3\xa6E\x11\xc0\xb4c\x1b\xed_\xfd\xfa?'
p240
tp241
bag22
(g23
(I0
tp242
g25
tp243
Rp244
(I1
(I3
tp245
g156
I00
S'\xe4u**\x0e5\xe9?\xaa\xfd\r\xed\xc4\xf6\r\xc0\x0fDE0\x1f\x0b\xfe?'
p246
tp247
bag22
(g23
(I0
tp248
g25
tp249
Rp250
(I1
(I3
tp251
g156
I00
S'\x06\x11,\xef\x98O\xe7??\x10\x01s=b\t\xc04\x92\xb79o\x8c\x00@'
p252
tp253
bag22
(g23
(I0
tp254
g25
tp255
Rp256
(I1
(I3
tp257
g156
I00
S'\x92\xaf\xf3P\x96O\xc2?(\xa1:\x8er}\x05\xc0\xd4_\x91\xb3\xffL\x02@'
p258
tp259
bas(Vrectangular_packing_box1
p260
g136
tp261
(lp262
g22
(g23
(I0
tp263
g25
tp264
Rp265
(I1
(I3
tp266
g145
I00
S'E{\xc7\xca\xd7h\t@\x0cG)g\xbe\x12\x1d\xc0\xa8\x9cZ\xa1p\xab\xf4?'
p267
tp268
bag22
(g23
(I0
tp269
g25
tp270
Rp271
(I1
(I3
tp272
g156
I00
S'\xe8[\xb2\xaa\xa5@\x04@(j\r1!I\x1b\xc0Xj\x8bx\xc9`\xfc?'
p273
tp274
bag22
(g23
(I0
tp275
g25
tp276
Rp277
(I1
(I3
tp278
g156
I00
S'\xf60LV\xe8\x96\x00@\x9aEw{a\xe2\x18\xc0^\xa8\x8a,\xa3\x98\x00@'
p279
tp280
bag22
(g23
(I0
tp281
g25
tp282
Rp283
(I1
(I3
tp284
g156
I00
S'\xe0 ;\x819w\xfd?\xe7\xcc\xc2\xa0\xa5f\x17\xc04\xedq\x1c\x8eK\xfa?'
p285
tp286
bag22
(g23
(I0
tp287
g25
tp288
Rp289
(I1
(I3
tp290
g156
I00
S'\x85\\2\xba\x0b5\xf5?I\r\x06\xd10\xfb\x15\xc0\x9e\x11\xee\xd8\xb9\xd7\xf5?'
p291
tp292
bag22
(g23
(I0
tp293
g25
tp294
Rp295
(I1
(I3
tp296
g156
I00
S'v\xb8^\x85\xa7[\xea?x\xbe\xff2t\x8d\x13\xc0\x88\x85\x8cCyH\xf6?'
p297
tp298
bag22
(g23
(I0
tp299
g25
tp300
Rp301
(I1
(I3
tp302
g156
I00
S'\xc2\xda(e\x83\x1a\xeb?\x8au\x8d3\xa6E\x11\xc0\xb4c\x1b\xed_\xfd\xfa?'
p303
tp304
bag22
(g23
(I0
tp305
g25
tp306
Rp307
(I1
(I3
tp308
g156
I00
S'\xe4u**\x0e5\xe9?\xaa\xfd\r\xed\xc4\xf6\r\xc0\x0fDE0\x1f\x0b\xfe?'
p309
tp310
bag22
(g23
(I0
tp311
g25
tp312
Rp313
(I1
(I3
tp314
g156
I00
S'\x06\x11,\xef\x98O\xe7??\x10\x01s=b\t\xc04\x92\xb79o\x8c\x00@'
p315
tp316
bag22
(g23
(I0
tp317
g25
tp318
Rp319
(I1
(I3
tp320
g156
I00
S'\x92\xaf\xf3P\x96O\xc2?(\xa1:\x8er}\x05\xc0\xd4_\x91\xb3\xffL\x02@'
p321
tp322
bas(Vsquare_packing_box2
p323
g136
tp324
(lp325
g22
(g23
(I0
tp326
g25
tp327
Rp328
(I1
(I3
tp329
g145
I00
S'\x984\xec\x0b\x98\xa5\x05@$\x12\x07\x96\xb5C\x1a\xc0mC\xa7\xf5\xbb\xe5\x0b@'
p330
tp331
bag22
(g23
(I0
tp332
g25
tp333
Rp334
(I1
(I3
tp335
g156
I00
S'\xac)\x94\xc9\xc1\xda\x03@>\xa9\\\xfe\x1d\xeb\x18\xc0\x03\xc0\n\xd21\x11\x08@'
p336
tp337
bag22
(g23
(I0
tp338
g25
tp339
Rp340
(I1
(I3
tp341
g156
I00
S'\xeaT\xc2\xbf\xe4\x8d\xfb?L\xe4y~t"\x18\xc0\x0f\x12ob\\\x05\x0b@'
p342
tp343
bag22
(g23
(I0
tp344
g25
tp345
Rp346
(I1
(I3
tp347
g156
I00
S'\x84\xa2s4\xa1\xd0\xf6?E=|\xb9\xcam\x17\xc0\xa93^V\xfc\xed\x05@'
p348
tp349
bag22
(g23
(I0
tp350
g25
tp351
Rp352
(I1
(I3
tp353
g156
I00
S'f\xb4\x9c\x07\xac\xbf\xec?n\x96\x96\x9e\x90n\x16\xc0uo!\xa9\x9b\x82\x07@'
p354
tp355
bag22
(g23
(I0
tp356
g25
tp357
Rp358
(I1
(I3
tp359
g156
I00
S'm\xd5h\x072\x03\xea?\xdf\xe5\xe82\xd3\x17\x14\xc0\x08\x9e\xe1\xfbO\x94\x08@'
p360
tp361
bag22
(g23
(I0
tp362
g25
tp363
Rp364
(I1
(I3
tp365
g156
I00
S'\x97\xff-a\x91r\xf0?\x1a\x15\xfe\xb9:\x1b\x12\xc0\nG\xfe\xfa~y\x05@'
p366
tp367
bag22
(g23
(I0
tp368
g25
tp369
Rp370
(I1
(I3
tp371
g156
I00
S'y\xd4\xbc{`\x0b\xf2?\xb0C6m\xb7\xd6\x0e\xc0\xe8\xe2r\xbe\x16{\xf5?'
p372
tp373
bag22
(g23
(I0
tp374
g25
tp375
Rp376
(I1
(I3
tp377
g156
I00
S'\xd1\xaa\x15!\x8c\x06\xed?\x8c\xab\xab^w\xe3\t\xc0~&\xcc\xa2\xcbw\xf6?'
p378
tp379
bag22
(g23
(I0
tp380
g25
tp381
Rp382
(I1
(I3
tp383
g156
I00
S'3\xe9\xaf\x05T\x89\xe7?+~\xcb\xd3\x15\xc7\x04\xc0x6(d5\xed\x07@'
p384
tp385
bas(Vsquare_packing_box3
p386
g136
tp387
(lp388
g22
(g23
(I0
tp389
g25
tp390
Rp391
(I1
(I3
tp392
g145
I00
S'\x07\xab\x8a\xe1b\xdb\x03@\x13\xc5\x0c\x1eG\x91\x1d\xc0\x8d\xc8\x1b\xe9_\xaa\x0c@'
p393
tp394
bag22
(g23
(I0
tp395
g25
tp396
Rp397
(I1
(I3
tp398
g156
I00
S'2]\x933g}\x00@\xebx\x00&R!\x1b\xc0\xce\x170ZD}\x00\xc0'
p399
tp400
bag22
(g23
(I0
tp401
g25
tp402
Rp403
(I1
(I3
tp404
g156
I00
S'4#\xe8i\x80D\xf8?\xdd\x1dlTl\\\x19\xc0m\xc1\x1a\xec\xde\x01\x01\xc0'
p405
tp406
bag22
(g23
(I0
tp407
g25
tp408
Rp409
(I1
(I3
tp410
g156
I00
S'\x9f5<Q\xb2\xb3\xf7?\xb3\xd6LI,\xe8\x16\xc0\xc2\x13\xbbtu\x87\x00\xc0'
p411
tp412
bag22
(g23
(I0
tp413
g25
tp414
Rp415
(I1
(I3
tp416
g156
I00
S'\xd0\xcb\x13\x8f\xaa\x9d\xed?\x90\x01<]3\x06\x16\xc0F\xf1\xe7x32\x02\xc0'
p417
tp418
bag22
(g23
(I0
tp419
g25
tp420
Rp421
(I1
(I3
tp422
g156
I00
S'l[\xc4\x16<\xe6\xe9?\xa6\xa0\x90\x84X\x9f\x13\xc0\xc2\xd74Q\x00\xaf\xff\xbf'
p423
tp424
bag22
(g23
(I0
tp425
g25
tp426
Rp427
(I1
(I3
tp428
g156
I00
S"\xaeJ\xbd\x1936\xec?\x04\x13\xd4'\x9f\x88\x10\xc0\x805qo\xb6\xe6\xff\xbf"
p429
tp430
bag22
(g23
(I0
tp431
g25
tp432
Rp433
(I1
(I3
tp434
g156
I00
S'\xf09\xb6\x1c*\x86\xee?\xc4\n/\x96\xcb\xe3\n\xc0\xa0\xc9\xd6F6\x0f\x00\xc0'
p435
tp436
bag22
(g23
(I0
tp437
g25
tp438
Rp439
(I1
(I3
tp440
g156
I00
S'3\xe9\xaf\x05T\x89\xe7?+~\xcb\xd3\x15\xc7\x04\xc0x6(d5\xed\x07@'
p441
tp442
bassS'mc_to_entity'
p443
(dp444
(g135
g136
tp445
(lp446
Vsquare_packing_box2
p447
aVsquare_packing_box1
p448
aVrectangular_packing_box2
p449
aVsquare_packing_box4
p450
as(g203
g136
tp451
(lp452
Vrectangular_packing_box2
p453
as(g260
g136
tp454
(lp455
Vrectangular_packing_box3
p456
aVsquare_packing_box2
p457
aVsquare_packing_box4
p458
aVsquare_packing_box1
p459
aVrectangular_packing_box2
p460
as(g323
g136
tp461
(lp462
Vsquare_packing_box1
p463
aVsquare_packing_box4
p464
aVrectangular_packing_box2
p465
as(g386
g136
tp466
(lp467
Vrectangular_packing_box3
p468
aVsquare_packing_box1
p469
aVsquare_packing_box2
p470
aVrectangular_packing_box2
p471
assS'reachable_entities'
p472
(lp473
Vrectangular_packing_box4
p474
aVrectangular_packing_box2
p475
aVsquare_packing_box3
p476
ag12
asS'collides'
p477
(dp478
Vrectangular_packing_box4
p479
c__builtin__
set
p480
((lp481
I6
aI521
aI138
aI139
aI276
aI152
aI153
aI154
aI155
aI157
aI417
aI163
aI165
aI166
aI424
aI553
aI197
aI198
aI518
aI338
aI547
aI349
aI362
aI491
aI249
aI383
atp482
Rp483
sVrectangular_packing_box2
p484
g480
((lp485
I3
aI449
aI395
aI404
aI160
aI161
aI162
aI42
aI43
aI301
aI309
aI56
aI187
aI416
aI289
aI201
aI202
aI203
aI595
aI327
aI484
aI106
aI497
aI115
aI372
aI379
aI380
aI554
atp486
Rp487
sVrectangular_packing_box3
p488
g480
((lp489
I513
aI386
aI260
aI268
aI269
aI270
aI405
aI280
aI179
aI436
aI565
aI440
aI572
aI573
aI193
aI68
aI210
aI211
aI212
aI213
aI91
aI220
aI479
aI354
aI613
aI614
aI111
aI112
aI113
aI339
aI245
aI375
aI340
aI123
aI381
aI254
aI255
atp490
Rp491
sVrectangular_packing_box1
p492
g480
((lp493
I268
aI144
aI405
aI280
aI545
aI548
aI425
aI302
aI303
aI307
aI565
aI438
aI442
aI453
aI457
aI342
aI343
aI473
aI474
aI348
aI605
aI612
aI614
aI367
aI368
aI369
aI500
aI246
aI247
aI377
aI381
atp494
Rp495
sVsquare_packing_box2
p496
g480
((lp497
I256
aI577
aI145
aI538
aI413
aI543
aI36
aI422
aI570
aI443
aI444
aI64
aI65
aI66
aI69
aI205
aI79
aI80
aI215
aI89
aI90
aI219
aI92
aI188
aI124
atp498
Rp499
sVsquare_packing_box3
p500
g480
((lp501
I514
aI259
aI374
aI406
aI392
aI585
aI407
aI556
aI429
aI463
aI464
aI593
aI67
aI610
aI118
aI119
aI120
aI443
aI286
aI543
atp502
Rp503
sVsquare_packing_box1
p504
g480
((lp505
I3
aI4
aI538
aI413
aI161
aI162
aI36
aI178
aI309
aI310
aI55
aI570
aI188
aI449
aI69
aI70
aI327
aI201
aI202
aI205
aI80
aI595
aI89
aI92
aI93
aI497
aI115
aI372
aI379
atp506
Rp507
sVsquare_packing_box4
p508
g480
((lp509
I2
aI3
aI393
aI395
aI404
aI160
aI161
aI37
aI38
aI41
aI304
aI561
aI178
aI435
aI309
aI54
aI188
aI63
aI449
aI289
aI201
aI202
aI595
aI89
aI219
aI611
aI497
aI115
aI372
aI376
aI379
aI380
atp510
Rp511
ssg78
g79
sS'pick_used'
p512
(dp513
g474
(itrajectory_representation.operator
Operator
p514
(dp515
g8
I01
sg9
(dp516
S'object'
p517
Vrectangular_packing_box4
p518
ssg17
S'two_arm_pick'
p519
sg19
(dp520
S'q_goal'
p521
(lp522
g22
(g23
(I0
tp523
g25
tp524
Rp525
(I1
(I3
tp526
g145
I00
S'\xf0\x15\x87\xef\x9b\x19\xe7?\xf6\xa1\xc3\x83\xaf\xbf\x19\xc0Z\x97]\x02\xdas\x0b@'
p527
tp528
bag22
(g23
(I0
tp529
g25
tp530
Rp531
(I1
(I3
tp532
g145
I00
S'\xc4\xae\rA\xc9\x03\xa9\xbfK{&\xde\xfb\x07\x16\xc0\xc1\xe4\xee\xcc\x9b\xd7\xfc\xbf'
p533
tp534
bag22
(g23
(I0
tp535
g25
tp536
Rp537
(I1
(I3
tp538
g145
I00
S'\xae\xda,\xbc3\xa9\xe9?\xa35\x9fT,\x04\x19\xc0}\xae{\xd7{v\x05\xc0'
p539
tp540
bag22
(g23
(I0
tp541
g25
tp542
Rp543
(I1
(I3
tp544
g145
I00
S'\x02> je\xe4\xe5?\xadQ\xa1i\xa9\x9c\x19\xc00\x0c\x08\xd1\xa2\xa1\x08@'
p545
tp546
bag22
(g23
(I0
tp547
g25
tp548
Rp549
(I1
(I3
tp550
g145
I00
S'\xb1\xa8\xcf\xe9\x18\xab\xe4?`\xf1\x8fJ\xce\x0c\x1a\xc0&\x9c\x19\xa8\xc0\x05\x06@'
p551
tp552
basS'is_feasible'
p553
I00
ssg47
(lp554
g22
(g23
(I0
tp555
g25
tp556
Rp557
(I1
(I3
tp558
g145
I00
S'\x00ZK\xc34\xa3\xd9?<\xe2\xa5\xce\xf5A\x16\xc0\xf8\x97W\xe2\xfa\x15\xf2?'
p559
tp560
bag22
(g23
(I0
tp561
g25
tp562
Rp563
(I1
(I3
tp564
g156
I00
S'\xd8\x87\x03p)T\xe4?\xd5\xabI\xb7V\xd0\x15\xc0vWg\x9a\x87\x8a\xec?'
p565
tp566
bag22
(g23
(I0
tp567
g25
tp568
Rp569
(I1
(I3
tp570
g156
I00
S'\xf8C*\xbe\x14\xcf\xe8?\x81d\xab\xeb\xa8<\x18\xc0\xc8\\\xf4\x8c\xc3\xfa\xfe\xbf'
p571
tp572
bag537
asbsg475
(itrajectory_representation.operator
Operator
p573
(dp574
g8
I01
sg9
(dp575
g517
Vrectangular_packing_box2
p576
ssg17
g519
sg19
(dp577
g521
(lp578
g22
(g23
(I0
tp579
g25
tp580
Rp581
(I1
(I3
tp582
g145
I00
S'\r\xccS\x93\xe2\xe7\xf3?\x1e\x18te\xe1I\x17\xc0l[%\xf0\x06\x08\xe0?'
p583
tp584
bag22
(g23
(I0
tp585
g25
tp586
Rp587
(I1
(I3
tp588
g145
I00
S'\x99\xe2\x05\x88\x1b\xd2\xf1?\xdf\xd8\xaf\xd4O\xea\x16\xc0,\xfd#yG\x9f\xe2?'
p589
tp590
bag22
(g23
(I0
tp591
g25
tp592
Rp593
(I1
(I3
tp594
g145
I00
S'\xfeE\xcf\xfb\x1f\xe6\xff?\xa00\xfbvfn\x19\xc0\xf0\x19\x7f\xaf,?\xfe?'
p595
tp596
basg553
I00
ssg47
(lp597
g22
(g23
(I0
tp598
g25
tp599
Rp600
(I1
(I3
tp601
g145
I00
S'\x00ZK\xc34\xa3\xd9?<\xe2\xa5\xce\xf5A\x16\xc0\xf8\x97W\xe2\xfa\x15\xf2?'
p602
tp603
bag587
asbsVrectangular_packing_box3
p604
(itrajectory_representation.operator
Operator
p605
(dp606
g8
I01
sg9
(dp607
g517
Vrectangular_packing_box3
p608
ssg17
g519
sg19
(dp609
g521
(lp610
g22
(g23
(I0
tp611
g25
tp612
Rp613
(I1
(I3
tp614
g145
I00
S'\x08W\\\xb8\xe3Q\x03@\xb0\x12\xad\xb7\x11\xe2\x1b\xc0[9\x06\xd0\x00\xb8\xef\xbf'
p615
tp616
bag22
(g23
(I0
tp617
g25
tp618
Rp619
(I1
(I3
tp620
g145
I00
S'\xed\r\xce2\x92\xba\x0e@et\x03\xd3S\xd1\x1c\xc0xt\x0e\x10_\x89\x07\xc0'
p621
tp622
bag22
(g23
(I0
tp623
g25
tp624
Rp625
(I1
(I3
tp626
g145
I00
S'\x90\x07\x89c\x96H\x0b@\xde\x08hES\xac\x1a\xc0\x88\xc3J\xb3\xe1\xc3\xfe\xbf'
p627
tp628
basg553
I00
ssg47
(lp629
g22
(g23
(I0
tp630
g25
tp631
Rp632
(I1
(I3
tp633
g145
I00
S'\x00ZK\xc34\xa3\xd9?<\xe2\xa5\xce\xf5A\x16\xc0\xf8\x97W\xe2\xfa\x15\xf2?'
p634
tp635
bag22
(g23
(I0
tp636
g25
tp637
Rp638
(I1
(I3
tp639
g156
I00
S'B\x9aa8\x98\xa6\xe8?\xf3\xe9\x94/\xc2\xe4\x18\xc0u\xf8\xb0\x7fO\xb8\xf2?'
p640
tp641
bag22
(g23
(I0
tp642
g25
tp643
Rp644
(I1
(I3
tp645
g156
I00
S'j\xc7\xc0&\x8ag\xf6?h\x9cH4\x7f\xab\x18\xc0\xd8|\x1d\xfc\xcbV\xf2?'
p646
tp647
bag22
(g23
(I0
tp648
g25
tp649
Rp650
(I1
(I3
tp651
g156
I00
S'\x05\x83iK\x01\x86\xfb?\x162zB{\xdc\x1a\xc0T\xd8\x04\x17\xd4b\xea\xbf'
p652
tp653
bag613
asbsVrectangular_packing_box1
p654
(itrajectory_representation.operator
Operator
p655
(dp656
g8
I01
sg9
(dp657
g517
Vrectangular_packing_box1
p658
ssg17
g519
sg19
(dp659
g521
(lp660
g22
(g23
(I0
tp661
g25
tp662
Rp663
(I1
(I3
tp664
g145
I00
S'D{\xc7\xca\xd7h\t@\x0bG)g\xbe\x12\x1d\xc0\xa8\x9cZ\xa1p\xab\xf4?'
p665
tp666
bag22
(g23
(I0
tp667
g25
tp668
Rp669
(I1
(I3
tp670
g145
I00
S'e\xafB\x00F`\x0c@\\\x7f! I\x8a\x1d\xc0\x10\x8b\xbfiG\xed\xf9?'
p671
tp672
bag22
(g23
(I0
tp673
g25
tp674
Rp675
(I1
(I3
tp676
g145
I00
S'\x88\xd3\x00\xc0\xd6X\x0c@V\xa2\x14\xff\x90+\x1d\xc0\xed\xc0\x95\x9e\x8a\xe6\xf7?'
p677
tp678
bag22
(g23
(I0
tp679
g25
tp680
Rp681
(I1
(I3
tp682
g145
I00
S'\x1d\xe6\x80SD\x9f\x05@\xe0\xbe\x13\xd8\xce[\x19\xc0d\xcfh0\xd9>\xbf?'
p683
tp684
bag22
(g23
(I0
tp685
g25
tp686
Rp687
(I1
(I3
tp688
g145
I00
S'I\xa6\xaa\x86M\x86\x0c@\xdb\xdc\xf2\x9d(H\x1d\xc0\x9c\x9d\x94LP\t\xf5?'
p689
tp690
basg553
I00
ssg47
(lp691
g22
(g23
(I0
tp692
g25
tp693
Rp694
(I1
(I3
tp695
g145
I00
S'\x00ZK\xc34\xa3\xd9?<\xe2\xa5\xce\xf5A\x16\xc0\xf8\x97W\xe2\xfa\x15\xf2?'
p696
tp697
bag22
(g23
(I0
tp698
g25
tp699
Rp700
(I1
(I3
tp701
g156
I00
S'B\x9aa8\x98\xa6\xe8?\xf3\xe9\x94/\xc2\xe4\x18\xc0u\xf8\xb0\x7fO\xb8\xf2?'
p702
tp703
bag22
(g23
(I0
tp704
g25
tp705
Rp706
(I1
(I3
tp707
g156
I00
S'j\xc7\xc0&\x8ag\xf6?h\x9cH4\x7f\xab\x18\xc0\xd8|\x1d\xfc\xcbV\xf2?'
p708
tp709
bag22
(g23
(I0
tp710
g25
tp711
Rp712
(I1
(I3
tp713
g156
I00
S'\x00\xda\x1c<\xfd\xdc\x00@j"\x91\xe3 \x1a\x18\xc0i~!@)\xb0\xdc\xbf'
p714
tp715
bag681
asbsVsquare_packing_box2
p716
(itrajectory_representation.operator
Operator
p717
(dp718
g8
I01
sg9
(dp719
g517
Vsquare_packing_box2
p720
ssg17
g519
sg19
(dp721
g521
(lp722
g22
(g23
(I0
tp723
g25
tp724
Rp725
(I1
(I3
tp726
g145
I00
S'\x984\xec\x0b\x98\xa5\x05@#\x12\x07\x96\xb5C\x1a\xc0\xc3\x16\xe1\xb2:^\x06\xc0'
p727
tp728
bag22
(g23
(I0
tp729
g25
tp730
Rp731
(I1
(I3
tp732
g145
I00
S'M\x8f[\xd15\xfc\x04@.\x00\xcf\xf6\xb4\xba\x19\xc0\xed\xaf\x98\x0c\t\xf8\x06\xc0'
p733
tp734
bag22
(g23
(I0
tp735
g25
tp736
Rp737
(I1
(I3
tp738
g145
I00
S'5P\xf98M\xb0\x02@+\x8aW\xce\xa8\xe8\x1d\xc0\x81\xbcG\xd2\xa9=\xfe?'
p739
tp740
bag22
(g23
(I0
tp741
g25
tp742
Rp743
(I1
(I3
tp744
g145
I00
S'@\xae/\\\xbc\xe0\x04@\xd5C\xba\xd1g\x05\x1a\xc0\xe6\xdd\x9cB\xe9e\x02\xc0'
p745
tp746
bag22
(g23
(I0
tp747
g25
tp748
Rp749
(I1
(I3
tp750
g145
I00
S'\xe4p\xb5GQ$\x05@.\xc6K\xfew\xf1\x1b\xc0 \t;\xdfa\x88\x07@'
p751
tp752
basg553
I00
ssg47
(lp753
g22
(g23
(I0
tp754
g25
tp755
Rp756
(I1
(I3
tp757
g145
I00
S'\x00ZK\xc34\xa3\xd9?<\xe2\xa5\xce\xf5A\x16\xc0\xf8\x97W\xe2\xfa\x15\xf2?'
p758
tp759
bag22
(g23
(I0
tp760
g25
tp761
Rp762
(I1
(I3
tp763
g156
I00
S'B\x9aa8\x98\xa6\xe8?\xf3\xe9\x94/\xc2\xe4\x18\xc0u\xf8\xb0\x7fO\xb8\xf2?'
p764
tp765
bag22
(g23
(I0
tp766
g25
tp767
Rp768
(I1
(I3
tp769
g156
I00
S'j\xc7\xc0&\x8ag\xf6?h\x9cH4\x7f\xab\x18\xc0\xd8|\x1d\xfc\xcbV\xf2?'
p770
tp771
bag22
(g23
(I0
tp772
g25
tp773
Rp774
(I1
(I3
tp775
g156
I00
S'\xc6\xf1T\x16)\x02\xfe?\xa8\x7fQ\xf5\xbb\x10\x19\xc0\xa38\tS\x83\x84\x05@'
p776
tp777
bag731
asbsg476
(itrajectory_representation.operator
Operator
p778
(dp779
g8
I01
sg9
(dp780
g517
Vsquare_packing_box3
p781
ssg17
g519
sg19
(dp782
g521
(lp783
g22
(g23
(I0
tp784
g25
tp785
Rp786
(I1
(I3
tp787
g145
I00
S'\t\xab\x8a\xe1b\xdb\x03@\x16\xc5\x0c\x1eG\x91\x1d\xc0\xa2\x91l\xbf\x96\x99\x05\xc0'
p788
tp789
bag22
(g23
(I0
tp790
g25
tp791
Rp792
(I1
(I3
tp793
g145
I00
S'\xdd\xcc[AM\x8f\x03@o\xaf!b\xa4[\x1d\xc0\xf7dd2\xadO\x05\xc0'
p794
tp795
bag22
(g23
(I0
tp796
g25
tp797
Rp798
(I1
(I3
tp799
g145
I00
S't\xf9G\xdd\x86e\xf2?7g\xe7\xd9\xe1\xc5\x1e\xc0@tx\\\xda\x83\xd5\xbf'
p800
tp801
bag22
(g23
(I0
tp802
g25
tp803
Rp804
(I1
(I3
tp805
g145
I00
S'\xb5\x0b\x83pUv\xf5?\xc0\xd4&\xf5\x1e\xe1\x1d\xc0F\xd7\xd7y\x12\t\xe8\xbf'
p806
tp807
bag22
(g23
(I0
tp808
g25
tp809
Rp810
(I1
(I3
tp811
g145
I00
S'\n\xad\xcb\xf4\xa4\n\xf2?\x8d\x11\x19WCF\x1e\xc0\xf6\xb4TT\x85i\xd0\xbf'
p812
tp813
basg553
I00
ssg47
(lp814
g22
(g23
(I0
tp815
g25
tp816
Rp817
(I1
(I3
tp818
g145
I00
S'\x00ZK\xc34\xa3\xd9?<\xe2\xa5\xce\xf5A\x16\xc0\xf8\x97W\xe2\xfa\x15\xf2?'
p819
tp820
bag22
(g23
(I0
tp821
g25
tp822
Rp823
(I1
(I3
tp824
g156
I00
S'B\x9aa8\x98\xa6\xe8?\xf3\xe9\x94/\xc2\xe4\x18\xc0u\xf8\xb0\x7fO\xb8\xf2?'
p825
tp826
bag22
(g23
(I0
tp827
g25
tp828
Rp829
(I1
(I3
tp830
g156
I00
S'\xcb\xa0\xb6M\xadU\xef?ny]\x1b[.\x1a\xc0\x99\xfe\xc1BBE\xde?'
p831
tp832
bag22
(g23
(I0
tp833
g25
tp834
Rp835
(I1
(I3
tp836
g156
I00
S'\xba)c\x05l\x93\xf4?\x8f\x0f\xa1<\xee\x05\x1c\xc0\xf9-\x16\x17\xc6`\xf8\xbf'
p837
tp838
bag804
asbsg12
(itrajectory_representation.operator
Operator
p839
(dp840
g8
I01
sg9
(dp841
g11
g12
ssg17
S'two_arm_pick'
p842
sg19
(dp843
g21
g22
(g23
(I0
tp844
g25
tp845
Rp846
(I1
(I3
tp847
g32
I00
S"I0\x11B:b\xf1?\xe5\xd8\x99\xe7;\xb1\x18\xc0'\xc8\x0b\xe2Pc\xda\xbf"
p848
tp849
bssg47
(lp850
g22
(g23
(I0
tp851
g25
tp852
Rp853
(I1
(I3
tp854
g145
I00
S'\x00ZK\xc34\xa3\xd9?<\xe2\xa5\xce\xf5A\x16\xc0\xf8\x97W\xe2\xfa\x15\xf2?'
p855
tp856
bag22
(g23
(I0
tp857
g25
tp858
Rp859
(I1
(I3
tp860
g156
I00
S'E6\xa2Z]\x01\xe8?\x8b\x06T\x92\xa7\x82\x16\xc0q\xc1\x9f~\xe7\n\xfb?'
p861
tp862
bag22
(g23
(I0
tp863
g25
tp864
Rp865
(I1
(I3
tp866
g156
I00
S",0}\x1d\xd8'\xe3?\x1a_'\xd6T\x08\x17\xc0A\xde\xdb2\xd8\xd0\x14@"
p867
tp868
bag846
asbsVsquare_packing_box4
p869
(itrajectory_representation.operator
Operator
p870
(dp871
g8
I01
sg9
(dp872
g517
Vsquare_packing_box4
p873
ssg17
g519
sg19
(dp874
g521
(lp875
g22
(g23
(I0
tp876
g25
tp877
Rp878
(I1
(I3
tp879
g145
I00
S'\x10\x93\x1e\x98\x85\xef\x06@m 4\xcc\xea\x01\x18\xc0\xb2\xe1\xb9l\xa9A\n\xc0'
p880
tp881
bag22
(g23
(I0
tp882
g25
tp883
Rp884
(I1
(I3
tp885
g145
I00
S'\x01\xb3\xa6\\\t\x03\x02@}\xd5\xf3\x92\xedy\x1b\xc0Br\x0b\xd21H\xf4?'
p886
tp887
bag22
(g23
(I0
tp888
g25
tp889
Rp890
(I1
(I3
tp891
g145
I00
S'\xc6+\x92r~9\x08@b\x1e\x8c\xa6\xba\xa0\x17\xc0\xd6\xbe\xc5\xf7\x1a\x8b\x06\xc0'
p892
tp893
bag22
(g23
(I0
tp894
g25
tp895
Rp896
(I1
(I3
tp897
g145
I00
S"\x81W\xe4\xd8\xe5a\x08@\xadI16'F\x18\xc0\xdaK\xaez\xc5\x1d\t@"
p898
tp899
basg553
I00
ssg47
(lp900
g22
(g23
(I0
tp901
g25
tp902
Rp903
(I1
(I3
tp904
g145
I00
S'\x00ZK\xc34\xa3\xd9?<\xe2\xa5\xce\xf5A\x16\xc0\xf8\x97W\xe2\xfa\x15\xf2?'
p905
tp906
bag22
(g23
(I0
tp907
g25
tp908
Rp909
(I1
(I3
tp910
g156
I00
S'B\x9aa8\x98\xa6\xe8?\xf3\xe9\x94/\xc2\xe4\x18\xc0u\xf8\xb0\x7fO\xb8\xf2?'
p911
tp912
bag22
(g23
(I0
tp913
g25
tp914
Rp915
(I1
(I3
tp916
g156
I00
S'j\xc7\xc0&\x8ag\xf6?h\x9cH4\x7f\xab\x18\xc0\xd8|\x1d\xfc\xcbV\xf2?'
p917
tp918
bag22
(g23
(I0
tp919
g25
tp920
Rp921
(I1
(I3
tp922
g156
I00
S'JyH\x8ez\xd6\xfa?\xb3\xf7h\x83\xea\xba\x1a\xc0u\xf9Uf\xb7m\xe0?'
p923
tp924
bag884
asbssS'mc_paths'
p925
(dp926
sS'robot'
p927
NsS'reachable_obj_region_pairs'
p928
(lp929
sS'sampled_pick_configs_for_objects'
p930
(dp931
sS'mc_calls'
p932
I0
sS'pick_poses'
p933
g513
sS'problem_env'
p934
NsS'evaluations'
p935
(dp936
(g260
Vrectangular_packing_box2
p937
g136
tp938
I01
s(g323
g937
g136
tp939
I01
s(g386
g203
g136
tp940
I00
s(g386
Vsquare_packing_box1
p941
g136
tp942
I01
s(g203
g323
g136
tp943
I00
s(g386
g937
g136
tp944
I01
s(g323
g941
g136
tp945
I01
s(g260
g941
g136
tp946
I01
s(g260
Vrectangular_packing_box4
p947
g136
tp948
I00
s(g323
g135
g136
tp949
I00
s(g203
g386
g136
tp950
I00
s(g135
g941
g136
tp951
I01
s(g203
g260
g136
tp952
I00
s(g135
g947
g136
tp953
I00
s(g135
g386
g136
tp954
I00
s(g135
g260
g136
tp955
I00
s(g386
g260
g136
tp956
I00
s(g203
g937
g136
tp957
I01
s(g260
g203
g136
tp958
I01
s(g323
g260
g136
tp959
I00
s(g203
g947
g136
tp960
I00
s(g135
g203
g136
tp961
I01
s(g323
g947
g136
tp962
I00
s(g386
g323
g136
tp963
I01
s(g323
g203
g136
tp964
I01
s(g203
g135
g136
tp965
I00
s(g323
g386
g136
tp966
I00
s(g260
g386
g136
tp967
I00
s(g260
g135
g136
tp968
I01
s(g135
g937
g136
tp969
I01
s(g203
g941
g136
tp970
I00
s(g386
g135
g136
tp971
I01
s(g135
g323
g136
tp972
I01
s(g386
g947
g136
tp973
I00
s(g260
g323
g136
tp974
I01
ssS'paths_to_reachable_entities'
p975
NsS'use_shortest_path'
p976
I01
sbsS'ternary_edges'
p977
(dp978
(g937
g937
g136
tp979
(lp980
I00
as(g941
S'loading_region'
p981
g981
tp982
(lp983
I00
as(S'entire_region'
p984
g260
g136
tp985
(lp986
I00
as(g323
g203
g981
tp987
(lp988
I00
as(g136
g136
g136
tp989
(lp990
I00
as(g203
g937
g981
tp991
(lp992
I00
as(g941
g135
g136
tp993
(lp994
I00
as(g136
g947
g136
tp995
(lp996
I00
as(g323
g941
g136
tp997
(lp998
I01
as(g135
g947
g981
tp999
(lp1000
I00
as(g136
g203
g981
tp1001
(lp1002
I00
as(g323
g984
g136
tp1003
(lp1004
I00
as(g981
g136
g981
tp1005
(lp1006
I00
as(g947
g386
g136
tp1007
(lp1008
I00
as(g203
g984
g136
tp1009
(lp1010
I00
as(g323
g260
g981
tp1011
(lp1012
I00
as(g386
g981
g136
tp1013
(lp1014
I00
as(g984
g937
g981
tp1015
(lp1016
I00
as(g136
g984
g136
tp1017
(lp1018
I00
as(g937
g981
g136
tp1019
(lp1020
I00
as(g386
g984
g136
tp1021
(lp1022
I00
as(g941
g941
g981
tp1023
(lp1024
I00
as(g981
g203
g981
tp1025
(lp1026
I00
as(g984
g981
g136
tp1027
(lp1028
I00
as(g984
g323
g136
tp1029
(lp1030
I00
as(g981
g981
g136
tp1031
(lp1032
I00
as(g386
g947
g981
tp1033
(lp1034
I00
as(g136
g136
g981
tp1035
(lp1036
I00
as(g260
g323
g981
tp1037
(lp1038
I00
as(g937
g203
g136
tp1039
(lp1040
I00
as(g386
g941
g136
tp1041
(lp1042
I01
as(g260
g136
g981
tp1043
(lp1044
I00
as(g136
g937
g981
tp1045
(lp1046
I00
as(g260
g135
g981
tp1047
(lp1048
I00
as(g135
g260
g136
tp1049
(lp1050
I00
as(g981
g941
g981
tp1051
(lp1052
I00
as(g203
g323
g981
tp1053
(lp1054
I00
as(g937
g937
g981
tp1055
(lp1056
I00
as(g984
g203
g136
tp1057
(lp1058
I00
as(g981
g136
g136
tp1059
(lp1060
I00
as(g947
g937
g136
tp1061
(lp1062
I00
as(g136
g135
g136
tp1063
(lp1064
I00
as(g323
g260
g136
tp1065
(lp1066
I00
as(g135
g203
g136
tp1067
(lp1068
I01
as(g941
g135
g981
tp1069
(lp1070
I00
as(g386
g323
g136
tp1071
(lp1072
I01
as(g323
g941
g981
tp1073
(lp1074
I00
as(g323
g937
g981
tp1075
(lp1076
I00
as(g984
g323
g981
tp1077
(lp1078
I00
as(g981
g135
g981
tp1079
(lp1080
I00
as(g984
g136
g136
tp1081
(lp1082
I00
as(g947
g136
g136
tp1083
(lp1084
I00
as(g981
g984
g136
tp1085
(lp1086
I00
as(g937
g203
g981
tp1087
(lp1088
I00
as(g386
g937
g981
tp1089
(lp1090
I00
as(g386
g386
g136
tp1091
(lp1092
I00
as(g260
g135
g136
tp1093
(lp1094
I01
as(g984
g937
g136
tp1095
(lp1096
I00
as(g260
g981
g981
tp1097
(lp1098
I00
as(g203
g941
g136
tp1099
(lp1100
I00
as(g941
g941
g136
tp1101
(lp1102
I00
as(g941
g947
g136
tp1103
(lp1104
I00
as(g947
g937
g981
tp1105
(lp1106
I00
as(g203
g260
g981
tp1107
(lp1108
I00
as(g386
g947
g136
tp1109
(lp1110
I00
as(g260
g323
g136
tp1111
(lp1112
I01
as(g937
g260
g981
tp1113
(lp1114
I00
as(g260
g136
g136
tp1115
(lp1116
I00
as(g323
g937
g136
tp1117
(lp1118
I01
as(g937
g386
g136
tp1119
(lp1120
I00
as(g135
g260
g981
tp1121
(lp1122
I00
as(g136
g323
g981
tp1123
(lp1124
I00
as(g984
g136
g981
tp1125
(lp1126
I00
as(g984
g203
g981
tp1127
(lp1128
I00
as(g386
g937
g136
tp1129
(lp1130
I01
as(g135
g386
g981
tp1131
(lp1132
I00
as(g937
g984
g981
tp1133
(lp1134
I00
as(g260
g981
g136
tp1135
(lp1136
I00
as(g386
g323
g981
tp1137
(lp1138
I00
as(g386
g260
g981
tp1139
(lp1140
I00
as(g203
g941
g981
tp1141
(lp1142
I00
as(g136
g135
g981
tp1143
(lp1144
I00
as(g984
g386
g981
tp1145
(lp1146
I00
as(g981
g135
g136
tp1147
(lp1148
I00
as(g981
g323
g981
tp1149
(lp1150
I00
as(g937
g260
g136
tp1151
(lp1152
I00
as(g203
g260
g136
tp1153
(lp1154
I00
as(g981
g386
g136
tp1155
(lp1156
I00
as(g937
g386
g981
tp1157
(lp1158
I00
as(g937
g947
g981
tp1159
(lp1160
I00
as(g135
g203
g981
tp1161
(lp1162
I00
as(g941
g947
g981
tp1163
(lp1164
I00
as(g260
g386
g981
tp1165
(lp1166
I00
as(g136
g941
g981
tp1167
(lp1168
I00
as(g135
g981
g981
tp1169
(lp1170
I00
as(g947
g136
g981
tp1171
(lp1172
I00
as(g941
g260
g136
tp1173
(lp1174
I00
as(g937
g984
g136
tp1175
(lp1176
I00
as(g947
g323
g981
tp1177
(lp1178
I00
as(g135
g937
g981
tp1179
(lp1180
I00
as(g386
g260
g136
tp1181
(lp1182
I00
as(g203
g981
g981
tp1183
(lp1184
I00
as(g323
g136
g136
tp1185
(lp1186
I00
as(g203
g947
g136
tp1187
(lp1188
I00
as(g136
g386
g981
tp1189
(lp1190
I00
as(g981
g260
g981
tp1191
(lp1192
I00
as(g981
g386
g981
tp1193
(lp1194
I00
as(g941
g386
g136
tp1195
(lp1196
I00
as(g260
g386
g136
tp1197
(lp1198
I00
as(g941
g260
g981
tp1199
(lp1200
I00
as(g135
g937
g136
tp1201
(lp1202
I01
as(g937
g323
g136
tp1203
(lp1204
I00
as(g135
g136
g981
tp1205
(lp1206
I00
as(g203
g981
g136
tp1207
(lp1208
I00
as(g981
g947
g981
tp1209
(lp1210
I00
as(g937
g947
g136
tp1211
(lp1212
I00
as(g135
g135
g136
tp1213
(lp1214
I00
as(g947
g947
g136
tp1215
(lp1216
I00
as(g947
g135
g981
tp1217
(lp1218
I00
as(g135
g981
g136
tp1219
(lp1220
I00
as(g386
g203
g136
tp1221
(lp1222
I00
as(g947
g323
g136
tp1223
(lp1224
I00
as(g323
g981
g981
tp1225
(lp1226
I00
as(g135
g984
g981
tp1227
(lp1228
I00
as(g323
g136
g981
tp1229
(lp1230
I00
as(g941
g323
g981
tp1231
(lp1232
I00
as(g203
g947
g981
tp1233
(lp1234
I00
as(g386
g136
g981
tp1235
(lp1236
I00
as(g135
g136
g136
tp1237
(lp1238
I00
as(g981
g947
g136
tp1239
(lp1240
I00
as(g260
g260
g136
tp1241
(lp1242
I00
as(g981
g203
g136
tp1243
(lp1244
I00
as(g203
g386
g136
tp1245
(lp1246
I00
as(g941
g937
g136
tp1247
(lp1248
I00
as(g941
g386
g981
tp1249
(lp1250
I00
as(g947
g941
g981
tp1251
(lp1252
I00
as(g136
g323
g136
tp1253
(lp1254
I00
as(g984
g135
g981
tp1255
(lp1256
I00
as(g135
g941
g136
tp1257
(lp1258
I01
as(g260
g984
g136
tp1259
(lp1260
I00
as(g386
g203
g981
tp1261
(lp1262
I00
as(g386
g135
g981
tp1263
(lp1264
I00
as(g947
g260
g136
tp1265
(lp1266
I00
as(g937
g323
g981
tp1267
(lp1268
I00
as(g947
g981
g136
tp1269
(lp1270
I00
as(g135
g984
g136
tp1271
(lp1272
I00
as(g203
g135
g981
tp1273
(lp1274
I00
as(g937
g941
g136
tp1275
(lp1276
I00
as(g386
g941
g981
tp1277
(lp1278
I00
as(g203
g203
g981
tp1279
(lp1280
I00
as(g947
g947
g981
tp1281
(lp1282
I00
as(g260
g260
g981
tp1283
(lp1284
I00
as(g941
g203
g981
tp1285
(lp1286
I00
as(g203
g323
g136
tp1287
(lp1288
I00
as(g984
g941
g136
tp1289
(lp1290
I00
as(g136
g984
g981
tp1291
(lp1292
I00
as(g136
g260
g981
tp1293
(lp1294
I00
as(g323
g981
g136
tp1295
(lp1296
I00
as(g941
g937
g981
tp1297
(lp1298
I00
as(g260
g941
g981
tp1299
(lp1300
I00
as(g135
g135
g981
tp1301
(lp1302
I00
as(g984
g135
g136
tp1303
(lp1304
I00
as(g323
g135
g981
tp1305
(lp1306
I00
as(g260
g984
g981
tp1307
(lp1308
I00
as(g941
g323
g136
tp1309
(lp1310
I00
as(g947
g260
g981
tp1311
(lp1312
I00
as(g947
g135
g136
tp1313
(lp1314
I00
as(g203
g135
g136
tp1315
(lp1316
I00
as(g941
g136
g981
tp1317
(lp1318
I00
as(g323
g386
g136
tp1319
(lp1320
I00
as(g386
g386
g981
tp1321
(lp1322
I00
as(g947
g984
g136
tp1323
(lp1324
I00
as(g981
g984
g981
tp1325
(lp1326
I00
as(g203
g386
g981
tp1327
(lp1328
I00
as(g981
g260
g136
tp1329
(lp1330
I00
as(g984
g984
g981
tp1331
(lp1332
I00
as(g947
g941
g136
tp1333
(lp1334
I00
as(g941
g203
g136
tp1335
(lp1336
I00
as(g981
g937
g981
tp1337
(lp1338
I00
as(g135
g941
g981
tp1339
(lp1340
I00
as(g386
g136
g136
tp1341
(lp1342
I00
as(g984
g941
g981
tp1343
(lp1344
I00
as(g386
g135
g136
tp1345
(lp1346
I01
as(g135
g323
g136
tp1347
(lp1348
I01
as(g947
g981
g981
tp1349
(lp1350
I00
as(g937
g941
g981
tp1351
(lp1352
I00
as(g260
g937
g136
tp1353
(lp1354
I01
as(g984
g981
g981
tp1355
(lp1356
I00
as(g981
g937
g136
tp1357
(lp1358
I00
as(g941
g984
g136
tp1359
(lp1360
I00
as(g323
g386
g981
tp1361
(lp1362
I00
as(g323
g947
g981
tp1363
(lp1364
I00
as(g203
g136
g136
tp1365
(lp1366
I00
as(g947
g984
g981
tp1367
(lp1368
I00
as(g947
g203
g136
tp1369
(lp1370
I00
as(g984
g947
g981
tp1371
(lp1372
I00
as(g136
g260
g136
tp1373
(lp1374
I00
as(g136
g386
g136
tp1375
(lp1376
I00
as(g260
g941
g136
tp1377
(lp1378
I01
as(g260
g947
g136
tp1379
(lp1380
I00
as(g984
g386
g136
tp1381
(lp1382
I00
as(g323
g135
g136
tp1383
(lp1384
I00
as(g323
g323
g981
tp1385
(lp1386
I00
as(g260
g203
g981
tp1387
(lp1388
I00
as(g203
g136
g981
tp1389
(lp1390
I00
as(g937
g136
g136
tp1391
(lp1392
I00
as(g941
g136
g136
tp1393
(lp1394
I00
as(g260
g937
g981
tp1395
(lp1396
I00
as(g203
g937
g136
tp1397
(lp1398
I01
as(g136
g981
g136
tp1399
(lp1400
I00
as(g984
g984
g136
tp1401
(lp1402
I00
as(g937
g135
g981
tp1403
(lp1404
I00
as(g941
g984
g981
tp1405
(lp1406
I00
as(g981
g323
g136
tp1407
(lp1408
I00
as(g135
g947
g136
tp1409
(lp1410
I00
as(g984
g947
g136
tp1411
(lp1412
I00
as(g941
g981
g136
tp1413
(lp1414
I00
as(g135
g323
g981
tp1415
(lp1416
I00
as(g136
g941
g136
tp1417
(lp1418
I00
as(g984
g260
g981
tp1419
(lp1420
I00
as(g203
g984
g981
tp1421
(lp1422
I00
as(g323
g323
g136
tp1423
(lp1424
I00
as(g260
g203
g136
tp1425
(lp1426
I01
as(g386
g984
g981
tp1427
(lp1428
I00
as(g323
g947
g136
tp1429
(lp1430
I00
as(g136
g203
g136
tp1431
(lp1432
I00
as(g135
g386
g136
tp1433
(lp1434
I00
as(g947
g203
g981
tp1435
(lp1436
I00
as(g203
g203
g136
tp1437
(lp1438
I00
as(g260
g947
g981
tp1439
(lp1440
I00
as(g323
g203
g136
tp1441
(lp1442
I01
as(g386
g981
g981
tp1443
(lp1444
I00
as(g136
g937
g136
tp1445
(lp1446
I00
as(g937
g981
g981
tp1447
(lp1448
I00
as(g136
g947
g981
tp1449
(lp1450
I00
as(g937
g136
g981
tp1451
(lp1452
I00
as(g981
g981
g981
tp1453
(lp1454
I00
as(g323
g984
g981
tp1455
(lp1456
I00
as(g947
g386
g981
tp1457
(lp1458
I00
as(g136
g981
g981
tp1459
(lp1460
I00
as(g937
g135
g136
tp1461
(lp1462
I00
as(g981
g941
g136
tp1463
(lp1464
I00
assg512
g513
sS'use_prm'
p1465
I01
sS'object_names'
p1466
(lp1467
S'square_packing_box1'
p1468
aS'rectangular_packing_box1'
p1469
aS'square_packing_box2'
p1470
aS'rectangular_packing_box2'
p1471
aS'square_packing_box3'
p1472
aS'rectangular_packing_box3'
p1473
aS'square_packing_box4'
p1474
aS'rectangular_packing_box4'
p1475
asg934
NsS'current_holding_collides'
p1476
NsS'object_poses'
p1477
(dp1478
Vrectangular_packing_box4
p1479
g22
(g23
(I0
tp1480
g25
tp1481
Rp1482
(I1
(I1
I3
tp1483
g145
I00
S'\xce\x17l\xcdo\x99\x81\xbf\xa4\xb3\xbd\x91\x97O\x19\xc0\xa1\xf1\xef\xb6\xcc2\xf7?'
p1484
tp1485
bsVrectangular_packing_box2
p1486
g22
(g23
(I0
tp1487
g25
tp1488
Rp1489
(I1
(I1
I3
tp1490
g145
I00
S'<%\x1c\xa6X9\xfd?.\xbcgE\xdc6\x16\xc0P\x81j\xc6\x8c\x15\x00@'
p1491
tp1492
bsVrectangular_packing_box3
p1493
g22
(g23
(I0
tp1494
g25
tp1495
Rp1496
(I1
(I1
I3
tp1497
g145
I00
S'g\x08\xa8\x83e%\t@_\xde\xc3\xb3\x19\x9b\x1d\xc0]{\xd0e\x87K\x18@'
p1498
tp1499
bsVrectangular_packing_box1
p1500
g22
(g23
(I0
tp1501
g25
tp1502
Rp1503
(I1
(I1
I3
tp1504
g145
I00
S'\xa1a\xa5\xfaBM\x0c@\xeb\x7f\xe3\x0e3\x10\x1a\xc0\xe3\x87B\xceG\x8d\x12@'
p1505
tp1506
bsVsquare_packing_box2
p1507
g22
(g23
(I0
tp1508
g25
tp1509
Rp1510
(I1
(I1
I3
tp1511
g145
I00
S'{\x03G\xb7(\xdb\xff?\xa8\xd3\xed\xf3\xa8\x9f\x1b\xc0\x0c\xb0v\x061z\x14@'
p1512
tp1513
bsVsquare_packing_box3
p1514
g22
(g23
(I0
tp1515
g25
tp1516
Rp1517
(I1
(I1
I3
tp1518
g145
I00
S'\xae\x1e,\xfc\x18\xfd\xfd?\xf8\x00\x88\x84@\xf9\x1f\xc0E\xe0r\xb6E\xc3\x10@'
p1519
tp1520
bsVsquare_packing_box1
p1521
g22
(g23
(I0
tp1522
g25
tp1523
Rp1524
(I1
(I1
I3
tp1525
g145
I00
S'\xaf\xdd\x84\xc6\x84\xae\xfc?\xf4\xb0w\xa7O\x86\x19\xc0 -{\xc8\x8b-\xf1?'
p1526
tp1527
bsVsquare_packing_box4
p1528
g22
(g23
(I0
tp1529
g25
tp1530
Rp1531
(I1
(I1
I3
tp1532
g145
I00
S"\xfa\x17}\xbc\x8f\x87\x01@r\x93)L\xf1 \x18\xc0\x04\xbf\xb4\xc5C'\xb2?"
p1533
tp1534
bssS'reachable_regions_while_holding'
p1535
(lp1536
(g474
g981
tp1537
a(g475
g981
tp1538
a(g604
g981
tp1539
a(g654
g981
tp1540
a(g716
g981
tp1541
a(g476
g981
tp1542
a(g12
g981
tp1543
a(g869
g981
tp1544
a(g474
g136
tp1545
a(g475
g136
tp1546
a(g12
g136
tp1547
asS'in_region'
p1548
(itrajectory_representation.predicates.in_region
InRegion
p1549
(dp1550
g934
NsbsS'cached_pick_paths'
p1551
(dp1552
g474
g554
sg475
g597
sg604
g629
sg654
g691
sg716
g753
sg476
g814
sg12
g850
sg869
g900
ssg477
(dp1553
(Vrectangular_packing_box4
p1554
(cnumpy.core.multiarray
scalar
p1555
(g145
S'V\xd5\xcb\xef4\x99\x81\xbf'
p1556
tp1557
Rp1558
g1555
(g145
S'\x95\x10\xac\xaa\x97O\x19\xc0'
p1559
tp1560
Rp1561
g1555
(g145
S'\xd9z\x86p\xcc2\xf7?'
p1562
tp1563
Rp1564
tp1565
tp1566
g483
s(Vrectangular_packing_box3
p1567
(g1555
(g145
S'\x85\x99\xb6\x7fe%\t@'
p1568
tp1569
Rp1570
g1555
(g145
S'^\xf4\x15\xa4\x19\x9b\x1d\xc0'
p1571
tp1572
Rp1573
g1555
(g145
S'\x85$\xb3z\x87K\x18@'
p1574
tp1575
Rp1576
tp1577
tp1578
g491
s(Vsquare_packing_box4
p1579
(g1555
(g145
S'\xfe\r\xda\xab\x8f\x87\x01@'
p1580
tp1581
Rp1582
g1555
(g145
S"7\xa6',\xf1 \x18\xc0"
p1583
tp1584
Rp1585
g1555
(g145
S"\n\xda\xe4\xf0I'\xb2?"
p1586
tp1587
Rp1588
tp1589
tp1590
g511
s(Vrectangular_packing_box2
p1591
(g1555
(g145
S'\xde\xc7\xd1\x1cY9\xfd?'
p1592
tp1593
Rp1594
g1555
(g145
S'f\x88c]\xdc6\x16\xc0'
p1595
tp1596
Rp1597
g1555
(g145
S'\xac\x1b\xef\x8e\x8c\x15\x00@'
p1598
tp1599
Rp1600
tp1601
tp1602
g487
s(Vrectangular_packing_box1
p1603
(g1555
(g145
S'\xcc\xee\xc9\xc3BM\x0c@'
p1604
tp1605
Rp1606
g1555
(g145
S'\xaa}:\x1e3\x10\x1a\xc0'
p1607
tp1608
Rp1609
g1555
(g145
S'\x82r\xdb\xbeG\x8d\x12@'
p1610
tp1611
Rp1612
tp1613
tp1614
g495
s(Vsquare_packing_box3
p1615
(g1555
(g145
S'\x82\xfeB\x8f\x18\xfd\xfd?'
p1616
tp1617
Rp1618
g1555
(g145
S'\xd3\x13\x96x@\xf9\x1f\xc0'
p1619
tp1620
Rp1621
g1555
(g145
S'}\xe9\xed\xcfE\xc3\x10@'
p1622
tp1623
Rp1624
tp1625
tp1626
g503
s(Vsquare_packing_box2
p1627
(g1555
(g145
S'\x86<\x82\x1b)\xdb\xff?'
p1628
tp1629
Rp1630
g1555
(g145
S'Pn\xdb\xf7\xa8\x9f\x1b\xc0'
p1631
tp1632
Rp1633
g1555
(g145
S'\x05\xfd\x85\x1e1z\x14@'
p1634
tp1635
Rp1636
tp1637
tp1638
g499
s(Vsquare_packing_box1
p1639
(g1555
(g145
S'oJy\xad\x84\xae\xfc?'
p1640
tp1641
Rp1642
g1555
(g145
S'\xef\xc7\xed\x97O\x86\x19\xc0'
p1643
tp1644
Rp1645
g1555
(g145
S'\xe8ME*\x8c-\xf1?'
p1646
tp1647
Rp1648
tp1649
tp1650
g507
ssS'state_saver'
p1651
(igtamp_utils.utils
CustomStateSaver
p1652
(dp1653
S'robot_base_pose'
p1654
g22
(g23
(I0
tp1655
g25
tp1656
Rp1657
(I1
(I1
I3
tp1658
g145
I00
S'\x05ZK\xc34\xa3\xd9?<\xe2\xa5\xce\xf5A\x16\xc0\xf8\x97W\xe2\xfa\x15\xf2?'
p1659
tp1660
bsS'held_object'
p1661
NsS'robot_name'
p1662
S'pr2'
p1663
sS'env_id'
p1664
I1
sg1477
(dp1665
Vright_wall_1
p1666
g22
(g23
(I0
tp1667
g25
tp1668
Rp1669
(I1
(I4
tp1670
g145
I00
S'H\xe1z\x14\xaeG\x12@&\\\x8f\xc2\xf5(\xd4\xbf\xcc\x7fH\xbf}\x1d\xed?\x00\x00\x00\x00\x00\x00\x00\x00'
p1671
tp1672
bsVc_obst5
p1673
g22
(g23
(I0
tp1674
g25
tp1675
Rp1676
(I1
(I4
tp1677
g145
I00
S"\x96_F\xc0\xef\x89\x12@\xfd\r\xd41j\xd0\xd7?e\xaa`TR'\xed?az\xd5\xe4\xf6\xc2\xf6?"
p1678
tp1679
bsVentrance_right
p1680
g22
(g23
(I0
tp1681
g25
tp1682
Rp1683
(I1
(I4
tp1684
g145
I00
S'ffffff\n@H\xe1z\x14\xaeG\t\xc0\x9c\xc4 \xb0rh\xc1?\x00\x00\x00\x00\x00\x00\x00\x00'
p1685
tp1686
bsVcomputer_table
p1687
g22
(g23
(I0
tp1688
g25
tp1689
Rp1690
(I1
(I4
tp1691
g145
I00
S'\x00\x00\x00\x00\x00\x00\x13@\x00\x00\x00\x00\x00\x00\xf8\xbf\x96C\x8bl\xe7\xfb\xe7?\xd2!3\x7f|\xd9\x12@'
p1692
tp1693
bsVchair_6b56
p1694
g22
(g23
(I0
tp1695
g25
tp1696
Rp1697
(I1
(I4
tp1698
g145
I00
S'u=\n\xd7\xa3p\xf5?K\xe1z\x14\xaeG\xd1?\x00\x00\x00\x00\x00\x00\x00\x00\xd6$\xfaNBm\n@'
p1699
tp1700
bsVsquare_packing_box3
p1701
g22
(g23
(I0
tp1702
g25
tp1703
Rp1704
(I1
(I4
tp1705
g145
I00
S'\xa8\x1e,\xfc\x18\xfd\xfd?\xf4\x00\x88\x84@\xf9\x1f\xc0L7\x89A`\xe5\xd8?E\xe0r\xb6E\xc3\x10@'
p1706
tp1707
bsVsquare_packing_box2
p1708
g22
(g23
(I0
tp1709
g25
tp1710
Rp1711
(I1
(I4
tp1712
g145
I00
S'u\x03G\xb7(\xdb\xff?\xab\xd3\xed\xf3\xa8\x9f\x1b\xc0L7\x89A`\xe5\xd8?\x0c\xb0v\x061z\x14@'
p1713
tp1714
bsVtable
p1715
g22
(g23
(I0
tp1716
g25
tp1717
Rp1718
(I1
(I4
tp1719
g145
I00
S'\x7f\xf6#EdX\xed?\xac\xffs\x98//\xc0\xbf\x00\x00\x00\x00\x00\x00\x00\x00\x00\x00\x00\x00\x00\x00\x00\x00'
p1720
tp1721
bsVsquare_packing_box1
p1722
g22
(g23
(I0
tp1723
g25
tp1724
Rp1725
(I1
(I4
tp1726
g145
I00
S'\xa9\xdd\x84\xc6\x84\xae\xfc?\xf8\xb0w\xa7O\x86\x19\xc0L7\x89A`\xe5\xd8? -{\xc8\x8b-\xf1?'
p1727
tp1728
bsVback_wall_2
p1729
g22
(g23
(I0
tp1730
g25
tp1731
Rp1732
(I1
(I4
tp1733
g145
I00
S'\xaeG\xe1z\x14.\x13@\x80\x14\xaeG\xe1z\xc4?xX\xa85\xcd\xbb\xf2?\x00\x00\x00\x00\x00\x00\x00\x00'
p1734
tp1735
bsVchair_083c
p1736
g22
(g23
(I0
tp1737
g25
tp1738
Rp1739
(I1
(I4
tp1740
g145
I00
S'\xa4p=\n\xd7\xa3\xe0?333333\xe3\xbf\x00\x00\x00\x00\x00\x00\x00\x00\x00\x00\x00\x00\x00\x00\x00\x00'
p1741
tp1742
bsVback_wall_1
p1743
g22
(g23
(I0
tp1744
g25
tp1745
Rp1746
(I1
(I4
tp1747
g145
I00
S'\xaeG\xe1z\x14.\x13@\x80\x14\xaeG\xe1z\xc4?\xcc\x7fH\xbf}\x1d\xed?\x00\x00\x00\x00\x00\x00\x00\x00'
p1748
tp1749
bsVbottom_wall
p1750
g22
(g23
(I0
tp1751
g25
tp1752
Rp1753
(I1
(I4
tp1754
g145
I00
S'\x00\x00\x00\x00\x00\x00\xfc?\x00\x00\x00\x00\x00\x00\x00\x00\x00\x00\x00\x00\x00\x00\x00\x00\x00\x00\x00\x00\x00\x00\x00\x00'
p1755
tp1756
bsVcup_905a
p1757
g22
(g23
(I0
tp1758
g25
tp1759
Rp1760
(I1
(I4
tp1761
g145
I00
S'\x00\x00\x00\x00\x00\x00\xf0?\x83\xc0\xca\xa1E\xb6\xdb?\x1b/\xdd$\x06\x81\xed?\x00\x00\x00\x00\x00\x00\x00\x00'
p1762
tp1763
bsVplate_496f
p1764
g22
(g23
(I0
tp1765
g25
tp1766
Rp1767
(I1
(I4
tp1768
g145
I00
S"q=\n\xd7\xa3p\xe5?\x9dhW!\xe5'\xdd\xbf\x1b/\xdd$\x06\x81\xed?\x00\x00\x00\x00\x00\x00\x00\x00"
p1769
tp1770
bsVtoaster
p1771
g22
(g23
(I0
tp1772
g25
tp1773
Rp1774
(I1
(I4
tp1775
g145
I00
S')\\\x8f\xc2\xf5(\xf4\xbf\xe0z\x14\xaeG\xe1\xf2\xbf\xb8\x1e\x85\xebQ\xb8\xee?\x89/`\x9b\xf8\x8a\xe4?'
p1776
tp1777
bsVc_obst1
p1778
g22
(g23
(I0
tp1779
g25
tp1780
Rp1781
(I1
(I4
tp1782
g145
I00
S"\xe8z\\!n\n\x12@$1\xd8\xa1\xc7C3\xbfe\xaa`TR'\xed?\tKn.\xa3i\x18@"
p1783
tp1784
bsVrectangular_packing_box4
p1785
g22
(g23
(I0
tp1786
g25
tp1787
Rp1788
(I1
(I4
tp1789
g145
I00
S'.\x1cl\xcdo\x99\x81\xbf\xa3\xb3\xbd\x91\x97O\x19\xc0L7\x89A`\xe5\xd8?\xa1\xf1\xef\xb6\xcc2\xf7?'
p1790
tp1791
bsVmicrowave
p1792
g22
(g23
(I0
tp1793
g25
tp1794
Rp1795
(I1
(I4
tp1796
g145
I00
S'\x9a\x99\x99\x99\x99\x99\xf1\xbf\x00\x00\x00\x00\x00\x00\x00@7\x89A`\xe5\xd0\xee?\x00\x00\x00\x00\x00\x00\x00\x00'
p1797
tp1798
bsVc_obst7
p1799
g22
(g23
(I0
tp1800
g25
tp1801
Rp1802
(I1
(I4
tp1803
g145
I00
S"\x15\xc8<\xa8SF\x12@\xab\x8dZ\xe6\xa8\x1c\xdd?e\xaa`TR'\xed?8\x18\xc1\xc12\xa0\x08@"
p1804
tp1805
bsVc_obst6
p1806
g22
(g23
(I0
tp1807
g25
tp1808
Rp1809
(I1
(I4
tp1810
g145
I00
S"\xe3n\x91\xf8\x805\x12@\xb4(2\\\xa0P\xd9?e\xaa`TR'\xed?\xe5\xcbP\x0fs\t\xf3?"
p1811
tp1812
bsVcup_b6af
p1813
g22
(g23
(I0
tp1814
g25
tp1815
Rp1816
(I1
(I4
tp1817
g145
I00
S'R\xb8\x1e\x85\xebQ\xe8?\x9a\x99\x99\x99\x99\x99\xe1?\x1b/\xdd$\x06\x81\xed?\x00\x00\x00\x00\x00\x00\x00\x00'
p1818
tp1819
bsVc_obst4
p1820
g22
(g23
(I0
tp1821
g25
tp1822
Rp1823
(I1
(I4
tp1824
g145
I00
S"w\xd2]\x98}\xee\x11@\x0cP\xae \x88\x03\xbe?e\xaa`TR'\xed?N\xd0s\x8d\xc6\xcf\x96?"
p1825
tp1826
bsVrectangular_packing_box2
p1827
g22
(g23
(I0
tp1828
g25
tp1829
Rp1830
(I1
(I4
tp1831
g145
I00
S'6%\x1c\xa6X9\xfd?*\xbcgE\xdc6\x16\xc0L7\x89A`\xe5\xd8?P\x81j\xc6\x8c\x15\x00@'
p1832
tp1833
bsVplate_fa76
p1834
g22
(g23
(I0
tp1835
g25
tp1836
Rp1837
(I1
(I4
tp1838
g145
I00
S'=\n\xd7\xa3p=\xf2?\x00\x00\x00\x00\x00\x00\x00\x00\x1b/\xdd$\x06\x81\xed?\x00\x00\x00\x00\x00\x00\x00\x00'
p1839
tp1840
bsVfloorwalls
p1841
g22
(g23
(I0
tp1842
g25
tp1843
Rp1844
(I1
(I4
tp1845
g145
I00
S'\xc7\xcc\xcc\xcc\xcc\xcc\xfc?\x00\x00\x00\x00\x00\x00\x18\xc0H\xe1z\x14\xaeG\xc1?\x16-DT\xfb!\xf9?'
p1846
tp1847
bsVpin_c671
p1848
g22
(g23
(I0
tp1849
g25
tp1850
Rp1851
(I1
(I4
tp1852
g145
I00
S'\xc3\xf5(\\\x8f\xc2\xf1\xbf}?5^\xbaI\x02@\xb8\x1e\x85\xebQ\xb8\xfa?\x00\x00\x00\x00\x00\x00\x00\x00'
p1853
tp1854
bsVc_obst3
p1855
g22
(g23
(I0
tp1856
g25
tp1857
Rp1858
(I1
(I4
tp1859
g145
I00
S"\xcdjX\xa0\xb0\x93\x12@@\x85\xf3B\xab\x92\xb4?e\xaa`TR'\xed?\xbf\xb1S\x0e\x8f\x17\x10@"
p1860
tp1861
bsVchair_2e39
p1862
g22
(g23
(I0
tp1863
g25
tp1864
Rp1865
(I1
(I4
tp1866
g145
I00
S'hfffff\xee?cfffff\xf2\xbf\x00\x00\x00\x00\x00\x00\x00\x00\x07M\xe8QQF\xf3?'
p1867
tp1868
bsVentrance_left
p1869
g22
(g23
(I0
tp1870
g25
tp1871
Rp1872
(I1
(I4
tp1873
g145
I00
S'\x98\x99\x99\x99\x99\x99\xe9\xbfH\xe1z\x14\xaeG\t\xc0\x9c\xc4 \xb0rh\xc1?\x00\x00\x00\x00\x00\x00\x00\x00'
p1874
tp1875
bsVtop_wall_1
p1876
g22
(g23
(I0
tp1877
g25
tp1878
Rp1879
(I1
(I4
tp1880
g145
I00
S'H\xe1z\x14\xaeG\x12@\x80\x14\xaeG\xe1z\xc4?xX\xa85\xcd\xbb\xf2?\x00\x00\x00\x00\x00\x00\x00\x00'
p1881
tp1882
bsVrectangular_packing_box3
p1883
g22
(g23
(I0
tp1884
g25
tp1885
Rp1886
(I1
(I4
tp1887
g145
I00
S'e\x08\xa8\x83e%\t@b\xde\xc3\xb3\x19\x9b\x1d\xc0L7\x89A`\xe5\xd8?]{\xd0e\x87K\x18@'
p1888
tp1889
bsVshaker
p1890
g22
(g23
(I0
tp1891
g25
tp1892
Rp1893
(I1
(I4
tp1894
g145
I00
S'\n\xd7\xa3p=\n\x01@\x14\xaeG\xe1z\x14\x02@\\\x8f\xc2\xf5(\\\xef?\x00\x00\x00\x00\x00\x00\x00\x00'
p1895
tp1896
bsVc_obst9
p1897
g22
(g23
(I0
tp1898
g25
tp1899
Rp1900
(I1
(I4
tp1901
g145
I00
S"\xc7pD\xc3\xc2\x80\x12@\xf0\x0b\x88\xcc\xbe\xd4\xb9\xbfe\xaa`TR'\xed?\x8a\xe1\x88\x8c\x12\x0b\n@"
p1902
tp1903
bsVplate_835a
p1904
g22
(g23
(I0
tp1905
g25
tp1906
Rp1907
(I1
(I4
tp1908
g145
I00
S'\xf6(\\\x8f\xc2\xf5\xf0?\\\x8f\xc2\xf5(\\\xe7\xbf\x1b/\xdd$\x06\x81\xed?\x00\x00\x00\x00\x00\x00\x00\x00'
p1909
tp1910
bsVcup_58a2
p1911
g22
(g23
(I0
tp1912
g25
tp1913
Rp1914
(I1
(I4
tp1915
g145
I00
S'\x85\xebQ\xb8\x1e\x85\xe3?\xcd\xcc\xcc\xcc\xcc\xcc\xdc?\x1b/\xdd$\x06\x81\xed?\x00\x00\x00\x00\x00\x00\x00\x00'
p1916
tp1917
bsVleft_wall_1
p1918
g22
(g23
(I0
tp1919
g25
tp1920
Rp1921
(I1
(I4
tp1922
g145
I00
S'H\xe1z\x14\xaeG\x12@S\xb8\x1e\x85\xebQ\xe4?\xcc\x7fH\xbf}\x1d\xed?\x00\x00\x00\x00\x00\x00\x00\x00'
p1923
tp1924
bsVc_obst2
p1925
g22
(g23
(I0
tp1926
g25
tp1927
Rp1928
(I1
(I4
tp1929
g145
I00
S"\x0e>\xdcf\xaa\xee\x11@*\x06\xfe5\xd1\xce\xb5\xbfe\xaa`TR'\xed?\x0c\x0e-\xfb\x99,\t@"
p1930
tp1931
bsVsquare_packing_box4
p1932
g22
(g23
(I0
tp1933
g25
tp1934
Rp1935
(I1
(I4
tp1936
g145
I00
S"\xfa\x17}\xbc\x8f\x87\x01@r\x93)L\xf1 \x18\xc0L7\x89A`\xe5\xd8?\x04\xbf\xb4\xc5C'\xb2?"
p1937
tp1938
bsVrectangular_packing_box1
p1939
g22
(g23
(I0
tp1940
g25
tp1941
Rp1942
(I1
(I4
tp1943
g145
I00
S'\xa1a\xa5\xfaBM\x0c@\xeb\x7f\xe3\x0e3\x10\x1a\xc0L7\x89A`\xe5\xd8?\xe3\x87B\xceG\x8d\x12@'
p1944
tp1945
bsVpin_371e
p1946
g22
(g23
(I0
tp1947
g25
tp1948
Rp1949
(I1
(I4
tp1950
g145
I00
S'333333\xf3\xbfffffff\xf6?\xb8\x1e\x85\xebQ\xb8\xee?\x00\x00\x00\x00\x00\x00\x00\x00'
p1951
tp1952
bsVfridge
p1953
g22
(g23
(I0
tp1954
g25
tp1955
Rp1956
(I1
(I4
tp1957
g145
I00
S'\xd7\xa3p=\n\xd7\xeb\xbf\x00\x00\x00\x00\x00\x00\x00\xc0\xcd\xcc\xcc\xcc\xcc\xcc\xf8?\x00\x00\x00\x00\x00\x00\x00\x00'
p1958
tp1959
bsVcup_d441
p1960
g22
(g23
(I0
tp1961
g25
tp1962
Rp1963
(I1
(I4
tp1964
g145
I00
S'\n\xd7\xa3p=\n\xef?\x8f\xc2\xf5(\\\x8f\xe2?\x1b/\xdd$\x06\x81\xed?\x00\x00\x00\x00\x00\x00\x00\x00'
p1965
tp1966
bsVshelf2
p1967
g22
(g23
(I0
tp1968
g25
tp1969
Rp1970
(I1
(I4
tp1971
g145
I00
S'\x00\x00\x00\x00\x00\x00\x0e@\xaeG\xe1z\x14\xae\x07@\x9c\xc4 \xb0rh\xc1?\xd2!3\x7f|\xd9\x12@'
p1972
tp1973
bsVtop_wall_2
p1974
g22
(g23
(I0
tp1975
g25
tp1976
Rp1977
(I1
(I4
tp1978
g145
I00
S'H\xe1z\x14\xaeG\x12@\x80\x14\xaeG\xe1z\xc4?\x16HP\xfc\x18\xf3\xfd?\x00\x00\x00\x00\x00\x00\x00\x00'
p1979
tp1980
bsVc_obst0
p1981
g22
(g23
(I0
tp1982
g25
tp1983
Rp1984
(I1
(I4
tp1985
g145
I00
S"\x93~\x81\r\xa6u\x12@X\xd4\xec\xc8\xbam\xcf?e\xaa`TR'\xed?\x00\xa8\xf4\xc3K<\x16@"
p1986
tp1987
bsVshelf1
p1988
g22
(g23
(I0
tp1989
g25
tp1990
Rp1991
(I1
(I4
tp1992
g145
I00
S'\x00\x00\x00\x00\x00\x00\x13@\xaeG\xe1z\x14\xae\x07@\x9c\xc4 \xb0rh\xc1?\xd2!3\x7f|\xd9\x12@'
p1993
tp1994
bsVsink
p1995
g22
(g23
(I0
tp1996
g25
tp1997
Rp1998
(I1
(I4
tp1999
g145
I00
S'ffffff\xd6?333333\x01@\x9a\x99\x99\x99\x99\x99\xb9\xbf\x00\x00\x00\x00\x00\x00\x00\x00'
p2000
tp2001
bsVpr2
p2002
g22
(g23
(I0
tp2003
g25
tp2004
Rp2005
(I1
(I4
tp2006
g145
I00
S'\x19ZK\xc34\xa3\xd9?<\xe2\xa5\xce\xf5A\x16\xc0\x9a_\x94\xa0\xbf\xd0\xc1?\xf8\x97W\xe2\xfa\x15\xf2?'
p2007
tp2008
bsVchair_12d0
p2009
g22
(g23
(I0
tp2010
g25
tp2011
Rp2012
(I1
(I4
tp2013
g145
I00
S'\\\xd2\x18\xad\xa3\xaa\xdb?Of\x83L2r\xc6?\x00\x00\x00\x00\x00\x00\x00\x00\xf8\x81\r\x14M\xa6\x17@'
p2014
tp2015
bsVright_wall_2
p2016
g22
(g23
(I0
tp2017
g25
tp2018
Rp2019
(I1
(I4
tp2020
g145
I00
S'H\xe1z\x14\xaeG\x12@&\\\x8f\xc2\xf5(\xd4\xbfxX\xa85\xcd\xbb\xf2?\x00\x00\x00\x00\x00\x00\x00\x00'
p2021
tp2022
bsVknife_block
p2023
g22
(g23
(I0
tp2024
g25
tp2025
Rp2026
(I1
(I4
tp2027
g145
I00
S'R\xb8\x1e\x85\xebQ\xe0\xbfffffff\x02@`\xe5\xd0"\xdb\xf9\xee?\x00\x00\x00\x00\x00\x00\x00\x00'
p2028
tp2029
bsVleft_wall_2
p2030
g22
(g23
(I0
tp2031
g25
tp2032
Rp2033
(I1
(I4
tp2034
g145
I00
S'H\xe1z\x14\xaeG\x12@S\xb8\x1e\x85\xebQ\xe4?xX\xa85\xcd\xbb\xf2?\x00\x00\x00\x00\x00\x00\x00\x00'
p2035
tp2036
bsVleft_wall
p2037
g22
(g23
(I0
tp2038
g25
tp2039
Rp2040
(I1
(I4
tp2041
g145
I00
S'\x9a\x99\x99\x99\x99\x99\x07@H\xe1z\x14\xaeG\xff?\x9c\xc4 \xb0rh\xc1?\x00\x00\x00\x00\x00\x00\x00\x00'
p2042
tp2043
bsVkitchen
p2044
g22
(g23
(I0
tp2045
g25
tp2046
Rp2047
(I1
(I4
tp2048
g145
I00
S'\x00\x00\x00\x00\x00\x00\x00\x00\x00\x00\x00\x00\x00\x00\x00\x00\x00\x00\x00\x00\x00\x00\x00\x00\x00\x00\x00\x00\x00\x00\x00\x00'
p2049
tp2050
bsVtable2
p2051
g22
(g23
(I0
tp2052
g25
tp2053
Rp2054
(I1
(I4
tp2055
g145
I00
S'\x00\x00\x00\x00\x00\x00\x13@\x80\x14\xaeG\xe1z\xc4?S\x96!\x8euq\xec?\xd2!3\x7f|\xd9\x12@'
p2056
tp2057
bsVc_obst8
p2058
g22
(g23
(I0
tp2059
g25
tp2060
Rp2061
(I1
(I4
tp2062
g145
I00
S"R\xb6\xc7a\xf2\x11\x12@\x98y\x08j;q\xd3?e\xaa`TR'\xed?\xc12D\x84G\x05\x15@"
p2063
tp2064
bsVplate_b4e7
p2065
g22
(g23
(I0
tp2066
g25
tp2067
Rp2068
(I1
(I4
tp2069
g145
I00
S'\x14\xaeG\xe1z\x14\xf2\xbf\x14\xaeG\xe1z\x14\x00@=\n\xd7\xa3p=\xf2?\x00\x00\x00\x00\x00\x00\x00\x00'
p2070
tp2071
bsVcooker
p2072
g22
(g23
(I0
tp2073
g25
tp2074
Rp2075
(I1
(I4
tp2076
g145
I00
S'\xaeG\xe1z\x14\xae\xff?\x85\xebQ\xb8\x1e\x85\xfb?\x00\x00\x00\x00\x00\x00\xe8?\x00\x00\x00\x00\x00\x00\x00\x00'
p2077
tp2078
bsVpin_a091
p2079
g22
(g23
(I0
tp2080
g25
tp2081
Rp2082
(I1
(I4
tp2083
g145
I00
S'\xdb\xf9~j\xbct\xf7\xbf)\\\x8f\xc2\xf5(\x02@\xb8\x1e\x85\xebQ\xb8\xfa?\x00\x00\x00\x00\x00\x00\x00\x00'
p2084
tp2085
bsVside_wall_2
p2086
g22
(g23
(I0
tp2087
g25
tp2088
Rp2089
(I1
(I4
tp2090
g145
I00
S'\xfa\xff\xff\xff\xff\xff\x14@\x00\x00\x00\x00\x00\x00\x00\x00\x9c\xc4 \xb0rh\xc1?\x18-DT\xfb!\xf9?'
p2091
tp2092
bsVside_wall_3
p2093
g22
(g23
(I0
tp2094
g25
tp2095
Rp2096
(I1
(I4
tp2097
g145
I00
S'\x00\x00\x00\x00\x00\x00\xfc?H\xe1z\x14\xaeG\t@\x9c\xc4 \xb0rh\xc1?\x00\x00\x00\x00\x00\x00\x00\x00'
p2098
tp2099
bsVmixer
p2100
g22
(g23
(I0
tp2101
g25
tp2102
Rp2103
(I1
(I4
tp2104
g145
I00
S'\n\xd7\xa3p=\n\xfb?ffffff\x02@d;\xdfO\x8d\x97\xee?\x00\x00\x00\x00\x00\x00\x00\x00'
p2105
tp2106
bsVside_wall_1
p2107
g22
(g23
(I0
tp2108
g25
tp2109
Rp2110
(I1
(I4
tp2111
g145
I00
S'\xf4\xff\xff\xff\xff\xff\xfb\xbf\x00\x00\x00\x00\x00\x00\x00\x00\x9c\xc4 \xb0rh\xc1?\x18-DT\xfb!\xf9?'
p2112
tp2113
bsVbottom_wall_1
p2114
g22
(g23
(I0
tp2115
g25
tp2116
Rp2117
(I1
(I4
tp2118
g145
I00
S'H\xe1z\x14\xaeG\x12@\x80\x14\xaeG\xe1z\xc4?\xcc\x7fH\xbf}\x1d\xed?\x00\x00\x00\x00\x00\x00\x00\x00'
p2119
tp2120
bsVcan
p2121
g22
(g23
(I0
tp2122
g25
tp2123
Rp2124
(I1
(I4
tp2125
g145
I00
S'\x00\x00\x00\x00\x00\x00\xf4\xbfH\xe1z\x14\xaeG\xe1\xbf\n\xd7\xa3p=\n\xef?\x00\x00\x00\x00\x00\x00\x00\x00'
p2126
tp2127
bsVright_wall
p2128
g22
(g23
(I0
tp2129
g25
tp2130
Rp2131
(I1
(I4
tp2132
g145
I00
S'\x9a\x99\x99\x99\x99\x99\x07@H\xe1z\x14\xaeG\xff\xbf\x9c\xc4 \xb0rh\xc1?\x00\x00\x00\x00\x00\x00\x00\x00'
p2133
tp2134
bsVcoffe_machine
p2135
g22
(g23
(I0
tp2136
g25
tp2137
Rp2138
(I1
(I4
tp2139
g145
I00
S'\\\x8f\xc2\xf5(\\\xf5\xbf\xb8\x1e\x85\xebQ\xb8\xee?\n\xd7\xa3p=\n\xef?\x00\x00\x00\x00\x00\x00\x00\x00'
p2140
tp2141
bsVcomputer_chair
p2142
g22
(g23
(I0
tp2143
g25
tp2144
Rp2145
(I1
(I4
tp2146
g145
I00
S'\xcd\xcc\xcc\xcc\xcc\xcc\x10@\x00\x00\x00\x00\x00\x00\xf8\xbf\xa00\xb6\x10\xe4\xa9\x95\xbf\x00\x00\x00\x00\x00\x00\x00\x00'
p2147
tp2148
bssS'robot_dof_values'
p2149
g22
(g23
(I0
tp2150
g25
tp2151
Rp2152
(I1
(I39
tp2153
g145
I00
S'\x00\x00\x00\x00\x00\x00\x00\x00\x00\x00\x00\x00\x00\x00\x00\x00\x00\x00\x00\x00\x00\x00\x00\x00\x00\x00\x00\x00\x00\x00\x00\x00\x00\x00\x00\x00\x00\x00\x00\x00\x00\x00\x00\x00\x00\x00\x00\x00\x00\x00\x00\x00\x00\x00\x00\x00\x00\x00\x00\x00\x00\x00\x00\x00\x00\x00\x00\x00\x00\x00\x00\x00\x00\x00\x00\x00\x00\x00\x00\x00\x00\x00\x00\x00\x00\x00\x00\x00\x00\x00\x00\x00\x00\x00\x00\x00@d;\xdfO\x8d\x87?\x00\x00\x00\x00\x00\x00\x00\x00\x00\x00\x00\x00\x00\x00\x00\x00\x00\x00\x00\x00\x00\x00\x00\x00\xeb\xed\t\xf1\xcc\xa4\xf4?\x00\x00\x00\x00\x00\x00\x00\x00L"\xd0^p\xf8\x00\xc0\x00\x00\x00\x00\x00\x00\x00\x00\x9f\x03\r.\x04V\xe6\xbf47\xe6\x1cb(\xa7<\x00\x00\x00\x00\x00\x00\x00\x00\x00\x00\x00\x00\x00\x00\xc3\xbc\x00\x00\x00\x00\x00\x00\x00\x00\x00\x00\x00\x00\x00\x00\xe4\xbc\x00\x00\x00\x00\x00\x00\x00\x00\x00\x00\x00\x00\x00\x00\x00\x00\xeb\xed\t\xf1\xcc\xa4\xf4?\x00\x00\x00\x00\x00\x00\xd0\xbcM"\xd0^p\xf8\x00\xc0\x00\x00\x00\x00\x00\x00\x00\x00\x9e\x03\r.\x04V\xe6\xbf\x00\x00\x00\x00\x00\x00\x00\x00\xc99\xe3\xc17\x89\xe1?\x00\x00\x00\x00\x00\x00\xc3\xbc\xdbl\xdf\xccv\xf8\xa0\xbc\x00\x00\x00\x00\x00\x00\x00\x00\x00\x00\x00\x00\x00\x00\x00\x00'
p2154
tp2155
bsS'is_holding'
p2156
I00
sbsS'holding_collides'
p2157
NsS'parent_ternary_predicates'
p2158
(dp2159
sS'cached_place_paths'
p2160
(dp2161
(g654
g981
tp2162
(lp2163
g22
(g23
(I0
tp2164
g25
tp2165
Rp2166
(I1
(I3
tp2167
g145
I00
S'B{\xc7\xca\xd7h\t@\x0bG)g\xbe\x12\x1d\xc0\xa8\x9cZ\xa1p\xab\xf4?'
p2168
tp2169
bas(g869
g136
tp2170
g205
s(g474
g136
tp2171
(lp2172
g22
(g23
(I0
tp2173
g25
tp2174
Rp2175
(I1
(I3
tp2176
g145
I00
S'\xe8\x15\x87\xef\x9b\x19\xe7?\xf3\xa1\xc3\x83\xaf\xbf\x19\xc0Y\x97]\x02\xdas\x0b@'
p2177
tp2178
bag22
(g23
(I0
tp2179
g25
tp2180
Rp2181
(I1
(I3
tp2182
g156
I00
S'\x07\xe5\xeeo\xc2@\xf0?\x80*\x19Ng\xcf\x17\xc0\xccm\xca\xd2+4\x0f@'
p2183
tp2184
bag22
(g23
(I0
tp2185
g25
tp2186
Rp2187
(I1
(I3
tp2188
g156
I00
S'\xa5P\xd1\x87\x88:\xe5?\xd8\xf1\xd1l\xc6\x00\x15\xc0{\xeaM\xb0\xfa\x02\x0e@'
p2189
tp2190
bag22
(g23
(I0
tp2191
g25
tp2192
Rp2193
(I1
(I3
tp2194
g156
I00
S'\xc6\x05\xbdtg\xd9\xe2?F\xdf\x9d@\\\xf3\x11\xc0\x1a\xc4.\xbb\xcc\x12\x02@'
p2195
tp2196
bag22
(g23
(I0
tp2197
g25
tp2198
Rp2199
(I1
(I3
tp2200
g156
I00
S'3z\xed\x8eN)\xe4?\x0c\x96\xd4\xa2\x0e\xd0\r\xc0\xbd%\xf5{\xe9\xf9\x03@'
p2201
tp2202
bag22
(g23
(I0
tp2203
g25
tp2204
Rp2205
(I1
(I3
tp2206
g156
I00
S'\xaf0\xe9h\xba~\xee?k\xbb\xd8\xd4\xd0g\t\xc09\x9ey\xed\xb06\x06@'
p2207
tp2208
bag22
(g23
(I0
tp2209
g25
tp2210
Rp2211
(I1
(I3
tp2212
g156
I00
S'\xf4\xfdJ\x1a(#\xec?H"\x9cD\x1aE\x05\xc0.\xa9\x0b\x87\xf8\xe1\x02@'
p2213
tp2214
bas(g476
g981
tp2215
(lp2216
g22
(g23
(I0
tp2217
g25
tp2218
Rp2219
(I1
(I3
tp2220
g145
I00
S'\x04\xab\x8a\xe1b\xdb\x03@\x16\xc5\x0c\x1eG\x91\x1d\xc0\x8e\xc8\x1b\xe9_\xaa\x0c@'
p2221
tp2222
bas(g474
g981
tp2223
(lp2224
g22
(g23
(I0
tp2225
g25
tp2226
Rp2227
(I1
(I3
tp2228
g145
I00
S'\xf0\x15\x87\xef\x9b\x19\xe7?\xf0\xa1\xc3\x83\xaf\xbf\x19\xc0Z\x97]\x02\xdas\x0b@'
p2229
tp2230
bas(g476
g136
tp2231
g388
s(g716
g981
tp2232
(lp2233
g22
(g23
(I0
tp2234
g25
tp2235
Rp2236
(I1
(I3
tp2237
g145
I00
S'\x9c4\xec\x0b\x98\xa5\x05@(\x12\x07\x96\xb5C\x1a\xc0mC\xa7\xf5\xbb\xe5\x0b@'
p2238
tp2239
bas(g716
g136
tp2240
g325
s(g12
g136
tp2241
(lp2242
g22
(g23
(I0
tp2243
g25
tp2244
Rp2245
(I1
(I3
tp2246
g145
I00
S'H0\x11B:b\xf1?\xe5\xd8\x99\xe7;\xb1\x18\xc0\x96p#F\xc6{\x17@'
p2247
tp2248
bag22
(g23
(I0
tp2249
g25
tp2250
Rp2251
(I1
(I3
tp2252
g156
I00
S'\xd0\xcb\x13\x8f\xaa\x9d\xed?\x90\x01<]3\x06\x16\xc0F\xf1\xe7x32\x02\xc0'
p2253
tp2254
bag22
(g23
(I0
tp2255
g25
tp2256
Rp2257
(I1
(I3
tp2258
g156
I00
S'l[\xc4\x16<\xe6\xe9?\xa6\xa0\x90\x84X\x9f\x13\xc0\xc2\xd74Q\x00\xaf\xff\xbf'
p2259
tp2260
bag22
(g23
(I0
tp2261
g25
tp2262
Rp2263
(I1
(I3
tp2264
g156
I00
S"\xaeJ\xbd\x1936\xec?\x04\x13\xd4'\x9f\x88\x10\xc0\x805qo\xb6\xe6\xff\xbf"
p2265
tp2266
bag22
(g23
(I0
tp2267
g25
tp2268
Rp2269
(I1
(I3
tp2270
g156
I00
S'\xf09\xb6\x1c*\x86\xee?\xc4\n/\x96\xcb\xe3\n\xc0\xa0\xc9\xd6F6\x0f\x00\xc0'
p2271
tp2272
bag22
(g23
(I0
tp2273
g25
tp2274
Rp2275
(I1
(I3
tp2276
g156
I00
S'3\xe9\xaf\x05T\x89\xe7?+~\xcb\xd3\x15\xc7\x04\xc0x6(d5\xed\x07@'
p2277
tp2278
bas(g604
g136
tp2279
g138
s(g604
g981
tp2280
(lp2281
g22
(g23
(I0
tp2282
g25
tp2283
Rp2284
(I1
(I3
tp2285
g145
I00
S'\x08W\\\xb8\xe3Q\x03@\xb0\x12\xad\xb7\x11\xe2\x1b\xc0\xeceC:\xfb*\x15@'
p2286
tp2287
bas(g869
g981
tp2288
(lp2289
g22
(g23
(I0
tp2290
g25
tp2291
Rp2292
(I1
(I3
tp2293
g145
I00
S'\x0b\x93\x1e\x98\x85\xef\x06@p 4\xcc\xea\x01\x18\xc0~x\xce;M\x02\x08@'
p2294
tp2295
bas(g12
g981
tp2296
(lp2297
g22
(g23
(I0
tp2298
g25
tp2299
Rp2300
(I1
(I3
tp2301
g145
I00
S'E0\x11B:b\xf1?\xe5\xd8\x99\xe7;\xb1\x18\xc0\x95p#F\xc6{\x17@'
p2302
tp2303
bas(g475
g981
tp2304
(lp2305
g22
(g23
(I0
tp2306
g25
tp2307
Rp2308
(I1
(I3
tp2309
g145
I00
S'\n\xccS\x93\xe2\xe7\xf3?\x1b\x18te\xe1I\x17\xc0d[%\xf0\x06\x08\xe0?'
p2310
tp2311
bas(g475
g136
tp2312
(lp2313
g22
(g23
(I0
tp2314
g25
tp2315
Rp2316
(I1
(I3
tp2317
g145
I00
S'\n\xccS\x93\xe2\xe7\xf3?\x1e\x18te\xe1I\x17\xc0m[%\xf0\x06\x08\xe0?'
p2318
tp2319
bag22
(g23
(I0
tp2320
g25
tp2321
Rp2322
(I1
(I3
tp2323
g156
I00
S'\xd8\x87\x03p)T\xe4?\xd5\xabI\xb7V\xd0\x15\xc0vWg\x9a\x87\x8a\xec?'
p2324
tp2325
bag22
(g23
(I0
tp2326
g25
tp2327
Rp2328
(I1
(I3
tp2329
g156
I00
S'\xa9\xd9\x1d\x8d\xa6j\xdf?\xa0\x85\x1a\x84\xc6\xec\x12\xc0\x01\xb6 H\xb1\x91\xeb?'
p2330
tp2331
bag22
(g23
(I0
tp2332
g25
tp2333
Rp2334
(I1
(I3
tp2335
g156
I00
S'\x93k\xbc\xee\xc2\x10\xe8?\xab^\x86?\x08D\x10\xc0\x10;2\x00\xe5\t\xde?'
p2336
tp2337
bag22
(g23
(I0
tp2338
g25
tp2339
Rp2340
(I1
(I3
tp2341
g156
I00
S'\xef\xc3u*\xfb\xdb\xeb?\x8d\xa5\n\xfd\x03<\n\xc0\xd8\xfb\xde\x16R\xac\xde?'
p2342
tp2343
bag22
(g23
(I0
tp2344
g25
tp2345
Rp2346
(I1
(I3
tp2347
g156
I00
S'\xf4\xfdJ\x1a(#\xec?H"\x9cD\x1aE\x05\xc0.\xa9\x0b\x87\xf8\xe1\x02@'
p2348
tp2349
bas(g654
g136
tp2350
g262
ssS'parent_binary_predicates'
p2351
(dp2352
sS'nodes'
p2353
(dp2354
g984
(lp2355
I0
aI0
aI0
aI0
aI0
aI0
aI00
aI01
aI00
aI01
aI00
asg981
(lp2356
I0
aI0
aI0
aI0
aI0
aI0
aI00
aI01
aI00
aI01
aI00
asg136
(lp2357
I0
aI0
aI0
aI0
aI0
aI0
aI00
aI01
aI01
aI01
aI00
asg947
(lp2358
I0
aI0
aI0
ag1555
(g145
S'6\xecp\xcdo\x99\x81\xbf'
p2359
tp2360
Rp2361
ag1555
(g145
S'\x9e\xb2\xbd\x91\x97O\x19\xc0'
p2362
tp2363
Rp2364
ag1555
(g145
S'\x9b\xf1\xef\xb6\xcc2\xf7?'
p2365
tp2366
Rp2367
aI01
aI00
aI00
aI01
aI00
asg937
(lp2368
I0
aI0
aI0
ag1555
(g145
S'C$\x1c\xa6X9\xfd?'
p2369
tp2370
Rp2371
ag1555
(g145
S'e\xbegE\xdc6\x16\xc0'
p2372
tp2373
Rp2374
ag1555
(g145
S'W\x81j\xc6\x8c\x15\x00@'
p2375
tp2376
Rp2377
aI01
aI00
aI00
aI01
aI00
asg135
(lp2378
I0
aI0
aI0
ag1555
(g145
S'(\x08\xa8\x83e%\t@'
p2379
tp2380
Rp2381
ag1555
(g145
S'Q\xde\xc3\xb3\x19\x9b\x1d\xc0'
p2382
tp2383
Rp2384
ag1555
(g145
S']{\xd0e\x87K\x18@'
p2385
tp2386
Rp2387
aI01
aI00
aI00
aI00
aI00
asg260
(lp2388
I0
aI0
aI0
ag1555
(g145
S'\xa0a\xa5\xfaBM\x0c@'
p2389
tp2390
Rp2391
ag1555
(g145
S'\xeb\x7f\xe3\x0e3\x10\x1a\xc0'
p2392
tp2393
Rp2394
ag1555
(g145
S'\xe2\x87B\xceG\x8d\x12@'
p2395
tp2396
Rp2397
aI01
aI00
aI00
aI00
aI00
asg323
(lp2398
I0
aI0
aI0
ag1555
(g145
S'\xcb\x04G\xb7(\xdb\xff?'
p2399
tp2400
Rp2401
ag1555
(g145
S'\\\xd3\xed\xf3\xa8\x9f\x1b\xc0'
p2402
tp2403
Rp2404
ag1555
(g145
S'\x0c\xb0v\x061z\x14@'
p2405
tp2406
Rp2407
aI01
aI00
aI00
aI00
aI00
asg386
(lp2408
I0
aI0
aI0
ag1555
(g145
S'N\x1e,\xfc\x18\xfd\xfd?'
p2409
tp2410
Rp2411
ag1555
(g145
S'\xf7\xff\x87\x84@\xf9\x1f\xc0'
p2412
tp2413
Rp2414
ag1555
(g145
S'D\xe0r\xb6E\xc3\x10@'
p2415
tp2416
Rp2417
aI01
aI00
aI00
aI01
aI00
asg941
(lp2418
I0
aI0
aI0
ag1555
(g145
S'-\xde\x84\xc6\x84\xae\xfc?'
p2419
tp2420
Rp2421
ag1555
(g145
S'\xb8\xb0w\xa7O\x86\x19\xc0'
p2422
tp2423
Rp2424
ag1555
(g145
S' -{\xc8\x8b-\xf1?'
p2425
tp2426
Rp2427
aI01
aI00
aI01
aI01
aI00
asg203
(lp2428
I0
aI0
aI0
ag1555
(g145
S'\x02\x18}\xbc\x8f\x87\x01@'
p2429
tp2430
Rp2431
ag1555
(g145
S'\x96\x93)L\xf1 \x18\xc0'
p2432
tp2433
Rp2434
ag1555
(g145
S"\x04\xbf\xb4\xc5C'\xb2?"
p2435
tp2436
Rp2437
aI01
aI00
aI00
aI00
aI00
assS'mc_place_path'
p2438
(dp2439
sS'parent_state'
p2440
NsS'goal_entities'
p2441
(lp2442
S'square_packing_box1'
p2443
ag136
asS'binary_edges'
p2444
(dp2445
(g323
g203
tp2446
(lp2447
I00
aI01
aI00
as(g323
g947
tp2448
(lp2449
I00
aI00
aI00
as(g135
g386
tp2450
(lp2451
I00
aI00
aI00
as(g135
g135
tp2452
(lp2453
I00
aI00
aI00
as(g937
g386
tp2454
(lp2455
I00
aI00
aI00
as(g937
g135
tp2456
(lp2457
I00
aI01
aI00
as(g203
g937
tp2458
(lp2459
I00
aI00
aI00
as(g323
g941
tp2460
(lp2461
I00
aI00
aI00
as(g260
g135
tp2462
(lp2463
I00
aI00
aI00
as(g947
g947
tp2464
(lp2465
I00
aI00
aI00
as(g937
g981
tp2466
(lp2467
g1555
(g29
(S'b1'
p2468
I0
I1
tp2469
Rp2470
(I3
S'|'
p2471
NNNI-1
I-1
I0
tp2472
bS'\x01'
p2473
tp2474
Rp2475
aI00
aI01
as(g984
g981
tp2476
(lp2477
I00
aI00
aI00
as(g947
g203
tp2478
(lp2479
I00
aI00
aI00
as(g981
g203
tp2480
(lp2481
I00
aI00
aI00
as(g941
g136
tp2482
(lp2483
I00
aI00
aI01
as(g984
g937
tp2484
(lp2485
I00
aI00
aI00
as(g937
g203
tp2486
(lp2487
I00
aI01
aI00
as(g135
g984
tp2488
(lp2489
g2475
aI00
aI00
as(g323
g323
tp2490
(lp2491
I00
aI00
aI00
as(g981
g323
tp2492
(lp2493
I00
aI00
aI00
as(g386
g937
tp2494
(lp2495
I00
aI00
aI00
as(g937
g136
tp2496
(lp2497
I00
aI00
aI01
as(g260
g386
tp2498
(lp2499
I00
aI00
aI00
as(g947
g260
tp2500
(lp2501
I00
aI00
aI00
as(g941
g941
tp2502
(lp2503
I00
aI00
aI00
as(g937
g984
tp2504
(lp2505
g2475
aI00
aI00
as(g981
g937
tp2506
(lp2507
I00
aI00
aI00
as(g981
g386
tp2508
(lp2509
I00
aI00
aI00
as(g981
g135
tp2510
(lp2511
I00
aI00
aI00
as(g386
g136
tp2512
(lp2513
I00
aI00
aI00
as(g203
g947
tp2514
(lp2515
I00
aI00
aI00
as(g260
g947
tp2516
(lp2517
I00
aI00
aI00
as(g386
g260
tp2518
(lp2519
I00
aI00
aI00
as(g981
g947
tp2520
(lp2521
I00
aI00
aI00
as(g984
g136
tp2522
(lp2523
I00
aI00
aI00
as(g941
g937
tp2524
(lp2525
I00
aI00
aI00
as(g947
g386
tp2526
(lp2527
I00
aI00
aI00
as(g984
g386
tp2528
(lp2529
I00
aI00
aI00
as(g386
g984
tp2530
(lp2531
g2475
aI00
aI00
as(g135
g323
tp2532
(lp2533
I00
aI00
aI00
as(g203
g941
tp2534
(lp2535
I00
aI00
aI00
as(g135
g937
tp2536
(lp2537
I00
aI00
aI00
as(g203
g136
tp2538
(lp2539
I00
aI00
aI00
as(g984
g984
tp2540
(lp2541
I00
aI00
aI00
as(g386
g947
tp2542
(lp2543
I00
aI00
aI00
as(g941
g323
tp2544
(lp2545
I00
aI01
aI00
as(g136
g941
tp2546
(lp2547
I00
aI00
aI00
as(g260
g981
tp2548
(lp2549
g2475
aI00
aI01
as(g136
g260
tp2550
(lp2551
I00
aI00
aI00
as(g203
g135
tp2552
(lp2553
I00
aI00
aI00
as(g135
g941
tp2554
(lp2555
I00
aI00
aI00
as(g386
g981
tp2556
(lp2557
g2475
aI00
aI01
as(g135
g260
tp2558
(lp2559
I00
aI00
aI00
as(g386
g386
tp2560
(lp2561
I00
aI00
aI00
as(g260
g937
tp2562
(lp2563
I00
aI00
aI00
as(g981
g136
tp2564
(lp2565
I00
aI00
aI00
as(g136
g323
tp2566
(lp2567
I00
aI00
aI00
as(g947
g136
tp2568
(lp2569
I00
aI00
aI01
as(g984
g260
tp2570
(lp2571
I00
aI00
aI00
as(g136
g203
tp2572
(lp2573
I00
aI00
aI00
as(g135
g203
tp2574
(lp2575
I00
aI00
aI00
as(g260
g984
tp2576
(lp2577
g2475
aI00
aI00
as(g203
g981
tp2578
(lp2579
g2475
aI00
aI01
as(g260
g323
tp2580
(lp2581
I00
aI00
aI00
as(g947
g937
tp2582
(lp2583
I00
aI00
aI00
as(g947
g981
tp2584
(lp2585
g2475
aI00
aI01
as(g136
g135
tp2586
(lp2587
I00
aI00
aI00
as(g984
g203
tp2588
(lp2589
I00
aI00
aI00
as(g984
g947
tp2590
(lp2591
I00
aI00
aI00
as(g260
g136
tp2592
(lp2593
I00
aI00
aI00
as(g323
g260
tp2594
(lp2595
I00
aI00
aI00
as(g941
g260
tp2596
(lp2597
I00
aI01
aI00
as(g136
g386
tp2598
(lp2599
I00
aI00
aI00
as(g981
g981
tp2600
(lp2601
I00
aI00
aI00
as(g323
g135
tp2602
(lp2603
I00
aI01
aI00
as(g941
g386
tp2604
(lp2605
I00
aI00
aI00
as(g981
g941
tp2606
(lp2607
I00
aI00
aI00
as(g937
g947
tp2608
(lp2609
I00
aI00
aI00
as(g981
g260
tp2610
(lp2611
I00
aI00
aI00
as(g941
g984
tp2612
(lp2613
g2475
aI00
aI00
as(g323
g937
tp2614
(lp2615
I00
aI00
aI00
as(g135
g136
tp2616
(lp2617
I00
aI00
aI00
as(g941
g947
tp2618
(lp2619
I00
aI00
aI00
as(g947
g941
tp2620
(lp2621
I00
aI00
aI00
as(g937
g941
tp2622
(lp2623
I00
aI00
aI00
as(g984
g323
tp2624
(lp2625
I00
aI00
aI00
as(g937
g260
tp2626
(lp2627
I00
aI01
aI00
as(g386
g323
tp2628
(lp2629
I00
aI00
aI00
as(g323
g981
tp2630
(lp2631
g2475
aI00
aI01
as(g260
g260
tp2632
(lp2633
I00
aI00
aI00
as(g203
g323
tp2634
(lp2635
I00
aI01
aI00
as(g941
g203
tp2636
(lp2637
I00
aI01
aI00
as(g937
g323
tp2638
(lp2639
I00
aI01
aI00
as(g937
g937
tp2640
(lp2641
I00
aI00
aI00
as(g203
g260
tp2642
(lp2643
I00
aI01
aI00
as(g323
g136
tp2644
(lp2645
I00
aI00
aI00
as(g386
g941
tp2646
(lp2647
I00
aI00
aI00
as(g135
g981
tp2648
(lp2649
g2475
aI00
aI01
as(g136
g937
tp2650
(lp2651
I00
aI00
aI00
as(g260
g941
tp2652
(lp2653
I00
aI00
aI00
as(g947
g135
tp2654
(lp2655
I00
aI00
aI00
as(g136
g981
tp2656
(lp2657
I00
aI00
aI00
as(g323
g386
tp2658
(lp2659
I00
aI00
aI00
as(g984
g135
tp2660
(lp2661
I00
aI00
aI00
as(g323
g984
tp2662
(lp2663
g2475
aI00
aI00
as(g386
g135
tp2664
(lp2665
I00
aI00
aI00
as(g136
g136
tp2666
(lp2667
I00
aI00
aI00
as(g260
g203
tp2668
(lp2669
I00
aI00
aI00
as(g947
g984
tp2670
(lp2671
g2475
aI00
aI00
as(g203
g984
tp2672
(lp2673
g2475
aI00
aI00
as(g136
g984
tp2674
(lp2675
I00
aI00
aI00
as(g136
g947
tp2676
(lp2677
I00
aI00
aI00
as(g386
g203
tp2678
(lp2679
I00
aI00
aI00
as(g203
g386
tp2680
(lp2681
I00
aI00
aI00
as(g135
g947
tp2682
(lp2683
I00
aI00
aI00
as(g981
g984
tp2684
(lp2685
I00
aI00
aI00
as(g941
g135
tp2686
(lp2687
I00
aI01
aI00
as(g947
g323
tp2688
(lp2689
I00
aI00
aI00
as(g203
g203
tp2690
(lp2691
I00
aI00
aI00
as(g941
g981
tp2692
(lp2693
g2475
aI00
aI01
as(g984
g941
tp2694
(lp2695
I00
aI00
aI00
assg472
g473
sS'pick_in_way'
p2696
(itrajectory_representation.predicates.pick_in_way
PickInWay
p2697
(dp2698
g133
(dp2699
g947
g554
sg937
g597
sg135
g629
sg260
g691
sg323
g753
sg386
g814
sg941
g850
sg203
g900
ssg443
(dp2700
g947
(lp2701
sg937
(lp2702
sg135
(lp2703
Vsquare_packing_box1
p2704
aVrectangular_packing_box2
p2705
aVsquare_packing_box2
p2706
asg260
(lp2707
Vsquare_packing_box1
p2708
aVrectangular_packing_box2
p2709
aVsquare_packing_box4
p2710
asg323
(lp2711
Vsquare_packing_box1
p2712
aVrectangular_packing_box2
p2713
aVsquare_packing_box4
p2714
asg386
(lp2715
sg941
(lp2716
sg203
(lp2717
Vsquare_packing_box1
p2718
aVrectangular_packing_box2
p2719
aVsquare_packing_box2
p2720
assg472
(lp2721
g937
ag386
ag947
ag984
ag136
ag981
ag941
ag984
ag136
ag981
ag984
ag136
ag981
ag984
ag136
ag981
ag984
ag136
ag981
ag984
ag136
ag981
ag984
ag136
ag981
ag984
ag136
ag981
asg477
g478
sg78
(dp2722
sg512
g513
sg927
Nsg933
g513
sg930
(dp2723
sg932
I8
sg976
I01
sg934
Nsg935
(dp2724
(g323
g203
tp2725
I01
s(g323
g947
tp2726
I00
s(g135
g386
tp2727
I00
s(g135
g135
tp2728
I00
s(g937
g386
tp2729
I00
s(g937
g135
tp2730
I01
s(g203
g937
tp2731
I00
s(g323
g941
tp2732
I00
s(g260
g135
tp2733
I00
s(g947
g947
tp2734
I00
s(g937
g981
tp2735
I00
s(g984
g981
tp2736
I00
s(g947
g203
tp2737
I00
s(g981
g203
tp2738
I00
s(g941
g136
tp2739
I00
s(g984
g937
tp2740
I00
s(g937
g203
tp2741
I01
s(g135
g984
tp2742
I00
s(g323
g323
tp2743
I00
s(g981
g323
tp2744
I00
s(g386
g937
tp2745
I00
s(g937
g136
tp2746
I00
s(g260
g386
tp2747
I00
s(g947
g260
tp2748
I00
s(g941
g941
tp2749
I00
s(g937
g984
tp2750
I00
s(g981
g937
tp2751
I00
s(g981
g386
tp2752
I00
s(g981
g135
tp2753
I00
s(g386
g136
tp2754
I00
s(g203
g947
tp2755
I00
s(g260
g947
tp2756
I00
s(g386
g260
tp2757
I00
s(g981
g947
tp2758
I00
s(g984
g136
tp2759
I00
s(g941
g937
tp2760
I00
s(g947
g386
tp2761
I00
s(g984
g386
tp2762
I00
s(g386
g984
tp2763
I00
s(g135
g323
tp2764
I00
s(g203
g941
tp2765
I00
s(g135
g937
tp2766
I00
s(g203
g136
tp2767
I00
s(g984
g984
tp2768
I00
s(g386
g947
tp2769
I00
s(g941
g323
tp2770
I01
s(g136
g941
tp2771
I00
s(g260
g981
tp2772
I00
s(g136
g260
tp2773
I00
s(g203
g135
tp2774
I00
s(g135
g941
tp2775
I00
s(g386
g981
tp2776
I00
s(g135
g260
tp2777
I00
s(g386
g386
tp2778
I00
s(g260
g937
tp2779
I00
s(g981
g136
tp2780
I00
s(g136
g323
tp2781
I00
s(g947
g136
tp2782
I00
s(g984
g260
tp2783
I00
s(g136
g203
tp2784
I00
s(g135
g203
tp2785
I00
s(g260
g984
tp2786
I00
s(g203
g981
tp2787
I00
s(g260
g323
tp2788
I00
s(g947
g937
tp2789
I00
s(g947
g981
tp2790
I00
s(g136
g135
tp2791
I00
s(g984
g203
tp2792
I00
s(g984
g947
tp2793
I00
s(g260
g136
tp2794
I00
s(g323
g260
tp2795
I00
s(g941
g260
tp2796
I01
s(g136
g386
tp2797
I00
s(g981
g981
tp2798
I00
s(g323
g135
tp2799
I01
s(g941
g386
tp2800
I00
s(g981
g941
tp2801
I00
s(g937
g947
tp2802
I00
s(g981
g260
tp2803
I00
s(g941
g984
tp2804
I00
s(g323
g937
tp2805
I00
s(g135
g136
tp2806
I00
s(g941
g947
tp2807
I00
s(g947
g941
tp2808
I00
s(g937
g941
tp2809
I00
s(g984
g323
tp2810
I00
s(g937
g260
tp2811
I01
s(g386
g323
tp2812
I00
s(g323
g981
tp2813
I00
s(g260
g260
tp2814
I00
s(g203
g323
tp2815
I01
s(g941
g203
tp2816
I01
s(g937
g323
tp2817
I01
s(g937
g937
tp2818
I00
s(g203
g260
tp2819
I01
s(g323
g136
tp2820
I00
s(g386
g941
tp2821
I00
s(g135
g981
tp2822
I00
s(g136
g937
tp2823
I00
s(g260
g941
tp2824
I00
s(g947
g135
tp2825
I00
s(g136
g981
tp2826
I00
s(g323
g386
tp2827
I00
s(g984
g135
tp2828
I00
s(g323
g984
tp2829
I00
s(g386
g135
tp2830
I00
s(g136
g136
tp2831
I00
s(g260
g203
tp2832
I00
s(g947
g984
tp2833
I00
s(g203
g984
tp2834
I00
s(g136
g984
tp2835
I00
s(g136
g947
tp2836
I00
s(g386
g203
tp2837
I00
s(g203
g386
tp2838
I00
s(g135
g947
tp2839
I00
s(g981
g984
tp2840
I00
s(g941
g135
tp2841
I01
s(g947
g323
tp2842
I00
s(g203
g203
tp2843
I00
s(g941
g981
tp2844
I00
s(g984
g941
tp2845
I00
ssg975
NsbsS'robot_pose'
p2846
g22
(g23
(I0
tp2847
g25
tp2848
Rp2849
(I1
(I1
I3
tp2850
g145
I00
S'\xfdYK\xc34\xa3\xd9?<\xe2\xa5\xce\xf5A\x16\xc0\xf8\x97W\xe2\xfa\x15\xf2?'
p2851
tp2852
bsS'is_holding_goal_entity'
p2853
(itrajectory_representation.predicates.is_holding_goal_entity
IsHoldingGoalEntity
p2854
(dp2855
g2441
g2442
sg934
NsbsS'mc_pick_path'
p2856
(dp2857
sS'current_collides'
p2858
g478
sbasS'seed'
p2859
NsS'state_prime'
p2860
(lp2861
sS'problem_idx'
p2862
I269
sb.