(itrajectory_representation.trajectory
Trajectory
p0
(dp1
S'rewards'
p2
(lp3
I10
asS'actions'
p4
(lp5
(itrajectory_representation.operator
Operator
p6
(dp7
S'is_skeleton'
p8
I00
sS'discrete_parameters'
p9
(dp10
S'object'
p11
Vsquare_packing_box1
p12
sS'two_arm_place_region'
p13
S'home_region'
p14
sS'two_arm_place_object'
p15
Vsquare_packing_box1
p16
ssS'type'
p17
S'two_arm_pick_two_arm_place'
p18
sS'continuous_parameters'
p19
(dp20
S'q_goal'
p21
cnumpy.core.multiarray
_reconstruct
p22
(cnumpy
ndarray
p23
(I0
tp24
S'b'
p25
tp26
Rp27
(I1
(I3
tp28
cnumpy
dtype
p29
(S'f8'
p30
I0
I1
tp31
Rp32
(I3
S'<'
p33
NNNI-1
I-1
I0
tp34
bI00
S'H+@\x9d\xf4%\xfa?k\xac\xe2\xc2\x13\n\x1a\xc0\xac}\xc6\x8f\x81\xeb\xd2\xbf'
p35
tp36
bsS'place'
p37
(dp38
g21
g22
(g23
(I0
tp39
g25
tp40
Rp41
(I1
(I3
tp42
g32
I00
S'\xa3\x11oV\x85l\x03@\xbe\n\xe9\xea#M\x03\xc0\xbb{\x16\xa2\x85\xca\x07@'
p43
tp44
bssS'pick'
p45
(dp46
g21
g27
sssS'low_level_motion'
p47
(lp48
g22
(g23
(I0
tp49
g25
tp50
Rp51
(I1
(I3
tp52
g32
I00
S'\xab\x9e\xda\xf1\x9a\r\xf0?L\x88]\x1a\x97\x1d\x19\xc0\xf5\xfb\x82\xe2`b\t@'
p53
tp54
bag22
(g23
(I0
tp55
g25
tp56
Rp57
(I1
(I3
tp58
g29
(S'f8'
p59
I0
I1
tp60
Rp61
(I3
S'<'
p62
NNNI-1
I-1
I0
tp63
bI00
S'o\xd6\x82\xea\x7f\xb2\xed?9\xf2C\x0b?\xfd\x16\xc0(?d\xe9@\xb5\x02@'
p64
tp65
bag22
(g23
(I0
tp66
g25
tp67
Rp68
(I1
(I3
tp69
g61
I00
S'\xcb\xa0\xb6M\xadU\xef?ny]\x1b[.\x1a\xc0\x99\xfe\xc1BBE\xde?'
p70
tp71
bag27
ag27
asbasS'filename'
p72
S''
p73
sS'states'
p74
(lp75
(itrajectory_representation.shortest_path_pick_and_place_state
ShortestPathPaPState
p76
(dp77
S'place_used'
p78
(dp79
(g16
g14
tp80
(itrajectory_representation.operator
Operator
p81
(dp82
g8
I01
sg9
(dp83
S'region'
p84
g14
sg11
g16
ssg17
S'two_arm_place'
p85
sg19
(dp86
g21
g22
(g23
(I0
tp87
g25
tp88
Rp89
(I1
(I3
tp90
g32
I00
S'\xa3\x11oV\x85l\x03@\xbe\n\xe9\xea#M\x03\xc0\xbb{\x16\xa2\x85\xca\x07@'
p91
tp92
bssg47
(lp93
g22
(g23
(I0
tp94
g25
tp95
Rp96
(I1
(I3
tp97
g32
I00
S'Y+@\x9d\xf4%\xfa?m\xac\xe2\xc2\x13\n\x1a\xc0\xb7}\xc6\x8f\x81\xeb\xd2\xbf'
p98
tp99
bag22
(g23
(I0
tp100
g25
tp101
Rp102
(I1
(I3
tp103
g61
I00
S'v%D\x97w\xd1\xf7?Z\xadP\x90\x08<\x17\xc0-\xca\x8a\t\xe2p\xe7\xbf'
p104
tp105
bag22
(g23
(I0
tp106
g25
tp107
Rp108
(I1
(I3
tp109
g61
I00
S'tx\x8as\xa8b\xed?\x9ej\x15\xfa\xf0{\x15\xc0@\xed\x9a-\x9eD\xf2\xbf'
p110
tp111
bag22
(g23
(I0
tp112
g25
tp113
Rp114
(I1
(I3
tp115
g61
I00
S'\xb0E\xbb;Cb\xeb?\x9e\xde\xa7\xdd\xbdd\x12\xc0\xc6\xee\xbd\x16\x8c\xaa\xf3\xbf'
p116
tp117
bag22
(g23
(I0
tp118
g25
tp119
Rp120
(I1
(I3
tp121
g61
I00
S'\xec\x12\xec\x03\xdea\xe9?<\xa5t\x82\x15\x9b\x0e\xc0L\xf0\xe0\xffy\x10\xf5\xbf'
p122
tp123
bag22
(g23
(I0
tp124
g25
tp125
Rp126
(I1
(I3
tp127
g61
I00
S'(\xe0\x1c\xccxa\xe7?<\x8d\x99I\xafl\x08\xc0\xd2\xf1\x03\xe9gv\xf6\xbf'
p128
tp129
bag22
(g23
(I0
tp130
g25
tp131
Rp132
(I1
(I3
tp133
g61
I00
S'\xb0V\x04\n\x9c\xab\xf4?h\xebm\xaf4T\x05\xc0b\xbc8-\x0bw\xf6\xbf'
p134
tp135
bag22
(g23
(I0
tp136
g25
tp137
Rp138
(I1
(I3
tp139
g61
I00
S'\x04\xaa\xb8\xe5F\x90\x00@\xa6\x0c\xbct\xf3|\x05\xc0 \x95\x86\xd9\xda\x82\x06@'
p140
tp141
bag89
ag89
asbssS'place_in_way'
p142
(itrajectory_representation.predicates.place_in_way
PlaceInWay
p143
(dp144
S'mc_path_to_entity'
p145
(dp146
(Vrectangular_packing_box3
p147
S'home_region'
p148
tp149
(lp150
g22
(g23
(I0
tp151
g25
tp152
Rp153
(I1
(I3
tp154
g29
(S'f8'
p155
I0
I1
tp156
Rp157
(I3
S'<'
p158
NNNI-1
I-1
I0
tp159
bI00
S':\xe9\x05\x9b\xd6\xcd\x01@M=\xb7\xc7\xdc\xf2\x16\xc0W\xb3\xc5<`\xc3\x17@'
p160
tp161
bag22
(g23
(I0
tp162
g25
tp163
Rp164
(I1
(I3
tp165
g29
(S'f8'
p166
I0
I1
tp167
Rp168
(I3
S'<'
p169
NNNI-1
I-1
I0
tp170
bI00
S'v%D\x97w\xd1\xf7?Z\xadP\x90\x08<\x17\xc0-\xca\x8a\t\xe2p\xe7\xbf'
p171
tp172
bag22
(g23
(I0
tp173
g25
tp174
Rp175
(I1
(I3
tp176
g168
I00
S'\xe4\x9e\xb7\xac\xe0!\xeb?\x8a\x83\x10\xb1\xa2\xad\x15\xc0\x9aS\xfbY\xaf\x8f\xd2\xbf'
p177
tp178
bag22
(g23
(I0
tp179
g25
tp180
Rp181
(I1
(I3
tp182
g168
I00
S"\xb2&6mg)\xe8?\x99\xe0G'\x16\xe0\x13\xc0\xc8oL\xf5\x17p\xe6\xbf"
p183
tp184
bag22
(g23
(I0
tp185
g25
tp186
Rp187
(I1
(I3
tp188
g168
I00
S'`\xc8Aw-\x81\xeb?/\xc3\xe6O\x04\xca\x10\xc0\x8a\xb7K)\x91{\xe4\xbf'
p189
tp190
bag22
(g23
(I0
tp191
g25
tp192
Rp193
(I1
(I3
tp194
g168
I00
S'\xe1\xc6\xc7\xa7\x12X\xe7?\x98\x99\xb0\x9a\xfb\xdb\x0b\xc0R\t\x1b)\xeae\xe0\xbf'
p195
tp196
bag22
(g23
(I0
tp197
g25
tp198
Rp199
(I1
(I3
tp200
g168
I00
S'p\xf1\xbdc^\x84\xf1?"\x88LL\xf9D\x06\xc0~w\r\xe9m\x0f\x19@'
p201
tp202
bas(Vsquare_packing_box4
p203
g148
tp204
(lp205
g22
(g23
(I0
tp206
g25
tp207
Rp208
(I1
(I3
tp209
g157
I00
S'\xdaq\x15\xf7\xca\xe4\x03@\x1ad\xa8[\xe9\x19\x16\xc0\x14D%\xd8yH\x18@'
p210
tp211
bag22
(g23
(I0
tp212
g25
tp213
Rp214
(I1
(I3
tp215
g168
I00
S'!\x83\xc0\xf3W\x85\xff?\xed\x8f\x90/y\xfd\x16\xc06jP\xfe\x98\xf5\xf4\xbf'
p216
tp217
bag22
(g23
(I0
tp218
g25
tp219
Rp220
(I1
(I3
tp221
g168
I00
S'2Z\xe1\xe97J\xf6?\\\x1e`@2v\x16\xc0\xc4\x0c\xcc\x14<\xf9\xf6\xbf'
p222
tp223
bag22
(g23
(I0
tp224
g25
tp225
Rp226
(I1
(I3
tp227
g168
I00
S'tx\x8as\xa8b\xed?\x9ej\x15\xfa\xf0{\x15\xc0@\xed\x9a-\x9eD\xf2\xbf'
p228
tp229
bag22
(g23
(I0
tp230
g25
tp231
Rp232
(I1
(I3
tp233
g168
I00
S"\xb2&6mg)\xe8?\x99\xe0G'\x16\xe0\x13\xc0\xc8oL\xf5\x17p\xe6\xbf"
p234
tp235
bag22
(g23
(I0
tp236
g25
tp237
Rp238
(I1
(I3
tp239
g168
I00
S'`\xc8Aw-\x81\xeb?/\xc3\xe6O\x04\xca\x10\xc0\x8a\xb7K)\x91{\xe4\xbf'
p240
tp241
bag22
(g23
(I0
tp242
g25
tp243
Rp244
(I1
(I3
tp245
g168
I00
S'\xe1\xc6\xc7\xa7\x12X\xe7?\x98\x99\xb0\x9a\xfb\xdb\x0b\xc0R\t\x1b)\xeae\xe0\xbf'
p246
tp247
bag22
(g23
(I0
tp248
g25
tp249
Rp250
(I1
(I3
tp251
g168
I00
S'p\xf1\xbdc^\x84\xf1?"\x88LL\xf9D\x06\xc0~w\r\xe9m\x0f\x19@'
p252
tp253
bas(Vrectangular_packing_box4
p254
g148
tp255
(lp256
g22
(g23
(I0
tp257
g25
tp258
Rp259
(I1
(I3
tp260
g157
I00
S'P@\xb9\xc3\x84\x89\xe2?\xd6\xdag\x84\\\xe2\x1f\xc0f\x91+\x0c\x19\xa1\xf1?'
p261
tp262
bag22
(g23
(I0
tp263
g25
tp264
Rp265
(I1
(I3
tp266
g168
I00
S'\xc4n\xb3\xbcO\x07\xe0?\xd0\x17\x1bE\xa1\xce\x1d\xc0\x95\xcf\xf4\xdc\x03J\xf9?'
p267
tp268
bag22
(g23
(I0
tp269
g25
tp270
Rp271
(I1
(I3
tp272
g168
I00
S'\x00{\xeeM\xfb\x06\xd8?\xa7W\x1e\xc1\xa5F\x1b\xc0\xd0\xcaV\x8a\x88D\xf6?'
p273
tp274
bag22
(g23
(I0
tp275
g25
tp276
Rp277
(I1
(I3
tp278
g168
I00
S'B\x9aa8\x98\xa6\xe8?\xf3\xe9\x94/\xc2\xe4\x18\xc0u\xf8\xb0\x7fO\xb8\xf2?'
p279
tp280
bag22
(g23
(I0
tp281
g25
tp282
Rp283
(I1
(I3
tp284
g168
I00
S'\xd8\x87\x03p)T\xe4?\xd5\xabI\xb7V\xd0\x15\xc0vWg\x9a\x87\x8a\xec?'
p285
tp286
bag22
(g23
(I0
tp287
g25
tp288
Rp289
(I1
(I3
tp290
g168
I00
S'\xa9\xd9\x1d\x8d\xa6j\xdf?\xa0\x85\x1a\x84\xc6\xec\x12\xc0\x01\xb6 H\xb1\x91\xeb?'
p291
tp292
bag22
(g23
(I0
tp293
g25
tp294
Rp295
(I1
(I3
tp296
g168
I00
S'\x93k\xbc\xee\xc2\x10\xe8?\xab^\x86?\x08D\x10\xc0\x10;2\x00\xe5\t\xde?'
p297
tp298
bag22
(g23
(I0
tp299
g25
tp300
Rp301
(I1
(I3
tp302
g168
I00
S'\xef\xc3u*\xfb\xdb\xeb?\x8d\xa5\n\xfd\x03<\n\xc0\xd8\xfb\xde\x16R\xac\xde?'
p303
tp304
bag22
(g23
(I0
tp305
g25
tp306
Rp307
(I1
(I3
tp308
g168
I00
S'\xf4\xfdJ\x1a(#\xec?H"\x9cD\x1aE\x05\xc0.\xa9\x0b\x87\xf8\xe1\x02@'
p309
tp310
bas(Vsquare_packing_box2
p311
g148
tp312
(lp313
g22
(g23
(I0
tp314
g25
tp315
Rp316
(I1
(I3
tp317
g157
I00
S'\xd5]?\x0f\x1dl\x07@\x06=\x8cc\x15U\x1a\xc0vN*^\xa7\x19\x16@'
p318
tp319
bag22
(g23
(I0
tp320
g25
tp321
Rp322
(I1
(I3
tp323
g168
I00
S'\x02:\xde\x84?\xc0\x03@\x16\xfaJE\x8a\x0f\x19\xc0\x13\xc0\x8b\x01\x1d?\xf4\xbf'
p324
tp325
bag22
(g23
(I0
tp326
g25
tp327
Rp328
(I1
(I3
tp329
g168
I00
S'!\x83\xc0\xf3W\x85\xff?\xed\x8f\x90/y\xfd\x16\xc06jP\xfe\x98\xf5\xf4\xbf'
p330
tp331
bag22
(g23
(I0
tp332
g25
tp333
Rp334
(I1
(I3
tp335
g168
I00
S'2Z\xe1\xe97J\xf6?\\\x1e`@2v\x16\xc0\xc4\x0c\xcc\x14<\xf9\xf6\xbf'
p336
tp337
bag22
(g23
(I0
tp338
g25
tp339
Rp340
(I1
(I3
tp341
g168
I00
S'tx\x8as\xa8b\xed?\x9ej\x15\xfa\xf0{\x15\xc0@\xed\x9a-\x9eD\xf2\xbf'
p342
tp343
bag22
(g23
(I0
tp344
g25
tp345
Rp346
(I1
(I3
tp347
g168
I00
S"\xb2&6mg)\xe8?\x99\xe0G'\x16\xe0\x13\xc0\xc8oL\xf5\x17p\xe6\xbf"
p348
tp349
bag22
(g23
(I0
tp350
g25
tp351
Rp352
(I1
(I3
tp353
g168
I00
S'`\xc8Aw-\x81\xeb?/\xc3\xe6O\x04\xca\x10\xc0\x8a\xb7K)\x91{\xe4\xbf'
p354
tp355
bag22
(g23
(I0
tp356
g25
tp357
Rp358
(I1
(I3
tp359
g168
I00
S'\xe1\xc6\xc7\xa7\x12X\xe7?\x98\x99\xb0\x9a\xfb\xdb\x0b\xc0R\t\x1b)\xeae\xe0\xbf'
p360
tp361
bag22
(g23
(I0
tp362
g25
tp363
Rp364
(I1
(I3
tp365
g168
I00
S'p\xf1\xbdc^\x84\xf1?"\x88LL\xf9D\x06\xc0~w\r\xe9m\x0f\x19@'
p366
tp367
bas(Vrectangular_packing_box1
p368
g148
tp369
(lp370
g22
(g23
(I0
tp371
g25
tp372
Rp373
(I1
(I3
tp374
g157
I00
S'\x88vB\x9cj\x85\x03@Q\xddgY\x93:\x19\xc0\xc8D\x1d\xcaz]\xfc?'
p375
tp376
bag22
(g23
(I0
tp377
g25
tp378
Rp379
(I1
(I3
tp380
g168
I00
S'\xe0 ;\x819w\xfd?\xe7\xcc\xc2\xa0\xa5f\x17\xc04\xedq\x1c\x8eK\xfa?'
p381
tp382
bag22
(g23
(I0
tp383
g25
tp384
Rp385
(I1
(I3
tp386
g168
I00
S'\x85\\2\xba\x0b5\xf5?I\r\x06\xd10\xfb\x15\xc0\x9e\x11\xee\xd8\xb9\xd7\xf5?'
p387
tp388
bag22
(g23
(I0
tp389
g25
tp390
Rp391
(I1
(I3
tp392
g168
I00
S'v\xb8^\x85\xa7[\xea?x\xbe\xff2t\x8d\x13\xc0\x88\x85\x8cCyH\xf6?'
p393
tp394
bag22
(g23
(I0
tp395
g25
tp396
Rp397
(I1
(I3
tp398
g168
I00
S'\xc2\xda(e\x83\x1a\xeb?\x8au\x8d3\xa6E\x11\xc0\xb4c\x1b\xed_\xfd\xfa?'
p399
tp400
bag22
(g23
(I0
tp401
g25
tp402
Rp403
(I1
(I3
tp404
g168
I00
S'\xe4u**\x0e5\xe9?\xaa\xfd\r\xed\xc4\xf6\r\xc0\x0fDE0\x1f\x0b\xfe?'
p405
tp406
bag22
(g23
(I0
tp407
g25
tp408
Rp409
(I1
(I3
tp410
g168
I00
S'\x06\x11,\xef\x98O\xe7??\x10\x01s=b\t\xc04\x92\xb79o\x8c\x00@'
p411
tp412
bag22
(g23
(I0
tp413
g25
tp414
Rp415
(I1
(I3
tp416
g168
I00
S'\x92\xaf\xf3P\x96O\xc2?(\xa1:\x8er}\x05\xc0\xd4_\x91\xb3\xffL\x02@'
p417
tp418
bas(Vrectangular_packing_box2
p419
g148
tp420
(lp421
g22
(g23
(I0
tp422
g25
tp423
Rp424
(I1
(I3
tp425
g157
I00
S"L\x06\x8b^6\x88\x06@\x04\xd9\xe9\xeb\n\xf3\x1b\xc0\x98\x16\x06'\x8f|\x10@"
p426
tp427
bag22
(g23
(I0
tp428
g25
tp429
Rp430
(I1
(I3
tp431
g168
I00
S'2]\x933g}\x00@\xebx\x00&R!\x1b\xc0\xce\x170ZD}\x00\xc0'
p432
tp433
bag22
(g23
(I0
tp434
g25
tp435
Rp436
(I1
(I3
tp437
g168
I00
S'4#\xe8i\x80D\xf8?\xdd\x1dlTl\\\x19\xc0m\xc1\x1a\xec\xde\x01\x01\xc0'
p438
tp439
bag22
(g23
(I0
tp440
g25
tp441
Rp442
(I1
(I3
tp443
g168
I00
S'\x9f5<Q\xb2\xb3\xf7?\xb3\xd6LI,\xe8\x16\xc0\xc2\x13\xbbtu\x87\x00\xc0'
p444
tp445
bag22
(g23
(I0
tp446
g25
tp447
Rp448
(I1
(I3
tp449
g168
I00
S'\xd0\xcb\x13\x8f\xaa\x9d\xed?\x90\x01<]3\x06\x16\xc0F\xf1\xe7x32\x02\xc0'
p450
tp451
bag22
(g23
(I0
tp452
g25
tp453
Rp454
(I1
(I3
tp455
g168
I00
S'l[\xc4\x16<\xe6\xe9?\xa6\xa0\x90\x84X\x9f\x13\xc0\xc2\xd74Q\x00\xaf\xff\xbf'
p456
tp457
bag22
(g23
(I0
tp458
g25
tp459
Rp460
(I1
(I3
tp461
g168
I00
S"\xaeJ\xbd\x1936\xec?\x04\x13\xd4'\x9f\x88\x10\xc0\x805qo\xb6\xe6\xff\xbf"
p462
tp463
bag22
(g23
(I0
tp464
g25
tp465
Rp466
(I1
(I3
tp467
g168
I00
S'\xf09\xb6\x1c*\x86\xee?\xc4\n/\x96\xcb\xe3\n\xc0\xa0\xc9\xd6F6\x0f\x00\xc0'
p468
tp469
bag22
(g23
(I0
tp470
g25
tp471
Rp472
(I1
(I3
tp473
g168
I00
S'3\xe9\xaf\x05T\x89\xe7?+~\xcb\xd3\x15\xc7\x04\xc0x6(d5\xed\x07@'
p474
tp475
bassS'mc_to_entity'
p476
(dp477
(g147
g148
tp478
(lp479
Vrectangular_packing_box1
p480
as(g203
g148
tp481
(lp482
Vrectangular_packing_box1
p483
aVrectangular_packing_box3
p484
as(g254
g148
tp485
(lp486
Vsquare_packing_box3
p487
as(g311
g148
tp488
(lp489
Vrectangular_packing_box3
p490
aVsquare_packing_box1
p491
aVrectangular_packing_box1
p492
as(g368
g148
tp493
(lp494
Vsquare_packing_box1
p495
aVrectangular_packing_box3
p496
as(g419
g148
tp497
(lp498
Vsquare_packing_box1
p499
assS'reachable_entities'
p500
(lp501
Vrectangular_packing_box4
p502
aVrectangular_packing_box1
p503
aVsquare_packing_box3
p504
ag12
asS'collides'
p505
(dp506
Vrectangular_packing_box4
p507
c__builtin__
set
p508
((lp509
I384
aI262
aI135
aI136
aI523
aI146
aI158
aI163
aI134
aI433
aI296
aI263
aI176
aI177
aI308
aI448
aI583
aI328
aI458
aI464
aI81
aI82
aI83
aI505
aI346
aI355
aI486
aI230
aI593
aI490
aI494
aI240
aI121
aI122
aI124
aI264
atp510
Rp511
sVrectangular_packing_box2
p512
g508
((lp513
I256
aI513
aI514
aI259
aI260
aI515
aI286
aI543
aI552
aI556
aI429
aI179
aI436
aI440
aI443
aI444
aI573
aI65
aI66
aI67
aI68
aI585
aI610
aI337
aI339
aI340
aI91
aI354
aI613
aI358
aI572
aI112
aI113
aI117
aI118
aI375
aI123
aI254
aI255
atp514
Rp515
sVrectangular_packing_box3
p516
g508
((lp517
I2
aI393
aI144
aI403
aI539
aI541
aI288
aI37
aI38
aI39
aI40
aI41
aI302
aI561
aI178
aI435
aI309
aI54
aI188
aI62
aI63
aI64
aI577
aI194
aI438
aI376
aI342
aI89
aI90
aI219
aI348
aI605
aI611
aI612
aI550
aI114
aI115
aI248
aI377
aI379
aI511
atp518
Rp519
sVrectangular_packing_box1
p520
g508
((lp521
I2
aI3
aI393
aI395
aI404
aI539
aI160
aI161
aI37
aI38
aI39
aI41
aI42
aI43
aI304
aI309
aI188
aI288
aI289
aI416
aI611
aI106
aI497
aI115
aI372
aI379
aI380
aI554
atp522
Rp523
sVsquare_packing_box2
p524
g508
((lp525
I268
aI270
aI405
aI280
aI548
aI425
aI303
aI307
aI565
aI438
aI442
aI193
aI453
aI457
aI343
aI473
aI220
aI479
aI614
aI367
aI500
aI246
aI247
aI381
atp526
Rp527
sVsquare_packing_box3
p528
g508
((lp529
I384
aI257
aI134
aI394
aI523
aI580
aI155
aI157
aI163
aI164
aI165
aI433
aI308
aI575
aI452
aI197
aI583
aI328
aI518
aI589
aI338
aI83
aI478
aI356
aI229
aI502
atp530
Rp531
sVsquare_packing_box1
p532
g508
((lp533
I256
aI577
aI194
aI145
aI538
aI413
aI219
aI36
aI422
aI179
aI54
aI443
aI444
aI63
aI64
aI65
aI66
aI67
aI69
aI205
aI79
aI80
aI215
aI89
aI90
aI91
aI92
aI358
aI114
aI511
aI376
aI123
aI255
atp534
Rp535
sVsquare_packing_box4
p536
g508
((lp537
I0
aI1
aI2
aI393
aI403
aI539
aI541
aI288
aI546
aI39
aI40
aI41
aI555
aI571
aI62
aI454
aI342
aI348
aI605
aI370
aI377
aI378
atp538
Rp539
ssg78
g79
sS'pick_used'
p540
(dp541
g502
(itrajectory_representation.operator
Operator
p542
(dp543
g8
I01
sg9
(dp544
S'object'
p545
Vrectangular_packing_box4
p546
ssg17
S'two_arm_pick'
p547
sg19
(dp548
S'q_goal'
p549
(lp550
g22
(g23
(I0
tp551
g25
tp552
Rp553
(I1
(I3
tp554
g157
I00
S'U@\xb9\xc3\x84\x89\xe2?\xd6\xdag\x84\\\xe2\x1f\xc0f\x91+\x0c\x19\xa1\xf1?'
p555
tp556
bag22
(g23
(I0
tp557
g25
tp558
Rp559
(I1
(I3
tp560
g157
I00
S'&n\xa47\x18D\xf9?\xeeM\x06\xdfT\xdb\x1b\xc0\xd50\x98+k1\x05\xc0'
p561
tp562
bag22
(g23
(I0
tp563
g25
tp564
Rp565
(I1
(I3
tp566
g157
I00
S'S\xcfm\xb5,\xc4\xe2?\xbf\x98\xa7\xf0r\x81\x1a\xc0\xdcz\xb1u\x8c\x86\xf3\xbf'
p567
tp568
bag22
(g23
(I0
tp569
g25
tp570
Rp571
(I1
(I3
tp572
g157
I00
S'\xc2(\x8dT\x93\xf0\xd4?x\x80\xbf\xe2\xed\xd0\x1b\xc0\xb3\xa4\xef\xfb\xb6C\xed\xbf'
p573
tp574
basS'is_feasible'
p575
I00
ssg47
(lp576
g22
(g23
(I0
tp577
g25
tp578
Rp579
(I1
(I3
tp580
g157
I00
S'\x9e\x9e\xda\xf1\x9a\r\xf0?9\x88]\x1a\x97\x1d\x19\xc0\xf5\xfb\x82\xe2`b\t@'
p581
tp582
bag22
(g23
(I0
tp583
g25
tp584
Rp585
(I1
(I3
tp586
g168
I00
S'o\xd6\x82\xea\x7f\xb2\xed?9\xf2C\x0b?\xfd\x16\xc0(?d\xe9@\xb5\x02@'
p587
tp588
bag22
(g23
(I0
tp589
g25
tp590
Rp591
(I1
(I3
tp592
g168
I00
S'\xf8C*\xbe\x14\xcf\xe8?\x81d\xab\xeb\xa8<\x18\xc0\xc8\\\xf4\x8c\xc3\xfa\xfe\xbf'
p593
tp594
bag565
asbsVrectangular_packing_box2
p595
(itrajectory_representation.operator
Operator
p596
(dp597
g8
I01
sg9
(dp598
g545
Vrectangular_packing_box2
p599
ssg17
g547
sg19
(dp600
g549
(lp601
g22
(g23
(I0
tp602
g25
tp603
Rp604
(I1
(I3
tp605
g157
I00
S'P\x06\x8b^6\x88\x06@\x05\xd9\xe9\xeb\n\xf3\x1b\xc0\x01-|Z\xd8J\x01\xc0'
p606
tp607
bag22
(g23
(I0
tp608
g25
tp609
Rp610
(I1
(I3
tp611
g157
I00
S'\xb2\xef\xdc\x1e\xc03\n@B\x98\xf0\xb0A\xb3\x1c\xc0qO\xa9\xc0h\xb2\x03\xc0'
p612
tp613
bag22
(g23
(I0
tp614
g25
tp615
Rp616
(I1
(I3
tp617
g157
I00
S'\x99\x83\r\xc1\xd0\xb7\x07@\xbf\xa8f+@\x14\x1c\xc0\xfe\x1e\x8d\xa0V\x97\xf9\xbf'
p618
tp619
bag22
(g23
(I0
tp620
g25
tp621
Rp622
(I1
(I3
tp623
g157
I00
S'\xb6\xc7B\xdfU\xc6\n@\xc6@\xe5b\x10\x18 \xc0No^\xd3\xc6\t\x08@'
p624
tp625
bag22
(g23
(I0
tp626
g25
tp627
Rp628
(I1
(I3
tp629
g157
I00
S'\xaa\xd8\xd4\x0e\xbc\x84\x08@p\xacP\xc5\x11\x7f\x1c\xc0\x8e\xf4C\x8d%u\x02\xc0'
p630
tp631
basg575
I00
ssg47
(lp632
g22
(g23
(I0
tp633
g25
tp634
Rp635
(I1
(I3
tp636
g157
I00
S'\x9e\x9e\xda\xf1\x9a\r\xf0?9\x88]\x1a\x97\x1d\x19\xc0\xf5\xfb\x82\xe2`b\t@'
p637
tp638
bag22
(g23
(I0
tp639
g25
tp640
Rp641
(I1
(I3
tp642
g168
I00
S'Z\xd4U\x1d\xf6`\xf4? %_\x1c\x06\x1f\x1b\xc0T\xcf(@X`\r@'
p643
tp644
bag22
(g23
(I0
tp645
g25
tp646
Rp647
(I1
(I3
tp648
g168
I00
S'2]\x933g}\x00@\xebx\x00&R!\x1b\xc0\xce\x170ZD}\x00\xc0'
p649
tp650
bag604
asbsVrectangular_packing_box3
p651
(itrajectory_representation.operator
Operator
p652
(dp653
g8
I01
sg9
(dp654
g545
Vrectangular_packing_box3
p655
ssg17
g547
sg19
(dp656
g549
(lp657
g22
(g23
(I0
tp658
g25
tp659
Rp660
(I1
(I3
tp661
g157
I00
S';\xe9\x05\x9b\xd6\xcd\x01@L=\xb7\xc7\xdc\xf2\x16\xc0\x14\x9c\xe7w\xb1\xe9\xd5\xbf'
p662
tp663
bag22
(g23
(I0
tp664
g25
tp665
Rp666
(I1
(I3
tp667
g157
I00
S'\xdd~BY\x870\x0b@\x0b&k\x1a}\xec\x19\xc0\xc0\x96\xb6\xe2\x04\x95\t@'
p668
tp669
bag22
(g23
(I0
tp670
g25
tp671
Rp672
(I1
(I3
tp673
g157
I00
S'\x18r\xfa\t\xb6H\x02@\x1d\x00\x95\x85\xa6\xe1\x16\xc0\xc3\xf0\xf5\x90L\xe7\xe7\xbf'
p674
tp675
basg575
I00
ssg47
(lp676
g22
(g23
(I0
tp677
g25
tp678
Rp679
(I1
(I3
tp680
g157
I00
S'\x9e\x9e\xda\xf1\x9a\r\xf0?9\x88]\x1a\x97\x1d\x19\xc0\xf5\xfb\x82\xe2`b\t@'
p681
tp682
bag22
(g23
(I0
tp683
g25
tp684
Rp685
(I1
(I3
tp686
g168
I00
S"\xc6'8AN\xb0\xec?\xe0\x975>\x0f\x03\x19\xc0(\xe0e;\x85\x89\x05\xc0"
p687
tp688
bag22
(g23
(I0
tp689
g25
tp690
Rp691
(I1
(I3
tp692
g168
I00
S'\xf5I-\xc1\xee\x1f\xfa?Zc\rx\x9c\n\x18\xc0?_z:D*\x17@'
p693
tp694
bag660
asbsg503
(itrajectory_representation.operator
Operator
p695
(dp696
g8
I01
sg9
(dp697
g545
Vrectangular_packing_box1
p698
ssg17
g547
sg19
(dp699
g549
(lp700
g22
(g23
(I0
tp701
g25
tp702
Rp703
(I1
(I3
tp704
g157
I00
S'\x88vB\x9cj\x85\x03@P\xddgY\x93:\x19\xc0\xc7D\x1d\xcaz]\xfc?'
p705
tp706
bag22
(g23
(I0
tp707
g25
tp708
Rp709
(I1
(I3
tp710
g157
I00
S'\x0f\xa2_ \xbeL\x06@\xd7\xc2)\xf7n\x82\x18\xc0\xcc\x1c\xfe\xc7\x8b~\x00@'
p711
tp712
bag22
(g23
(I0
tp713
g25
tp714
Rp715
(I1
(I3
tp716
g157
I00
S'7a\x84\xa8!c\xfa?\xdf\x15\xf9\x19M\x1e\x18\xc0t\xcey\xe8W\x91\xd7?'
p717
tp718
basg575
I00
ssg47
(lp719
g22
(g23
(I0
tp720
g25
tp721
Rp722
(I1
(I3
tp723
g157
I00
S'\x9e\x9e\xda\xf1\x9a\r\xf0?9\x88]\x1a\x97\x1d\x19\xc0\xf5\xfb\x82\xe2`b\t@'
p724
tp725
bag22
(g23
(I0
tp726
g25
tp727
Rp728
(I1
(I3
tp729
g168
I00
S'\x07\xe5\xeeo\xc2@\xf0?\x80*\x19Ng\xcf\x17\xc0\xccm\xca\xd2+4\x0f@'
p730
tp731
bag22
(g23
(I0
tp732
g25
tp733
Rp734
(I1
(I3
tp735
g168
I00
S'3\x82\x8a\x8fh\xb2\xf8?\xecMw\xff=$\x19\xc0\x10\x03\x08*\x90Q\x89?'
p736
tp737
bag715
asbsVsquare_packing_box2
p738
(itrajectory_representation.operator
Operator
p739
(dp740
g8
I01
sg9
(dp741
g545
Vsquare_packing_box2
p742
ssg17
g547
sg19
(dp743
g549
(lp744
g22
(g23
(I0
tp745
g25
tp746
Rp747
(I1
(I3
tp748
g157
I00
S'\xd7]?\x0f\x1dl\x07@\x05=\x8cc\x15U\x1a\xc0\x14\xf5\xce\xb0\x9fB\xe8\xbf'
p749
tp750
bag22
(g23
(I0
tp751
g25
tp752
Rp753
(I1
(I3
tp754
g157
I00
S'D\xbb\\\x13A#\n@\xc0\xc8\xbb\x92B\xde\x18\xc0g\xdd\x1b\x88\xff\xca\xec\xbf'
p755
tp756
bag22
(g23
(I0
tp757
g25
tp758
Rp759
(I1
(I3
tp760
g157
I00
S'\xcc\xf3>"\xfa\xde\x0b@bP\xddR(E\x1e\xc0\x08\x03\xec\x1fR)\xf7?'
p761
tp762
bag22
(g23
(I0
tp763
g25
tp764
Rp765
(I1
(I3
tp766
g157
I00
S'd}\x9e\x93\x11\xd8\x05@\xa1n[6V"\x1b\xc0P\x8e$J\xbe\xa0o\xbf'
p767
tp768
bag22
(g23
(I0
tp769
g25
tp770
Rp771
(I1
(I3
tp772
g157
I00
S'f\xe0\xb9\xaf\xb3\x80\x08@\xb6\r\xe0/\xd8s\x19\xc0\xe6\x1f\xc9\x10S\xdf\xe0\xbf'
p773
tp774
basg575
I00
ssg47
(lp775
g22
(g23
(I0
tp776
g25
tp777
Rp778
(I1
(I3
tp779
g157
I00
S'\x9e\x9e\xda\xf1\x9a\r\xf0?9\x88]\x1a\x97\x1d\x19\xc0\xf5\xfb\x82\xe2`b\t@'
p780
tp781
bag22
(g23
(I0
tp782
g25
tp783
Rp784
(I1
(I3
tp785
g168
I00
S'\xeaT\xc2\xbf\xe4\x8d\xfb?L\xe4y~t"\x18\xc0\x0f\x12ob\\\x05\x0b@'
p786
tp787
bag22
(g23
(I0
tp788
g25
tp789
Rp790
(I1
(I3
tp791
g168
I00
S'A\xec\xb55+(\x03@v\x14\x1a\xc5J\xca\x18\xc0\xe9\rA\xa0%\xbe\xc7?'
p792
tp793
bag747
asbsg504
(itrajectory_representation.operator
Operator
p794
(dp795
g8
I01
sg9
(dp796
g545
Vsquare_packing_box3
p797
ssg17
g547
sg19
(dp798
g549
(lp799
g22
(g23
(I0
tp800
g25
tp801
Rp802
(I1
(I3
tp803
g157
I00
S'F\xadx7\xc0\x82\xe5?\x17!!t\x02o\x1a\xc0H\x98u\x81\x1d\x10\x01\xc0'
p804
tp805
bag22
(g23
(I0
tp806
g25
tp807
Rp808
(I1
(I3
tp809
g157
I00
S'\x8c5\xe8qH\xe7\xe2?\x89\n\xe7\t\x980\x1f\xc0\x8b\xbd\xdd\xc0\xe9\x1a\xfb?'
p810
tp811
bag22
(g23
(I0
tp812
g25
tp813
Rp814
(I1
(I3
tp815
g157
I00
S'\xa0\x0e\x8cS\x1a\x99\xd3?\xb7qI^\x11\xd2\x19\xc0\x04\xd5\xfen8\xbe\xf7\xbf'
p816
tp817
basg575
I00
ssg47
(lp818
g22
(g23
(I0
tp819
g25
tp820
Rp821
(I1
(I3
tp822
g157
I00
S'\x9e\x9e\xda\xf1\x9a\r\xf0?9\x88]\x1a\x97\x1d\x19\xc0\xf5\xfb\x82\xe2`b\t@'
p823
tp824
bag22
(g23
(I0
tp825
g25
tp826
Rp827
(I1
(I3
tp828
g168
I00
S'\x84\xa2s4\xa1\xd0\xf6?E=|\xb9\xcam\x17\xc0\xa93^V\xfc\xed\x05@'
p829
tp830
bag22
(g23
(I0
tp831
g25
tp832
Rp833
(I1
(I3
tp834
g168
I00
S'\xf8C*\xbe\x14\xcf\xe8?\x81d\xab\xeb\xa8<\x18\xc0\xc8\\\xf4\x8c\xc3\xfa\xfe\xbf'
p835
tp836
bag802
asbsg12
(itrajectory_representation.operator
Operator
p837
(dp838
g8
I01
sg9
(dp839
g11
g12
ssg17
S'two_arm_pick'
p840
sg19
(dp841
g21
g22
(g23
(I0
tp842
g25
tp843
Rp844
(I1
(I3
tp845
g32
I00
S'H+@\x9d\xf4%\xfa?k\xac\xe2\xc2\x13\n\x1a\xc0\xac}\xc6\x8f\x81\xeb\xd2\xbf'
p846
tp847
bssg47
(lp848
g22
(g23
(I0
tp849
g25
tp850
Rp851
(I1
(I3
tp852
g157
I00
S'\x9e\x9e\xda\xf1\x9a\r\xf0?9\x88]\x1a\x97\x1d\x19\xc0\xf5\xfb\x82\xe2`b\t@'
p853
tp854
bag22
(g23
(I0
tp855
g25
tp856
Rp857
(I1
(I3
tp858
g168
I00
S'ib\xa2\x0c9\xe9\xd7?\xca\xcd\xb4=\xe6_\x18\xc0tY\xa4\x97\x8d\xd7\x02@'
p859
tp860
bag22
(g23
(I0
tp861
g25
tp862
Rp863
(I1
(I3
tp864
g168
I00
S'\xcb\xa0\xb6M\xadU\xef?ny]\x1b[.\x1a\xc0\x99\xfe\xc1BBE\xde?'
p865
tp866
bag844
asbsVsquare_packing_box4
p867
(itrajectory_representation.operator
Operator
p868
(dp869
g8
I01
sg9
(dp870
g545
Vsquare_packing_box4
p871
ssg17
g547
sg19
(dp872
g549
(lp873
g22
(g23
(I0
tp874
g25
tp875
Rp876
(I1
(I3
tp877
g157
I00
S'\xd9q\x15\xf7\xca\xe4\x03@\x16d\xa8[\xe9\x19\x16\xc0w \xdd\x83/0\xcb\xbf'
p878
tp879
bag22
(g23
(I0
tp880
g25
tp881
Rp882
(I1
(I3
tp883
g157
I00
S'\xd7Gp\x0c\xd2w\t@\x9d~\xa7\x07\xa0\xbf\x18\xc0\x1a\x9f9\xb3\xbf4\xf6?'
p884
tp885
bag22
(g23
(I0
tp886
g25
tp887
Rp888
(I1
(I3
tp889
g157
I00
S'{\x9f7\xe8\x8c\xce\x07@\x8e\x91;p\xdd4\x19\xc0\x9bk\xc4\x8c\xa0r\xf0?'
p890
tp891
bag22
(g23
(I0
tp892
g25
tp893
Rp894
(I1
(I3
tp895
g157
I00
S'\xba\xa8\xd8\x8aH\xf3\r@s\xa3CA\x9b\x9f\x17\xc0\xa6\x1a\xd2w\xfdE\x05@'
p896
tp897
bag22
(g23
(I0
tp898
g25
tp899
Rp900
(I1
(I3
tp901
g157
I00
S'\xb9)\xeb\xb6\xf5\xb2\x06@5P\xd4\xbc\xe5z\x18\xc0(Ri\xa6f\xf3\xf4?'
p902
tp903
basg575
I00
ssg47
(lp904
g22
(g23
(I0
tp905
g25
tp906
Rp907
(I1
(I3
tp908
g157
I00
S'\x9e\x9e\xda\xf1\x9a\r\xf0?9\x88]\x1a\x97\x1d\x19\xc0\xf5\xfb\x82\xe2`b\t@'
p909
tp910
bag22
(g23
(I0
tp911
g25
tp912
Rp913
(I1
(I3
tp914
g168
I00
S'\xeaT\xc2\xbf\xe4\x8d\xfb?L\xe4y~t"\x18\xc0\x0f\x12ob\\\x05\x0b@'
p915
tp916
bag22
(g23
(I0
tp917
g25
tp918
Rp919
(I1
(I3
tp920
g168
I00
S'\x00\xda\x1c<\xfd\xdc\x00@j"\x91\xe3 \x1a\x18\xc0i~!@)\xb0\xdc\xbf'
p921
tp922
bag876
asbssS'mc_paths'
p923
(dp924
sS'robot'
p925
NsS'reachable_obj_region_pairs'
p926
(lp927
sS'sampled_pick_configs_for_objects'
p928
(dp929
sS'mc_calls'
p930
I0
sS'pick_poses'
p931
g541
sS'problem_env'
p932
NsS'evaluations'
p933
(dp934
(g368
g419
g148
tp935
I00
s(g311
g419
g148
tp936
I00
s(g419
Vsquare_packing_box3
p937
g148
tp938
I00
s(g254
g311
g148
tp939
I00
s(g203
g311
g148
tp940
I00
s(g254
g203
g148
tp941
I00
s(g311
Vsquare_packing_box1
p942
g148
tp943
I01
s(g368
g942
g148
tp944
I01
s(g368
g254
g148
tp945
I00
s(g311
g147
g148
tp946
I01
s(g254
g937
g148
tp947
I01
s(g203
g937
g148
tp948
I00
s(g419
g368
g148
tp949
I00
s(g147
g942
g148
tp950
I00
s(g203
g368
g148
tp951
I01
s(g254
g368
g148
tp952
I00
s(g419
g942
g148
tp953
I01
s(g147
g254
g148
tp954
I00
s(g419
g203
g148
tp955
I00
s(g147
g937
g148
tp956
I00
s(g147
g368
g148
tp957
I01
s(g203
g419
g148
tp958
I00
s(g254
g419
g148
tp959
I00
s(g368
g203
g148
tp960
I00
s(g311
g368
g148
tp961
I01
s(g203
g254
g148
tp962
I00
s(g147
g203
g148
tp963
I00
s(g311
g254
g148
tp964
I00
s(g311
g203
g148
tp965
I00
s(g203
g147
g148
tp966
I01
s(g311
g937
g148
tp967
I00
s(g254
g147
g148
tp968
I00
s(g368
g937
g148
tp969
I00
s(g368
g147
g148
tp970
I01
s(g147
g419
g148
tp971
I00
s(g419
g311
g148
tp972
I00
s(g254
g942
g148
tp973
I00
s(g203
g942
g148
tp974
I00
s(g419
g254
g148
tp975
I00
s(g147
g311
g148
tp976
I00
s(g419
g147
g148
tp977
I00
s(g368
g311
g148
tp978
I00
ssS'paths_to_reachable_entities'
p979
NsS'use_shortest_path'
p980
I01
sbsS'ternary_edges'
p981
(dp982
(g419
g419
g148
tp983
(lp984
I00
as(g942
S'loading_region'
p985
g985
tp986
(lp987
I00
as(S'entire_region'
p988
g368
g148
tp989
(lp990
I00
as(g311
g203
g985
tp991
(lp992
I00
as(g148
g148
g148
tp993
(lp994
I00
as(g203
g419
g985
tp995
(lp996
I00
as(g942
g147
g148
tp997
(lp998
I00
as(g148
g254
g148
tp999
(lp1000
I00
as(g311
g942
g148
tp1001
(lp1002
I01
as(g147
g254
g985
tp1003
(lp1004
I00
as(g148
g203
g985
tp1005
(lp1006
I00
as(g311
g988
g148
tp1007
(lp1008
I00
as(g985
g148
g985
tp1009
(lp1010
I00
as(g254
g937
g148
tp1011
(lp1012
I01
as(g203
g988
g148
tp1013
(lp1014
I00
as(g311
g368
g985
tp1015
(lp1016
I00
as(g937
g985
g148
tp1017
(lp1018
I00
as(g988
g419
g985
tp1019
(lp1020
I00
as(g148
g988
g148
tp1021
(lp1022
I00
as(g419
g985
g148
tp1023
(lp1024
I00
as(g937
g988
g148
tp1025
(lp1026
I00
as(g942
g942
g985
tp1027
(lp1028
I00
as(g985
g203
g985
tp1029
(lp1030
I00
as(g988
g985
g148
tp1031
(lp1032
I00
as(g988
g311
g148
tp1033
(lp1034
I00
as(g985
g985
g148
tp1035
(lp1036
I00
as(g937
g254
g985
tp1037
(lp1038
I00
as(g148
g148
g985
tp1039
(lp1040
I00
as(g368
g311
g985
tp1041
(lp1042
I00
as(g419
g203
g148
tp1043
(lp1044
I00
as(g937
g942
g148
tp1045
(lp1046
I00
as(g368
g148
g985
tp1047
(lp1048
I00
as(g148
g419
g985
tp1049
(lp1050
I00
as(g368
g147
g985
tp1051
(lp1052
I00
as(g147
g368
g148
tp1053
(lp1054
I01
as(g985
g942
g985
tp1055
(lp1056
I00
as(g203
g311
g985
tp1057
(lp1058
I00
as(g419
g419
g985
tp1059
(lp1060
I00
as(g988
g203
g148
tp1061
(lp1062
I00
as(g985
g148
g148
tp1063
(lp1064
I00
as(g254
g419
g148
tp1065
(lp1066
I00
as(g148
g147
g148
tp1067
(lp1068
I00
as(g311
g368
g148
tp1069
(lp1070
I01
as(g147
g203
g148
tp1071
(lp1072
I00
as(g942
g147
g985
tp1073
(lp1074
I00
as(g937
g311
g148
tp1075
(lp1076
I00
as(g311
g942
g985
tp1077
(lp1078
I00
as(g311
g419
g985
tp1079
(lp1080
I00
as(g988
g311
g985
tp1081
(lp1082
I00
as(g985
g147
g985
tp1083
(lp1084
I00
as(g988
g148
g148
tp1085
(lp1086
I00
as(g254
g148
g148
tp1087
(lp1088
I00
as(g985
g988
g148
tp1089
(lp1090
I00
as(g419
g203
g985
tp1091
(lp1092
I00
as(g937
g419
g985
tp1093
(lp1094
I00
as(g937
g937
g148
tp1095
(lp1096
I00
as(g368
g147
g148
tp1097
(lp1098
I01
as(g988
g419
g148
tp1099
(lp1100
I00
as(g368
g985
g985
tp1101
(lp1102
I00
as(g203
g942
g148
tp1103
(lp1104
I00
as(g942
g942
g148
tp1105
(lp1106
I00
as(g942
g254
g148
tp1107
(lp1108
I00
as(g254
g419
g985
tp1109
(lp1110
I00
as(g203
g368
g985
tp1111
(lp1112
I00
as(g937
g254
g148
tp1113
(lp1114
I00
as(g368
g311
g148
tp1115
(lp1116
I00
as(g419
g368
g985
tp1117
(lp1118
I00
as(g368
g148
g148
tp1119
(lp1120
I00
as(g311
g419
g148
tp1121
(lp1122
I00
as(g419
g937
g148
tp1123
(lp1124
I00
as(g147
g368
g985
tp1125
(lp1126
I00
as(g148
g311
g985
tp1127
(lp1128
I00
as(g988
g148
g985
tp1129
(lp1130
I00
as(g988
g203
g985
tp1131
(lp1132
I00
as(g937
g419
g148
tp1133
(lp1134
I00
as(g147
g937
g985
tp1135
(lp1136
I00
as(g419
g988
g985
tp1137
(lp1138
I00
as(g368
g985
g148
tp1139
(lp1140
I00
as(g937
g311
g985
tp1141
(lp1142
I00
as(g937
g368
g985
tp1143
(lp1144
I00
as(g203
g942
g985
tp1145
(lp1146
I00
as(g148
g147
g985
tp1147
(lp1148
I00
as(g988
g937
g985
tp1149
(lp1150
I00
as(g985
g147
g148
tp1151
(lp1152
I00
as(g985
g311
g985
tp1153
(lp1154
I00
as(g419
g368
g148
tp1155
(lp1156
I00
as(g203
g368
g148
tp1157
(lp1158
I01
as(g985
g937
g148
tp1159
(lp1160
I00
as(g419
g937
g985
tp1161
(lp1162
I00
as(g419
g254
g985
tp1163
(lp1164
I00
as(g147
g203
g985
tp1165
(lp1166
I00
as(g942
g254
g985
tp1167
(lp1168
I00
as(g368
g937
g985
tp1169
(lp1170
I00
as(g148
g942
g985
tp1171
(lp1172
I00
as(g147
g985
g985
tp1173
(lp1174
I00
as(g254
g148
g985
tp1175
(lp1176
I00
as(g942
g368
g148
tp1177
(lp1178
I00
as(g419
g988
g148
tp1179
(lp1180
I00
as(g254
g311
g985
tp1181
(lp1182
I00
as(g147
g419
g985
tp1183
(lp1184
I00
as(g937
g368
g148
tp1185
(lp1186
I00
as(g203
g985
g985
tp1187
(lp1188
I00
as(g311
g148
g148
tp1189
(lp1190
I00
as(g203
g254
g148
tp1191
(lp1192
I00
as(g148
g937
g985
tp1193
(lp1194
I00
as(g985
g368
g985
tp1195
(lp1196
I00
as(g985
g937
g985
tp1197
(lp1198
I00
as(g942
g937
g148
tp1199
(lp1200
I00
as(g368
g937
g148
tp1201
(lp1202
I00
as(g942
g368
g985
tp1203
(lp1204
I00
as(g147
g419
g148
tp1205
(lp1206
I00
as(g419
g311
g148
tp1207
(lp1208
I00
as(g147
g148
g985
tp1209
(lp1210
I00
as(g203
g985
g148
tp1211
(lp1212
I00
as(g985
g254
g985
tp1213
(lp1214
I00
as(g419
g254
g148
tp1215
(lp1216
I00
as(g147
g147
g148
tp1217
(lp1218
I00
as(g254
g254
g148
tp1219
(lp1220
I00
as(g254
g147
g985
tp1221
(lp1222
I00
as(g147
g985
g148
tp1223
(lp1224
I00
as(g937
g203
g148
tp1225
(lp1226
I00
as(g254
g311
g148
tp1227
(lp1228
I00
as(g311
g985
g985
tp1229
(lp1230
I00
as(g147
g988
g985
tp1231
(lp1232
I00
as(g311
g148
g985
tp1233
(lp1234
I00
as(g942
g311
g985
tp1235
(lp1236
I00
as(g203
g254
g985
tp1237
(lp1238
I00
as(g937
g148
g985
tp1239
(lp1240
I00
as(g147
g148
g148
tp1241
(lp1242
I00
as(g985
g254
g148
tp1243
(lp1244
I00
as(g368
g368
g148
tp1245
(lp1246
I00
as(g985
g203
g148
tp1247
(lp1248
I00
as(g203
g937
g148
tp1249
(lp1250
I00
as(g942
g419
g148
tp1251
(lp1252
I00
as(g942
g937
g985
tp1253
(lp1254
I00
as(g254
g942
g985
tp1255
(lp1256
I00
as(g148
g311
g148
tp1257
(lp1258
I00
as(g988
g147
g985
tp1259
(lp1260
I00
as(g147
g942
g148
tp1261
(lp1262
I00
as(g368
g988
g148
tp1263
(lp1264
I00
as(g937
g203
g985
tp1265
(lp1266
I00
as(g937
g147
g985
tp1267
(lp1268
I00
as(g254
g368
g148
tp1269
(lp1270
I00
as(g419
g311
g985
tp1271
(lp1272
I00
as(g254
g985
g148
tp1273
(lp1274
I00
as(g147
g988
g148
tp1275
(lp1276
I00
as(g203
g147
g985
tp1277
(lp1278
I00
as(g419
g942
g148
tp1279
(lp1280
I01
as(g937
g942
g985
tp1281
(lp1282
I00
as(g203
g203
g985
tp1283
(lp1284
I00
as(g254
g254
g985
tp1285
(lp1286
I00
as(g368
g368
g985
tp1287
(lp1288
I00
as(g942
g203
g985
tp1289
(lp1290
I00
as(g203
g311
g148
tp1291
(lp1292
I00
as(g988
g942
g148
tp1293
(lp1294
I00
as(g148
g988
g985
tp1295
(lp1296
I00
as(g148
g368
g985
tp1297
(lp1298
I00
as(g311
g985
g148
tp1299
(lp1300
I00
as(g942
g419
g985
tp1301
(lp1302
I00
as(g368
g942
g985
tp1303
(lp1304
I00
as(g147
g147
g985
tp1305
(lp1306
I00
as(g988
g147
g148
tp1307
(lp1308
I00
as(g311
g147
g985
tp1309
(lp1310
I00
as(g368
g988
g985
tp1311
(lp1312
I00
as(g942
g311
g148
tp1313
(lp1314
I00
as(g254
g368
g985
tp1315
(lp1316
I00
as(g254
g147
g148
tp1317
(lp1318
I00
as(g203
g147
g148
tp1319
(lp1320
I01
as(g942
g148
g985
tp1321
(lp1322
I00
as(g311
g937
g148
tp1323
(lp1324
I00
as(g937
g937
g985
tp1325
(lp1326
I00
as(g254
g988
g148
tp1327
(lp1328
I00
as(g985
g988
g985
tp1329
(lp1330
I00
as(g203
g937
g985
tp1331
(lp1332
I00
as(g985
g368
g148
tp1333
(lp1334
I00
as(g988
g988
g985
tp1335
(lp1336
I00
as(g254
g942
g148
tp1337
(lp1338
I00
as(g942
g203
g148
tp1339
(lp1340
I00
as(g985
g419
g985
tp1341
(lp1342
I00
as(g147
g942
g985
tp1343
(lp1344
I00
as(g937
g148
g148
tp1345
(lp1346
I00
as(g988
g942
g985
tp1347
(lp1348
I00
as(g937
g147
g148
tp1349
(lp1350
I00
as(g147
g311
g148
tp1351
(lp1352
I00
as(g254
g985
g985
tp1353
(lp1354
I00
as(g419
g942
g985
tp1355
(lp1356
I00
as(g368
g419
g148
tp1357
(lp1358
I00
as(g988
g985
g985
tp1359
(lp1360
I00
as(g985
g419
g148
tp1361
(lp1362
I00
as(g942
g988
g148
tp1363
(lp1364
I00
as(g311
g937
g985
tp1365
(lp1366
I00
as(g311
g254
g985
tp1367
(lp1368
I00
as(g203
g148
g148
tp1369
(lp1370
I00
as(g254
g988
g985
tp1371
(lp1372
I00
as(g254
g203
g148
tp1373
(lp1374
I00
as(g988
g254
g985
tp1375
(lp1376
I00
as(g148
g368
g148
tp1377
(lp1378
I00
as(g148
g937
g148
tp1379
(lp1380
I00
as(g368
g942
g148
tp1381
(lp1382
I01
as(g368
g254
g148
tp1383
(lp1384
I00
as(g988
g937
g148
tp1385
(lp1386
I00
as(g311
g147
g148
tp1387
(lp1388
I01
as(g311
g311
g985
tp1389
(lp1390
I00
as(g368
g203
g985
tp1391
(lp1392
I00
as(g203
g148
g985
tp1393
(lp1394
I00
as(g419
g148
g148
tp1395
(lp1396
I00
as(g942
g148
g148
tp1397
(lp1398
I00
as(g368
g419
g985
tp1399
(lp1400
I00
as(g203
g419
g148
tp1401
(lp1402
I00
as(g148
g985
g148
tp1403
(lp1404
I00
as(g988
g988
g148
tp1405
(lp1406
I00
as(g419
g147
g985
tp1407
(lp1408
I00
as(g942
g988
g985
tp1409
(lp1410
I00
as(g985
g311
g148
tp1411
(lp1412
I00
as(g147
g254
g148
tp1413
(lp1414
I00
as(g988
g254
g148
tp1415
(lp1416
I00
as(g942
g985
g148
tp1417
(lp1418
I00
as(g147
g311
g985
tp1419
(lp1420
I00
as(g148
g942
g148
tp1421
(lp1422
I00
as(g988
g368
g985
tp1423
(lp1424
I00
as(g203
g988
g985
tp1425
(lp1426
I00
as(g311
g311
g148
tp1427
(lp1428
I00
as(g368
g203
g148
tp1429
(lp1430
I00
as(g937
g988
g985
tp1431
(lp1432
I00
as(g311
g254
g148
tp1433
(lp1434
I00
as(g148
g203
g148
tp1435
(lp1436
I00
as(g147
g937
g148
tp1437
(lp1438
I00
as(g254
g203
g985
tp1439
(lp1440
I00
as(g203
g203
g148
tp1441
(lp1442
I00
as(g368
g254
g985
tp1443
(lp1444
I00
as(g311
g203
g148
tp1445
(lp1446
I00
as(g937
g985
g985
tp1447
(lp1448
I00
as(g148
g419
g148
tp1449
(lp1450
I00
as(g419
g985
g985
tp1451
(lp1452
I00
as(g148
g254
g985
tp1453
(lp1454
I00
as(g419
g148
g985
tp1455
(lp1456
I00
as(g985
g985
g985
tp1457
(lp1458
I00
as(g311
g988
g985
tp1459
(lp1460
I00
as(g254
g937
g985
tp1461
(lp1462
I00
as(g148
g985
g985
tp1463
(lp1464
I00
as(g419
g147
g148
tp1465
(lp1466
I00
as(g985
g942
g148
tp1467
(lp1468
I00
assg540
g541
sS'use_prm'
p1469
I01
sS'object_names'
p1470
(lp1471
S'square_packing_box1'
p1472
aS'rectangular_packing_box1'
p1473
aS'square_packing_box2'
p1474
aS'rectangular_packing_box2'
p1475
aS'square_packing_box3'
p1476
aS'rectangular_packing_box3'
p1477
aS'square_packing_box4'
p1478
aS'rectangular_packing_box4'
p1479
asg932
NsS'current_holding_collides'
p1480
NsS'object_poses'
p1481
(dp1482
Vrectangular_packing_box4
p1483
g22
(g23
(I0
tp1484
g25
tp1485
Rp1486
(I1
(I1
I3
tp1487
g157
I00
S' ks\x94\rJ\xef?E\xc6\xab\xafq\x99\x1d\xc0\xed\x9f\xd9\xac\xf97\x03@'
p1488
tp1489
bsVrectangular_packing_box2
p1490
g22
(g23
(I0
tp1491
g25
tp1492
Rp1493
(I1
(I1
I3
tp1494
g157
I00
S'\x06\xd5\xd19"\xc7\x04@L\xf0\x9ai\x0e}\x1e\xc0\x0ca;\x90\x1a3\x16@'
p1495
tp1496
bsVrectangular_packing_box3
p1497
g22
(g23
(I0
tp1498
g25
tp1499
Rp1500
(I1
(I1
I3
tp1501
g157
I00
S'\xf0A\xb3\xdcq\x08\x06@6\xaf\x16\x13\xa8\xb0\x18\xc0+r\x88LbE\xeb?'
p1502
tp1503
bsVrectangular_packing_box1
p1504
g22
(g23
(I0
tp1505
g25
tp1506
Rp1507
(I1
(I1
I3
tp1508
g157
I00
S'${E{\x9f:\x01@\xde\x93\x01xO9\x16\xc0\x9d\xd4*H\xdb\x92\x15@'
p1509
tp1510
bsVsquare_packing_box2
p1511
g22
(g23
(I0
tp1512
g25
tp1513
Rp1514
(I1
(I1
I3
tp1515
g157
I00
S'\x0c^\xd0\xf7\xfc\x9f\x0c@T]H3\x1eI\x1b\xc0\xfa\xb9&\x92i\x1e\x06@'
p1516
tp1517
bsVsquare_packing_box3
p1518
g22
(g23
(I0
tp1519
g25
tp1520
Rp1521
(I1
(I1
I3
tp1522
g157
I00
S'0J|\xbe_1\xc7?\xdf|1\xc1\xe9\x9a\x1c\xc0\xe2t\xfc\x98T\x96\xd5?'
p1523
tp1524
bsVsquare_packing_box1
p1525
g22
(g23
(I0
tp1526
g25
tp1527
Rp1528
(I1
(I1
I3
tp1529
g157
I00
S'\xfcX\xb4\xf7\x1e\xfc\x01@>o\x13\tl\xab\x1b\xc0\xfaB\x03\x87V\x91\x0f@'
p1530
tp1531
bsVsquare_packing_box4
p1532
g22
(g23
(I0
tp1533
g25
tp1534
Rp1535
(I1
(I1
I3
tp1536
g157
I00
S'J\xb9\x81\x9aL:\t@\xa8\xb7IH\xed#\x16\xc0"\xb8\x8c\x9e\x1at\x07@'
p1537
tp1538
bssS'reachable_regions_while_holding'
p1539
(lp1540
(g502
g985
tp1541
a(g595
g985
tp1542
a(g651
g985
tp1543
a(g503
g985
tp1544
a(g738
g985
tp1545
a(g504
g985
tp1546
a(g12
g985
tp1547
a(g867
g985
tp1548
a(g504
g148
tp1549
a(g12
g148
tp1550
asS'in_region'
p1551
(itrajectory_representation.predicates.in_region
InRegion
p1552
(dp1553
g932
NsbsS'cached_pick_paths'
p1554
(dp1555
g502
g576
sg595
g632
sg651
g676
sg503
g719
sg738
g775
sg504
g818
sg12
g848
sg867
g904
ssg505
(dp1556
(Vsquare_packing_box3
p1557
(cnumpy.core.multiarray
scalar
p1558
(g157
S'M\x9f\x1dp]1\xc7?'
p1559
tp1560
Rp1561
g1558
(g157
S'\xd6\xe4)\xab\xe9\x9a\x1c\xc0'
p1562
tp1563
Rp1564
g1558
(g157
S'\x116<\xbdR\x96\xd5?'
p1565
tp1566
Rp1567
tp1568
tp1569
g531
s(Vrectangular_packing_box1
p1570
(g1558
(g157
S'\xaf\x0b?8\x9f:\x01@'
p1571
tp1572
Rp1573
g1558
(g157
S'\xf5\x9e\xcaiO9\x16\xc0'
p1574
tp1575
Rp1576
g1558
(g157
S'\xfb\x05\xbba\xdb\x92\x15@'
p1577
tp1578
Rp1579
tp1580
tp1581
g523
s(Vsquare_packing_box4
p1582
(g1558
(g157
S',b\xd8aL:\t@'
p1583
tp1584
Rp1585
g1558
(g157
S'\x15R~R\xed#\x16\xc0'
p1586
tp1587
Rp1588
g1558
(g157
S'\xfe\xd17i\x1at\x07@'
p1589
tp1590
Rp1591
tp1592
tp1593
g539
s(Vsquare_packing_box2
p1594
(g1558
(g157
S'\xde\x91\xb1\xda\xfc\x9f\x0c@'
p1595
tp1596
Rp1597
g1558
(g157
S'\xdf6S!\x1eI\x1b\xc0'
p1598
tp1599
Rp1600
g1558
(g157
S'\xca\xc3B\xadi\x1e\x06@'
p1601
tp1602
Rp1603
tp1604
tp1605
g527
s(Vrectangular_packing_box4
p1606
(g1558
(g157
S'\x0bc\x0bA\x0eJ\xef?'
p1607
tp1608
Rp1609
g1558
(g157
S'\xea{\r\xc1q\x99\x1d\xc0'
p1610
tp1611
Rp1612
g1558
(g157
S'\xfd\x12\xf1\xd6\xf97\x03@'
p1613
tp1614
Rp1615
tp1616
tp1617
g511
s(Vrectangular_packing_box3
p1618
(g1558
(g157
S'\x90J\xb1\xa3q\x08\x06@'
p1619
tp1620
Rp1621
g1558
(g157
S'\x9e%\xc8\x08\xa8\xb0\x18\xc0'
p1622
tp1623
Rp1624
g1558
(g157
S'h\xe8\x9f\xe0bE\xeb?'
p1625
tp1626
Rp1627
tp1628
tp1629
g519
s(Vsquare_packing_box1
p1630
(g1558
(g157
S'\xf0\x87\x9f\xff\x1e\xfc\x01@'
p1631
tp1632
Rp1633
g1558
(g157
S'\xdb\xe0D\xf4k\xab\x1b\xc0'
p1634
tp1635
Rp1636
g1558
(g157
S'\x03\x06I\x9fV\x91\x0f@'
p1637
tp1638
Rp1639
tp1640
tp1641
g535
s(Vrectangular_packing_box2
p1642
(g1558
(g157
S'Z\xbcX\x18"\xc7\x04@'
p1643
tp1644
Rp1645
g1558
(g157
S'\x93\x18\x04V\x0e}\x1e\xc0'
p1646
tp1647
Rp1648
g1558
(g157
S'(\x7f\xf7\x8e\x1a3\x16@'
p1649
tp1650
Rp1651
tp1652
tp1653
g515
ssS'state_saver'
p1654
(igtamp_utils.utils
CustomStateSaver
p1655
(dp1656
S'robot_base_pose'
p1657
g22
(g23
(I0
tp1658
g25
tp1659
Rp1660
(I1
(I1
I3
tp1661
g157
I00
S'\x9e\x9e\xda\xf1\x9a\r\xf0??\x88]\x1a\x97\x1d\x19\xc0\xf6\xfb\x82\xe2`b\t@'
p1662
tp1663
bsS'held_object'
p1664
NsS'robot_name'
p1665
S'pr2'
p1666
sS'env_id'
p1667
I1
sg1481
(dp1668
Vright_wall_1
p1669
g22
(g23
(I0
tp1670
g25
tp1671
Rp1672
(I1
(I4
tp1673
g157
I00
S'H\xe1z\x14\xaeG\x12@&\\\x8f\xc2\xf5(\xd4\xbf\xcc\x7fH\xbf}\x1d\xed?\x00\x00\x00\x00\x00\x00\x00\x00'
p1674
tp1675
bsVc_obst5
p1676
g22
(g23
(I0
tp1677
g25
tp1678
Rp1679
(I1
(I4
tp1680
g157
I00
S">\x13@ks\xf6\x11@P\xb9\xc6c\xd6\xb6\xb9\xbfe\xaa`TR'\xed?'cG]U\x9e\x15@"
p1681
tp1682
bsVentrance_right
p1683
g22
(g23
(I0
tp1684
g25
tp1685
Rp1686
(I1
(I4
tp1687
g157
I00
S'ffffff\n@H\xe1z\x14\xaeG\t\xc0\x9c\xc4 \xb0rh\xc1?\x00\x00\x00\x00\x00\x00\x00\x00'
p1688
tp1689
bsVcomputer_table
p1690
g22
(g23
(I0
tp1691
g25
tp1692
Rp1693
(I1
(I4
tp1694
g157
I00
S'\x00\x00\x00\x00\x00\x00\x13@\x00\x00\x00\x00\x00\x00\xf8\xbf\x96C\x8bl\xe7\xfb\xe7?\xd2!3\x7f|\xd9\x12@'
p1695
tp1696
bsVchair_6b56
p1697
g22
(g23
(I0
tp1698
g25
tp1699
Rp1700
(I1
(I4
tp1701
g157
I00
S'u=\n\xd7\xa3p\xf5?K\xe1z\x14\xaeG\xd1?\x00\x00\x00\x00\x00\x00\x00\x00\xd6$\xfaNBm\n@'
p1702
tp1703
bsVsquare_packing_box3
p1704
g22
(g23
(I0
tp1705
g25
tp1706
Rp1707
(I1
(I4
tp1708
g157
I00
S'\xf0I|\xbe_1\xc7?\xde|1\xc1\xe9\x9a\x1c\xc0L7\x89A`\xe5\xd8?\xe2t\xfc\x98T\x96\xd5?'
p1709
tp1710
bsVsquare_packing_box2
p1711
g22
(g23
(I0
tp1712
g25
tp1713
Rp1714
(I1
(I4
tp1715
g157
I00
S'\x0c^\xd0\xf7\xfc\x9f\x0c@T]H3\x1eI\x1b\xc0L7\x89A`\xe5\xd8?\xfa\xb9&\x92i\x1e\x06@'
p1716
tp1717
bsVtable
p1718
g22
(g23
(I0
tp1719
g25
tp1720
Rp1721
(I1
(I4
tp1722
g157
I00
S'\x7f\xf6#EdX\xed?\xac\xffs\x98//\xc0\xbf\x00\x00\x00\x00\x00\x00\x00\x00\x00\x00\x00\x00\x00\x00\x00\x00'
p1723
tp1724
bsVsquare_packing_box1
p1725
g22
(g23
(I0
tp1726
g25
tp1727
Rp1728
(I1
(I4
tp1729
g157
I00
S'\xfcX\xb4\xf7\x1e\xfc\x01@>o\x13\tl\xab\x1b\xc0L7\x89A`\xe5\xd8?\xfaB\x03\x87V\x91\x0f@'
p1730
tp1731
bsVback_wall_2
p1732
g22
(g23
(I0
tp1733
g25
tp1734
Rp1735
(I1
(I4
tp1736
g157
I00
S'\xaeG\xe1z\x14.\x13@\x80\x14\xaeG\xe1z\xc4?xX\xa85\xcd\xbb\xf2?\x00\x00\x00\x00\x00\x00\x00\x00'
p1737
tp1738
bsVchair_083c
p1739
g22
(g23
(I0
tp1740
g25
tp1741
Rp1742
(I1
(I4
tp1743
g157
I00
S'\xa4p=\n\xd7\xa3\xe0?333333\xe3\xbf\x00\x00\x00\x00\x00\x00\x00\x00\x00\x00\x00\x00\x00\x00\x00\x00'
p1744
tp1745
bsVback_wall_1
p1746
g22
(g23
(I0
tp1747
g25
tp1748
Rp1749
(I1
(I4
tp1750
g157
I00
S'\xaeG\xe1z\x14.\x13@\x80\x14\xaeG\xe1z\xc4?\xcc\x7fH\xbf}\x1d\xed?\x00\x00\x00\x00\x00\x00\x00\x00'
p1751
tp1752
bsVbottom_wall
p1753
g22
(g23
(I0
tp1754
g25
tp1755
Rp1756
(I1
(I4
tp1757
g157
I00
S'\x00\x00\x00\x00\x00\x00\xfc?\x00\x00\x00\x00\x00\x00\x00\x00\x00\x00\x00\x00\x00\x00\x00\x00\x00\x00\x00\x00\x00\x00\x00\x00'
p1758
tp1759
bsVcup_905a
p1760
g22
(g23
(I0
tp1761
g25
tp1762
Rp1763
(I1
(I4
tp1764
g157
I00
S'\x00\x00\x00\x00\x00\x00\xf0?\x83\xc0\xca\xa1E\xb6\xdb?\x1b/\xdd$\x06\x81\xed?\x00\x00\x00\x00\x00\x00\x00\x00'
p1765
tp1766
bsVplate_496f
p1767
g22
(g23
(I0
tp1768
g25
tp1769
Rp1770
(I1
(I4
tp1771
g157
I00
S"q=\n\xd7\xa3p\xe5?\x9dhW!\xe5'\xdd\xbf\x1b/\xdd$\x06\x81\xed?\x00\x00\x00\x00\x00\x00\x00\x00"
p1772
tp1773
bsVtoaster
p1774
g22
(g23
(I0
tp1775
g25
tp1776
Rp1777
(I1
(I4
tp1778
g157
I00
S')\\\x8f\xc2\xf5(\xf4\xbf\xe0z\x14\xaeG\xe1\xf2\xbf\xb8\x1e\x85\xebQ\xb8\xee?\x89/`\x9b\xf8\x8a\xe4?'
p1779
tp1780
bsVc_obst1
p1781
g22
(g23
(I0
tp1782
g25
tp1783
Rp1784
(I1
(I4
tp1785
g157
I00
S'\x16\x03"\x89\x95\x12\x12@\xa8e\x12\xacL\x00\xc7\xbfe\xaa`TR\'\xed?\xb2\xa2\xed\xe0|-\x06@'
p1786
tp1787
bsVrectangular_packing_box4
p1788
g22
(g23
(I0
tp1789
g25
tp1790
Rp1791
(I1
(I4
tp1792
g157
I00
S'\x18ks\x94\rJ\xef?D\xc6\xab\xafq\x99\x1d\xc0L7\x89A`\xe5\xd8?\xed\x9f\xd9\xac\xf97\x03@'
p1793
tp1794
bsVmicrowave
p1795
g22
(g23
(I0
tp1796
g25
tp1797
Rp1798
(I1
(I4
tp1799
g157
I00
S'\x9a\x99\x99\x99\x99\x99\xf1\xbf\x00\x00\x00\x00\x00\x00\x00@7\x89A`\xe5\xd0\xee?\x00\x00\x00\x00\x00\x00\x00\x00'
p1800
tp1801
bsVc_obst7
p1802
g22
(g23
(I0
tp1803
g25
tp1804
Rp1805
(I1
(I4
tp1806
g157
I00
S"\xd1!\xffp\xa9\x8f\x12@\xc0[s\x0f\xe4\xb6\xb0\xbfe\xaa`TR'\xed?\x89-\xa0\xa0R\x89\x11@"
p1807
tp1808
bsVc_obst6
p1809
g22
(g23
(I0
tp1810
g25
tp1811
Rp1812
(I1
(I4
tp1813
g157
I00
S",\xccY\x1fb*\x12@\xa4Fo\x06\x8bl\xd0?e\xaa`TR'\xed?\xd2\xc6KMu\xdb\x10@"
p1814
tp1815
bsVcup_b6af
p1816
g22
(g23
(I0
tp1817
g25
tp1818
Rp1819
(I1
(I4
tp1820
g157
I00
S'R\xb8\x1e\x85\xebQ\xe8?\x9a\x99\x99\x99\x99\x99\xe1?\x1b/\xdd$\x06\x81\xed?\x00\x00\x00\x00\x00\x00\x00\x00'
p1821
tp1822
bsVc_obst4
p1823
g22
(g23
(I0
tp1824
g25
tp1825
Rp1826
(I1
(I4
tp1827
g157
I00
S"\x83\xf7\x0e\xaf\x97\x86\x12@T'\x08\x06O\x00\xcf?e\xaa`TR'\xed?\xbb\xab\xa8\x92\t\xde\x18@"
p1828
tp1829
bsVrectangular_packing_box2
p1830
g22
(g23
(I0
tp1831
g25
tp1832
Rp1833
(I1
(I4
tp1834
g157
I00
S'\x07\xd5\xd19"\xc7\x04@J\xf0\x9ai\x0e}\x1e\xc0L7\x89A`\xe5\xd8?\x0ca;\x90\x1a3\x16@'
p1835
tp1836
bsVplate_fa76
p1837
g22
(g23
(I0
tp1838
g25
tp1839
Rp1840
(I1
(I4
tp1841
g157
I00
S'=\n\xd7\xa3p=\xf2?\x00\x00\x00\x00\x00\x00\x00\x00\x1b/\xdd$\x06\x81\xed?\x00\x00\x00\x00\x00\x00\x00\x00'
p1842
tp1843
bsVfloorwalls
p1844
g22
(g23
(I0
tp1845
g25
tp1846
Rp1847
(I1
(I4
tp1848
g157
I00
S'\xc7\xcc\xcc\xcc\xcc\xcc\xfc?\x00\x00\x00\x00\x00\x00\x18\xc0H\xe1z\x14\xaeG\xc1?\x16-DT\xfb!\xf9?'
p1849
tp1850
bsVpin_c671
p1851
g22
(g23
(I0
tp1852
g25
tp1853
Rp1854
(I1
(I4
tp1855
g157
I00
S'\xc3\xf5(\\\x8f\xc2\xf1\xbf}?5^\xbaI\x02@\xb8\x1e\x85\xebQ\xb8\xfa?\x00\x00\x00\x00\x00\x00\x00\x00'
p1856
tp1857
bsVc_obst3
p1858
g22
(g23
(I0
tp1859
g25
tp1860
Rp1861
(I1
(I4
tp1862
g157
I00
S"\xe9\x87'\t\xaf\x7f\x12@\x0e\xf7\x11E\xa1Q\xc6\xbfe\xaa`TR'\xed?\xed\xad\xe9W\xdfC\x14@"
p1863
tp1864
bsVchair_2e39
p1865
g22
(g23
(I0
tp1866
g25
tp1867
Rp1868
(I1
(I4
tp1869
g157
I00
S'hfffff\xee?cfffff\xf2\xbf\x00\x00\x00\x00\x00\x00\x00\x00\x07M\xe8QQF\xf3?'
p1870
tp1871
bsVentrance_left
p1872
g22
(g23
(I0
tp1873
g25
tp1874
Rp1875
(I1
(I4
tp1876
g157
I00
S'\x98\x99\x99\x99\x99\x99\xe9\xbfH\xe1z\x14\xaeG\t\xc0\x9c\xc4 \xb0rh\xc1?\x00\x00\x00\x00\x00\x00\x00\x00'
p1877
tp1878
bsVtop_wall_1
p1879
g22
(g23
(I0
tp1880
g25
tp1881
Rp1882
(I1
(I4
tp1883
g157
I00
S'H\xe1z\x14\xaeG\x12@\x80\x14\xaeG\xe1z\xc4?xX\xa85\xcd\xbb\xf2?\x00\x00\x00\x00\x00\x00\x00\x00'
p1884
tp1885
bsVrectangular_packing_box3
p1886
g22
(g23
(I0
tp1887
g25
tp1888
Rp1889
(I1
(I4
tp1890
g157
I00
S'\xeeA\xb3\xdcq\x08\x06@:\xaf\x16\x13\xa8\xb0\x18\xc0L7\x89A`\xe5\xd8?+r\x88LbE\xeb?'
p1891
tp1892
bsVshaker
p1893
g22
(g23
(I0
tp1894
g25
tp1895
Rp1896
(I1
(I4
tp1897
g157
I00
S'\n\xd7\xa3p=\n\x01@\x14\xaeG\xe1z\x14\x02@\\\x8f\xc2\xf5(\\\xef?\x00\x00\x00\x00\x00\x00\x00\x00'
p1898
tp1899
bsVc_obst9
p1900
g22
(g23
(I0
tp1901
g25
tp1902
Rp1903
(I1
(I4
tp1904
g157
I00
S"Z\\\xe5`\xc65\x12@0[\x8f\x87\xe2\x83\xbf?e\xaa`TR'\xed?\xd8\xae\xfb\xcc'd\xf5?"
p1905
tp1906
bsVplate_835a
p1907
g22
(g23
(I0
tp1908
g25
tp1909
Rp1910
(I1
(I4
tp1911
g157
I00
S'\xf6(\\\x8f\xc2\xf5\xf0?\\\x8f\xc2\xf5(\\\xe7\xbf\x1b/\xdd$\x06\x81\xed?\x00\x00\x00\x00\x00\x00\x00\x00'
p1912
tp1913
bsVcup_58a2
p1914
g22
(g23
(I0
tp1915
g25
tp1916
Rp1917
(I1
(I4
tp1918
g157
I00
S'\x85\xebQ\xb8\x1e\x85\xe3?\xcd\xcc\xcc\xcc\xcc\xcc\xdc?\x1b/\xdd$\x06\x81\xed?\x00\x00\x00\x00\x00\x00\x00\x00'
p1919
tp1920
bsVleft_wall_1
p1921
g22
(g23
(I0
tp1922
g25
tp1923
Rp1924
(I1
(I4
tp1925
g157
I00
S'H\xe1z\x14\xaeG\x12@S\xb8\x1e\x85\xebQ\xe4?\xcc\x7fH\xbf}\x1d\xed?\x00\x00\x00\x00\x00\x00\x00\x00'
p1926
tp1927
bsVc_obst2
p1928
g22
(g23
(I0
tp1929
g25
tp1930
Rp1931
(I1
(I4
tp1932
g157
I00
S'n\xb1\xb7"\xdb\x97\x12@:D"\x95\xb4[\xde?e\xaa`TR\'\xed?\x173\x15P\xf7\xf3\xf4?'
p1933
tp1934
bsVsquare_packing_box4
p1935
g22
(g23
(I0
tp1936
g25
tp1937
Rp1938
(I1
(I4
tp1939
g157
I00
S'E\xb9\x81\x9aL:\t@\xa6\xb7IH\xed#\x16\xc0L7\x89A`\xe5\xd8?"\xb8\x8c\x9e\x1at\x07@'
p1940
tp1941
bsVrectangular_packing_box1
p1942
g22
(g23
(I0
tp1943
g25
tp1944
Rp1945
(I1
(I4
tp1946
g157
I00
S"'{E{\x9f:\x01@\xde\x93\x01xO9\x16\xc0L7\x89A`\xe5\xd8?\x9d\xd4*H\xdb\x92\x15@"
p1947
tp1948
bsVpin_371e
p1949
g22
(g23
(I0
tp1950
g25
tp1951
Rp1952
(I1
(I4
tp1953
g157
I00
S'333333\xf3\xbfffffff\xf6?\xb8\x1e\x85\xebQ\xb8\xee?\x00\x00\x00\x00\x00\x00\x00\x00'
p1954
tp1955
bsVfridge
p1956
g22
(g23
(I0
tp1957
g25
tp1958
Rp1959
(I1
(I4
tp1960
g157
I00
S'\xd7\xa3p=\n\xd7\xeb\xbf\x00\x00\x00\x00\x00\x00\x00\xc0\xcd\xcc\xcc\xcc\xcc\xcc\xf8?\x00\x00\x00\x00\x00\x00\x00\x00'
p1961
tp1962
bsVcup_d441
p1963
g22
(g23
(I0
tp1964
g25
tp1965
Rp1966
(I1
(I4
tp1967
g157
I00
S'\n\xd7\xa3p=\n\xef?\x8f\xc2\xf5(\\\x8f\xe2?\x1b/\xdd$\x06\x81\xed?\x00\x00\x00\x00\x00\x00\x00\x00'
p1968
tp1969
bsVshelf2
p1970
g22
(g23
(I0
tp1971
g25
tp1972
Rp1973
(I1
(I4
tp1974
g157
I00
S'\x00\x00\x00\x00\x00\x00\x0e@\xaeG\xe1z\x14\xae\x07@\x9c\xc4 \xb0rh\xc1?\xd2!3\x7f|\xd9\x12@'
p1975
tp1976
bsVtop_wall_2
p1977
g22
(g23
(I0
tp1978
g25
tp1979
Rp1980
(I1
(I4
tp1981
g157
I00
S'H\xe1z\x14\xaeG\x12@\x80\x14\xaeG\xe1z\xc4?\x16HP\xfc\x18\xf3\xfd?\x00\x00\x00\x00\x00\x00\x00\x00'
p1982
tp1983
bsVc_obst0
p1984
g22
(g23
(I0
tp1985
g25
tp1986
Rp1987
(I1
(I4
tp1988
g157
I00
S'\xa2)~f\xb3"\x12@\xa8\x9d!\x1fn>\xc8?e\xaa`TR\'\xed?Qa\xc5:\x9f\xdc\x01@'
p1989
tp1990
bsVshelf1
p1991
g22
(g23
(I0
tp1992
g25
tp1993
Rp1994
(I1
(I4
tp1995
g157
I00
S'\x00\x00\x00\x00\x00\x00\x13@\xaeG\xe1z\x14\xae\x07@\x9c\xc4 \xb0rh\xc1?\xd2!3\x7f|\xd9\x12@'
p1996
tp1997
bsVsink
p1998
g22
(g23
(I0
tp1999
g25
tp2000
Rp2001
(I1
(I4
tp2002
g157
I00
S'ffffff\xd6?333333\x01@\x9a\x99\x99\x99\x99\x99\xb9\xbf\x00\x00\x00\x00\x00\x00\x00\x00'
p2003
tp2004
bsVpr2
p2005
g22
(g23
(I0
tp2006
g25
tp2007
Rp2008
(I1
(I4
tp2009
g157
I00
S'\xa2\x9e\xda\xf1\x9a\r\xf0?C\x88]\x1a\x97\x1d\x19\xc0\x9a_\x94\xa0\xbf\xd0\xc1?\xf6\xfb\x82\xe2`b\t@'
p2010
tp2011
bsVchair_12d0
p2012
g22
(g23
(I0
tp2013
g25
tp2014
Rp2015
(I1
(I4
tp2016
g157
I00
S'\\\xd2\x18\xad\xa3\xaa\xdb?Of\x83L2r\xc6?\x00\x00\x00\x00\x00\x00\x00\x00\xf8\x81\r\x14M\xa6\x17@'
p2017
tp2018
bsVright_wall_2
p2019
g22
(g23
(I0
tp2020
g25
tp2021
Rp2022
(I1
(I4
tp2023
g157
I00
S'H\xe1z\x14\xaeG\x12@&\\\x8f\xc2\xf5(\xd4\xbfxX\xa85\xcd\xbb\xf2?\x00\x00\x00\x00\x00\x00\x00\x00'
p2024
tp2025
bsVknife_block
p2026
g22
(g23
(I0
tp2027
g25
tp2028
Rp2029
(I1
(I4
tp2030
g157
I00
S'R\xb8\x1e\x85\xebQ\xe0\xbfffffff\x02@`\xe5\xd0"\xdb\xf9\xee?\x00\x00\x00\x00\x00\x00\x00\x00'
p2031
tp2032
bsVleft_wall_2
p2033
g22
(g23
(I0
tp2034
g25
tp2035
Rp2036
(I1
(I4
tp2037
g157
I00
S'H\xe1z\x14\xaeG\x12@S\xb8\x1e\x85\xebQ\xe4?xX\xa85\xcd\xbb\xf2?\x00\x00\x00\x00\x00\x00\x00\x00'
p2038
tp2039
bsVleft_wall
p2040
g22
(g23
(I0
tp2041
g25
tp2042
Rp2043
(I1
(I4
tp2044
g157
I00
S'\x9a\x99\x99\x99\x99\x99\x07@H\xe1z\x14\xaeG\xff?\x9c\xc4 \xb0rh\xc1?\x00\x00\x00\x00\x00\x00\x00\x00'
p2045
tp2046
bsVkitchen
p2047
g22
(g23
(I0
tp2048
g25
tp2049
Rp2050
(I1
(I4
tp2051
g157
I00
S'\x00\x00\x00\x00\x00\x00\x00\x00\x00\x00\x00\x00\x00\x00\x00\x00\x00\x00\x00\x00\x00\x00\x00\x00\x00\x00\x00\x00\x00\x00\x00\x00'
p2052
tp2053
bsVtable2
p2054
g22
(g23
(I0
tp2055
g25
tp2056
Rp2057
(I1
(I4
tp2058
g157
I00
S'\x00\x00\x00\x00\x00\x00\x13@\x80\x14\xaeG\xe1z\xc4?S\x96!\x8euq\xec?\xd2!3\x7f|\xd9\x12@'
p2059
tp2060
bsVc_obst8
p2061
g22
(g23
(I0
tp2062
g25
tp2063
Rp2064
(I1
(I4
tp2065
g157
I00
S"&\xa5\x9b\x9ej\x9c\x12@\xac\x05\xbc\xb8R\x14\xc0?e\xaa`TR'\xed?~\xd2\xcb\xe3\xaa\x9a\x05@"
p2066
tp2067
bsVplate_b4e7
p2068
g22
(g23
(I0
tp2069
g25
tp2070
Rp2071
(I1
(I4
tp2072
g157
I00
S'\x14\xaeG\xe1z\x14\xf2\xbf\x14\xaeG\xe1z\x14\x00@=\n\xd7\xa3p=\xf2?\x00\x00\x00\x00\x00\x00\x00\x00'
p2073
tp2074
bsVcooker
p2075
g22
(g23
(I0
tp2076
g25
tp2077
Rp2078
(I1
(I4
tp2079
g157
I00
S'\xaeG\xe1z\x14\xae\xff?\x85\xebQ\xb8\x1e\x85\xfb?\x00\x00\x00\x00\x00\x00\xe8?\x00\x00\x00\x00\x00\x00\x00\x00'
p2080
tp2081
bsVpin_a091
p2082
g22
(g23
(I0
tp2083
g25
tp2084
Rp2085
(I1
(I4
tp2086
g157
I00
S'\xdb\xf9~j\xbct\xf7\xbf)\\\x8f\xc2\xf5(\x02@\xb8\x1e\x85\xebQ\xb8\xfa?\x00\x00\x00\x00\x00\x00\x00\x00'
p2087
tp2088
bsVside_wall_2
p2089
g22
(g23
(I0
tp2090
g25
tp2091
Rp2092
(I1
(I4
tp2093
g157
I00
S'\xfa\xff\xff\xff\xff\xff\x14@\x00\x00\x00\x00\x00\x00\x00\x00\x9c\xc4 \xb0rh\xc1?\x18-DT\xfb!\xf9?'
p2094
tp2095
bsVside_wall_3
p2096
g22
(g23
(I0
tp2097
g25
tp2098
Rp2099
(I1
(I4
tp2100
g157
I00
S'\x00\x00\x00\x00\x00\x00\xfc?H\xe1z\x14\xaeG\t@\x9c\xc4 \xb0rh\xc1?\x00\x00\x00\x00\x00\x00\x00\x00'
p2101
tp2102
bsVmixer
p2103
g22
(g23
(I0
tp2104
g25
tp2105
Rp2106
(I1
(I4
tp2107
g157
I00
S'\n\xd7\xa3p=\n\xfb?ffffff\x02@d;\xdfO\x8d\x97\xee?\x00\x00\x00\x00\x00\x00\x00\x00'
p2108
tp2109
bsVside_wall_1
p2110
g22
(g23
(I0
tp2111
g25
tp2112
Rp2113
(I1
(I4
tp2114
g157
I00
S'\xf4\xff\xff\xff\xff\xff\xfb\xbf\x00\x00\x00\x00\x00\x00\x00\x00\x9c\xc4 \xb0rh\xc1?\x18-DT\xfb!\xf9?'
p2115
tp2116
bsVbottom_wall_1
p2117
g22
(g23
(I0
tp2118
g25
tp2119
Rp2120
(I1
(I4
tp2121
g157
I00
S'H\xe1z\x14\xaeG\x12@\x80\x14\xaeG\xe1z\xc4?\xcc\x7fH\xbf}\x1d\xed?\x00\x00\x00\x00\x00\x00\x00\x00'
p2122
tp2123
bsVcan
p2124
g22
(g23
(I0
tp2125
g25
tp2126
Rp2127
(I1
(I4
tp2128
g157
I00
S'\x00\x00\x00\x00\x00\x00\xf4\xbfH\xe1z\x14\xaeG\xe1\xbf\n\xd7\xa3p=\n\xef?\x00\x00\x00\x00\x00\x00\x00\x00'
p2129
tp2130
bsVright_wall
p2131
g22
(g23
(I0
tp2132
g25
tp2133
Rp2134
(I1
(I4
tp2135
g157
I00
S'\x9a\x99\x99\x99\x99\x99\x07@H\xe1z\x14\xaeG\xff\xbf\x9c\xc4 \xb0rh\xc1?\x00\x00\x00\x00\x00\x00\x00\x00'
p2136
tp2137
bsVcoffe_machine
p2138
g22
(g23
(I0
tp2139
g25
tp2140
Rp2141
(I1
(I4
tp2142
g157
I00
S'\\\x8f\xc2\xf5(\\\xf5\xbf\xb8\x1e\x85\xebQ\xb8\xee?\n\xd7\xa3p=\n\xef?\x00\x00\x00\x00\x00\x00\x00\x00'
p2143
tp2144
bsVcomputer_chair
p2145
g22
(g23
(I0
tp2146
g25
tp2147
Rp2148
(I1
(I4
tp2149
g157
I00
S'\xcd\xcc\xcc\xcc\xcc\xcc\x10@\x00\x00\x00\x00\x00\x00\xf8\xbf\xa00\xb6\x10\xe4\xa9\x95\xbf\x00\x00\x00\x00\x00\x00\x00\x00'
p2150
tp2151
bssS'robot_dof_values'
p2152
g22
(g23
(I0
tp2153
g25
tp2154
Rp2155
(I1
(I39
tp2156
g157
I00
S'\x00\x00\x00\x00\x00\x00\x00\x00\x00\x00\x00\x00\x00\x00\x00\x00\x00\x00\x00\x00\x00\x00\x00\x00\x00\x00\x00\x00\x00\x00\x00\x00\x00\x00\x00\x00\x00\x00\x00\x00\x00\x00\x00\x00\x00\x00\x00\x00\x00\x00\x00\x00\x00\x00\x00\x00\x00\x00\x00\x00\x00\x00\x00\x00\x00\x00\x00\x00\x00\x00\x00\x00\x00\x00\x00\x00\x00\x00\x00\x00\x00\x00\x00\x00\x00\x00\x00\x00\x00\x00\x00\x00\x00\x00\x00\x00@d;\xdfO\x8d\x87?\x00\x00\x00\x00\x00\x00\x00\x00\x00\x00\x00\x00\x00\x00\x00\x00\x00\x00\x00\x00\x00\x00\x00\x00\xec\xed\t\xf1\xcc\xa4\xf4?\x00\x00\x00\x00\x00\x00\x00\x00O"\xd0^p\xf8\x00\xc0\x00\x00\x00\x00\x00\x00\x00\x00\x9d\x03\r.\x04V\xe6\xbf\x00\x00\x00\x00\x00\x00\x00\x00\x00\x00\x00\x00\x00\x00\x00\x00\x00\x00\x00\x00\x00\x00\xc3\xbc\x00\x00\x00\x00\x00\x00\x00\x00\x00\x00\x00\x00\x00\x00\x00\xbd\x00\x00\x00\x00\x00\x00\x00\x00\x00\x00\x00\x00\x00\x00\x00\x00\xeb\xed\t\xf1\xcc\xa4\xf4?\x00\x00\x00\x00\x00\x00\x00\x00O"\xd0^p\xf8\x00\xc0\x00\x00\x00\x00\x00\x00\x00\x00\xa3\x03\r.\x04V\xe6\xbf\x00\x00\x00\x00\x00\x00\x00\x00\xcc9\xe3\xc17\x89\xe1?\x00\x00\x00\x00\x00\x00\xc7\xbc\xcc;\x7ff\x9e\xa0\xa6\xbc\x00\x00\x00\x00\x00\x00\xfc\xbc\x00\x00\x00\x00\x00\x00\x00\x00'
p2157
tp2158
bsS'is_holding'
p2159
I00
sbsS'holding_collides'
p2160
NsS'parent_ternary_predicates'
p2161
(dp2162
sS'cached_place_paths'
p2163
(dp2164
(g503
g985
tp2165
(lp2166
g22
(g23
(I0
tp2167
g25
tp2168
Rp2169
(I1
(I3
tp2170
g157
I00
S'\x88vB\x9cj\x85\x03@S\xddgY\x93:\x19\xc0\xcaD\x1d\xcaz]\xfc?'
p2171
tp2172
bas(g867
g148
tp2173
g205
s(g502
g148
tp2174
g256
s(g504
g985
tp2175
(lp2176
g22
(g23
(I0
tp2177
g25
tp2178
Rp2179
(I1
(I3
tp2180
g157
I00
S'=\xadx7\xc0\x82\xe5?\x10!!t\x02o\x1a\xc0\xf4`\x89\x93\xec\x99\x10@'
p2181
tp2182
bas(g502
g985
tp2183
(lp2184
g22
(g23
(I0
tp2185
g25
tp2186
Rp2187
(I1
(I3
tp2188
g157
I00
S'@@\xb9\xc3\x84\x89\xe2?\xd5\xdag\x84\\\xe2\x1f\xc0d\x91+\x0c\x19\xa1\xf1?'
p2189
tp2190
bas(g504
g148
tp2191
(lp2192
g22
(g23
(I0
tp2193
g25
tp2194
Rp2195
(I1
(I3
tp2196
g157
I00
S'H\xadx7\xc0\x82\xe5?\x16!!t\x02o\x1a\xc0\xf4`\x89\x93\xec\x99\x10@'
p2197
tp2198
bag22
(g23
(I0
tp2199
g25
tp2200
Rp2201
(I1
(I3
tp2202
g168
I00
S'\x07\xe5\xeeo\xc2@\xf0?\x80*\x19Ng\xcf\x17\xc0\xccm\xca\xd2+4\x0f@'
p2203
tp2204
bag22
(g23
(I0
tp2205
g25
tp2206
Rp2207
(I1
(I3
tp2208
g168
I00
S'\xa5P\xd1\x87\x88:\xe5?\xd8\xf1\xd1l\xc6\x00\x15\xc0{\xeaM\xb0\xfa\x02\x0e@'
p2209
tp2210
bag22
(g23
(I0
tp2211
g25
tp2212
Rp2213
(I1
(I3
tp2214
g168
I00
S'\xc6\x05\xbdtg\xd9\xe2?F\xdf\x9d@\\\xf3\x11\xc0\x1a\xc4.\xbb\xcc\x12\x02@'
p2215
tp2216
bag22
(g23
(I0
tp2217
g25
tp2218
Rp2219
(I1
(I3
tp2220
g168
I00
S'3z\xed\x8eN)\xe4?\x0c\x96\xd4\xa2\x0e\xd0\r\xc0\xbd%\xf5{\xe9\xf9\x03@'
p2221
tp2222
bag22
(g23
(I0
tp2223
g25
tp2224
Rp2225
(I1
(I3
tp2226
g168
I00
S'\xaf0\xe9h\xba~\xee?k\xbb\xd8\xd4\xd0g\t\xc09\x9ey\xed\xb06\x06@'
p2227
tp2228
bag22
(g23
(I0
tp2229
g25
tp2230
Rp2231
(I1
(I3
tp2232
g168
I00
S'\xf4\xfdJ\x1a(#\xec?H"\x9cD\x1aE\x05\xc0.\xa9\x0b\x87\xf8\xe1\x02@'
p2233
tp2234
bas(g738
g985
tp2235
(lp2236
g22
(g23
(I0
tp2237
g25
tp2238
Rp2239
(I1
(I3
tp2240
g157
I00
S'\xde]?\x0f\x1dl\x07@\x08=\x8cc\x15U\x1a\xc0vN*^\xa7\x19\x16@'
p2241
tp2242
bas(g738
g148
tp2243
g313
s(g12
g148
tp2244
(lp2245
g22
(g23
(I0
tp2246
g25
tp2247
Rp2248
(I1
(I3
tp2249
g157
I00
S'H+@\x9d\xf4%\xfa?i\xac\xe2\xc2\x13\n\x1a\xc0=\xc5G;C\xf3\x17@'
p2250
tp2251
bag22
(g23
(I0
tp2252
g25
tp2253
Rp2254
(I1
(I3
tp2255
g168
I00
S'\x9f5<Q\xb2\xb3\xf7?\xb3\xd6LI,\xe8\x16\xc0\xc2\x13\xbbtu\x87\x00\xc0'
p2256
tp2257
bag22
(g23
(I0
tp2258
g25
tp2259
Rp2260
(I1
(I3
tp2261
g168
I00
S'\xd0\xcb\x13\x8f\xaa\x9d\xed?\x90\x01<]3\x06\x16\xc0F\xf1\xe7x32\x02\xc0'
p2262
tp2263
bag22
(g23
(I0
tp2264
g25
tp2265
Rp2266
(I1
(I3
tp2267
g168
I00
S'l[\xc4\x16<\xe6\xe9?\xa6\xa0\x90\x84X\x9f\x13\xc0\xc2\xd74Q\x00\xaf\xff\xbf'
p2268
tp2269
bag22
(g23
(I0
tp2270
g25
tp2271
Rp2272
(I1
(I3
tp2273
g168
I00
S"\xaeJ\xbd\x1936\xec?\x04\x13\xd4'\x9f\x88\x10\xc0\x805qo\xb6\xe6\xff\xbf"
p2274
tp2275
bag22
(g23
(I0
tp2276
g25
tp2277
Rp2278
(I1
(I3
tp2279
g168
I00
S'\xf09\xb6\x1c*\x86\xee?\xc4\n/\x96\xcb\xe3\n\xc0\xa0\xc9\xd6F6\x0f\x00\xc0'
p2280
tp2281
bag22
(g23
(I0
tp2282
g25
tp2283
Rp2284
(I1
(I3
tp2285
g168
I00
S'3\xe9\xaf\x05T\x89\xe7?+~\xcb\xd3\x15\xc7\x04\xc0x6(d5\xed\x07@'
p2286
tp2287
bas(g651
g148
tp2288
g150
s(g651
g985
tp2289
(lp2290
g22
(g23
(I0
tp2291
g25
tp2292
Rp2293
(I1
(I3
tp2294
g157
I00
S'7\xe9\x05\x9b\xd6\xcd\x01@L=\xb7\xc7\xdc\xf2\x16\xc0V\xb3\xc5<`\xc3\x17@'
p2295
tp2296
bas(g867
g985
tp2297
(lp2298
g22
(g23
(I0
tp2299
g25
tp2300
Rp2301
(I1
(I3
tp2302
g157
I00
S'\xd9q\x15\xf7\xca\xe4\x03@\x19d\xa8[\xe9\x19\x16\xc0\x13D%\xd8yH\x18@'
p2303
tp2304
bas(g12
g985
tp2305
(lp2306
g22
(g23
(I0
tp2307
g25
tp2308
Rp2309
(I1
(I3
tp2310
g157
I00
S'F+@\x9d\xf4%\xfa?j\xac\xe2\xc2\x13\n\x1a\xc0=\xc5G;C\xf3\x17@'
p2311
tp2312
bas(g595
g985
tp2313
(lp2314
g22
(g23
(I0
tp2315
g25
tp2316
Rp2317
(I1
(I3
tp2318
g157
I00
S"E\x06\x8b^6\x88\x06@\x04\xd9\xe9\xeb\n\xf3\x1b\xc0\x98\x16\x06'\x8f|\x10@"
p2319
tp2320
bas(g595
g148
tp2321
g421
s(g503
g148
tp2322
g370
ssS'parent_binary_predicates'
p2323
(dp2324
sS'nodes'
p2325
(dp2326
g988
(lp2327
I0
aI0
aI0
aI0
aI0
aI0
aI00
aI01
aI00
aI01
aI00
asg985
(lp2328
I0
aI0
aI0
aI0
aI0
aI0
aI00
aI01
aI00
aI01
aI00
asg148
(lp2329
I0
aI0
aI0
aI0
aI0
aI0
aI00
aI01
aI01
aI01
aI00
asg254
(lp2330
I0
aI0
aI0
ag1558
(g157
S'\xecks\x94\rJ\xef?'
p2331
tp2332
Rp2333
ag1558
(g157
S'\x8e\xc5\xab\xafq\x99\x1d\xc0'
p2334
tp2335
Rp2336
ag1558
(g157
S'\xee\x9f\xd9\xac\xf97\x03@'
p2337
tp2338
Rp2339
aI01
aI00
aI00
aI01
aI00
asg419
(lp2340
I0
aI0
aI0
ag1558
(g157
S')\xd5\xd19"\xc7\x04@'
p2341
tp2342
Rp2343
ag1558
(g157
S'z\xf0\x9ai\x0e}\x1e\xc0'
p2344
tp2345
Rp2346
ag1558
(g157
S'\x0ca;\x90\x1a3\x16@'
p2347
tp2348
Rp2349
aI01
aI00
aI00
aI00
aI00
asg147
(lp2350
I0
aI0
aI0
ag1558
(g157
S'\x96C\xb3\xdcq\x08\x06@'
p2351
tp2352
Rp2353
ag1558
(g157
S'\xdc\xad\x16\x13\xa8\xb0\x18\xc0'
p2354
tp2355
Rp2356
ag1558
(g157
S'+r\x88LbE\xeb?'
p2357
tp2358
Rp2359
aI01
aI00
aI00
aI00
aI00
asg368
(lp2360
I0
aI0
aI0
ag1558
(g157
S'\x9ayE{\x9f:\x01@'
p2361
tp2362
Rp2363
ag1558
(g157
S'\x89\x93\x01xO9\x16\xc0'
p2364
tp2365
Rp2366
ag1558
(g157
S'\x9c\xd4*H\xdb\x92\x15@'
p2367
tp2368
Rp2369
aI01
aI00
aI00
aI01
aI00
asg311
(lp2370
I0
aI0
aI0
ag1558
(g157
S'\x08^\xd0\xf7\xfc\x9f\x0c@'
p2371
tp2372
Rp2373
ag1558
(g157
S'Z]H3\x1eI\x1b\xc0'
p2374
tp2375
Rp2376
ag1558
(g157
S'\xfa\xb9&\x92i\x1e\x06@'
p2377
tp2378
Rp2379
aI01
aI00
aI00
aI00
aI00
asg937
(lp2380
I0
aI0
aI0
ag1558
(g157
S'FQ|\xbe_1\xc7?'
p2381
tp2382
Rp2383
ag1558
(g157
S'\xe0|1\xc1\xe9\x9a\x1c\xc0'
p2384
tp2385
Rp2386
ag1558
(g157
S'\xe2t\xfc\x98T\x96\xd5?'
p2387
tp2388
Rp2389
aI01
aI00
aI00
aI01
aI00
asg942
(lp2390
I0
aI0
aI0
ag1558
(g157
S'\x02Y\xb4\xf7\x1e\xfc\x01@'
p2391
tp2392
Rp2393
ag1558
(g157
S'Ao\x13\tl\xab\x1b\xc0'
p2394
tp2395
Rp2396
ag1558
(g157
S'\xfaB\x03\x87V\x91\x0f@'
p2397
tp2398
Rp2399
aI01
aI00
aI01
aI01
aI00
asg203
(lp2400
I0
aI0
aI0
ag1558
(g157
S'w\xb9\x81\x9aL:\t@'
p2401
tp2402
Rp2403
ag1558
(g157
S'\xb4\xb7IH\xed#\x16\xc0'
p2404
tp2405
Rp2406
ag1558
(g157
S'"\xb8\x8c\x9e\x1at\x07@'
p2407
tp2408
Rp2409
aI01
aI00
aI00
aI00
aI00
assS'mc_place_path'
p2410
(dp2411
sS'parent_state'
p2412
NsS'goal_entities'
p2413
(lp2414
S'square_packing_box1'
p2415
ag148
asS'binary_edges'
p2416
(dp2417
(g311
g203
tp2418
(lp2419
I00
aI00
aI00
as(g311
g254
tp2420
(lp2421
I00
aI00
aI00
as(g147
g937
tp2422
(lp2423
I00
aI00
aI00
as(g147
g147
tp2424
(lp2425
I00
aI00
aI00
as(g419
g937
tp2426
(lp2427
I00
aI00
aI00
as(g419
g147
tp2428
(lp2429
I00
aI00
aI00
as(g203
g419
tp2430
(lp2431
I00
aI00
aI00
as(g311
g942
tp2432
(lp2433
I00
aI00
aI00
as(g368
g147
tp2434
(lp2435
I00
aI01
aI00
as(g254
g254
tp2436
(lp2437
I00
aI00
aI00
as(g419
g985
tp2438
(lp2439
g1558
(g29
(S'b1'
p2440
I0
I1
tp2441
Rp2442
(I3
S'|'
p2443
NNNI-1
I-1
I0
tp2444
bS'\x01'
p2445
tp2446
Rp2447
aI00
aI01
as(g988
g985
tp2448
(lp2449
I00
aI00
aI00
as(g254
g203
tp2450
(lp2451
I00
aI00
aI00
as(g985
g203
tp2452
(lp2453
I00
aI00
aI00
as(g942
g148
tp2454
(lp2455
I00
aI00
aI01
as(g988
g419
tp2456
(lp2457
I00
aI00
aI00
as(g419
g203
tp2458
(lp2459
I00
aI00
aI00
as(g147
g988
tp2460
(lp2461
g2447
aI00
aI00
as(g311
g311
tp2462
(lp2463
I00
aI00
aI00
as(g985
g311
tp2464
(lp2465
I00
aI00
aI00
as(g937
g419
tp2466
(lp2467
I00
aI00
aI00
as(g419
g148
tp2468
(lp2469
I00
aI00
aI00
as(g368
g937
tp2470
(lp2471
I00
aI00
aI00
as(g254
g368
tp2472
(lp2473
I00
aI00
aI00
as(g942
g942
tp2474
(lp2475
I00
aI00
aI00
as(g419
g988
tp2476
(lp2477
g2447
aI00
aI00
as(g985
g419
tp2478
(lp2479
I00
aI00
aI00
as(g985
g937
tp2480
(lp2481
I00
aI00
aI00
as(g985
g147
tp2482
(lp2483
I00
aI00
aI00
as(g937
g148
tp2484
(lp2485
I00
aI00
aI01
as(g203
g254
tp2486
(lp2487
I00
aI00
aI00
as(g368
g254
tp2488
(lp2489
I00
aI00
aI00
as(g937
g368
tp2490
(lp2491
I00
aI00
aI00
as(g985
g254
tp2492
(lp2493
I00
aI00
aI00
as(g988
g148
tp2494
(lp2495
I00
aI00
aI00
as(g942
g419
tp2496
(lp2497
I00
aI01
aI00
as(g254
g937
tp2498
(lp2499
I00
aI00
aI00
as(g988
g937
tp2500
(lp2501
I00
aI00
aI00
as(g937
g988
tp2502
(lp2503
g2447
aI00
aI00
as(g147
g311
tp2504
(lp2505
I00
aI01
aI00
as(g203
g942
tp2506
(lp2507
I00
aI00
aI00
as(g147
g419
tp2508
(lp2509
I00
aI00
aI00
as(g203
g148
tp2510
(lp2511
I00
aI00
aI00
as(g988
g988
tp2512
(lp2513
I00
aI00
aI00
as(g937
g254
tp2514
(lp2515
I00
aI00
aI00
as(g942
g311
tp2516
(lp2517
I00
aI00
aI00
as(g148
g942
tp2518
(lp2519
I00
aI00
aI00
as(g368
g985
tp2520
(lp2521
g2447
aI00
aI01
as(g148
g368
tp2522
(lp2523
I00
aI00
aI00
as(g203
g147
tp2524
(lp2525
I00
aI00
aI00
as(g147
g942
tp2526
(lp2527
I00
aI00
aI00
as(g937
g985
tp2528
(lp2529
g2447
aI00
aI01
as(g147
g368
tp2530
(lp2531
I00
aI00
aI00
as(g937
g937
tp2532
(lp2533
I00
aI00
aI00
as(g368
g419
tp2534
(lp2535
I00
aI00
aI00
as(g985
g148
tp2536
(lp2537
I00
aI00
aI00
as(g148
g311
tp2538
(lp2539
I00
aI00
aI00
as(g254
g148
tp2540
(lp2541
I00
aI00
aI00
as(g988
g368
tp2542
(lp2543
I00
aI00
aI00
as(g148
g203
tp2544
(lp2545
I00
aI00
aI00
as(g147
g203
tp2546
(lp2547
I00
aI01
aI00
as(g368
g988
tp2548
(lp2549
g2447
aI00
aI00
as(g203
g985
tp2550
(lp2551
g2447
aI00
aI01
as(g368
g311
tp2552
(lp2553
I00
aI01
aI00
as(g254
g419
tp2554
(lp2555
I00
aI01
aI00
as(g254
g985
tp2556
(lp2557
g2447
aI00
aI01
as(g148
g147
tp2558
(lp2559
I00
aI00
aI00
as(g988
g203
tp2560
(lp2561
I00
aI00
aI00
as(g988
g254
tp2562
(lp2563
I00
aI00
aI00
as(g368
g148
tp2564
(lp2565
I00
aI00
aI00
as(g311
g368
tp2566
(lp2567
I00
aI00
aI00
as(g942
g368
tp2568
(lp2569
I00
aI00
aI00
as(g148
g937
tp2570
(lp2571
I00
aI00
aI00
as(g985
g985
tp2572
(lp2573
I00
aI00
aI00
as(g311
g147
tp2574
(lp2575
I00
aI00
aI00
as(g942
g937
tp2576
(lp2577
I00
aI00
aI00
as(g985
g942
tp2578
(lp2579
I00
aI00
aI00
as(g419
g254
tp2580
(lp2581
I00
aI00
aI00
as(g985
g368
tp2582
(lp2583
I00
aI00
aI00
as(g942
g988
tp2584
(lp2585
g2447
aI00
aI00
as(g311
g419
tp2586
(lp2587
I00
aI00
aI00
as(g147
g148
tp2588
(lp2589
I00
aI00
aI00
as(g942
g254
tp2590
(lp2591
I00
aI00
aI00
as(g254
g942
tp2592
(lp2593
I00
aI00
aI00
as(g419
g942
tp2594
(lp2595
I00
aI00
aI00
as(g988
g311
tp2596
(lp2597
I00
aI00
aI00
as(g419
g368
tp2598
(lp2599
I00
aI00
aI00
as(g937
g311
tp2600
(lp2601
I00
aI00
aI00
as(g311
g985
tp2602
(lp2603
g2447
aI00
aI01
as(g368
g368
tp2604
(lp2605
I00
aI00
aI00
as(g203
g311
tp2606
(lp2607
I00
aI00
aI00
as(g942
g203
tp2608
(lp2609
I00
aI00
aI00
as(g419
g311
tp2610
(lp2611
I00
aI00
aI00
as(g419
g419
tp2612
(lp2613
I00
aI00
aI00
as(g203
g368
tp2614
(lp2615
I00
aI00
aI00
as(g311
g148
tp2616
(lp2617
I00
aI00
aI00
as(g937
g942
tp2618
(lp2619
I00
aI00
aI00
as(g147
g985
tp2620
(lp2621
g2447
aI00
aI01
as(g148
g419
tp2622
(lp2623
I00
aI00
aI00
as(g368
g942
tp2624
(lp2625
I00
aI00
aI00
as(g254
g147
tp2626
(lp2627
I00
aI00
aI00
as(g148
g985
tp2628
(lp2629
I00
aI00
aI00
as(g311
g937
tp2630
(lp2631
I00
aI00
aI00
as(g988
g147
tp2632
(lp2633
I00
aI00
aI00
as(g311
g988
tp2634
(lp2635
g2447
aI00
aI00
as(g937
g147
tp2636
(lp2637
I00
aI00
aI00
as(g148
g148
tp2638
(lp2639
I00
aI00
aI00
as(g368
g203
tp2640
(lp2641
I00
aI01
aI00
as(g254
g988
tp2642
(lp2643
g2447
aI00
aI00
as(g203
g988
tp2644
(lp2645
g2447
aI00
aI00
as(g148
g988
tp2646
(lp2647
I00
aI00
aI00
as(g148
g254
tp2648
(lp2649
I00
aI00
aI00
as(g937
g203
tp2650
(lp2651
I00
aI00
aI00
as(g203
g937
tp2652
(lp2653
I00
aI00
aI00
as(g147
g254
tp2654
(lp2655
I00
aI00
aI00
as(g985
g988
tp2656
(lp2657
I00
aI00
aI00
as(g942
g147
tp2658
(lp2659
I00
aI00
aI00
as(g254
g311
tp2660
(lp2661
I00
aI00
aI00
as(g203
g203
tp2662
(lp2663
I00
aI00
aI00
as(g942
g985
tp2664
(lp2665
g2447
aI00
aI01
as(g988
g942
tp2666
(lp2667
I00
aI00
aI00
assg500
g501
sS'pick_in_way'
p2668
(itrajectory_representation.predicates.pick_in_way
PickInWay
p2669
(dp2670
g145
(dp2671
g254
g576
sg419
g632
sg147
g676
sg368
g719
sg311
g775
sg937
g818
sg942
g848
sg203
g904
ssg476
(dp2672
g254
(lp2673
sg419
(lp2674
Vrectangular_packing_box4
p2675
aVsquare_packing_box1
p2676
asg147
(lp2677
Vrectangular_packing_box1
p2678
asg368
(lp2679
sg311
(lp2680
Vrectangular_packing_box1
p2681
aVrectangular_packing_box3
p2682
asg937
(lp2683
sg942
(lp2684
sg203
(lp2685
Vrectangular_packing_box1
p2686
aVrectangular_packing_box3
p2687
assg500
(lp2688
g368
ag937
ag254
ag988
ag148
ag985
ag942
ag988
ag148
ag985
ag988
ag148
ag985
ag988
ag148
ag985
ag988
ag148
ag985
ag988
ag148
ag985
ag988
ag148
ag985
ag988
ag148
ag985
asg505
g506
sg78
(dp2689
sg540
g541
sg925
Nsg931
g541
sg928
(dp2690
sg930
I8
sg980
I01
sg932
Nsg933
(dp2691
(g311
g203
tp2692
I00
s(g311
g254
tp2693
I00
s(g147
g937
tp2694
I00
s(g147
g147
tp2695
I00
s(g419
g937
tp2696
I00
s(g419
g147
tp2697
I00
s(g203
g419
tp2698
I00
s(g311
g942
tp2699
I00
s(g368
g147
tp2700
I01
s(g254
g254
tp2701
I00
s(g419
g985
tp2702
I00
s(g988
g985
tp2703
I00
s(g254
g203
tp2704
I00
s(g985
g203
tp2705
I00
s(g942
g148
tp2706
I00
s(g988
g419
tp2707
I00
s(g419
g203
tp2708
I00
s(g147
g988
tp2709
I00
s(g311
g311
tp2710
I00
s(g985
g311
tp2711
I00
s(g937
g419
tp2712
I00
s(g419
g148
tp2713
I00
s(g368
g937
tp2714
I00
s(g254
g368
tp2715
I00
s(g942
g942
tp2716
I00
s(g419
g988
tp2717
I00
s(g985
g419
tp2718
I00
s(g985
g937
tp2719
I00
s(g985
g147
tp2720
I00
s(g937
g148
tp2721
I00
s(g203
g254
tp2722
I00
s(g368
g254
tp2723
I00
s(g937
g368
tp2724
I00
s(g985
g254
tp2725
I00
s(g988
g148
tp2726
I00
s(g942
g419
tp2727
I01
s(g254
g937
tp2728
I00
s(g988
g937
tp2729
I00
s(g937
g988
tp2730
I00
s(g147
g311
tp2731
I01
s(g203
g942
tp2732
I00
s(g147
g419
tp2733
I00
s(g203
g148
tp2734
I00
s(g988
g988
tp2735
I00
s(g937
g254
tp2736
I00
s(g942
g311
tp2737
I00
s(g148
g942
tp2738
I00
s(g368
g985
tp2739
I00
s(g148
g368
tp2740
I00
s(g203
g147
tp2741
I00
s(g147
g942
tp2742
I00
s(g937
g985
tp2743
I00
s(g147
g368
tp2744
I00
s(g937
g937
tp2745
I00
s(g368
g419
tp2746
I00
s(g985
g148
tp2747
I00
s(g148
g311
tp2748
I00
s(g254
g148
tp2749
I00
s(g988
g368
tp2750
I00
s(g148
g203
tp2751
I00
s(g147
g203
tp2752
I01
s(g368
g988
tp2753
I00
s(g203
g985
tp2754
I00
s(g368
g311
tp2755
I01
s(g254
g419
tp2756
I01
s(g254
g985
tp2757
I00
s(g148
g147
tp2758
I00
s(g988
g203
tp2759
I00
s(g988
g254
tp2760
I00
s(g368
g148
tp2761
I00
s(g311
g368
tp2762
I00
s(g942
g368
tp2763
I00
s(g148
g937
tp2764
I00
s(g985
g985
tp2765
I00
s(g311
g147
tp2766
I00
s(g942
g937
tp2767
I00
s(g985
g942
tp2768
I00
s(g419
g254
tp2769
I00
s(g985
g368
tp2770
I00
s(g942
g988
tp2771
I00
s(g311
g419
tp2772
I00
s(g147
g148
tp2773
I00
s(g942
g254
tp2774
I00
s(g254
g942
tp2775
I00
s(g419
g942
tp2776
I00
s(g988
g311
tp2777
I00
s(g419
g368
tp2778
I00
s(g937
g311
tp2779
I00
s(g311
g985
tp2780
I00
s(g368
g368
tp2781
I00
s(g203
g311
tp2782
I00
s(g942
g203
tp2783
I00
s(g419
g311
tp2784
I00
s(g419
g419
tp2785
I00
s(g203
g368
tp2786
I00
s(g311
g148
tp2787
I00
s(g937
g942
tp2788
I00
s(g147
g985
tp2789
I00
s(g148
g419
tp2790
I00
s(g368
g942
tp2791
I00
s(g254
g147
tp2792
I00
s(g148
g985
tp2793
I00
s(g311
g937
tp2794
I00
s(g988
g147
tp2795
I00
s(g311
g988
tp2796
I00
s(g937
g147
tp2797
I00
s(g148
g148
tp2798
I00
s(g368
g203
tp2799
I01
s(g254
g988
tp2800
I00
s(g203
g988
tp2801
I00
s(g148
g988
tp2802
I00
s(g148
g254
tp2803
I00
s(g937
g203
tp2804
I00
s(g203
g937
tp2805
I00
s(g147
g254
tp2806
I00
s(g985
g988
tp2807
I00
s(g942
g147
tp2808
I00
s(g254
g311
tp2809
I00
s(g203
g203
tp2810
I00
s(g942
g985
tp2811
I00
s(g988
g942
tp2812
I00
ssg979
NsbsS'robot_pose'
p2813
g22
(g23
(I0
tp2814
g25
tp2815
Rp2816
(I1
(I1
I3
tp2817
g157
I00
S'\x9c\x9e\xda\xf1\x9a\r\xf0?=\x88]\x1a\x97\x1d\x19\xc0\xf6\xfb\x82\xe2`b\t@'
p2818
tp2819
bsS'is_holding_goal_entity'
p2820
(itrajectory_representation.predicates.is_holding_goal_entity
IsHoldingGoalEntity
p2821
(dp2822
g2413
g2414
sg932
NsbsS'mc_pick_path'
p2823
(dp2824
sS'current_collides'
p2825
g506
sbasS'seed'
p2826
NsS'state_prime'
p2827
(lp2828
sS'problem_idx'
p2829
I214
sb.