(itrajectory_representation.trajectory
Trajectory
p0
(dp1
S'rewards'
p2
(lp3
I0
aI10
asS'actions'
p4
(lp5
(itrajectory_representation.operator
Operator
p6
(dp7
S'is_skeleton'
p8
I00
sS'discrete_parameters'
p9
(dp10
S'object'
p11
Vrectangular_packing_box1
p12
sS'two_arm_place_region'
p13
S'loading_region'
p14
sS'two_arm_place_object'
p15
g12
ssS'type'
p16
S'two_arm_pick_two_arm_place'
p17
sS'continuous_parameters'
p18
(dp19
S'q_goal'
p20
cnumpy.core.multiarray
_reconstruct
p21
(cnumpy
ndarray
p22
(I0
tp23
S'b'
p24
tp25
Rp26
(I1
(I3
tp27
cnumpy
dtype
p28
(S'f8'
p29
I0
I1
tp30
Rp31
(I3
S'<'
p32
NNNI-1
I-1
I0
tp33
bI00
S'tgK\x00\xcf\x84\xf8?\xaf^\xf5\x8e\x99\x8d\x1e\xc0m8l\x07_\x10\xea?'
p34
tp35
bsS'place'
p36
(dp37
g20
g21
(g22
(I0
tp38
g24
tp39
Rp40
(I1
(I3
tp41
g31
I00
S'qf \xe4y{\x05@N\xb8*\x96\x1d\xc0\x1d\xc0iZ\xd2\xbb\xc8M\r@'
p42
tp43
bssS'pick'
p44
(dp45
g20
g26
sssS'low_level_motion'
p46
(lp47
g21
(g22
(I0
tp48
g24
tp49
Rp50
(I1
(I3
tp51
g31
I00
S'\xdf\x94\xa0\x97\xd7x\x0c@\x8e\riz\xd7\x8f\x1a\xc0\xb5\xb8\xb1\xf1;h\n@'
p52
tp53
bag21
(g22
(I0
tp54
g24
tp55
Rp56
(I1
(I3
tp57
g28
(S'f8'
p58
I0
I1
tp59
Rp60
(I3
S'<'
p61
NNNI-1
I-1
I0
tp62
bI00
S'\xfc\xa4s\xc9\x94\xef\t@\xb4\xe1\x9c\x11\xf4=\x1d\xc0\xc4(r\x81\xa1>\x06@'
p63
tp64
bag21
(g22
(I0
tp65
g24
tp66
Rp67
(I1
(I3
tp68
g60
I00
S'\xe4\x81\xa6\xb4\xaf\xa9\x06@W#\xf7\xbb\x82\xfc\x1e\xc05N\xc5G\xfd\x04\x02@'
p69
tp70
bag21
(g22
(I0
tp71
g24
tp72
Rp73
(I1
(I3
tp74
g60
I00
S'T\x93\x9d\x1f\xdb\x8b\x00@h\xc33f\x19N\x1f\xc0\n\x0b9\x98\xdd\xa0\xf7?'
p75
tp76
bag26
ag26
asba(itrajectory_representation.operator
Operator
p77
(dp78
g8
I00
sg9
(dp79
g11
Vsquare_packing_box1
p80
sS'two_arm_place_region'
p81
S'home_region'
p82
sS'two_arm_place_object'
p83
g80
ssg16
S'two_arm_pick_two_arm_place'
p84
sg18
(dp85
g20
g21
(g22
(I0
tp86
g24
tp87
Rp88
(I1
(I3
tp89
g31
I00
S'V9P\xaa\xac\xa3\x00@\xa2*\x83V\xa4h\x19\xc0w\\3\xcaU0\x02@'
p90
tp91
bsg36
(dp92
g20
g21
(g22
(I0
tp93
g24
tp94
Rp95
(I1
(I3
tp96
g31
I00
S'\xc8\xea\xb6\xb9\xb4\xbf\xf0?\xf3A\xbfn-\xbc\xff\xbf\xe6\x0c\xaf\xb5+\xe3\xed?'
p97
tp98
bssg44
(dp99
g20
g88
sssg46
(lp100
g21
(g22
(I0
tp101
g24
tp102
Rp103
(I1
(I3
tp104
g31
I00
S'pf \xe4y{\x05@J\xb8*\x96\x1d\xc0\x1d\xc0iZ\xd2\xbb\xc8M\r@'
p105
tp106
bag21
(g22
(I0
tp107
g24
tp108
Rp109
(I1
(I3
tp110
g60
I00
S'V\xabeZR\xc6\x06@\xab\xe1L\x0ek\xca\x1d\xc01\xff\xe0\xde\xd3f\x10@'
p111
tp112
bag21
(g22
(I0
tp113
g24
tp114
Rp115
(I1
(I3
tp116
g60
I00
S'\xe8[\xb2\xaa\xa5@\x04@(j\r1!I\x1b\xc0Xj\x8bx\xc9`\xfc?'
p117
tp118
bag88
ag88
asbasS'filename'
p119
S''
p120
sS'states'
p121
(lp122
(itrajectory_representation.shortest_path_pick_and_place_state
ShortestPathPaPState
p123
(dp124
S'place_used'
p125
(dp126
(Vsquare_packing_box1
p127
g82
tp128
(itrajectory_representation.operator
Operator
p129
(dp130
g8
I01
sg9
(dp131
S'region'
p132
g82
sg11
g127
ssg16
S'two_arm_place'
p133
sg18
(dp134
g20
g21
(g22
(I0
tp135
g24
tp136
Rp137
(I1
(I3
tp138
g31
I00
S'\xc8\xea\xb6\xb9\xb4\xbf\xf0?\xf3A\xbfn-\xbc\xff\xbf\xe6\x0c\xaf\xb5+\xe3\xed?'
p139
tp140
bssg46
(lp141
g21
(g22
(I0
tp142
g24
tp143
Rp144
(I1
(I3
tp145
g31
I00
S'>9P\xaa\xac\xa3\x00@\xa1*\x83V\xa4h\x19\xc0t\\3\xcaU0\x02@'
p146
tp147
bag21
(g22
(I0
tp148
g24
tp149
Rp150
(I1
(I3
tp151
g60
I00
S'\xc6\xf1T\x16)\x02\xfe?\xa8\x7fQ\xf5\xbb\x10\x19\xc0\xa38\tS\x83\x84\x05@'
p152
tp153
bag21
(g22
(I0
tp154
g24
tp155
Rp156
(I1
(I3
tp157
g60
I00
S'\x84\xa2s4\xa1\xd0\xf6?E=|\xb9\xcam\x17\xc0\xa93^V\xfc\xed\x05@'
p158
tp159
bag21
(g22
(I0
tp160
g24
tp161
Rp162
(I1
(I3
tp163
g60
I00
S'E6\xa2Z]\x01\xe8?\x8b\x06T\x92\xa7\x82\x16\xc0q\xc1\x9f~\xe7\n\xfb?'
p164
tp165
bag21
(g22
(I0
tp166
g24
tp167
Rp168
(I1
(I3
tp169
g60
I00
S'v\xb8^\x85\xa7[\xea?x\xbe\xff2t\x8d\x13\xc0\x88\x85\x8cCyH\xf6?'
p170
tp171
bag21
(g22
(I0
tp172
g24
tp173
Rp174
(I1
(I3
tp175
g60
I00
S'\xc2\xda(e\x83\x1a\xeb?\x8au\x8d3\xa6E\x11\xc0\xb4c\x1b\xed_\xfd\xfa?'
p176
tp177
bag21
(g22
(I0
tp178
g24
tp179
Rp180
(I1
(I3
tp181
g60
I00
S'\xe4u**\x0e5\xe9?\xaa\xfd\r\xed\xc4\xf6\r\xc0\x0fDE0\x1f\x0b\xfe?'
p182
tp183
bag21
(g22
(I0
tp184
g24
tp185
Rp186
(I1
(I3
tp187
g60
I00
S'\x06\x11,\xef\x98O\xe7??\x10\x01s=b\t\xc04\x92\xb79o\x8c\x00@'
p188
tp189
bag21
(g22
(I0
tp190
g24
tp191
Rp192
(I1
(I3
tp193
g60
I00
S'\x0e\n\xf3\x14\x91\x9e\xf3?\x1c\x0cAZ"\xfa\x05\xc0\xf8\x01c\x9bq\'\xfc?'
p194
tp195
bag137
ag137
asbs(Vrectangular_packing_box1
p196
g14
tp197
(itrajectory_representation.operator
Operator
p198
(dp199
g8
I01
sg9
(dp200
g132
g14
sg11
g196
ssg16
g133
sg18
(dp201
g20
g21
(g22
(I0
tp202
g24
tp203
Rp204
(I1
(I3
tp205
g31
I00
S'qf \xe4y{\x05@N\xb8*\x96\x1d\xc0\x1d\xc0iZ\xd2\xbb\xc8M\r@'
p206
tp207
bssg46
(lp208
g21
(g22
(I0
tp209
g24
tp210
Rp211
(I1
(I3
tp212
g31
I00
S'\xa8gK\x00\xcf\x84\xf8?\xa9^\xf5\x8e\x99\x8d\x1e\xc0n8l\x07_\x10\xea?'
p213
tp214
bag21
(g22
(I0
tp215
g24
tp216
Rp217
(I1
(I3
tp218
g60
I00
S'I&\xa6\xa8\xc8\xcd\xfb?\xc6\x13\x8e\x17\xd6\xf2\x1e\xc0\x8e\xe8\xdc\x06F\xc0\xaa\xbf'
p219
tp220
bag21
(g22
(I0
tp221
g24
tp222
Rp223
(I1
(I3
tp224
g60
I00
S'\xbe\x13Y^h\xbd\x02@\xe3\xc2^\xa1\xb6U\x1f\xc0\xb9*7\xddY\x01\x07@'
p225
tp226
bag204
ag204
asbssS'place_in_way'
p227
(itrajectory_representation.predicates.place_in_way
PlaceInWay
p228
(dp229
S'mc_path_to_entity'
p230
(dp231
(Vrectangular_packing_box3
p232
S'home_region'
p233
tp234
(lp235
g21
(g22
(I0
tp236
g24
tp237
Rp238
(I1
(I3
tp239
g28
(S'f8'
p240
I0
I1
tp241
Rp242
(I3
S'<'
p243
NNNI-1
I-1
I0
tp244
bI00
S'yO\x9cnO\xa6\x07@\xb2\xad\x06\xf8\x9a\xd5\x18\xc0E\x94\x1d\xd7\xf0\x01\x03@'
p245
tp246
bag21
(g22
(I0
tp247
g24
tp248
Rp249
(I1
(I3
tp250
g28
(S'f8'
p251
I0
I1
tp252
Rp253
(I3
S'<'
p254
NNNI-1
I-1
I0
tp255
bI00
S'\xf8d\x877\x12\xfd\x04@h\xdbW\x9a\x83\x8e\x16\xc0\x87\xf16\xb9\x03k\x05@'
p256
tp257
bag21
(g22
(I0
tp258
g24
tp259
Rp260
(I1
(I3
tp261
g253
I00
S'\xc7\xc7\x06s\xd6\xa3\xff?3\x91\xe4\x97\xb5\x07\x16\xc0\x1bW\xbc\xbfY:\x06@'
p262
tp263
bag21
(g22
(I0
tp264
g24
tp265
Rp266
(I1
(I3
tp267
g253
I00
S'\x84\xa2s4\xa1\xd0\xf6?E=|\xb9\xcam\x17\xc0\xa93^V\xfc\xed\x05@'
p268
tp269
bag21
(g22
(I0
tp270
g24
tp271
Rp272
(I1
(I3
tp273
g253
I00
S'f\xb4\x9c\x07\xac\xbf\xec?n\x96\x96\x9e\x90n\x16\xc0uo!\xa9\x9b\x82\x07@'
p274
tp275
bag21
(g22
(I0
tp276
g24
tp277
Rp278
(I1
(I3
tp279
g253
I00
S'm\xd5h\x072\x03\xea?\xdf\xe5\xe82\xd3\x17\x14\xc0\x08\x9e\xe1\xfbO\x94\x08@'
p280
tp281
bag21
(g22
(I0
tp282
g24
tp283
Rp284
(I1
(I3
tp285
g253
I00
S'\xc6\x05\xbdtg\xd9\xe2?F\xdf\x9d@\\\xf3\x11\xc0\x1a\xc4.\xbb\xcc\x12\x02@'
p286
tp287
bag21
(g22
(I0
tp288
g24
tp289
Rp290
(I1
(I3
tp291
g253
I00
S'3z\xed\x8eN)\xe4?\x0c\x96\xd4\xa2\x0e\xd0\r\xc0\xbd%\xf5{\xe9\xf9\x03@'
p292
tp293
bag21
(g22
(I0
tp294
g24
tp295
Rp296
(I1
(I3
tp297
g253
I00
S'\xaf0\xe9h\xba~\xee?k\xbb\xd8\xd4\xd0g\t\xc09\x9ey\xed\xb06\x06@'
p298
tp299
bag21
(g22
(I0
tp300
g24
tp301
Rp302
(I1
(I3
tp303
g253
I00
S'\xf4\xfdJ\x1a(#\xec?H"\x9cD\x1aE\x05\xc0.\xa9\x0b\x87\xf8\xe1\x02@'
p304
tp305
bas(Vsquare_packing_box4
p306
g233
tp307
(lp308
g21
(g22
(I0
tp309
g24
tp310
Rp311
(I1
(I3
tp312
g242
I00
S'\xd8\x13\x84z\xa1\x07\xd0?\xa3\x17>=\x976\x1a\xc0\xdd\xfb\xff,\re\x03@'
p313
tp314
bag21
(g22
(I0
tp315
g24
tp316
Rp317
(I1
(I3
tp318
g253
I00
S'\xae\xea\x9e\xa3\xa2\xb1\xed?\xa4\xca\x1d?h\x96\x19\xc0dq\xdf\xb1\x9d\xe4\x05@'
p319
tp320
bag21
(g22
(I0
tp321
g24
tp322
Rp323
(I1
(I3
tp324
g253
I00
S'o\xd6\x82\xea\x7f\xb2\xed?9\xf2C\x0b?\xfd\x16\xc0(?d\xe9@\xb5\x02@'
p325
tp326
bag21
(g22
(I0
tp327
g24
tp328
Rp329
(I1
(I3
tp330
g253
I00
S'&>c9\x01,\xeb?\xb2\xc2\xf0\x02\xce\x8e\x14\xc0\xd8p\xbb2\x14\xd2\x03@'
p331
tp332
bag21
(g22
(I0
tp333
g24
tp334
Rp335
(I1
(I3
tp336
g253
I00
S'\xc6\x05\xbdtg\xd9\xe2?F\xdf\x9d@\\\xf3\x11\xc0\x1a\xc4.\xbb\xcc\x12\x02@'
p337
tp338
bag21
(g22
(I0
tp339
g24
tp340
Rp341
(I1
(I3
tp342
g253
I00
S'3z\xed\x8eN)\xe4?\x0c\x96\xd4\xa2\x0e\xd0\r\xc0\xbd%\xf5{\xe9\xf9\x03@'
p343
tp344
bag21
(g22
(I0
tp345
g24
tp346
Rp347
(I1
(I3
tp348
g253
I00
S'\xaf0\xe9h\xba~\xee?k\xbb\xd8\xd4\xd0g\t\xc09\x9ey\xed\xb06\x06@'
p349
tp350
bag21
(g22
(I0
tp351
g24
tp352
Rp353
(I1
(I3
tp354
g253
I00
S'\xf4\xfdJ\x1a(#\xec?H"\x9cD\x1aE\x05\xc0.\xa9\x0b\x87\xf8\xe1\x02@'
p355
tp356
bas(Vrectangular_packing_box4
p357
g233
tp358
(lp359
g21
(g22
(I0
tp360
g24
tp361
Rp362
(I1
(I3
tp363
g242
I00
S'p\xc8Zi\x80n\xee?]eh1\xc0\xb8\x1c\xc02"\xe2\xf04 \x13@'
p364
tp365
bag21
(g22
(I0
tp366
g24
tp367
Rp368
(I1
(I3
tp369
g253
I00
S'\xb0\xcfg\xd5._\xe8?\xd6\x8d\xba\x87\x91D\x1a\xc0\xea!\xf73\x0cB\xf7\xbf'
p370
tp371
bag21
(g22
(I0
tp372
g24
tp373
Rp374
(I1
(I3
tp375
g253
I00
S"\x1aq\xa1\x96-\xd2\xec?\xa2\x8f\xd2'\xa1I\x18\xc0\x06\xea(\x89^*\xf2\xbf"
p376
tp377
bag21
(g22
(I0
tp378
g24
tp379
Rp380
(I1
(I3
tp381
g253
I00
S'tx\x8as\xa8b\xed?\x9ej\x15\xfa\xf0{\x15\xc0@\xed\x9a-\x9eD\xf2\xbf'
p382
tp383
bag21
(g22
(I0
tp384
g24
tp385
Rp386
(I1
(I3
tp387
g253
I00
S'\xb0E\xbb;Cb\xeb?\x9e\xde\xa7\xdd\xbdd\x12\xc0\xc6\xee\xbd\x16\x8c\xaa\xf3\xbf'
p388
tp389
bag21
(g22
(I0
tp390
g24
tp391
Rp392
(I1
(I3
tp393
g253
I00
S'`\xc8Aw-\x81\xeb?/\xc3\xe6O\x04\xca\x10\xc0\x8a\xb7K)\x91{\xe4\xbf'
p394
tp395
bag21
(g22
(I0
tp396
g24
tp397
Rp398
(I1
(I3
tp399
g253
I00
S'\xe1\xc6\xc7\xa7\x12X\xe7?\x98\x99\xb0\x9a\xfb\xdb\x0b\xc0R\t\x1b)\xeae\xe0\xbf'
p400
tp401
bag21
(g22
(I0
tp402
g24
tp403
Rp404
(I1
(I3
tp405
g253
I00
S'p\xf1\xbdc^\x84\xf1?"\x88LL\xf9D\x06\xc0~w\r\xe9m\x0f\x19@'
p406
tp407
bas(Vsquare_packing_box1
p408
g233
tp409
(lp410
g21
(g22
(I0
tp411
g24
tp412
Rp413
(I1
(I3
tp414
g242
I00
S'R9P\xaa\xac\xa3\x00@\xa0*\x83V\xa4h\x19\xc0w\\3\xcaU0\x02@'
p415
tp416
bag21
(g22
(I0
tp417
g24
tp418
Rp419
(I1
(I3
tp420
g253
I00
S'\xe0 ;\x819w\xfd?\xe7\xcc\xc2\xa0\xa5f\x17\xc04\xedq\x1c\x8eK\xfa?'
p421
tp422
bag21
(g22
(I0
tp423
g24
tp424
Rp425
(I1
(I3
tp426
g253
I00
S'\x85\\2\xba\x0b5\xf5?I\r\x06\xd10\xfb\x15\xc0\x9e\x11\xee\xd8\xb9\xd7\xf5?'
p427
tp428
bag21
(g22
(I0
tp429
g24
tp430
Rp431
(I1
(I3
tp432
g253
I00
S'v\xb8^\x85\xa7[\xea?x\xbe\xff2t\x8d\x13\xc0\x88\x85\x8cCyH\xf6?'
p433
tp434
bag21
(g22
(I0
tp435
g24
tp436
Rp437
(I1
(I3
tp438
g253
I00
S'\xc2\xda(e\x83\x1a\xeb?\x8au\x8d3\xa6E\x11\xc0\xb4c\x1b\xed_\xfd\xfa?'
p439
tp440
bag21
(g22
(I0
tp441
g24
tp442
Rp443
(I1
(I3
tp444
g253
I00
S'\xe4u**\x0e5\xe9?\xaa\xfd\r\xed\xc4\xf6\r\xc0\x0fDE0\x1f\x0b\xfe?'
p445
tp446
bag21
(g22
(I0
tp447
g24
tp448
Rp449
(I1
(I3
tp450
g253
I00
S'\x06\x11,\xef\x98O\xe7??\x10\x01s=b\t\xc04\x92\xb79o\x8c\x00@'
p451
tp452
bag21
(g22
(I0
tp453
g24
tp454
Rp455
(I1
(I3
tp456
g253
I00
S'\x92\xaf\xf3P\x96O\xc2?(\xa1:\x8er}\x05\xc0\xd4_\x91\xb3\xffL\x02@'
p457
tp458
bas(Vsquare_packing_box2
p459
g233
tp460
(lp461
g21
(g22
(I0
tp462
g24
tp463
Rp464
(I1
(I3
tp465
g242
I00
S'h\xfe\x91o\xa4\x96\xe1?\xf3\xbc\x82g\xd9\xe8\x19\xc0\xc3\xd4\xb0\xaf2\x01\xff?'
p466
tp467
bag21
(g22
(I0
tp468
g24
tp469
Rp470
(I1
(I3
tp471
g253
I00
S'\xae\xea\x9e\xa3\xa2\xb1\xed?\xa4\xca\x1d?h\x96\x19\xc0dq\xdf\xb1\x9d\xe4\x05@'
p472
tp473
bag21
(g22
(I0
tp474
g24
tp475
Rp476
(I1
(I3
tp477
g253
I00
S'o\xd6\x82\xea\x7f\xb2\xed?9\xf2C\x0b?\xfd\x16\xc0(?d\xe9@\xb5\x02@'
p478
tp479
bag21
(g22
(I0
tp480
g24
tp481
Rp482
(I1
(I3
tp483
g253
I00
S'&>c9\x01,\xeb?\xb2\xc2\xf0\x02\xce\x8e\x14\xc0\xd8p\xbb2\x14\xd2\x03@'
p484
tp485
bag21
(g22
(I0
tp486
g24
tp487
Rp488
(I1
(I3
tp489
g253
I00
S'\xc6\x05\xbdtg\xd9\xe2?F\xdf\x9d@\\\xf3\x11\xc0\x1a\xc4.\xbb\xcc\x12\x02@'
p490
tp491
bag21
(g22
(I0
tp492
g24
tp493
Rp494
(I1
(I3
tp495
g253
I00
S'3z\xed\x8eN)\xe4?\x0c\x96\xd4\xa2\x0e\xd0\r\xc0\xbd%\xf5{\xe9\xf9\x03@'
p496
tp497
bag21
(g22
(I0
tp498
g24
tp499
Rp500
(I1
(I3
tp501
g253
I00
S'\xaf0\xe9h\xba~\xee?k\xbb\xd8\xd4\xd0g\t\xc09\x9ey\xed\xb06\x06@'
p502
tp503
bag21
(g22
(I0
tp504
g24
tp505
Rp506
(I1
(I3
tp507
g253
I00
S'\xf4\xfdJ\x1a(#\xec?H"\x9cD\x1aE\x05\xc0.\xa9\x0b\x87\xf8\xe1\x02@'
p508
tp509
bas(Vrectangular_packing_box1
p510
g233
tp511
(lp512
g21
(g22
(I0
tp513
g24
tp514
Rp515
(I1
(I3
tp516
g242
I00
S'pgK\x00\xcf\x84\xf8?\xb1^\xf5\x8e\x99\x8d\x1e\xc0m8l\x07_\x10\xea?'
p517
tp518
bag21
(g22
(I0
tp519
g24
tp520
Rp521
(I1
(I3
tp522
g253
I00
S"4]r\xd3'>\xf0?\xfe\x80\xde\xa9\xc5\xab\x1c\xc0\xda:\xc6?\xd9\x17\xd0?"
p523
tp524
bag21
(g22
(I0
tp525
g24
tp526
Rp527
(I1
(I3
tp528
g253
I00
S'X\x9b\x8c[e\xe8\xdb?\xdc\xc11jk\x8b\x1b\xc0\xfe\x18\xeb6\xf7\x88\xc3?'
p529
tp530
bag21
(g22
(I0
tp531
g24
tp532
Rp533
(I1
(I3
tp534
g253
I00
S'T]\x0c\x0e\xd89\xda?\xf4\x992\x11%\\\x18\xc0\x95\x7f\x10B\xb1)\xe3?'
p535
tp536
bag21
(g22
(I0
tp537
g24
tp538
Rp539
(I1
(I3
tp540
g253
I00
S'\xe4\x02R\xd9\x08\x8c\xc7?2\xc1\xd4;\xf6\xf3\x15\xc0>\x8c\x8fa?0\xd8?'
p541
tp542
bag21
(g22
(I0
tp543
g24
tp544
Rp545
(I1
(I3
tp546
g253
I00
S'\xcc\x87!\x1f\xfb\x05\xe6?\x14;\x08\xf1<\xc6\x13\xc0V!\xac1j\x94\xc8?'
p547
tp548
bag21
(g22
(I0
tp549
g24
tp550
Rp551
(I1
(I3
tp552
g253
I00
S'`\xc8Aw-\x81\xeb?/\xc3\xe6O\x04\xca\x10\xc0\x8a\xb7K)\x91{\xe4\xbf'
p553
tp554
bag21
(g22
(I0
tp555
g24
tp556
Rp557
(I1
(I3
tp558
g253
I00
S'\xe1\xc6\xc7\xa7\x12X\xe7?\x98\x99\xb0\x9a\xfb\xdb\x0b\xc0R\t\x1b)\xeae\xe0\xbf'
p559
tp560
bag21
(g22
(I0
tp561
g24
tp562
Rp563
(I1
(I3
tp564
g253
I00
S'p\xf1\xbdc^\x84\xf1?"\x88LL\xf9D\x06\xc0~w\r\xe9m\x0f\x19@'
p565
tp566
bas(Vsquare_packing_box3
p567
g233
tp568
(lp569
g21
(g22
(I0
tp570
g24
tp571
Rp572
(I1
(I3
tp573
g242
I00
S"\xe0\xd0\xc0\x05\xff\xa7\xc9?F\x8d\xe4\x9b6\x9c\x18\xc0\xa6v\x05)'\x8a\x12@"
p574
tp575
bag21
(g22
(I0
tp576
g24
tp577
Rp578
(I1
(I3
tp579
g253
I00
S'\xac\xb4\xd5\x83\xbb\xf9\xe0?\xe1\x80\xe9+%\xe6\x16\xc0<\xd6N\xab\x06\xcc\xf7\xbf'
p580
tp581
bag21
(g22
(I0
tp582
g24
tp583
Rp584
(I1
(I3
tp585
g253
I00
S"\xb2&6mg)\xe8?\x99\xe0G'\x16\xe0\x13\xc0\xc8oL\xf5\x17p\xe6\xbf"
p586
tp587
bag21
(g22
(I0
tp588
g24
tp589
Rp590
(I1
(I3
tp591
g253
I00
S'`\xc8Aw-\x81\xeb?/\xc3\xe6O\x04\xca\x10\xc0\x8a\xb7K)\x91{\xe4\xbf'
p592
tp593
bag21
(g22
(I0
tp594
g24
tp595
Rp596
(I1
(I3
tp597
g253
I00
S'\xe1\xc6\xc7\xa7\x12X\xe7?\x98\x99\xb0\x9a\xfb\xdb\x0b\xc0R\t\x1b)\xeae\xe0\xbf'
p598
tp599
bag21
(g22
(I0
tp600
g24
tp601
Rp602
(I1
(I3
tp603
g253
I00
S'p\xf1\xbdc^\x84\xf1?"\x88LL\xf9D\x06\xc0~w\r\xe9m\x0f\x19@'
p604
tp605
bas(Vrectangular_packing_box2
p606
g233
tp607
(lp608
g21
(g22
(I0
tp609
g24
tp610
Rp611
(I1
(I3
tp612
g242
I00
S'\x80Iw\x96\xd7K\xb0\xbf\x06\xddz\x8b@\xca\x18\xc0\x8fk\xc0\xdd_\xb7\xd4?'
p613
tp614
bag21
(g22
(I0
tp615
g24
tp616
Rp617
(I1
(I3
tp618
g253
I00
S'\xe4\x02R\xd9\x08\x8c\xc7?2\xc1\xd4;\xf6\xf3\x15\xc0>\x8c\x8fa?0\xd8?'
p619
tp620
bag21
(g22
(I0
tp621
g24
tp622
Rp623
(I1
(I3
tp624
g253
I00
S'\xcc\x87!\x1f\xfb\x05\xe6?\x14;\x08\xf1<\xc6\x13\xc0V!\xac1j\x94\xc8?'
p625
tp626
bag21
(g22
(I0
tp627
g24
tp628
Rp629
(I1
(I3
tp630
g253
I00
S'`\xc8Aw-\x81\xeb?/\xc3\xe6O\x04\xca\x10\xc0\x8a\xb7K)\x91{\xe4\xbf'
p631
tp632
bag21
(g22
(I0
tp633
g24
tp634
Rp635
(I1
(I3
tp636
g253
I00
S'\xe1\xc6\xc7\xa7\x12X\xe7?\x98\x99\xb0\x9a\xfb\xdb\x0b\xc0R\t\x1b)\xeae\xe0\xbf'
p637
tp638
bag21
(g22
(I0
tp639
g24
tp640
Rp641
(I1
(I3
tp642
g253
I00
S'p\xf1\xbdc^\x84\xf1?"\x88LL\xf9D\x06\xc0~w\r\xe9m\x0f\x19@'
p643
tp644
bassS'mc_to_entity'
p645
(dp646
(g232
g233
tp647
(lp648
Vsquare_packing_box1
p649
aVsquare_packing_box2
p650
as(g306
g233
tp651
(lp652
Vrectangular_packing_box2
p653
aVsquare_packing_box3
p654
aVsquare_packing_box2
p655
as(g357
g233
tp656
(lp657
Vrectangular_packing_box2
p658
as(g408
g233
tp659
(lp660
Vrectangular_packing_box1
p661
aVrectangular_packing_box3
p662
as(g459
g233
tp663
(lp664
Vrectangular_packing_box2
p665
aVsquare_packing_box3
p666
as(g510
g233
tp667
(lp668
Vrectangular_packing_box2
p669
aVsquare_packing_box3
p670
aVsquare_packing_box2
p671
as(g567
g233
tp672
(lp673
Vsquare_packing_box2
p674
aVrectangular_packing_box2
p675
as(g606
g233
tp676
(lp677
Vsquare_packing_box2
p678
aVsquare_packing_box4
p679
aVsquare_packing_box1
p680
assS'reachable_entities'
p681
(lp682
Vrectangular_packing_box4
p683
aVrectangular_packing_box3
p684
ag12
asS'collides'
p685
(dp686
Vrectangular_packing_box4
p687
c__builtin__
set
p688
((lp689
I135
aI264
aI265
aI158
aI159
aI433
aI263
aI177
aI448
aI583
aI328
aI458
aI463
aI464
aI121
aI346
aI486
aI490
aI494
aI240
aI120
aI505
aI122
atp690
Rp691
sVrectangular_packing_box2
p692
g688
((lp693
I132
aI5
aI6
aI136
aI137
aI523
aI276
aI157
aI133
aI34
aI35
aI165
aI166
aI584
aI517
aI547
aI308
aI196
aI197
aI198
aI456
aI82
aI163
aI84
aI597
aI93
aI94
aI607
aI355
aI362
aI107
aI251
aI252
atp694
Rp695
sVrectangular_packing_box3
p696
g688
((lp697
I2
aI3
aI393
aI395
aI404
aI539
aI160
aI161
aI37
aI38
aI39
aI40
aI41
aI42
aI304
aI561
aI178
aI435
aI309
aI54
aI188
aI62
aI63
aI288
aI454
aI289
aI376
aI611
aI550
aI115
aI372
aI248
aI379
aI380
atp698
Rp699
sVrectangular_packing_box1
p700
g688
((lp701
I256
aI514
aI577
aI194
aI145
aI146
aI538
aI413
aI543
aI91
aI36
aI422
aI429
aI179
aI443
aI188
aI64
aI65
aI66
aI67
aI69
aI585
aI205
aI79
aI80
aI593
aI215
aI89
aI90
aI219
aI92
aI358
aI444
aI114
aI123
aI255
atp702
Rp703
sVsquare_packing_box2
p704
g688
((lp705
I517
aI6
aI7
aI138
aI139
aI275
aI152
aI153
aI417
aI547
aI424
aI196
aI198
aI459
aI349
aI350
aI351
aI362
aI491
aI503
aI249
aI383
atp706
Rp707
sVsquare_packing_box3
p708
g688
((lp709
I384
aI133
aI518
aI521
aI394
aI523
aI580
aI153
aI154
aI155
aI157
aI163
aI164
aI165
aI166
aI553
aI308
aI575
aI452
aI197
aI589
aI338
aI547
aI229
aI83
aI249
atp710
Rp711
sVsquare_packing_box1
p712
g688
((lp713
I3
aI449
aI395
aI404
aI160
aI161
aI162
aI42
aI43
aI301
aI309
aI55
aI56
aI187
aI416
aI327
aI201
aI202
aI203
aI595
aI484
aI106
aI497
aI115
aI372
aI379
aI380
aI554
atp714
Rp715
sVsquare_packing_box4
p716
g688
((lp717
I417
aI491
aI553
aI424
aI521
aI138
aI139
aI275
aI249
aI152
aI153
aI154
aI349
aI383
atp718
Rp719
ssg125
g126
sS'pick_used'
p720
(dp721
g683
(itrajectory_representation.operator
Operator
p722
(dp723
g8
I01
sg9
(dp724
S'object'
p725
Vrectangular_packing_box4
p726
ssg16
S'two_arm_pick'
p727
sg18
(dp728
S'q_goal'
p729
(lp730
g21
(g22
(I0
tp731
g24
tp732
Rp733
(I1
(I3
tp734
g242
I00
S'z\xc8Zi\x80n\xee?^eh1\xc0\xb8\x1c\xc0\x98+\x88\x8d\x19\x07\xf8\xbf'
p735
tp736
bag21
(g22
(I0
tp737
g24
tp738
Rp739
(I1
(I3
tp740
g242
I00
S'\x98Q\xdeCO\xe4\xec?\xefiq\xe6\xd6\xd4\x1c\xc0$\xc4\xfc\xf29\x0f\xf3\xbf'
p741
tp742
bag21
(g22
(I0
tp743
g24
tp744
Rp745
(I1
(I3
tp746
g242
I00
S'\x0f\x86\xcc\xd2\xb9\xf2\xdd?\x8c\x1b@S\xa1\x8c\x1d\xc08m\xe8Wq\xa4\xeb\xbf'
p747
tp748
basS'is_feasible'
p749
I00
ssg46
(lp750
g21
(g22
(I0
tp751
g24
tp752
Rp753
(I1
(I3
tp754
g242
I00
S'\xc0\xea\xb6\xb9\xb4\xbf\xf0?\xf6A\xbfn-\xbc\xff\xbf\xdb\x0c\xaf\xb5+\xe3\xed?'
p755
tp756
bag21
(g22
(I0
tp757
g24
tp758
Rp759
(I1
(I3
tp760
g253
I00
S'\x0e\n\xf3\x14\x91\x9e\xf3?\x1c\x0cAZ"\xfa\x05\xc0\xf8\x01c\x9bq\'\xfc?'
p761
tp762
bag21
(g22
(I0
tp763
g24
tp764
Rp765
(I1
(I3
tp766
g253
I00
S'\xd1\xaa\x15!\x8c\x06\xed?\x8c\xab\xab^w\xe3\t\xc0~&\xcc\xa2\xcbw\xf6?'
p767
tp768
bag21
(g22
(I0
tp769
g24
tp770
Rp771
(I1
(I3
tp772
g253
I00
S'y\xd4\xbc{`\x0b\xf2?\xb0C6m\xb7\xd6\x0e\xc0\xe8\xe2r\xbe\x16{\xf5?'
p773
tp774
bag21
(g22
(I0
tp775
g24
tp776
Rp777
(I1
(I3
tp778
g253
I00
S'\xf3In\x9c \xb1\xee?\x10D/\xcc\x0f}\x11\xc0\xda0\xdf\x1au:\xf0?'
p779
tp780
bag21
(g22
(I0
tp781
g24
tp782
Rp783
(I1
(I3
tp784
g253
I00
S'v\xb8^\x85\xa7[\xea?x\xbe\xff2t\x8d\x13\xc0\x88\x85\x8cCyH\xf6?'
p785
tp786
bag21
(g22
(I0
tp787
g24
tp788
Rp789
(I1
(I3
tp790
g253
I00
S'\x85\\2\xba\x0b5\xf5?I\r\x06\xd10\xfb\x15\xc0\x9e\x11\xee\xd8\xb9\xd7\xf5?'
p791
tp792
bag21
(g22
(I0
tp793
g24
tp794
Rp795
(I1
(I3
tp796
g253
I00
S'j\xc7\xc0&\x8ag\xf6?h\x9cH4\x7f\xab\x18\xc0\xd8|\x1d\xfc\xcbV\xf2?'
p797
tp798
bag21
(g22
(I0
tp799
g24
tp800
Rp801
(I1
(I3
tp802
g253
I00
S'zP\x91@+\x97\xf6?*&V!\xde-\x1a\xc0\xb2Z\x99\x08\xf1Y\x13@'
p803
tp804
bag733
asbsVrectangular_packing_box2
p805
(itrajectory_representation.operator
Operator
p806
(dp807
g8
I01
sg9
(dp808
g725
Vrectangular_packing_box2
p809
ssg16
g727
sg18
(dp810
g729
(lp811
g21
(g22
(I0
tp812
g24
tp813
Rp814
(I1
(I3
tp815
g242
I00
S'\x01Iw\x96\xd7K\xb0\xbf\x07\xddz\x8b@\xca\x18\xc0\x8ek\xc0\xdd_\xb7\xd4?'
p816
tp817
bag21
(g22
(I0
tp818
g24
tp819
Rp820
(I1
(I3
tp821
g242
I00
S'e\x13&\x03\xd7\x15\xe7?\x94\xbe\xbc\x00o\xf8\x15\xc0\\/\x0c\x94=\xbc\xf1\xbf'
p822
tp823
bag21
(g22
(I0
tp824
g24
tp825
Rp826
(I1
(I3
tp827
g242
I00
S" \x95\x88\r\xd0K\xe8?\x94m\x9b\x034:\x16\xc0I\xe8\x88'\x06\x93\x00\xc0"
p828
tp829
basg749
I00
ssg46
(lp830
g21
(g22
(I0
tp831
g24
tp832
Rp833
(I1
(I3
tp834
g242
I00
S'\xc0\xea\xb6\xb9\xb4\xbf\xf0?\xf6A\xbfn-\xbc\xff\xbf\xdb\x0c\xaf\xb5+\xe3\xed?'
p835
tp836
bag21
(g22
(I0
tp837
g24
tp838
Rp839
(I1
(I3
tp840
g253
I00
S'\x0e\n\xf3\x14\x91\x9e\xf3?\x1c\x0cAZ"\xfa\x05\xc0\xf8\x01c\x9bq\'\xfc?'
p841
tp842
bag21
(g22
(I0
tp843
g24
tp844
Rp845
(I1
(I3
tp846
g253
I00
S'\xd1\xaa\x15!\x8c\x06\xed?\x8c\xab\xab^w\xe3\t\xc0~&\xcc\xa2\xcbw\xf6?'
p847
tp848
bag21
(g22
(I0
tp849
g24
tp850
Rp851
(I1
(I3
tp852
g253
I00
S'y\xd4\xbc{`\x0b\xf2?\xb0C6m\xb7\xd6\x0e\xc0\xe8\xe2r\xbe\x16{\xf5?'
p853
tp854
bag21
(g22
(I0
tp855
g24
tp856
Rp857
(I1
(I3
tp858
g253
I00
S'\xf3In\x9c \xb1\xee?\x10D/\xcc\x0f}\x11\xc0\xda0\xdf\x1au:\xf0?'
p859
tp860
bag21
(g22
(I0
tp861
g24
tp862
Rp863
(I1
(I3
tp864
g253
I00
S'l[\xc4\x16<\xe6\xe9?\xa6\xa0\x90\x84X\x9f\x13\xc0\xc2\xd74Q\x00\xaf\xff\xbf'
p865
tp866
bag820
asbsg684
(itrajectory_representation.operator
Operator
p867
(dp868
g8
I01
sg9
(dp869
g725
Vrectangular_packing_box3
p870
ssg16
g727
sg18
(dp871
g729
(lp872
g21
(g22
(I0
tp873
g24
tp874
Rp875
(I1
(I3
tp876
g242
I00
S'{O\x9cnO\xa6\x07@\xb6\xad\x06\xf8\x9a\xd5\x18\xc0E\x94\x1d\xd7\xf0\x01\x03@'
p877
tp878
bag21
(g22
(I0
tp879
g24
tp880
Rp881
(I1
(I3
tp882
g242
I00
S'zN\xb7\xe5\xb6\x15\x00@\xb1\x8c7f\x9b\xec\x19\xc0\x8e\x1f\xef\x98A\xa7\xed?'
p883
tp884
bag21
(g22
(I0
tp885
g24
tp886
Rp887
(I1
(I3
tp888
g242
I00
S'\x82\x05"G\x14\xf5\x07@\x88\x85\xe98\xad\xf4\x18\xc0\x86+\x19\xf4\x9aX\x05@'
p889
tp890
basg749
I00
ssg46
(lp891
g21
(g22
(I0
tp892
g24
tp893
Rp894
(I1
(I3
tp895
g242
I00
S'\xc0\xea\xb6\xb9\xb4\xbf\xf0?\xf6A\xbfn-\xbc\xff\xbf\xdb\x0c\xaf\xb5+\xe3\xed?'
p896
tp897
bag21
(g22
(I0
tp898
g24
tp899
Rp900
(I1
(I3
tp901
g253
I00
S'\x0e\n\xf3\x14\x91\x9e\xf3?\x1c\x0cAZ"\xfa\x05\xc0\xf8\x01c\x9bq\'\xfc?'
p902
tp903
bag21
(g22
(I0
tp904
g24
tp905
Rp906
(I1
(I3
tp907
g253
I00
S'\xd1\xaa\x15!\x8c\x06\xed?\x8c\xab\xab^w\xe3\t\xc0~&\xcc\xa2\xcbw\xf6?'
p908
tp909
bag21
(g22
(I0
tp910
g24
tp911
Rp912
(I1
(I3
tp913
g253
I00
S'y\xd4\xbc{`\x0b\xf2?\xb0C6m\xb7\xd6\x0e\xc0\xe8\xe2r\xbe\x16{\xf5?'
p914
tp915
bag21
(g22
(I0
tp916
g24
tp917
Rp918
(I1
(I3
tp919
g253
I00
S'\xf3In\x9c \xb1\xee?\x10D/\xcc\x0f}\x11\xc0\xda0\xdf\x1au:\xf0?'
p920
tp921
bag21
(g22
(I0
tp922
g24
tp923
Rp924
(I1
(I3
tp925
g253
I00
S'v\xb8^\x85\xa7[\xea?x\xbe\xff2t\x8d\x13\xc0\x88\x85\x8cCyH\xf6?'
p926
tp927
bag21
(g22
(I0
tp928
g24
tp929
Rp930
(I1
(I3
tp931
g253
I00
S'\x85\\2\xba\x0b5\xf5?I\r\x06\xd10\xfb\x15\xc0\x9e\x11\xee\xd8\xb9\xd7\xf5?'
p932
tp933
bag21
(g22
(I0
tp934
g24
tp935
Rp936
(I1
(I3
tp937
g253
I00
S'j\xc7\xc0&\x8ag\xf6?h\x9cH4\x7f\xab\x18\xc0\xd8|\x1d\xfc\xcbV\xf2?'
p938
tp939
bag881
asbsg12
(itrajectory_representation.operator
Operator
p940
(dp941
g8
I01
sg9
(dp942
g11
g12
ssg16
S'two_arm_pick'
p943
sg18
(dp944
g20
g21
(g22
(I0
tp945
g24
tp946
Rp947
(I1
(I3
tp948
g31
I00
S'tgK\x00\xcf\x84\xf8?\xaf^\xf5\x8e\x99\x8d\x1e\xc0m8l\x07_\x10\xea?'
p949
tp950
bssg46
(lp951
g21
(g22
(I0
tp952
g24
tp953
Rp954
(I1
(I3
tp955
g242
I00
S'\xba\x94\xa0\x97\xd7x\x0c@i\riz\xd7\x8f\x1a\xc0\xb5\xb8\xb1\xf1;h\n@'
p956
tp957
bag21
(g22
(I0
tp958
g24
tp959
Rp960
(I1
(I3
tp961
g253
I00
S'\xfc\xa4s\xc9\x94\xef\t@\xb4\xe1\x9c\x11\xf4=\x1d\xc0\xc4(r\x81\xa1>\x06@'
p962
tp963
bag21
(g22
(I0
tp964
g24
tp965
Rp966
(I1
(I3
tp967
g253
I00
S'\xe4\x81\xa6\xb4\xaf\xa9\x06@W#\xf7\xbb\x82\xfc\x1e\xc05N\xc5G\xfd\x04\x02@'
p968
tp969
bag21
(g22
(I0
tp970
g24
tp971
Rp972
(I1
(I3
tp973
g253
I00
S'T\x93\x9d\x1f\xdb\x8b\x00@h\xc33f\x19N\x1f\xc0\n\x0b9\x98\xdd\xa0\xf7?'
p974
tp975
bag947
asbsVsquare_packing_box2
p976
(itrajectory_representation.operator
Operator
p977
(dp978
g8
I01
sg9
(dp979
g725
Vsquare_packing_box2
p980
ssg16
g727
sg18
(dp981
g729
(lp982
g21
(g22
(I0
tp983
g24
tp984
Rp985
(I1
(I3
tp986
g242
I00
S'o\xfe\x91o\xa4\x96\xe1?\xf4\xbc\x82g\xd9\xe8\x19\xc0\xc4\xd4\xb0\xaf2\x01\xff?'
p987
tp988
bag21
(g22
(I0
tp989
g24
tp990
Rp991
(I1
(I3
tp992
g242
I00
S"'\xa1\xde(\x13k\xde?\x8feA\xe9K\xdf\x19\xc0\xea\xf0\x96\xda\xf6\x93\x03@"
p993
tp994
bag21
(g22
(I0
tp995
g24
tp996
Rp997
(I1
(I3
tp998
g242
I00
S'+?\x15e\xe4\xdc\xe8?\xe2 \xc6\x90\xb3D\x16\xc0\xf5\x10\x81}\t\xee\x04\xc0'
p999
tp1000
basg749
I00
ssg46
(lp1001
g21
(g22
(I0
tp1002
g24
tp1003
Rp1004
(I1
(I3
tp1005
g242
I00
S'\xc0\xea\xb6\xb9\xb4\xbf\xf0?\xf6A\xbfn-\xbc\xff\xbf\xdb\x0c\xaf\xb5+\xe3\xed?'
p1006
tp1007
bag21
(g22
(I0
tp1008
g24
tp1009
Rp1010
(I1
(I3
tp1011
g253
I00
S'\x0e\n\xf3\x14\x91\x9e\xf3?\x1c\x0cAZ"\xfa\x05\xc0\xf8\x01c\x9bq\'\xfc?'
p1012
tp1013
bag21
(g22
(I0
tp1014
g24
tp1015
Rp1016
(I1
(I3
tp1017
g253
I00
S'\xd1\xaa\x15!\x8c\x06\xed?\x8c\xab\xab^w\xe3\t\xc0~&\xcc\xa2\xcbw\xf6?'
p1018
tp1019
bag21
(g22
(I0
tp1020
g24
tp1021
Rp1022
(I1
(I3
tp1023
g253
I00
S'y\xd4\xbc{`\x0b\xf2?\xb0C6m\xb7\xd6\x0e\xc0\xe8\xe2r\xbe\x16{\xf5?'
p1024
tp1025
bag21
(g22
(I0
tp1026
g24
tp1027
Rp1028
(I1
(I3
tp1029
g253
I00
S'\xf3In\x9c \xb1\xee?\x10D/\xcc\x0f}\x11\xc0\xda0\xdf\x1au:\xf0?'
p1030
tp1031
bag21
(g22
(I0
tp1032
g24
tp1033
Rp1034
(I1
(I3
tp1035
g253
I00
S'l[\xc4\x16<\xe6\xe9?\xa6\xa0\x90\x84X\x9f\x13\xc0\xc2\xd74Q\x00\xaf\xff\xbf'
p1036
tp1037
bag997
asbsVsquare_packing_box3
p1038
(itrajectory_representation.operator
Operator
p1039
(dp1040
g8
I01
sg9
(dp1041
g725
Vsquare_packing_box3
p1042
ssg16
g727
sg18
(dp1043
g729
(lp1044
g21
(g22
(I0
tp1045
g24
tp1046
Rp1047
(I1
(I3
tp1048
g242
I00
S'\xf4\xd0\xc0\x05\xff\xa7\xc9?F\x8d\xe4\x9b6\x9c\x18\xc0\xc8\xd9\xfa\xacP_\xfa\xbf'
p1049
tp1050
bag21
(g22
(I0
tp1051
g24
tp1052
Rp1053
(I1
(I3
tp1054
g242
I00
S'"\x7f\xb6\xf0d\x8d\xe3?\x17-/;\xb5\x0e\x19\xc0-g>An\xac\x04\xc0'
p1055
tp1056
bag21
(g22
(I0
tp1057
g24
tp1058
Rp1059
(I1
(I3
tp1060
g242
I00
S'\xc8\xecp\x89\x10\xfd\xbc?8\xae\xd9\xdb\xd2\x96\x18\xc0\xb7\x7fe\x8f\x11\x1e\xfd\xbf'
p1061
tp1062
basg749
I00
ssg46
(lp1063
g21
(g22
(I0
tp1064
g24
tp1065
Rp1066
(I1
(I3
tp1067
g242
I00
S'\xc0\xea\xb6\xb9\xb4\xbf\xf0?\xf6A\xbfn-\xbc\xff\xbf\xdb\x0c\xaf\xb5+\xe3\xed?'
p1068
tp1069
bag21
(g22
(I0
tp1070
g24
tp1071
Rp1072
(I1
(I3
tp1073
g253
I00
S'\x0e\n\xf3\x14\x91\x9e\xf3?\x1c\x0cAZ"\xfa\x05\xc0\xf8\x01c\x9bq\'\xfc?'
p1074
tp1075
bag21
(g22
(I0
tp1076
g24
tp1077
Rp1078
(I1
(I3
tp1079
g253
I00
S'\xd1\xaa\x15!\x8c\x06\xed?\x8c\xab\xab^w\xe3\t\xc0~&\xcc\xa2\xcbw\xf6?'
p1080
tp1081
bag21
(g22
(I0
tp1082
g24
tp1083
Rp1084
(I1
(I3
tp1085
g253
I00
S'y\xd4\xbc{`\x0b\xf2?\xb0C6m\xb7\xd6\x0e\xc0\xe8\xe2r\xbe\x16{\xf5?'
p1086
tp1087
bag21
(g22
(I0
tp1088
g24
tp1089
Rp1090
(I1
(I3
tp1091
g253
I00
S'\xf3In\x9c \xb1\xee?\x10D/\xcc\x0f}\x11\xc0\xda0\xdf\x1au:\xf0?'
p1092
tp1093
bag21
(g22
(I0
tp1094
g24
tp1095
Rp1096
(I1
(I3
tp1097
g253
I00
S'\xa9\xd9\x1d\x8d\xa6j\xdf?\xa0\x85\x1a\x84\xc6\xec\x12\xc0\x01\xb6 H\xb1\x91\xeb?'
p1098
tp1099
bag21
(g22
(I0
tp1100
g24
tp1101
Rp1102
(I1
(I3
tp1103
g253
I00
S'\xbc\xcaD\xb3\xa5\xd0\xda?5\x9e\xd8L\xbc\xff\x15\xc0\x86v/\xef\x06;\xe9\xbf'
p1104
tp1105
bag1047
asbsg80
(itrajectory_representation.operator
Operator
p1106
(dp1107
g8
I01
sg9
(dp1108
g11
g80
ssg16
g943
sg18
(dp1109
g20
g21
(g22
(I0
tp1110
g24
tp1111
Rp1112
(I1
(I3
tp1113
g31
I00
S'V9P\xaa\xac\xa3\x00@\xa2*\x83V\xa4h\x19\xc0w\\3\xcaU0\x02@'
p1114
tp1115
bssg46
(lp1116
g21
(g22
(I0
tp1117
g24
tp1118
Rp1119
(I1
(I3
tp1120
g242
I00
S'\xba\x94\xa0\x97\xd7x\x0c@i\riz\xd7\x8f\x1a\xc0\xb5\xb8\xb1\xf1;h\n@'
p1121
tp1122
bag21
(g22
(I0
tp1123
g24
tp1124
Rp1125
(I1
(I3
tp1126
g253
I00
S'py\xe7\x92\x10\x1c\x08@_z\xb4M\xdc\xbc\x1b\xc0\xe2\x81s\x12\x81\x12\x08\xc0'
p1127
tp1128
bag21
(g22
(I0
tp1129
g24
tp1130
Rp1131
(I1
(I3
tp1132
g253
I00
S"'DJ\xaet\xe5\x02@&#\x93\x97\x82\xb8\x1b\xc0\xdbM\xcc\xf6#.\x08@"
p1133
tp1134
bag1112
asbsVsquare_packing_box4
p1135
(itrajectory_representation.operator
Operator
p1136
(dp1137
g8
I01
sg9
(dp1138
g725
Vsquare_packing_box4
p1139
ssg16
g727
sg18
(dp1140
g729
(lp1141
g21
(g22
(I0
tp1142
g24
tp1143
Rp1144
(I1
(I3
tp1145
g242
I00
S'\xce\x13\x84z\xa1\x07\xd0?\xa2\x17>=\x976\x1a\xc0\xdd\xfb\xff,\re\x03@'
p1146
tp1147
bag21
(g22
(I0
tp1148
g24
tp1149
Rp1150
(I1
(I3
tp1151
g242
I00
S'`:e\x94"\xbf\xa3?p\x9d\x97\r\xeb2\x16\xc0\x02\xa8\x13\x16\xb9$\x01\xc0'
p1152
tp1153
bag21
(g22
(I0
tp1154
g24
tp1155
Rp1156
(I1
(I3
tp1157
g242
I00
S'\x07\x96\xf2\xfbn\xd7\xd2?>M\xad\xd8#C\x19\xc0*6\xe5\x8a\xe3\xca\x05@'
p1158
tp1159
basg749
I00
ssg46
(lp1160
g21
(g22
(I0
tp1161
g24
tp1162
Rp1163
(I1
(I3
tp1164
g242
I00
S'\xc0\xea\xb6\xb9\xb4\xbf\xf0?\xf6A\xbfn-\xbc\xff\xbf\xdb\x0c\xaf\xb5+\xe3\xed?'
p1165
tp1166
bag21
(g22
(I0
tp1167
g24
tp1168
Rp1169
(I1
(I3
tp1170
g253
I00
S'\x0e\n\xf3\x14\x91\x9e\xf3?\x1c\x0cAZ"\xfa\x05\xc0\xf8\x01c\x9bq\'\xfc?'
p1171
tp1172
bag21
(g22
(I0
tp1173
g24
tp1174
Rp1175
(I1
(I3
tp1176
g253
I00
S'\xd1\xaa\x15!\x8c\x06\xed?\x8c\xab\xab^w\xe3\t\xc0~&\xcc\xa2\xcbw\xf6?'
p1177
tp1178
bag21
(g22
(I0
tp1179
g24
tp1180
Rp1181
(I1
(I3
tp1182
g253
I00
S'\xe4u**\x0e5\xe9?\xaa\xfd\r\xed\xc4\xf6\r\xc0\x0fDE0\x1f\x0b\xfe?'
p1183
tp1184
bag21
(g22
(I0
tp1185
g24
tp1186
Rp1187
(I1
(I3
tp1188
g253
I00
S'\xc6\x05\xbdtg\xd9\xe2?F\xdf\x9d@\\\xf3\x11\xc0\x1a\xc4.\xbb\xcc\x12\x02@'
p1189
tp1190
bag21
(g22
(I0
tp1191
g24
tp1192
Rp1193
(I1
(I3
tp1194
g253
I00
S'\x90\xfeW\xea\xb8\x0e\xe6?\x9aG\xe1\xa1\xf0\x14\x15\xc0\x94\xb4\xe8\xd7\x90\xa7\x18@'
p1195
tp1196
bag1150
asbssS'mc_paths'
p1197
(dp1198
sS'robot'
p1199
NsS'reachable_obj_region_pairs'
p1200
(lp1201
sS'sampled_pick_configs_for_objects'
p1202
(dp1203
sS'mc_calls'
p1204
I0
sS'pick_poses'
p1205
g721
sS'problem_env'
p1206
NsS'evaluations'
p1207
(dp1208
(g510
g606
g233
tp1209
I01
s(g459
g606
g233
tp1210
I01
s(g606
g567
g233
tp1211
I00
s(g357
g459
g233
tp1212
I00
s(g567
g408
g233
tp1213
I00
s(g306
g459
g233
tp1214
I01
s(g408
g232
g233
tp1215
I01
s(g567
g606
g233
tp1216
I01
s(g357
g306
g233
tp1217
I00
s(g459
g408
g233
tp1218
I00
s(g510
g408
g233
tp1219
I00
s(g510
g357
g233
tp1220
I00
s(g459
g232
g233
tp1221
I00
s(g357
g567
g233
tp1222
I00
s(g567
g232
g233
tp1223
I00
s(g306
g567
g233
tp1224
I01
s(g408
g606
g233
tp1225
I00
s(g567
g306
g233
tp1226
I00
s(g606
g510
g233
tp1227
I00
s(g232
g408
g233
tp1228
I01
s(g306
g510
g233
tp1229
I00
s(g567
g357
g233
tp1230
I00
s(g606
g408
g233
tp1231
I01
s(g232
g357
g233
tp1232
I00
s(g606
g306
g233
tp1233
I01
s(g357
g510
g233
tp1234
I00
s(g408
g510
g233
tp1235
I01
s(g232
g567
g233
tp1236
I00
s(g232
g510
g233
tp1237
I00
s(g567
g510
g233
tp1238
I00
s(g306
g606
g233
tp1239
I01
s(g357
g606
g233
tp1240
I01
s(g510
g306
g233
tp1241
I00
s(g459
g510
g233
tp1242
I00
s(g306
g357
g233
tp1243
I00
s(g232
g306
g233
tp1244
I00
s(g459
g357
g233
tp1245
I00
s(g567
g459
g233
tp1246
I01
s(g408
g459
g233
tp1247
I00
s(g459
g306
g233
tp1248
I00
s(g306
g232
g233
tp1249
I00
s(g408
g567
g233
tp1250
I00
s(g459
g567
g233
tp1251
I01
s(g357
g232
g233
tp1252
I00
s(g510
g567
g233
tp1253
I01
s(g510
g232
g233
tp1254
I00
s(g232
g606
g233
tp1255
I00
s(g606
g459
g233
tp1256
I01
s(g357
g408
g233
tp1257
I00
s(g408
g306
g233
tp1258
I00
s(g306
g408
g233
tp1259
I00
s(g408
g357
g233
tp1260
I00
s(g606
g357
g233
tp1261
I00
s(g232
g459
g233
tp1262
I01
s(g606
g232
g233
tp1263
I00
s(g510
g459
g233
tp1264
I01
ssS'paths_to_reachable_entities'
p1265
NsS'use_shortest_path'
p1266
I01
sbsS'ternary_edges'
p1267
(dp1268
(g606
g606
g233
tp1269
(lp1270
I00
as(g408
S'loading_region'
p1271
g1271
tp1272
(lp1273
I00
as(S'entire_region'
p1274
g510
g233
tp1275
(lp1276
I00
as(g459
g306
g1271
tp1277
(lp1278
I00
as(g233
g233
g233
tp1279
(lp1280
I00
as(g306
g606
g1271
tp1281
(lp1282
I00
as(g408
g232
g233
tp1283
(lp1284
I01
as(g233
g357
g233
tp1285
(lp1286
I00
as(g459
g408
g233
tp1287
(lp1288
I00
as(g232
g357
g1271
tp1289
(lp1290
I00
as(g233
g306
g1271
tp1291
(lp1292
I00
as(g459
g1274
g233
tp1293
(lp1294
I00
as(g1271
g233
g1271
tp1295
(lp1296
I00
as(g357
g567
g233
tp1297
(lp1298
I00
as(g306
g1274
g233
tp1299
(lp1300
I00
as(g459
g510
g1271
tp1301
(lp1302
I00
as(g567
g1271
g233
tp1303
(lp1304
I00
as(g1274
g606
g1271
tp1305
(lp1306
I00
as(g233
g1274
g233
tp1307
(lp1308
I00
as(g606
g1271
g233
tp1309
(lp1310
I00
as(g567
g1274
g233
tp1311
(lp1312
I00
as(g408
g408
g1271
tp1313
(lp1314
I00
as(g1271
g306
g1271
tp1315
(lp1316
I00
as(g1274
g1271
g233
tp1317
(lp1318
I00
as(g1274
g459
g233
tp1319
(lp1320
I00
as(g1271
g1271
g233
tp1321
(lp1322
I00
as(g567
g357
g1271
tp1323
(lp1324
I00
as(g233
g233
g1271
tp1325
(lp1326
I00
as(g510
g459
g1271
tp1327
(lp1328
I00
as(g606
g306
g233
tp1329
(lp1330
I01
as(g567
g408
g233
tp1331
(lp1332
I00
as(g510
g233
g1271
tp1333
(lp1334
I00
as(g233
g606
g1271
tp1335
(lp1336
I00
as(g510
g232
g1271
tp1337
(lp1338
I00
as(g232
g510
g233
tp1339
(lp1340
I00
as(g1271
g408
g1271
tp1341
(lp1342
I00
as(g306
g459
g1271
tp1343
(lp1344
I00
as(g606
g606
g1271
tp1345
(lp1346
I00
as(g1274
g306
g233
tp1347
(lp1348
I00
as(g1271
g233
g233
tp1349
(lp1350
I00
as(g357
g606
g233
tp1351
(lp1352
I01
as(g233
g232
g233
tp1353
(lp1354
I00
as(g459
g510
g233
tp1355
(lp1356
I00
as(g232
g306
g233
tp1357
(lp1358
I00
as(g408
g232
g1271
tp1359
(lp1360
I00
as(g567
g459
g233
tp1361
(lp1362
I01
as(g459
g408
g1271
tp1363
(lp1364
I00
as(g459
g606
g1271
tp1365
(lp1366
I00
as(g1274
g459
g1271
tp1367
(lp1368
I00
as(g1271
g232
g1271
tp1369
(lp1370
I00
as(g1274
g233
g233
tp1371
(lp1372
I00
as(g357
g233
g233
tp1373
(lp1374
I00
as(g1271
g1274
g233
tp1375
(lp1376
I00
as(g606
g306
g1271
tp1377
(lp1378
I00
as(g567
g606
g1271
tp1379
(lp1380
I00
as(g567
g567
g233
tp1381
(lp1382
I00
as(g510
g232
g233
tp1383
(lp1384
I00
as(g1274
g606
g233
tp1385
(lp1386
I00
as(g510
g1271
g1271
tp1387
(lp1388
I00
as(g306
g408
g233
tp1389
(lp1390
I00
as(g408
g408
g233
tp1391
(lp1392
I00
as(g408
g357
g233
tp1393
(lp1394
I00
as(g357
g606
g1271
tp1395
(lp1396
I00
as(g306
g510
g1271
tp1397
(lp1398
I00
as(g567
g357
g233
tp1399
(lp1400
I00
as(g510
g459
g233
tp1401
(lp1402
I01
as(g606
g510
g1271
tp1403
(lp1404
I00
as(g510
g233
g233
tp1405
(lp1406
I00
as(g459
g606
g233
tp1407
(lp1408
I01
as(g606
g567
g233
tp1409
(lp1410
I00
as(g232
g510
g1271
tp1411
(lp1412
I00
as(g233
g459
g1271
tp1413
(lp1414
I00
as(g1274
g233
g1271
tp1415
(lp1416
I00
as(g1274
g306
g1271
tp1417
(lp1418
I00
as(g567
g606
g233
tp1419
(lp1420
I01
as(g232
g567
g1271
tp1421
(lp1422
I00
as(g606
g1274
g1271
tp1423
(lp1424
I00
as(g510
g1271
g233
tp1425
(lp1426
I00
as(g567
g459
g1271
tp1427
(lp1428
I00
as(g567
g510
g1271
tp1429
(lp1430
I00
as(g306
g408
g1271
tp1431
(lp1432
I00
as(g233
g232
g1271
tp1433
(lp1434
I00
as(g1274
g567
g1271
tp1435
(lp1436
I00
as(g1271
g232
g233
tp1437
(lp1438
I00
as(g1271
g459
g1271
tp1439
(lp1440
I00
as(g606
g510
g233
tp1441
(lp1442
I00
as(g306
g510
g233
tp1443
(lp1444
I00
as(g1271
g567
g233
tp1445
(lp1446
I00
as(g606
g567
g1271
tp1447
(lp1448
I00
as(g606
g357
g1271
tp1449
(lp1450
I00
as(g232
g306
g1271
tp1451
(lp1452
I00
as(g408
g357
g1271
tp1453
(lp1454
I00
as(g510
g567
g1271
tp1455
(lp1456
I00
as(g233
g408
g1271
tp1457
(lp1458
I00
as(g232
g1271
g1271
tp1459
(lp1460
I00
as(g357
g233
g1271
tp1461
(lp1462
I00
as(g408
g510
g233
tp1463
(lp1464
I01
as(g606
g1274
g233
tp1465
(lp1466
I00
as(g357
g459
g1271
tp1467
(lp1468
I00
as(g232
g606
g1271
tp1469
(lp1470
I00
as(g567
g510
g233
tp1471
(lp1472
I00
as(g306
g1271
g1271
tp1473
(lp1474
I00
as(g459
g233
g233
tp1475
(lp1476
I00
as(g306
g357
g233
tp1477
(lp1478
I00
as(g233
g567
g1271
tp1479
(lp1480
I00
as(g1271
g510
g1271
tp1481
(lp1482
I00
as(g1271
g567
g1271
tp1483
(lp1484
I00
as(g408
g567
g233
tp1485
(lp1486
I00
as(g510
g567
g233
tp1487
(lp1488
I01
as(g408
g510
g1271
tp1489
(lp1490
I00
as(g232
g606
g233
tp1491
(lp1492
I00
as(g606
g459
g233
tp1493
(lp1494
I01
as(g232
g233
g1271
tp1495
(lp1496
I00
as(g306
g1271
g233
tp1497
(lp1498
I00
as(g1271
g357
g1271
tp1499
(lp1500
I00
as(g606
g357
g233
tp1501
(lp1502
I00
as(g232
g232
g233
tp1503
(lp1504
I00
as(g357
g357
g233
tp1505
(lp1506
I00
as(g357
g232
g1271
tp1507
(lp1508
I00
as(g232
g1271
g233
tp1509
(lp1510
I00
as(g567
g306
g233
tp1511
(lp1512
I00
as(g357
g459
g233
tp1513
(lp1514
I00
as(g459
g1271
g1271
tp1515
(lp1516
I00
as(g232
g1274
g1271
tp1517
(lp1518
I00
as(g459
g233
g1271
tp1519
(lp1520
I00
as(g408
g459
g1271
tp1521
(lp1522
I00
as(g306
g357
g1271
tp1523
(lp1524
I00
as(g567
g233
g1271
tp1525
(lp1526
I00
as(g232
g233
g233
tp1527
(lp1528
I00
as(g1271
g357
g233
tp1529
(lp1530
I00
as(g510
g510
g233
tp1531
(lp1532
I00
as(g1271
g306
g233
tp1533
(lp1534
I00
as(g306
g567
g233
tp1535
(lp1536
I01
as(g408
g606
g233
tp1537
(lp1538
I00
as(g408
g567
g1271
tp1539
(lp1540
I00
as(g357
g408
g1271
tp1541
(lp1542
I00
as(g233
g459
g233
tp1543
(lp1544
I00
as(g1274
g232
g1271
tp1545
(lp1546
I00
as(g232
g408
g233
tp1547
(lp1548
I01
as(g510
g1274
g233
tp1549
(lp1550
I00
as(g567
g306
g1271
tp1551
(lp1552
I00
as(g567
g232
g1271
tp1553
(lp1554
I00
as(g357
g510
g233
tp1555
(lp1556
I00
as(g606
g459
g1271
tp1557
(lp1558
I00
as(g357
g1271
g233
tp1559
(lp1560
I00
as(g232
g1274
g233
tp1561
(lp1562
I00
as(g306
g232
g1271
tp1563
(lp1564
I00
as(g606
g408
g233
tp1565
(lp1566
I01
as(g567
g408
g1271
tp1567
(lp1568
I00
as(g306
g306
g1271
tp1569
(lp1570
I00
as(g357
g357
g1271
tp1571
(lp1572
I00
as(g510
g510
g1271
tp1573
(lp1574
I00
as(g408
g306
g1271
tp1575
(lp1576
I00
as(g306
g459
g233
tp1577
(lp1578
I01
as(g1274
g408
g233
tp1579
(lp1580
I00
as(g233
g1274
g1271
tp1581
(lp1582
I00
as(g233
g510
g1271
tp1583
(lp1584
I00
as(g459
g1271
g233
tp1585
(lp1586
I00
as(g408
g606
g1271
tp1587
(lp1588
I00
as(g510
g408
g1271
tp1589
(lp1590
I00
as(g232
g232
g1271
tp1591
(lp1592
I00
as(g1274
g232
g233
tp1593
(lp1594
I00
as(g459
g232
g1271
tp1595
(lp1596
I00
as(g510
g1274
g1271
tp1597
(lp1598
I00
as(g408
g459
g233
tp1599
(lp1600
I00
as(g357
g510
g1271
tp1601
(lp1602
I00
as(g357
g232
g233
tp1603
(lp1604
I00
as(g306
g232
g233
tp1605
(lp1606
I00
as(g408
g233
g1271
tp1607
(lp1608
I00
as(g459
g567
g233
tp1609
(lp1610
I01
as(g567
g567
g1271
tp1611
(lp1612
I00
as(g357
g1274
g233
tp1613
(lp1614
I00
as(g1271
g1274
g1271
tp1615
(lp1616
I00
as(g306
g567
g1271
tp1617
(lp1618
I00
as(g1271
g510
g233
tp1619
(lp1620
I00
as(g1274
g1274
g1271
tp1621
(lp1622
I00
as(g357
g408
g233
tp1623
(lp1624
I00
as(g408
g306
g233
tp1625
(lp1626
I00
as(g1271
g606
g1271
tp1627
(lp1628
I00
as(g232
g408
g1271
tp1629
(lp1630
I00
as(g567
g233
g233
tp1631
(lp1632
I00
as(g1274
g408
g1271
tp1633
(lp1634
I00
as(g567
g232
g233
tp1635
(lp1636
I00
as(g232
g459
g233
tp1637
(lp1638
I01
as(g357
g1271
g1271
tp1639
(lp1640
I00
as(g606
g408
g1271
tp1641
(lp1642
I00
as(g510
g606
g233
tp1643
(lp1644
I01
as(g1274
g1271
g1271
tp1645
(lp1646
I00
as(g1271
g606
g233
tp1647
(lp1648
I00
as(g408
g1274
g233
tp1649
(lp1650
I00
as(g459
g567
g1271
tp1651
(lp1652
I00
as(g459
g357
g1271
tp1653
(lp1654
I00
as(g306
g233
g233
tp1655
(lp1656
I00
as(g357
g1274
g1271
tp1657
(lp1658
I00
as(g357
g306
g233
tp1659
(lp1660
I00
as(g1274
g357
g1271
tp1661
(lp1662
I00
as(g233
g510
g233
tp1663
(lp1664
I00
as(g233
g567
g233
tp1665
(lp1666
I00
as(g510
g408
g233
tp1667
(lp1668
I00
as(g510
g357
g233
tp1669
(lp1670
I00
as(g1274
g567
g233
tp1671
(lp1672
I00
as(g459
g232
g233
tp1673
(lp1674
I00
as(g459
g459
g1271
tp1675
(lp1676
I00
as(g510
g306
g1271
tp1677
(lp1678
I00
as(g306
g233
g1271
tp1679
(lp1680
I00
as(g606
g233
g233
tp1681
(lp1682
I00
as(g408
g233
g233
tp1683
(lp1684
I00
as(g510
g606
g1271
tp1685
(lp1686
I00
as(g306
g606
g233
tp1687
(lp1688
I01
as(g233
g1271
g233
tp1689
(lp1690
I00
as(g1274
g1274
g233
tp1691
(lp1692
I00
as(g606
g232
g1271
tp1693
(lp1694
I00
as(g408
g1274
g1271
tp1695
(lp1696
I00
as(g1271
g459
g233
tp1697
(lp1698
I00
as(g232
g357
g233
tp1699
(lp1700
I00
as(g1274
g357
g233
tp1701
(lp1702
I00
as(g408
g1271
g233
tp1703
(lp1704
I00
as(g232
g459
g1271
tp1705
(lp1706
I00
as(g233
g408
g233
tp1707
(lp1708
I00
as(g1274
g510
g1271
tp1709
(lp1710
I00
as(g306
g1274
g1271
tp1711
(lp1712
I00
as(g459
g459
g233
tp1713
(lp1714
I00
as(g510
g306
g233
tp1715
(lp1716
I00
as(g567
g1274
g1271
tp1717
(lp1718
I00
as(g459
g357
g233
tp1719
(lp1720
I00
as(g233
g306
g233
tp1721
(lp1722
I00
as(g232
g567
g233
tp1723
(lp1724
I00
as(g357
g306
g1271
tp1725
(lp1726
I00
as(g306
g306
g233
tp1727
(lp1728
I00
as(g510
g357
g1271
tp1729
(lp1730
I00
as(g459
g306
g233
tp1731
(lp1732
I00
as(g567
g1271
g1271
tp1733
(lp1734
I00
as(g233
g606
g233
tp1735
(lp1736
I00
as(g606
g1271
g1271
tp1737
(lp1738
I00
as(g233
g357
g1271
tp1739
(lp1740
I00
as(g606
g233
g1271
tp1741
(lp1742
I00
as(g1271
g1271
g1271
tp1743
(lp1744
I00
as(g459
g1274
g1271
tp1745
(lp1746
I00
as(g357
g567
g1271
tp1747
(lp1748
I00
as(g233
g1271
g1271
tp1749
(lp1750
I00
as(g606
g232
g233
tp1751
(lp1752
I00
as(g1271
g408
g233
tp1753
(lp1754
I00
assg720
g721
sS'use_prm'
p1755
I01
sS'object_names'
p1756
(lp1757
S'square_packing_box1'
p1758
aS'rectangular_packing_box1'
p1759
aS'square_packing_box2'
p1760
aS'rectangular_packing_box2'
p1761
aS'square_packing_box3'
p1762
aS'rectangular_packing_box3'
p1763
aS'square_packing_box4'
p1764
aS'rectangular_packing_box4'
p1765
asg1206
NsS'current_holding_collides'
p1766
NsS'object_poses'
p1767
(dp1768
Vrectangular_packing_box4
p1769
g21
(g22
(I0
tp1770
g24
tp1771
Rp1772
(I1
(I1
I3
tp1773
g242
I00
S'\xb47\xe0\x17y7\xf0?>\xaa+\x7fO\xce\x1f\xc0\xf7\xf6\x1f\xc7\xc0\xab\x00@'
p1774
tp1775
bsVrectangular_packing_box2
p1776
g21
(g22
(I0
tp1777
g24
tp1778
Rp1779
(I1
(I1
I3
tp1780
g242
I00
S'Pc\xb0\x05\x87\x92\xe8?q\xef\x1b\xc2*Z\x19\xc0\x90hQ"\xb4\xad\xf8?'
p1781
tp1782
bsVrectangular_packing_box3
p1783
g21
(g22
(I0
tp1784
g24
tp1785
Rp1786
(I1
(I1
I3
tp1787
g242
I00
S'q\x99\xb4\x13\xe2\x92\x03@\x1c\xc1\xe2\xec\xae\xf9\x16\xc0z\x90b\xcd\xd3\x94\xf0?'
p1788
tp1789
bsVrectangular_packing_box1
p1790
g21
(g22
(I0
tp1791
g24
tp1792
Rp1793
(I1
(I1
I3
tp1794
g242
I00
S'<\xe7\x89\xa9z\xb9\x00@\x02\xb7xf}L\x1c\xc0C\xadE\xd0\xb9\x18\xee?'
p1795
tp1796
bsVsquare_packing_box2
p1797
g21
(g22
(I0
tp1798
g24
tp1799
Rp1800
(I1
(I1
I3
tp1801
g242
I00
S'\xa0\xa1;pY\xed\xb4?\x0e1\xf5>8W\x17\xc0\x90\xad\xe1\xa1\x909\x0e@'
p1802
tp1803
bsVsquare_packing_box3
p1804
g21
(g22
(I0
tp1805
g24
tp1806
Rp1807
(I1
(I1
I3
tp1808
g242
I00
S'\xa9\xc8\x94.3\xf0\xb9?\re\x0e\xd58\\\x1b\xc0\xbd\xd0S\x17\xd8\xf0\xf1?'
p1809
tp1810
bsVsquare_packing_box1
p1811
g21
(g22
(I0
tp1812
g24
tp1813
Rp1814
(I1
(I1
I3
tp1815
g242
I00
S'\x9aLoD\xf6\x8d\xfc?\xb9\x80*%]\xb5\x16\xc0KOq\xaa]\xb2\xcd?'
p1816
tp1817
bsVsquare_packing_box4
p1818
g21
(g22
(I0
tp1819
g24
tp1820
Rp1821
(I1
(I1
I3
tp1822
g242
I00
S'L\xb2\x87\r\x0cw\xda\xbf\xa8\xbd\xabg_\x1a\x18\xc0y*B\xe8\xd6\xd9\x05@'
p1823
tp1824
bssS'reachable_regions_while_holding'
p1825
(lp1826
(g683
g1271
tp1827
a(g805
g1271
tp1828
a(g684
g1271
tp1829
a(g12
g1271
tp1830
a(g976
g1271
tp1831
a(g1038
g1271
tp1832
a(g80
g1271
tp1833
a(g1135
g1271
tp1834
asS'in_region'
p1835
(itrajectory_representation.predicates.in_region
InRegion
p1836
(dp1837
g1206
NsbsS'cached_pick_paths'
p1838
(dp1839
g683
(lp1840
g21
(g22
(I0
tp1841
g24
tp1842
Rp1843
(I1
(I3
tp1844
g242
I00
S'\xba\x94\xa0\x97\xd7x\x0c@i\riz\xd7\x8f\x1a\xc0\xb5\xb8\xb1\xf1;h\n@'
p1845
tp1846
bag21
(g22
(I0
tp1847
g24
tp1848
Rp1849
(I1
(I3
tp1850
g253
I00
S'\xfc\xa4s\xc9\x94\xef\t@\xb4\xe1\x9c\x11\xf4=\x1d\xc0\xc4(r\x81\xa1>\x06@'
p1851
tp1852
bag21
(g22
(I0
tp1853
g24
tp1854
Rp1855
(I1
(I3
tp1856
g253
I00
S'\xe4\x81\xa6\xb4\xaf\xa9\x06@W#\xf7\xbb\x82\xfc\x1e\xc05N\xc5G\xfd\x04\x02@'
p1857
tp1858
bag21
(g22
(I0
tp1859
g24
tp1860
Rp1861
(I1
(I3
tp1862
g253
I00
S'\xbe\x13Y^h\xbd\x02@\xe3\xc2^\xa1\xb6U\x1f\xc0\xb9*7\xddY\x01\x07@'
p1863
tp1864
bag21
(g22
(I0
tp1865
g24
tp1866
Rp1867
(I1
(I3
tp1868
g253
I00
S'I&\xa6\xa8\xc8\xcd\xfb?\xc6\x13\x8e\x17\xd6\xf2\x1e\xc0\x8e\xe8\xdc\x06F\xc0\xaa\xbf'
p1869
tp1870
bag21
(g22
(I0
tp1871
g24
tp1872
Rp1873
(I1
(I3
tp1874
g253
I00
S'Sx\x1f\xdc\xa9\xe1\xf5?\xb7\xb2\x19\xd8\xf1{\x1c\xc0\x8c\xd5\xa8XX\x00\x08\xc0'
p1875
tp1876
bag21
(g22
(I0
tp1877
g24
tp1878
Rp1879
(I1
(I3
tp1880
g253
I00
S'\xba)c\x05l\x93\xf4?\x8f\x0f\xa1<\xee\x05\x1c\xc0\xf9-\x16\x17\xc6`\xf8\xbf'
p1881
tp1882
bag733
asg805
(lp1883
g21
(g22
(I0
tp1884
g24
tp1885
Rp1886
(I1
(I3
tp1887
g242
I00
S'\xba\x94\xa0\x97\xd7x\x0c@i\riz\xd7\x8f\x1a\xc0\xb5\xb8\xb1\xf1;h\n@'
p1888
tp1889
bag21
(g22
(I0
tp1890
g24
tp1891
Rp1892
(I1
(I3
tp1893
g253
I00
S'\x1a\x93i\x05\xaa2\t@a5{\xa3z\xe3\x18\xc0\xcc\x05-\x9f\x13\x12\x05\xc0'
p1894
tp1895
bag21
(g22
(I0
tp1896
g24
tp1897
Rp1898
(I1
(I3
tp1899
g253
I00
S'nv\xf9k\xe2Y\x05@\xbf\xa3\xf80pj\x16\xc0\x85\x14\xd6\xdd\x83\x18\x04\xc0'
p1900
tp1901
bag21
(g22
(I0
tp1902
g24
tp1903
Rp1904
(I1
(I3
tp1905
g253
I00
S'_\x1fd\x97D>\x00@W\xf2\x9b\xb2\x92\xd8\x15\xc0\x99\xbc\xd43\xf6\xfa\x08\xc0'
p1906
tp1907
bag21
(g22
(I0
tp1908
g24
tp1909
Rp1910
(I1
(I3
tp1911
g253
I00
S'\x9f5<Q\xb2\xb3\xf7?\xb3\xd6LI,\xe8\x16\xc0\xc2\x13\xbbtu\x87\x00\xc0'
p1912
tp1913
bag826
asg684
(lp1914
g21
(g22
(I0
tp1915
g24
tp1916
Rp1917
(I1
(I3
tp1918
g242
I00
S'\xba\x94\xa0\x97\xd7x\x0c@i\riz\xd7\x8f\x1a\xc0\xb5\xb8\xb1\xf1;h\n@'
p1919
tp1920
bag887
asg12
g951
sg976
(lp1921
g21
(g22
(I0
tp1922
g24
tp1923
Rp1924
(I1
(I3
tp1925
g242
I00
S'\xba\x94\xa0\x97\xd7x\x0c@i\riz\xd7\x8f\x1a\xc0\xb5\xb8\xb1\xf1;h\n@'
p1926
tp1927
bag21
(g22
(I0
tp1928
g24
tp1929
Rp1930
(I1
(I3
tp1931
g253
I00
S'\xcb\x1a\x84\x1d\\\x9c\x08@\xec\xcbi\xc9#;\x18\xc0\xbf\xf24g\x02T\x05@'
p1932
tp1933
bag21
(g22
(I0
tp1934
g24
tp1935
Rp1936
(I1
(I3
tp1937
g253
I00
S'\xf8d\x877\x12\xfd\x04@h\xdbW\x9a\x83\x8e\x16\xc0\x87\xf16\xb9\x03k\x05@'
p1938
tp1939
bag21
(g22
(I0
tp1940
g24
tp1941
Rp1942
(I1
(I3
tp1943
g253
I00
S'v\x9f}*\xb2\x19\x02@\x02_\xf4PZ7\x16\xc0\xa8G\xd0\x03\xa3 \x01@'
p1944
tp1945
bag21
(g22
(I0
tp1946
g24
tp1947
Rp1948
(I1
(I3
tp1949
g253
I00
S'R\x12);\xaf\xa5\xf7?\xf3\xf9\xeb\x07c\xef\x15\xc0\xf0V^\xd6\x94\x96\x05\xc0'
p1950
tp1951
bag997
asg1038
(lp1952
g21
(g22
(I0
tp1953
g24
tp1954
Rp1955
(I1
(I3
tp1956
g242
I00
S'\xba\x94\xa0\x97\xd7x\x0c@i\riz\xd7\x8f\x1a\xc0\xb5\xb8\xb1\xf1;h\n@'
p1957
tp1958
bag21
(g22
(I0
tp1959
g24
tp1960
Rp1961
(I1
(I3
tp1962
g253
I00
S'\xac\x81\x98\xbc\x1b\x7f\x06@8\x1d\xa5\x10)H\x1a\xc0\xcd\xc4]\x0b\xc1`\x10@'
p1963
tp1964
bag21
(g22
(I0
tp1965
g24
tp1966
Rp1967
(I1
(I3
tp1968
g253
I00
S'w\xea<\xc0\xbb\xf7\x03@8\xab\x8e\xe3\x85\xd0\x17\xc0vc\xfc\x01\xfb\\\x0e@'
p1969
tp1970
bag21
(g22
(I0
tp1971
g24
tp1972
Rp1973
(I1
(I3
tp1974
g253
I00
S'\xeaT\xc2\xbf\xe4\x8d\xfb?L\xe4y~t"\x18\xc0\x0f\x12ob\\\x05\x0b@'
p1975
tp1976
bag21
(g22
(I0
tp1977
g24
tp1978
Rp1979
(I1
(I3
tp1980
g253
I00
S'\x07\xe5\xeeo\xc2@\xf0?\x80*\x19Ng\xcf\x17\xc0\xccm\xca\xd2+4\x0f@'
p1981
tp1982
bag1053
asg80
g1116
sg1135
(lp1983
g21
(g22
(I0
tp1984
g24
tp1985
Rp1986
(I1
(I3
tp1987
g242
I00
S'\xba\x94\xa0\x97\xd7x\x0c@i\riz\xd7\x8f\x1a\xc0\xb5\xb8\xb1\xf1;h\n@'
p1988
tp1989
bag21
(g22
(I0
tp1990
g24
tp1991
Rp1992
(I1
(I3
tp1993
g253
I00
S'+\x1c\x9f\xd6\xf3\x96\x07@1NpY\xa1\x99\x18\xc0\xb9\x00\xa9-\xa3\xbc\n\xc0'
p1994
tp1995
bag21
(g22
(I0
tp1996
g24
tp1997
Rp1998
(I1
(I3
tp1999
g253
I00
S'\x08\xd0\xb5\xc6%\xc5\x01@\xbd\x02\xc9.\xfeS\x18\xc0\xafSz\xf3%\xbc\x07\xc0'
p2000
tp2001
bag21
(g22
(I0
tp2002
g24
tp2003
Rp2004
(I1
(I3
tp2005
g253
I00
S'4#\xe8i\x80D\xf8?\xdd\x1dlTl\\\x19\xc0m\xc1\x1a\xec\xde\x01\x01\xc0'
p2006
tp2007
bag21
(g22
(I0
tp2008
g24
tp2009
Rp2010
(I1
(I3
tp2011
g253
I00
S'\xae\xea\x9e\xa3\xa2\xb1\xed?\xa4\xca\x1d?h\x96\x19\xc0dq\xdf\xb1\x9d\xe4\x05@'
p2012
tp2013
bag1156
assg685
(dp2014
(Vrectangular_packing_box4
p2015
(cnumpy.core.multiarray
scalar
p2016
(g242
S'\x87oa\xddx7\xf0?'
p2017
tp2018
Rp2019
g2016
(g242
S'\xae\xd8_vO\xce\x1f\xc0'
p2020
tp2021
Rp2022
g2016
(g242
S't~\x8a\xe3\xc0\xab\x00@'
p2023
tp2024
Rp2025
tp2026
tp2027
g691
s(Vsquare_packing_box4
p2028
(g2016
(g242
S'\xe8\xda\x17\xd0\x0bw\xda\xbf'
p2029
tp2030
Rp2031
g2016
(g242
S'|\xd5\xca\x84_\x1a\x18\xc0'
p2032
tp2033
Rp2034
g2016
(g242
S'3\xfd\x12\xf1\xd6\xd9\x05@'
p2035
tp2036
Rp2037
tp2038
tp2039
g719
s(Vrectangular_packing_box1
p2040
(g2016
(g242
S'J\t\xc1\xaaz\xb9\x00@'
p2041
tp2042
Rp2043
g2016
(g242
S'\xefo\xd0^}L\x1c\xc0'
p2044
tp2045
Rp2046
g2016
(g242
S'\x18\x94i4\xb9\x18\xee?'
p2047
tp2048
Rp2049
tp2050
tp2051
g703
s(Vrectangular_packing_box3
p2052
(g2016
(g242
S'\xc2\xc0s\xef\xe1\x92\x03@'
p2053
tp2054
Rp2055
g2016
(g242
S'\x00\x01k\xd5\xae\xf9\x16\xc0'
p2056
tp2057
Rp2058
g2016
(g242
S'\xdb3K\x02\xd4\x94\xf0?'
p2059
tp2060
Rp2061
tp2062
tp2063
g699
s(Vsquare_packing_box2
p2064
(g2016
(g242
S'\xff\xcd\x8b\x13_\xed\xb4?'
p2065
tp2066
Rp2067
g2016
(g242
S'H\xbf}\x1d8W\x17\xc0'
p2068
tp2069
Rp2070
g2016
(g242
S'9\x0c\xe6\xaf\x909\x0e@'
p2071
tp2072
Rp2073
tp2074
tp2075
g707
s(Vsquare_packing_box3
p2076
(g2016
(g242
S'`\xe4eM,\xf0\xb9?'
p2077
tp2078
Rp2079
g2016
(g242
S'\x8a\x94f\xf38\\\x1b\xc0'
p2080
tp2081
Rp2082
g2016
(g242
S'\xa9\x13\xd0D\xd8\xf0\xf1?'
p2083
tp2084
Rp2085
tp2086
tp2087
g711
s(Vrectangular_packing_box2
p2088
(g2016
(g242
S'\xf0\xc0\x00\xc2\x87\x92\xe8?'
p2089
tp2090
Rp2091
g2016
(g242
S'\xc0 \xe9\xd3*Z\x19\xc0'
p2092
tp2093
Rp2094
g2016
(g242
S'\x98k\xd1\x02\xb4\xad\xf8?'
p2095
tp2096
Rp2097
tp2098
tp2099
g695
s(Vsquare_packing_box1
p2100
(g2016
(g242
S'j1x\x98\xf6\x8d\xfc?'
p2101
tp2102
Rp2103
g2016
(g242
S'*\xc9:\x1c]\xb5\x16\xc0'
p2104
tp2105
Rp2106
g2016
(g242
S':\xe6<c_\xb2\xcd?'
p2107
tp2108
Rp2109
tp2110
tp2111
g715
ssS'state_saver'
p2112
(igtamp_utils.utils
CustomStateSaver
p2113
(dp2114
S'robot_base_pose'
p2115
g21
(g22
(I0
tp2116
g24
tp2117
Rp2118
(I1
(I1
I3
tp2119
g242
I00
S'\xc4\x94\xa0\x97\xd7x\x0c@u\riz\xd7\x8f\x1a\xc0\xb5\xb8\xb1\xf1;h\n@'
p2120
tp2121
bsS'held_object'
p2122
NsS'robot_name'
p2123
S'pr2'
p2124
sS'env_id'
p2125
I1
sg1767
(dp2126
Vright_wall_1
p2127
g21
(g22
(I0
tp2128
g24
tp2129
Rp2130
(I1
(I4
tp2131
g242
I00
S'H\xe1z\x14\xaeG\x12@&\\\x8f\xc2\xf5(\xd4\xbf\xcc\x7fH\xbf}\x1d\xed?\x00\x00\x00\x00\x00\x00\x00\x00'
p2132
tp2133
bsVc_obst5
p2134
g21
(g22
(I0
tp2135
g24
tp2136
Rp2137
(I1
(I4
tp2138
g242
I00
S"#\\\x1f\x1e\xe3]\x12@(\x19\x1d\xc1h4\xc7\xbfe\xaa`TR'\xed?TI\xb5\x96\x06]\x18@"
p2139
tp2140
bsVentrance_right
p2141
g21
(g22
(I0
tp2142
g24
tp2143
Rp2144
(I1
(I4
tp2145
g242
I00
S'ffffff\n@H\xe1z\x14\xaeG\t\xc0\x9c\xc4 \xb0rh\xc1?\x00\x00\x00\x00\x00\x00\x00\x00'
p2146
tp2147
bsVcomputer_table
p2148
g21
(g22
(I0
tp2149
g24
tp2150
Rp2151
(I1
(I4
tp2152
g242
I00
S'\x00\x00\x00\x00\x00\x00\x13@\x00\x00\x00\x00\x00\x00\xf8\xbf\x96C\x8bl\xe7\xfb\xe7?\xd2!3\x7f|\xd9\x12@'
p2153
tp2154
bsVchair_6b56
p2155
g21
(g22
(I0
tp2156
g24
tp2157
Rp2158
(I1
(I4
tp2159
g242
I00
S'u=\n\xd7\xa3p\xf5?K\xe1z\x14\xaeG\xd1?\x00\x00\x00\x00\x00\x00\x00\x00\xd6$\xfaNBm\n@'
p2160
tp2161
bsVsquare_packing_box3
p2162
g21
(g22
(I0
tp2163
g24
tp2164
Rp2165
(I1
(I4
tp2166
g242
I00
S'\t\xc8\x94.3\xf0\xb9?\x0ee\x0e\xd58\\\x1b\xc0L7\x89A`\xe5\xd8?\xbd\xd0S\x17\xd8\xf0\xf1?'
p2167
tp2168
bsVsquare_packing_box2
p2169
g21
(g22
(I0
tp2170
g24
tp2171
Rp2172
(I1
(I4
tp2173
g242
I00
S'\x98\xa1;pY\xed\xb4?\x0e1\xf5>8W\x17\xc0L7\x89A`\xe5\xd8?\x90\xad\xe1\xa1\x909\x0e@'
p2174
tp2175
bsVtable
p2176
g21
(g22
(I0
tp2177
g24
tp2178
Rp2179
(I1
(I4
tp2180
g242
I00
S'\x7f\xf6#EdX\xed?\xac\xffs\x98//\xc0\xbf\x00\x00\x00\x00\x00\x00\x00\x00\x00\x00\x00\x00\x00\x00\x00\x00'
p2181
tp2182
bsVsquare_packing_box1
p2183
g21
(g22
(I0
tp2184
g24
tp2185
Rp2186
(I1
(I4
tp2187
g242
I00
S'\x99LoD\xf6\x8d\xfc?\xba\x80*%]\xb5\x16\xc0L7\x89A`\xe5\xd8?KOq\xaa]\xb2\xcd?'
p2188
tp2189
bsVback_wall_2
p2190
g21
(g22
(I0
tp2191
g24
tp2192
Rp2193
(I1
(I4
tp2194
g242
I00
S'\xaeG\xe1z\x14.\x13@\x80\x14\xaeG\xe1z\xc4?xX\xa85\xcd\xbb\xf2?\x00\x00\x00\x00\x00\x00\x00\x00'
p2195
tp2196
bsVchair_083c
p2197
g21
(g22
(I0
tp2198
g24
tp2199
Rp2200
(I1
(I4
tp2201
g242
I00
S'\xa4p=\n\xd7\xa3\xe0?333333\xe3\xbf\x00\x00\x00\x00\x00\x00\x00\x00\x00\x00\x00\x00\x00\x00\x00\x00'
p2202
tp2203
bsVback_wall_1
p2204
g21
(g22
(I0
tp2205
g24
tp2206
Rp2207
(I1
(I4
tp2208
g242
I00
S'\xaeG\xe1z\x14.\x13@\x80\x14\xaeG\xe1z\xc4?\xcc\x7fH\xbf}\x1d\xed?\x00\x00\x00\x00\x00\x00\x00\x00'
p2209
tp2210
bsVbottom_wall
p2211
g21
(g22
(I0
tp2212
g24
tp2213
Rp2214
(I1
(I4
tp2215
g242
I00
S'\x00\x00\x00\x00\x00\x00\xfc?\x00\x00\x00\x00\x00\x00\x00\x00\x00\x00\x00\x00\x00\x00\x00\x00\x00\x00\x00\x00\x00\x00\x00\x00'
p2216
tp2217
bsVcup_905a
p2218
g21
(g22
(I0
tp2219
g24
tp2220
Rp2221
(I1
(I4
tp2222
g242
I00
S'\x00\x00\x00\x00\x00\x00\xf0?\x83\xc0\xca\xa1E\xb6\xdb?\x1b/\xdd$\x06\x81\xed?\x00\x00\x00\x00\x00\x00\x00\x00'
p2223
tp2224
bsVplate_496f
p2225
g21
(g22
(I0
tp2226
g24
tp2227
Rp2228
(I1
(I4
tp2229
g242
I00
S"q=\n\xd7\xa3p\xe5?\x9dhW!\xe5'\xdd\xbf\x1b/\xdd$\x06\x81\xed?\x00\x00\x00\x00\x00\x00\x00\x00"
p2230
tp2231
bsVtoaster
p2232
g21
(g22
(I0
tp2233
g24
tp2234
Rp2235
(I1
(I4
tp2236
g242
I00
S')\\\x8f\xc2\xf5(\xf4\xbf\xe0z\x14\xaeG\xe1\xf2\xbf\xb8\x1e\x85\xebQ\xb8\xee?\x89/`\x9b\xf8\x8a\xe4?'
p2237
tp2238
bsVc_obst1
p2239
g21
(g22
(I0
tp2240
g24
tp2241
Rp2242
(I1
(I4
tp2243
g242
I00
S"\xca\xbcXr\xd3\x84\x12@\xa0\x8e\xd1\x1aG\x87\xd1?e\xaa`TR'\xed?u\xa03\xe3\xe4p\x14@"
p2244
tp2245
bsVrectangular_packing_box4
p2246
g21
(g22
(I0
tp2247
g24
tp2248
Rp2249
(I1
(I4
tp2250
g242
I00
S'\xb47\xe0\x17y7\xf0?>\xaa+\x7fO\xce\x1f\xc0L7\x89A`\xe5\xd8?\xf7\xf6\x1f\xc7\xc0\xab\x00@'
p2251
tp2252
bsVmicrowave
p2253
g21
(g22
(I0
tp2254
g24
tp2255
Rp2256
(I1
(I4
tp2257
g242
I00
S'\x9a\x99\x99\x99\x99\x99\xf1\xbf\x00\x00\x00\x00\x00\x00\x00@7\x89A`\xe5\xd0\xee?\x00\x00\x00\x00\x00\x00\x00\x00'
p2258
tp2259
bsVc_obst7
p2260
g21
(g22
(I0
tp2261
g24
tp2262
Rp2263
(I1
(I4
tp2264
g242
I00
S"^'\x92S\xedP\x12@\xaa?PY\xae\xcf\xbc?e\xaa`TR'\xed?Q\xdc&\xa6q\x9a\xff?"
p2265
tp2266
bsVc_obst6
p2267
g21
(g22
(I0
tp2268
g24
tp2269
Rp2270
(I1
(I4
tp2271
g242
I00
S"\xa6/\x0e^0\xfd\x11@\x82\xd6Te\x94\x95\xdf?e\xaa`TR'\xed?\x9d\x9d6\xa89\x17\x9a?"
p2272
tp2273
bsVcup_b6af
p2274
g21
(g22
(I0
tp2275
g24
tp2276
Rp2277
(I1
(I4
tp2278
g242
I00
S'R\xb8\x1e\x85\xebQ\xe8?\x9a\x99\x99\x99\x99\x99\xe1?\x1b/\xdd$\x06\x81\xed?\x00\x00\x00\x00\x00\x00\x00\x00'
p2279
tp2280
bsVc_obst4
p2281
g21
(g22
(I0
tp2282
g24
tp2283
Rp2284
(I1
(I4
tp2285
g242
I00
S"\t\xc6\x91\xc3\xf0\x1f\x12@\x9a\xecXk\xb6}\xd2?e\xaa`TR'\xed?\x82rD\xed}.\x03@"
p2286
tp2287
bsVrectangular_packing_box2
p2288
g21
(g22
(I0
tp2289
g24
tp2290
Rp2291
(I1
(I4
tp2292
g242
I00
S'Pc\xb0\x05\x87\x92\xe8?s\xef\x1b\xc2*Z\x19\xc0L7\x89A`\xe5\xd8?\x90hQ"\xb4\xad\xf8?'
p2293
tp2294
bsVplate_fa76
p2295
g21
(g22
(I0
tp2296
g24
tp2297
Rp2298
(I1
(I4
tp2299
g242
I00
S'=\n\xd7\xa3p=\xf2?\x00\x00\x00\x00\x00\x00\x00\x00\x1b/\xdd$\x06\x81\xed?\x00\x00\x00\x00\x00\x00\x00\x00'
p2300
tp2301
bsVfloorwalls
p2302
g21
(g22
(I0
tp2303
g24
tp2304
Rp2305
(I1
(I4
tp2306
g242
I00
S'\xc7\xcc\xcc\xcc\xcc\xcc\xfc?\x00\x00\x00\x00\x00\x00\x18\xc0H\xe1z\x14\xaeG\xc1?\x16-DT\xfb!\xf9?'
p2307
tp2308
bsVpin_c671
p2309
g21
(g22
(I0
tp2310
g24
tp2311
Rp2312
(I1
(I4
tp2313
g242
I00
S'\xc3\xf5(\\\x8f\xc2\xf1\xbf}?5^\xbaI\x02@\xb8\x1e\x85\xebQ\xb8\xfa?\x00\x00\x00\x00\x00\x00\x00\x00'
p2314
tp2315
bsVc_obst3
p2316
g21
(g22
(I0
tp2317
g24
tp2318
Rp2319
(I1
(I4
tp2320
g242
I00
S"=\xa3m\x9aj\xa4\x12@\x06\x957\x04\x12(\xe1?e\xaa`TR'\xed?\x16\x1d\x11o\xe5!\xf9?"
p2321
tp2322
bsVchair_2e39
p2323
g21
(g22
(I0
tp2324
g24
tp2325
Rp2326
(I1
(I4
tp2327
g242
I00
S'hfffff\xee?cfffff\xf2\xbf\x00\x00\x00\x00\x00\x00\x00\x00\x07M\xe8QQF\xf3?'
p2328
tp2329
bsVentrance_left
p2330
g21
(g22
(I0
tp2331
g24
tp2332
Rp2333
(I1
(I4
tp2334
g242
I00
S'\x98\x99\x99\x99\x99\x99\xe9\xbfH\xe1z\x14\xaeG\t\xc0\x9c\xc4 \xb0rh\xc1?\x00\x00\x00\x00\x00\x00\x00\x00'
p2335
tp2336
bsVtop_wall_1
p2337
g21
(g22
(I0
tp2338
g24
tp2339
Rp2340
(I1
(I4
tp2341
g242
I00
S'H\xe1z\x14\xaeG\x12@\x80\x14\xaeG\xe1z\xc4?xX\xa85\xcd\xbb\xf2?\x00\x00\x00\x00\x00\x00\x00\x00'
p2342
tp2343
bsVrectangular_packing_box3
p2344
g21
(g22
(I0
tp2345
g24
tp2346
Rp2347
(I1
(I4
tp2348
g242
I00
S'q\x99\xb4\x13\xe2\x92\x03@\x1c\xc1\xe2\xec\xae\xf9\x16\xc0L7\x89A`\xe5\xd8?z\x90b\xcd\xd3\x94\xf0?'
p2349
tp2350
bsVshaker
p2351
g21
(g22
(I0
tp2352
g24
tp2353
Rp2354
(I1
(I4
tp2355
g242
I00
S'\n\xd7\xa3p=\n\x01@\x14\xaeG\xe1z\x14\x02@\\\x8f\xc2\xf5(\\\xef?\x00\x00\x00\x00\x00\x00\x00\x00'
p2356
tp2357
bsVc_obst9
p2358
g21
(g22
(I0
tp2359
g24
tp2360
Rp2361
(I1
(I4
tp2362
g242
I00
S"\xb4\xa9~\xfa\xac\x14\x12@\xf4\x84U\xc7\xbf~\xb8?e\xaa`TR'\xed?\xf4\x1d\xe0\xf6+s\xef?"
p2363
tp2364
bsVplate_835a
p2365
g21
(g22
(I0
tp2366
g24
tp2367
Rp2368
(I1
(I4
tp2369
g242
I00
S'\xf6(\\\x8f\xc2\xf5\xf0?\\\x8f\xc2\xf5(\\\xe7\xbf\x1b/\xdd$\x06\x81\xed?\x00\x00\x00\x00\x00\x00\x00\x00'
p2370
tp2371
bsVcup_58a2
p2372
g21
(g22
(I0
tp2373
g24
tp2374
Rp2375
(I1
(I4
tp2376
g242
I00
S'\x85\xebQ\xb8\x1e\x85\xe3?\xcd\xcc\xcc\xcc\xcc\xcc\xdc?\x1b/\xdd$\x06\x81\xed?\x00\x00\x00\x00\x00\x00\x00\x00'
p2377
tp2378
bsVleft_wall_1
p2379
g21
(g22
(I0
tp2380
g24
tp2381
Rp2382
(I1
(I4
tp2383
g242
I00
S'H\xe1z\x14\xaeG\x12@S\xb8\x1e\x85\xebQ\xe4?\xcc\x7fH\xbf}\x1d\xed?\x00\x00\x00\x00\x00\x00\x00\x00'
p2384
tp2385
bsVc_obst2
p2386
g21
(g22
(I0
tp2387
g24
tp2388
Rp2389
(I1
(I4
tp2390
g242
I00
S"\xfe\x90O\xe1\x82K\x12@ \xdf\xbb\x0f,\xcc\xa0?e\xaa`TR'\xed?\xc2\x97\xef\xfa\xa7\x1b\xf0?"
p2391
tp2392
bsVsquare_packing_box4
p2393
g21
(g22
(I0
tp2394
g24
tp2395
Rp2396
(I1
(I4
tp2397
g242
I00
S'H\xb2\x87\r\x0cw\xda\xbf\xac\xbd\xabg_\x1a\x18\xc0L7\x89A`\xe5\xd8?y*B\xe8\xd6\xd9\x05@'
p2398
tp2399
bsVrectangular_packing_box1
p2400
g21
(g22
(I0
tp2401
g24
tp2402
Rp2403
(I1
(I4
tp2404
g242
I00
S'7\xe7\x89\xa9z\xb9\x00@\x04\xb7xf}L\x1c\xc0L7\x89A`\xe5\xd8?C\xadE\xd0\xb9\x18\xee?'
p2405
tp2406
bsVpin_371e
p2407
g21
(g22
(I0
tp2408
g24
tp2409
Rp2410
(I1
(I4
tp2411
g242
I00
S'333333\xf3\xbfffffff\xf6?\xb8\x1e\x85\xebQ\xb8\xee?\x00\x00\x00\x00\x00\x00\x00\x00'
p2412
tp2413
bsVfridge
p2414
g21
(g22
(I0
tp2415
g24
tp2416
Rp2417
(I1
(I4
tp2418
g242
I00
S'\xd7\xa3p=\n\xd7\xeb\xbf\x00\x00\x00\x00\x00\x00\x00\xc0\xcd\xcc\xcc\xcc\xcc\xcc\xf8?\x00\x00\x00\x00\x00\x00\x00\x00'
p2419
tp2420
bsVcup_d441
p2421
g21
(g22
(I0
tp2422
g24
tp2423
Rp2424
(I1
(I4
tp2425
g242
I00
S'\n\xd7\xa3p=\n\xef?\x8f\xc2\xf5(\\\x8f\xe2?\x1b/\xdd$\x06\x81\xed?\x00\x00\x00\x00\x00\x00\x00\x00'
p2426
tp2427
bsVshelf2
p2428
g21
(g22
(I0
tp2429
g24
tp2430
Rp2431
(I1
(I4
tp2432
g242
I00
S'\x00\x00\x00\x00\x00\x00\x0e@\xaeG\xe1z\x14\xae\x07@\x9c\xc4 \xb0rh\xc1?\xd2!3\x7f|\xd9\x12@'
p2433
tp2434
bsVtop_wall_2
p2435
g21
(g22
(I0
tp2436
g24
tp2437
Rp2438
(I1
(I4
tp2439
g242
I00
S'H\xe1z\x14\xaeG\x12@\x80\x14\xaeG\xe1z\xc4?\x16HP\xfc\x18\xf3\xfd?\x00\x00\x00\x00\x00\x00\x00\x00'
p2440
tp2441
bsVc_obst0
p2442
g21
(g22
(I0
tp2443
g24
tp2444
Rp2445
(I1
(I4
tp2446
g242
I00
S"\xf6!e\x87VV\x12@@\xa5\xe5\xe0\xf3\x8d\xad\xbfe\xaa`TR'\xed?+\x9c\x9c\xbf\xed\x8e\x05@"
p2447
tp2448
bsVshelf1
p2449
g21
(g22
(I0
tp2450
g24
tp2451
Rp2452
(I1
(I4
tp2453
g242
I00
S'\x00\x00\x00\x00\x00\x00\x13@\xaeG\xe1z\x14\xae\x07@\x9c\xc4 \xb0rh\xc1?\xd2!3\x7f|\xd9\x12@'
p2454
tp2455
bsVsink
p2456
g21
(g22
(I0
tp2457
g24
tp2458
Rp2459
(I1
(I4
tp2460
g242
I00
S'ffffff\xd6?333333\x01@\x9a\x99\x99\x99\x99\x99\xb9\xbf\x00\x00\x00\x00\x00\x00\x00\x00'
p2461
tp2462
bsVpr2
p2463
g21
(g22
(I0
tp2464
g24
tp2465
Rp2466
(I1
(I4
tp2467
g242
I00
S'\xcf\x94\xa0\x97\xd7x\x0c@\x7f\riz\xd7\x8f\x1a\xc0\x9a_\x94\xa0\xbf\xd0\xc1?\xb5\xb8\xb1\xf1;h\n@'
p2468
tp2469
bsVchair_12d0
p2470
g21
(g22
(I0
tp2471
g24
tp2472
Rp2473
(I1
(I4
tp2474
g242
I00
S'\\\xd2\x18\xad\xa3\xaa\xdb?Of\x83L2r\xc6?\x00\x00\x00\x00\x00\x00\x00\x00\xf8\x81\r\x14M\xa6\x17@'
p2475
tp2476
bsVright_wall_2
p2477
g21
(g22
(I0
tp2478
g24
tp2479
Rp2480
(I1
(I4
tp2481
g242
I00
S'H\xe1z\x14\xaeG\x12@&\\\x8f\xc2\xf5(\xd4\xbfxX\xa85\xcd\xbb\xf2?\x00\x00\x00\x00\x00\x00\x00\x00'
p2482
tp2483
bsVknife_block
p2484
g21
(g22
(I0
tp2485
g24
tp2486
Rp2487
(I1
(I4
tp2488
g242
I00
S'R\xb8\x1e\x85\xebQ\xe0\xbfffffff\x02@`\xe5\xd0"\xdb\xf9\xee?\x00\x00\x00\x00\x00\x00\x00\x00'
p2489
tp2490
bsVleft_wall_2
p2491
g21
(g22
(I0
tp2492
g24
tp2493
Rp2494
(I1
(I4
tp2495
g242
I00
S'H\xe1z\x14\xaeG\x12@S\xb8\x1e\x85\xebQ\xe4?xX\xa85\xcd\xbb\xf2?\x00\x00\x00\x00\x00\x00\x00\x00'
p2496
tp2497
bsVleft_wall
p2498
g21
(g22
(I0
tp2499
g24
tp2500
Rp2501
(I1
(I4
tp2502
g242
I00
S'\x9a\x99\x99\x99\x99\x99\x07@H\xe1z\x14\xaeG\xff?\x9c\xc4 \xb0rh\xc1?\x00\x00\x00\x00\x00\x00\x00\x00'
p2503
tp2504
bsVkitchen
p2505
g21
(g22
(I0
tp2506
g24
tp2507
Rp2508
(I1
(I4
tp2509
g242
I00
S'\x00\x00\x00\x00\x00\x00\x00\x00\x00\x00\x00\x00\x00\x00\x00\x00\x00\x00\x00\x00\x00\x00\x00\x00\x00\x00\x00\x00\x00\x00\x00\x00'
p2510
tp2511
bsVtable2
p2512
g21
(g22
(I0
tp2513
g24
tp2514
Rp2515
(I1
(I4
tp2516
g242
I00
S'\x00\x00\x00\x00\x00\x00\x13@\x80\x14\xaeG\xe1z\xc4?S\x96!\x8euq\xec?\xd2!3\x7f|\xd9\x12@'
p2517
tp2518
bsVc_obst8
p2519
g21
(g22
(I0
tp2520
g24
tp2521
Rp2522
(I1
(I4
tp2523
g242
I00
S'\xa2hg\xcb\xa1W\x12@\xa0\x83\xb9H\xdf\x92\xda?e\xaa`TR\'\xed?i\xe7\x86\xd2\xbd"\xda?'
p2524
tp2525
bsVplate_b4e7
p2526
g21
(g22
(I0
tp2527
g24
tp2528
Rp2529
(I1
(I4
tp2530
g242
I00
S'\x14\xaeG\xe1z\x14\xf2\xbf\x14\xaeG\xe1z\x14\x00@=\n\xd7\xa3p=\xf2?\x00\x00\x00\x00\x00\x00\x00\x00'
p2531
tp2532
bsVcooker
p2533
g21
(g22
(I0
tp2534
g24
tp2535
Rp2536
(I1
(I4
tp2537
g242
I00
S'\xaeG\xe1z\x14\xae\xff?\x85\xebQ\xb8\x1e\x85\xfb?\x00\x00\x00\x00\x00\x00\xe8?\x00\x00\x00\x00\x00\x00\x00\x00'
p2538
tp2539
bsVpin_a091
p2540
g21
(g22
(I0
tp2541
g24
tp2542
Rp2543
(I1
(I4
tp2544
g242
I00
S'\xdb\xf9~j\xbct\xf7\xbf)\\\x8f\xc2\xf5(\x02@\xb8\x1e\x85\xebQ\xb8\xfa?\x00\x00\x00\x00\x00\x00\x00\x00'
p2545
tp2546
bsVside_wall_2
p2547
g21
(g22
(I0
tp2548
g24
tp2549
Rp2550
(I1
(I4
tp2551
g242
I00
S'\xfa\xff\xff\xff\xff\xff\x14@\x00\x00\x00\x00\x00\x00\x00\x00\x9c\xc4 \xb0rh\xc1?\x18-DT\xfb!\xf9?'
p2552
tp2553
bsVside_wall_3
p2554
g21
(g22
(I0
tp2555
g24
tp2556
Rp2557
(I1
(I4
tp2558
g242
I00
S'\x00\x00\x00\x00\x00\x00\xfc?H\xe1z\x14\xaeG\t@\x9c\xc4 \xb0rh\xc1?\x00\x00\x00\x00\x00\x00\x00\x00'
p2559
tp2560
bsVmixer
p2561
g21
(g22
(I0
tp2562
g24
tp2563
Rp2564
(I1
(I4
tp2565
g242
I00
S'\n\xd7\xa3p=\n\xfb?ffffff\x02@d;\xdfO\x8d\x97\xee?\x00\x00\x00\x00\x00\x00\x00\x00'
p2566
tp2567
bsVside_wall_1
p2568
g21
(g22
(I0
tp2569
g24
tp2570
Rp2571
(I1
(I4
tp2572
g242
I00
S'\xf4\xff\xff\xff\xff\xff\xfb\xbf\x00\x00\x00\x00\x00\x00\x00\x00\x9c\xc4 \xb0rh\xc1?\x18-DT\xfb!\xf9?'
p2573
tp2574
bsVbottom_wall_1
p2575
g21
(g22
(I0
tp2576
g24
tp2577
Rp2578
(I1
(I4
tp2579
g242
I00
S'H\xe1z\x14\xaeG\x12@\x80\x14\xaeG\xe1z\xc4?\xcc\x7fH\xbf}\x1d\xed?\x00\x00\x00\x00\x00\x00\x00\x00'
p2580
tp2581
bsVcan
p2582
g21
(g22
(I0
tp2583
g24
tp2584
Rp2585
(I1
(I4
tp2586
g242
I00
S'\x00\x00\x00\x00\x00\x00\xf4\xbfH\xe1z\x14\xaeG\xe1\xbf\n\xd7\xa3p=\n\xef?\x00\x00\x00\x00\x00\x00\x00\x00'
p2587
tp2588
bsVright_wall
p2589
g21
(g22
(I0
tp2590
g24
tp2591
Rp2592
(I1
(I4
tp2593
g242
I00
S'\x9a\x99\x99\x99\x99\x99\x07@H\xe1z\x14\xaeG\xff\xbf\x9c\xc4 \xb0rh\xc1?\x00\x00\x00\x00\x00\x00\x00\x00'
p2594
tp2595
bsVcoffe_machine
p2596
g21
(g22
(I0
tp2597
g24
tp2598
Rp2599
(I1
(I4
tp2600
g242
I00
S'\\\x8f\xc2\xf5(\\\xf5\xbf\xb8\x1e\x85\xebQ\xb8\xee?\n\xd7\xa3p=\n\xef?\x00\x00\x00\x00\x00\x00\x00\x00'
p2601
tp2602
bsVcomputer_chair
p2603
g21
(g22
(I0
tp2604
g24
tp2605
Rp2606
(I1
(I4
tp2607
g242
I00
S'\xcd\xcc\xcc\xcc\xcc\xcc\x10@\x00\x00\x00\x00\x00\x00\xf8\xbf\xa00\xb6\x10\xe4\xa9\x95\xbf\x00\x00\x00\x00\x00\x00\x00\x00'
p2608
tp2609
bssS'robot_dof_values'
p2610
g21
(g22
(I0
tp2611
g24
tp2612
Rp2613
(I1
(I39
tp2614
g242
I00
S'\x00\x00\x00\x00\x00\x00\x00\x00\x00\x00\x00\x00\x00\x00\x00\x00\x00\x00\x00\x00\x00\x00\x00\x00\x00\x00\x00\x00\x00\x00\x00\x00\x00\x00\x00\x00\x00\x00\x00\x00\x00\x00\x00\x00\x00\x00\x00\x00\x00\x00\x00\x00\x00\x00\x00\x00\x00\x00\x00\x00\x00\x00\x00\x00\x00\x00\x00\x00\x00\x00\x00\x00\x00\x00\x00\x00\x00\x00\x00\x00\x00\x00\x00\x00\x00\x00\x00\x00\x00\x00\x00\x00\x00\x00\x00\x00@d;\xdfO\x8d\x87?\x00\x00\x00\x00\x00\x00\x00\x00\x00\x00\x00\x00\x00\x00\x00\x00\x00\x00\x00\x00\x00\x00\x00\x00\xec\xed\t\xf1\xcc\xa4\xf4?\x00\x00\x00\x00\x00\x00\xb0\xbcM"\xd0^p\xf8\x00\xc0\x00\x00\x00\x00\x00\x00\x00\x00\x99\x03\r.\x04V\xe6\xbf\x00\x00\x00\x00\x00\x00\x00\x00\x00\x00\x00\x00\x00\x00\x00\x00\x00\x00\x00\x00\x00\x80\xdf\xbc\x00\x00\x00\x00\x00\x00\x00\x00\x00\x00\x00\x00\x00\x00\xd0<\x00\x00\x00\x00\x00\x00\x00\x00\x00\x00\x00\x00\x00\x00\x00\x00\xea\xed\t\xf1\xcc\xa4\xf4?\x00\x00\x00\x00\x00\x00\x00\x00N"\xd0^p\xf8\x00\xc0\x00\x00\x00\x00\x00\x00\x00\x00\x9b\x03\r.\x04V\xe6\xbf\x00\x00\x00\x00\x00\x00\x00\x00\xcc9\xe3\xc17\x89\xe1?\x00\x00\x00\x00\x00\x80\xd7\xbc\x00\x00\x00\x00\x00\x00\x00\x00\x00\x00\x00\x00\x00\x00\xe8\xbc\x00\x00\x00\x00\x00\x00\x00\x00'
p2615
tp2616
bsS'is_holding'
p2617
I00
sbsS'holding_collides'
p2618
NsS'parent_ternary_predicates'
p2619
(dp2620
sS'cached_place_paths'
p2621
(dp2622
(g12
g1271
tp2623
(lp2624
g21
(g22
(I0
tp2625
g24
tp2626
Rp2627
(I1
(I3
tp2628
g242
I00
S'igK\x00\xcf\x84\xf8?\xb1^\xf5\x8e\x99\x8d\x1e\xc0i8l\x07_\x10\xea?'
p2629
tp2630
bas(g1135
g233
tp2631
g308
s(g683
g233
tp2632
g359
s(g1038
g1271
tp2633
(lp2634
g21
(g22
(I0
tp2635
g24
tp2636
Rp2637
(I1
(I3
tp2638
g242
I00
S"\x17\xd1\xc0\x05\xff\xa7\xc9?F\x8d\xe4\x9b6\x9c\x18\xc0\xa6v\x05)'\x8a\x12@"
p2639
tp2640
bas(g683
g1271
tp2641
(lp2642
g21
(g22
(I0
tp2643
g24
tp2644
Rp2645
(I1
(I3
tp2646
g242
I00
S'\x88\xc8Zi\x80n\xee?`eh1\xc0\xb8\x1c\xc02"\xe2\xf04 \x13@'
p2647
tp2648
bas(g1038
g233
tp2649
g569
s(g976
g1271
tp2650
(lp2651
g21
(g22
(I0
tp2652
g24
tp2653
Rp2654
(I1
(I3
tp2655
g242
I00
S'\x8c\xfe\x91o\xa4\x96\xe1?\xf4\xbc\x82g\xd9\xe8\x19\xc0\xc4\xd4\xb0\xaf2\x01\xff?'
p2656
tp2657
bas(g976
g233
tp2658
g461
s(g80
g233
tp2659
g410
s(g684
g233
tp2660
g235
s(g684
g1271
tp2661
(lp2662
g21
(g22
(I0
tp2663
g24
tp2664
Rp2665
(I1
(I3
tp2666
g242
I00
S'zO\x9cnO\xa6\x07@\xaf\xad\x06\xf8\x9a\xd5\x18\xc0E\x94\x1d\xd7\xf0\x01\x03@'
p2667
tp2668
bas(g1135
g1271
tp2669
(lp2670
g21
(g22
(I0
tp2671
g24
tp2672
Rp2673
(I1
(I3
tp2674
g242
I00
S'\xe0\x13\x84z\xa1\x07\xd0?\xa3\x17>=\x976\x1a\xc0\xdd\xfb\xff,\re\x03@'
p2675
tp2676
bas(g80
g1271
tp2677
(lp2678
g21
(g22
(I0
tp2679
g24
tp2680
Rp2681
(I1
(I3
tp2682
g242
I00
S'P9P\xaa\xac\xa3\x00@\xa0*\x83V\xa4h\x19\xc0w\\3\xcaU0\x02@'
p2683
tp2684
bas(g805
g1271
tp2685
(lp2686
g21
(g22
(I0
tp2687
g24
tp2688
Rp2689
(I1
(I3
tp2690
g242
I00
S'^Iw\x96\xd7K\xb0\xbf\x04\xddz\x8b@\xca\x18\xc0\x88k\xc0\xdd_\xb7\xd4?'
p2691
tp2692
bas(g805
g233
tp2693
g608
s(g12
g233
tp2694
g512
ssS'parent_binary_predicates'
p2695
(dp2696
sS'nodes'
p2697
(dp2698
g1274
(lp2699
I0
aI0
aI0
aI0
aI0
aI0
aI00
aI01
aI00
aI01
aI00
asg1271
(lp2700
I0
aI0
aI0
aI0
aI0
aI0
aI00
aI01
aI00
aI01
aI00
asg233
(lp2701
I0
aI0
aI0
aI0
aI0
aI0
aI00
aI01
aI01
aI01
aI00
asg357
(lp2702
I0
aI0
aI0
ag2016
(g242
S'\xb28\xe0\x17y7\xf0?'
p2703
tp2704
Rp2705
ag2016
(g242
S'\xdf\xa9+\x7fO\xce\x1f\xc0'
p2706
tp2707
Rp2708
ag2016
(g242
S'\xf7\xf6\x1f\xc7\xc0\xab\x00@'
p2709
tp2710
Rp2711
aI01
aI00
aI00
aI01
aI00
asg606
(lp2712
I0
aI0
aI0
ag2016
(g242
S'\x10b\xb0\x05\x87\x92\xe8?'
p2713
tp2714
Rp2715
ag2016
(g242
S'.\xef\x1b\xc2*Z\x19\xc0'
p2716
tp2717
Rp2718
ag2016
(g242
S'\x95hQ"\xb4\xad\xf8?'
p2719
tp2720
Rp2721
aI01
aI00
aI00
aI00
aI00
asg232
(lp2722
I0
aI0
aI0
ag2016
(g242
S'x\x99\xb4\x13\xe2\x92\x03@'
p2723
tp2724
Rp2725
ag2016
(g242
S'"\xc1\xe2\xec\xae\xf9\x16\xc0'
p2726
tp2727
Rp2728
ag2016
(g242
S'z\x90b\xcd\xd3\x94\xf0?'
p2729
tp2730
Rp2731
aI01
aI00
aI00
aI01
aI00
asg510
(lp2732
I0
aI0
aI0
ag2016
(g242
S'\xa4\xe7\x89\xa9z\xb9\x00@'
p2733
tp2734
Rp2735
ag2016
(g242
S'\xdc\xb6xf}L\x1c\xc0'
p2736
tp2737
Rp2738
ag2016
(g242
S'C\xadE\xd0\xb9\x18\xee?'
p2739
tp2740
Rp2741
aI01
aI00
aI00
aI01
aI00
asg459
(lp2742
I0
aI0
aI0
ag2016
(g242
S'\xf0\x80;pY\xed\xb4?'
p2743
tp2744
Rp2745
ag2016
(g242
S'\xe4/\xf5>8W\x17\xc0'
p2746
tp2747
Rp2748
ag2016
(g242
S'\x8f\xad\xe1\xa1\x909\x0e@'
p2749
tp2750
Rp2751
aI01
aI00
aI00
aI00
aI00
asg567
(lp2752
I0
aI0
aI0
ag2016
(g242
S'I\xec\x94.3\xf0\xb9?'
p2753
tp2754
Rp2755
ag2016
(g242
S'\x0ce\x0e\xd58\\\x1b\xc0'
p2756
tp2757
Rp2758
ag2016
(g242
S'\xbd\xd0S\x17\xd8\xf0\xf1?'
p2759
tp2760
Rp2761
aI01
aI00
aI00
aI00
aI00
asg408
(lp2762
I0
aI0
aI0
ag2016
(g242
S'\xa6LoD\xf6\x8d\xfc?'
p2763
tp2764
Rp2765
ag2016
(g242
S'\xb7\x80*%]\xb5\x16\xc0'
p2766
tp2767
Rp2768
ag2016
(g242
S'KOq\xaa]\xb2\xcd?'
p2769
tp2770
Rp2771
aI01
aI00
aI01
aI00
aI00
asg306
(lp2772
I0
aI0
aI0
ag2016
(g242
S'\xdc\xb2\x87\r\x0cw\xda\xbf'
p2773
tp2774
Rp2775
ag2016
(g242
S'\x12\xbd\xabg_\x1a\x18\xc0'
p2776
tp2777
Rp2778
ag2016
(g242
S'z*B\xe8\xd6\xd9\x05@'
p2779
tp2780
Rp2781
aI01
aI00
aI00
aI00
aI00
assS'mc_place_path'
p2782
(dp2783
sS'parent_state'
p2784
NsS'goal_entities'
p2785
(lp2786
S'square_packing_box1'
p2787
ag233
asS'binary_edges'
p2788
(dp2789
(g459
g306
tp2790
(lp2791
I00
aI01
aI00
as(g459
g357
tp2792
(lp2793
I00
aI00
aI00
as(g232
g567
tp2794
(lp2795
I00
aI01
aI00
as(g232
g232
tp2796
(lp2797
I00
aI00
aI00
as(g606
g567
tp2798
(lp2799
I00
aI01
aI00
as(g606
g232
tp2800
(lp2801
I00
aI00
aI00
as(g306
g606
tp2802
(lp2803
I00
aI00
aI00
as(g459
g408
tp2804
(lp2805
I00
aI00
aI00
as(g510
g232
tp2806
(lp2807
I00
aI00
aI00
as(g357
g357
tp2808
(lp2809
I00
aI00
aI00
as(g606
g1271
tp2810
(lp2811
g2016
(g28
(S'b1'
p2812
I0
I1
tp2813
Rp2814
(I3
S'|'
p2815
NNNI-1
I-1
I0
tp2816
bS'\x01'
p2817
tp2818
Rp2819
aI00
aI01
as(g1274
g1271
tp2820
(lp2821
I00
aI00
aI00
as(g357
g306
tp2822
(lp2823
I00
aI00
aI00
as(g1271
g306
tp2824
(lp2825
I00
aI00
aI00
as(g408
g233
tp2826
(lp2827
I00
aI00
aI00
as(g1274
g606
tp2828
(lp2829
I00
aI00
aI00
as(g606
g306
tp2830
(lp2831
I00
aI01
aI00
as(g232
g1274
tp2832
(lp2833
g2819
aI00
aI00
as(g459
g459
tp2834
(lp2835
I00
aI00
aI00
as(g1271
g459
tp2836
(lp2837
I00
aI00
aI00
as(g567
g606
tp2838
(lp2839
I00
aI00
aI00
as(g606
g233
tp2840
(lp2841
I00
aI00
aI00
as(g510
g567
tp2842
(lp2843
I00
aI00
aI00
as(g357
g510
tp2844
(lp2845
I00
aI00
aI00
as(g408
g408
tp2846
(lp2847
I00
aI00
aI00
as(g606
g1274
tp2848
(lp2849
g2819
aI00
aI00
as(g1271
g606
tp2850
(lp2851
I00
aI00
aI00
as(g1271
g567
tp2852
(lp2853
I00
aI00
aI00
as(g1271
g232
tp2854
(lp2855
I00
aI00
aI00
as(g567
g233
tp2856
(lp2857
I00
aI00
aI00
as(g306
g357
tp2858
(lp2859
I00
aI00
aI00
as(g510
g357
tp2860
(lp2861
I00
aI00
aI00
as(g567
g510
tp2862
(lp2863
I00
aI00
aI00
as(g1271
g357
tp2864
(lp2865
I00
aI00
aI00
as(g1274
g233
tp2866
(lp2867
I00
aI00
aI00
as(g408
g606
tp2868
(lp2869
I00
aI01
aI00
as(g357
g567
tp2870
(lp2871
I00
aI00
aI00
as(g1274
g567
tp2872
(lp2873
I00
aI00
aI00
as(g567
g1274
tp2874
(lp2875
g2819
aI00
aI00
as(g232
g459
tp2876
(lp2877
I00
aI01
aI00
as(g306
g408
tp2878
(lp2879
I00
aI00
aI00
as(g232
g606
tp2880
(lp2881
I00
aI01
aI00
as(g306
g233
tp2882
(lp2883
I00
aI00
aI00
as(g1274
g1274
tp2884
(lp2885
I00
aI00
aI00
as(g567
g357
tp2886
(lp2887
I00
aI00
aI00
as(g408
g459
tp2888
(lp2889
I00
aI01
aI00
as(g233
g408
tp2890
(lp2891
I00
aI00
aI00
as(g510
g1271
tp2892
(lp2893
g2819
aI00
aI01
as(g233
g510
tp2894
(lp2895
I00
aI00
aI00
as(g306
g232
tp2896
(lp2897
I00
aI00
aI00
as(g232
g408
tp2898
(lp2899
I00
aI00
aI00
as(g567
g1271
tp2900
(lp2901
g2819
aI00
aI01
as(g232
g510
tp2902
(lp2903
I00
aI00
aI00
as(g567
g567
tp2904
(lp2905
I00
aI00
aI00
as(g510
g606
tp2906
(lp2907
I00
aI00
aI00
as(g1271
g233
tp2908
(lp2909
I00
aI00
aI00
as(g233
g459
tp2910
(lp2911
I00
aI00
aI00
as(g357
g233
tp2912
(lp2913
I00
aI00
aI00
as(g1274
g510
tp2914
(lp2915
I00
aI00
aI00
as(g233
g306
tp2916
(lp2917
I00
aI00
aI00
as(g232
g306
tp2918
(lp2919
I00
aI01
aI00
as(g510
g1274
tp2920
(lp2921
g2819
aI00
aI00
as(g306
g1271
tp2922
(lp2923
g2819
aI00
aI01
as(g510
g459
tp2924
(lp2925
I00
aI00
aI00
as(g357
g606
tp2926
(lp2927
I00
aI00
aI00
as(g357
g1271
tp2928
(lp2929
g2819
aI00
aI01
as(g233
g232
tp2930
(lp2931
I00
aI00
aI00
as(g1274
g306
tp2932
(lp2933
I00
aI00
aI00
as(g1274
g357
tp2934
(lp2935
I00
aI00
aI00
as(g510
g233
tp2936
(lp2937
I00
aI00
aI00
as(g459
g510
tp2938
(lp2939
I00
aI00
aI00
as(g408
g510
tp2940
(lp2941
I00
aI00
aI00
as(g233
g567
tp2942
(lp2943
I00
aI00
aI00
as(g1271
g1271
tp2944
(lp2945
I00
aI00
aI00
as(g459
g232
tp2946
(lp2947
I00
aI00
aI00
as(g408
g567
tp2948
(lp2949
I00
aI01
aI00
as(g1271
g408
tp2950
(lp2951
I00
aI00
aI00
as(g606
g357
tp2952
(lp2953
I00
aI00
aI00
as(g1271
g510
tp2954
(lp2955
I00
aI00
aI00
as(g408
g1274
tp2956
(lp2957
g2819
aI00
aI00
as(g459
g606
tp2958
(lp2959
I00
aI00
aI00
as(g232
g233
tp2960
(lp2961
I00
aI00
aI00
as(g408
g357
tp2962
(lp2963
I00
aI00
aI00
as(g357
g408
tp2964
(lp2965
I00
aI00
aI00
as(g606
g408
tp2966
(lp2967
I00
aI00
aI00
as(g1274
g459
tp2968
(lp2969
I00
aI00
aI00
as(g606
g510
tp2970
(lp2971
I00
aI00
aI00
as(g567
g459
tp2972
(lp2973
I00
aI00
aI00
as(g459
g1271
tp2974
(lp2975
g2819
aI00
aI01
as(g510
g510
tp2976
(lp2977
I00
aI00
aI00
as(g306
g459
tp2978
(lp2979
I00
aI00
aI00
as(g408
g306
tp2980
(lp2981
I00
aI01
aI00
as(g606
g459
tp2982
(lp2983
I00
aI00
aI00
as(g606
g606
tp2984
(lp2985
I00
aI00
aI00
as(g306
g510
tp2986
(lp2987
I00
aI00
aI00
as(g459
g233
tp2988
(lp2989
I00
aI00
aI00
as(g567
g408
tp2990
(lp2991
I00
aI00
aI00
as(g232
g1271
tp2992
(lp2993
g2819
aI00
aI01
as(g233
g606
tp2994
(lp2995
I00
aI00
aI00
as(g510
g408
tp2996
(lp2997
I00
aI01
aI00
as(g357
g232
tp2998
(lp2999
I00
aI00
aI00
as(g233
g1271
tp3000
(lp3001
I00
aI00
aI00
as(g459
g567
tp3002
(lp3003
I00
aI00
aI00
as(g1274
g232
tp3004
(lp3005
I00
aI00
aI00
as(g459
g1274
tp3006
(lp3007
g2819
aI00
aI00
as(g567
g232
tp3008
(lp3009
I00
aI00
aI00
as(g233
g233
tp3010
(lp3011
I00
aI00
aI00
as(g510
g306
tp3012
(lp3013
I00
aI00
aI00
as(g357
g1274
tp3014
(lp3015
g2819
aI00
aI00
as(g306
g1274
tp3016
(lp3017
g2819
aI00
aI00
as(g233
g1274
tp3018
(lp3019
I00
aI00
aI00
as(g233
g357
tp3020
(lp3021
I00
aI00
aI00
as(g567
g306
tp3022
(lp3023
I00
aI00
aI00
as(g306
g567
tp3024
(lp3025
I00
aI00
aI00
as(g232
g357
tp3026
(lp3027
I00
aI00
aI00
as(g1271
g1274
tp3028
(lp3029
I00
aI00
aI00
as(g408
g232
tp3030
(lp3031
I00
aI00
aI00
as(g357
g459
tp3032
(lp3033
I00
aI00
aI00
as(g306
g306
tp3034
(lp3035
I00
aI00
aI00
as(g408
g1271
tp3036
(lp3037
g2819
aI00
aI01
as(g1274
g408
tp3038
(lp3039
I00
aI00
aI00
assg681
g682
sS'pick_in_way'
p3040
(itrajectory_representation.predicates.pick_in_way
PickInWay
p3041
(dp3042
g230
(dp3043
g357
g1840
sg606
g1883
sg232
g1914
sg510
g951
sg459
g1921
sg567
g1952
sg408
g1116
sg306
g1983
ssg645
(dp3044
g357
(lp3045
sg606
(lp3046
Vrectangular_packing_box3
p3047
aVsquare_packing_box1
p3048
asg232
(lp3049
sg510
(lp3050
sg459
(lp3051
Vrectangular_packing_box3
p3052
aVsquare_packing_box1
p3053
asg567
(lp3054
Vrectangular_packing_box3
p3055
aVsquare_packing_box1
p3056
aVrectangular_packing_box2
p3057
asg408
(lp3058
Vrectangular_packing_box1
p3059
asg306
(lp3060
Vrectangular_packing_box3
p3061
aVsquare_packing_box1
p3062
aVrectangular_packing_box2
p3063
aVsquare_packing_box2
p3064
assg681
(lp3065
g510
ag232
ag357
ag1274
ag233
ag1271
ag1274
ag233
ag1271
ag1274
ag233
ag1271
ag1274
ag233
ag1271
ag1274
ag233
ag1271
ag1274
ag233
ag1271
ag1274
ag233
ag1271
ag1274
ag233
ag1271
asg685
g686
sg125
(dp3066
sg720
g721
sg1199
Nsg1205
g721
sg1202
(dp3067
sg1204
I8
sg1266
I01
sg1206
Nsg1207
(dp3068
(g459
g306
tp3069
I01
s(g459
g357
tp3070
I00
s(g232
g567
tp3071
I01
s(g232
g232
tp3072
I00
s(g606
g567
tp3073
I01
s(g606
g232
tp3074
I00
s(g306
g606
tp3075
I00
s(g459
g408
tp3076
I00
s(g510
g232
tp3077
I00
s(g357
g357
tp3078
I00
s(g606
g1271
tp3079
I00
s(g1274
g1271
tp3080
I00
s(g357
g306
tp3081
I00
s(g1271
g306
tp3082
I00
s(g408
g233
tp3083
I00
s(g1274
g606
tp3084
I00
s(g606
g306
tp3085
I01
s(g232
g1274
tp3086
I00
s(g459
g459
tp3087
I00
s(g1271
g459
tp3088
I00
s(g567
g606
tp3089
I00
s(g606
g233
tp3090
I00
s(g510
g567
tp3091
I00
s(g357
g510
tp3092
I00
s(g408
g408
tp3093
I00
s(g606
g1274
tp3094
I00
s(g1271
g606
tp3095
I00
s(g1271
g567
tp3096
I00
s(g1271
g232
tp3097
I00
s(g567
g233
tp3098
I00
s(g306
g357
tp3099
I00
s(g510
g357
tp3100
I00
s(g567
g510
tp3101
I00
s(g1271
g357
tp3102
I00
s(g1274
g233
tp3103
I00
s(g408
g606
tp3104
I01
s(g357
g567
tp3105
I00
s(g1274
g567
tp3106
I00
s(g567
g1274
tp3107
I00
s(g232
g459
tp3108
I01
s(g306
g408
tp3109
I00
s(g232
g606
tp3110
I01
s(g306
g233
tp3111
I00
s(g1274
g1274
tp3112
I00
s(g567
g357
tp3113
I00
s(g408
g459
tp3114
I01
s(g233
g408
tp3115
I00
s(g510
g1271
tp3116
I00
s(g233
g510
tp3117
I00
s(g306
g232
tp3118
I00
s(g232
g408
tp3119
I00
s(g567
g1271
tp3120
I00
s(g232
g510
tp3121
I00
s(g567
g567
tp3122
I00
s(g510
g606
tp3123
I00
s(g1271
g233
tp3124
I00
s(g233
g459
tp3125
I00
s(g357
g233
tp3126
I00
s(g1274
g510
tp3127
I00
s(g233
g306
tp3128
I00
s(g232
g306
tp3129
I01
s(g510
g1274
tp3130
I00
s(g306
g1271
tp3131
I00
s(g510
g459
tp3132
I00
s(g357
g606
tp3133
I00
s(g357
g1271
tp3134
I00
s(g233
g232
tp3135
I00
s(g1274
g306
tp3136
I00
s(g1274
g357
tp3137
I00
s(g510
g233
tp3138
I00
s(g459
g510
tp3139
I00
s(g408
g510
tp3140
I00
s(g233
g567
tp3141
I00
s(g1271
g1271
tp3142
I00
s(g459
g232
tp3143
I00
s(g408
g567
tp3144
I01
s(g1271
g408
tp3145
I00
s(g606
g357
tp3146
I00
s(g1271
g510
tp3147
I00
s(g408
g1274
tp3148
I00
s(g459
g606
tp3149
I00
s(g232
g233
tp3150
I00
s(g408
g357
tp3151
I00
s(g357
g408
tp3152
I00
s(g606
g408
tp3153
I00
s(g1274
g459
tp3154
I00
s(g606
g510
tp3155
I00
s(g567
g459
tp3156
I00
s(g459
g1271
tp3157
I00
s(g510
g510
tp3158
I00
s(g306
g459
tp3159
I00
s(g408
g306
tp3160
I01
s(g606
g459
tp3161
I00
s(g606
g606
tp3162
I00
s(g306
g510
tp3163
I00
s(g459
g233
tp3164
I00
s(g567
g408
tp3165
I00
s(g232
g1271
tp3166
I00
s(g233
g606
tp3167
I00
s(g510
g408
tp3168
I01
s(g357
g232
tp3169
I00
s(g233
g1271
tp3170
I00
s(g459
g567
tp3171
I00
s(g1274
g232
tp3172
I00
s(g459
g1274
tp3173
I00
s(g567
g232
tp3174
I00
s(g233
g233
tp3175
I00
s(g510
g306
tp3176
I00
s(g357
g1274
tp3177
I00
s(g306
g1274
tp3178
I00
s(g233
g1274
tp3179
I00
s(g233
g357
tp3180
I00
s(g567
g306
tp3181
I00
s(g306
g567
tp3182
I00
s(g232
g357
tp3183
I00
s(g1271
g1274
tp3184
I00
s(g408
g232
tp3185
I00
s(g357
g459
tp3186
I00
s(g306
g306
tp3187
I00
s(g408
g1271
tp3188
I00
s(g1274
g408
tp3189
I00
ssg1265
NsbsS'robot_pose'
p3190
g21
(g22
(I0
tp3191
g24
tp3192
Rp3193
(I1
(I1
I3
tp3194
g242
I00
S'\xbf\x94\xa0\x97\xd7x\x0c@p\riz\xd7\x8f\x1a\xc0\xb5\xb8\xb1\xf1;h\n@'
p3195
tp3196
bsS'is_holding_goal_entity'
p3197
(itrajectory_representation.predicates.is_holding_goal_entity
IsHoldingGoalEntity
p3198
(dp3199
g2785
g2786
sg1206
NsbsS'mc_pick_path'
p3200
(dp3201
sS'current_collides'
p3202
g686
sba(itrajectory_representation.shortest_path_pick_and_place_state
ShortestPathPaPState
p3203
(dp3204
g125
(dp3205
g128
(itrajectory_representation.operator
Operator
p3206
(dp3207
g8
I01
sg9
(dp3208
g132
g82
sg11
g127
ssg16
g133
sg18
(dp3209
g20
g21
(g22
(I0
tp3210
g24
tp3211
Rp3212
(I1
(I3
tp3213
g31
I00
S'\xc8\xea\xb6\xb9\xb4\xbf\xf0?\xf3A\xbfn-\xbc\xff\xbf\xe6\x0c\xaf\xb5+\xe3\xed?'
p3214
tp3215
bssg46
(lp3216
g21
(g22
(I0
tp3217
g24
tp3218
Rp3219
(I1
(I3
tp3220
g31
I00
S'>9P\xaa\xac\xa3\x00@\xa1*\x83V\xa4h\x19\xc0t\\3\xcaU0\x02@'
p3221
tp3222
bag21
(g22
(I0
tp3223
g24
tp3224
Rp3225
(I1
(I3
tp3226
g60
I00
S'\xc6\xf1T\x16)\x02\xfe?\xa8\x7fQ\xf5\xbb\x10\x19\xc0\xa38\tS\x83\x84\x05@'
p3227
tp3228
bag21
(g22
(I0
tp3229
g24
tp3230
Rp3231
(I1
(I3
tp3232
g60
I00
S'\x84\xa2s4\xa1\xd0\xf6?E=|\xb9\xcam\x17\xc0\xa93^V\xfc\xed\x05@'
p3233
tp3234
bag21
(g22
(I0
tp3235
g24
tp3236
Rp3237
(I1
(I3
tp3238
g60
I00
S'E6\xa2Z]\x01\xe8?\x8b\x06T\x92\xa7\x82\x16\xc0q\xc1\x9f~\xe7\n\xfb?'
p3239
tp3240
bag21
(g22
(I0
tp3241
g24
tp3242
Rp3243
(I1
(I3
tp3244
g60
I00
S'v\xb8^\x85\xa7[\xea?x\xbe\xff2t\x8d\x13\xc0\x88\x85\x8cCyH\xf6?'
p3245
tp3246
bag21
(g22
(I0
tp3247
g24
tp3248
Rp3249
(I1
(I3
tp3250
g60
I00
S'\xc2\xda(e\x83\x1a\xeb?\x8au\x8d3\xa6E\x11\xc0\xb4c\x1b\xed_\xfd\xfa?'
p3251
tp3252
bag21
(g22
(I0
tp3253
g24
tp3254
Rp3255
(I1
(I3
tp3256
g60
I00
S'\xe4u**\x0e5\xe9?\xaa\xfd\r\xed\xc4\xf6\r\xc0\x0fDE0\x1f\x0b\xfe?'
p3257
tp3258
bag21
(g22
(I0
tp3259
g24
tp3260
Rp3261
(I1
(I3
tp3262
g60
I00
S'\x06\x11,\xef\x98O\xe7??\x10\x01s=b\t\xc04\x92\xb79o\x8c\x00@'
p3263
tp3264
bag21
(g22
(I0
tp3265
g24
tp3266
Rp3267
(I1
(I3
tp3268
g60
I00
S'\x0e\n\xf3\x14\x91\x9e\xf3?\x1c\x0cAZ"\xfa\x05\xc0\xf8\x01c\x9bq\'\xfc?'
p3269
tp3270
bag3212
ag3212
asbssg227
(itrajectory_representation.predicates.place_in_way
PlaceInWay
p3271
(dp3272
g230
(dp3273
(g232
g233
tp3274
(lp3275
g21
(g22
(I0
tp3276
g24
tp3277
Rp3278
(I1
(I3
tp3279
g242
I00
S'xO\x9cnO\xa6\x07@\xb3\xad\x06\xf8\x9a\xd5\x18\xc0E\x94\x1d\xd7\xf0\x01\x03@'
p3280
tp3281
bag21
(g22
(I0
tp3282
g24
tp3283
Rp3284
(I1
(I3
tp3285
g253
I00
S'\xf8d\x877\x12\xfd\x04@h\xdbW\x9a\x83\x8e\x16\xc0\x87\xf16\xb9\x03k\x05@'
p3286
tp3287
bag21
(g22
(I0
tp3288
g24
tp3289
Rp3290
(I1
(I3
tp3291
g253
I00
S'\xc7\xc7\x06s\xd6\xa3\xff?3\x91\xe4\x97\xb5\x07\x16\xc0\x1bW\xbc\xbfY:\x06@'
p3292
tp3293
bag21
(g22
(I0
tp3294
g24
tp3295
Rp3296
(I1
(I3
tp3297
g253
I00
S'\x84\xa2s4\xa1\xd0\xf6?E=|\xb9\xcam\x17\xc0\xa93^V\xfc\xed\x05@'
p3298
tp3299
bag21
(g22
(I0
tp3300
g24
tp3301
Rp3302
(I1
(I3
tp3303
g253
I00
S'f\xb4\x9c\x07\xac\xbf\xec?n\x96\x96\x9e\x90n\x16\xc0uo!\xa9\x9b\x82\x07@'
p3304
tp3305
bag21
(g22
(I0
tp3306
g24
tp3307
Rp3308
(I1
(I3
tp3309
g253
I00
S'm\xd5h\x072\x03\xea?\xdf\xe5\xe82\xd3\x17\x14\xc0\x08\x9e\xe1\xfbO\x94\x08@'
p3310
tp3311
bag21
(g22
(I0
tp3312
g24
tp3313
Rp3314
(I1
(I3
tp3315
g253
I00
S'\xc6\x05\xbdtg\xd9\xe2?F\xdf\x9d@\\\xf3\x11\xc0\x1a\xc4.\xbb\xcc\x12\x02@'
p3316
tp3317
bag21
(g22
(I0
tp3318
g24
tp3319
Rp3320
(I1
(I3
tp3321
g253
I00
S'3z\xed\x8eN)\xe4?\x0c\x96\xd4\xa2\x0e\xd0\r\xc0\xbd%\xf5{\xe9\xf9\x03@'
p3322
tp3323
bag21
(g22
(I0
tp3324
g24
tp3325
Rp3326
(I1
(I3
tp3327
g253
I00
S'\xaf0\xe9h\xba~\xee?k\xbb\xd8\xd4\xd0g\t\xc09\x9ey\xed\xb06\x06@'
p3328
tp3329
bag21
(g22
(I0
tp3330
g24
tp3331
Rp3332
(I1
(I3
tp3333
g253
I00
S'\xf4\xfdJ\x1a(#\xec?H"\x9cD\x1aE\x05\xc0.\xa9\x0b\x87\xf8\xe1\x02@'
p3334
tp3335
bas(g306
g233
tp3336
(lp3337
g21
(g22
(I0
tp3338
g24
tp3339
Rp3340
(I1
(I3
tp3341
g242
I00
S'\xb0\x13\x84z\xa1\x07\xd0?\xa3\x17>=\x976\x1a\xc0\xdd\xfb\xff,\re\x03@'
p3342
tp3343
bag21
(g22
(I0
tp3344
g24
tp3345
Rp3346
(I1
(I3
tp3347
g253
I00
S'ib\xa2\x0c9\xe9\xd7?\xca\xcd\xb4=\xe6_\x18\xc0tY\xa4\x97\x8d\xd7\x02@'
p3348
tp3349
bag21
(g22
(I0
tp3350
g24
tp3351
Rp3352
(I1
(I3
tp3353
g253
I00
S'o\xd6\x82\xea\x7f\xb2\xed?9\xf2C\x0b?\xfd\x16\xc0(?d\xe9@\xb5\x02@'
p3354
tp3355
bag21
(g22
(I0
tp3356
g24
tp3357
Rp3358
(I1
(I3
tp3359
g253
I00
S'&>c9\x01,\xeb?\xb2\xc2\xf0\x02\xce\x8e\x14\xc0\xd8p\xbb2\x14\xd2\x03@'
p3360
tp3361
bag21
(g22
(I0
tp3362
g24
tp3363
Rp3364
(I1
(I3
tp3365
g253
I00
S'\xc6\x05\xbdtg\xd9\xe2?F\xdf\x9d@\\\xf3\x11\xc0\x1a\xc4.\xbb\xcc\x12\x02@'
p3366
tp3367
bag21
(g22
(I0
tp3368
g24
tp3369
Rp3370
(I1
(I3
tp3371
g253
I00
S'3z\xed\x8eN)\xe4?\x0c\x96\xd4\xa2\x0e\xd0\r\xc0\xbd%\xf5{\xe9\xf9\x03@'
p3372
tp3373
bag21
(g22
(I0
tp3374
g24
tp3375
Rp3376
(I1
(I3
tp3377
g253
I00
S'\xaf0\xe9h\xba~\xee?k\xbb\xd8\xd4\xd0g\t\xc09\x9ey\xed\xb06\x06@'
p3378
tp3379
bag21
(g22
(I0
tp3380
g24
tp3381
Rp3382
(I1
(I3
tp3383
g253
I00
S'\xf4\xfdJ\x1a(#\xec?H"\x9cD\x1aE\x05\xc0.\xa9\x0b\x87\xf8\xe1\x02@'
p3384
tp3385
bas(g357
g233
tp3386
(lp3387
g21
(g22
(I0
tp3388
g24
tp3389
Rp3390
(I1
(I3
tp3391
g242
I00
S'p\xc8Zi\x80n\xee?_eh1\xc0\xb8\x1c\xc02"\xe2\xf04 \x13@'
p3392
tp3393
bag21
(g22
(I0
tp3394
g24
tp3395
Rp3396
(I1
(I3
tp3397
g253
I00
S'Pa\x88\xb1[\x02\xf1?\x1e\x1c\xb3\x8d\x8c\xb7\x19\xc0t\xf6\xbb\xc4\x878\x11@'
p3398
tp3399
bag21
(g22
(I0
tp3400
g24
tp3401
Rp3402
(I1
(I3
tp3403
g253
I00
S'\x07\xe5\xeeo\xc2@\xf0?\x80*\x19Ng\xcf\x17\xc0\xccm\xca\xd2+4\x0f@'
p3404
tp3405
bag21
(g22
(I0
tp3406
g24
tp3407
Rp3408
(I1
(I3
tp3409
g253
I00
S'\xa5P\xd1\x87\x88:\xe5?\xd8\xf1\xd1l\xc6\x00\x15\xc0{\xeaM\xb0\xfa\x02\x0e@'
p3410
tp3411
bag21
(g22
(I0
tp3412
g24
tp3413
Rp3414
(I1
(I3
tp3415
g253
I00
S'\xc6\x05\xbdtg\xd9\xe2?F\xdf\x9d@\\\xf3\x11\xc0\x1a\xc4.\xbb\xcc\x12\x02@'
p3416
tp3417
bag21
(g22
(I0
tp3418
g24
tp3419
Rp3420
(I1
(I3
tp3421
g253
I00
S'3z\xed\x8eN)\xe4?\x0c\x96\xd4\xa2\x0e\xd0\r\xc0\xbd%\xf5{\xe9\xf9\x03@'
p3422
tp3423
bag21
(g22
(I0
tp3424
g24
tp3425
Rp3426
(I1
(I3
tp3427
g253
I00
S'\xaf0\xe9h\xba~\xee?k\xbb\xd8\xd4\xd0g\t\xc09\x9ey\xed\xb06\x06@'
p3428
tp3429
bag21
(g22
(I0
tp3430
g24
tp3431
Rp3432
(I1
(I3
tp3433
g253
I00
S'\xf4\xfdJ\x1a(#\xec?H"\x9cD\x1aE\x05\xc0.\xa9\x0b\x87\xf8\xe1\x02@'
p3434
tp3435
bas(g408
g233
tp3436
(lp3437
g21
(g22
(I0
tp3438
g24
tp3439
Rp3440
(I1
(I3
tp3441
g242
I00
S'\\9P\xaa\xac\xa3\x00@\x9f*\x83V\xa4h\x19\xc0w\\3\xcaU0\x02@'
p3442
tp3443
bag21
(g22
(I0
tp3444
g24
tp3445
Rp3446
(I1
(I3
tp3447
g253
I00
S'\xe0 ;\x819w\xfd?\xe7\xcc\xc2\xa0\xa5f\x17\xc04\xedq\x1c\x8eK\xfa?'
p3448
tp3449
bag21
(g22
(I0
tp3450
g24
tp3451
Rp3452
(I1
(I3
tp3453
g253
I00
S'\x85\\2\xba\x0b5\xf5?I\r\x06\xd10\xfb\x15\xc0\x9e\x11\xee\xd8\xb9\xd7\xf5?'
p3454
tp3455
bag21
(g22
(I0
tp3456
g24
tp3457
Rp3458
(I1
(I3
tp3459
g253
I00
S'v\xb8^\x85\xa7[\xea?x\xbe\xff2t\x8d\x13\xc0\x88\x85\x8cCyH\xf6?'
p3460
tp3461
bag21
(g22
(I0
tp3462
g24
tp3463
Rp3464
(I1
(I3
tp3465
g253
I00
S'\xc2\xda(e\x83\x1a\xeb?\x8au\x8d3\xa6E\x11\xc0\xb4c\x1b\xed_\xfd\xfa?'
p3466
tp3467
bag21
(g22
(I0
tp3468
g24
tp3469
Rp3470
(I1
(I3
tp3471
g253
I00
S'\xe4u**\x0e5\xe9?\xaa\xfd\r\xed\xc4\xf6\r\xc0\x0fDE0\x1f\x0b\xfe?'
p3472
tp3473
bag21
(g22
(I0
tp3474
g24
tp3475
Rp3476
(I1
(I3
tp3477
g253
I00
S'\x06\x11,\xef\x98O\xe7??\x10\x01s=b\t\xc04\x92\xb79o\x8c\x00@'
p3478
tp3479
bag21
(g22
(I0
tp3480
g24
tp3481
Rp3482
(I1
(I3
tp3483
g253
I00
S'\x92\xaf\xf3P\x96O\xc2?(\xa1:\x8er}\x05\xc0\xd4_\x91\xb3\xffL\x02@'
p3484
tp3485
bas(g459
g233
tp3486
(lp3487
g21
(g22
(I0
tp3488
g24
tp3489
Rp3490
(I1
(I3
tp3491
g242
I00
S'\xa8\xfe\x91o\xa4\x96\xe1?\xf3\xbc\x82g\xd9\xe8\x19\xc0\xc4\xd4\xb0\xaf2\x01\xff?'
p3492
tp3493
bag21
(g22
(I0
tp3494
g24
tp3495
Rp3496
(I1
(I3
tp3497
g253
I00
S'B\x9aa8\x98\xa6\xe8?\xf3\xe9\x94/\xc2\xe4\x18\xc0u\xf8\xb0\x7fO\xb8\xf2?'
p3498
tp3499
bag21
(g22
(I0
tp3500
g24
tp3501
Rp3502
(I1
(I3
tp3503
g253
I00
S'\xd8\x87\x03p)T\xe4?\xd5\xabI\xb7V\xd0\x15\xc0vWg\x9a\x87\x8a\xec?'
p3504
tp3505
bag21
(g22
(I0
tp3506
g24
tp3507
Rp3508
(I1
(I3
tp3509
g253
I00
S'\xa9\xd9\x1d\x8d\xa6j\xdf?\xa0\x85\x1a\x84\xc6\xec\x12\xc0\x01\xb6 H\xb1\x91\xeb?'
p3510
tp3511
bag21
(g22
(I0
tp3512
g24
tp3513
Rp3514
(I1
(I3
tp3515
g253
I00
S'\x93k\xbc\xee\xc2\x10\xe8?\xab^\x86?\x08D\x10\xc0\x10;2\x00\xe5\t\xde?'
p3516
tp3517
bag21
(g22
(I0
tp3518
g24
tp3519
Rp3520
(I1
(I3
tp3521
g253
I00
S'\xef\xc3u*\xfb\xdb\xeb?\x8d\xa5\n\xfd\x03<\n\xc0\xd8\xfb\xde\x16R\xac\xde?'
p3522
tp3523
bag21
(g22
(I0
tp3524
g24
tp3525
Rp3526
(I1
(I3
tp3527
g253
I00
S'\xf4\xfdJ\x1a(#\xec?H"\x9cD\x1aE\x05\xc0.\xa9\x0b\x87\xf8\xe1\x02@'
p3528
tp3529
bas(g510
g233
tp3530
(lp3531
g21
(g22
(I0
tp3532
g24
tp3533
Rp3534
(I1
(I3
tp3535
g242
I00
S'^p\xe0\x18\xfcX\x05@\x95O\xe2W\r\xc2\x1d\xc0\xbb\x89\xcfi\xef\x9a\x0c@'
p3536
tp3537
bag21
(g22
(I0
tp3538
g24
tp3539
Rp3540
(I1
(I3
tp3541
g253
I00
S'\xf9\xba\xbb\xd8\xde<\x02@\x99\xbe:\xeaE5\x1b\xc0!\x7fo\x1e\nW\x0f@'
p3542
tp3543
bag21
(g22
(I0
tp3544
g24
tp3545
Rp3546
(I1
(I3
tp3547
g253
I00
S'\xc6\xf1T\x16)\x02\xfe?\xa8\x7fQ\xf5\xbb\x10\x19\xc0\xa38\tS\x83\x84\x05@'
p3548
tp3549
bag21
(g22
(I0
tp3550
g24
tp3551
Rp3552
(I1
(I3
tp3553
g253
I00
S'\x84\xa2s4\xa1\xd0\xf6?E=|\xb9\xcam\x17\xc0\xa93^V\xfc\xed\x05@'
p3554
tp3555
bag21
(g22
(I0
tp3556
g24
tp3557
Rp3558
(I1
(I3
tp3559
g253
I00
S'f\xb4\x9c\x07\xac\xbf\xec?n\x96\x96\x9e\x90n\x16\xc0uo!\xa9\x9b\x82\x07@'
p3560
tp3561
bag21
(g22
(I0
tp3562
g24
tp3563
Rp3564
(I1
(I3
tp3565
g253
I00
S'm\xd5h\x072\x03\xea?\xdf\xe5\xe82\xd3\x17\x14\xc0\x08\x9e\xe1\xfbO\x94\x08@'
p3566
tp3567
bag21
(g22
(I0
tp3568
g24
tp3569
Rp3570
(I1
(I3
tp3571
g253
I00
S'\xc6\x05\xbdtg\xd9\xe2?F\xdf\x9d@\\\xf3\x11\xc0\x1a\xc4.\xbb\xcc\x12\x02@'
p3572
tp3573
bag21
(g22
(I0
tp3574
g24
tp3575
Rp3576
(I1
(I3
tp3577
g253
I00
S'3z\xed\x8eN)\xe4?\x0c\x96\xd4\xa2\x0e\xd0\r\xc0\xbd%\xf5{\xe9\xf9\x03@'
p3578
tp3579
bag21
(g22
(I0
tp3580
g24
tp3581
Rp3582
(I1
(I3
tp3583
g253
I00
S'\xaf0\xe9h\xba~\xee?k\xbb\xd8\xd4\xd0g\t\xc09\x9ey\xed\xb06\x06@'
p3584
tp3585
bag21
(g22
(I0
tp3586
g24
tp3587
Rp3588
(I1
(I3
tp3589
g253
I00
S'\xf4\xfdJ\x1a(#\xec?H"\x9cD\x1aE\x05\xc0.\xa9\x0b\x87\xf8\xe1\x02@'
p3590
tp3591
bas(g567
g233
tp3592
(lp3593
g21
(g22
(I0
tp3594
g24
tp3595
Rp3596
(I1
(I3
tp3597
g242
I00
S"\xe0\xd0\xc0\x05\xff\xa7\xc9?G\x8d\xe4\x9b6\x9c\x18\xc0\xa6v\x05)'\x8a\x12@"
p3598
tp3599
bag21
(g22
(I0
tp3600
g24
tp3601
Rp3602
(I1
(I3
tp3603
g253
I00
S'\xbc\xcaD\xb3\xa5\xd0\xda?5\x9e\xd8L\xbc\xff\x15\xc0\x86v/\xef\x06;\xe9\xbf'
p3604
tp3605
bag21
(g22
(I0
tp3606
g24
tp3607
Rp3608
(I1
(I3
tp3609
g253
I00
S"\xb2&6mg)\xe8?\x99\xe0G'\x16\xe0\x13\xc0\xc8oL\xf5\x17p\xe6\xbf"
p3610
tp3611
bag21
(g22
(I0
tp3612
g24
tp3613
Rp3614
(I1
(I3
tp3615
g253
I00
S'`\xc8Aw-\x81\xeb?/\xc3\xe6O\x04\xca\x10\xc0\x8a\xb7K)\x91{\xe4\xbf'
p3616
tp3617
bag21
(g22
(I0
tp3618
g24
tp3619
Rp3620
(I1
(I3
tp3621
g253
I00
S'\xe1\xc6\xc7\xa7\x12X\xe7?\x98\x99\xb0\x9a\xfb\xdb\x0b\xc0R\t\x1b)\xeae\xe0\xbf'
p3622
tp3623
bag21
(g22
(I0
tp3624
g24
tp3625
Rp3626
(I1
(I3
tp3627
g253
I00
S'p\xf1\xbdc^\x84\xf1?"\x88LL\xf9D\x06\xc0~w\r\xe9m\x0f\x19@'
p3628
tp3629
bas(g606
g233
tp3630
(lp3631
g21
(g22
(I0
tp3632
g24
tp3633
Rp3634
(I1
(I3
tp3635
g242
I00
S'@Iw\x96\xd7K\xb0\xbf\x01\xddz\x8b@\xca\x18\xc0\x8ek\xc0\xdd_\xb7\xd4?'
p3636
tp3637
bag21
(g22
(I0
tp3638
g24
tp3639
Rp3640
(I1
(I3
tp3641
g253
I00
S'\xe4\x02R\xd9\x08\x8c\xc7?2\xc1\xd4;\xf6\xf3\x15\xc0>\x8c\x8fa?0\xd8?'
p3642
tp3643
bag21
(g22
(I0
tp3644
g24
tp3645
Rp3646
(I1
(I3
tp3647
g253
I00
S'\xcc\x87!\x1f\xfb\x05\xe6?\x14;\x08\xf1<\xc6\x13\xc0V!\xac1j\x94\xc8?'
p3648
tp3649
bag21
(g22
(I0
tp3650
g24
tp3651
Rp3652
(I1
(I3
tp3653
g253
I00
S'`\xc8Aw-\x81\xeb?/\xc3\xe6O\x04\xca\x10\xc0\x8a\xb7K)\x91{\xe4\xbf'
p3654
tp3655
bag21
(g22
(I0
tp3656
g24
tp3657
Rp3658
(I1
(I3
tp3659
g253
I00
S'\xe1\xc6\xc7\xa7\x12X\xe7?\x98\x99\xb0\x9a\xfb\xdb\x0b\xc0R\t\x1b)\xeae\xe0\xbf'
p3660
tp3661
bag21
(g22
(I0
tp3662
g24
tp3663
Rp3664
(I1
(I3
tp3665
g253
I00
S'p\xf1\xbdc^\x84\xf1?"\x88LL\xf9D\x06\xc0~w\r\xe9m\x0f\x19@'
p3666
tp3667
bassg645
(dp3668
(g232
g233
tp3669
(lp3670
Vsquare_packing_box1
p3671
aVsquare_packing_box2
p3672
as(g306
g233
tp3673
(lp3674
Vrectangular_packing_box2
p3675
aVsquare_packing_box3
p3676
aVsquare_packing_box2
p3677
as(g357
g233
tp3678
(lp3679
Vrectangular_packing_box2
p3680
aVsquare_packing_box3
p3681
aVsquare_packing_box2
p3682
aVsquare_packing_box4
p3683
as(g408
g233
tp3684
(lp3685
Vrectangular_packing_box3
p3686
as(g459
g233
tp3687
(lp3688
Vrectangular_packing_box2
p3689
aVsquare_packing_box3
p3690
as(g510
g233
tp3691
(lp3692
Vsquare_packing_box1
p3693
aVrectangular_packing_box2
p3694
aVsquare_packing_box2
p3695
as(g567
g233
tp3696
(lp3697
Vsquare_packing_box2
p3698
aVrectangular_packing_box2
p3699
as(g606
g233
tp3700
(lp3701
Vsquare_packing_box2
p3702
aVsquare_packing_box4
p3703
aVsquare_packing_box1
p3704
assg681
(lp3705
Vrectangular_packing_box4
p3706
aVrectangular_packing_box3
p3707
aVrectangular_packing_box1
p3708
ag80
asg685
(dp3709
Vrectangular_packing_box4
p3710
g691
sVrectangular_packing_box2
p3711
g695
sVrectangular_packing_box3
p3712
g699
sVrectangular_packing_box1
p3713
g688
((lp3714
I256
aI513
aI514
aI259
aI392
aI145
aI515
aI406
aI407
aI286
aI543
aI552
aI556
aI429
aI443
aI444
aI66
aI67
aI118
aI585
aI463
aI464
aI593
aI610
aI358
aI240
aI374
aI119
aI120
aI505
aI123
atp3715
Rp3716
sVsquare_packing_box2
p3717
g707
sVsquare_packing_box3
p3718
g711
sVsquare_packing_box1
p3719
g715
sVsquare_packing_box4
p3720
g719
ssg125
g3205
sg720
(dp3721
g3706
g722
sVrectangular_packing_box2
p3722
g806
sg3707
g867
sg3708
(itrajectory_representation.operator
Operator
p3723
(dp3724
g8
I01
sg9
(dp3725
g725
Vrectangular_packing_box1
p3726
ssg16
g727
sg18
(dp3727
g729
(lp3728
g21
(g22
(I0
tp3729
g24
tp3730
Rp3731
(I1
(I3
tp3732
g242
I00
S'^p\xe0\x18\xfcX\x05@\x95O\xe2W\r\xc2\x1d\xc0t\xd0\xb8>\x07\xa9\x05\xc0'
p3733
tp3734
bag21
(g22
(I0
tp3735
g24
tp3736
Rp3737
(I1
(I3
tp3738
g242
I00
S'\x13\xabX\xc2`\x03\xf9?~{Tb1\x8b\x1c\xc0\x16\xbe`\x0c\xdf^\xdf\xbf'
p3739
tp3740
bag21
(g22
(I0
tp3741
g24
tp3742
Rp3743
(I1
(I3
tp3744
g242
I00
S'\xa5\xb0\xda\xfc?-\xfa?\xa6\xc3fLp\xa7\x1c\xc0\x15\x1e?S\xb5T\xf6\xbf'
p3745
tp3746
basg749
I00
ssg46
(lp3747
g21
(g22
(I0
tp3748
g24
tp3749
Rp3750
(I1
(I3
tp3751
g242
I00
S'\xc0\xea\xb6\xb9\xb4\xbf\xf0?\xf6A\xbfn-\xbc\xff\xbf\xdb\x0c\xaf\xb5+\xe3\xed?'
p3752
tp3753
bag21
(g22
(I0
tp3754
g24
tp3755
Rp3756
(I1
(I3
tp3757
g253
I00
S'\x0e\n\xf3\x14\x91\x9e\xf3?\x1c\x0cAZ"\xfa\x05\xc0\xf8\x01c\x9bq\'\xfc?'
p3758
tp3759
bag21
(g22
(I0
tp3760
g24
tp3761
Rp3762
(I1
(I3
tp3763
g253
I00
S'\xd1\xaa\x15!\x8c\x06\xed?\x8c\xab\xab^w\xe3\t\xc0~&\xcc\xa2\xcbw\xf6?'
p3764
tp3765
bag21
(g22
(I0
tp3766
g24
tp3767
Rp3768
(I1
(I3
tp3769
g253
I00
S'y\xd4\xbc{`\x0b\xf2?\xb0C6m\xb7\xd6\x0e\xc0\xe8\xe2r\xbe\x16{\xf5?'
p3770
tp3771
bag21
(g22
(I0
tp3772
g24
tp3773
Rp3774
(I1
(I3
tp3775
g253
I00
S'\xf3In\x9c \xb1\xee?\x10D/\xcc\x0f}\x11\xc0\xda0\xdf\x1au:\xf0?'
p3776
tp3777
bag21
(g22
(I0
tp3778
g24
tp3779
Rp3780
(I1
(I3
tp3781
g253
I00
S'v\xb8^\x85\xa7[\xea?x\xbe\xff2t\x8d\x13\xc0\x88\x85\x8cCyH\xf6?'
p3782
tp3783
bag21
(g22
(I0
tp3784
g24
tp3785
Rp3786
(I1
(I3
tp3787
g253
I00
S'\x85\\2\xba\x0b5\xf5?I\r\x06\xd10\xfb\x15\xc0\x9e\x11\xee\xd8\xb9\xd7\xf5?'
p3788
tp3789
bag21
(g22
(I0
tp3790
g24
tp3791
Rp3792
(I1
(I3
tp3793
g253
I00
S'j\xc7\xc0&\x8ag\xf6?h\x9cH4\x7f\xab\x18\xc0\xd8|\x1d\xfc\xcbV\xf2?'
p3794
tp3795
bag21
(g22
(I0
tp3796
g24
tp3797
Rp3798
(I1
(I3
tp3799
g253
I00
S'\x05\x83iK\x01\x86\xfb?\x162zB{\xdc\x1a\xc0T\xd8\x04\x17\xd4b\xea\xbf'
p3800
tp3801
bag3737
asbsVsquare_packing_box2
p3802
g977
sVsquare_packing_box3
p3803
g1039
sg80
(itrajectory_representation.operator
Operator
p3804
(dp3805
g8
I01
sg9
(dp3806
g11
g80
ssg16
g943
sg18
(dp3807
g20
g21
(g22
(I0
tp3808
g24
tp3809
Rp3810
(I1
(I3
tp3811
g31
I00
S'V9P\xaa\xac\xa3\x00@\xa2*\x83V\xa4h\x19\xc0w\\3\xcaU0\x02@'
p3812
tp3813
bssg46
(lp3814
g21
(g22
(I0
tp3815
g24
tp3816
Rp3817
(I1
(I3
tp3818
g242
I00
S'hf \xe4y{\x05@A\xb8*\x96\x1d\xc0\x1d\xc0hZ\xd2\xbb\xc8M\r@'
p3819
tp3820
bag21
(g22
(I0
tp3821
g24
tp3822
Rp3823
(I1
(I3
tp3824
g253
I00
S'\xc2Fo\n7\x11\x03@\xb6=Ya.\xe0\x1a\xc0,\x0b\x04&"Y\x07\xc0'
p3825
tp3826
bag21
(g22
(I0
tp3827
g24
tp3828
Rp3829
(I1
(I3
tp3830
g253
I00
S'zNu~${\xfb?c\xfe\x8c\xbf\x1f\xab\x1b\xc0\x9b\xbb\x05m\x02\x02\x07@'
p3831
tp3832
bag3810
asbsVsquare_packing_box4
p3833
g1136
ssg1197
(dp3834
sg1199
Nsg1200
(lp3835
sg1202
(dp3836
sg1204
I0
sg1205
g3721
sg1206
Nsg1207
(dp3837
(g408
g510
g233
tp3838
I00
s(g232
g510
g233
tp3839
I00
s(g510
g606
g233
tp3840
I01
s(g567
g510
g233
tp3841
I00
s(g510
g567
g233
tp3842
I00
s(g510
g232
g233
tp3843
I00
s(g510
g306
g233
tp3844
I00
s(g606
g510
g233
tp3845
I00
s(g459
g510
g233
tp3846
I00
s(g357
g510
g233
tp3847
I00
s(g510
g408
g233
tp3848
I01
s(g510
g357
g233
tp3849
I00
s(g306
g510
g233
tp3850
I00
s(g510
g459
g233
tp3851
I01
ssg1265
Nsg1266
I01
sbsg1267
(dp3852
(g606
g606
g233
tp3853
g1270
s(g408
g1271
g1271
tp3854
g1273
s(g1274
g510
g233
tp3855
(lp3856
I00
as(g459
g306
g1271
tp3857
g1278
s(g233
g233
g233
tp3858
g1280
s(g306
g606
g1271
tp3859
g1282
s(g408
g232
g233
tp3860
g1284
s(g233
g357
g233
tp3861
g1286
s(g459
g408
g233
tp3862
g1288
s(g232
g357
g1271
tp3863
g1290
s(g233
g306
g1271
tp3864
g1292
s(g459
g1274
g233
tp3865
g1294
s(g1271
g233
g1271
tp3866
g1296
s(g357
g567
g233
tp3867
g1298
s(g306
g1274
g233
tp3868
g1300
s(g459
g510
g1271
tp3869
(lp3870
I00
as(g567
g1271
g233
tp3871
g1304
s(g1274
g606
g1271
tp3872
g1306
s(g233
g1274
g233
tp3873
g1308
s(g606
g1271
g233
tp3874
g1310
s(g567
g1274
g233
tp3875
g1312
s(g408
g408
g1271
tp3876
g1314
s(g1271
g306
g1271
tp3877
g1316
s(g1274
g1271
g233
tp3878
g1318
s(g1274
g459
g233
tp3879
g1320
s(g1271
g1271
g233
tp3880
g1322
s(g567
g357
g1271
tp3881
g1324
s(g233
g233
g1271
tp3882
g1326
s(g510
g459
g1271
tp3883
(lp3884
I00
as(g606
g306
g233
tp3885
g1330
s(g567
g408
g233
tp3886
g1332
s(g510
g233
g1271
tp3887
(lp3888
I00
as(g233
g606
g1271
tp3889
g1336
s(g510
g232
g1271
tp3890
(lp3891
I00
as(g232
g510
g233
tp3892
(lp3893
I00
as(g1271
g408
g1271
tp3894
g1342
s(g306
g459
g1271
tp3895
g1344
s(g606
g606
g1271
tp3896
g1346
s(g1274
g306
g233
tp3897
g1348
s(g1271
g233
g233
tp3898
g1350
s(g357
g606
g233
tp3899
g1352
s(g233
g232
g233
tp3900
g1354
s(g459
g510
g233
tp3901
(lp3902
I00
as(g232
g306
g233
tp3903
g1358
s(g408
g232
g1271
tp3904
g1360
s(g567
g459
g233
tp3905
g1362
s(g459
g408
g1271
tp3906
g1364
s(g459
g606
g1271
tp3907
g1366
s(g1274
g459
g1271
tp3908
g1368
s(g1271
g232
g1271
tp3909
g1370
s(g1274
g233
g233
tp3910
g1372
s(g357
g233
g233
tp3911
g1374
s(g1271
g1274
g233
tp3912
g1376
s(g606
g306
g1271
tp3913
g1378
s(g567
g606
g1271
tp3914
g1380
s(g567
g567
g233
tp3915
g1382
s(g510
g232
g233
tp3916
(lp3917
I00
as(g1274
g606
g233
tp3918
g1386
s(g510
g1271
g1271
tp3919
(lp3920
I00
as(g306
g408
g233
tp3921
g1390
s(g408
g408
g233
tp3922
g1392
s(g408
g357
g233
tp3923
g1394
s(g357
g606
g1271
tp3924
g1396
s(g306
g510
g1271
tp3925
(lp3926
I00
as(g567
g357
g233
tp3927
g1400
s(g510
g459
g233
tp3928
(lp3929
I01
as(g606
g510
g1271
tp3930
(lp3931
I00
as(g510
g233
g233
tp3932
(lp3933
I00
as(g459
g606
g233
tp3934
g1408
s(g606
g567
g233
tp3935
g1410
s(g232
g510
g1271
tp3936
(lp3937
I00
as(g233
g459
g1271
tp3938
g1414
s(g1274
g233
g1271
tp3939
g1416
s(g1274
g306
g1271
tp3940
g1418
s(g567
g606
g233
tp3941
g1420
s(g232
g567
g1271
tp3942
g1422
s(g606
g1274
g1271
tp3943
g1424
s(g510
g1271
g233
tp3944
(lp3945
I00
as(g567
g459
g1271
tp3946
g1428
s(g567
g510
g1271
tp3947
(lp3948
I00
as(g306
g408
g1271
tp3949
g1432
s(g233
g232
g1271
tp3950
g1434
s(g1274
g567
g1271
tp3951
g1436
s(g1271
g232
g233
tp3952
g1438
s(g1271
g459
g1271
tp3953
g1440
s(g606
g510
g233
tp3954
(lp3955
I00
as(g306
g510
g233
tp3956
(lp3957
I00
as(g1271
g567
g233
tp3958
g1446
s(g606
g567
g1271
tp3959
g1448
s(g606
g357
g1271
tp3960
g1450
s(g232
g306
g1271
tp3961
g1452
s(g408
g357
g1271
tp3962
g1454
s(g510
g567
g1271
tp3963
(lp3964
I00
as(g233
g408
g1271
tp3965
g1458
s(g232
g1271
g1271
tp3966
g1460
s(g357
g233
g1271
tp3967
g1462
s(g408
g510
g233
tp3968
(lp3969
I00
as(g606
g1274
g233
tp3970
g1466
s(g357
g459
g1271
tp3971
g1468
s(g232
g606
g1271
tp3972
g1470
s(g567
g510
g233
tp3973
(lp3974
I00
as(g306
g1271
g1271
tp3975
g1474
s(g459
g233
g233
tp3976
g1476
s(g306
g357
g233
tp3977
g1478
s(g233
g567
g1271
tp3978
g1480
s(g1271
g510
g1271
tp3979
(lp3980
I00
as(g1271
g567
g1271
tp3981
g1484
s(g408
g567
g233
tp3982
g1486
s(g510
g567
g233
tp3983
(lp3984
I00
as(g408
g510
g1271
tp3985
(lp3986
I00
as(g232
g606
g233
tp3987
g1492
s(g606
g459
g233
tp3988
g1494
s(g232
g233
g1271
tp3989
g1496
s(g306
g1271
g233
tp3990
g1498
s(g1271
g357
g1271
tp3991
g1500
s(g606
g357
g233
tp3992
g1502
s(g232
g232
g233
tp3993
g1504
s(g357
g357
g233
tp3994
g1506
s(g357
g232
g1271
tp3995
g1508
s(g232
g1271
g233
tp3996
g1510
s(g567
g306
g233
tp3997
g1512
s(g357
g459
g233
tp3998
g1514
s(g459
g1271
g1271
tp3999
g1516
s(g232
g1274
g1271
tp4000
g1518
s(g459
g233
g1271
tp4001
g1520
s(g408
g459
g1271
tp4002
g1522
s(g306
g357
g1271
tp4003
g1524
s(g567
g233
g1271
tp4004
g1526
s(g232
g233
g233
tp4005
g1528
s(g1271
g357
g233
tp4006
g1530
s(g510
g510
g233
tp4007
(lp4008
I00
as(g1271
g306
g233
tp4009
g1534
s(g306
g567
g233
tp4010
g1536
s(g408
g606
g233
tp4011
g1538
s(g408
g567
g1271
tp4012
g1540
s(g357
g408
g1271
tp4013
g1542
s(g233
g459
g233
tp4014
g1544
s(g1274
g232
g1271
tp4015
g1546
s(g232
g408
g233
tp4016
g1548
s(g510
g1274
g233
tp4017
(lp4018
I00
as(g567
g306
g1271
tp4019
g1552
s(g567
g232
g1271
tp4020
g1554
s(g357
g510
g233
tp4021
(lp4022
I00
as(g606
g459
g1271
tp4023
g1558
s(g357
g1271
g233
tp4024
g1560
s(g232
g1274
g233
tp4025
g1562
s(g306
g232
g1271
tp4026
g1564
s(g606
g408
g233
tp4027
g1566
s(g567
g408
g1271
tp4028
g1568
s(g306
g306
g1271
tp4029
g1570
s(g357
g357
g1271
tp4030
g1572
s(g510
g510
g1271
tp4031
(lp4032
I00
as(g408
g306
g1271
tp4033
g1576
s(g306
g459
g233
tp4034
g1578
s(g1274
g408
g233
tp4035
g1580
s(g233
g1274
g1271
tp4036
g1582
s(g233
g510
g1271
tp4037
(lp4038
I00
as(g459
g1271
g233
tp4039
g1586
s(g408
g606
g1271
tp4040
g1588
s(g510
g408
g1271
tp4041
(lp4042
I00
as(g232
g232
g1271
tp4043
g1592
s(g1274
g232
g233
tp4044
g1594
s(g459
g232
g1271
tp4045
g1596
s(g510
g1274
g1271
tp4046
(lp4047
I00
as(g408
g459
g233
tp4048
g1600
s(g357
g510
g1271
tp4049
(lp4050
I00
as(g357
g232
g233
tp4051
g1604
s(g306
g232
g233
tp4052
g1606
s(g408
g233
g1271
tp4053
g1608
s(g459
g567
g233
tp4054
g1610
s(g567
g567
g1271
tp4055
g1612
s(g357
g1274
g233
tp4056
g1614
s(g1271
g1274
g1271
tp4057
g1616
s(g306
g567
g1271
tp4058
g1618
s(g1271
g510
g233
tp4059
(lp4060
I00
as(g1274
g1274
g1271
tp4061
g1622
s(g357
g408
g233
tp4062
g1624
s(g408
g306
g233
tp4063
g1626
s(g1271
g606
g1271
tp4064
g1628
s(g232
g408
g1271
tp4065
g1630
s(g567
g233
g233
tp4066
g1632
s(g1274
g408
g1271
tp4067
g1634
s(g567
g232
g233
tp4068
g1636
s(g232
g459
g233
tp4069
g1638
s(g357
g1271
g1271
tp4070
g1640
s(g606
g408
g1271
tp4071
g1642
s(g510
g606
g233
tp4072
(lp4073
I01
as(g1274
g1271
g1271
tp4074
g1646
s(g1271
g606
g233
tp4075
g1648
s(g408
g1274
g233
tp4076
g1650
s(g459
g567
g1271
tp4077
g1652
s(g459
g357
g1271
tp4078
g1654
s(g306
g233
g233
tp4079
g1656
s(g357
g1274
g1271
tp4080
g1658
s(g357
g306
g233
tp4081
g1660
s(g1274
g357
g1271
tp4082
g1662
s(g233
g510
g233
tp4083
(lp4084
I00
as(g233
g567
g233
tp4085
g1666
s(g510
g408
g233
tp4086
(lp4087
I01
as(g510
g357
g233
tp4088
(lp4089
I00
as(g1274
g567
g233
tp4090
g1672
s(g459
g232
g233
tp4091
g1674
s(g459
g459
g1271
tp4092
g1676
s(g510
g306
g1271
tp4093
(lp4094
I00
as(g306
g233
g1271
tp4095
g1680
s(g606
g233
g233
tp4096
g1682
s(g408
g233
g233
tp4097
g1684
s(g510
g606
g1271
tp4098
(lp4099
I00
as(g306
g606
g233
tp4100
g1688
s(g233
g1271
g233
tp4101
g1690
s(g1274
g1274
g233
tp4102
g1692
s(g606
g232
g1271
tp4103
g1694
s(g408
g1274
g1271
tp4104
g1696
s(g1271
g459
g233
tp4105
g1698
s(g232
g357
g233
tp4106
g1700
s(g1274
g357
g233
tp4107
g1702
s(g408
g1271
g233
tp4108
g1704
s(g232
g459
g1271
tp4109
g1706
s(g233
g408
g233
tp4110
g1708
s(g1274
g510
g1271
tp4111
(lp4112
I00
as(g306
g1274
g1271
tp4113
g1712
s(g459
g459
g233
tp4114
g1714
s(g510
g306
g233
tp4115
(lp4116
I00
as(g567
g1274
g1271
tp4117
g1718
s(g459
g357
g233
tp4118
g1720
s(g233
g306
g233
tp4119
g1722
s(g232
g567
g233
tp4120
g1724
s(g357
g306
g1271
tp4121
g1726
s(g306
g306
g233
tp4122
g1728
s(g510
g357
g1271
tp4123
(lp4124
I00
as(g459
g306
g233
tp4125
g1732
s(g567
g1271
g1271
tp4126
g1734
s(g233
g606
g233
tp4127
g1736
s(g606
g1271
g1271
tp4128
g1738
s(g233
g357
g1271
tp4129
g1740
s(g606
g233
g1271
tp4130
g1742
s(g1271
g1271
g1271
tp4131
g1744
s(g459
g1274
g1271
tp4132
g1746
s(g357
g567
g1271
tp4133
g1748
s(g233
g1271
g1271
tp4134
g1750
s(g606
g232
g233
tp4135
g1752
s(g1271
g408
g233
tp4136
g1754
ssg720
g3721
sg1755
I01
sg1756
(lp4137
S'square_packing_box1'
p4138
aS'rectangular_packing_box1'
p4139
aS'square_packing_box2'
p4140
aS'rectangular_packing_box2'
p4141
aS'square_packing_box3'
p4142
aS'rectangular_packing_box3'
p4143
aS'square_packing_box4'
p4144
aS'rectangular_packing_box4'
p4145
asg1206
Nsg1766
Nsg1767
(dp4146
Vrectangular_packing_box4
p4147
g21
(g22
(I0
tp4148
g24
tp4149
Rp4150
(I1
(I1
I3
tp4151
g242
I00
S'R9\xe0\x17y7\xf0?\xa0\xa9+\x7fO\xce\x1f\xc0\xf7\xf6\x1f\xc7\xc0\xab\x00@'
p4152
tp4153
bsVrectangular_packing_box2
p4154
g21
(g22
(I0
tp4155
g24
tp4156
Rp4157
(I1
(I1
I3
tp4158
g242
I00
S'\x1db\xb0\x05\x87\x92\xe8?\x1b\xef\x1b\xc2*Z\x19\xc0\x95hQ"\xb4\xad\xf8?'
p4159
tp4160
bsVrectangular_packing_box3
p4161
g21
(g22
(I0
tp4162
g24
tp4163
Rp4164
(I1
(I1
I3
tp4165
g242
I00
S'x\x99\xb4\x13\xe2\x92\x03@"\xc1\xe2\xec\xae\xf9\x16\xc0z\x90b\xcd\xd3\x94\xf0?'
p4166
tp4167
bsVrectangular_packing_box1
p4168
g21
(g22
(I0
tp4169
g24
tp4170
Rp4171
(I1
(I1
I3
tp4172
g242
I00
S'\xb2\xaf\xf3\x89S\xcf\xff?\x06x\xd4\xfcyC\x1f\xc0\x9f\xb7\x08n\xdfO\x0e@'
p4173
tp4174
bsVsquare_packing_box2
p4175
g21
(g22
(I0
tp4176
g24
tp4177
Rp4178
(I1
(I1
I3
tp4179
g242
I00
S'\xe4\x82;pY\xed\xb4?\xd8/\xf5>8W\x17\xc0\x8f\xad\xe1\xa1\x909\x0e@'
p4180
tp4181
bsVsquare_packing_box3
p4182
g21
(g22
(I0
tp4183
g24
tp4184
Rp4185
(I1
(I1
I3
tp4186
g242
I00
S'\xa9\xec\x94.3\xf0\xb9?\x13e\x0e\xd58\\\x1b\xc0\xbd\xd0S\x17\xd8\xf0\xf1?'
p4187
tp4188
bsVsquare_packing_box1
p4189
g21
(g22
(I0
tp4190
g24
tp4191
Rp4192
(I1
(I1
I3
tp4193
g242
I00
S'\xadLoD\xf6\x8d\xfc?\xb6\x80*%]\xb5\x16\xc0KOq\xaa]\xb2\xcd?'
p4194
tp4195
bsVsquare_packing_box4
p4196
g21
(g22
(I0
tp4197
g24
tp4198
Rp4199
(I1
(I1
I3
tp4200
g242
I00
S'\xe4\xb2\x87\r\x0cw\xda\xbf\x13\xbd\xabg_\x1a\x18\xc0z*B\xe8\xd6\xd9\x05@'
p4201
tp4202
bssg1825
(lp4203
(g3706
g1271
tp4204
a(g3722
g1271
tp4205
a(g3707
g1271
tp4206
a(g3708
g1271
tp4207
a(g3802
g1271
tp4208
a(g3803
g1271
tp4209
a(g80
g1271
tp4210
a(g3833
g1271
tp4211
asg1835
(itrajectory_representation.predicates.in_region
InRegion
p4212
(dp4213
g1206
Nsbsg1838
(dp4214
g3706
(lp4215
g21
(g22
(I0
tp4216
g24
tp4217
Rp4218
(I1
(I3
tp4219
g242
I00
S'hf \xe4y{\x05@A\xb8*\x96\x1d\xc0\x1d\xc0hZ\xd2\xbb\xc8M\r@'
p4220
tp4221
bag21
(g22
(I0
tp4222
g24
tp4223
Rp4224
(I1
(I3
tp4225
g253
I00
S'\xc2Fo\n7\x11\x03@\xb6=Ya.\xe0\x1a\xc0,\x0b\x04&"Y\x07\xc0'
p4226
tp4227
bag21
(g22
(I0
tp4228
g24
tp4229
Rp4230
(I1
(I3
tp4231
g253
I00
S'\x84\xa3|.\x10\xee\xfc?\xfc\xc5\t\x9e\xc3\xe9\x1a\xc0\xec\x96S\xb5\x05\x08\x05\xc0'
p4232
tp4233
bag21
(g22
(I0
tp4234
g24
tp4235
Rp4236
(I1
(I3
tp4237
g253
I00
S'\xba)c\x05l\x93\xf4?\x8f\x0f\xa1<\xee\x05\x1c\xc0\xf9-\x16\x17\xc6`\xf8\xbf'
p4238
tp4239
bag733
asg3722
(lp4240
g21
(g22
(I0
tp4241
g24
tp4242
Rp4243
(I1
(I3
tp4244
g242
I00
S'hf \xe4y{\x05@A\xb8*\x96\x1d\xc0\x1d\xc0hZ\xd2\xbb\xc8M\r@'
p4245
tp4246
bag21
(g22
(I0
tp4247
g24
tp4248
Rp4249
(I1
(I3
tp4250
g253
I00
S"'DJ\xaet\xe5\x02@&#\x93\x97\x82\xb8\x1b\xc0\xdbM\xcc\xf6#.\x08@"
p4251
tp4252
bag21
(g22
(I0
tp4253
g24
tp4254
Rp4255
(I1
(I3
tp4256
g253
I00
S'\xf60LV\xe8\x96\x00@\x9aEw{a\xe2\x18\xc0^\xa8\x8a,\xa3\x98\x00@'
p4257
tp4258
bag21
(g22
(I0
tp4259
g24
tp4260
Rp4261
(I1
(I3
tp4262
g253
I00
S'\x9f5<Q\xb2\xb3\xf7?\xb3\xd6LI,\xe8\x16\xc0\xc2\x13\xbbtu\x87\x00\xc0'
p4263
tp4264
bag826
asg3707
(lp4265
g21
(g22
(I0
tp4266
g24
tp4267
Rp4268
(I1
(I3
tp4269
g242
I00
S'hf \xe4y{\x05@A\xb8*\x96\x1d\xc0\x1d\xc0hZ\xd2\xbb\xc8M\r@'
p4270
tp4271
bag21
(g22
(I0
tp4272
g24
tp4273
Rp4274
(I1
(I3
tp4275
g253
I00
S"'DJ\xaet\xe5\x02@&#\x93\x97\x82\xb8\x1b\xc0\xdbM\xcc\xf6#.\x08@"
p4276
tp4277
bag21
(g22
(I0
tp4278
g24
tp4279
Rp4280
(I1
(I3
tp4281
g253
I00
S'\xc3#\x9b"m=\x05@O\x1c\xaf\xffo\x1c\x1b\xc0\xa4\xc19\xdd\xaa\xea\xdd?'
p4282
tp4283
bag887
asg3708
(lp4284
g21
(g22
(I0
tp4285
g24
tp4286
Rp4287
(I1
(I3
tp4288
g242
I00
S'hf \xe4y{\x05@A\xb8*\x96\x1d\xc0\x1d\xc0hZ\xd2\xbb\xc8M\r@'
p4289
tp4290
bag3731
asg3802
(lp4291
g21
(g22
(I0
tp4292
g24
tp4293
Rp4294
(I1
(I3
tp4295
g242
I00
S'hf \xe4y{\x05@A\xb8*\x96\x1d\xc0\x1d\xc0hZ\xd2\xbb\xc8M\r@'
p4296
tp4297
bag21
(g22
(I0
tp4298
g24
tp4299
Rp4300
(I1
(I3
tp4301
g253
I00
S"'DJ\xaet\xe5\x02@&#\x93\x97\x82\xb8\x1b\xc0\xdbM\xcc\xf6#.\x08@"
p4302
tp4303
bag21
(g22
(I0
tp4304
g24
tp4305
Rp4306
(I1
(I3
tp4307
g253
I00
S'zNu~${\xfb?c\xfe\x8c\xbf\x1f\xab\x1b\xc0\x9b\xbb\x05m\x02\x02\x07@'
p4308
tp4309
bag21
(g22
(I0
tp4310
g24
tp4311
Rp4312
(I1
(I3
tp4313
g253
I00
S'\x0c\x0f=\x82\xe8\x10\xef?\x95;\xd2\x17&\xe7\x1b\xc0\xf2\xbb\xbd\xb4q\x0b\t@'
p4314
tp4315
bag985
asg3803
(lp4316
g21
(g22
(I0
tp4317
g24
tp4318
Rp4319
(I1
(I3
tp4320
g242
I00
S'hf \xe4y{\x05@A\xb8*\x96\x1d\xc0\x1d\xc0hZ\xd2\xbb\xc8M\r@'
p4321
tp4322
bag21
(g22
(I0
tp4323
g24
tp4324
Rp4325
(I1
(I3
tp4326
g253
I00
S'\xc4_\xf9\x03N\xba\x00@R\xfd8\x1fs\r\x1d\xc0\xa1\xe6w68\xd4\x03\xc0'
p4327
tp4328
bag21
(g22
(I0
tp4329
g24
tp4330
Rp4331
(I1
(I3
tp4332
g253
I00
S'X\xa4u\xbc=r\xf6?\x90\xee\xc4\x1eW\xf8\x1b\xc0\xcc: \xa4-\x95\x01\xc0'
p4333
tp4334
bag21
(g22
(I0
tp4335
g24
tp4336
Rp4337
(I1
(I3
tp4338
g253
I00
S'\xf8\xfc\x1a\xd0\xc9l\xe8?\x8a\x897\x8e~\x98\x1a\xc0\xaf\xf7\xb87\xc6\xa7\x01\xc0'
p4339
tp4340
bag1053
asg80
g3814
sg3833
(lp4341
g21
(g22
(I0
tp4342
g24
tp4343
Rp4344
(I1
(I3
tp4345
g242
I00
S'hf \xe4y{\x05@A\xb8*\x96\x1d\xc0\x1d\xc0hZ\xd2\xbb\xc8M\r@'
p4346
tp4347
bag21
(g22
(I0
tp4348
g24
tp4349
Rp4350
(I1
(I3
tp4351
g253
I00
S'\xc4_\xf9\x03N\xba\x00@R\xfd8\x1fs\r\x1d\xc0\xa1\xe6w68\xd4\x03\xc0'
p4352
tp4353
bag21
(g22
(I0
tp4354
g24
tp4355
Rp4356
(I1
(I3
tp4357
g253
I00
S'X\xa4u\xbc=r\xf6?\x90\xee\xc4\x1eW\xf8\x1b\xc0\xcc: \xa4-\x95\x01\xc0'
p4358
tp4359
bag21
(g22
(I0
tp4360
g24
tp4361
Rp4362
(I1
(I3
tp4363
g253
I00
S'\xae\xea\x9e\xa3\xa2\xb1\xed?\xa4\xca\x1d?h\x96\x19\xc0dq\xdf\xb1\x9d\xe4\x05@'
p4364
tp4365
bag1156
assg685
(dp4366
(Vrectangular_packing_box4
p4367
(g2016
(g242
S'\x87oa\xddx7\xf0?'
p4368
tp4369
Rp4370
g2016
(g242
S'\xae\xd8_vO\xce\x1f\xc0'
p4371
tp4372
Rp4373
g2016
(g242
S't~\x8a\xe3\xc0\xab\x00@'
p4374
tp4375
Rp4376
tp4377
tp4378
g691
s(Vsquare_packing_box4
p4379
(g2016
(g242
S'\xe8\xda\x17\xd0\x0bw\xda\xbf'
p4380
tp4381
Rp4382
g2016
(g242
S'|\xd5\xca\x84_\x1a\x18\xc0'
p4383
tp4384
Rp4385
g2016
(g242
S'3\xfd\x12\xf1\xd6\xd9\x05@'
p4386
tp4387
Rp4388
tp4389
tp4390
g719
s(Vrectangular_packing_box3
p4391
(g2016
(g242
S'\xc2\xc0s\xef\xe1\x92\x03@'
p4392
tp4393
Rp4394
g2016
(g242
S'\x00\x01k\xd5\xae\xf9\x16\xc0'
p4395
tp4396
Rp4397
g2016
(g242
S'\xdb3K\x02\xd4\x94\xf0?'
p4398
tp4399
Rp4400
tp4401
tp4402
g699
s(Vsquare_packing_box2
p4403
(g2016
(g242
S'\xff\xcd\x8b\x13_\xed\xb4?'
p4404
tp4405
Rp4406
g2016
(g242
S'H\xbf}\x1d8W\x17\xc0'
p4407
tp4408
Rp4409
g2016
(g242
S'9\x0c\xe6\xaf\x909\x0e@'
p4410
tp4411
Rp4412
tp4413
tp4414
g707
s(Vsquare_packing_box3
p4415
(g2016
(g242
S'`\xe4eM,\xf0\xb9?'
p4416
tp4417
Rp4418
g2016
(g242
S'\x8a\x94f\xf38\\\x1b\xc0'
p4419
tp4420
Rp4421
g2016
(g242
S'\xa9\x13\xd0D\xd8\xf0\xf1?'
p4422
tp4423
Rp4424
tp4425
tp4426
g711
s(Vrectangular_packing_box2
p4427
(g2016
(g242
S'\xf0\xc0\x00\xc2\x87\x92\xe8?'
p4428
tp4429
Rp4430
g2016
(g242
S'\xc0 \xe9\xd3*Z\x19\xc0'
p4431
tp4432
Rp4433
g2016
(g242
S'\x98k\xd1\x02\xb4\xad\xf8?'
p4434
tp4435
Rp4436
tp4437
tp4438
g695
s(Vrectangular_packing_box1
p4439
(g2016
(g242
S'4\xf2y\xc5S\xcf\xff?'
p4440
tp4441
Rp4442
g2016
(g242
S'3\xe1\x97\xfayC\x1f\xc0'
p4443
tp4444
Rp4445
g2016
(g242
S'\x1dZd;\xdfO\x0e@'
p4446
tp4447
Rp4448
tp4449
tp4450
g3716
s(Vsquare_packing_box1
p4451
(g2016
(g242
S'j1x\x98\xf6\x8d\xfc?'
p4452
tp4453
Rp4454
g2016
(g242
S'*\xc9:\x1c]\xb5\x16\xc0'
p4455
tp4456
Rp4457
g2016
(g242
S':\xe6<c_\xb2\xcd?'
p4458
tp4459
Rp4460
tp4461
tp4462
g715
ssg2112
(igtamp_utils.utils
CustomStateSaver
p4463
(dp4464
g2115
g21
(g22
(I0
tp4465
g24
tp4466
Rp4467
(I1
(I1
I3
tp4468
g242
I00
S'kf \xe4y{\x05@G\xb8*\x96\x1d\xc0\x1d\xc0iZ\xd2\xbb\xc8M\r@'
p4469
tp4470
bsg2122
Nsg2123
g2124
sg2125
I1
sg1767
(dp4471
Vright_wall_1
p4472
g21
(g22
(I0
tp4473
g24
tp4474
Rp4475
(I1
(I4
tp4476
g242
I00
S'H\xe1z\x14\xaeG\x12@&\\\x8f\xc2\xf5(\xd4\xbf\xcc\x7fH\xbf}\x1d\xed?\x00\x00\x00\x00\x00\x00\x00\x00'
p4477
tp4478
bsVc_obst5
p4479
g21
(g22
(I0
tp4480
g24
tp4481
Rp4482
(I1
(I4
tp4483
g242
I00
S",\\\x1f\x1e\xe3]\x12@\\\x19\x1d\xc1h4\xc7\xbfe\xaa`TR'\xed?TI\xb5\x96\x06]\x18@"
p4484
tp4485
bsVentrance_right
p4486
g21
(g22
(I0
tp4487
g24
tp4488
Rp4489
(I1
(I4
tp4490
g242
I00
S'ffffff\n@H\xe1z\x14\xaeG\t\xc0\x9c\xc4 \xb0rh\xc1?\x00\x00\x00\x00\x00\x00\x00\x00'
p4491
tp4492
bsVcomputer_table
p4493
g21
(g22
(I0
tp4494
g24
tp4495
Rp4496
(I1
(I4
tp4497
g242
I00
S'\x00\x00\x00\x00\x00\x00\x13@\x00\x00\x00\x00\x00\x00\xf8\xbf\x96C\x8bl\xe7\xfb\xe7?\xd2!3\x7f|\xd9\x12@'
p4498
tp4499
bsVchair_6b56
p4500
g21
(g22
(I0
tp4501
g24
tp4502
Rp4503
(I1
(I4
tp4504
g242
I00
S'\x96=\n\xd7\xa3p\xf5?]\xe1z\x14\xaeG\xd1?\x00\x00\x00\x00\x00\x00\x00\x00\xd6$\xfaNBm\n@'
p4505
tp4506
bsVsquare_packing_box3
p4507
g21
(g22
(I0
tp4508
g24
tp4509
Rp4510
(I1
(I4
tp4511
g242
I00
S'\t\xed\x94.3\xf0\xb9?\x12e\x0e\xd58\\\x1b\xc0`7\x89A`\xe5\xd8?\xbd\xd0S\x17\xd8\xf0\xf1?'
p4512
tp4513
bsVsquare_packing_box2
p4514
g21
(g22
(I0
tp4515
g24
tp4516
Rp4517
(I1
(I4
tp4518
g242
I00
S'\xa1\x82;pY\xed\xb4?\xd8/\xf5>8W\x17\xc0F7\x89A`\xe5\xd8?\x8f\xad\xe1\xa1\x909\x0e@'
p4519
tp4520
bsVtable
p4521
g21
(g22
(I0
tp4522
g24
tp4523
Rp4524
(I1
(I4
tp4525
g242
I00
S'\x7f\xf6#EdX\xed?\xac\xffs\x98//\xc0\xbf\x00\x00\x00\x00\x00\x00\x00\x00\x00\x00\x00\x00\x00\x00\x00\x00'
p4526
tp4527
bsVsquare_packing_box1
p4528
g21
(g22
(I0
tp4529
g24
tp4530
Rp4531
(I1
(I4
tp4532
g242
I00
S'\xadLoD\xf6\x8d\xfc?\xb6\x80*%]\xb5\x16\xc0L7\x89A`\xe5\xd8?KOq\xaa]\xb2\xcd?'
p4533
tp4534
bsVback_wall_2
p4535
g21
(g22
(I0
tp4536
g24
tp4537
Rp4538
(I1
(I4
tp4539
g242
I00
S'\xaeG\xe1z\x14.\x13@\x80\x14\xaeG\xe1z\xc4?xX\xa85\xcd\xbb\xf2?\x00\x00\x00\x00\x00\x00\x00\x00'
p4540
tp4541
bsVchair_083c
p4542
g21
(g22
(I0
tp4543
g24
tp4544
Rp4545
(I1
(I4
tp4546
g242
I00
S'\xa4p=\n\xd7\xa3\xe0?333333\xe3\xbf\x00\x00\x00\x00\x00\x00\x00\x00\x00\x00\x00\x00\x00\x00\x00\x00'
p4547
tp4548
bsVback_wall_1
p4549
g21
(g22
(I0
tp4550
g24
tp4551
Rp4552
(I1
(I4
tp4553
g242
I00
S'\xaeG\xe1z\x14.\x13@\x80\x14\xaeG\xe1z\xc4?\xcc\x7fH\xbf}\x1d\xed?\x00\x00\x00\x00\x00\x00\x00\x00'
p4554
tp4555
bsVbottom_wall
p4556
g21
(g22
(I0
tp4557
g24
tp4558
Rp4559
(I1
(I4
tp4560
g242
I00
S'\x00\x00\x00\x00\x00\x00\xfc?\x00\x00\x00\x00\x00\x00\x00\x00\x00\x00\x00\x00\x00\x00\x00\x00\x00\x00\x00\x00\x00\x00\x00\x00'
p4561
tp4562
bsVcup_905a
p4563
g21
(g22
(I0
tp4564
g24
tp4565
Rp4566
(I1
(I4
tp4567
g242
I00
S'\x00\x00\x00\x00\x00\x00\xf0?\x83\xc0\xca\xa1E\xb6\xdb?\x1b/\xdd$\x06\x81\xed?\x00\x00\x00\x00\x00\x00\x00\x00'
p4568
tp4569
bsVplate_496f
p4570
g21
(g22
(I0
tp4571
g24
tp4572
Rp4573
(I1
(I4
tp4574
g242
I00
S"q=\n\xd7\xa3p\xe5?\x9dhW!\xe5'\xdd\xbf\x1b/\xdd$\x06\x81\xed?\x00\x00\x00\x00\x00\x00\x00\x00"
p4575
tp4576
bsVtoaster
p4577
g21
(g22
(I0
tp4578
g24
tp4579
Rp4580
(I1
(I4
tp4581
g242
I00
S')\\\x8f\xc2\xf5(\xf4\xbf\xe0z\x14\xaeG\xe1\xf2\xbf\xb8\x1e\x85\xebQ\xb8\xee?\x89/`\x9b\xf8\x8a\xe4?'
p4582
tp4583
bsVc_obst1
p4584
g21
(g22
(I0
tp4585
g24
tp4586
Rp4587
(I1
(I4
tp4588
g242
I00
S"\xdf\xbcXr\xd3\x84\x12@\xd0\x8e\xd1\x1aG\x87\xd1?e\xaa`TR'\xed?u\xa03\xe3\xe4p\x14@"
p4589
tp4590
bsVrectangular_packing_box4
p4591
g21
(g22
(I0
tp4592
g24
tp4593
Rp4594
(I1
(I4
tp4595
g242
I00
S'>9\xe0\x17y7\xf0?\xa8\xa9+\x7fO\xce\x1f\xc0V7\x89A`\xe5\xd8?\xf7\xf6\x1f\xc7\xc0\xab\x00@'
p4596
tp4597
bsVmicrowave
p4598
g21
(g22
(I0
tp4599
g24
tp4600
Rp4601
(I1
(I4
tp4602
g242
I00
S'\x9a\x99\x99\x99\x99\x99\xf1\xbf\x00\x00\x00\x00\x00\x00\x00@7\x89A`\xe5\xd0\xee?\x00\x00\x00\x00\x00\x00\x00\x00'
p4603
tp4604
bsVc_obst7
p4605
g21
(g22
(I0
tp4606
g24
tp4607
Rp4608
(I1
(I4
tp4609
g242
I00
S"W'\x92S\xedP\x12@\xa0?PY\xae\xcf\xbc?e\xaa`TR'\xed?Q\xdc&\xa6q\x9a\xff?"
p4610
tp4611
bsVc_obst6
p4612
g21
(g22
(I0
tp4613
g24
tp4614
Rp4615
(I1
(I4
tp4616
g242
I00
S"\xa6/\x0e^0\xfd\x11@\xb4\xd6Te\x94\x95\xdf?e\xaa`TR'\xed?\x9d\x9d6\xa89\x17\x9a?"
p4617
tp4618
bsVcup_b6af
p4619
g21
(g22
(I0
tp4620
g24
tp4621
Rp4622
(I1
(I4
tp4623
g242
I00
S'R\xb8\x1e\x85\xebQ\xe8?\x9a\x99\x99\x99\x99\x99\xe1?\x1b/\xdd$\x06\x81\xed?\x00\x00\x00\x00\x00\x00\x00\x00'
p4624
tp4625
bsVc_obst4
p4626
g21
(g22
(I0
tp4627
g24
tp4628
Rp4629
(I1
(I4
tp4630
g242
I00
S"\xa4\xc5\x91\xc3\xf0\x1f\x12@h\xecXk\xb6}\xd2?e\xaa`TR'\xed?\x82rD\xed}.\x03@"
p4631
tp4632
bsVrectangular_packing_box2
p4633
g21
(g22
(I0
tp4634
g24
tp4635
Rp4636
(I1
(I4
tp4637
g242
I00
S'\x1bb\xb0\x05\x87\x92\xe8?\x1d\xef\x1b\xc2*Z\x19\xc0>7\x89A`\xe5\xd8?\x95hQ"\xb4\xad\xf8?'
p4638
tp4639
bsVplate_fa76
p4640
g21
(g22
(I0
tp4641
g24
tp4642
Rp4643
(I1
(I4
tp4644
g242
I00
S'=\n\xd7\xa3p=\xf2?\x00\x00\x00\x00\x00\x00\x00\x00\x1b/\xdd$\x06\x81\xed?\x00\x00\x00\x00\x00\x00\x00\x00'
p4645
tp4646
bsVfloorwalls
p4647
g21
(g22
(I0
tp4648
g24
tp4649
Rp4650
(I1
(I4
tp4651
g242
I00
S'\xc7\xcc\xcc\xcc\xcc\xcc\xfc?\x00\x00\x00\x00\x00\x00\x18\xc0H\xe1z\x14\xaeG\xc1?\x16-DT\xfb!\xf9?'
p4652
tp4653
bsVpin_c671
p4654
g21
(g22
(I0
tp4655
g24
tp4656
Rp4657
(I1
(I4
tp4658
g242
I00
S'\xc3\xf5(\\\x8f\xc2\xf1\xbf}?5^\xbaI\x02@\xb8\x1e\x85\xebQ\xb8\xfa?\x00\x00\x00\x00\x00\x00\x00\x00'
p4659
tp4660
bsVc_obst3
p4661
g21
(g22
(I0
tp4662
g24
tp4663
Rp4664
(I1
(I4
tp4665
g242
I00
S"\x0b\xa3m\x9aj\xa4\x12@\xd4\x947\x04\x12(\xe1?e\xaa`TR'\xed?\x16\x1d\x11o\xe5!\xf9?"
p4666
tp4667
bsVchair_2e39
p4668
g21
(g22
(I0
tp4669
g24
tp4670
Rp4671
(I1
(I4
tp4672
g242
I00
S'\x98fffff\xee?\x15fffff\xf2\xbf\x00\x00\x00\x00\x00\x00\x00\x00\x07M\xe8QQF\xf3?'
p4673
tp4674
bsVentrance_left
p4675
g21
(g22
(I0
tp4676
g24
tp4677
Rp4678
(I1
(I4
tp4679
g242
I00
S'\x98\x99\x99\x99\x99\x99\xe9\xbfH\xe1z\x14\xaeG\t\xc0\x9c\xc4 \xb0rh\xc1?\x00\x00\x00\x00\x00\x00\x00\x00'
p4680
tp4681
bsVtop_wall_1
p4682
g21
(g22
(I0
tp4683
g24
tp4684
Rp4685
(I1
(I4
tp4686
g242
I00
S'H\xe1z\x14\xaeG\x12@\x80\x14\xaeG\xe1z\xc4?xX\xa85\xcd\xbb\xf2?\x00\x00\x00\x00\x00\x00\x00\x00'
p4687
tp4688
bsVrectangular_packing_box3
p4689
g21
(g22
(I0
tp4690
g24
tp4691
Rp4692
(I1
(I4
tp4693
g242
I00
S'x\x99\xb4\x13\xe2\x92\x03@"\xc1\xe2\xec\xae\xf9\x16\xc0d7\x89A`\xe5\xd8?z\x90b\xcd\xd3\x94\xf0?'
p4694
tp4695
bsVshaker
p4696
g21
(g22
(I0
tp4697
g24
tp4698
Rp4699
(I1
(I4
tp4700
g242
I00
S'\n\xd7\xa3p=\n\x01@\x14\xaeG\xe1z\x14\x02@\\\x8f\xc2\xf5(\\\xef?\x00\x00\x00\x00\x00\x00\x00\x00'
p4701
tp4702
bsVc_obst9
p4703
g21
(g22
(I0
tp4704
g24
tp4705
Rp4706
(I1
(I4
tp4707
g242
I00
S"\xb4\xa9~\xfa\xac\x14\x12@\x80\x84U\xc7\xbf~\xb8?e\xaa`TR'\xed?\xf4\x1d\xe0\xf6+s\xef?"
p4708
tp4709
bsVplate_835a
p4710
g21
(g22
(I0
tp4711
g24
tp4712
Rp4713
(I1
(I4
tp4714
g242
I00
S'\xf6(\\\x8f\xc2\xf5\xf0?\\\x8f\xc2\xf5(\\\xe7\xbf\x1b/\xdd$\x06\x81\xed?\x00\x00\x00\x00\x00\x00\x00\x00'
p4715
tp4716
bsVcup_58a2
p4717
g21
(g22
(I0
tp4718
g24
tp4719
Rp4720
(I1
(I4
tp4721
g242
I00
S'\x85\xebQ\xb8\x1e\x85\xe3?\xcd\xcc\xcc\xcc\xcc\xcc\xdc?\x1b/\xdd$\x06\x81\xed?\x00\x00\x00\x00\x00\x00\x00\x00'
p4722
tp4723
bsVleft_wall_1
p4724
g21
(g22
(I0
tp4725
g24
tp4726
Rp4727
(I1
(I4
tp4728
g242
I00
S'H\xe1z\x14\xaeG\x12@S\xb8\x1e\x85\xebQ\xe4?\xcc\x7fH\xbf}\x1d\xed?\x00\x00\x00\x00\x00\x00\x00\x00'
p4729
tp4730
bsVc_obst2
p4731
g21
(g22
(I0
tp4732
g24
tp4733
Rp4734
(I1
(I4
tp4735
g242
I00
S"\xfe\x90O\xe1\x82K\x12@\x80\xdf\xbb\x0f,\xcc\xa0?e\xaa`TR'\xed?\xc2\x97\xef\xfa\xa7\x1b\xf0?"
p4736
tp4737
bsVsquare_packing_box4
p4738
g21
(g22
(I0
tp4739
g24
tp4740
Rp4741
(I1
(I4
tp4742
g242
I00
S'\xe4\xb2\x87\r\x0cw\xda\xbf\x13\xbd\xabg_\x1a\x18\xc0r7\x89A`\xe5\xd8?z*B\xe8\xd6\xd9\x05@'
p4743
tp4744
bsVrectangular_packing_box1
p4745
g21
(g22
(I0
tp4746
g24
tp4747
Rp4748
(I1
(I4
tp4749
g242
I00
S'\xc0\xaf\xf3\x89S\xcf\xff?\x0cx\xd4\xfcyC\x1f\xc0K7\x89A`\xe5\xd8?\x9f\xb7\x08n\xdfO\x0e@'
p4750
tp4751
bsVpin_371e
p4752
g21
(g22
(I0
tp4753
g24
tp4754
Rp4755
(I1
(I4
tp4756
g242
I00
S'333333\xf3\xbfffffff\xf6?\xb8\x1e\x85\xebQ\xb8\xee?\x00\x00\x00\x00\x00\x00\x00\x00'
p4757
tp4758
bsVfridge
p4759
g21
(g22
(I0
tp4760
g24
tp4761
Rp4762
(I1
(I4
tp4763
g242
I00
S'\xd7\xa3p=\n\xd7\xeb\xbf\x00\x00\x00\x00\x00\x00\x00\xc0\xcd\xcc\xcc\xcc\xcc\xcc\xf8?\x00\x00\x00\x00\x00\x00\x00\x00'
p4764
tp4765
bsVcup_d441
p4766
g21
(g22
(I0
tp4767
g24
tp4768
Rp4769
(I1
(I4
tp4770
g242
I00
S'\n\xd7\xa3p=\n\xef?\x8f\xc2\xf5(\\\x8f\xe2?\x1b/\xdd$\x06\x81\xed?\x00\x00\x00\x00\x00\x00\x00\x00'
p4771
tp4772
bsVshelf2
p4773
g21
(g22
(I0
tp4774
g24
tp4775
Rp4776
(I1
(I4
tp4777
g242
I00
S'\x00\x00\x00\x00\x00\x00\x0e@\xaeG\xe1z\x14\xae\x07@\x9c\xc4 \xb0rh\xc1?\xd2!3\x7f|\xd9\x12@'
p4778
tp4779
bsVtop_wall_2
p4780
g21
(g22
(I0
tp4781
g24
tp4782
Rp4783
(I1
(I4
tp4784
g242
I00
S'H\xe1z\x14\xaeG\x12@\x80\x14\xaeG\xe1z\xc4?\x16HP\xfc\x18\xf3\xfd?\x00\x00\x00\x00\x00\x00\x00\x00'
p4785
tp4786
bsVc_obst0
p4787
g21
(g22
(I0
tp4788
g24
tp4789
Rp4790
(I1
(I4
tp4791
g242
I00
S"\xf4!e\x87VV\x12@\xe0\xa4\xe5\xe0\xf3\x8d\xad\xbfe\xaa`TR'\xed?+\x9c\x9c\xbf\xed\x8e\x05@"
p4792
tp4793
bsVshelf1
p4794
g21
(g22
(I0
tp4795
g24
tp4796
Rp4797
(I1
(I4
tp4798
g242
I00
S'\x00\x00\x00\x00\x00\x00\x13@\xaeG\xe1z\x14\xae\x07@\x9c\xc4 \xb0rh\xc1?\xd2!3\x7f|\xd9\x12@'
p4799
tp4800
bsVsink
p4801
g21
(g22
(I0
tp4802
g24
tp4803
Rp4804
(I1
(I4
tp4805
g242
I00
S'ffffff\xd6?333333\x01@\x9a\x99\x99\x99\x99\x99\xb9\xbf\x00\x00\x00\x00\x00\x00\x00\x00'
p4806
tp4807
bsVpr2
p4808
g21
(g22
(I0
tp4809
g24
tp4810
Rp4811
(I1
(I4
tp4812
g242
I00
S'nf \xe4y{\x05@J\xb8*\x96\x1d\xc0\x1d\xc0\x9a_\x94\xa0\xbf\xd0\xc1?iZ\xd2\xbb\xc8M\r@'
p4813
tp4814
bsVchair_12d0
p4815
g21
(g22
(I0
tp4816
g24
tp4817
Rp4818
(I1
(I4
tp4819
g242
I00
S'^\xd2\x18\xad\xa3\xaa\xdb?Pf\x83L2r\xc6?\x00\x00\x00\x00\x00\x00\x00\x00\xf8\x81\r\x14M\xa6\x17@'
p4820
tp4821
bsVright_wall_2
p4822
g21
(g22
(I0
tp4823
g24
tp4824
Rp4825
(I1
(I4
tp4826
g242
I00
S'H\xe1z\x14\xaeG\x12@&\\\x8f\xc2\xf5(\xd4\xbfxX\xa85\xcd\xbb\xf2?\x00\x00\x00\x00\x00\x00\x00\x00'
p4827
tp4828
bsVknife_block
p4829
g21
(g22
(I0
tp4830
g24
tp4831
Rp4832
(I1
(I4
tp4833
g242
I00
S'R\xb8\x1e\x85\xebQ\xe0\xbfffffff\x02@`\xe5\xd0"\xdb\xf9\xee?\x00\x00\x00\x00\x00\x00\x00\x00'
p4834
tp4835
bsVleft_wall_2
p4836
g21
(g22
(I0
tp4837
g24
tp4838
Rp4839
(I1
(I4
tp4840
g242
I00
S'H\xe1z\x14\xaeG\x12@S\xb8\x1e\x85\xebQ\xe4?xX\xa85\xcd\xbb\xf2?\x00\x00\x00\x00\x00\x00\x00\x00'
p4841
tp4842
bsVleft_wall
p4843
g21
(g22
(I0
tp4844
g24
tp4845
Rp4846
(I1
(I4
tp4847
g242
I00
S'\x9a\x99\x99\x99\x99\x99\x07@H\xe1z\x14\xaeG\xff?\x9c\xc4 \xb0rh\xc1?\x00\x00\x00\x00\x00\x00\x00\x00'
p4848
tp4849
bsVkitchen
p4850
g21
(g22
(I0
tp4851
g24
tp4852
Rp4853
(I1
(I4
tp4854
g242
I00
S'\x00\x00\x00\x00\x00\x00\x00\x00\x00\x00\x00\x00\x00\x00\x00\x00\x00\x00\x00\x00\x00\x00\x00\x00\x00\x00\x00\x00\x00\x00\x00\x00'
p4855
tp4856
bsVtable2
p4857
g21
(g22
(I0
tp4858
g24
tp4859
Rp4860
(I1
(I4
tp4861
g242
I00
S'\x00\x00\x00\x00\x00\x00\x13@\x80\x14\xaeG\xe1z\xc4?S\x96!\x8euq\xec?\xd2!3\x7f|\xd9\x12@'
p4862
tp4863
bsVc_obst8
p4864
g21
(g22
(I0
tp4865
g24
tp4866
Rp4867
(I1
(I4
tp4868
g242
I00
S'\x9ahg\xcb\xa1W\x12@\xc8\x85\xb9H\xdf\x92\xda?e\xaa`TR\'\xed?i\xe7\x86\xd2\xbd"\xda?'
p4869
tp4870
bsVplate_b4e7
p4871
g21
(g22
(I0
tp4872
g24
tp4873
Rp4874
(I1
(I4
tp4875
g242
I00
S'\x14\xaeG\xe1z\x14\xf2\xbf\x14\xaeG\xe1z\x14\x00@=\n\xd7\xa3p=\xf2?\x00\x00\x00\x00\x00\x00\x00\x00'
p4876
tp4877
bsVcooker
p4878
g21
(g22
(I0
tp4879
g24
tp4880
Rp4881
(I1
(I4
tp4882
g242
I00
S'\xaeG\xe1z\x14\xae\xff?\x85\xebQ\xb8\x1e\x85\xfb?\x00\x00\x00\x00\x00\x00\xe8?\x00\x00\x00\x00\x00\x00\x00\x00'
p4883
tp4884
bsVpin_a091
p4885
g21
(g22
(I0
tp4886
g24
tp4887
Rp4888
(I1
(I4
tp4889
g242
I00
S'\xdb\xf9~j\xbct\xf7\xbf)\\\x8f\xc2\xf5(\x02@\xb8\x1e\x85\xebQ\xb8\xfa?\x00\x00\x00\x00\x00\x00\x00\x00'
p4890
tp4891
bsVside_wall_2
p4892
g21
(g22
(I0
tp4893
g24
tp4894
Rp4895
(I1
(I4
tp4896
g242
I00
S'\xc9\xff\xff\xff\xff\xff\x14@\xba\xff\xff\xff\xff\xaf#=\x9c\xc4 \xb0rh\xc1?#-DT\xfb!\xf9?'
p4897
tp4898
bsVside_wall_3
p4899
g21
(g22
(I0
tp4900
g24
tp4901
Rp4902
(I1
(I4
tp4903
g242
I00
S'\x00\x00\x00\x00\x00\x00\xfc?H\xe1z\x14\xaeG\t@\x9c\xc4 \xb0rh\xc1?\x00\x00\x00\x00\x00\x00\x00\x00'
p4904
tp4905
bsVmixer
p4906
g21
(g22
(I0
tp4907
g24
tp4908
Rp4909
(I1
(I4
tp4910
g242
I00
S'\n\xd7\xa3p=\n\xfb?ffffff\x02@d;\xdfO\x8d\x97\xee?\x00\x00\x00\x00\x00\x00\x00\x00'
p4911
tp4912
bsVside_wall_1
p4913
g21
(g22
(I0
tp4914
g24
tp4915
Rp4916
(I1
(I4
tp4917
g242
I00
S'\x92\xff\xff\xff\xff\xff\xfb\xbf\x81\xff\xff\xff\xff?\n\xbd\x9c\xc4 \xb0rh\xc1?#-DT\xfb!\xf9?'
p4918
tp4919
bsVbottom_wall_1
p4920
g21
(g22
(I0
tp4921
g24
tp4922
Rp4923
(I1
(I4
tp4924
g242
I00
S'H\xe1z\x14\xaeG\x12@\x80\x14\xaeG\xe1z\xc4?\xcc\x7fH\xbf}\x1d\xed?\x00\x00\x00\x00\x00\x00\x00\x00'
p4925
tp4926
bsVcan
p4927
g21
(g22
(I0
tp4928
g24
tp4929
Rp4930
(I1
(I4
tp4931
g242
I00
S'\x00\x00\x00\x00\x00\x00\xf4\xbfH\xe1z\x14\xaeG\xe1\xbf\n\xd7\xa3p=\n\xef?\x00\x00\x00\x00\x00\x00\x00\x00'
p4932
tp4933
bsVright_wall
p4934
g21
(g22
(I0
tp4935
g24
tp4936
Rp4937
(I1
(I4
tp4938
g242
I00
S'\x9a\x99\x99\x99\x99\x99\x07@H\xe1z\x14\xaeG\xff\xbf\x9c\xc4 \xb0rh\xc1?\x00\x00\x00\x00\x00\x00\x00\x00'
p4939
tp4940
bsVcoffe_machine
p4941
g21
(g22
(I0
tp4942
g24
tp4943
Rp4944
(I1
(I4
tp4945
g242
I00
S'\\\x8f\xc2\xf5(\\\xf5\xbf\xb8\x1e\x85\xebQ\xb8\xee?\n\xd7\xa3p=\n\xef?\x00\x00\x00\x00\x00\x00\x00\x00'
p4946
tp4947
bsVcomputer_chair
p4948
g21
(g22
(I0
tp4949
g24
tp4950
Rp4951
(I1
(I4
tp4952
g242
I00
S'\xcd\xcc\xcc\xcc\xcc\xcc\x10@\x00\x00\x00\x00\x00\x00\xf8\xbf\xa00\xb6\x10\xe4\xa9\x95\xbf\x00\x00\x00\x00\x00\x00\x00\x00'
p4953
tp4954
bssg2610
g21
(g22
(I0
tp4955
g24
tp4956
Rp4957
(I1
(I39
tp4958
g242
I00
S'\x00\x00\x00\x00\x00\x00\x00\x00\x00\x00\x00\x00\x00\x00\x00\x00\x00\x00\x00\x00\x00\x00\x00\x00\x00\x00\x00\x00\x00\x00\x00\x00\x00\x00\x00\x00\x00\x00\x00\x00\x00\x00\x00\x00\x00\x00\x00\x00\x00\x00\x00\x00\x00\x00\x00\x00\x00\x00\x00\x00\x00\x00\x00\x00\x00\x00\x00\x00\x00\x00\x00\x00\x00\x00\x00\x00\x00\x00\x00\x00\x00\x00\x00\x00\x00\x00\x00\x00\x00\x00\x00\x00\x00\x00\x00\x00@d;\xdfO\x8d\x87?\x00\x00\x00\x00\x00\x00\x00\x00\x00\x00\x00\x00\x00\x00\x00\x00\x00\x00\x00\x00\x00\x00\x00\x00\xeb\xed\t\xf1\xcc\xa4\xf4?\x00\x00\x00\x00\x00\x00\xb0<N"\xd0^p\xf8\x00\xc0\x00\x00\x00\x00\x00\x00\x00\x00\xa3\x03\r.\x04V\xe6\xbf\x00\x00\x00\x00\x00\x00\x00\x00\x00\x00\x00\x00\x00\x00\x00\x00\x00\x00\x00\x00\x00\xe0\xf3\xbc\x00\x00\x00\x00\x00\x00\x00\x00\x00\x00\x00\x00\x00\x00\x14=\x00\x00\x00\x00\x00\x00\x00\x00\x00\x00\x00\x00\x00\x00\x00\x00\xeb\xed\t\xf1\xcc\xa4\xf4?\x00\x00\x00\x00\x00\x00\x00\x00N"\xd0^p\xf8\x00\xc0\x00\x00\x00\x00\x00\x00\x00\x00\xa3\x03\r.\x04V\xe6\xbf\x00\x00\x00\x00\x00\x00\x00\x00\x9b9\xe3\xc17\x89\xe1?\x00\x00\x00\x00\x00\x00\xac\xbc\x00\x00\x00\x00\x00\x00\x00\x00\x00\x00\x00\x00\x00\x00(\xbd\x00\x00\x00\x00\x00\x00\x00\x00'
p4959
tp4960
bsg2617
I00
sbsg2618
Nsg2619
(dp4961
(g606
g606
g233
tp4962
g1270
s(g408
g1271
g1271
tp4963
g1273
s(g459
g306
g1271
tp4964
g1278
s(g233
g233
g233
tp4965
g1280
s(g306
g606
g1271
tp4966
g1282
s(g408
g232
g233
tp4967
g1284
s(g233
g357
g233
tp4968
g1286
s(g459
g408
g233
tp4969
g1288
s(g459
g232
g1271
tp4970
g1596
s(g233
g306
g1271
tp4971
g1292
s(g459
g1274
g233
tp4972
g1294
s(g1271
g233
g1271
tp4973
g1296
s(g357
g567
g233
tp4974
g1298
s(g306
g1274
g233
tp4975
g1300
s(g233
g459
g1271
tp4976
g1414
s(g567
g1271
g233
tp4977
g1304
s(g1274
g606
g1271
tp4978
g1306
s(g606
g1271
g233
tp4979
g1310
s(g606
g357
g1271
tp4980
g1450
s(g408
g408
g1271
tp4981
g1314
s(g1271
g306
g1271
tp4982
g1316
s(g1274
g459
g233
tp4983
g1320
s(g1271
g1271
g233
tp4984
g1322
s(g567
g357
g1271
tp4985
g1324
s(g233
g233
g1271
tp4986
g1326
s(g306
g606
g233
tp4987
g1688
s(g606
g306
g233
tp4988
g1330
s(g232
g567
g1271
tp4989
g1422
s(g567
g233
g233
tp4990
g1632
s(g606
g232
g1271
tp4991
g1694
s(g1271
g408
g1271
tp4992
g1342
s(g408
g1274
g1271
tp4993
g1696
s(g606
g606
g1271
tp4994
g1346
s(g1274
g306
g233
tp4995
g1348
s(g1271
g233
g233
tp4996
g1350
s(g357
g606
g233
tp4997
g1352
s(g459
g567
g233
tp4998
g1610
s(g408
g232
g1271
tp4999
g1360
s(g567
g459
g233
tp5000
g1362
s(g459
g408
g1271
tp5001
g1364
s(g459
g606
g1271
tp5002
g1366
s(g1274
g459
g1271
tp5003
g1368
s(g1271
g232
g1271
tp5004
g1370
s(g1274
g233
g233
tp5005
g1372
s(g1271
g1274
g233
tp5006
g1376
s(g606
g306
g1271
tp5007
g1378
s(g567
g606
g1271
tp5008
g1380
s(g1274
g1271
g1271
tp5009
g1646
s(g1274
g606
g233
tp5010
g1386
s(g1274
g567
g1271
tp5011
g1436
s(g567
g408
g233
tp5012
g1332
s(g306
g408
g233
tp5013
g1390
s(g408
g408
g233
tp5014
g1392
s(g408
g357
g233
tp5015
g1394
s(g357
g606
g1271
tp5016
g1396
s(g567
g357
g233
tp5017
g1400
s(g306
g1274
g1271
tp5018
g1712
s(g567
g233
g1271
tp5019
g1526
s(g459
g606
g233
tp5020
g1408
s(g606
g567
g233
tp5021
g1410
s(g1274
g233
g1271
tp5022
g1416
s(g1274
g306
g1271
tp5023
g1418
s(g567
g606
g233
tp5024
g1420
s(g606
g1274
g1271
tp5025
g1424
s(g459
g567
g1271
tp5026
g1652
s(g1274
g567
g233
tp5027
g1672
s(g567
g459
g1271
tp5028
g1428
s(g306
g408
g1271
tp5029
g1432
s(g408
g459
g233
tp5030
g1600
s(g1271
g232
g233
tp5031
g1438
s(g1271
g567
g233
tp5032
g1446
s(g606
g567
g1271
tp5033
g1448
s(g567
g1274
g233
tp5034
g1312
s(g408
g357
g1271
tp5035
g1454
s(g567
g567
g233
tp5036
g1382
s(g459
g459
g233
tp5037
g1714
s(g232
g1271
g1271
tp5038
g1460
s(g606
g1274
g233
tp5039
g1466
s(g357
g459
g1271
tp5040
g1468
s(g232
g606
g1271
tp5041
g1470
s(g306
g1271
g1271
tp5042
g1474
s(g459
g233
g233
tp5043
g1476
s(g233
g232
g233
tp5044
g1354
s(g1271
g567
g1271
tp5045
g1484
s(g408
g567
g233
tp5046
g1486
s(g1274
g1271
g233
tp5047
g1318
s(g306
g357
g233
tp5048
g1478
s(g606
g459
g233
tp5049
g1494
s(g232
g233
g1271
tp5050
g1496
s(g306
g1271
g233
tp5051
g1498
s(g1271
g357
g1271
tp5052
g1500
s(g606
g357
g233
tp5053
g1502
s(g459
g357
g233
tp5054
g1720
s(g357
g357
g233
tp5055
g1506
s(g357
g232
g1271
tp5056
g1508
s(g232
g1271
g233
tp5057
g1510
s(g459
g306
g233
tp5058
g1732
s(g567
g306
g233
tp5059
g1512
s(g357
g459
g233
tp5060
g1514
s(g459
g1271
g1271
tp5061
g1516
s(g232
g1274
g1271
tp5062
g1518
s(g459
g233
g1271
tp5063
g1520
s(g408
g459
g1271
tp5064
g1522
s(g306
g357
g1271
tp5065
g1524
s(g306
g306
g1271
tp5066
g1570
s(g232
g233
g233
tp5067
g1528
s(g1271
g357
g233
tp5068
g1530
s(g408
g567
g1271
tp5069
g1540
s(g306
g567
g233
tp5070
g1536
s(g408
g606
g233
tp5071
g1538
s(g233
g1274
g233
tp5072
g1308
s(g357
g408
g1271
tp5073
g1542
s(g233
g459
g233
tp5074
g1544
s(g1274
g232
g1271
tp5075
g1546
s(g232
g408
g233
tp5076
g1548
s(g567
g306
g1271
tp5077
g1552
s(g567
g232
g1271
tp5078
g1554
s(g1271
g306
g233
tp5079
g1534
s(g233
g567
g1271
tp5080
g1480
s(g357
g1271
g233
tp5081
g1560
s(g232
g1274
g233
tp5082
g1562
s(g306
g232
g1271
tp5083
g1564
s(g606
g459
g1271
tp5084
g1558
s(g232
g567
g233
tp5085
g1724
s(g357
g357
g1271
tp5086
g1572
s(g408
g306
g1271
tp5087
g1576
s(g408
g1274
g233
tp5088
g1650
s(g1274
g408
g233
tp5089
g1580
s(g233
g1274
g1271
tp5090
g1582
s(g459
g1271
g233
tp5091
g1586
s(g408
g606
g1271
tp5092
g1588
s(g459
g357
g1271
tp5093
g1654
s(g1274
g232
g233
tp5094
g1594
s(g606
g408
g233
tp5095
g1566
s(g232
g357
g1271
tp5096
g1290
s(g1271
g459
g1271
tp5097
g1440
s(g606
g1271
g1271
tp5098
g1738
s(g306
g232
g233
tp5099
g1606
s(g408
g233
g1271
tp5100
g1608
s(g232
g306
g233
tp5101
g1358
s(g567
g567
g1271
tp5102
g1612
s(g357
g1274
g233
tp5103
g1614
s(g1271
g1274
g1271
tp5104
g1616
s(g306
g567
g1271
tp5105
g1618
s(g1274
g1274
g1271
tp5106
g1622
s(g357
g408
g233
tp5107
g1624
s(g408
g306
g233
tp5108
g1626
s(g1274
g357
g1271
tp5109
g1662
s(g232
g408
g1271
tp5110
g1630
s(g357
g233
g1271
tp5111
g1462
s(g1274
g408
g1271
tp5112
g1634
s(g567
g232
g233
tp5113
g1636
s(g232
g459
g233
tp5114
g1638
s(g357
g1271
g1271
tp5115
g1640
s(g606
g408
g1271
tp5116
g1642
s(g306
g459
g233
tp5117
g1578
s(g232
g306
g1271
tp5118
g1452
s(g232
g232
g1271
tp5119
g1592
s(g232
g606
g233
tp5120
g1492
s(g306
g233
g233
tp5121
g1656
s(g357
g1274
g1271
tp5122
g1658
s(g357
g306
g233
tp5123
g1660
s(g1271
g606
g1271
tp5124
g1628
s(g233
g567
g233
tp5125
g1666
s(g1274
g357
g233
tp5126
g1702
s(g459
g232
g233
tp5127
g1674
s(g459
g459
g1271
tp5128
g1676
s(g306
g233
g1271
tp5129
g1680
s(g606
g233
g233
tp5130
g1682
s(g408
g233
g233
tp5131
g1684
s(g233
g232
g1271
tp5132
g1434
s(g233
g1271
g233
tp5133
g1690
s(g1274
g1274
g233
tp5134
g1692
s(g233
g606
g1271
tp5135
g1336
s(g306
g459
g1271
tp5136
g1344
s(g1271
g459
g233
tp5137
g1698
s(g357
g233
g233
tp5138
g1374
s(g1271
g606
g233
tp5139
g1648
s(g408
g1271
g233
tp5140
g1704
s(g232
g459
g1271
tp5141
g1706
s(g233
g408
g233
tp5142
g1708
s(g232
g357
g233
tp5143
g1700
s(g233
g408
g1271
tp5144
g1458
s(g567
g1274
g1271
tp5145
g1718
s(g232
g232
g233
tp5146
g1504
s(g233
g306
g233
tp5147
g1722
s(g357
g306
g1271
tp5148
g1726
s(g306
g306
g233
tp5149
g1728
s(g567
g408
g1271
tp5150
g1568
s(g567
g1271
g1271
tp5151
g1734
s(g606
g232
g233
tp5152
g1752
s(g357
g232
g233
tp5153
g1604
s(g233
g357
g1271
tp5154
g1740
s(g606
g233
g1271
tp5155
g1742
s(g1271
g1271
g1271
tp5156
g1744
s(g459
g1274
g1271
tp5157
g1746
s(g357
g567
g1271
tp5158
g1748
s(g233
g1271
g1271
tp5159
g1750
s(g233
g606
g233
tp5160
g1736
s(g1271
g408
g233
tp5161
g1754
ssg2621
(dp5162
(g3708
g1271
tp5163
(lp5164
g21
(g22
(I0
tp5165
g24
tp5166
Rp5167
(I1
(I3
tp5168
g242
I00
S'Yp\xe0\x18\xfcX\x05@\x93O\xe2W\r\xc2\x1d\xc0\xbc\x89\xcfi\xef\x9a\x0c@'
p5169
tp5170
bas(g3833
g233
tp5171
g3337
s(g3706
g233
tp5172
g3387
s(g3803
g1271
tp5173
(lp5174
g21
(g22
(I0
tp5175
g24
tp5176
Rp5177
(I1
(I3
tp5178
g242
I00
S"\xf3\xd0\xc0\x05\xff\xa7\xc9?E\x8d\xe4\x9b6\x9c\x18\xc0\xa6v\x05)'\x8a\x12@"
p5179
tp5180
bas(g3706
g1271
tp5181
(lp5182
g21
(g22
(I0
tp5183
g24
tp5184
Rp5185
(I1
(I3
tp5186
g242
I00
S'o\xc8Zi\x80n\xee?^eh1\xc0\xb8\x1c\xc02"\xe2\xf04 \x13@'
p5187
tp5188
bas(g3803
g233
tp5189
g3593
s(g3802
g1271
tp5190
(lp5191
g21
(g22
(I0
tp5192
g24
tp5193
Rp5194
(I1
(I3
tp5195
g242
I00
S'\xa9\xfe\x91o\xa4\x96\xe1?\xf0\xbc\x82g\xd9\xe8\x19\xc0\xc5\xd4\xb0\xaf2\x01\xff?'
p5196
tp5197
bas(g3802
g233
tp5198
g3487
s(g80
g233
tp5199
g3437
s(g3707
g233
tp5200
g3275
s(g3707
g1271
tp5201
(lp5202
g21
(g22
(I0
tp5203
g24
tp5204
Rp5205
(I1
(I3
tp5206
g242
I00
S'wO\x9cnO\xa6\x07@\xac\xad\x06\xf8\x9a\xd5\x18\xc0E\x94\x1d\xd7\xf0\x01\x03@'
p5207
tp5208
bas(g3833
g1271
tp5209
(lp5210
g21
(g22
(I0
tp5211
g24
tp5212
Rp5213
(I1
(I3
tp5214
g242
I00
S'\r\x14\x84z\xa1\x07\xd0?\x9d\x17>=\x976\x1a\xc0\xdd\xfb\xff,\re\x03@'
p5215
tp5216
bas(g80
g1271
tp5217
(lp5218
g21
(g22
(I0
tp5219
g24
tp5220
Rp5221
(I1
(I3
tp5222
g242
I00
S'V9P\xaa\xac\xa3\x00@\xa2*\x83V\xa4h\x19\xc0w\\3\xcaU0\x02@'
p5223
tp5224
bas(g3722
g1271
tp5225
(lp5226
g21
(g22
(I0
tp5227
g24
tp5228
Rp5229
(I1
(I3
tp5230
g242
I00
S'eIw\x96\xd7K\xb0\xbf\x02\xddz\x8b@\xca\x18\xc0\x88k\xc0\xdd_\xb7\xd4?'
p5231
tp5232
bas(g3722
g233
tp5233
g3631
s(g3708
g233
tp5234
g3531
ssg2695
(dp5235
(g459
g306
tp5236
g2791
s(g232
g232
tp5237
g2797
s(g232
g567
tp5238
g2795
s(g606
g606
tp5239
g2985
s(g459
g357
tp5240
g2793
s(g606
g567
tp5241
g2799
s(g233
g606
tp5242
g2995
s(g306
g606
tp5243
g2803
s(g459
g408
tp5244
g2805
s(g357
g357
tp5245
g2809
s(g606
g1271
tp5246
g2811
s(g357
g306
tp5247
g2823
s(g1274
g459
tp5248
g2969
s(g408
g233
tp5249
g2827
s(g1271
g357
tp5250
g2865
s(g606
g306
tp5251
g2831
s(g232
g1274
tp5252
g2833
s(g459
g459
tp5253
g2835
s(g1274
g306
tp5254
g2933
s(g567
g606
tp5255
g2839
s(g606
g233
tp5256
g2841
s(g1274
g1271
tp5257
g2821
s(g408
g408
tp5258
g2847
s(g606
g1274
tp5259
g2849
s(g1274
g357
tp5260
g2935
s(g1271
g567
tp5261
g2853
s(g606
g459
tp5262
g2983
s(g1271
g232
tp5263
g2855
s(g567
g233
tp5264
g2857
s(g306
g357
tp5265
g2859
s(g1274
g233
tp5266
g2867
s(g408
g606
tp5267
g2869
s(g357
g567
tp5268
g2871
s(g567
g1274
tp5269
g2875
s(g232
g459
tp5270
g2877
s(g306
g408
tp5271
g2879
s(g232
g606
tp5272
g2881
s(g306
g233
tp5273
g2883
s(g1274
g1274
tp5274
g2885
s(g567
g357
tp5275
g2887
s(g306
g1274
tp5276
g3017
s(g233
g1274
tp5277
g3019
s(g233
g408
tp5278
g2891
s(g1274
g567
tp5279
g2873
s(g306
g232
tp5280
g2897
s(g232
g408
tp5281
g2899
s(g567
g1271
tp5282
g2901
s(g306
g306
tp5283
g3035
s(g567
g567
tp5284
g2905
s(g1271
g233
tp5285
g2909
s(g233
g459
tp5286
g2911
s(g357
g233
tp5287
g2913
s(g233
g306
tp5288
g2917
s(g459
g567
tp5289
g3003
s(g606
g232
tp5290
g2801
s(g306
g1271
tp5291
g2923
s(g357
g606
tp5292
g2927
s(g357
g1271
tp5293
g2929
s(g1271
g459
tp5294
g2837
s(g1271
g606
tp5295
g2851
s(g1271
g1271
tp5296
g2945
s(g232
g357
tp5297
g3027
s(g408
g567
tp5298
g2949
s(g1271
g408
tp5299
g2951
s(g606
g357
tp5300
g2953
s(g408
g1274
tp5301
g2957
s(g459
g606
tp5302
g2959
s(g232
g233
tp5303
g2961
s(g408
g357
tp5304
g2963
s(g357
g408
tp5305
g2965
s(g606
g408
tp5306
g2967
s(g1271
g306
tp5307
g2825
s(g567
g459
tp5308
g2973
s(g459
g1271
tp5309
g2975
s(g306
g459
tp5310
g2979
s(g408
g306
tp5311
g2981
s(g233
g567
tp5312
g2943
s(g233
g232
tp5313
g2931
s(g459
g233
tp5314
g2989
s(g567
g408
tp5315
g2991
s(g232
g1271
tp5316
g2993
s(g357
g232
tp5317
g2999
s(g233
g1271
tp5318
g3001
s(g232
g306
tp5319
g2919
s(g1274
g232
tp5320
g3005
s(g459
g1274
tp5321
g3007
s(g567
g232
tp5322
g3009
s(g233
g233
tp5323
g3011
s(g357
g1274
tp5324
g3015
s(g408
g459
tp5325
g2889
s(g1274
g606
tp5326
g2829
s(g233
g357
tp5327
g3021
s(g567
g306
tp5328
g3023
s(g306
g567
tp5329
g3025
s(g459
g232
tp5330
g2947
s(g1271
g1274
tp5331
g3029
s(g408
g232
tp5332
g3031
s(g357
g459
tp5333
g3033
s(g408
g1271
tp5334
g3037
s(g1274
g408
tp5335
g3039
ssg2697
(dp5336
g1274
(lp5337
I0
aI0
aI0
aI0
aI0
aI0
aI00
aI01
aI00
aI01
aI00
asg1271
(lp5338
I0
aI0
aI0
aI0
aI0
aI0
aI00
aI01
aI00
aI01
aI00
asg233
(lp5339
I0
aI0
aI0
aI0
aI0
aI0
aI00
aI01
aI01
aI01
aI00
asg357
(lp5340
I0
aI0
aI0
ag2016
(g242
S't:\xe0\x17y7\xf0?'
p5341
tp5342
Rp5343
ag2016
(g242
S'9\xa9+\x7fO\xce\x1f\xc0'
p5344
tp5345
Rp5346
ag2016
(g242
S'\xf7\xf6\x1f\xc7\xc0\xab\x00@'
p5347
tp5348
Rp5349
aI01
aI00
aI00
aI01
aI00
asg606
(lp5350
I0
aI0
aI0
ag2016
(g242
S'*b\xb0\x05\x87\x92\xe8?'
p5351
tp5352
Rp5353
ag2016
(g242
S'\x0b\xef\x1b\xc2*Z\x19\xc0'
p5354
tp5355
Rp5356
ag2016
(g242
S'\x95hQ"\xb4\xad\xf8?'
p5357
tp5358
Rp5359
aI01
aI00
aI00
aI00
aI00
asg232
(lp5360
I0
aI0
aI0
ag2016
(g242
S'x\x99\xb4\x13\xe2\x92\x03@'
p5361
tp5362
Rp5363
ag2016
(g242
S'"\xc1\xe2\xec\xae\xf9\x16\xc0'
p5364
tp5365
Rp5366
ag2016
(g242
S'z\x90b\xcd\xd3\x94\xf0?'
p5367
tp5368
Rp5369
aI01
aI00
aI00
aI01
aI00
asg510
(lp5370
I0
aI0
aI0
ag2016
(g242
S'\xae\xaa\xf3\x89S\xcf\xff?'
p5371
tp5372
Rp5373
ag2016
(g242
S'\xf7u\xd4\xfcyC\x1f\xc0'
p5374
tp5375
Rp5376
ag2016
(g242
S'\xa1\xb7\x08n\xdfO\x0e@'
p5377
tp5378
Rp5379
aI01
aI00
aI00
aI01
aI00
asg459
(lp5380
I0
aI0
aI0
ag2016
(g242
S'@\x85;pY\xed\xb4?'
p5381
tp5382
Rp5383
ag2016
(g242
S'\xc1/\xf5>8W\x17\xc0'
p5384
tp5385
Rp5386
ag2016
(g242
S'\x8f\xad\xe1\xa1\x909\x0e@'
p5387
tp5388
Rp5389
aI01
aI00
aI00
aI00
aI00
asg567
(lp5390
I0
aI0
aI0
ag2016
(g242
S'\x19\xe5\x94.3\xf0\xb9?'
p5391
tp5392
Rp5393
ag2016
(g242
S'.e\x0e\xd58\\\x1b\xc0'
p5394
tp5395
Rp5396
ag2016
(g242
S'\xbd\xd0S\x17\xd8\xf0\xf1?'
p5397
tp5398
Rp5399
aI01
aI00
aI00
aI00
aI00
asg408
(lp5400
I0
aI0
aI0
ag2016
(g242
S'\xadLoD\xf6\x8d\xfc?'
p5401
tp5402
Rp5403
ag2016
(g242
S'\xb6\x80*%]\xb5\x16\xc0'
p5404
tp5405
Rp5406
ag2016
(g242
S'KOq\xaa]\xb2\xcd?'
p5407
tp5408
Rp5409
aI01
aI00
aI01
aI01
aI00
asg306
(lp5410
I0
aI0
aI0
ag2016
(g242
S'\xce\xb2\x87\r\x0cw\xda\xbf'
p5411
tp5412
Rp5413
ag2016
(g242
S'\x14\xbd\xabg_\x1a\x18\xc0'
p5414
tp5415
Rp5416
ag2016
(g242
S'z*B\xe8\xd6\xd9\x05@'
p5417
tp5418
Rp5419
aI01
aI00
aI00
aI00
aI00
assg2782
(dp5420
sg2784
g123
sg2785
g2786
sg2788
(dp5421
(g459
g306
tp5422
(lp5423
I00
aI01
aI00
as(g459
g357
tp5424
(lp5425
I00
aI00
aI00
as(g232
g567
tp5426
(lp5427
I00
aI00
aI00
as(g232
g232
tp5428
(lp5429
I00
aI00
aI00
as(g606
g567
tp5430
(lp5431
I00
aI01
aI00
as(g606
g232
tp5432
(lp5433
I00
aI00
aI00
as(g306
g606
tp5434
(lp5435
I00
aI00
aI00
as(g459
g408
tp5436
(lp5437
I00
aI00
aI00
as(g510
g232
tp5438
(lp5439
I00
aI00
aI00
as(g357
g357
tp5440
(lp5441
I00
aI00
aI00
as(g606
g1271
tp5442
(lp5443
g2819
aI00
aI01
as(g1274
g1271
tp5444
(lp5445
I00
aI00
aI00
as(g357
g306
tp5446
(lp5447
I00
aI00
aI00
as(g1271
g306
tp5448
(lp5449
I00
aI00
aI00
as(g408
g233
tp5450
(lp5451
I00
aI00
aI00
as(g1274
g606
tp5452
(lp5453
I00
aI00
aI00
as(g606
g306
tp5454
(lp5455
I00
aI01
aI00
as(g232
g1274
tp5456
(lp5457
g2819
aI00
aI00
as(g459
g459
tp5458
(lp5459
I00
aI00
aI00
as(g1271
g459
tp5460
(lp5461
I00
aI00
aI00
as(g567
g606
tp5462
(lp5463
I00
aI00
aI00
as(g606
g233
tp5464
(lp5465
I00
aI00
aI00
as(g510
g567
tp5466
(lp5467
I00
aI01
aI00
as(g357
g510
tp5468
(lp5469
I00
aI00
aI00
as(g408
g408
tp5470
(lp5471
I00
aI00
aI00
as(g606
g1274
tp5472
(lp5473
g2819
aI00
aI00
as(g1271
g606
tp5474
(lp5475
I00
aI00
aI00
as(g1271
g567
tp5476
(lp5477
I00
aI00
aI00
as(g1271
g232
tp5478
(lp5479
I00
aI00
aI00
as(g567
g233
tp5480
(lp5481
I00
aI00
aI00
as(g306
g357
tp5482
(lp5483
I00
aI00
aI00
as(g510
g357
tp5484
(lp5485
I00
aI00
aI00
as(g567
g510
tp5486
(lp5487
I00
aI00
aI00
as(g1271
g357
tp5488
(lp5489
I00
aI00
aI00
as(g1274
g233
tp5490
(lp5491
I00
aI00
aI00
as(g408
g606
tp5492
(lp5493
I00
aI01
aI00
as(g357
g567
tp5494
(lp5495
I00
aI00
aI00
as(g1274
g567
tp5496
(lp5497
I00
aI00
aI00
as(g567
g1274
tp5498
(lp5499
g2819
aI00
aI00
as(g232
g459
tp5500
(lp5501
I00
aI00
aI00
as(g306
g408
tp5502
(lp5503
I00
aI00
aI00
as(g232
g606
tp5504
(lp5505
I00
aI01
aI00
as(g306
g233
tp5506
(lp5507
I00
aI00
aI00
as(g1274
g1274
tp5508
(lp5509
I00
aI00
aI00
as(g567
g357
tp5510
(lp5511
I00
aI00
aI00
as(g408
g459
tp5512
(lp5513
I00
aI00
aI00
as(g233
g408
tp5514
(lp5515
I00
aI00
aI00
as(g510
g1271
tp5516
(lp5517
g2819
aI00
aI01
as(g233
g510
tp5518
(lp5519
I00
aI00
aI00
as(g306
g232
tp5520
(lp5521
I00
aI00
aI00
as(g232
g408
tp5522
(lp5523
I00
aI00
aI00
as(g567
g1271
tp5524
(lp5525
g2819
aI00
aI01
as(g232
g510
tp5526
(lp5527
I00
aI00
aI00
as(g567
g567
tp5528
(lp5529
I00
aI00
aI00
as(g510
g606
tp5530
(lp5531
I00
aI00
aI00
as(g1271
g233
tp5532
(lp5533
I00
aI00
aI00
as(g233
g459
tp5534
(lp5535
I00
aI00
aI00
as(g357
g233
tp5536
(lp5537
I00
aI00
aI00
as(g1274
g510
tp5538
(lp5539
I00
aI00
aI00
as(g233
g306
tp5540
(lp5541
I00
aI00
aI00
as(g232
g306
tp5542
(lp5543
I00
aI00
aI00
as(g510
g1274
tp5544
(lp5545
g2819
aI00
aI00
as(g306
g1271
tp5546
(lp5547
g2819
aI00
aI01
as(g510
g459
tp5548
(lp5549
I00
aI00
aI00
as(g357
g606
tp5550
(lp5551
I00
aI00
aI00
as(g357
g1271
tp5552
(lp5553
g2819
aI00
aI01
as(g233
g232
tp5554
(lp5555
I00
aI00
aI00
as(g1274
g306
tp5556
(lp5557
I00
aI00
aI00
as(g1274
g357
tp5558
(lp5559
I00
aI00
aI00
as(g510
g233
tp5560
(lp5561
I00
aI00
aI00
as(g459
g510
tp5562
(lp5563
I00
aI00
aI00
as(g408
g510
tp5564
(lp5565
I00
aI00
aI00
as(g233
g567
tp5566
(lp5567
I00
aI00
aI00
as(g1271
g1271
tp5568
(lp5569
I00
aI00
aI00
as(g459
g232
tp5570
(lp5571
I00
aI00
aI00
as(g408
g567
tp5572
(lp5573
I00
aI00
aI00
as(g1271
g408
tp5574
(lp5575
I00
aI00
aI00
as(g606
g357
tp5576
(lp5577
I00
aI00
aI00
as(g1271
g510
tp5578
(lp5579
I00
aI00
aI00
as(g408
g1274
tp5580
(lp5581
g2819
aI00
aI00
as(g459
g606
tp5582
(lp5583
I00
aI00
aI00
as(g232
g233
tp5584
(lp5585
I00
aI00
aI00
as(g408
g357
tp5586
(lp5587
I00
aI00
aI00
as(g357
g408
tp5588
(lp5589
I00
aI00
aI00
as(g606
g408
tp5590
(lp5591
I00
aI00
aI00
as(g1274
g459
tp5592
(lp5593
I00
aI00
aI00
as(g606
g510
tp5594
(lp5595
I00
aI00
aI00
as(g567
g459
tp5596
(lp5597
I00
aI01
aI00
as(g459
g1271
tp5598
(lp5599
g2819
aI00
aI01
as(g510
g510
tp5600
(lp5601
I00
aI00
aI00
as(g306
g459
tp5602
(lp5603
I00
aI00
aI00
as(g408
g306
tp5604
(lp5605
I00
aI00
aI00
as(g606
g459
tp5606
(lp5607
I00
aI01
aI00
as(g606
g606
tp5608
(lp5609
I00
aI00
aI00
as(g306
g510
tp5610
(lp5611
I00
aI00
aI00
as(g459
g233
tp5612
(lp5613
I00
aI00
aI00
as(g567
g408
tp5614
(lp5615
I00
aI00
aI00
as(g232
g1271
tp5616
(lp5617
g2819
aI00
aI01
as(g233
g606
tp5618
(lp5619
I00
aI00
aI00
as(g510
g408
tp5620
(lp5621
I00
aI00
aI00
as(g357
g232
tp5622
(lp5623
I00
aI00
aI00
as(g233
g1271
tp5624
(lp5625
I00
aI00
aI00
as(g459
g567
tp5626
(lp5627
I00
aI00
aI00
as(g1274
g232
tp5628
(lp5629
I00
aI00
aI00
as(g459
g1274
tp5630
(lp5631
g2819
aI00
aI00
as(g567
g232
tp5632
(lp5633
I00
aI00
aI00
as(g233
g233
tp5634
(lp5635
I00
aI00
aI00
as(g510
g306
tp5636
(lp5637
I00
aI01
aI00
as(g357
g1274
tp5638
(lp5639
g2819
aI00
aI00
as(g306
g1274
tp5640
(lp5641
g2819
aI00
aI00
as(g233
g1274
tp5642
(lp5643
I00
aI00
aI00
as(g233
g357
tp5644
(lp5645
I00
aI00
aI00
as(g567
g306
tp5646
(lp5647
I00
aI00
aI00
as(g306
g567
tp5648
(lp5649
I00
aI00
aI00
as(g232
g357
tp5650
(lp5651
I00
aI00
aI00
as(g1271
g1274
tp5652
(lp5653
I00
aI00
aI00
as(g408
g232
tp5654
(lp5655
I00
aI00
aI00
as(g357
g459
tp5656
(lp5657
I00
aI00
aI00
as(g306
g306
tp5658
(lp5659
I00
aI00
aI00
as(g408
g1271
tp5660
(lp5661
g2819
aI00
aI01
as(g1274
g408
tp5662
(lp5663
I00
aI00
aI00
assg681
g3705
sg3040
(itrajectory_representation.predicates.pick_in_way
PickInWay
p5664
(dp5665
g230
(dp5666
g357
g4215
sg606
g4240
sg232
g4265
sg510
g4284
sg459
g4291
sg567
g4316
sg408
g3814
sg306
g4341
ssg645
(dp5667
g357
(lp5668
sg606
(lp5669
Vsquare_packing_box1
p5670
aVrectangular_packing_box3
p5671
asg232
(lp5672
sg510
(lp5673
sg459
(lp5674
Vrectangular_packing_box2
p5675
aVsquare_packing_box3
p5676
asg567
(lp5677
Vrectangular_packing_box1
p5678
aVrectangular_packing_box2
p5679
aVsquare_packing_box3
p5680
asg408
(lp5681
sg306
(lp5682
Vrectangular_packing_box1
p5683
aVrectangular_packing_box2
p5684
aVsquare_packing_box2
p5685
assg681
(lp5686
g510
ag232
ag357
ag1274
ag233
ag1271
ag408
ag1274
ag233
ag1271
ag1274
ag233
ag1271
ag1274
ag233
ag1271
ag1274
ag233
ag1271
ag1274
ag233
ag1271
ag1274
ag233
ag1271
ag1274
ag233
ag1271
asg685
g3709
sg125
(dp5687
sg720
g3721
sg1199
Nsg1205
g3721
sg1202
(dp5688
sg1204
I8
sg1266
I01
sg1206
Nsg1207
(dp5689
(g459
g306
tp5690
I01
s(g459
g357
tp5691
I00
s(g232
g567
tp5692
I00
s(g232
g232
tp5693
I00
s(g606
g567
tp5694
I01
s(g606
g232
tp5695
I00
s(g306
g606
tp5696
I00
s(g459
g408
tp5697
I00
s(g510
g232
tp5698
I00
s(g357
g357
tp5699
I00
s(g606
g1271
tp5700
I00
s(g1274
g1271
tp5701
I00
s(g357
g306
tp5702
I00
s(g1271
g306
tp5703
I00
s(g408
g233
tp5704
I00
s(g1274
g606
tp5705
I00
s(g606
g306
tp5706
I01
s(g232
g1274
tp5707
I00
s(g459
g459
tp5708
I00
s(g1271
g459
tp5709
I00
s(g567
g606
tp5710
I00
s(g606
g233
tp5711
I00
s(g510
g567
tp5712
I01
s(g357
g510
tp5713
I00
s(g408
g408
tp5714
I00
s(g606
g1274
tp5715
I00
s(g1271
g606
tp5716
I00
s(g1271
g567
tp5717
I00
s(g1271
g232
tp5718
I00
s(g567
g233
tp5719
I00
s(g306
g357
tp5720
I00
s(g510
g357
tp5721
I00
s(g567
g510
tp5722
I00
s(g1271
g357
tp5723
I00
s(g1274
g233
tp5724
I00
s(g408
g606
tp5725
I01
s(g357
g567
tp5726
I00
s(g1274
g567
tp5727
I00
s(g567
g1274
tp5728
I00
s(g232
g459
tp5729
I00
s(g306
g408
tp5730
I00
s(g232
g606
tp5731
I01
s(g306
g233
tp5732
I00
s(g1274
g1274
tp5733
I00
s(g567
g357
tp5734
I00
s(g408
g459
tp5735
I00
s(g233
g408
tp5736
I00
s(g510
g1271
tp5737
I00
s(g233
g510
tp5738
I00
s(g306
g232
tp5739
I00
s(g232
g408
tp5740
I00
s(g567
g1271
tp5741
I00
s(g232
g510
tp5742
I00
s(g567
g567
tp5743
I00
s(g510
g606
tp5744
I00
s(g1271
g233
tp5745
I00
s(g233
g459
tp5746
I00
s(g357
g233
tp5747
I00
s(g1274
g510
tp5748
I00
s(g233
g306
tp5749
I00
s(g232
g306
tp5750
I00
s(g510
g1274
tp5751
I00
s(g306
g1271
tp5752
I00
s(g510
g459
tp5753
I00
s(g357
g606
tp5754
I00
s(g357
g1271
tp5755
I00
s(g233
g232
tp5756
I00
s(g1274
g306
tp5757
I00
s(g1274
g357
tp5758
I00
s(g510
g233
tp5759
I00
s(g459
g510
tp5760
I00
s(g408
g510
tp5761
I00
s(g233
g567
tp5762
I00
s(g1271
g1271
tp5763
I00
s(g459
g232
tp5764
I00
s(g408
g567
tp5765
I00
s(g1271
g408
tp5766
I00
s(g606
g357
tp5767
I00
s(g1271
g510
tp5768
I00
s(g408
g1274
tp5769
I00
s(g459
g606
tp5770
I00
s(g232
g233
tp5771
I00
s(g408
g357
tp5772
I00
s(g357
g408
tp5773
I00
s(g606
g408
tp5774
I00
s(g1274
g459
tp5775
I00
s(g606
g510
tp5776
I00
s(g567
g459
tp5777
I01
s(g459
g1271
tp5778
I00
s(g510
g510
tp5779
I00
s(g306
g459
tp5780
I00
s(g408
g306
tp5781
I00
s(g606
g459
tp5782
I01
s(g606
g606
tp5783
I00
s(g306
g510
tp5784
I00
s(g459
g233
tp5785
I00
s(g567
g408
tp5786
I00
s(g232
g1271
tp5787
I00
s(g233
g606
tp5788
I00
s(g510
g408
tp5789
I00
s(g357
g232
tp5790
I00
s(g233
g1271
tp5791
I00
s(g459
g567
tp5792
I00
s(g1274
g232
tp5793
I00
s(g459
g1274
tp5794
I00
s(g567
g232
tp5795
I00
s(g233
g233
tp5796
I00
s(g510
g306
tp5797
I01
s(g357
g1274
tp5798
I00
s(g306
g1274
tp5799
I00
s(g233
g1274
tp5800
I00
s(g233
g357
tp5801
I00
s(g567
g306
tp5802
I00
s(g306
g567
tp5803
I00
s(g232
g357
tp5804
I00
s(g1271
g1274
tp5805
I00
s(g408
g232
tp5806
I00
s(g357
g459
tp5807
I00
s(g306
g306
tp5808
I00
s(g408
g1271
tp5809
I00
s(g1274
g408
tp5810
I00
ssg1265
Nsbsg3190
g21
(g22
(I0
tp5811
g24
tp5812
Rp5813
(I1
(I1
I3
tp5814
g242
I00
S'jf \xe4y{\x05@E\xb8*\x96\x1d\xc0\x1d\xc0iZ\xd2\xbb\xc8M\r@'
p5815
tp5816
bsg3197
(itrajectory_representation.predicates.is_holding_goal_entity
IsHoldingGoalEntity
p5817
(dp5818
g2785
g2786
sg1206
Nsbsg3200
(dp5819
sg3202
g3709
sbasS'seed'
p5820
NsS'state_prime'
p5821
(lp5822
g3203
asS'problem_idx'
p5823
I10
sb.