(itrajectory_representation.trajectory
Trajectory
p0
(dp1
S'rewards'
p2
(lp3
I-1
aI10
asS'actions'
p4
(lp5
(itrajectory_representation.operator
Operator
p6
(dp7
S'is_skeleton'
p8
I00
sS'discrete_parameters'
p9
(dp10
S'object'
p11
Vsquare_packing_box4
p12
sS'two_arm_place_region'
p13
S'loading_region'
p14
sS'two_arm_place_object'
p15
g12
ssS'type'
p16
S'two_arm_pick_two_arm_place'
p17
sS'continuous_parameters'
p18
(dp19
S'q_goal'
p20
cnumpy.core.multiarray
_reconstruct
p21
(cnumpy
ndarray
p22
(I0
tp23
S'b'
p24
tp25
Rp26
(I1
(I3
tp27
cnumpy
dtype
p28
(S'f8'
p29
I0
I1
tp30
Rp31
(I3
S'<'
p32
NNNI-1
I-1
I0
tp33
bI00
S'3\xbf9R\x9d\xde\xda?2\n5\xfb2\x14\x1a\xc0\xfbf\xbc\xff\xc1}\xe5?'
p34
tp35
bsS'place'
p36
(dp37
g20
g21
(g22
(I0
tp38
g24
tp39
Rp40
(I1
(I3
tp41
g31
I00
S'\x8eNvI\xdd\xdc\x01@b\xefK6U\xcf\x1b\xc0j\xd1\xff\xbc\x08\xad\xe1?'
p42
tp43
bssS'pick'
p44
(dp45
g20
g26
sssS'low_level_motion'
p46
(lp47
g21
(g22
(I0
tp48
g24
tp49
Rp50
(I1
(I3
tp51
g31
I00
S'\x81\x19\x01\xc0X_\xe1?\x01|\x99B_.\x1b\xc0T\x04\xb4\xbc\xd6\xd1\x13@'
p52
tp53
bag21
(g22
(I0
tp54
g24
tp55
Rp56
(I1
(I3
tp57
g28
(S'f8'
p58
I0
I1
tp59
Rp60
(I3
S'<'
p61
NNNI-1
I-1
I0
tp62
bI00
S'E\xefL\xa4\xf4;\xb6\xbf\xe1\xf3\xc8\x85\xba\xf1\x19\xc0\x01\x1b\x13\xc1\xaf\xee\xf6\xbf'
p63
tp64
bag21
(g22
(I0
tp65
g24
tp66
Rp67
(I1
(I3
tp68
g60
I00
S'X\x9b\x8c[e\xe8\xdb?\xdc\xc11jk\x8b\x1b\xc0\xfe\x18\xeb6\xf7\x88\xc3?'
p69
tp70
bag26
ag26
asba(itrajectory_representation.operator
Operator
p71
(dp72
g8
I00
sg9
(dp73
g11
Vsquare_packing_box1
p74
sS'two_arm_place_region'
p75
S'home_region'
p76
sS'two_arm_place_object'
p77
g74
ssg16
S'two_arm_pick_two_arm_place'
p78
sg18
(dp79
g20
g21
(g22
(I0
tp80
g24
tp81
Rp82
(I1
(I3
tp83
g31
I00
S'\xadN\x1f\xb7g\x0c\xfb?\x01l\x94m\x14\xce\x1f\xc0:\xacu\xb6f\xd7\x00@'
p84
tp85
bsg36
(dp86
g20
g21
(g22
(I0
tp87
g24
tp88
Rp89
(I1
(I3
tp90
g31
I00
S',n\x03l\xb2G\xf3?H\x88\xcdC6r\x01\xc0\x86@\\.\xabD\xf4?'
p91
tp92
bssg44
(dp93
g20
g82
sssg46
(lp94
g21
(g22
(I0
tp95
g24
tp96
Rp97
(I1
(I3
tp98
g31
I00
S'\x8dNvI\xdd\xdc\x01@b\xefK6U\xcf\x1b\xc0k\xd1\xff\xbc\x08\xad\xe1?'
p99
tp100
bag21
(g22
(I0
tp101
g24
tp102
Rp103
(I1
(I3
tp104
g60
I00
S'\xb9O\xa7Y\x02\x91\x00@\x96d\x95\x0e\xe6\xda\x1e\xc0l\xef\x8e\x11Rk\xeb?'
p105
tp106
bag21
(g22
(I0
tp107
g24
tp108
Rp109
(I1
(I3
tp110
g60
I00
S'\xbe\x13Y^h\xbd\x02@\xe3\xc2^\xa1\xb6U\x1f\xc0\xb9*7\xddY\x01\x07@'
p111
tp112
bag82
ag82
asbasS'filename'
p113
S''
p114
sS'states'
p115
(lp116
(itrajectory_representation.shortest_path_pick_and_place_state
ShortestPathPaPState
p117
(dp118
S'place_used'
p119
(dp120
(Vsquare_packing_box1
p121
g76
tp122
(itrajectory_representation.operator
Operator
p123
(dp124
g8
I01
sg9
(dp125
S'region'
p126
g76
sg11
g121
ssg16
S'two_arm_place'
p127
sg18
(dp128
g20
g21
(g22
(I0
tp129
g24
tp130
Rp131
(I1
(I3
tp132
g31
I00
S',n\x03l\xb2G\xf3?H\x88\xcdC6r\x01\xc0\x86@\\.\xabD\xf4?'
p133
tp134
bssg46
(lp135
g21
(g22
(I0
tp136
g24
tp137
Rp138
(I1
(I3
tp139
g31
I00
S'\xb0N\x1f\xb7g\x0c\xfb?\xfek\x94m\x14\xce\x1f\xc0=\xacu\xb6f\xd7\x00@'
p140
tp141
bag21
(g22
(I0
tp142
g24
tp143
Rp144
(I1
(I3
tp145
g60
I00
S'\xack\x86\xecj\xbe\xf2?\x96O\xb7\x87\x84\x85\x1f\xc0\xfa\x84\x19\xd1\xe3\x0c\x04@'
p146
tp147
bag21
(g22
(I0
tp148
g24
tp149
Rp150
(I1
(I3
tp151
g60
I00
S'\x08\x171\xc6\x9f\xd1\xe4?\xb69P\xb8\xb4\x03\x1e\xc0\x00`"#(A\x05@'
p152
tp153
bag21
(g22
(I0
tp154
g24
tp155
Rp156
(I1
(I3
tp157
g60
I00
S"f'\x1d)\\\x10\xe6?I\x87\x7f\xab\xf9\x9f\x1b\xc0\x90\xd8HX\xe5\x0e\x04@"
p158
tp159
bag21
(g22
(I0
tp160
g24
tp161
Rp162
(I1
(I3
tp163
g60
I00
S'\xfe\xcb\x95>\x9aG\xe1?\xc8?\x9f\xd9\xb8\xe7\x19\xc0\xdb\x1a;\xf0\x837\xfe?'
p164
tp165
bag21
(g22
(I0
tp166
g24
tp167
Rp168
(I1
(I3
tp169
g60
I00
S'ib\xa2\x0c9\xe9\xd7?\xca\xcd\xb4=\xe6_\x18\xc0tY\xa4\x97\x8d\xd7\x02@'
p170
tp171
bag21
(g22
(I0
tp172
g24
tp173
Rp174
(I1
(I3
tp175
g60
I00
S'\xe4\x02R\xd9\x08\x8c\xc7?2\xc1\xd4;\xf6\xf3\x15\xc0>\x8c\x8fa?0\xd8?'
p176
tp177
bag21
(g22
(I0
tp178
g24
tp179
Rp180
(I1
(I3
tp181
g60
I00
S'&>c9\x01,\xeb?\xb2\xc2\xf0\x02\xce\x8e\x14\xc0\xd8p\xbb2\x14\xd2\x03@'
p182
tp183
bag21
(g22
(I0
tp184
g24
tp185
Rp186
(I1
(I3
tp187
g60
I00
S'\xc6\x05\xbdtg\xd9\xe2?F\xdf\x9d@\\\xf3\x11\xc0\x1a\xc4.\xbb\xcc\x12\x02@'
p188
tp189
bag21
(g22
(I0
tp190
g24
tp191
Rp192
(I1
(I3
tp193
g60
I00
S'\xe4u**\x0e5\xe9?\xaa\xfd\r\xed\xc4\xf6\r\xc0\x0fDE0\x1f\x0b\xfe?'
p194
tp195
bag21
(g22
(I0
tp196
g24
tp197
Rp198
(I1
(I3
tp199
g60
I00
S'\x06\x11,\xef\x98O\xe7??\x10\x01s=b\t\xc04\x92\xb79o\x8c\x00@'
p200
tp201
bag21
(g22
(I0
tp202
g24
tp203
Rp204
(I1
(I3
tp205
g60
I00
S'\xb0V\x04\n\x9c\xab\xf4?h\xebm\xaf4T\x05\xc0b\xbc8-\x0bw\xf6\xbf'
p206
tp207
bag131
ag131
asbs(Vsquare_packing_box4
p208
g14
tp209
(itrajectory_representation.operator
Operator
p210
(dp211
g8
I01
sg9
(dp212
g126
g14
sg11
g208
ssg16
g127
sg18
(dp213
g20
g21
(g22
(I0
tp214
g24
tp215
Rp216
(I1
(I3
tp217
g31
I00
S'\x8eNvI\xdd\xdc\x01@b\xefK6U\xcf\x1b\xc0j\xd1\xff\xbc\x08\xad\xe1?'
p218
tp219
bssg46
(lp220
g21
(g22
(I0
tp221
g24
tp222
Rp223
(I1
(I3
tp224
g31
I00
S'p\xbf9R\x9d\xde\xda?2\n5\xfb2\x14\x1a\xc0\xfdf\xbc\xff\xc1}\xe5?'
p225
tp226
bag21
(g22
(I0
tp227
g24
tp228
Rp229
(I1
(I3
tp230
g60
I00
S'\x00{\xeeM\xfb\x06\xd8?\xa7W\x1e\xc1\xa5F\x1b\xc0\xd0\xcaV\x8a\x88D\xf6?'
p231
tp232
bag21
(g22
(I0
tp233
g24
tp234
Rp235
(I1
(I3
tp236
g60
I00
S'\xc4n\xb3\xbcO\x07\xe0?\xd0\x17\x1bE\xa1\xce\x1d\xc0\x95\xcf\xf4\xdc\x03J\xf9?'
p237
tp238
bag21
(g22
(I0
tp239
g24
tp240
Rp241
(I1
(I3
tp242
g60
I00
S'\xd4\xe5\xfd\xe0%\xcd\xf1?\x13y;\xb31\xa2\x1f\xc0\xae(\xca+\xb2:\x16@'
p243
tp244
bag21
(g22
(I0
tp245
g24
tp246
Rp247
(I1
(I3
tp248
g60
I00
S'\xbdNYIgQ\xfe?\xbd\rKh\xfd\x00 \xc0\x05\xc1f\x8dO\xb4\x16@'
p249
tp250
bag21
(g22
(I0
tp251
g24
tp252
Rp253
(I1
(I3
tp254
g60
I00
S'\xb9O\xa7Y\x02\x91\x00@\x96d\x95\x0e\xe6\xda\x1e\xc0l\xef\x8e\x11Rk\xeb?'
p255
tp256
bag216
ag216
asbssS'place_in_way'
p257
(itrajectory_representation.predicates.place_in_way
PlaceInWay
p258
(dp259
S'mc_path_to_entity'
p260
(dp261
(Vrectangular_packing_box1
p262
S'home_region'
p263
tp264
(lp265
g21
(g22
(I0
tp266
g24
tp267
Rp268
(I1
(I3
tp269
g28
(S'f8'
p270
I0
I1
tp271
Rp272
(I3
S'<'
p273
NNNI-1
I-1
I0
tp274
bI00
S'\xa0/\xf7\xed\x83f\xf8?\xac9\x1cn5\xfc\x1c\xc0\x1fB\n\xd8\xe8\xbc\xf9?'
p275
tp276
bag21
(g22
(I0
tp277
g24
tp278
Rp279
(I1
(I3
tp280
g28
(S'f8'
p281
I0
I1
tp282
Rp283
(I3
S'<'
p284
NNNI-1
I-1
I0
tp285
bI00
S'*4\xc9\xb1\x13|\xf5?=~n\xf8\xb0\xf9\x1b\xc0\x97\x8e\x14L\xfds\x01@'
p286
tp287
bag21
(g22
(I0
tp288
g24
tp289
Rp290
(I1
(I3
tp291
g283
I00
S'{\xe7\xcc\xce\x02,\xf5?\xeb\x85\xf2\xb4\xc9\x08\x19\xc0\xcd\x97\xf6\xcc\xe4z\x00@'
p292
tp293
bag21
(g22
(I0
tp294
g24
tp295
Rp296
(I1
(I3
tp297
g283
I00
S'o\xd6\x82\xea\x7f\xb2\xed?9\xf2C\x0b?\xfd\x16\xc0(?d\xe9@\xb5\x02@'
p298
tp299
bag21
(g22
(I0
tp300
g24
tp301
Rp302
(I1
(I3
tp303
g283
I00
S'&>c9\x01,\xeb?\xb2\xc2\xf0\x02\xce\x8e\x14\xc0\xd8p\xbb2\x14\xd2\x03@'
p304
tp305
bag21
(g22
(I0
tp306
g24
tp307
Rp308
(I1
(I3
tp309
g283
I00
S'\xc6\x05\xbdtg\xd9\xe2?F\xdf\x9d@\\\xf3\x11\xc0\x1a\xc4.\xbb\xcc\x12\x02@'
p310
tp311
bag21
(g22
(I0
tp312
g24
tp313
Rp314
(I1
(I3
tp315
g283
I00
S'3z\xed\x8eN)\xe4?\x0c\x96\xd4\xa2\x0e\xd0\r\xc0\xbd%\xf5{\xe9\xf9\x03@'
p316
tp317
bag21
(g22
(I0
tp318
g24
tp319
Rp320
(I1
(I3
tp321
g283
I00
S'\xaf0\xe9h\xba~\xee?k\xbb\xd8\xd4\xd0g\t\xc09\x9ey\xed\xb06\x06@'
p322
tp323
bag21
(g22
(I0
tp324
g24
tp325
Rp326
(I1
(I3
tp327
g283
I00
S'\xf4\xfdJ\x1a(#\xec?H"\x9cD\x1aE\x05\xc0.\xa9\x0b\x87\xf8\xe1\x02@'
p328
tp329
bas(Vsquare_packing_box2
p330
g263
tp331
(lp332
g21
(g22
(I0
tp333
g24
tp334
Rp335
(I1
(I3
tp336
g272
I00
S'\xd4\x0b.\x98\x94\xdf\xf8?\x92\x92B\xb5\xedj\x17\xc0\xdcM\xc6@U,\xd5?'
p337
tp338
bag21
(g22
(I0
tp339
g24
tp340
Rp341
(I1
(I3
tp342
g283
I00
S'N\xcd\xaa\x1e;\x0f\xee?&\xa8j\x7f\xa2\xe5\x17\xc0\xc1rR\xf6\xd1Y\xe0\xbf'
p343
tp344
bag21
(g22
(I0
tp345
g24
tp346
Rp347
(I1
(I3
tp348
g283
I00
S'\xe4\x9e\xb7\xac\xe0!\xeb?\x8a\x83\x10\xb1\xa2\xad\x15\xc0\x9aS\xfbY\xaf\x8f\xd2\xbf'
p349
tp350
bag21
(g22
(I0
tp351
g24
tp352
Rp353
(I1
(I3
tp354
g283
I00
S"\xb2&6mg)\xe8?\x99\xe0G'\x16\xe0\x13\xc0\xc8oL\xf5\x17p\xe6\xbf"
p355
tp356
bag21
(g22
(I0
tp357
g24
tp358
Rp359
(I1
(I3
tp360
g283
I00
S'`\xc8Aw-\x81\xeb?/\xc3\xe6O\x04\xca\x10\xc0\x8a\xb7K)\x91{\xe4\xbf'
p361
tp362
bag21
(g22
(I0
tp363
g24
tp364
Rp365
(I1
(I3
tp366
g283
I00
S'\xe1\xc6\xc7\xa7\x12X\xe7?\x98\x99\xb0\x9a\xfb\xdb\x0b\xc0R\t\x1b)\xeae\xe0\xbf'
p367
tp368
bag21
(g22
(I0
tp369
g24
tp370
Rp371
(I1
(I3
tp372
g283
I00
S'p\xf1\xbdc^\x84\xf1?"\x88LL\xf9D\x06\xc0~w\r\xe9m\x0f\x19@'
p373
tp374
bas(Vsquare_packing_box3
p375
g263
tp376
(lp377
g21
(g22
(I0
tp378
g24
tp379
Rp380
(I1
(I3
tp381
g272
I00
S'\x10\xef1\xa0z \xe0?J\x02Q\xdd\xc0\xf6\x15\xc0\x82=b\x95\x9ff\x16@'
p382
tp383
bag21
(g22
(I0
tp384
g24
tp385
Rp386
(I1
(I3
tp387
g283
I00
S'l[\xc4\x16<\xe6\xe9?\xa6\xa0\x90\x84X\x9f\x13\xc0\xc2\xd74Q\x00\xaf\xff\xbf'
p388
tp389
bag21
(g22
(I0
tp390
g24
tp391
Rp392
(I1
(I3
tp393
g283
I00
S"\xaeJ\xbd\x1936\xec?\x04\x13\xd4'\x9f\x88\x10\xc0\x805qo\xb6\xe6\xff\xbf"
p394
tp395
bag21
(g22
(I0
tp396
g24
tp397
Rp398
(I1
(I3
tp399
g283
I00
S'\xf09\xb6\x1c*\x86\xee?\xc4\n/\x96\xcb\xe3\n\xc0\xa0\xc9\xd6F6\x0f\x00\xc0'
p400
tp401
bag21
(g22
(I0
tp402
g24
tp403
Rp404
(I1
(I3
tp405
g283
I00
S'3\xe9\xaf\x05T\x89\xe7?+~\xcb\xd3\x15\xc7\x04\xc0x6(d5\xed\x07@'
p406
tp407
bassS'mc_to_entity'
p408
(dp409
(g262
g263
tp410
(lp411
Vsquare_packing_box1
p412
aVsquare_packing_box3
p413
aVsquare_packing_box4
p414
as(g330
g263
tp415
(lp416
Vrectangular_packing_box1
p417
aVsquare_packing_box3
p418
aVsquare_packing_box4
p419
as(g375
g263
tp420
(lp421
Vsquare_packing_box4
p422
assS'reachable_entities'
p423
(lp424
Vrectangular_packing_box4
p425
aVrectangular_packing_box2
p426
aVrectangular_packing_box3
p427
aVsquare_packing_box2
p428
ag74
ag12
asS'collides'
p429
(dp430
Vrectangular_packing_box4
p431
c__builtin__
set
p432
((lp433
I386
aI268
aI269
aI270
aI405
aI280
aI548
aI303
aI307
aI565
aI438
aI442
aI573
aI193
aI68
aI210
aI339
aI212
aI213
aI343
aI473
aI220
aI479
aI354
aI614
aI111
aI112
aI113
aI211
aI500
aI245
aI246
aI375
aI340
aI381
aI254
atp434
Rp435
sVrectangular_packing_box2
p436
g432
((lp437
I257
aI164
aI229
aI265
aI452
aI589
aI366
aI564
aI580
aI532
aI478
aI502
aI356
aI575
aI158
aI159
atp438
Rp439
sVrectangular_packing_box3
p440
g432
((lp441
I0
aI545
aI546
aI453
aI425
aI403
aI367
aI368
aI369
aI370
aI371
aI342
aI377
aI378
aI571
aI474
atp442
Rp443
sVrectangular_packing_box1
p444
g432
((lp445
I4
aI5
aI262
aI137
aI145
aI538
aI413
aI162
aI35
aI36
aI422
aI309
aI310
aI55
aI570
aI187
aI188
aI449
aI69
aI70
aI201
aI202
aI205
aI80
aI81
aI595
aI597
aI215
aI92
aI93
aI607
aI355
aI115
aI379
aI124
atp446
Rp447
sVsquare_packing_box2
p448
g432
((lp449
I2
aI3
aI393
aI395
aI404
aI539
aI160
aI161
aI37
aI38
aI39
aI40
aI41
aI42
aI304
aI178
aI309
aI288
aI289
aI611
aI115
aI372
aI379
aI380
atp450
Rp451
sVsquare_packing_box3
p452
g432
((lp453
I4
aI161
aI404
aI416
aI33
aI34
aI554
aI43
aI44
aI301
aI584
aI55
aI56
aI187
aI449
aI70
aI71
aI456
aI201
aI202
aI203
aI162
aI93
aI94
aI327
aI484
aI233
aI106
aI108
aI497
aI372
aI234
atp454
Rp455
sVsquare_packing_box1
p456
g432
((lp457
I256
aI262
aI135
aI136
aI145
aI146
aI407
aI538
aI413
aI543
aI36
aI422
aI296
aI263
aI176
aI177
aI443
aI444
aI448
aI69
aI205
aI80
aI81
aI82
aI92
aI464
aI355
aI230
aI593
aI240
aI374
aI505
aI124
atp458
Rp459
sVsquare_packing_box4
p460
g432
((lp461
I235
aI132
aI517
aI6
aI7
aI8
aI137
aI139
aI276
aI491
aI33
aI34
aI166
aI424
aI44
aI584
aI186
aI196
aI198
aI71
aI456
aI459
aI84
aI94
aI607
aI233
aI234
aI107
aI108
aI252
atp462
Rp463
ssg119
g120
sS'pick_used'
p464
(dp465
g425
(itrajectory_representation.operator
Operator
p466
(dp467
g8
I01
sg9
(dp468
S'object'
p469
Vrectangular_packing_box4
p470
ssg16
S'two_arm_pick'
p471
sg18
(dp472
S'q_goal'
p473
(lp474
g21
(g22
(I0
tp475
g24
tp476
Rp477
(I1
(I3
tp478
g272
I00
S'\x05\xdcw\xb5n\x1b\x0e@2\x7f}\xaa9\x89\x1a\xc0LU\x83\xe8\xcd\xbf\xff\xbf'
p479
tp480
bag21
(g22
(I0
tp481
g24
tp482
Rp483
(I1
(I3
tp484
g272
I00
S"_\x8d\xd2\xfd\xf1\x8a\x0e@X'\xaaF\xe9*\x1a\xc0\x0f\xa0\xd6*T\x9f\x03\xc0"
p485
tp486
bag21
(g22
(I0
tp487
g24
tp488
Rp489
(I1
(I3
tp490
g272
I00
S'9\x81\x11K\x05s\x05@\xc8\x96\xeb`z:\x1d\xc0\x10s_X\x00}{?'
p491
tp492
basS'is_feasible'
p493
I00
ssg46
(lp494
g21
(g22
(I0
tp495
g24
tp496
Rp497
(I1
(I3
tp498
g272
I00
S'\x18n\x03l\xb2G\xf3?G\x88\xcdC6r\x01\xc0\x83@\\.\xabD\xf4?'
p499
tp500
bag21
(g22
(I0
tp501
g24
tp502
Rp503
(I1
(I3
tp504
g283
I00
S'X91+\xcd0\xe7?\x10t\x86\x8cV\xe3\x05\xc0\xfe\xb2\xd83\xdc\xcb\xee?'
p505
tp506
bag21
(g22
(I0
tp507
g24
tp508
Rp509
(I1
(I3
tp510
g283
I00
S'\xef\xc3u*\xfb\xdb\xeb?\x8d\xa5\n\xfd\x03<\n\xc0\xd8\xfb\xde\x16R\xac\xde?'
p511
tp512
bag21
(g22
(I0
tp513
g24
tp514
Rp515
(I1
(I3
tp516
g283
I00
S'\x93k\xbc\xee\xc2\x10\xe8?\xab^\x86?\x08D\x10\xc0\x10;2\x00\xe5\t\xde?'
p517
tp518
bag21
(g22
(I0
tp519
g24
tp520
Rp521
(I1
(I3
tp522
g283
I00
S'\xa9\xd9\x1d\x8d\xa6j\xdf?\xa0\x85\x1a\x84\xc6\xec\x12\xc0\x01\xb6 H\xb1\x91\xeb?'
p523
tp524
bag21
(g22
(I0
tp525
g24
tp526
Rp527
(I1
(I3
tp528
g283
I00
S'\xd8\x87\x03p)T\xe4?\xd5\xabI\xb7V\xd0\x15\xc0vWg\x9a\x87\x8a\xec?'
p529
tp530
bag21
(g22
(I0
tp531
g24
tp532
Rp533
(I1
(I3
tp534
g283
I00
S'T]\x0c\x0e\xd89\xda?\xf4\x992\x11%\\\x18\xc0\x95\x7f\x10B\xb1)\xe3?'
p535
tp536
bag21
(g22
(I0
tp537
g24
tp538
Rp539
(I1
(I3
tp540
g283
I00
S'X\x9b\x8c[e\xe8\xdb?\xdc\xc11jk\x8b\x1b\xc0\xfe\x18\xeb6\xf7\x88\xc3?'
p541
tp542
bag21
(g22
(I0
tp543
g24
tp544
Rp545
(I1
(I3
tp546
g283
I00
S"4]r\xd3'>\xf0?\xfe\x80\xde\xa9\xc5\xab\x1c\xc0\xda:\xc6?\xd9\x17\xd0?"
p547
tp548
bag21
(g22
(I0
tp549
g24
tp550
Rp551
(I1
(I3
tp552
g283
I00
S'\xad\xa0\xdfFH\xe9\xf6?\xa3\xfc\x14D\x8bb\x1d\xc0\x9e2hH\xc0\xe5\xf0?'
p553
tp554
bag21
(g22
(I0
tp555
g24
tp556
Rp557
(I1
(I3
tp558
g283
I00
S'\tAsXx\r\x00@F^\x05/\xfdK\x1d\xc0~\xbbB\x0f\xbe\xe6\xd2?'
p559
tp560
bag489
asbsg426
(itrajectory_representation.operator
Operator
p561
(dp562
g8
I01
sg9
(dp563
g469
Vrectangular_packing_box2
p564
ssg16
g471
sg18
(dp565
g473
(lp566
g21
(g22
(I0
tp567
g24
tp568
Rp569
(I1
(I3
tp570
g272
I00
S'\x1b\xb8u\n\r\xbc\xdd?6\xa8\x8e|\x87\xe8\x1d\xc0q\xf4\x93\\\x08\x13\x06\xc0'
p571
tp572
bag21
(g22
(I0
tp573
g24
tp574
Rp575
(I1
(I3
tp576
g272
I00
S'(\xb8\xdf\xa8g\xdf\xe2?%c*\x03\x8c\xac\x1d\xc0@\xf8\xb3E\xe1q\x03\xc0'
p577
tp578
bag21
(g22
(I0
tp579
g24
tp580
Rp581
(I1
(I3
tp582
g272
I00
S'\xa4e\r\xd7\xfe\x99\xdd?c@\xc5q\x0b\x95\x1d\xc0\xd8qS\x98\xcf\x9f\x04\xc0'
p583
tp584
basg493
I00
ssg46
(lp585
g21
(g22
(I0
tp586
g24
tp587
Rp588
(I1
(I3
tp589
g272
I00
S'\x18n\x03l\xb2G\xf3?G\x88\xcdC6r\x01\xc0\x83@\\.\xabD\xf4?'
p590
tp591
bag21
(g22
(I0
tp592
g24
tp593
Rp594
(I1
(I3
tp595
g283
I00
S'X91+\xcd0\xe7?\x10t\x86\x8cV\xe3\x05\xc0\xfe\xb2\xd83\xdc\xcb\xee?'
p596
tp597
bag21
(g22
(I0
tp598
g24
tp599
Rp600
(I1
(I3
tp601
g283
I00
S'\xef\xc3u*\xfb\xdb\xeb?\x8d\xa5\n\xfd\x03<\n\xc0\xd8\xfb\xde\x16R\xac\xde?'
p602
tp603
bag21
(g22
(I0
tp604
g24
tp605
Rp606
(I1
(I3
tp607
g283
I00
S'\x93k\xbc\xee\xc2\x10\xe8?\xab^\x86?\x08D\x10\xc0\x10;2\x00\xe5\t\xde?'
p608
tp609
bag21
(g22
(I0
tp610
g24
tp611
Rp612
(I1
(I3
tp613
g283
I00
S'\xa9\xd9\x1d\x8d\xa6j\xdf?\xa0\x85\x1a\x84\xc6\xec\x12\xc0\x01\xb6 H\xb1\x91\xeb?'
p614
tp615
bag21
(g22
(I0
tp616
g24
tp617
Rp618
(I1
(I3
tp619
g283
I00
S'\xd8\x87\x03p)T\xe4?\xd5\xabI\xb7V\xd0\x15\xc0vWg\x9a\x87\x8a\xec?'
p620
tp621
bag21
(g22
(I0
tp622
g24
tp623
Rp624
(I1
(I3
tp625
g283
I00
S'T]\x0c\x0e\xd89\xda?\xf4\x992\x11%\\\x18\xc0\x95\x7f\x10B\xb1)\xe3?'
p626
tp627
bag21
(g22
(I0
tp628
g24
tp629
Rp630
(I1
(I3
tp631
g283
I00
S'\xf8\xfc\x1a\xd0\xc9l\xe8?\x8a\x897\x8e~\x98\x1a\xc0\xaf\xf7\xb87\xc6\xa7\x01\xc0'
p632
tp633
bag575
asbsg427
(itrajectory_representation.operator
Operator
p634
(dp635
g8
I01
sg9
(dp636
g469
Vrectangular_packing_box3
p637
ssg16
g471
sg18
(dp638
g473
(lp639
g21
(g22
(I0
tp640
g24
tp641
Rp642
(I1
(I3
tp643
g272
I00
S"\xe76\x90\xd2'\x1b\n@A,\xfc\x1b\x0b\x0b\x19\xc0\t\x1a\x94Iv\xca\xeb?"
p644
tp645
bag21
(g22
(I0
tp646
g24
tp647
Rp648
(I1
(I3
tp649
g272
I00
S'6z\x05\xe7JJ\x0b@U\x01\x86\xac7\xe1\x19\xc0U~\xd6\x8e\xe8\xba\xe0?'
p650
tp651
bag21
(g22
(I0
tp652
g24
tp653
Rp654
(I1
(I3
tp655
g272
I00
S'^\x12\x8f\x05\xf5\xfa\x0b@\\\x886O\x1f\xe0\x19\xc02\x99N\x15\xc8\xc1\xe8?'
p656
tp657
basg493
I00
ssg46
(lp658
g21
(g22
(I0
tp659
g24
tp660
Rp661
(I1
(I3
tp662
g272
I00
S'\x18n\x03l\xb2G\xf3?G\x88\xcdC6r\x01\xc0\x83@\\.\xabD\xf4?'
p663
tp664
bag21
(g22
(I0
tp665
g24
tp666
Rp667
(I1
(I3
tp668
g283
I00
S'\x0e\n\xf3\x14\x91\x9e\xf3?\x1c\x0cAZ"\xfa\x05\xc0\xf8\x01c\x9bq\'\xfc?'
p669
tp670
bag21
(g22
(I0
tp671
g24
tp672
Rp673
(I1
(I3
tp674
g283
I00
S'\xd1\xaa\x15!\x8c\x06\xed?\x8c\xab\xab^w\xe3\t\xc0~&\xcc\xa2\xcbw\xf6?'
p675
tp676
bag21
(g22
(I0
tp677
g24
tp678
Rp679
(I1
(I3
tp680
g283
I00
S'y\xd4\xbc{`\x0b\xf2?\xb0C6m\xb7\xd6\x0e\xc0\xe8\xe2r\xbe\x16{\xf5?'
p681
tp682
bag21
(g22
(I0
tp683
g24
tp684
Rp685
(I1
(I3
tp686
g283
I00
S'\xf3In\x9c \xb1\xee?\x10D/\xcc\x0f}\x11\xc0\xda0\xdf\x1au:\xf0?'
p687
tp688
bag21
(g22
(I0
tp689
g24
tp690
Rp691
(I1
(I3
tp692
g283
I00
S'v\xb8^\x85\xa7[\xea?x\xbe\xff2t\x8d\x13\xc0\x88\x85\x8cCyH\xf6?'
p693
tp694
bag21
(g22
(I0
tp695
g24
tp696
Rp697
(I1
(I3
tp698
g283
I00
S'\x85\\2\xba\x0b5\xf5?I\r\x06\xd10\xfb\x15\xc0\x9e\x11\xee\xd8\xb9\xd7\xf5?'
p699
tp700
bag21
(g22
(I0
tp701
g24
tp702
Rp703
(I1
(I3
tp704
g283
I00
S'\xe0 ;\x819w\xfd?\xe7\xcc\xc2\xa0\xa5f\x17\xc04\xedq\x1c\x8eK\xfa?'
p705
tp706
bag21
(g22
(I0
tp707
g24
tp708
Rp709
(I1
(I3
tp710
g283
I00
S'\x19\xdbXU\x9c\xa8\x04@\xe6\xf1\xeb\xae\xcb\x05\x18\xc0\xce\x9cp\x98\xaf*\xeb?'
p711
tp712
bag642
asbsVrectangular_packing_box1
p713
(itrajectory_representation.operator
Operator
p714
(dp715
g8
I01
sg9
(dp716
g469
Vrectangular_packing_box1
p717
ssg16
g471
sg18
(dp718
g473
(lp719
g21
(g22
(I0
tp720
g24
tp721
Rp722
(I1
(I3
tp723
g272
I00
S'\xa7/\xf7\xed\x83f\xf8?\xae9\x1cn5\xfc\x1c\xc0\x1fB\n\xd8\xe8\xbc\xf9?'
p724
tp725
bag21
(g22
(I0
tp726
g24
tp727
Rp728
(I1
(I3
tp729
g272
I00
S'\n\xcf\x01\xed?\x85\xf5?|1\x91#\x86\xdc\x1c\xc0t\xaf\xd3\xc42+\xf9?'
p730
tp731
bag21
(g22
(I0
tp732
g24
tp733
Rp734
(I1
(I3
tp735
g272
I00
S':\xd7`\xaeD!\xf6?\x04\xed\x15^\xe2\xf8\x1c\xc0\xf6&,\xa6\x1c\xf5\xeb?'
p736
tp737
basg493
I00
ssg46
(lp738
g21
(g22
(I0
tp739
g24
tp740
Rp741
(I1
(I3
tp742
g272
I00
S'\x18n\x03l\xb2G\xf3?G\x88\xcdC6r\x01\xc0\x83@\\.\xabD\xf4?'
p743
tp744
bag21
(g22
(I0
tp745
g24
tp746
Rp747
(I1
(I3
tp748
g283
I00
S'X91+\xcd0\xe7?\x10t\x86\x8cV\xe3\x05\xc0\xfe\xb2\xd83\xdc\xcb\xee?'
p749
tp750
bag21
(g22
(I0
tp751
g24
tp752
Rp753
(I1
(I3
tp754
g283
I00
S'\xef\xc3u*\xfb\xdb\xeb?\x8d\xa5\n\xfd\x03<\n\xc0\xd8\xfb\xde\x16R\xac\xde?'
p755
tp756
bag21
(g22
(I0
tp757
g24
tp758
Rp759
(I1
(I3
tp760
g283
I00
S'\x93k\xbc\xee\xc2\x10\xe8?\xab^\x86?\x08D\x10\xc0\x10;2\x00\xe5\t\xde?'
p761
tp762
bag21
(g22
(I0
tp763
g24
tp764
Rp765
(I1
(I3
tp766
g283
I00
S'\xa9\xd9\x1d\x8d\xa6j\xdf?\xa0\x85\x1a\x84\xc6\xec\x12\xc0\x01\xb6 H\xb1\x91\xeb?'
p767
tp768
bag21
(g22
(I0
tp769
g24
tp770
Rp771
(I1
(I3
tp772
g283
I00
S'\xd8\x87\x03p)T\xe4?\xd5\xabI\xb7V\xd0\x15\xc0vWg\x9a\x87\x8a\xec?'
p773
tp774
bag21
(g22
(I0
tp775
g24
tp776
Rp777
(I1
(I3
tp778
g283
I00
S'T]\x0c\x0e\xd89\xda?\xf4\x992\x11%\\\x18\xc0\x95\x7f\x10B\xb1)\xe3?'
p779
tp780
bag21
(g22
(I0
tp781
g24
tp782
Rp783
(I1
(I3
tp784
g283
I00
S'\xb0\x11@i\x1f\x12\xb4?\x01\xb6C\x19\x0b\x9d\x1a\xc0\xda \xc5\xc8m8\xeb?'
p785
tp786
bag21
(g22
(I0
tp787
g24
tp788
Rp789
(I1
(I3
tp790
g283
I00
S'\x0c\xff\xe10\xe4\xfb\xe2?\xf1}1j\xd3\x96\x1c\xc0B\xd2\xc8(\xcc_\xe9?'
p791
tp792
bag728
asbsg428
(itrajectory_representation.operator
Operator
p793
(dp794
g8
I01
sg9
(dp795
g469
Vsquare_packing_box2
p796
ssg16
g471
sg18
(dp797
g473
(lp798
g21
(g22
(I0
tp799
g24
tp800
Rp801
(I1
(I3
tp802
g272
I00
S'\xd1\x0b.\x98\x94\xdf\xf8?\x91\x92B\xb5\xedj\x17\xc0\xddM\xc6@U,\xd5?'
p803
tp804
bag21
(g22
(I0
tp805
g24
tp806
Rp807
(I1
(I3
tp808
g272
I00
S'\x84\xb3\x811\xe0C\x06@~b@-\xe0G\x19\xc0I+\x94\xae\x9d\x13\x00@'
p809
tp810
bag21
(g22
(I0
tp811
g24
tp812
Rp813
(I1
(I3
tp814
g272
I00
S'\x1a\x97\x14\xce\x85;\x08@\xeb\xa6\xe5v!\xc9\x15\xc0*\xf1\xc4\x0b\xb6\x9d\x07\xc0'
p815
tp816
basg493
I00
ssg46
(lp817
g21
(g22
(I0
tp818
g24
tp819
Rp820
(I1
(I3
tp821
g272
I00
S'\x18n\x03l\xb2G\xf3?G\x88\xcdC6r\x01\xc0\x83@\\.\xabD\xf4?'
p822
tp823
bag21
(g22
(I0
tp824
g24
tp825
Rp826
(I1
(I3
tp827
g283
I00
S'\x0e\n\xf3\x14\x91\x9e\xf3?\x1c\x0cAZ"\xfa\x05\xc0\xf8\x01c\x9bq\'\xfc?'
p828
tp829
bag21
(g22
(I0
tp830
g24
tp831
Rp832
(I1
(I3
tp833
g283
I00
S'\xd1\xaa\x15!\x8c\x06\xed?\x8c\xab\xab^w\xe3\t\xc0~&\xcc\xa2\xcbw\xf6?'
p834
tp835
bag21
(g22
(I0
tp836
g24
tp837
Rp838
(I1
(I3
tp839
g283
I00
S'y\xd4\xbc{`\x0b\xf2?\xb0C6m\xb7\xd6\x0e\xc0\xe8\xe2r\xbe\x16{\xf5?'
p840
tp841
bag21
(g22
(I0
tp842
g24
tp843
Rp844
(I1
(I3
tp845
g283
I00
S'\xf3In\x9c \xb1\xee?\x10D/\xcc\x0f}\x11\xc0\xda0\xdf\x1au:\xf0?'
p846
tp847
bag21
(g22
(I0
tp848
g24
tp849
Rp850
(I1
(I3
tp851
g283
I00
S'\xa9\xd9\x1d\x8d\xa6j\xdf?\xa0\x85\x1a\x84\xc6\xec\x12\xc0\x01\xb6 H\xb1\x91\xeb?'
p852
tp853
bag21
(g22
(I0
tp854
g24
tp855
Rp856
(I1
(I3
tp857
g283
I00
S'\xd8\x87\x03p)T\xe4?\xd5\xabI\xb7V\xd0\x15\xc0vWg\x9a\x87\x8a\xec?'
p858
tp859
bag21
(g22
(I0
tp860
g24
tp861
Rp862
(I1
(I3
tp863
g283
I00
S'N\xcd\xaa\x1e;\x0f\xee?&\xa8j\x7f\xa2\xe5\x17\xc0\xc1rR\xf6\xd1Y\xe0\xbf'
p864
tp865
bag801
asbsVsquare_packing_box3
p866
(itrajectory_representation.operator
Operator
p867
(dp868
g8
I01
sg9
(dp869
g469
Vsquare_packing_box3
p870
ssg16
g471
sg18
(dp871
g473
(lp872
g21
(g22
(I0
tp873
g24
tp874
Rp875
(I1
(I3
tp876
g272
I00
S'\x16\xef1\xa0z \xe0?I\x02Q\xdd\xc0\xf6\x15\xc0\xad|\x0f\xf7\xdd\xda\xe5\xbf'
p877
tp878
bag21
(g22
(I0
tp879
g24
tp880
Rp881
(I1
(I3
tp882
g272
I00
S'\xbf.\x04\x91\xe1b\xf1?1-\x84I\xb3\x8f\x19\xc0!X|4\xd5\xd4\xf3?'
p883
tp884
bag21
(g22
(I0
tp885
g24
tp886
Rp887
(I1
(I3
tp888
g272
I00
S'\xa4\x06\x8e\xa6\x16j\xeb?u\x8b\xc6t\xc0\xe2\x18\xc01\x8b\x1dz<4\xf4?'
p889
tp890
basg493
I00
ssg46
(lp891
g21
(g22
(I0
tp892
g24
tp893
Rp894
(I1
(I3
tp895
g272
I00
S'\x18n\x03l\xb2G\xf3?G\x88\xcdC6r\x01\xc0\x83@\\.\xabD\xf4?'
p896
tp897
bag21
(g22
(I0
tp898
g24
tp899
Rp900
(I1
(I3
tp901
g283
I00
S'X91+\xcd0\xe7?\x10t\x86\x8cV\xe3\x05\xc0\xfe\xb2\xd83\xdc\xcb\xee?'
p902
tp903
bag21
(g22
(I0
tp904
g24
tp905
Rp906
(I1
(I3
tp907
g283
I00
S'\xd1\xaa\x15!\x8c\x06\xed?\x8c\xab\xab^w\xe3\t\xc0~&\xcc\xa2\xcbw\xf6?'
p908
tp909
bag21
(g22
(I0
tp910
g24
tp911
Rp912
(I1
(I3
tp913
g283
I00
S'y\xd4\xbc{`\x0b\xf2?\xb0C6m\xb7\xd6\x0e\xc0\xe8\xe2r\xbe\x16{\xf5?'
p914
tp915
bag21
(g22
(I0
tp916
g24
tp917
Rp918
(I1
(I3
tp919
g283
I00
S'\xf3In\x9c \xb1\xee?\x10D/\xcc\x0f}\x11\xc0\xda0\xdf\x1au:\xf0?'
p920
tp921
bag21
(g22
(I0
tp922
g24
tp923
Rp924
(I1
(I3
tp925
g283
I00
S"\xb2&6mg)\xe8?\x99\xe0G'\x16\xe0\x13\xc0\xc8oL\xf5\x17p\xe6\xbf"
p926
tp927
bag875
asbsg74
(itrajectory_representation.operator
Operator
p928
(dp929
g8
I01
sg9
(dp930
g11
g74
ssg16
S'two_arm_pick'
p931
sg18
(dp932
g20
g21
(g22
(I0
tp933
g24
tp934
Rp935
(I1
(I3
tp936
g31
I00
S'\xadN\x1f\xb7g\x0c\xfb?\x01l\x94m\x14\xce\x1f\xc0:\xacu\xb6f\xd7\x00@'
p937
tp938
bssg46
(lp939
g21
(g22
(I0
tp940
g24
tp941
Rp942
(I1
(I3
tp943
g272
I00
S'`\x19\x01\xc0X_\xe1?\x12|\x99B_.\x1b\xc0T\x04\xb4\xbc\xd6\xd1\x13@'
p944
tp945
bag21
(g22
(I0
tp946
g24
tp947
Rp948
(I1
(I3
tp949
g283
I00
S'\x82\xeb.\xbfl\xf2\xe7?\xb8@O\xd3\x83\xb3\x1d\xc0\xc5\xeb\x9c\xf6Lc\xff\xbf'
p950
tp951
bag21
(g22
(I0
tp952
g24
tp953
Rp954
(I1
(I3
tp955
g283
I00
S'\xack\x86\xecj\xbe\xf2?\x96O\xb7\x87\x84\x85\x1f\xc0\xfa\x84\x19\xd1\xe3\x0c\x04@'
p956
tp957
bag935
asbsg12
(itrajectory_representation.operator
Operator
p958
(dp959
g8
I01
sg9
(dp960
g11
g12
ssg16
g931
sg18
(dp961
g20
g21
(g22
(I0
tp962
g24
tp963
Rp964
(I1
(I3
tp965
g31
I00
S'3\xbf9R\x9d\xde\xda?2\n5\xfb2\x14\x1a\xc0\xfbf\xbc\xff\xc1}\xe5?'
p966
tp967
bssg46
(lp968
g21
(g22
(I0
tp969
g24
tp970
Rp971
(I1
(I3
tp972
g272
I00
S'`\x19\x01\xc0X_\xe1?\x12|\x99B_.\x1b\xc0T\x04\xb4\xbc\xd6\xd1\x13@'
p973
tp974
bag21
(g22
(I0
tp975
g24
tp976
Rp977
(I1
(I3
tp978
g283
I00
S'\xae\xa6N<\x83\t\xc9\xbfuz\x99\xff\xe5\xfa\x19\xc0ZD\x88\xc9\x8a\x8d\x11@'
p979
tp980
bag21
(g22
(I0
tp981
g24
tp982
Rp983
(I1
(I3
tp984
g283
I00
S'X\x9b\x8c[e\xe8\xdb?\xdc\xc11jk\x8b\x1b\xc0\xfe\x18\xeb6\xf7\x88\xc3?'
p985
tp986
bag964
asbssS'mc_paths'
p987
(dp988
sS'robot'
p989
NsS'reachable_obj_region_pairs'
p990
(lp991
sS'sampled_pick_configs_for_objects'
p992
(dp993
sS'mc_calls'
p994
I0
sS'pick_poses'
p995
g465
sS'problem_env'
p996
NsS'evaluations'
p997
(dp998
(g330
Vsquare_packing_box4
p999
g263
tp1000
I01
s(g375
g262
g263
tp1001
I00
s(g262
Vrectangular_packing_box2
p1002
g263
tp1003
I00
s(g330
g1002
g263
tp1004
I00
s(g262
g375
g263
tp1005
I01
s(g375
g1002
g263
tp1006
I00
s(g375
Vrectangular_packing_box3
p1007
g263
tp1008
I00
s(g262
g1007
g263
tp1009
I00
s(g375
g999
g263
tp1010
I01
s(g262
g999
g263
tp1011
I01
s(g330
g262
g263
tp1012
I01
s(g330
g375
g263
tp1013
I01
s(g330
Vrectangular_packing_box4
p1014
g263
tp1015
I00
s(g330
Vsquare_packing_box1
p1016
g263
tp1017
I00
s(g375
g1014
g263
tp1018
I00
s(g262
g1016
g263
tp1019
I01
s(g262
g1014
g263
tp1020
I00
s(g330
g1007
g263
tp1021
I00
s(g375
g1016
g263
tp1022
I00
s(g375
g330
g263
tp1023
I00
s(g262
g330
g263
tp1024
I00
ssS'paths_to_reachable_entities'
p1025
NsS'use_shortest_path'
p1026
I01
sbsS'ternary_edges'
p1027
(dp1028
(g1002
g1002
g263
tp1029
(lp1030
I00
as(g1016
S'loading_region'
p1031
g1031
tp1032
(lp1033
I00
as(S'entire_region'
p1034
g262
g263
tp1035
(lp1036
I00
as(g330
g999
g1031
tp1037
(lp1038
I00
as(g263
g263
g263
tp1039
(lp1040
I00
as(g999
g1002
g1031
tp1041
(lp1042
I00
as(g1016
g1007
g263
tp1043
(lp1044
I00
as(g263
g1014
g263
tp1045
(lp1046
I00
as(g330
g1016
g263
tp1047
(lp1048
I00
as(g1007
g1014
g1031
tp1049
(lp1050
I00
as(g263
g999
g1031
tp1051
(lp1052
I00
as(g330
g1034
g263
tp1053
(lp1054
I00
as(g1031
g263
g1031
tp1055
(lp1056
I00
as(g1014
g375
g263
tp1057
(lp1058
I00
as(g999
g1034
g263
tp1059
(lp1060
I00
as(g330
g262
g1031
tp1061
(lp1062
I00
as(g375
g1031
g263
tp1063
(lp1064
I00
as(g1034
g1002
g1031
tp1065
(lp1066
I00
as(g263
g1034
g263
tp1067
(lp1068
I00
as(g1002
g1031
g263
tp1069
(lp1070
I00
as(g375
g1034
g263
tp1071
(lp1072
I00
as(g1016
g1016
g1031
tp1073
(lp1074
I00
as(g1031
g999
g1031
tp1075
(lp1076
I00
as(g1034
g1031
g263
tp1077
(lp1078
I00
as(g1034
g330
g263
tp1079
(lp1080
I00
as(g1031
g1031
g263
tp1081
(lp1082
I00
as(g375
g1014
g1031
tp1083
(lp1084
I00
as(g263
g263
g1031
tp1085
(lp1086
I00
as(g262
g330
g1031
tp1087
(lp1088
I00
as(g1002
g999
g263
tp1089
(lp1090
I00
as(g375
g1016
g263
tp1091
(lp1092
I00
as(g262
g263
g1031
tp1093
(lp1094
I00
as(g263
g1002
g1031
tp1095
(lp1096
I00
as(g262
g1007
g1031
tp1097
(lp1098
I00
as(g1007
g262
g263
tp1099
(lp1100
I00
as(g1031
g1016
g1031
tp1101
(lp1102
I00
as(g999
g330
g1031
tp1103
(lp1104
I00
as(g1002
g1002
g1031
tp1105
(lp1106
I00
as(g1034
g999
g263
tp1107
(lp1108
I00
as(g1031
g263
g263
tp1109
(lp1110
I00
as(g1014
g1002
g263
tp1111
(lp1112
I00
as(g263
g1007
g263
tp1113
(lp1114
I00
as(g330
g262
g263
tp1115
(lp1116
I01
as(g1007
g999
g263
tp1117
(lp1118
I00
as(g1016
g1007
g1031
tp1119
(lp1120
I00
as(g375
g330
g263
tp1121
(lp1122
I00
as(g330
g1016
g1031
tp1123
(lp1124
I00
as(g330
g1002
g1031
tp1125
(lp1126
I00
as(g1034
g330
g1031
tp1127
(lp1128
I00
as(g1031
g1007
g1031
tp1129
(lp1130
I00
as(g1034
g263
g263
tp1131
(lp1132
I00
as(g1014
g263
g263
tp1133
(lp1134
I00
as(g1031
g1034
g263
tp1135
(lp1136
I00
as(g1002
g999
g1031
tp1137
(lp1138
I00
as(g375
g1002
g1031
tp1139
(lp1140
I00
as(g375
g375
g263
tp1141
(lp1142
I00
as(g262
g1007
g263
tp1143
(lp1144
I00
as(g1034
g1002
g263
tp1145
(lp1146
I00
as(g262
g1031
g1031
tp1147
(lp1148
I00
as(g999
g1016
g263
tp1149
(lp1150
I00
as(g1016
g1016
g263
tp1151
(lp1152
I00
as(g1016
g1014
g263
tp1153
(lp1154
I00
as(g1014
g1002
g1031
tp1155
(lp1156
I00
as(g999
g262
g1031
tp1157
(lp1158
I00
as(g375
g1014
g263
tp1159
(lp1160
I00
as(g262
g330
g263
tp1161
(lp1162
I00
as(g1002
g262
g1031
tp1163
(lp1164
I00
as(g262
g263
g263
tp1165
(lp1166
I00
as(g330
g1002
g263
tp1167
(lp1168
I00
as(g1002
g375
g263
tp1169
(lp1170
I00
as(g1007
g262
g1031
tp1171
(lp1172
I00
as(g263
g330
g1031
tp1173
(lp1174
I00
as(g1034
g263
g1031
tp1175
(lp1176
I00
as(g1034
g999
g1031
tp1177
(lp1178
I00
as(g375
g1002
g263
tp1179
(lp1180
I00
as(g1007
g375
g1031
tp1181
(lp1182
I00
as(g1002
g1034
g1031
tp1183
(lp1184
I00
as(g262
g1031
g263
tp1185
(lp1186
I00
as(g375
g330
g1031
tp1187
(lp1188
I00
as(g375
g262
g1031
tp1189
(lp1190
I00
as(g999
g1016
g1031
tp1191
(lp1192
I00
as(g263
g1007
g1031
tp1193
(lp1194
I00
as(g1034
g375
g1031
tp1195
(lp1196
I00
as(g1031
g1007
g263
tp1197
(lp1198
I00
as(g1031
g330
g1031
tp1199
(lp1200
I00
as(g1002
g262
g263
tp1201
(lp1202
I00
as(g999
g262
g263
tp1203
(lp1204
I00
as(g1031
g375
g263
tp1205
(lp1206
I00
as(g1002
g375
g1031
tp1207
(lp1208
I00
as(g1002
g1014
g1031
tp1209
(lp1210
I00
as(g1007
g999
g1031
tp1211
(lp1212
I00
as(g1016
g1014
g1031
tp1213
(lp1214
I00
as(g262
g375
g1031
tp1215
(lp1216
I00
as(g263
g1016
g1031
tp1217
(lp1218
I00
as(g1007
g1031
g1031
tp1219
(lp1220
I00
as(g1014
g263
g1031
tp1221
(lp1222
I00
as(g1016
g262
g263
tp1223
(lp1224
I00
as(g1002
g1034
g263
tp1225
(lp1226
I00
as(g1014
g330
g1031
tp1227
(lp1228
I00
as(g1007
g1002
g1031
tp1229
(lp1230
I00
as(g375
g262
g263
tp1231
(lp1232
I00
as(g999
g1031
g1031
tp1233
(lp1234
I00
as(g330
g263
g263
tp1235
(lp1236
I00
as(g999
g1014
g263
tp1237
(lp1238
I00
as(g263
g375
g1031
tp1239
(lp1240
I00
as(g1031
g262
g1031
tp1241
(lp1242
I00
as(g1031
g375
g1031
tp1243
(lp1244
I00
as(g1016
g375
g263
tp1245
(lp1246
I00
as(g262
g375
g263
tp1247
(lp1248
I01
as(g1016
g262
g1031
tp1249
(lp1250
I00
as(g1007
g1002
g263
tp1251
(lp1252
I00
as(g1002
g330
g263
tp1253
(lp1254
I00
as(g1007
g263
g1031
tp1255
(lp1256
I00
as(g999
g1031
g263
tp1257
(lp1258
I00
as(g1031
g1014
g1031
tp1259
(lp1260
I00
as(g1002
g1014
g263
tp1261
(lp1262
I00
as(g1007
g1007
g263
tp1263
(lp1264
I00
as(g1014
g1014
g263
tp1265
(lp1266
I00
as(g1014
g1007
g1031
tp1267
(lp1268
I00
as(g1007
g1031
g263
tp1269
(lp1270
I00
as(g375
g999
g263
tp1271
(lp1272
I01
as(g1014
g330
g263
tp1273
(lp1274
I00
as(g330
g1031
g1031
tp1275
(lp1276
I00
as(g1007
g1034
g1031
tp1277
(lp1278
I00
as(g330
g263
g1031
tp1279
(lp1280
I00
as(g1016
g330
g1031
tp1281
(lp1282
I00
as(g999
g1014
g1031
tp1283
(lp1284
I00
as(g375
g263
g1031
tp1285
(lp1286
I00
as(g1007
g263
g263
tp1287
(lp1288
I00
as(g1031
g1014
g263
tp1289
(lp1290
I00
as(g262
g262
g263
tp1291
(lp1292
I00
as(g1031
g999
g263
tp1293
(lp1294
I00
as(g999
g375
g263
tp1295
(lp1296
I00
as(g1016
g1002
g263
tp1297
(lp1298
I00
as(g1016
g375
g1031
tp1299
(lp1300
I00
as(g1014
g1016
g1031
tp1301
(lp1302
I00
as(g263
g330
g263
tp1303
(lp1304
I00
as(g1034
g1007
g1031
tp1305
(lp1306
I00
as(g1007
g1016
g263
tp1307
(lp1308
I00
as(g262
g1034
g263
tp1309
(lp1310
I00
as(g375
g999
g1031
tp1311
(lp1312
I00
as(g375
g1007
g1031
tp1313
(lp1314
I00
as(g1014
g262
g263
tp1315
(lp1316
I00
as(g1002
g330
g1031
tp1317
(lp1318
I00
as(g1014
g1031
g263
tp1319
(lp1320
I00
as(g1007
g1034
g263
tp1321
(lp1322
I00
as(g999
g1007
g1031
tp1323
(lp1324
I00
as(g1002
g1016
g263
tp1325
(lp1326
I00
as(g375
g1016
g1031
tp1327
(lp1328
I00
as(g999
g999
g1031
tp1329
(lp1330
I00
as(g1014
g1014
g1031
tp1331
(lp1332
I00
as(g262
g262
g1031
tp1333
(lp1334
I00
as(g1016
g999
g1031
tp1335
(lp1336
I00
as(g999
g330
g263
tp1337
(lp1338
I00
as(g1034
g1016
g263
tp1339
(lp1340
I00
as(g263
g1034
g1031
tp1341
(lp1342
I00
as(g263
g262
g1031
tp1343
(lp1344
I00
as(g330
g1031
g263
tp1345
(lp1346
I00
as(g1016
g1002
g1031
tp1347
(lp1348
I00
as(g262
g1016
g1031
tp1349
(lp1350
I00
as(g1007
g1007
g1031
tp1351
(lp1352
I00
as(g1034
g1007
g263
tp1353
(lp1354
I00
as(g330
g1007
g1031
tp1355
(lp1356
I00
as(g262
g1034
g1031
tp1357
(lp1358
I00
as(g1016
g330
g263
tp1359
(lp1360
I00
as(g1014
g262
g1031
tp1361
(lp1362
I00
as(g1014
g1007
g263
tp1363
(lp1364
I00
as(g999
g1007
g263
tp1365
(lp1366
I00
as(g1016
g263
g1031
tp1367
(lp1368
I00
as(g330
g375
g263
tp1369
(lp1370
I01
as(g375
g375
g1031
tp1371
(lp1372
I00
as(g1014
g1034
g263
tp1373
(lp1374
I00
as(g1031
g1034
g1031
tp1375
(lp1376
I00
as(g999
g375
g1031
tp1377
(lp1378
I00
as(g1031
g262
g263
tp1379
(lp1380
I00
as(g1034
g1034
g1031
tp1381
(lp1382
I00
as(g1014
g1016
g263
tp1383
(lp1384
I00
as(g1016
g999
g263
tp1385
(lp1386
I00
as(g1031
g1002
g1031
tp1387
(lp1388
I00
as(g1007
g1016
g1031
tp1389
(lp1390
I00
as(g375
g263
g263
tp1391
(lp1392
I00
as(g1034
g1016
g1031
tp1393
(lp1394
I00
as(g375
g1007
g263
tp1395
(lp1396
I00
as(g1007
g330
g263
tp1397
(lp1398
I00
as(g1014
g1031
g1031
tp1399
(lp1400
I00
as(g1002
g1016
g1031
tp1401
(lp1402
I00
as(g262
g1002
g263
tp1403
(lp1404
I00
as(g1034
g1031
g1031
tp1405
(lp1406
I00
as(g1031
g1002
g263
tp1407
(lp1408
I00
as(g1016
g1034
g263
tp1409
(lp1410
I00
as(g330
g375
g1031
tp1411
(lp1412
I00
as(g330
g1014
g1031
tp1413
(lp1414
I00
as(g999
g263
g263
tp1415
(lp1416
I00
as(g1014
g1034
g1031
tp1417
(lp1418
I00
as(g1014
g999
g263
tp1419
(lp1420
I00
as(g1034
g1014
g1031
tp1421
(lp1422
I00
as(g263
g262
g263
tp1423
(lp1424
I00
as(g263
g375
g263
tp1425
(lp1426
I00
as(g262
g1016
g263
tp1427
(lp1428
I01
as(g262
g1014
g263
tp1429
(lp1430
I00
as(g1034
g375
g263
tp1431
(lp1432
I00
as(g330
g1007
g263
tp1433
(lp1434
I00
as(g330
g330
g1031
tp1435
(lp1436
I00
as(g262
g999
g1031
tp1437
(lp1438
I00
as(g999
g263
g1031
tp1439
(lp1440
I00
as(g1002
g263
g263
tp1441
(lp1442
I00
as(g1016
g263
g263
tp1443
(lp1444
I00
as(g262
g1002
g1031
tp1445
(lp1446
I00
as(g999
g1002
g263
tp1447
(lp1448
I00
as(g263
g1031
g263
tp1449
(lp1450
I00
as(g1034
g1034
g263
tp1451
(lp1452
I00
as(g1002
g1007
g1031
tp1453
(lp1454
I00
as(g1016
g1034
g1031
tp1455
(lp1456
I00
as(g1031
g330
g263
tp1457
(lp1458
I00
as(g1007
g1014
g263
tp1459
(lp1460
I00
as(g1034
g1014
g263
tp1461
(lp1462
I00
as(g1016
g1031
g263
tp1463
(lp1464
I00
as(g1007
g330
g1031
tp1465
(lp1466
I00
as(g263
g1016
g263
tp1467
(lp1468
I00
as(g1034
g262
g1031
tp1469
(lp1470
I00
as(g999
g1034
g1031
tp1471
(lp1472
I00
as(g330
g330
g263
tp1473
(lp1474
I00
as(g262
g999
g263
tp1475
(lp1476
I01
as(g375
g1034
g1031
tp1477
(lp1478
I00
as(g330
g1014
g263
tp1479
(lp1480
I00
as(g263
g999
g263
tp1481
(lp1482
I00
as(g1007
g375
g263
tp1483
(lp1484
I00
as(g1014
g999
g1031
tp1485
(lp1486
I00
as(g999
g999
g263
tp1487
(lp1488
I00
as(g262
g1014
g1031
tp1489
(lp1490
I00
as(g330
g999
g263
tp1491
(lp1492
I01
as(g375
g1031
g1031
tp1493
(lp1494
I00
as(g263
g1002
g263
tp1495
(lp1496
I00
as(g1002
g1031
g1031
tp1497
(lp1498
I00
as(g263
g1014
g1031
tp1499
(lp1500
I00
as(g1002
g263
g1031
tp1501
(lp1502
I00
as(g1031
g1031
g1031
tp1503
(lp1504
I00
as(g330
g1034
g1031
tp1505
(lp1506
I00
as(g1014
g375
g1031
tp1507
(lp1508
I00
as(g263
g1031
g1031
tp1509
(lp1510
I00
as(g1002
g1007
g263
tp1511
(lp1512
I00
as(g1031
g1016
g263
tp1513
(lp1514
I00
assg464
g465
sS'use_prm'
p1515
I01
sS'object_names'
p1516
(lp1517
S'square_packing_box1'
p1518
aS'rectangular_packing_box1'
p1519
aS'square_packing_box2'
p1520
aS'rectangular_packing_box2'
p1521
aS'square_packing_box3'
p1522
aS'rectangular_packing_box3'
p1523
aS'square_packing_box4'
p1524
aS'rectangular_packing_box4'
p1525
asg996
NsS'current_holding_collides'
p1526
NsS'object_poses'
p1527
(dp1528
Vrectangular_packing_box4
p1529
g21
(g22
(I0
tp1530
g24
tp1531
Rp1532
(I1
(I1
I3
tp1533
g272
I00
S't\xc7\x05#\tR\x0b@\xcf\x98\xdf-\xe6+\x1d\xc0\xb9\xe8W\xce\xe7\xc0\x11@'
p1534
tp1535
bsVrectangular_packing_box2
p1536
g21
(g22
(I0
tp1537
g24
tp1538
Rp1539
(I1
(I1
I3
tp1540
g272
I00
S"\xa8:x\x12\x1fR\xb9\xbf'!\xd3\x93\xb9\x1f\x1f\xc0\x1a\xd0h\xd3)\x88\x14@"
p1541
tp1542
bsVrectangular_packing_box3
p1543
g21
(g22
(I0
tp1544
g24
tp1545
Rp1546
(I1
(I1
I3
tp1547
g272
I00
S'\x05\xdd_\x14\x9f/\x0f@\x02\x01\xd3\xf8\xa7\x15\x17\xc0\xf9\xd6\xb1\xbc\xba\x96\xec?'
p1548
tp1549
bsVrectangular_packing_box1
p1550
g21
(g22
(I0
tp1551
g24
tp1552
Rp1553
(I1
(I1
I3
tp1554
g272
I00
S'}\xc1\xe8\xd8\x8c\xa0\xf9?J\xc6\xa1\xf0l\xef\x19\xc0[I~5\xf9u\x18@'
p1555
tp1556
bsVsquare_packing_box2
p1557
g21
(g22
(I0
tp1558
g24
tp1559
Rp1560
(I1
(I1
I3
tp1561
g272
I00
S'\x1e\x02\xa2>r\xfc\x02@F\xaf\x81.R\x95\x16\xc0\xc3\x97\xc4\xf38I\x14@'
p1562
tp1563
bsVsquare_packing_box3
p1564
g21
(g22
(I0
tp1565
g24
tp1566
Rp1567
(I1
(I1
I3
tp1568
g272
I00
S"\x90J'\xcd95\xf5?l\xd0\xd6JE\xcd\x16\xc0\xd5\xf3\x85\x93*v\x04@"
p1569
tp1570
bsVsquare_packing_box1
p1571
g21
(g22
(I0
tp1572
g24
tp1573
Rp1574
(I1
(I1
I3
tp1575
g272
I00
S'\xc9(\xb2G\xa53\xf8?\x0c\x982\xa7\xe6\xf1\x1c\xc0\xf6\xfc,\xdd\xd8F\xb0?'
p1576
tp1577
bsVsquare_packing_box4
p1578
g21
(g22
(I0
tp1579
g24
tp1580
Rp1581
(I1
(I1
I3
tp1582
g272
I00
S'\xa8\x9f\x8a2\xb4c\xe7?p\xb8]$:C\x17\xc0\x89\xfd\xaac2X\x10@'
p1583
tp1584
bssS'reachable_regions_while_holding'
p1585
(lp1586
(g425
g1031
tp1587
a(g426
g1031
tp1588
a(g427
g1031
tp1589
a(g713
g1031
tp1590
a(g428
g1031
tp1591
a(g866
g1031
tp1592
a(g74
g1031
tp1593
a(g12
g1031
tp1594
a(g425
g263
tp1595
a(g426
g263
tp1596
a(g427
g263
tp1597
a(g74
g263
tp1598
a(g12
g263
tp1599
asS'in_region'
p1600
(itrajectory_representation.predicates.in_region
InRegion
p1601
(dp1602
g996
NsbsS'cached_pick_paths'
p1603
(dp1604
g425
(lp1605
g21
(g22
(I0
tp1606
g24
tp1607
Rp1608
(I1
(I3
tp1609
g272
I00
S'`\x19\x01\xc0X_\xe1?\x12|\x99B_.\x1b\xc0T\x04\xb4\xbc\xd6\xd1\x13@'
p1610
tp1611
bag21
(g22
(I0
tp1612
g24
tp1613
Rp1614
(I1
(I3
tp1615
g283
I00
S'\x82\xeb.\xbfl\xf2\xe7?\xb8@O\xd3\x83\xb3\x1d\xc0\xc5\xeb\x9c\xf6Lc\xff\xbf'
p1616
tp1617
bag21
(g22
(I0
tp1618
g24
tp1619
Rp1620
(I1
(I3
tp1621
g283
I00
S'\xack\x86\xecj\xbe\xf2?\x96O\xb7\x87\x84\x85\x1f\xc0\xfa\x84\x19\xd1\xe3\x0c\x04@'
p1622
tp1623
bag21
(g22
(I0
tp1624
g24
tp1625
Rp1626
(I1
(I3
tp1627
g283
I00
S'&\x0c\x9f\xd5\xa9\xbf\xfc?n\x13\xcb\xbd\xbf\x0b \xc0L\xd8\xef\x1bN\xb4\x00@'
p1628
tp1629
bag21
(g22
(I0
tp1630
g24
tp1631
Rp1632
(I1
(I3
tp1633
g283
I00
S'\xb9O\xa7Y\x02\x91\x00@\x96d\x95\x0e\xe6\xda\x1e\xc0l\xef\x8e\x11Rk\xeb?'
p1634
tp1635
bag489
asg426
(lp1636
g21
(g22
(I0
tp1637
g24
tp1638
Rp1639
(I1
(I3
tp1640
g272
I00
S'`\x19\x01\xc0X_\xe1?\x12|\x99B_.\x1b\xc0T\x04\xb4\xbc\xd6\xd1\x13@'
p1641
tp1642
bag569
asg427
(lp1643
g21
(g22
(I0
tp1644
g24
tp1645
Rp1646
(I1
(I3
tp1647
g272
I00
S'`\x19\x01\xc0X_\xe1?\x12|\x99B_.\x1b\xc0T\x04\xb4\xbc\xd6\xd1\x13@'
p1648
tp1649
bag21
(g22
(I0
tp1650
g24
tp1651
Rp1652
(I1
(I3
tp1653
g283
I00
S'\x82\xeb.\xbfl\xf2\xe7?\xb8@O\xd3\x83\xb3\x1d\xc0\xc5\xeb\x9c\xf6Lc\xff\xbf'
p1654
tp1655
bag21
(g22
(I0
tp1656
g24
tp1657
Rp1658
(I1
(I3
tp1659
g283
I00
S'\xack\x86\xecj\xbe\xf2?\x96O\xb7\x87\x84\x85\x1f\xc0\xfa\x84\x19\xd1\xe3\x0c\x04@'
p1660
tp1661
bag21
(g22
(I0
tp1662
g24
tp1663
Rp1664
(I1
(I3
tp1665
g283
I00
S'&\x0c\x9f\xd5\xa9\xbf\xfc?n\x13\xcb\xbd\xbf\x0b \xc0L\xd8\xef\x1bN\xb4\x00@'
p1666
tp1667
bag21
(g22
(I0
tp1668
g24
tp1669
Rp1670
(I1
(I3
tp1671
g283
I00
S'V<\xdb\x99-b\x02@s\xd3@:\x7fA\x1e\xc0\xbf\x94H\xa7$\xf0\xff?'
p1672
tp1673
bag21
(g22
(I0
tp1674
g24
tp1675
Rp1676
(I1
(I3
tp1677
g283
I00
S'>\xc0\x12$\xd1\xa3\x02@L\xfb\xe9\xe8\x00\xfd\x1c\xc0\x1dL8%\x1b\x13\x04@'
p1678
tp1679
bag21
(g22
(I0
tp1680
g24
tp1681
Rp1682
(I1
(I3
tp1683
g283
I00
S'\xc3#\x9b"m=\x05@O\x1c\xaf\xffo\x1c\x1b\xc0\xa4\xc19\xdd\xaa\xea\xdd?'
p1684
tp1685
bag642
asg713
(lp1686
g21
(g22
(I0
tp1687
g24
tp1688
Rp1689
(I1
(I3
tp1690
g272
I00
S'`\x19\x01\xc0X_\xe1?\x12|\x99B_.\x1b\xc0T\x04\xb4\xbc\xd6\xd1\x13@'
p1691
tp1692
bag21
(g22
(I0
tp1693
g24
tp1694
Rp1695
(I1
(I3
tp1696
g283
I00
S'\x0cQ\x1b\xe8d\xe6\xba?\x9b0|\rs\x94\x1d\xc0X-\xa3"\x86\xbf\x01\xc0'
p1697
tp1698
bag21
(g22
(I0
tp1699
g24
tp1700
Rp1701
(I1
(I3
tp1702
g283
I00
S'\x0c\xff\xe10\xe4\xfb\xe2?\xf1}1j\xd3\x96\x1c\xc0B\xd2\xc8(\xcc_\xe9?'
p1703
tp1704
bag728
asg428
(lp1705
g21
(g22
(I0
tp1706
g24
tp1707
Rp1708
(I1
(I3
tp1709
g272
I00
S'`\x19\x01\xc0X_\xe1?\x12|\x99B_.\x1b\xc0T\x04\xb4\xbc\xd6\xd1\x13@'
p1710
tp1711
bag21
(g22
(I0
tp1712
g24
tp1713
Rp1714
(I1
(I3
tp1715
g283
I00
S'\x82\xeb.\xbfl\xf2\xe7?\xb8@O\xd3\x83\xb3\x1d\xc0\xc5\xeb\x9c\xf6Lc\xff\xbf'
p1716
tp1717
bag21
(g22
(I0
tp1718
g24
tp1719
Rp1720
(I1
(I3
tp1721
g283
I00
S'\xack\x86\xecj\xbe\xf2?\x96O\xb7\x87\x84\x85\x1f\xc0\xfa\x84\x19\xd1\xe3\x0c\x04@'
p1722
tp1723
bag21
(g22
(I0
tp1724
g24
tp1725
Rp1726
(I1
(I3
tp1727
g283
I00
S'&\x0c\x9f\xd5\xa9\xbf\xfc?n\x13\xcb\xbd\xbf\x0b \xc0L\xd8\xef\x1bN\xb4\x00@'
p1728
tp1729
bag21
(g22
(I0
tp1730
g24
tp1731
Rp1732
(I1
(I3
tp1733
g283
I00
S'V<\xdb\x99-b\x02@s\xd3@:\x7fA\x1e\xc0\xbf\x94H\xa7$\xf0\xff?'
p1734
tp1735
bag21
(g22
(I0
tp1736
g24
tp1737
Rp1738
(I1
(I3
tp1739
g283
I00
S'\xe8[\xb2\xaa\xa5@\x04@(j\r1!I\x1b\xc0Xj\x8bx\xc9`\xfc?'
p1740
tp1741
bag807
asg866
(lp1742
g21
(g22
(I0
tp1743
g24
tp1744
Rp1745
(I1
(I3
tp1746
g272
I00
S'`\x19\x01\xc0X_\xe1?\x12|\x99B_.\x1b\xc0T\x04\xb4\xbc\xd6\xd1\x13@'
p1747
tp1748
bag21
(g22
(I0
tp1749
g24
tp1750
Rp1751
(I1
(I3
tp1752
g283
I00
S'\x82\xeb.\xbfl\xf2\xe7?\xb8@O\xd3\x83\xb3\x1d\xc0\xc5\xeb\x9c\xf6Lc\xff\xbf'
p1753
tp1754
bag21
(g22
(I0
tp1755
g24
tp1756
Rp1757
(I1
(I3
tp1758
g283
I00
S'\x00{\xeeM\xfb\x06\xd8?\xa7W\x1e\xc1\xa5F\x1b\xc0\xd0\xcaV\x8a\x88D\xf6?'
p1759
tp1760
bag887
asg74
g939
sg12
g968
ssg429
(dp1761
(Vsquare_packing_box3
p1762
(cnumpy.core.multiarray
scalar
p1763
(g272
S'0/\xc0>:5\xf5?'
p1764
tp1765
Rp1766
g1763
(g272
S'\xe8\x9f\xe0bE\xcd\x16\xc0'
p1767
tp1768
Rp1769
g1763
(g272
S'[[x^*v\x04@'
p1770
tp1771
Rp1772
tp1773
tp1774
g455
s(Vrectangular_packing_box1
p1775
(g1763
(g272
S'\xf9\x9e\x91\x08\x8d\xa0\xf9?'
p1776
tp1777
Rp1778
g1763
(g272
S'Ec\xed\xefl\xef\x19\xc0'
p1779
tp1780
Rp1781
g1763
(g272
S'E\xf3\x00\x16\xf9u\x18@'
p1782
tp1783
Rp1784
tp1785
tp1786
g447
s(Vrectangular_packing_box3
p1787
(g1763
(g272
S'gE\xd4D\x9f/\x0f@'
p1788
tp1789
Rp1790
g1763
(g272
S'W_]\x15\xa8\x15\x17\xc0'
p1791
tp1792
Rp1793
g1763
(g272
S'\x82\xe2\xc7\x98\xbb\x96\xec?'
p1794
tp1795
Rp1796
tp1797
tp1798
g443
s(Vsquare_packing_box1
p1799
(g1763
(g272
S'\x0b*\xaa~\xa53\xf8?'
p1800
tp1801
Rp1802
g1763
(g272
S'\x9c4\r\x8a\xe6\xf1\x1c\xc0'
p1803
tp1804
Rp1805
g1763
(g272
S'8\xa0\xa5+\xd8F\xb0?'
p1806
tp1807
Rp1808
tp1809
tp1810
g459
s(Vrectangular_packing_box4
p1811
(g1763
(g272
S'\x90\x11P\xe1\x08R\x0b@'
p1812
tp1813
Rp1814
g1763
(g272
S'\x07\xeb\xff\x1c\xe6+\x1d\xc0'
p1815
tp1816
Rp1817
g1763
(g272
S'\xd1[<\xbc\xe7\xc0\x11@'
p1818
tp1819
Rp1820
tp1821
tp1822
g435
s(Vrectangular_packing_box2
p1823
(g1763
(g272
S'F\xb2G\xa8\x19R\xb9\xbf'
p1824
tp1825
Rp1826
g1763
(g272
S'\x830\xb7{\xb9\x1f\x1f\xc0'
p1827
tp1828
Rp1829
g1763
(g272
S'\x85"\xdd\xcf)\x88\x14@'
p1830
tp1831
Rp1832
tp1833
tp1834
g439
s(Vsquare_packing_box2
p1835
(g1763
(g272
S'x\xee=\\r\xfc\x02@'
p1836
tp1837
Rp1838
g1763
(g272
S'\xb2G\xa8\x19R\x95\x16\xc0'
p1839
tp1840
Rp1841
g1763
(g272
S'\x01\xdfm\xde8I\x14@'
p1842
tp1843
Rp1844
tp1845
tp1846
g451
s(Vsquare_packing_box4
p1847
(g1763
(g272
S'-\xb5\xdeo\xb4c\xe7?'
p1848
tp1849
Rp1850
g1763
(g272
S'}\xcc\x07\x04:C\x17\xc0'
p1851
tp1852
Rp1853
g1763
(g272
S'c\xd1tv2X\x10@'
p1854
tp1855
Rp1856
tp1857
tp1858
g463
ssS'state_saver'
p1859
(igtamp_utils.utils
CustomStateSaver
p1860
(dp1861
S'robot_base_pose'
p1862
g21
(g22
(I0
tp1863
g24
tp1864
Rp1865
(I1
(I1
I3
tp1866
g272
I00
S'n\x19\x01\xc0X_\xe1?\x0e|\x99B_.\x1b\xc0T\x04\xb4\xbc\xd6\xd1\x13@'
p1867
tp1868
bsS'held_object'
p1869
NsS'robot_name'
p1870
S'pr2'
p1871
sS'env_id'
p1872
I1
sg1527
(dp1873
Vright_wall_1
p1874
g21
(g22
(I0
tp1875
g24
tp1876
Rp1877
(I1
(I4
tp1878
g272
I00
S'H\xe1z\x14\xaeG\x12@&\\\x8f\xc2\xf5(\xd4\xbf\xcc\x7fH\xbf}\x1d\xed?\x00\x00\x00\x00\x00\x00\x00\x00'
p1879
tp1880
bsVc_obst5
p1881
g21
(g22
(I0
tp1882
g24
tp1883
Rp1884
(I1
(I4
tp1885
g272
I00
S"D.\x92\xbd\x0e\x96\x12@j\xe8T^\xcc,\xc4?e\xaa`TR'\xed?\x9fz\xfe\xa8\xa4:\xac?"
p1886
tp1887
bsVentrance_right
p1888
g21
(g22
(I0
tp1889
g24
tp1890
Rp1891
(I1
(I4
tp1892
g272
I00
S'ffffff\n@H\xe1z\x14\xaeG\t\xc0\x9c\xc4 \xb0rh\xc1?\x00\x00\x00\x00\x00\x00\x00\x00'
p1893
tp1894
bsVcomputer_table
p1895
g21
(g22
(I0
tp1896
g24
tp1897
Rp1898
(I1
(I4
tp1899
g272
I00
S'\x00\x00\x00\x00\x00\x00\x13@\x00\x00\x00\x00\x00\x00\xf8\xbf\x96C\x8bl\xe7\xfb\xe7?\xd2!3\x7f|\xd9\x12@'
p1900
tp1901
bsVchair_6b56
p1902
g21
(g22
(I0
tp1903
g24
tp1904
Rp1905
(I1
(I4
tp1906
g272
I00
S'u=\n\xd7\xa3p\xf5?K\xe1z\x14\xaeG\xd1?\x00\x00\x00\x00\x00\x00\x00\x00\xd6$\xfaNBm\n@'
p1907
tp1908
bsVsquare_packing_box3
p1909
g21
(g22
(I0
tp1910
g24
tp1911
Rp1912
(I1
(I4
tp1913
g272
I00
S"\x90J'\xcd95\xf5?l\xd0\xd6JE\xcd\x16\xc0L7\x89A`\xe5\xd8?\xd5\xf3\x85\x93*v\x04@"
p1914
tp1915
bsVsquare_packing_box2
p1916
g21
(g22
(I0
tp1917
g24
tp1918
Rp1919
(I1
(I4
tp1920
g272
I00
S'\x1e\x02\xa2>r\xfc\x02@F\xaf\x81.R\x95\x16\xc0L7\x89A`\xe5\xd8?\xc3\x97\xc4\xf38I\x14@'
p1921
tp1922
bsVtable
p1923
g21
(g22
(I0
tp1924
g24
tp1925
Rp1926
(I1
(I4
tp1927
g272
I00
S'\x7f\xf6#EdX\xed?\xac\xffs\x98//\xc0\xbf\x00\x00\x00\x00\x00\x00\x00\x00\x00\x00\x00\x00\x00\x00\x00\x00'
p1928
tp1929
bsVsquare_packing_box1
p1930
g21
(g22
(I0
tp1931
g24
tp1932
Rp1933
(I1
(I4
tp1934
g272
I00
S'\xc9(\xb2G\xa53\xf8?\x0c\x982\xa7\xe6\xf1\x1c\xc0L7\x89A`\xe5\xd8?\xee\xfe,\xdd\xd8F\xb0?'
p1935
tp1936
bsVback_wall_2
p1937
g21
(g22
(I0
tp1938
g24
tp1939
Rp1940
(I1
(I4
tp1941
g272
I00
S'\xaeG\xe1z\x14.\x13@\x80\x14\xaeG\xe1z\xc4?xX\xa85\xcd\xbb\xf2?\x00\x00\x00\x00\x00\x00\x00\x00'
p1942
tp1943
bsVchair_083c
p1944
g21
(g22
(I0
tp1945
g24
tp1946
Rp1947
(I1
(I4
tp1948
g272
I00
S'\xa4p=\n\xd7\xa3\xe0?333333\xe3\xbf\x00\x00\x00\x00\x00\x00\x00\x00\x00\x00\x00\x00\x00\x00\x00\x00'
p1949
tp1950
bsVback_wall_1
p1951
g21
(g22
(I0
tp1952
g24
tp1953
Rp1954
(I1
(I4
tp1955
g272
I00
S'\xaeG\xe1z\x14.\x13@\x80\x14\xaeG\xe1z\xc4?\xcc\x7fH\xbf}\x1d\xed?\x00\x00\x00\x00\x00\x00\x00\x00'
p1956
tp1957
bsVbottom_wall
p1958
g21
(g22
(I0
tp1959
g24
tp1960
Rp1961
(I1
(I4
tp1962
g272
I00
S'\x00\x00\x00\x00\x00\x00\xfc?\x00\x00\x00\x00\x00\x00\x00\x00\x00\x00\x00\x00\x00\x00\x00\x00\x00\x00\x00\x00\x00\x00\x00\x00'
p1963
tp1964
bsVcup_905a
p1965
g21
(g22
(I0
tp1966
g24
tp1967
Rp1968
(I1
(I4
tp1969
g272
I00
S'\x00\x00\x00\x00\x00\x00\xf0?\x83\xc0\xca\xa1E\xb6\xdb?\x1b/\xdd$\x06\x81\xed?\x00\x00\x00\x00\x00\x00\x00\x00'
p1970
tp1971
bsVplate_496f
p1972
g21
(g22
(I0
tp1973
g24
tp1974
Rp1975
(I1
(I4
tp1976
g272
I00
S"q=\n\xd7\xa3p\xe5?\x9dhW!\xe5'\xdd\xbf\x1b/\xdd$\x06\x81\xed?\x00\x00\x00\x00\x00\x00\x00\x00"
p1977
tp1978
bsVtoaster
p1979
g21
(g22
(I0
tp1980
g24
tp1981
Rp1982
(I1
(I4
tp1983
g272
I00
S')\\\x8f\xc2\xf5(\xf4\xbf\xe0z\x14\xaeG\xe1\xf2\xbf\xb8\x1e\x85\xebQ\xb8\xee?\x89/`\x9b\xf8\x8a\xe4?'
p1984
tp1985
bsVc_obst1
p1986
g21
(g22
(I0
tp1987
g24
tp1988
Rp1989
(I1
(I4
tp1990
g272
I00
S"\xfeV\x99Zu\x90\x12@\xc0\x9feq\xd7\x96\xa8?e\xaa`TR'\xed?\xb4\xbd\x05-\x99\xa0\x03@"
p1991
tp1992
bsVrectangular_packing_box4
p1993
g21
(g22
(I0
tp1994
g24
tp1995
Rp1996
(I1
(I4
tp1997
g272
I00
S'r\xc7\x05#\tR\x0b@\xd3\x98\xdf-\xe6+\x1d\xc0L7\x89A`\xe5\xd8?\xb9\xe8W\xce\xe7\xc0\x11@'
p1998
tp1999
bsVmicrowave
p2000
g21
(g22
(I0
tp2001
g24
tp2002
Rp2003
(I1
(I4
tp2004
g272
I00
S'\x9a\x99\x99\x99\x99\x99\xf1\xbf\x00\x00\x00\x00\x00\x00\x00@7\x89A`\xe5\xd0\xee?\x00\x00\x00\x00\x00\x00\x00\x00'
p2005
tp2006
bsVc_obst7
p2007
g21
(g22
(I0
tp2008
g24
tp2009
Rp2010
(I1
(I4
tp2011
g272
I00
S"\xe2o'\xbc\xeez\x12@('^\x8d\x17\x8b\xe0?e\xaa`TR'\xed?\xaa\xf0\xd4\x94\xa3\xc3\x02@"
p2012
tp2013
bsVc_obst6
p2014
g21
(g22
(I0
tp2015
g24
tp2016
Rp2017
(I1
(I4
tp2018
g272
I00
S"\x04\xf7:\xa3\xc8\xfa\x11@\xbc0<\x1f\x9f\xde\xd7?e\xaa`TR'\xed?Bi\x80t_\x89\xda?"
p2019
tp2020
bsVcup_b6af
p2021
g21
(g22
(I0
tp2022
g24
tp2023
Rp2024
(I1
(I4
tp2025
g272
I00
S'R\xb8\x1e\x85\xebQ\xe8?\x9a\x99\x99\x99\x99\x99\xe1?\x1b/\xdd$\x06\x81\xed?\x00\x00\x00\x00\x00\x00\x00\x00'
p2026
tp2027
bsVc_obst4
p2028
g21
(g22
(I0
tp2029
g24
tp2030
Rp2031
(I1
(I4
tp2032
g272
I00
S"\xab\x1bl\x99\x97E\x12@\x90\xa1\xb5\x1c\x0c\x01\xb0\xbfe\xaa`TR'\xed?\xf4}>\xa0Z4\x06@"
p2033
tp2034
bsVrectangular_packing_box2
p2035
g21
(g22
(I0
tp2036
g24
tp2037
Rp2038
(I1
(I4
tp2039
g272
I00
S'\x8a9x\x12\x1fR\xb9\xbf(!\xd3\x93\xb9\x1f\x1f\xc0L7\x89A`\xe5\xd8?\x1a\xd0h\xd3)\x88\x14@'
p2040
tp2041
bsVplate_fa76
p2042
g21
(g22
(I0
tp2043
g24
tp2044
Rp2045
(I1
(I4
tp2046
g272
I00
S'=\n\xd7\xa3p=\xf2?\x00\x00\x00\x00\x00\x00\x00\x00\x1b/\xdd$\x06\x81\xed?\x00\x00\x00\x00\x00\x00\x00\x00'
p2047
tp2048
bsVfloorwalls
p2049
g21
(g22
(I0
tp2050
g24
tp2051
Rp2052
(I1
(I4
tp2053
g272
I00
S'\xc7\xcc\xcc\xcc\xcc\xcc\xfc?\x00\x00\x00\x00\x00\x00\x18\xc0H\xe1z\x14\xaeG\xc1?\x16-DT\xfb!\xf9?'
p2054
tp2055
bsVpin_c671
p2056
g21
(g22
(I0
tp2057
g24
tp2058
Rp2059
(I1
(I4
tp2060
g272
I00
S'\xc3\xf5(\\\x8f\xc2\xf1\xbf}?5^\xbaI\x02@\xb8\x1e\x85\xebQ\xb8\xfa?\x00\x00\x00\x00\x00\x00\x00\x00'
p2061
tp2062
bsVc_obst3
p2063
g21
(g22
(I0
tp2064
g24
tp2065
Rp2066
(I1
(I4
tp2067
g272
I00
S"\\\xbd\xde*\xd3Q\x12@\x0006\xf0\xfd\xbc\xd4?e\xaa`TR'\xed?\xd8\x83\xaf\x1ar\x92\x11@"
p2068
tp2069
bsVchair_2e39
p2070
g21
(g22
(I0
tp2071
g24
tp2072
Rp2073
(I1
(I4
tp2074
g272
I00
S'hfffff\xee?cfffff\xf2\xbf\x00\x00\x00\x00\x00\x00\x00\x00\x07M\xe8QQF\xf3?'
p2075
tp2076
bsVentrance_left
p2077
g21
(g22
(I0
tp2078
g24
tp2079
Rp2080
(I1
(I4
tp2081
g272
I00
S'\x98\x99\x99\x99\x99\x99\xe9\xbfH\xe1z\x14\xaeG\t\xc0\x9c\xc4 \xb0rh\xc1?\x00\x00\x00\x00\x00\x00\x00\x00'
p2082
tp2083
bsVtop_wall_1
p2084
g21
(g22
(I0
tp2085
g24
tp2086
Rp2087
(I1
(I4
tp2088
g272
I00
S'H\xe1z\x14\xaeG\x12@\x80\x14\xaeG\xe1z\xc4?xX\xa85\xcd\xbb\xf2?\x00\x00\x00\x00\x00\x00\x00\x00'
p2089
tp2090
bsVrectangular_packing_box3
p2091
g21
(g22
(I0
tp2092
g24
tp2093
Rp2094
(I1
(I4
tp2095
g272
I00
S'\x06\xdd_\x14\x9f/\x0f@\x00\x01\xd3\xf8\xa7\x15\x17\xc0L7\x89A`\xe5\xd8?\xf9\xd6\xb1\xbc\xba\x96\xec?'
p2096
tp2097
bsVshaker
p2098
g21
(g22
(I0
tp2099
g24
tp2100
Rp2101
(I1
(I4
tp2102
g272
I00
S'\n\xd7\xa3p=\n\x01@\x14\xaeG\xe1z\x14\x02@\\\x8f\xc2\xf5(\\\xef?\x00\x00\x00\x00\x00\x00\x00\x00'
p2103
tp2104
bsVc_obst9
p2105
g21
(g22
(I0
tp2106
g24
tp2107
Rp2108
(I1
(I4
tp2109
g272
I00
S"V*\x8f\xfa\x02\x08\x12@6j\xc4\x9aNC\xdc?e\xaa`TR'\xed?\xa5/\xa0\xc9\x1f\x03\x18@"
p2110
tp2111
bsVplate_835a
p2112
g21
(g22
(I0
tp2113
g24
tp2114
Rp2115
(I1
(I4
tp2116
g272
I00
S'\xf6(\\\x8f\xc2\xf5\xf0?\\\x8f\xc2\xf5(\\\xe7\xbf\x1b/\xdd$\x06\x81\xed?\x00\x00\x00\x00\x00\x00\x00\x00'
p2117
tp2118
bsVcup_58a2
p2119
g21
(g22
(I0
tp2120
g24
tp2121
Rp2122
(I1
(I4
tp2123
g272
I00
S'\x85\xebQ\xb8\x1e\x85\xe3?\xcd\xcc\xcc\xcc\xcc\xcc\xdc?\x1b/\xdd$\x06\x81\xed?\x00\x00\x00\x00\x00\x00\x00\x00'
p2124
tp2125
bsVleft_wall_1
p2126
g21
(g22
(I0
tp2127
g24
tp2128
Rp2129
(I1
(I4
tp2130
g272
I00
S'H\xe1z\x14\xaeG\x12@S\xb8\x1e\x85\xebQ\xe4?\xcc\x7fH\xbf}\x1d\xed?\x00\x00\x00\x00\x00\x00\x00\x00'
p2131
tp2132
bsVc_obst2
p2133
g21
(g22
(I0
tp2134
g24
tp2135
Rp2136
(I1
(I4
tp2137
g272
I00
S"\x18T\xc7K\xc0\xfd\x11@ \xae0S[\x0b\xb5\xbfe\xaa`TR'\xed?\x0f7\xcc6\x9b\xd9\r@"
p2138
tp2139
bsVsquare_packing_box4
p2140
g21
(g22
(I0
tp2141
g24
tp2142
Rp2143
(I1
(I4
tp2144
g272
I00
S'\xa4\x9f\x8a2\xb4c\xe7?r\xb8]$:C\x17\xc0L7\x89A`\xe5\xd8?\x89\xfd\xaac2X\x10@'
p2145
tp2146
bsVrectangular_packing_box1
p2147
g21
(g22
(I0
tp2148
g24
tp2149
Rp2150
(I1
(I4
tp2151
g272
I00
S'\x81\xc1\xe8\xd8\x8c\xa0\xf9?J\xc6\xa1\xf0l\xef\x19\xc0L7\x89A`\xe5\xd8?[I~5\xf9u\x18@'
p2152
tp2153
bsVpin_371e
p2154
g21
(g22
(I0
tp2155
g24
tp2156
Rp2157
(I1
(I4
tp2158
g272
I00
S'333333\xf3\xbfffffff\xf6?\xb8\x1e\x85\xebQ\xb8\xee?\x00\x00\x00\x00\x00\x00\x00\x00'
p2159
tp2160
bsVfridge
p2161
g21
(g22
(I0
tp2162
g24
tp2163
Rp2164
(I1
(I4
tp2165
g272
I00
S'\xd7\xa3p=\n\xd7\xeb\xbf\x00\x00\x00\x00\x00\x00\x00\xc0\xcd\xcc\xcc\xcc\xcc\xcc\xf8?\x00\x00\x00\x00\x00\x00\x00\x00'
p2166
tp2167
bsVcup_d441
p2168
g21
(g22
(I0
tp2169
g24
tp2170
Rp2171
(I1
(I4
tp2172
g272
I00
S'\n\xd7\xa3p=\n\xef?\x8f\xc2\xf5(\\\x8f\xe2?\x1b/\xdd$\x06\x81\xed?\x00\x00\x00\x00\x00\x00\x00\x00'
p2173
tp2174
bsVshelf2
p2175
g21
(g22
(I0
tp2176
g24
tp2177
Rp2178
(I1
(I4
tp2179
g272
I00
S'\x00\x00\x00\x00\x00\x00\x0e@\xaeG\xe1z\x14\xae\x07@\x9c\xc4 \xb0rh\xc1?\xd2!3\x7f|\xd9\x12@'
p2180
tp2181
bsVtop_wall_2
p2182
g21
(g22
(I0
tp2183
g24
tp2184
Rp2185
(I1
(I4
tp2186
g272
I00
S'H\xe1z\x14\xaeG\x12@\x80\x14\xaeG\xe1z\xc4?\x16HP\xfc\x18\xf3\xfd?\x00\x00\x00\x00\x00\x00\x00\x00'
p2187
tp2188
bsVc_obst0
p2189
g21
(g22
(I0
tp2190
g24
tp2191
Rp2192
(I1
(I4
tp2193
g272
I00
S"\xac\xb4#\xc2\xae\xf5\x11@+\xcb\x18\xf0a\x06/\xbfe\xaa`TR'\xed?\xaa\xd7\x17\x97QY\x13@"
p2194
tp2195
bsVshelf1
p2196
g21
(g22
(I0
tp2197
g24
tp2198
Rp2199
(I1
(I4
tp2200
g272
I00
S'\x00\x00\x00\x00\x00\x00\x13@\xaeG\xe1z\x14\xae\x07@\x9c\xc4 \xb0rh\xc1?\xd2!3\x7f|\xd9\x12@'
p2201
tp2202
bsVsink
p2203
g21
(g22
(I0
tp2204
g24
tp2205
Rp2206
(I1
(I4
tp2207
g272
I00
S'ffffff\xd6?333333\x01@\x9a\x99\x99\x99\x99\x99\xb9\xbf\x00\x00\x00\x00\x00\x00\x00\x00'
p2208
tp2209
bsVpr2
p2210
g21
(g22
(I0
tp2211
g24
tp2212
Rp2213
(I1
(I4
tp2214
g272
I00
S'n\x19\x01\xc0X_\xe1?\t|\x99B_.\x1b\xc0\x9a_\x94\xa0\xbf\xd0\xc1?T\x04\xb4\xbc\xd6\xd1\x13@'
p2215
tp2216
bsVchair_12d0
p2217
g21
(g22
(I0
tp2218
g24
tp2219
Rp2220
(I1
(I4
tp2221
g272
I00
S'\\\xd2\x18\xad\xa3\xaa\xdb?Of\x83L2r\xc6?\x00\x00\x00\x00\x00\x00\x00\x00\xf8\x81\r\x14M\xa6\x17@'
p2222
tp2223
bsVright_wall_2
p2224
g21
(g22
(I0
tp2225
g24
tp2226
Rp2227
(I1
(I4
tp2228
g272
I00
S'H\xe1z\x14\xaeG\x12@&\\\x8f\xc2\xf5(\xd4\xbfxX\xa85\xcd\xbb\xf2?\x00\x00\x00\x00\x00\x00\x00\x00'
p2229
tp2230
bsVknife_block
p2231
g21
(g22
(I0
tp2232
g24
tp2233
Rp2234
(I1
(I4
tp2235
g272
I00
S'R\xb8\x1e\x85\xebQ\xe0\xbfffffff\x02@`\xe5\xd0"\xdb\xf9\xee?\x00\x00\x00\x00\x00\x00\x00\x00'
p2236
tp2237
bsVleft_wall_2
p2238
g21
(g22
(I0
tp2239
g24
tp2240
Rp2241
(I1
(I4
tp2242
g272
I00
S'H\xe1z\x14\xaeG\x12@S\xb8\x1e\x85\xebQ\xe4?xX\xa85\xcd\xbb\xf2?\x00\x00\x00\x00\x00\x00\x00\x00'
p2243
tp2244
bsVleft_wall
p2245
g21
(g22
(I0
tp2246
g24
tp2247
Rp2248
(I1
(I4
tp2249
g272
I00
S'\x9a\x99\x99\x99\x99\x99\x07@H\xe1z\x14\xaeG\xff?\x9c\xc4 \xb0rh\xc1?\x00\x00\x00\x00\x00\x00\x00\x00'
p2250
tp2251
bsVkitchen
p2252
g21
(g22
(I0
tp2253
g24
tp2254
Rp2255
(I1
(I4
tp2256
g272
I00
S'\x00\x00\x00\x00\x00\x00\x00\x00\x00\x00\x00\x00\x00\x00\x00\x00\x00\x00\x00\x00\x00\x00\x00\x00\x00\x00\x00\x00\x00\x00\x00\x00'
p2257
tp2258
bsVtable2
p2259
g21
(g22
(I0
tp2260
g24
tp2261
Rp2262
(I1
(I4
tp2263
g272
I00
S'\x00\x00\x00\x00\x00\x00\x13@\x80\x14\xaeG\xe1z\xc4?S\x96!\x8euq\xec?\xd2!3\x7f|\xd9\x12@'
p2264
tp2265
bsVc_obst8
p2266
g21
(g22
(I0
tp2267
g24
tp2268
Rp2269
(I1
(I4
tp2270
g272
I00
S"w\xbb\x06!3F\x12@\xc81k\\\x9f>\xa3?e\xaa`TR'\xed?\xfda\x8fuf?\x18@"
p2271
tp2272
bsVplate_b4e7
p2273
g21
(g22
(I0
tp2274
g24
tp2275
Rp2276
(I1
(I4
tp2277
g272
I00
S'\x14\xaeG\xe1z\x14\xf2\xbf\x14\xaeG\xe1z\x14\x00@=\n\xd7\xa3p=\xf2?\x00\x00\x00\x00\x00\x00\x00\x00'
p2278
tp2279
bsVcooker
p2280
g21
(g22
(I0
tp2281
g24
tp2282
Rp2283
(I1
(I4
tp2284
g272
I00
S'\xaeG\xe1z\x14\xae\xff?\x85\xebQ\xb8\x1e\x85\xfb?\x00\x00\x00\x00\x00\x00\xe8?\x00\x00\x00\x00\x00\x00\x00\x00'
p2285
tp2286
bsVpin_a091
p2287
g21
(g22
(I0
tp2288
g24
tp2289
Rp2290
(I1
(I4
tp2291
g272
I00
S'\xdb\xf9~j\xbct\xf7\xbf)\\\x8f\xc2\xf5(\x02@\xb8\x1e\x85\xebQ\xb8\xfa?\x00\x00\x00\x00\x00\x00\x00\x00'
p2292
tp2293
bsVside_wall_2
p2294
g21
(g22
(I0
tp2295
g24
tp2296
Rp2297
(I1
(I4
tp2298
g272
I00
S'\xfa\xff\xff\xff\xff\xff\x14@\x00\x00\x00\x00\x00\x00\x00\x00\x9c\xc4 \xb0rh\xc1?\x18-DT\xfb!\xf9?'
p2299
tp2300
bsVside_wall_3
p2301
g21
(g22
(I0
tp2302
g24
tp2303
Rp2304
(I1
(I4
tp2305
g272
I00
S'\x00\x00\x00\x00\x00\x00\xfc?H\xe1z\x14\xaeG\t@\x9c\xc4 \xb0rh\xc1?\x00\x00\x00\x00\x00\x00\x00\x00'
p2306
tp2307
bsVmixer
p2308
g21
(g22
(I0
tp2309
g24
tp2310
Rp2311
(I1
(I4
tp2312
g272
I00
S'\n\xd7\xa3p=\n\xfb?ffffff\x02@d;\xdfO\x8d\x97\xee?\x00\x00\x00\x00\x00\x00\x00\x00'
p2313
tp2314
bsVside_wall_1
p2315
g21
(g22
(I0
tp2316
g24
tp2317
Rp2318
(I1
(I4
tp2319
g272
I00
S'\xf4\xff\xff\xff\xff\xff\xfb\xbf\x00\x00\x00\x00\x00\x00\x00\x00\x9c\xc4 \xb0rh\xc1?\x18-DT\xfb!\xf9?'
p2320
tp2321
bsVbottom_wall_1
p2322
g21
(g22
(I0
tp2323
g24
tp2324
Rp2325
(I1
(I4
tp2326
g272
I00
S'H\xe1z\x14\xaeG\x12@\x80\x14\xaeG\xe1z\xc4?\xcc\x7fH\xbf}\x1d\xed?\x00\x00\x00\x00\x00\x00\x00\x00'
p2327
tp2328
bsVcan
p2329
g21
(g22
(I0
tp2330
g24
tp2331
Rp2332
(I1
(I4
tp2333
g272
I00
S'\x00\x00\x00\x00\x00\x00\xf4\xbfH\xe1z\x14\xaeG\xe1\xbf\n\xd7\xa3p=\n\xef?\x00\x00\x00\x00\x00\x00\x00\x00'
p2334
tp2335
bsVright_wall
p2336
g21
(g22
(I0
tp2337
g24
tp2338
Rp2339
(I1
(I4
tp2340
g272
I00
S'\x9a\x99\x99\x99\x99\x99\x07@H\xe1z\x14\xaeG\xff\xbf\x9c\xc4 \xb0rh\xc1?\x00\x00\x00\x00\x00\x00\x00\x00'
p2341
tp2342
bsVcoffe_machine
p2343
g21
(g22
(I0
tp2344
g24
tp2345
Rp2346
(I1
(I4
tp2347
g272
I00
S'\\\x8f\xc2\xf5(\\\xf5\xbf\xb8\x1e\x85\xebQ\xb8\xee?\n\xd7\xa3p=\n\xef?\x00\x00\x00\x00\x00\x00\x00\x00'
p2348
tp2349
bsVcomputer_chair
p2350
g21
(g22
(I0
tp2351
g24
tp2352
Rp2353
(I1
(I4
tp2354
g272
I00
S'\xcd\xcc\xcc\xcc\xcc\xcc\x10@\x00\x00\x00\x00\x00\x00\xf8\xbf\xa00\xb6\x10\xe4\xa9\x95\xbf\x00\x00\x00\x00\x00\x00\x00\x00'
p2355
tp2356
bssS'robot_dof_values'
p2357
g21
(g22
(I0
tp2358
g24
tp2359
Rp2360
(I1
(I39
tp2361
g272
I00
S'\x00\x00\x00\x00\x00\x00\x00\x00\x00\x00\x00\x00\x00\x00\x00\x00\x00\x00\x00\x00\x00\x00\x00\x00\x00\x00\x00\x00\x00\x00\x00\x00\x00\x00\x00\x00\x00\x00\x00\x00\x00\x00\x00\x00\x00\x00\x00\x00\x00\x00\x00\x00\x00\x00\x00\x00\x00\x00\x00\x00\x00\x00\x00\x00\x00\x00\x00\x00\x00\x00\x00\x00\x00\x00\x00\x00\x00\x00\x00\x00\x00\x00\x00\x00\x00\x00\x00\x00\x00\x00\x00\x00\x00\x00\x00\x00@d;\xdfO\x8d\x87?\x00\x00\x00\x00\x00\x00\x00\x00\x00\x00\x00\x00\x00\x00\x00\x00\x00\x00\x00\x00\x00\x00\x00\x00\xeb\xed\t\xf1\xcc\xa4\xf4?\x00\x00\x00\x00\x00\x00\xc0<N"\xd0^p\xf8\x00\xc0\x00\x00\x00\x00\x00\x00\x00\x00\x9b\x03\r.\x04V\xe6\xbfh\x12\x1e\xd0\x7ff\xab\xbc\x00\x00\x00\x00\x00\x00\x00\x00\x00\x00\x00\x00\x00\x80\xd0<\x00\x00\x00\x00\x00\x00\x00\x00\x00\x00\x00\x00\x00\x00\xd6<\x00\x00\x00\x00\x00\x00\x00\x00\x00\x00\x00\x00\x00\x00\x00\x00\xeb\xed\t\xf1\xcc\xa4\xf4?\x00\x00\x00\x00\x00\x00\xb0\xbcN"\xd0^p\xf8\x00\xc0\x00\x00\x00\x00\x00\x00\x00\x00\x9c\x03\r.\x04V\xe6\xbf\x00\x00\x00\x00\x00\x00\x00\x00\xcc9\xe3\xc17\x89\xe1?\x00\x00\x00\x00\x00\x00\xc1<\x00\x00\x00\x00\x00\x00\x00\x00\x00\x00\x00\x00\x00\x00\xf1<\x00\x00\x00\x00\x00\x00\x00\x00'
p2362
tp2363
bsS'is_holding'
p2364
I00
sbsS'holding_collides'
p2365
NsS'parent_ternary_predicates'
p2366
(dp2367
sS'cached_place_paths'
p2368
(dp2369
(g713
g1031
tp2370
(lp2371
g21
(g22
(I0
tp2372
g24
tp2373
Rp2374
(I1
(I3
tp2375
g272
I00
S'\x9e/\xf7\xed\x83f\xf8?\xaf9\x1cn5\xfc\x1c\xc0\x1fB\n\xd8\xe8\xbc\xf9?'
p2376
tp2377
bas(g12
g263
tp2378
(lp2379
g21
(g22
(I0
tp2380
g24
tp2381
Rp2382
(I1
(I3
tp2383
g272
I00
S' \xbf9R\x9d\xde\xda?2\n5\xfb2\x14\x1a\xc0\xfbf\xbc\xff\xc1}\xe5?'
p2384
tp2385
bag21
(g22
(I0
tp2386
g24
tp2387
Rp2388
(I1
(I3
tp2389
g283
I00
S'\xf9\x12\xb0\tah\x9e?\xf5_~\x07\xf1)\x18\xc0\xc0\xbb\x0e\xa5\xa1u\x89?'
p2390
tp2391
bag21
(g22
(I0
tp2392
g24
tp2393
Rp2394
(I1
(I3
tp2395
g283
I00
S'\xff\x1dX8\xbe\xd2\xc9?\x91h\xd1{\x1e(\x16\xc0\xee\xfeSI\xc3\xd4\x03\xc0'
p2396
tp2397
bag21
(g22
(I0
tp2398
g24
tp2399
Rp2400
(I1
(I3
tp2401
g283
I00
S"\xb2&6mg)\xe8?\x99\xe0G'\x16\xe0\x13\xc0\xc8oL\xf5\x17p\xe6\xbf"
p2402
tp2403
bag21
(g22
(I0
tp2404
g24
tp2405
Rp2406
(I1
(I3
tp2407
g283
I00
S'`\xc8Aw-\x81\xeb?/\xc3\xe6O\x04\xca\x10\xc0\x8a\xb7K)\x91{\xe4\xbf'
p2408
tp2409
bag21
(g22
(I0
tp2410
g24
tp2411
Rp2412
(I1
(I3
tp2413
g283
I00
S'\xe1\xc6\xc7\xa7\x12X\xe7?\x98\x99\xb0\x9a\xfb\xdb\x0b\xc0R\t\x1b)\xeae\xe0\xbf'
p2414
tp2415
bag21
(g22
(I0
tp2416
g24
tp2417
Rp2418
(I1
(I3
tp2419
g283
I00
S'p\xf1\xbdc^\x84\xf1?"\x88LL\xf9D\x06\xc0~w\r\xe9m\x0f\x19@'
p2420
tp2421
bas(g425
g263
tp2422
(lp2423
g21
(g22
(I0
tp2424
g24
tp2425
Rp2426
(I1
(I3
tp2427
g272
I00
S'\x0b\xdcw\xb5n\x1b\x0e@3\x7f}\xaa9\x89\x1a\xc0\xc5W#\xda\x072\x11@'
p2428
tp2429
bag21
(g22
(I0
tp2430
g24
tp2431
Rp2432
(I1
(I3
tp2433
g283
I00
S'\x1a\x93i\x05\xaa2\t@a5{\xa3z\xe3\x18\xc0\xcc\x05-\x9f\x13\x12\x05\xc0'
p2434
tp2435
bag21
(g22
(I0
tp2436
g24
tp2437
Rp2438
(I1
(I3
tp2439
g283
I00
S'0\xaf\xd4\xd6]V\x04@\xae\x11\x8b;Ad\x19\xc0\xe0\x95\x12l-L\x03\xc0'
p2440
tp2441
bag21
(g22
(I0
tp2442
g24
tp2443
Rp2444
(I1
(I3
tp2445
g283
I00
S'\xc2Fo\n7\x11\x03@\xb6=Ya.\xe0\x1a\xc0,\x0b\x04&"Y\x07\xc0'
p2446
tp2447
bag21
(g22
(I0
tp2448
g24
tp2449
Rp2450
(I1
(I3
tp2451
g283
I00
S'^\xcd\x14~%\xc5\x03@\xfel\xd3\x16S\xe0\x1d\xc0\x82\x18\xf2;\xe9\xd6\x07\xc0'
p2452
tp2453
bag21
(g22
(I0
tp2454
g24
tp2455
Rp2456
(I1
(I3
tp2457
g283
I00
S'j3^\x1e\x86u\xff?:\xcbg\xab\x92\xaa\x1f\xc0\x05\x95\xa3X\x1c\x93\x07\xc0'
p2458
tp2459
bag21
(g22
(I0
tp2460
g24
tp2461
Rp2462
(I1
(I3
tp2463
g283
I00
S'\xack\x86\xecj\xbe\xf2?\x96O\xb7\x87\x84\x85\x1f\xc0\xfa\x84\x19\xd1\xe3\x0c\x04@'
p2464
tp2465
bag21
(g22
(I0
tp2466
g24
tp2467
Rp2468
(I1
(I3
tp2469
g283
I00
S'\x08\x171\xc6\x9f\xd1\xe4?\xb69P\xb8\xb4\x03\x1e\xc0\x00`"#(A\x05@'
p2470
tp2471
bag21
(g22
(I0
tp2472
g24
tp2473
Rp2474
(I1
(I3
tp2475
g283
I00
S"f'\x1d)\\\x10\xe6?I\x87\x7f\xab\xf9\x9f\x1b\xc0\x90\xd8HX\xe5\x0e\x04@"
p2476
tp2477
bag21
(g22
(I0
tp2478
g24
tp2479
Rp2480
(I1
(I3
tp2481
g283
I00
S'\xc0T\xe2\x97\xaf3h\xbfv\xa30\xd5\xeb\xd1\x1a\xc0\x8a\rz\xc6\xa6z\x04@'
p2482
tp2483
bag21
(g22
(I0
tp2484
g24
tp2485
Rp2486
(I1
(I3
tp2487
g283
I00
S'\x0c\x8b\xaa\xe9\xe8%\xb0\xbf\xf7\x05\x80\xfb=|\x18\xc0X\xd6!\xf5\xa2\x12\x07@'
p2488
tp2489
bag21
(g22
(I0
tp2490
g24
tp2491
Rp2492
(I1
(I3
tp2493
g283
I00
S'\xff\x1dX8\xbe\xd2\xc9?\x91h\xd1{\x1e(\x16\xc0\xee\xfeSI\xc3\xd4\x03\xc0'
p2494
tp2495
bag21
(g22
(I0
tp2496
g24
tp2497
Rp2498
(I1
(I3
tp2499
g283
I00
S"\xb2&6mg)\xe8?\x99\xe0G'\x16\xe0\x13\xc0\xc8oL\xf5\x17p\xe6\xbf"
p2500
tp2501
bag21
(g22
(I0
tp2502
g24
tp2503
Rp2504
(I1
(I3
tp2505
g283
I00
S'`\xc8Aw-\x81\xeb?/\xc3\xe6O\x04\xca\x10\xc0\x8a\xb7K)\x91{\xe4\xbf'
p2506
tp2507
bag21
(g22
(I0
tp2508
g24
tp2509
Rp2510
(I1
(I3
tp2511
g283
I00
S'\xe1\xc6\xc7\xa7\x12X\xe7?\x98\x99\xb0\x9a\xfb\xdb\x0b\xc0R\t\x1b)\xeae\xe0\xbf'
p2512
tp2513
bag21
(g22
(I0
tp2514
g24
tp2515
Rp2516
(I1
(I3
tp2517
g283
I00
S'p\xf1\xbdc^\x84\xf1?"\x88LL\xf9D\x06\xc0~w\r\xe9m\x0f\x19@'
p2518
tp2519
bas(g866
g1031
tp2520
(lp2521
g21
(g22
(I0
tp2522
g24
tp2523
Rp2524
(I1
(I3
tp2525
g272
I00
S'\t\xef1\xa0z \xe0?I\x02Q\xdd\xc0\xf6\x15\xc0\x82=b\x95\x9ff\x16@'
p2526
tp2527
bas(g425
g1031
tp2528
(lp2529
g21
(g22
(I0
tp2530
g24
tp2531
Rp2532
(I1
(I3
tp2533
g272
I00
S'\x08\xdcw\xb5n\x1b\x0e@/\x7f}\xaa9\x89\x1a\xc0\xc4W#\xda\x072\x11@'
p2534
tp2535
bas(g866
g263
tp2536
g377
s(g428
g1031
tp2537
(lp2538
g21
(g22
(I0
tp2539
g24
tp2540
Rp2541
(I1
(I3
tp2542
g272
I00
S'\xd7\x0b.\x98\x94\xdf\xf8?\x91\x92B\xb5\xedj\x17\xc0\xe0M\xc6@U,\xd5?'
p2543
tp2544
bas(g428
g263
tp2545
g332
s(g74
g263
tp2546
(lp2547
g21
(g22
(I0
tp2548
g24
tp2549
Rp2550
(I1
(I3
tp2551
g272
I00
S'\xacN\x1f\xb7g\x0c\xfb?\xffk\x94m\x14\xce\x1f\xc0:\xacu\xb6f\xd7\x00@'
p2552
tp2553
bag21
(g22
(I0
tp2554
g24
tp2555
Rp2556
(I1
(I3
tp2557
g283
I00
S'\xack\x86\xecj\xbe\xf2?\x96O\xb7\x87\x84\x85\x1f\xc0\xfa\x84\x19\xd1\xe3\x0c\x04@'
p2558
tp2559
bag21
(g22
(I0
tp2560
g24
tp2561
Rp2562
(I1
(I3
tp2563
g283
I00
S'\x08\x171\xc6\x9f\xd1\xe4?\xb69P\xb8\xb4\x03\x1e\xc0\x00`"#(A\x05@'
p2564
tp2565
bag21
(g22
(I0
tp2566
g24
tp2567
Rp2568
(I1
(I3
tp2569
g283
I00
S"f'\x1d)\\\x10\xe6?I\x87\x7f\xab\xf9\x9f\x1b\xc0\x90\xd8HX\xe5\x0e\x04@"
p2570
tp2571
bag21
(g22
(I0
tp2572
g24
tp2573
Rp2574
(I1
(I3
tp2575
g283
I00
S'\xc0T\xe2\x97\xaf3h\xbfv\xa30\xd5\xeb\xd1\x1a\xc0\x8a\rz\xc6\xa6z\x04@'
p2576
tp2577
bag21
(g22
(I0
tp2578
g24
tp2579
Rp2580
(I1
(I3
tp2581
g283
I00
S'\x0c\x8b\xaa\xe9\xe8%\xb0\xbf\xf7\x05\x80\xfb=|\x18\xc0X\xd6!\xf5\xa2\x12\x07@'
p2582
tp2583
bag21
(g22
(I0
tp2584
g24
tp2585
Rp2586
(I1
(I3
tp2587
g283
I00
S'\xff\x1dX8\xbe\xd2\xc9?\x91h\xd1{\x1e(\x16\xc0\xee\xfeSI\xc3\xd4\x03\xc0'
p2588
tp2589
bag21
(g22
(I0
tp2590
g24
tp2591
Rp2592
(I1
(I3
tp2593
g283
I00
S"\xb2&6mg)\xe8?\x99\xe0G'\x16\xe0\x13\xc0\xc8oL\xf5\x17p\xe6\xbf"
p2594
tp2595
bag21
(g22
(I0
tp2596
g24
tp2597
Rp2598
(I1
(I3
tp2599
g283
I00
S'`\xc8Aw-\x81\xeb?/\xc3\xe6O\x04\xca\x10\xc0\x8a\xb7K)\x91{\xe4\xbf'
p2600
tp2601
bag21
(g22
(I0
tp2602
g24
tp2603
Rp2604
(I1
(I3
tp2605
g283
I00
S'\xe1\xc6\xc7\xa7\x12X\xe7?\x98\x99\xb0\x9a\xfb\xdb\x0b\xc0R\t\x1b)\xeae\xe0\xbf'
p2606
tp2607
bag21
(g22
(I0
tp2608
g24
tp2609
Rp2610
(I1
(I3
tp2611
g283
I00
S'p\xf1\xbdc^\x84\xf1?"\x88LL\xf9D\x06\xc0~w\r\xe9m\x0f\x19@'
p2612
tp2613
bas(g427
g263
tp2614
(lp2615
g21
(g22
(I0
tp2616
g24
tp2617
Rp2618
(I1
(I3
tp2619
g272
I00
S"\xeb6\x90\xd2'\x1b\n@?,\xfc\x1b\x0b\x0b\x19\xc0\x08\x1a\x94Iv\xca\xeb?"
p2620
tp2621
bag21
(g22
(I0
tp2622
g24
tp2623
Rp2624
(I1
(I3
tp2625
g283
I00
S'\xc3#\x9b"m=\x05@O\x1c\xaf\xffo\x1c\x1b\xc0\xa4\xc19\xdd\xaa\xea\xdd?'
p2626
tp2627
bag21
(g22
(I0
tp2628
g24
tp2629
Rp2630
(I1
(I3
tp2631
g283
I00
S'0\xf2\xd6\x9e\xed\xca\x04@\xdc>\xfd\x07B\x8f\x1d\xc0\xe2\xaf5\x16\xb4\x0c\xda?'
p2632
tp2633
bag21
(g22
(I0
tp2634
g24
tp2635
Rp2636
(I1
(I3
tp2637
g283
I00
S'\xec"\x07y|\x95\x04@x\xc1\xb0\xd0\x1c\xfa\x1f\xc0\x06\x1cYO\xa4+\xd6?'
p2638
tp2639
bag21
(g22
(I0
tp2640
g24
tp2641
Rp2642
(I1
(I3
tp2643
g283
I00
S'&\x0c\x9f\xd5\xa9\xbf\xfc?n\x13\xcb\xbd\xbf\x0b \xc0L\xd8\xef\x1bN\xb4\x00@'
p2644
tp2645
bag21
(g22
(I0
tp2646
g24
tp2647
Rp2648
(I1
(I3
tp2649
g283
I00
S'\xack\x86\xecj\xbe\xf2?\x96O\xb7\x87\x84\x85\x1f\xc0\xfa\x84\x19\xd1\xe3\x0c\x04@'
p2650
tp2651
bag21
(g22
(I0
tp2652
g24
tp2653
Rp2654
(I1
(I3
tp2655
g283
I00
S'\x08\x171\xc6\x9f\xd1\xe4?\xb69P\xb8\xb4\x03\x1e\xc0\x00`"#(A\x05@'
p2656
tp2657
bag21
(g22
(I0
tp2658
g24
tp2659
Rp2660
(I1
(I3
tp2661
g283
I00
S"f'\x1d)\\\x10\xe6?I\x87\x7f\xab\xf9\x9f\x1b\xc0\x90\xd8HX\xe5\x0e\x04@"
p2662
tp2663
bag21
(g22
(I0
tp2664
g24
tp2665
Rp2666
(I1
(I3
tp2667
g283
I00
S'\xc0T\xe2\x97\xaf3h\xbfv\xa30\xd5\xeb\xd1\x1a\xc0\x8a\rz\xc6\xa6z\x04@'
p2668
tp2669
bag21
(g22
(I0
tp2670
g24
tp2671
Rp2672
(I1
(I3
tp2673
g283
I00
S'\x0c\x8b\xaa\xe9\xe8%\xb0\xbf\xf7\x05\x80\xfb=|\x18\xc0X\xd6!\xf5\xa2\x12\x07@'
p2674
tp2675
bag21
(g22
(I0
tp2676
g24
tp2677
Rp2678
(I1
(I3
tp2679
g283
I00
S'\xff\x1dX8\xbe\xd2\xc9?\x91h\xd1{\x1e(\x16\xc0\xee\xfeSI\xc3\xd4\x03\xc0'
p2680
tp2681
bag21
(g22
(I0
tp2682
g24
tp2683
Rp2684
(I1
(I3
tp2685
g283
I00
S"\xb2&6mg)\xe8?\x99\xe0G'\x16\xe0\x13\xc0\xc8oL\xf5\x17p\xe6\xbf"
p2686
tp2687
bag21
(g22
(I0
tp2688
g24
tp2689
Rp2690
(I1
(I3
tp2691
g283
I00
S'`\xc8Aw-\x81\xeb?/\xc3\xe6O\x04\xca\x10\xc0\x8a\xb7K)\x91{\xe4\xbf'
p2692
tp2693
bag21
(g22
(I0
tp2694
g24
tp2695
Rp2696
(I1
(I3
tp2697
g283
I00
S'\xe1\xc6\xc7\xa7\x12X\xe7?\x98\x99\xb0\x9a\xfb\xdb\x0b\xc0R\t\x1b)\xeae\xe0\xbf'
p2698
tp2699
bag21
(g22
(I0
tp2700
g24
tp2701
Rp2702
(I1
(I3
tp2703
g283
I00
S'p\xf1\xbdc^\x84\xf1?"\x88LL\xf9D\x06\xc0~w\r\xe9m\x0f\x19@'
p2704
tp2705
bas(g427
g1031
tp2706
(lp2707
g21
(g22
(I0
tp2708
g24
tp2709
Rp2710
(I1
(I3
tp2711
g272
I00
S"\xea6\x90\xd2'\x1b\n@@,\xfc\x1b\x0b\x0b\x19\xc0\x08\x1a\x94Iv\xca\xeb?"
p2712
tp2713
bas(g12
g1031
tp2714
(lp2715
g21
(g22
(I0
tp2716
g24
tp2717
Rp2718
(I1
(I3
tp2719
g272
I00
S'5\xbf9R\x9d\xde\xda?0\n5\xfb2\x14\x1a\xc0\xfef\xbc\xff\xc1}\xe5?'
p2720
tp2721
bas(g74
g1031
tp2722
(lp2723
g21
(g22
(I0
tp2724
g24
tp2725
Rp2726
(I1
(I3
tp2727
g272
I00
S'\xa0N\x1f\xb7g\x0c\xfb?\xfak\x94m\x14\xce\x1f\xc0:\xacu\xb6f\xd7\x00@'
p2728
tp2729
bas(g426
g1031
tp2730
(lp2731
g21
(g22
(I0
tp2732
g24
tp2733
Rp2734
(I1
(I3
tp2735
g272
I00
S' \xb8u\n\r\xbc\xdd?/\xa8\x8e|\x87\xe8\x1d\xc0\xbfe\xf4K\xee0\x0c@'
p2736
tp2737
bas(g426
g263
tp2738
(lp2739
g21
(g22
(I0
tp2740
g24
tp2741
Rp2742
(I1
(I3
tp2743
g272
I00
S'0\xb8u\n\r\xbc\xdd?5\xa8\x8e|\x87\xe8\x1d\xc0\xbee\xf4K\xee0\x0c@'
p2744
tp2745
bag21
(g22
(I0
tp2746
g24
tp2747
Rp2748
(I1
(I3
tp2749
g283
I00
S'\xda:H\x99\\\xf4\xd7?\x9d\xfe\xfa\xb2d\xee\x1a\xc0\xb9=\xe66\x01\xe0\x07\xc0'
p2750
tp2751
bag21
(g22
(I0
tp2752
g24
tp2753
Rp2754
(I1
(I3
tp2755
g283
I00
S"t\xac\xe0'B-\xb2\xbf\xef\xffB\xd4\xbc\xf8\x18\xc0\x10\x87\xc7\x17U\xf3\x05\xc0"
p2756
tp2757
bag21
(g22
(I0
tp2758
g24
tp2759
Rp2760
(I1
(I3
tp2761
g283
I00
S'\xff\x1dX8\xbe\xd2\xc9?\x91h\xd1{\x1e(\x16\xc0\xee\xfeSI\xc3\xd4\x03\xc0'
p2762
tp2763
bag21
(g22
(I0
tp2764
g24
tp2765
Rp2766
(I1
(I3
tp2767
g283
I00
S"\xb2&6mg)\xe8?\x99\xe0G'\x16\xe0\x13\xc0\xc8oL\xf5\x17p\xe6\xbf"
p2768
tp2769
bag21
(g22
(I0
tp2770
g24
tp2771
Rp2772
(I1
(I3
tp2773
g283
I00
S'`\xc8Aw-\x81\xeb?/\xc3\xe6O\x04\xca\x10\xc0\x8a\xb7K)\x91{\xe4\xbf'
p2774
tp2775
bag21
(g22
(I0
tp2776
g24
tp2777
Rp2778
(I1
(I3
tp2779
g283
I00
S'\xe1\xc6\xc7\xa7\x12X\xe7?\x98\x99\xb0\x9a\xfb\xdb\x0b\xc0R\t\x1b)\xeae\xe0\xbf'
p2780
tp2781
bag21
(g22
(I0
tp2782
g24
tp2783
Rp2784
(I1
(I3
tp2785
g283
I00
S'p\xf1\xbdc^\x84\xf1?"\x88LL\xf9D\x06\xc0~w\r\xe9m\x0f\x19@'
p2786
tp2787
bas(g713
g263
tp2788
g265
ssS'parent_binary_predicates'
p2789
(dp2790
sS'nodes'
p2791
(dp2792
g1034
(lp2793
I0
aI0
aI0
aI0
aI0
aI0
aI00
aI01
aI00
aI01
aI00
asg1031
(lp2794
I0
aI0
aI0
aI0
aI0
aI0
aI00
aI01
aI00
aI01
aI00
asg263
(lp2795
I0
aI0
aI0
aI0
aI0
aI0
aI00
aI01
aI01
aI01
aI00
asg1014
(lp2796
I0
aI0
aI0
ag1763
(g272
S'\x14\xc6\x05#\tR\x0b@'
p2797
tp2798
Rp2799
ag1763
(g272
S';\x97\xdf-\xe6+\x1d\xc0'
p2800
tp2801
Rp2802
ag1763
(g272
S'\xb9\xe8W\xce\xe7\xc0\x11@'
p2803
tp2804
Rp2805
aI01
aI00
aI00
aI01
aI00
asg1002
(lp2806
I0
aI0
aI0
ag1763
(g272
S'|cy\x12\x1fR\xb9\xbf'
p2807
tp2808
Rp2809
ag1763
(g272
S'!!\xd3\x93\xb9\x1f\x1f\xc0'
p2810
tp2811
Rp2812
ag1763
(g272
S'\x1a\xd0h\xd3)\x88\x14@'
p2813
tp2814
Rp2815
aI01
aI00
aI00
aI01
aI00
asg1007
(lp2816
I0
aI0
aI0
ag1763
(g272
S'H\xdd_\x14\x9f/\x0f@'
p2817
tp2818
Rp2819
ag1763
(g272
S'=\x01\xd3\xf8\xa7\x15\x17\xc0'
p2820
tp2821
Rp2822
ag1763
(g272
S'\xf9\xd6\xb1\xbc\xba\x96\xec?'
p2823
tp2824
Rp2825
aI01
aI00
aI00
aI01
aI00
asg262
(lp2826
I0
aI0
aI0
ag1763
(g272
S'g\xc1\xe8\xd8\x8c\xa0\xf9?'
p2827
tp2828
Rp2829
ag1763
(g272
S'\x01\xc6\xa1\xf0l\xef\x19\xc0'
p2830
tp2831
Rp2832
ag1763
(g272
S'[I~5\xf9u\x18@'
p2833
tp2834
Rp2835
aI01
aI00
aI00
aI00
aI00
asg330
(lp2836
I0
aI0
aI0
ag1763
(g272
S'#\x02\xa2>r\xfc\x02@'
p2837
tp2838
Rp2839
ag1763
(g272
S'+\xaf\x81.R\x95\x16\xc0'
p2840
tp2841
Rp2842
ag1763
(g272
S'\xc3\x97\xc4\xf38I\x14@'
p2843
tp2844
Rp2845
aI01
aI00
aI00
aI01
aI00
asg375
(lp2846
I0
aI0
aI0
ag1763
(g272
S"{J'\xcd95\xf5?"
p2847
tp2848
Rp2849
ag1763
(g272
S'\xf6\xcf\xd6JE\xcd\x16\xc0'
p2850
tp2851
Rp2852
ag1763
(g272
S'\xd4\xf3\x85\x93*v\x04@'
p2853
tp2854
Rp2855
aI01
aI00
aI00
aI00
aI00
asg1016
(lp2856
I0
aI0
aI0
ag1763
(g272
S'\xc5(\xb2G\xa53\xf8?'
p2857
tp2858
Rp2859
ag1763
(g272
S'\x06\x982\xa7\xe6\xf1\x1c\xc0'
p2860
tp2861
Rp2862
ag1763
(g272
S'\x1c\xba,\xdd\xd8F\xb0?'
p2863
tp2864
Rp2865
aI01
aI00
aI01
aI01
aI00
asg999
(lp2866
I0
aI0
aI0
ag1763
(g272
S'\x88\x9f\x8a2\xb4c\xe7?'
p2867
tp2868
Rp2869
ag1763
(g272
S'j\xb8]$:C\x17\xc0'
p2870
tp2871
Rp2872
ag1763
(g272
S'\x89\xfd\xaac2X\x10@'
p2873
tp2874
Rp2875
aI01
aI00
aI00
aI01
aI00
assS'mc_place_path'
p2876
(dp2877
sS'parent_state'
p2878
NsS'goal_entities'
p2879
(lp2880
S'square_packing_box1'
p2881
ag263
asS'binary_edges'
p2882
(dp2883
(g330
g999
tp2884
(lp2885
I00
aI00
aI00
as(g330
g1014
tp2886
(lp2887
I00
aI00
aI00
as(g1007
g375
tp2888
(lp2889
I00
aI00
aI00
as(g1007
g1007
tp2890
(lp2891
I00
aI00
aI00
as(g1002
g375
tp2892
(lp2893
I00
aI00
aI00
as(g1002
g1007
tp2894
(lp2895
I00
aI00
aI00
as(g999
g1002
tp2896
(lp2897
I00
aI00
aI00
as(g330
g1016
tp2898
(lp2899
I00
aI00
aI00
as(g262
g1007
tp2900
(lp2901
I00
aI00
aI00
as(g1014
g1014
tp2902
(lp2903
I00
aI00
aI00
as(g1002
g1031
tp2904
(lp2905
g1763
(g28
(S'b1'
p2906
I0
I1
tp2907
Rp2908
(I3
S'|'
p2909
NNNI-1
I-1
I0
tp2910
bS'\x01'
p2911
tp2912
Rp2913
aI00
aI01
as(g1034
g1031
tp2914
(lp2915
I00
aI00
aI00
as(g1014
g999
tp2916
(lp2917
I00
aI00
aI00
as(g1031
g999
tp2918
(lp2919
I00
aI00
aI00
as(g1016
g263
tp2920
(lp2921
I00
aI00
aI01
as(g1034
g1002
tp2922
(lp2923
I00
aI00
aI00
as(g1002
g999
tp2924
(lp2925
I00
aI00
aI00
as(g1007
g1034
tp2926
(lp2927
g2913
aI00
aI00
as(g330
g330
tp2928
(lp2929
I00
aI00
aI00
as(g1031
g330
tp2930
(lp2931
I00
aI00
aI00
as(g375
g1002
tp2932
(lp2933
I00
aI00
aI00
as(g1002
g263
tp2934
(lp2935
I00
aI00
aI01
as(g262
g375
tp2936
(lp2937
I00
aI00
aI00
as(g1014
g262
tp2938
(lp2939
I00
aI00
aI00
as(g1016
g1016
tp2940
(lp2941
I00
aI00
aI00
as(g1002
g1034
tp2942
(lp2943
g2913
aI00
aI00
as(g1031
g1002
tp2944
(lp2945
I00
aI00
aI00
as(g1031
g375
tp2946
(lp2947
I00
aI00
aI00
as(g1031
g1007
tp2948
(lp2949
I00
aI00
aI00
as(g375
g263
tp2950
(lp2951
I00
aI00
aI00
as(g999
g1014
tp2952
(lp2953
I00
aI00
aI00
as(g262
g1014
tp2954
(lp2955
I00
aI00
aI00
as(g375
g262
tp2956
(lp2957
I00
aI00
aI00
as(g1031
g1014
tp2958
(lp2959
I00
aI00
aI00
as(g1034
g263
tp2960
(lp2961
I00
aI00
aI00
as(g1016
g1002
tp2962
(lp2963
I00
aI00
aI00
as(g1014
g375
tp2964
(lp2965
I00
aI00
aI00
as(g1034
g375
tp2966
(lp2967
I00
aI00
aI00
as(g375
g1034
tp2968
(lp2969
g2913
aI00
aI00
as(g1007
g330
tp2970
(lp2971
I00
aI00
aI00
as(g999
g1016
tp2972
(lp2973
I00
aI00
aI00
as(g1007
g1002
tp2974
(lp2975
I00
aI00
aI00
as(g999
g263
tp2976
(lp2977
I00
aI00
aI01
as(g1034
g1034
tp2978
(lp2979
I00
aI00
aI00
as(g375
g1014
tp2980
(lp2981
I00
aI00
aI00
as(g1016
g330
tp2982
(lp2983
I00
aI00
aI00
as(g263
g1016
tp2984
(lp2985
I00
aI00
aI00
as(g262
g1031
tp2986
(lp2987
g2913
aI00
aI01
as(g263
g262
tp2988
(lp2989
I00
aI00
aI00
as(g999
g1007
tp2990
(lp2991
I00
aI00
aI00
as(g1007
g1016
tp2992
(lp2993
I00
aI00
aI00
as(g375
g1031
tp2994
(lp2995
g2913
aI00
aI01
as(g1007
g262
tp2996
(lp2997
I00
aI00
aI00
as(g375
g375
tp2998
(lp2999
I00
aI00
aI00
as(g262
g1002
tp3000
(lp3001
I00
aI00
aI00
as(g1031
g263
tp3002
(lp3003
I00
aI00
aI00
as(g263
g330
tp3004
(lp3005
I00
aI00
aI00
as(g1014
g263
tp3006
(lp3007
I00
aI00
aI01
as(g1034
g262
tp3008
(lp3009
I00
aI00
aI00
as(g263
g999
tp3010
(lp3011
I00
aI00
aI00
as(g1007
g999
tp3012
(lp3013
I00
aI00
aI00
as(g262
g1034
tp3014
(lp3015
g2913
aI00
aI00
as(g999
g1031
tp3016
(lp3017
g2913
aI00
aI01
as(g262
g330
tp3018
(lp3019
I00
aI00
aI00
as(g1014
g1002
tp3020
(lp3021
I00
aI00
aI00
as(g1014
g1031
tp3022
(lp3023
g2913
aI00
aI01
as(g263
g1007
tp3024
(lp3025
I00
aI00
aI00
as(g1034
g999
tp3026
(lp3027
I00
aI00
aI00
as(g1034
g1014
tp3028
(lp3029
I00
aI00
aI00
as(g262
g263
tp3030
(lp3031
I00
aI00
aI00
as(g330
g262
tp3032
(lp3033
I00
aI00
aI00
as(g1016
g262
tp3034
(lp3035
I00
aI01
aI00
as(g263
g375
tp3036
(lp3037
I00
aI00
aI00
as(g1031
g1031
tp3038
(lp3039
I00
aI00
aI00
as(g330
g1007
tp3040
(lp3041
I00
aI00
aI00
as(g1016
g375
tp3042
(lp3043
I00
aI00
aI00
as(g1031
g1016
tp3044
(lp3045
I00
aI00
aI00
as(g1002
g1014
tp3046
(lp3047
I00
aI00
aI00
as(g1031
g262
tp3048
(lp3049
I00
aI00
aI00
as(g1016
g1034
tp3050
(lp3051
g2913
aI00
aI00
as(g330
g1002
tp3052
(lp3053
I00
aI00
aI00
as(g1007
g263
tp3054
(lp3055
I00
aI00
aI01
as(g1016
g1014
tp3056
(lp3057
I00
aI00
aI00
as(g1014
g1016
tp3058
(lp3059
I00
aI00
aI00
as(g1002
g1016
tp3060
(lp3061
I00
aI00
aI00
as(g1034
g330
tp3062
(lp3063
I00
aI00
aI00
as(g1002
g262
tp3064
(lp3065
I00
aI01
aI00
as(g375
g330
tp3066
(lp3067
I00
aI00
aI00
as(g330
g1031
tp3068
(lp3069
g2913
aI00
aI01
as(g262
g262
tp3070
(lp3071
I00
aI00
aI00
as(g999
g330
tp3072
(lp3073
I00
aI00
aI00
as(g1016
g999
tp3074
(lp3075
I00
aI00
aI00
as(g1002
g330
tp3076
(lp3077
I00
aI00
aI00
as(g1002
g1002
tp3078
(lp3079
I00
aI00
aI00
as(g999
g262
tp3080
(lp3081
I00
aI00
aI00
as(g330
g263
tp3082
(lp3083
I00
aI00
aI00
as(g375
g1016
tp3084
(lp3085
I00
aI00
aI00
as(g1007
g1031
tp3086
(lp3087
g2913
aI00
aI01
as(g263
g1002
tp3088
(lp3089
I00
aI00
aI00
as(g262
g1016
tp3090
(lp3091
I00
aI00
aI00
as(g1014
g1007
tp3092
(lp3093
I00
aI00
aI00
as(g263
g1031
tp3094
(lp3095
I00
aI00
aI00
as(g330
g375
tp3096
(lp3097
I00
aI00
aI00
as(g1034
g1007
tp3098
(lp3099
I00
aI00
aI00
as(g330
g1034
tp3100
(lp3101
g2913
aI00
aI00
as(g375
g1007
tp3102
(lp3103
I00
aI00
aI00
as(g263
g263
tp3104
(lp3105
I00
aI00
aI00
as(g262
g999
tp3106
(lp3107
I00
aI00
aI00
as(g1014
g1034
tp3108
(lp3109
g2913
aI00
aI00
as(g999
g1034
tp3110
(lp3111
g2913
aI00
aI00
as(g263
g1034
tp3112
(lp3113
I00
aI00
aI00
as(g263
g1014
tp3114
(lp3115
I00
aI00
aI00
as(g375
g999
tp3116
(lp3117
I00
aI00
aI00
as(g999
g375
tp3118
(lp3119
I00
aI01
aI00
as(g1007
g1014
tp3120
(lp3121
I00
aI00
aI00
as(g1031
g1034
tp3122
(lp3123
I00
aI00
aI00
as(g1016
g1007
tp3124
(lp3125
I00
aI00
aI00
as(g1014
g330
tp3126
(lp3127
I00
aI00
aI00
as(g999
g999
tp3128
(lp3129
I00
aI00
aI00
as(g1016
g1031
tp3130
(lp3131
g2913
aI00
aI01
as(g1034
g1016
tp3132
(lp3133
I00
aI00
aI00
assg423
g424
sS'pick_in_way'
p3134
(itrajectory_representation.predicates.pick_in_way
PickInWay
p3135
(dp3136
g260
(dp3137
g1014
g1605
sg1002
g1636
sg1007
g1643
sg262
g1686
sg330
g1705
sg375
g1742
sg1016
g939
sg999
g968
ssg408
(dp3138
g1014
(lp3139
sg1002
(lp3140
sg1007
(lp3141
sg262
(lp3142
Vrectangular_packing_box2
p3143
aVsquare_packing_box1
p3144
asg330
(lp3145
sg375
(lp3146
Vsquare_packing_box4
p3147
asg1016
(lp3148
sg999
(lp3149
ssg423
(lp3150
g330
ag1002
ag1007
ag999
ag1014
ag1034
ag263
ag1031
ag1016
ag1034
ag263
ag1031
ag1034
ag263
ag1031
ag1034
ag263
ag1031
ag1034
ag263
ag1031
ag1034
ag263
ag1031
ag1034
ag263
ag1031
ag1034
ag263
ag1031
asg429
g430
sg119
(dp3151
sg464
g465
sg989
Nsg995
g465
sg992
(dp3152
sg994
I8
sg1026
I01
sg996
Nsg997
(dp3153
(g330
g999
tp3154
I00
s(g330
g1014
tp3155
I00
s(g1007
g375
tp3156
I00
s(g1007
g1007
tp3157
I00
s(g1002
g375
tp3158
I00
s(g1002
g1007
tp3159
I00
s(g999
g1002
tp3160
I00
s(g330
g1016
tp3161
I00
s(g262
g1007
tp3162
I00
s(g1014
g1014
tp3163
I00
s(g1002
g1031
tp3164
I00
s(g1034
g1031
tp3165
I00
s(g1014
g999
tp3166
I00
s(g1031
g999
tp3167
I00
s(g1016
g263
tp3168
I00
s(g1034
g1002
tp3169
I00
s(g1002
g999
tp3170
I00
s(g1007
g1034
tp3171
I00
s(g330
g330
tp3172
I00
s(g1031
g330
tp3173
I00
s(g375
g1002
tp3174
I00
s(g1002
g263
tp3175
I00
s(g262
g375
tp3176
I00
s(g1014
g262
tp3177
I00
s(g1016
g1016
tp3178
I00
s(g1002
g1034
tp3179
I00
s(g1031
g1002
tp3180
I00
s(g1031
g375
tp3181
I00
s(g1031
g1007
tp3182
I00
s(g375
g263
tp3183
I00
s(g999
g1014
tp3184
I00
s(g262
g1014
tp3185
I00
s(g375
g262
tp3186
I00
s(g1031
g1014
tp3187
I00
s(g1034
g263
tp3188
I00
s(g1016
g1002
tp3189
I00
s(g1014
g375
tp3190
I00
s(g1034
g375
tp3191
I00
s(g375
g1034
tp3192
I00
s(g1007
g330
tp3193
I00
s(g999
g1016
tp3194
I00
s(g1007
g1002
tp3195
I00
s(g999
g263
tp3196
I00
s(g1034
g1034
tp3197
I00
s(g375
g1014
tp3198
I00
s(g1016
g330
tp3199
I00
s(g263
g1016
tp3200
I00
s(g262
g1031
tp3201
I00
s(g263
g262
tp3202
I00
s(g999
g1007
tp3203
I00
s(g1007
g1016
tp3204
I00
s(g375
g1031
tp3205
I00
s(g1007
g262
tp3206
I00
s(g375
g375
tp3207
I00
s(g262
g1002
tp3208
I00
s(g1031
g263
tp3209
I00
s(g263
g330
tp3210
I00
s(g1014
g263
tp3211
I00
s(g1034
g262
tp3212
I00
s(g263
g999
tp3213
I00
s(g1007
g999
tp3214
I00
s(g262
g1034
tp3215
I00
s(g999
g1031
tp3216
I00
s(g262
g330
tp3217
I00
s(g1014
g1002
tp3218
I00
s(g1014
g1031
tp3219
I00
s(g263
g1007
tp3220
I00
s(g1034
g999
tp3221
I00
s(g1034
g1014
tp3222
I00
s(g262
g263
tp3223
I00
s(g330
g262
tp3224
I00
s(g1016
g262
tp3225
I01
s(g263
g375
tp3226
I00
s(g1031
g1031
tp3227
I00
s(g330
g1007
tp3228
I00
s(g1016
g375
tp3229
I00
s(g1031
g1016
tp3230
I00
s(g1002
g1014
tp3231
I00
s(g1031
g262
tp3232
I00
s(g1016
g1034
tp3233
I00
s(g330
g1002
tp3234
I00
s(g1007
g263
tp3235
I00
s(g1016
g1014
tp3236
I00
s(g1014
g1016
tp3237
I00
s(g1002
g1016
tp3238
I00
s(g1034
g330
tp3239
I00
s(g1002
g262
tp3240
I01
s(g375
g330
tp3241
I00
s(g330
g1031
tp3242
I00
s(g262
g262
tp3243
I00
s(g999
g330
tp3244
I00
s(g1016
g999
tp3245
I00
s(g1002
g330
tp3246
I00
s(g1002
g1002
tp3247
I00
s(g999
g262
tp3248
I00
s(g330
g263
tp3249
I00
s(g375
g1016
tp3250
I00
s(g1007
g1031
tp3251
I00
s(g263
g1002
tp3252
I00
s(g262
g1016
tp3253
I00
s(g1014
g1007
tp3254
I00
s(g263
g1031
tp3255
I00
s(g330
g375
tp3256
I00
s(g1034
g1007
tp3257
I00
s(g330
g1034
tp3258
I00
s(g375
g1007
tp3259
I00
s(g263
g263
tp3260
I00
s(g262
g999
tp3261
I00
s(g1014
g1034
tp3262
I00
s(g999
g1034
tp3263
I00
s(g263
g1034
tp3264
I00
s(g263
g1014
tp3265
I00
s(g375
g999
tp3266
I00
s(g999
g375
tp3267
I01
s(g1007
g1014
tp3268
I00
s(g1031
g1034
tp3269
I00
s(g1016
g1007
tp3270
I00
s(g1014
g330
tp3271
I00
s(g999
g999
tp3272
I00
s(g1016
g1031
tp3273
I00
s(g1034
g1016
tp3274
I00
ssg1025
NsbsS'robot_pose'
p3275
g21
(g22
(I0
tp3276
g24
tp3277
Rp3278
(I1
(I1
I3
tp3279
g272
I00
S'r\x19\x01\xc0X_\xe1?\x11|\x99B_.\x1b\xc0T\x04\xb4\xbc\xd6\xd1\x13@'
p3280
tp3281
bsS'is_holding_goal_entity'
p3282
(itrajectory_representation.predicates.is_holding_goal_entity
IsHoldingGoalEntity
p3283
(dp3284
g2879
g2880
sg996
NsbsS'mc_pick_path'
p3285
(dp3286
sS'current_collides'
p3287
g430
sba(itrajectory_representation.shortest_path_pick_and_place_state
ShortestPathPaPState
p3288
(dp3289
g119
(dp3290
g122
(itrajectory_representation.operator
Operator
p3291
(dp3292
g8
I01
sg9
(dp3293
g126
g76
sg11
g121
ssg16
g127
sg18
(dp3294
g20
g21
(g22
(I0
tp3295
g24
tp3296
Rp3297
(I1
(I3
tp3298
g31
I00
S',n\x03l\xb2G\xf3?H\x88\xcdC6r\x01\xc0\x86@\\.\xabD\xf4?'
p3299
tp3300
bssg46
(lp3301
g21
(g22
(I0
tp3302
g24
tp3303
Rp3304
(I1
(I3
tp3305
g31
I00
S'\xb0N\x1f\xb7g\x0c\xfb?\xfek\x94m\x14\xce\x1f\xc0=\xacu\xb6f\xd7\x00@'
p3306
tp3307
bag21
(g22
(I0
tp3308
g24
tp3309
Rp3310
(I1
(I3
tp3311
g60
I00
S'\xack\x86\xecj\xbe\xf2?\x96O\xb7\x87\x84\x85\x1f\xc0\xfa\x84\x19\xd1\xe3\x0c\x04@'
p3312
tp3313
bag21
(g22
(I0
tp3314
g24
tp3315
Rp3316
(I1
(I3
tp3317
g60
I00
S'\x08\x171\xc6\x9f\xd1\xe4?\xb69P\xb8\xb4\x03\x1e\xc0\x00`"#(A\x05@'
p3318
tp3319
bag21
(g22
(I0
tp3320
g24
tp3321
Rp3322
(I1
(I3
tp3323
g60
I00
S"f'\x1d)\\\x10\xe6?I\x87\x7f\xab\xf9\x9f\x1b\xc0\x90\xd8HX\xe5\x0e\x04@"
p3324
tp3325
bag21
(g22
(I0
tp3326
g24
tp3327
Rp3328
(I1
(I3
tp3329
g60
I00
S'\xfe\xcb\x95>\x9aG\xe1?\xc8?\x9f\xd9\xb8\xe7\x19\xc0\xdb\x1a;\xf0\x837\xfe?'
p3330
tp3331
bag21
(g22
(I0
tp3332
g24
tp3333
Rp3334
(I1
(I3
tp3335
g60
I00
S'ib\xa2\x0c9\xe9\xd7?\xca\xcd\xb4=\xe6_\x18\xc0tY\xa4\x97\x8d\xd7\x02@'
p3336
tp3337
bag21
(g22
(I0
tp3338
g24
tp3339
Rp3340
(I1
(I3
tp3341
g60
I00
S'\xe4\x02R\xd9\x08\x8c\xc7?2\xc1\xd4;\xf6\xf3\x15\xc0>\x8c\x8fa?0\xd8?'
p3342
tp3343
bag21
(g22
(I0
tp3344
g24
tp3345
Rp3346
(I1
(I3
tp3347
g60
I00
S'&>c9\x01,\xeb?\xb2\xc2\xf0\x02\xce\x8e\x14\xc0\xd8p\xbb2\x14\xd2\x03@'
p3348
tp3349
bag21
(g22
(I0
tp3350
g24
tp3351
Rp3352
(I1
(I3
tp3353
g60
I00
S'\xc6\x05\xbdtg\xd9\xe2?F\xdf\x9d@\\\xf3\x11\xc0\x1a\xc4.\xbb\xcc\x12\x02@'
p3354
tp3355
bag21
(g22
(I0
tp3356
g24
tp3357
Rp3358
(I1
(I3
tp3359
g60
I00
S'\xe4u**\x0e5\xe9?\xaa\xfd\r\xed\xc4\xf6\r\xc0\x0fDE0\x1f\x0b\xfe?'
p3360
tp3361
bag21
(g22
(I0
tp3362
g24
tp3363
Rp3364
(I1
(I3
tp3365
g60
I00
S'\x06\x11,\xef\x98O\xe7??\x10\x01s=b\t\xc04\x92\xb79o\x8c\x00@'
p3366
tp3367
bag21
(g22
(I0
tp3368
g24
tp3369
Rp3370
(I1
(I3
tp3371
g60
I00
S'\xb0V\x04\n\x9c\xab\xf4?h\xebm\xaf4T\x05\xc0b\xbc8-\x0bw\xf6\xbf'
p3372
tp3373
bag3297
ag3297
asbssg257
(itrajectory_representation.predicates.place_in_way
PlaceInWay
p3374
(dp3375
g260
(dp3376
(g1014
g263
tp3377
(lp3378
g21
(g22
(I0
tp3379
g24
tp3380
Rp3381
(I1
(I3
tp3382
g272
I00
S'\x04\xdcw\xb5n\x1b\x0e@4\x7f}\xaa9\x89\x1a\xc0\xc4W#\xda\x072\x11@'
p3383
tp3384
bag21
(g22
(I0
tp3385
g24
tp3386
Rp3387
(I1
(I3
tp3388
g283
I00
S'\x9c\xd4w\x9c\x04/\t@\x8b\xccu\xcb^\x9d\x18\xc0*\x8aycbt\xf5\xbf'
p3389
tp3390
bag21
(g22
(I0
tp3391
g24
tp3392
Rp3393
(I1
(I3
tp3394
g283
I00
S'\x02:\xde\x84?\xc0\x03@\x16\xfaJE\x8a\x0f\x19\xc0\x13\xc0\x8b\x01\x1d?\xf4\xbf'
p3395
tp3396
bag21
(g22
(I0
tp3397
g24
tp3398
Rp3399
(I1
(I3
tp3400
g283
I00
S'!\x83\xc0\xf3W\x85\xff?\xed\x8f\x90/y\xfd\x16\xc06jP\xfe\x98\xf5\xf4\xbf'
p3401
tp3402
bag21
(g22
(I0
tp3403
g24
tp3404
Rp3405
(I1
(I3
tp3406
g283
I00
S'2Z\xe1\xe97J\xf6?\\\x1e`@2v\x16\xc0\xc4\x0c\xcc\x14<\xf9\xf6\xbf'
p3407
tp3408
bag21
(g22
(I0
tp3409
g24
tp3410
Rp3411
(I1
(I3
tp3412
g283
I00
S'tx\x8as\xa8b\xed?\x9ej\x15\xfa\xf0{\x15\xc0@\xed\x9a-\x9eD\xf2\xbf'
p3413
tp3414
bag21
(g22
(I0
tp3415
g24
tp3416
Rp3417
(I1
(I3
tp3418
g283
I00
S"\xb2&6mg)\xe8?\x99\xe0G'\x16\xe0\x13\xc0\xc8oL\xf5\x17p\xe6\xbf"
p3419
tp3420
bag21
(g22
(I0
tp3421
g24
tp3422
Rp3423
(I1
(I3
tp3424
g283
I00
S'`\xc8Aw-\x81\xeb?/\xc3\xe6O\x04\xca\x10\xc0\x8a\xb7K)\x91{\xe4\xbf'
p3425
tp3426
bag21
(g22
(I0
tp3427
g24
tp3428
Rp3429
(I1
(I3
tp3430
g283
I00
S'\xe1\xc6\xc7\xa7\x12X\xe7?\x98\x99\xb0\x9a\xfb\xdb\x0b\xc0R\t\x1b)\xeae\xe0\xbf'
p3431
tp3432
bag21
(g22
(I0
tp3433
g24
tp3434
Rp3435
(I1
(I3
tp3436
g283
I00
S'p\xf1\xbdc^\x84\xf1?"\x88LL\xf9D\x06\xc0~w\r\xe9m\x0f\x19@'
p3437
tp3438
bas(g1007
g263
tp3439
(lp3440
g21
(g22
(I0
tp3441
g24
tp3442
Rp3443
(I1
(I3
tp3444
g272
I00
S"\xe76\x90\xd2'\x1b\n@A,\xfc\x1b\x0b\x0b\x19\xc0\x08\x1a\x94Iv\xca\xeb?"
p3445
tp3446
bag21
(g22
(I0
tp3447
g24
tp3448
Rp3449
(I1
(I3
tp3450
g283
I00
S'\x19\xdbXU\x9c\xa8\x04@\xe6\xf1\xeb\xae\xcb\x05\x18\xc0\xce\x9cp\x98\xaf*\xeb?'
p3451
tp3452
bag21
(g22
(I0
tp3453
g24
tp3454
Rp3455
(I1
(I3
tp3456
g283
I00
S'/\xe1\x02^.|\x00@\xb8\xae\xc5\xcfF\x16\x17\xc0\xf8\x01)d\xc5\xf9\xe2?'
p3457
tp3458
bag21
(g22
(I0
tp3459
g24
tp3460
Rp3461
(I1
(I3
tp3462
g283
I00
S'\x85\\2\xba\x0b5\xf5?I\r\x06\xd10\xfb\x15\xc0\x9e\x11\xee\xd8\xb9\xd7\xf5?'
p3463
tp3464
bag21
(g22
(I0
tp3465
g24
tp3466
Rp3467
(I1
(I3
tp3468
g283
I00
S'v\xb8^\x85\xa7[\xea?x\xbe\xff2t\x8d\x13\xc0\x88\x85\x8cCyH\xf6?'
p3469
tp3470
bag21
(g22
(I0
tp3471
g24
tp3472
Rp3473
(I1
(I3
tp3474
g283
I00
S'\xc2\xda(e\x83\x1a\xeb?\x8au\x8d3\xa6E\x11\xc0\xb4c\x1b\xed_\xfd\xfa?'
p3475
tp3476
bag21
(g22
(I0
tp3477
g24
tp3478
Rp3479
(I1
(I3
tp3480
g283
I00
S'\xe4u**\x0e5\xe9?\xaa\xfd\r\xed\xc4\xf6\r\xc0\x0fDE0\x1f\x0b\xfe?'
p3481
tp3482
bag21
(g22
(I0
tp3483
g24
tp3484
Rp3485
(I1
(I3
tp3486
g283
I00
S'\x06\x11,\xef\x98O\xe7??\x10\x01s=b\t\xc04\x92\xb79o\x8c\x00@'
p3487
tp3488
bag21
(g22
(I0
tp3489
g24
tp3490
Rp3491
(I1
(I3
tp3492
g283
I00
S'\x92\xaf\xf3P\x96O\xc2?(\xa1:\x8er}\x05\xc0\xd4_\x91\xb3\xffL\x02@'
p3493
tp3494
bas(g999
g263
tp3495
(lp3496
g21
(g22
(I0
tp3497
g24
tp3498
Rp3499
(I1
(I3
tp3500
g272
I00
S'\xbc!\xd3\xc6\xc5\x05\n@\xd590\x8a^#\x1a\xc0\xf3\xe9\xab@\x96\xe2\x05@'
p3501
tp3502
bag21
(g22
(I0
tp3503
g24
tp3504
Rp3505
(I1
(I3
tp3506
g283
I00
S'\xd8\xd6B\xff\x18\xb2\x05@\xf2%;\x9a\xab\xd5\x18\xc0\xce\xc8,\xa0\x8a\x9a\x00@'
p3507
tp3508
bag21
(g22
(I0
tp3509
g24
tp3510
Rp3511
(I1
(I3
tp3512
g283
I00
S'\xf60LV\xe8\x96\x00@\x9aEw{a\xe2\x18\xc0^\xa8\x8a,\xa3\x98\x00@'
p3513
tp3514
bag21
(g22
(I0
tp3515
g24
tp3516
Rp3517
(I1
(I3
tp3518
g283
I00
S'\xe0 ;\x819w\xfd?\xe7\xcc\xc2\xa0\xa5f\x17\xc04\xedq\x1c\x8eK\xfa?'
p3519
tp3520
bag21
(g22
(I0
tp3521
g24
tp3522
Rp3523
(I1
(I3
tp3524
g283
I00
S'\x85\\2\xba\x0b5\xf5?I\r\x06\xd10\xfb\x15\xc0\x9e\x11\xee\xd8\xb9\xd7\xf5?'
p3525
tp3526
bag21
(g22
(I0
tp3527
g24
tp3528
Rp3529
(I1
(I3
tp3530
g283
I00
S'v\xb8^\x85\xa7[\xea?x\xbe\xff2t\x8d\x13\xc0\x88\x85\x8cCyH\xf6?'
p3531
tp3532
bag21
(g22
(I0
tp3533
g24
tp3534
Rp3535
(I1
(I3
tp3536
g283
I00
S'\xc2\xda(e\x83\x1a\xeb?\x8au\x8d3\xa6E\x11\xc0\xb4c\x1b\xed_\xfd\xfa?'
p3537
tp3538
bag21
(g22
(I0
tp3539
g24
tp3540
Rp3541
(I1
(I3
tp3542
g283
I00
S'\xe4u**\x0e5\xe9?\xaa\xfd\r\xed\xc4\xf6\r\xc0\x0fDE0\x1f\x0b\xfe?'
p3543
tp3544
bag21
(g22
(I0
tp3545
g24
tp3546
Rp3547
(I1
(I3
tp3548
g283
I00
S'\x06\x11,\xef\x98O\xe7??\x10\x01s=b\t\xc04\x92\xb79o\x8c\x00@'
p3549
tp3550
bag21
(g22
(I0
tp3551
g24
tp3552
Rp3553
(I1
(I3
tp3554
g283
I00
S'\x92\xaf\xf3P\x96O\xc2?(\xa1:\x8er}\x05\xc0\xd4_\x91\xb3\xffL\x02@'
p3555
tp3556
bas(g262
g263
tp3557
(lp3558
g21
(g22
(I0
tp3559
g24
tp3560
Rp3561
(I1
(I3
tp3562
g272
I00
S'\xa8/\xf7\xed\x83f\xf8?\xad9\x1cn5\xfc\x1c\xc0\x1fB\n\xd8\xe8\xbc\xf9?'
p3563
tp3564
bag21
(g22
(I0
tp3565
g24
tp3566
Rp3567
(I1
(I3
tp3568
g283
I00
S'\xb9\x81\xdfb\xdf\x92\xfe?\x1a\xe3?2\xb6\xec\x1a\xc0B\x1b\x81\xfa\x93C\xfa?'
p3569
tp3570
bag21
(g22
(I0
tp3571
g24
tp3572
Rp3573
(I1
(I3
tp3574
g283
I00
S'{\xe7\xcc\xce\x02,\xf5?\xeb\x85\xf2\xb4\xc9\x08\x19\xc0\xcd\x97\xf6\xcc\xe4z\x00@'
p3575
tp3576
bag21
(g22
(I0
tp3577
g24
tp3578
Rp3579
(I1
(I3
tp3580
g283
I00
S'o\xd6\x82\xea\x7f\xb2\xed?9\xf2C\x0b?\xfd\x16\xc0(?d\xe9@\xb5\x02@'
p3581
tp3582
bag21
(g22
(I0
tp3583
g24
tp3584
Rp3585
(I1
(I3
tp3586
g283
I00
S'&>c9\x01,\xeb?\xb2\xc2\xf0\x02\xce\x8e\x14\xc0\xd8p\xbb2\x14\xd2\x03@'
p3587
tp3588
bag21
(g22
(I0
tp3589
g24
tp3590
Rp3591
(I1
(I3
tp3592
g283
I00
S'\xc6\x05\xbdtg\xd9\xe2?F\xdf\x9d@\\\xf3\x11\xc0\x1a\xc4.\xbb\xcc\x12\x02@'
p3593
tp3594
bag21
(g22
(I0
tp3595
g24
tp3596
Rp3597
(I1
(I3
tp3598
g283
I00
S'3z\xed\x8eN)\xe4?\x0c\x96\xd4\xa2\x0e\xd0\r\xc0\xbd%\xf5{\xe9\xf9\x03@'
p3599
tp3600
bag21
(g22
(I0
tp3601
g24
tp3602
Rp3603
(I1
(I3
tp3604
g283
I00
S'\xaf0\xe9h\xba~\xee?k\xbb\xd8\xd4\xd0g\t\xc09\x9ey\xed\xb06\x06@'
p3605
tp3606
bag21
(g22
(I0
tp3607
g24
tp3608
Rp3609
(I1
(I3
tp3610
g283
I00
S'\xf4\xfdJ\x1a(#\xec?H"\x9cD\x1aE\x05\xc0.\xa9\x0b\x87\xf8\xe1\x02@'
p3611
tp3612
bas(g330
g263
tp3613
(lp3614
g21
(g22
(I0
tp3615
g24
tp3616
Rp3617
(I1
(I3
tp3618
g272
I00
S'\xcf\x0b.\x98\x94\xdf\xf8?\x91\x92B\xb5\xedj\x17\xc0\xdcM\xc6@U,\xd5?'
p3619
tp3620
bag21
(g22
(I0
tp3621
g24
tp3622
Rp3623
(I1
(I3
tp3624
g283
I00
S'N\xcd\xaa\x1e;\x0f\xee?&\xa8j\x7f\xa2\xe5\x17\xc0\xc1rR\xf6\xd1Y\xe0\xbf'
p3625
tp3626
bag21
(g22
(I0
tp3627
g24
tp3628
Rp3629
(I1
(I3
tp3630
g283
I00
S'\xe4\x9e\xb7\xac\xe0!\xeb?\x8a\x83\x10\xb1\xa2\xad\x15\xc0\x9aS\xfbY\xaf\x8f\xd2\xbf'
p3631
tp3632
bag21
(g22
(I0
tp3633
g24
tp3634
Rp3635
(I1
(I3
tp3636
g283
I00
S"\xb2&6mg)\xe8?\x99\xe0G'\x16\xe0\x13\xc0\xc8oL\xf5\x17p\xe6\xbf"
p3637
tp3638
bag21
(g22
(I0
tp3639
g24
tp3640
Rp3641
(I1
(I3
tp3642
g283
I00
S'`\xc8Aw-\x81\xeb?/\xc3\xe6O\x04\xca\x10\xc0\x8a\xb7K)\x91{\xe4\xbf'
p3643
tp3644
bag21
(g22
(I0
tp3645
g24
tp3646
Rp3647
(I1
(I3
tp3648
g283
I00
S'\xe1\xc6\xc7\xa7\x12X\xe7?\x98\x99\xb0\x9a\xfb\xdb\x0b\xc0R\t\x1b)\xeae\xe0\xbf'
p3649
tp3650
bag21
(g22
(I0
tp3651
g24
tp3652
Rp3653
(I1
(I3
tp3654
g283
I00
S'p\xf1\xbdc^\x84\xf1?"\x88LL\xf9D\x06\xc0~w\r\xe9m\x0f\x19@'
p3655
tp3656
bassg408
(dp3657
(g1014
g263
tp3658
(lp3659
Vsquare_packing_box4
p3660
aVrectangular_packing_box1
p3661
aVsquare_packing_box2
p3662
aVsquare_packing_box3
p3663
as(g1007
g263
tp3664
(lp3665
Vsquare_packing_box4
p3666
aVsquare_packing_box2
p3667
aVsquare_packing_box3
p3668
as(g999
g263
tp3669
(lp3670
Vsquare_packing_box2
p3671
aVrectangular_packing_box1
p3672
aVsquare_packing_box3
p3673
as(g262
g263
tp3674
(lp3675
Vsquare_packing_box1
p3676
aVsquare_packing_box2
p3677
aVsquare_packing_box3
p3678
as(g330
g263
tp3679
(lp3680
Vrectangular_packing_box1
p3681
aVsquare_packing_box3
p3682
assg423
(lp3683
Vrectangular_packing_box4
p3684
aVrectangular_packing_box2
p3685
aVsquare_packing_box3
p3686
ag74
asg429
(dp3687
Vrectangular_packing_box4
p3688
g435
sVrectangular_packing_box2
p3689
g439
sVrectangular_packing_box3
p3690
g443
sVrectangular_packing_box1
p3691
g447
sVsquare_packing_box2
p3692
g451
sVsquare_packing_box3
p3693
g455
sVsquare_packing_box1
p3694
g459
sVsquare_packing_box4
p3695
g432
((lp3696
I2
aI3
aI393
aI144
aI288
aI37
aI38
aI39
aI41
aI302
aI561
aI178
aI435
aI309
aI54
aI188
aI62
aI63
aI64
aI577
aI194
aI438
aI376
aI89
aI90
aI219
aI348
aI605
aI611
aI612
aI550
aI114
aI115
aI248
aI379
aI511
atp3697
Rp3698
ssg119
g3290
sg464
(dp3699
g3684
g466
sg3685
g561
sVrectangular_packing_box3
p3700
g634
sVrectangular_packing_box1
p3701
g714
sVsquare_packing_box2
p3702
g793
sg3686
g867
sg74
(itrajectory_representation.operator
Operator
p3703
(dp3704
g8
I01
sg9
(dp3705
g11
g74
ssg16
g931
sg18
(dp3706
g20
g21
(g22
(I0
tp3707
g24
tp3708
Rp3709
(I1
(I3
tp3710
g31
I00
S'\xadN\x1f\xb7g\x0c\xfb?\x01l\x94m\x14\xce\x1f\xc0:\xacu\xb6f\xd7\x00@'
p3711
tp3712
bssg46
(lp3713
g21
(g22
(I0
tp3714
g24
tp3715
Rp3716
(I1
(I3
tp3717
g272
I00
S'\x8eNvI\xdd\xdc\x01@]\xefK6U\xcf\x1b\xc0d\xd1\xff\xbc\x08\xad\xe1?'
p3718
tp3719
bag21
(g22
(I0
tp3720
g24
tp3721
Rp3722
(I1
(I3
tp3723
g283
I00
S'0\xf2\xd6\x9e\xed\xca\x04@\xdc>\xfd\x07B\x8f\x1d\xc0\xe2\xaf5\x16\xb4\x0c\xda?'
p3724
tp3725
bag21
(g22
(I0
tp3726
g24
tp3727
Rp3728
(I1
(I3
tp3729
g283
I00
S'\xbe\x13Y^h\xbd\x02@\xe3\xc2^\xa1\xb6U\x1f\xc0\xb9*7\xddY\x01\x07@'
p3730
tp3731
bag3709
asbsVsquare_packing_box4
p3732
(itrajectory_representation.operator
Operator
p3733
(dp3734
g8
I01
sg9
(dp3735
g469
Vsquare_packing_box4
p3736
ssg16
g471
sg18
(dp3737
g473
(lp3738
g21
(g22
(I0
tp3739
g24
tp3740
Rp3741
(I1
(I3
tp3742
g272
I00
S'\xbc!\xd3\xc6\xc5\x05\n@\xd490\x8a^#\x1a\xc0\xf3\xe9\xab@\x96\xe2\x05@'
p3743
tp3744
bag21
(g22
(I0
tp3745
g24
tp3746
Rp3747
(I1
(I3
tp3748
g272
I00
S'>\xf70\xfau0\x02@6\x1a\x88\xe1m\xf5\x16\xc0y5M\xcaf\xe4\xe9\xbf'
p3749
tp3750
bag21
(g22
(I0
tp3751
g24
tp3752
Rp3753
(I1
(I3
tp3754
g272
I00
S'\x03\x08\x98I\x1a$\x00@\xa28:f\x00\xe8\x1a\xc0\xde\x8e%\xad\xad"\xe2?'
p3755
tp3756
basg493
I00
ssg46
(lp3757
g21
(g22
(I0
tp3758
g24
tp3759
Rp3760
(I1
(I3
tp3761
g272
I00
S'\x18n\x03l\xb2G\xf3?G\x88\xcdC6r\x01\xc0\x83@\\.\xabD\xf4?'
p3762
tp3763
bag21
(g22
(I0
tp3764
g24
tp3765
Rp3766
(I1
(I3
tp3767
g283
I00
S'X91+\xcd0\xe7?\x10t\x86\x8cV\xe3\x05\xc0\xfe\xb2\xd83\xdc\xcb\xee?'
p3768
tp3769
bag21
(g22
(I0
tp3770
g24
tp3771
Rp3772
(I1
(I3
tp3773
g283
I00
S'\xd1\xaa\x15!\x8c\x06\xed?\x8c\xab\xab^w\xe3\t\xc0~&\xcc\xa2\xcbw\xf6?'
p3774
tp3775
bag21
(g22
(I0
tp3776
g24
tp3777
Rp3778
(I1
(I3
tp3779
g283
I00
S'y\xd4\xbc{`\x0b\xf2?\xb0C6m\xb7\xd6\x0e\xc0\xe8\xe2r\xbe\x16{\xf5?'
p3780
tp3781
bag21
(g22
(I0
tp3782
g24
tp3783
Rp3784
(I1
(I3
tp3785
g283
I00
S'\xf3In\x9c \xb1\xee?\x10D/\xcc\x0f}\x11\xc0\xda0\xdf\x1au:\xf0?'
p3786
tp3787
bag21
(g22
(I0
tp3788
g24
tp3789
Rp3790
(I1
(I3
tp3791
g283
I00
S'v\xb8^\x85\xa7[\xea?x\xbe\xff2t\x8d\x13\xc0\x88\x85\x8cCyH\xf6?'
p3792
tp3793
bag21
(g22
(I0
tp3794
g24
tp3795
Rp3796
(I1
(I3
tp3797
g283
I00
S'\x85\\2\xba\x0b5\xf5?I\r\x06\xd10\xfb\x15\xc0\x9e\x11\xee\xd8\xb9\xd7\xf5?'
p3798
tp3799
bag21
(g22
(I0
tp3800
g24
tp3801
Rp3802
(I1
(I3
tp3803
g283
I00
S'\xf5I-\xc1\xee\x1f\xfa?Zc\rx\x9c\n\x18\xc0?_z:D*\x17@'
p3804
tp3805
bag3747
asbssg987
(dp3806
sg989
Nsg990
(lp3807
sg992
(dp3808
sg994
I0
sg995
g3699
sg996
Nsg997
(dp3809
(g330
g999
g263
tp3810
I00
s(g999
g1007
g263
tp3811
I00
s(g1007
g999
g263
tp3812
I01
s(g999
g375
g263
tp3813
I01
s(g999
g1002
g263
tp3814
I00
s(g999
g330
g263
tp3815
I01
s(g262
g999
g263
tp3816
I00
s(g999
g262
g263
tp3817
I01
s(g999
g1014
g263
tp3818
I00
s(g999
g1016
g263
tp3819
I00
s(g1014
g999
g263
tp3820
I01
ssg1025
Nsg1026
I01
sbsg1027
(dp3821
(g1002
g1002
g263
tp3822
g1030
s(g1016
g1031
g1031
tp3823
g1033
s(g1034
g262
g263
tp3824
g1036
s(g330
g999
g1031
tp3825
(lp3826
I00
as(g263
g263
g263
tp3827
g1040
s(g999
g1002
g1031
tp3828
(lp3829
I00
as(g1016
g1007
g263
tp3830
g1044
s(g263
g1014
g263
tp3831
g1046
s(g330
g1016
g263
tp3832
g1048
s(g1007
g1014
g1031
tp3833
g1050
s(g263
g999
g1031
tp3834
(lp3835
I00
as(g330
g1034
g263
tp3836
g1054
s(g1031
g263
g1031
tp3837
g1056
s(g1014
g375
g263
tp3838
g1058
s(g999
g1034
g263
tp3839
(lp3840
I00
as(g330
g262
g1031
tp3841
g1062
s(g375
g1031
g263
tp3842
g1064
s(g1034
g1002
g1031
tp3843
g1066
s(g263
g1034
g263
tp3844
g1068
s(g1002
g1031
g263
tp3845
g1070
s(g375
g1034
g263
tp3846
g1072
s(g1016
g1016
g1031
tp3847
g1074
s(g1031
g999
g1031
tp3848
(lp3849
I00
as(g1034
g1031
g263
tp3850
g1078
s(g1034
g330
g263
tp3851
g1080
s(g1031
g1031
g263
tp3852
g1082
s(g375
g1014
g1031
tp3853
g1084
s(g263
g263
g1031
tp3854
g1086
s(g262
g330
g1031
tp3855
g1088
s(g1002
g999
g263
tp3856
(lp3857
I00
as(g375
g1016
g263
tp3858
g1092
s(g262
g263
g1031
tp3859
g1094
s(g263
g1002
g1031
tp3860
g1096
s(g262
g1007
g1031
tp3861
g1098
s(g1007
g262
g263
tp3862
g1100
s(g1031
g1016
g1031
tp3863
g1102
s(g999
g330
g1031
tp3864
(lp3865
I00
as(g1002
g1002
g1031
tp3866
g1106
s(g1034
g999
g263
tp3867
(lp3868
I00
as(g1031
g263
g263
tp3869
g1110
s(g1014
g1002
g263
tp3870
g1112
s(g263
g1007
g263
tp3871
g1114
s(g330
g262
g263
tp3872
g1116
s(g1007
g999
g263
tp3873
(lp3874
I01
as(g1016
g1007
g1031
tp3875
g1120
s(g375
g330
g263
tp3876
g1122
s(g330
g1016
g1031
tp3877
g1124
s(g330
g1002
g1031
tp3878
g1126
s(g1034
g330
g1031
tp3879
g1128
s(g1031
g1007
g1031
tp3880
g1130
s(g1034
g263
g263
tp3881
g1132
s(g1014
g263
g263
tp3882
g1134
s(g1031
g1034
g263
tp3883
g1136
s(g1002
g999
g1031
tp3884
(lp3885
I00
as(g375
g1002
g1031
tp3886
g1140
s(g375
g375
g263
tp3887
g1142
s(g262
g1007
g263
tp3888
g1144
s(g1034
g1002
g263
tp3889
g1146
s(g262
g1031
g1031
tp3890
g1148
s(g999
g1016
g263
tp3891
(lp3892
I00
as(g1016
g1016
g263
tp3893
g1152
s(g1016
g1014
g263
tp3894
g1154
s(g1014
g1002
g1031
tp3895
g1156
s(g999
g262
g1031
tp3896
(lp3897
I00
as(g375
g1014
g263
tp3898
g1160
s(g262
g330
g263
tp3899
g1162
s(g1002
g262
g1031
tp3900
g1164
s(g262
g263
g263
tp3901
g1166
s(g330
g1002
g263
tp3902
g1168
s(g1002
g375
g263
tp3903
g1170
s(g1007
g262
g1031
tp3904
g1172
s(g263
g330
g1031
tp3905
g1174
s(g1034
g263
g1031
tp3906
g1176
s(g1034
g999
g1031
tp3907
(lp3908
I00
as(g375
g1002
g263
tp3909
g1180
s(g1007
g375
g1031
tp3910
g1182
s(g1002
g1034
g1031
tp3911
g1184
s(g262
g1031
g263
tp3912
g1186
s(g375
g330
g1031
tp3913
g1188
s(g375
g262
g1031
tp3914
g1190
s(g999
g1016
g1031
tp3915
(lp3916
I00
as(g263
g1007
g1031
tp3917
g1194
s(g1034
g375
g1031
tp3918
g1196
s(g1031
g1007
g263
tp3919
g1198
s(g1031
g330
g1031
tp3920
g1200
s(g1002
g262
g263
tp3921
g1202
s(g999
g262
g263
tp3922
(lp3923
I01
as(g1031
g375
g263
tp3924
g1206
s(g1002
g375
g1031
tp3925
g1208
s(g1002
g1014
g1031
tp3926
g1210
s(g1007
g999
g1031
tp3927
(lp3928
I00
as(g1016
g1014
g1031
tp3929
g1214
s(g262
g375
g1031
tp3930
g1216
s(g263
g1016
g1031
tp3931
g1218
s(g1007
g1031
g1031
tp3932
g1220
s(g1014
g263
g1031
tp3933
g1222
s(g1016
g262
g263
tp3934
g1224
s(g1002
g1034
g263
tp3935
g1226
s(g1014
g330
g1031
tp3936
g1228
s(g1007
g1002
g1031
tp3937
g1230
s(g375
g262
g263
tp3938
g1232
s(g999
g1031
g1031
tp3939
(lp3940
I00
as(g330
g263
g263
tp3941
g1236
s(g999
g1014
g263
tp3942
(lp3943
I00
as(g263
g375
g1031
tp3944
g1240
s(g1031
g262
g1031
tp3945
g1242
s(g1031
g375
g1031
tp3946
g1244
s(g1016
g375
g263
tp3947
g1246
s(g262
g375
g263
tp3948
g1248
s(g1016
g262
g1031
tp3949
g1250
s(g1007
g1002
g263
tp3950
g1252
s(g1002
g330
g263
tp3951
g1254
s(g1007
g263
g1031
tp3952
g1256
s(g999
g1031
g263
tp3953
(lp3954
I00
as(g1031
g1014
g1031
tp3955
g1260
s(g1002
g1014
g263
tp3956
g1262
s(g1007
g1007
g263
tp3957
g1264
s(g1014
g1014
g263
tp3958
g1266
s(g1014
g1007
g1031
tp3959
g1268
s(g1007
g1031
g263
tp3960
g1270
s(g375
g999
g263
tp3961
(lp3962
I00
as(g1014
g330
g263
tp3963
g1274
s(g330
g1031
g1031
tp3964
g1276
s(g1007
g1034
g1031
tp3965
g1278
s(g330
g263
g1031
tp3966
g1280
s(g1016
g330
g1031
tp3967
g1282
s(g999
g1014
g1031
tp3968
(lp3969
I00
as(g375
g263
g1031
tp3970
g1286
s(g1007
g263
g263
tp3971
g1288
s(g1031
g1014
g263
tp3972
g1290
s(g262
g262
g263
tp3973
g1292
s(g1031
g999
g263
tp3974
(lp3975
I00
as(g999
g375
g263
tp3976
(lp3977
I01
as(g1016
g1002
g263
tp3978
g1298
s(g1016
g375
g1031
tp3979
g1300
s(g1014
g1016
g1031
tp3980
g1302
s(g263
g330
g263
tp3981
g1304
s(g1034
g1007
g1031
tp3982
g1306
s(g1007
g1016
g263
tp3983
g1308
s(g262
g1034
g263
tp3984
g1310
s(g375
g999
g1031
tp3985
(lp3986
I00
as(g375
g1007
g1031
tp3987
g1314
s(g1014
g262
g263
tp3988
g1316
s(g1002
g330
g1031
tp3989
g1318
s(g1014
g1031
g263
tp3990
g1320
s(g1007
g1034
g263
tp3991
g1322
s(g999
g1007
g1031
tp3992
(lp3993
I00
as(g1002
g1016
g263
tp3994
g1326
s(g375
g1016
g1031
tp3995
g1328
s(g999
g999
g1031
tp3996
(lp3997
I00
as(g1014
g1014
g1031
tp3998
g1332
s(g262
g262
g1031
tp3999
g1334
s(g1016
g999
g1031
tp4000
(lp4001
I00
as(g999
g330
g263
tp4002
(lp4003
I01
as(g1034
g1016
g263
tp4004
g1340
s(g263
g1034
g1031
tp4005
g1342
s(g263
g262
g1031
tp4006
g1344
s(g330
g1031
g263
tp4007
g1346
s(g1016
g1002
g1031
tp4008
g1348
s(g262
g1016
g1031
tp4009
g1350
s(g1007
g1007
g1031
tp4010
g1352
s(g1034
g1007
g263
tp4011
g1354
s(g330
g1007
g1031
tp4012
g1356
s(g262
g1034
g1031
tp4013
g1358
s(g1016
g330
g263
tp4014
g1360
s(g1014
g262
g1031
tp4015
g1362
s(g1014
g1007
g263
tp4016
g1364
s(g999
g1007
g263
tp4017
(lp4018
I00
as(g1016
g263
g1031
tp4019
g1368
s(g330
g375
g263
tp4020
g1370
s(g375
g375
g1031
tp4021
g1372
s(g1014
g1034
g263
tp4022
g1374
s(g1031
g1034
g1031
tp4023
g1376
s(g999
g375
g1031
tp4024
(lp4025
I00
as(g1031
g262
g263
tp4026
g1380
s(g1034
g1034
g1031
tp4027
g1382
s(g1014
g1016
g263
tp4028
g1384
s(g1016
g999
g263
tp4029
(lp4030
I00
as(g1031
g1002
g1031
tp4031
g1388
s(g1007
g1016
g1031
tp4032
g1390
s(g375
g263
g263
tp4033
g1392
s(g1034
g1016
g1031
tp4034
g1394
s(g375
g1007
g263
tp4035
g1396
s(g1007
g330
g263
tp4036
g1398
s(g1014
g1031
g1031
tp4037
g1400
s(g1002
g1016
g1031
tp4038
g1402
s(g262
g1002
g263
tp4039
g1404
s(g1034
g1031
g1031
tp4040
g1406
s(g1031
g1002
g263
tp4041
g1408
s(g1016
g1034
g263
tp4042
g1410
s(g330
g375
g1031
tp4043
g1412
s(g330
g1014
g1031
tp4044
g1414
s(g999
g263
g263
tp4045
(lp4046
I00
as(g1014
g1034
g1031
tp4047
g1418
s(g1014
g999
g263
tp4048
(lp4049
I01
as(g1034
g1014
g1031
tp4050
g1422
s(g263
g262
g263
tp4051
g1424
s(g263
g375
g263
tp4052
g1426
s(g262
g1016
g263
tp4053
g1428
s(g262
g1014
g263
tp4054
g1430
s(g1034
g375
g263
tp4055
g1432
s(g330
g1007
g263
tp4056
g1434
s(g330
g330
g1031
tp4057
g1436
s(g262
g999
g1031
tp4058
(lp4059
I00
as(g999
g263
g1031
tp4060
(lp4061
I00
as(g1002
g263
g263
tp4062
g1442
s(g1016
g263
g263
tp4063
g1444
s(g262
g1002
g1031
tp4064
g1446
s(g999
g1002
g263
tp4065
(lp4066
I00
as(g263
g1031
g263
tp4067
g1450
s(g1034
g1034
g263
tp4068
g1452
s(g1002
g1007
g1031
tp4069
g1454
s(g1016
g1034
g1031
tp4070
g1456
s(g1031
g330
g263
tp4071
g1458
s(g1007
g1014
g263
tp4072
g1460
s(g1034
g1014
g263
tp4073
g1462
s(g1016
g1031
g263
tp4074
g1464
s(g1007
g330
g1031
tp4075
g1466
s(g263
g1016
g263
tp4076
g1468
s(g1034
g262
g1031
tp4077
g1470
s(g999
g1034
g1031
tp4078
(lp4079
I00
as(g330
g330
g263
tp4080
g1474
s(g262
g999
g263
tp4081
(lp4082
I00
as(g375
g1034
g1031
tp4083
g1478
s(g330
g1014
g263
tp4084
g1480
s(g263
g999
g263
tp4085
(lp4086
I00
as(g1007
g375
g263
tp4087
g1484
s(g1014
g999
g1031
tp4088
(lp4089
I00
as(g999
g999
g263
tp4090
(lp4091
I00
as(g262
g1014
g1031
tp4092
g1490
s(g330
g999
g263
tp4093
(lp4094
I00
as(g375
g1031
g1031
tp4095
g1494
s(g263
g1002
g263
tp4096
g1496
s(g1002
g1031
g1031
tp4097
g1498
s(g263
g1014
g1031
tp4098
g1500
s(g1002
g263
g1031
tp4099
g1502
s(g1031
g1031
g1031
tp4100
g1504
s(g330
g1034
g1031
tp4101
g1506
s(g1014
g375
g1031
tp4102
g1508
s(g263
g1031
g1031
tp4103
g1510
s(g1002
g1007
g263
tp4104
g1512
s(g1031
g1016
g263
tp4105
g1514
ssg464
g3699
sg1515
I01
sg1516
(lp4106
S'square_packing_box1'
p4107
aS'rectangular_packing_box1'
p4108
aS'square_packing_box2'
p4109
aS'rectangular_packing_box2'
p4110
aS'square_packing_box3'
p4111
aS'rectangular_packing_box3'
p4112
aS'square_packing_box4'
p4113
aS'rectangular_packing_box4'
p4114
asg996
Nsg1526
Nsg1527
(dp4115
Vrectangular_packing_box4
p4116
g21
(g22
(I0
tp4117
g24
tp4118
Rp4119
(I1
(I1
I3
tp4120
g272
I00
S'\xfd\xc5\x05#\tR\x0b@$\x97\xdf-\xe6+\x1d\xc0\xb9\xe8W\xce\xe7\xc0\x11@'
p4121
tp4122
bsVrectangular_packing_box2
p4123
g21
(g22
(I0
tp4124
g24
tp4125
Rp4126
(I1
(I1
I3
tp4127
g272
I00
S'\x10hy\x12\x1fR\xb9\xbf$!\xd3\x93\xb9\x1f\x1f\xc0\x1a\xd0h\xd3)\x88\x14@'
p4128
tp4129
bsVrectangular_packing_box3
p4130
g21
(g22
(I0
tp4131
g24
tp4132
Rp4133
(I1
(I1
I3
tp4134
g272
I00
S'L\xdd_\x14\x9f/\x0f@@\x01\xd3\xf8\xa7\x15\x17\xc0\xf9\xd6\xb1\xbc\xba\x96\xec?'
p4135
tp4136
bsVrectangular_packing_box1
p4137
g21
(g22
(I0
tp4138
g24
tp4139
Rp4140
(I1
(I1
I3
tp4141
g272
I00
S'f\xc1\xe8\xd8\x8c\xa0\xf9?\xfc\xc5\xa1\xf0l\xef\x19\xc0[I~5\xf9u\x18@'
p4142
tp4143
bsVsquare_packing_box2
p4144
g21
(g22
(I0
tp4145
g24
tp4146
Rp4147
(I1
(I1
I3
tp4148
g272
I00
S'1\x02\xa2>r\xfc\x02@-\xaf\x81.R\x95\x16\xc0\xc3\x97\xc4\xf38I\x14@'
p4149
tp4150
bsVsquare_packing_box3
p4151
g21
(g22
(I0
tp4152
g24
tp4153
Rp4154
(I1
(I1
I3
tp4155
g272
I00
S"|J'\xcd95\xf5?\xdc\xcf\xd6JE\xcd\x16\xc0\xd4\xf3\x85\x93*v\x04@"
p4156
tp4157
bsVsquare_packing_box1
p4158
g21
(g22
(I0
tp4159
g24
tp4160
Rp4161
(I1
(I1
I3
tp4162
g272
I00
S'\xc1(\xb2G\xa53\xf8?\x05\x982\xa7\xe6\xf1\x1c\xc0i\xa8,\xdd\xd8F\xb0?'
p4163
tp4164
bsVsquare_packing_box4
p4165
g21
(g22
(I0
tp4166
g24
tp4167
Rp4168
(I1
(I1
I3
tp4169
g272
I00
S'\x11\x8dy|\xf4\x00\x05@\xd8\xfd\xa0\xa3^)\x19\xc0\xae\xd5\xa6v6\xbc\x0f@'
p4170
tp4171
bssg1585
(lp4172
(g3684
g1031
tp4173
a(g3685
g1031
tp4174
a(g3700
g1031
tp4175
a(g3701
g1031
tp4176
a(g3702
g1031
tp4177
a(g3686
g1031
tp4178
a(g74
g1031
tp4179
a(g3732
g1031
tp4180
a(g3685
g263
tp4181
a(g3686
g263
tp4182
a(g74
g263
tp4183
asg1600
(itrajectory_representation.predicates.in_region
InRegion
p4184
(dp4185
g996
Nsbsg1603
(dp4186
g3684
(lp4187
g21
(g22
(I0
tp4188
g24
tp4189
Rp4190
(I1
(I3
tp4191
g272
I00
S'\x8eNvI\xdd\xdc\x01@]\xefK6U\xcf\x1b\xc0d\xd1\xff\xbc\x08\xad\xe1?'
p4192
tp4193
bag489
asg3685
(lp4194
g21
(g22
(I0
tp4195
g24
tp4196
Rp4197
(I1
(I3
tp4198
g272
I00
S'\x8eNvI\xdd\xdc\x01@]\xefK6U\xcf\x1b\xc0d\xd1\xff\xbc\x08\xad\xe1?'
p4199
tp4200
bag21
(g22
(I0
tp4201
g24
tp4202
Rp4203
(I1
(I3
tp4204
g283
I00
S'\xb9O\xa7Y\x02\x91\x00@\x96d\x95\x0e\xe6\xda\x1e\xc0l\xef\x8e\x11Rk\xeb?'
p4205
tp4206
bag21
(g22
(I0
tp4207
g24
tp4208
Rp4209
(I1
(I3
tp4210
g283
I00
S'&\x0c\x9f\xd5\xa9\xbf\xfc?n\x13\xcb\xbd\xbf\x0b \xc0L\xd8\xef\x1bN\xb4\x00@'
p4211
tp4212
bag21
(g22
(I0
tp4213
g24
tp4214
Rp4215
(I1
(I3
tp4216
g283
I00
S'\xd4\xe5\xfd\xe0%\xcd\xf1?\x13y;\xb31\xa2\x1f\xc0\xae(\xca+\xb2:\x16@'
p4217
tp4218
bag575
asg3700
(lp4219
g21
(g22
(I0
tp4220
g24
tp4221
Rp4222
(I1
(I3
tp4223
g272
I00
S'\x8eNvI\xdd\xdc\x01@]\xefK6U\xcf\x1b\xc0d\xd1\xff\xbc\x08\xad\xe1?'
p4224
tp4225
bag21
(g22
(I0
tp4226
g24
tp4227
Rp4228
(I1
(I3
tp4229
g283
I00
S';\x94\xb3\x9e!v\x07@\xeeQ\x93*@\xfa\x1c\xc0\xfd|\x9b\xb9"Y\x18@'
p4230
tp4231
bag21
(g22
(I0
tp4232
g24
tp4233
Rp4234
(I1
(I3
tp4235
g283
I00
S'\xd3s\x0b\xfa\xdf\xd9\x08@\xc52\xb7\xa7\x86L\x1b\xc0\xca\xe2\x95Rh\xea\xf6?'
p4236
tp4237
bag648
asg3701
(lp4238
g21
(g22
(I0
tp4239
g24
tp4240
Rp4241
(I1
(I3
tp4242
g272
I00
S'\x8eNvI\xdd\xdc\x01@]\xefK6U\xcf\x1b\xc0d\xd1\xff\xbc\x08\xad\xe1?'
p4243
tp4244
bag21
(g22
(I0
tp4245
g24
tp4246
Rp4247
(I1
(I3
tp4248
g283
I00
S'\x80e\xcc\t\x9a\xde\x04@<\x13[@\x0e\xa9\x19\xc0\xca\xb9\x9c\x08\r\xad\xf4?'
p4249
tp4250
bag21
(g22
(I0
tp4251
g24
tp4252
Rp4253
(I1
(I3
tp4254
g283
I00
S'\xb9\x81\xdfb\xdf\x92\xfe?\x1a\xe3?2\xb6\xec\x1a\xc0B\x1b\x81\xfa\x93C\xfa?'
p4255
tp4256
bag722
asg3702
(lp4257
g21
(g22
(I0
tp4258
g24
tp4259
Rp4260
(I1
(I3
tp4261
g272
I00
S'\x8eNvI\xdd\xdc\x01@]\xefK6U\xcf\x1b\xc0d\xd1\xff\xbc\x08\xad\xe1?'
p4262
tp4263
bag21
(g22
(I0
tp4264
g24
tp4265
Rp4266
(I1
(I3
tp4267
g283
I00
S'<|\xa2\xc3\xfag\xfe?Q\xd0\th}W\x1b\xc0\x8b\xe36n\xc16\xce\xbf'
p4268
tp4269
bag21
(g22
(I0
tp4270
g24
tp4271
Rp4272
(I1
(I3
tp4273
g283
I00
S'3\x82\x8a\x8fh\xb2\xf8?\xecMw\xff=$\x19\xc0\x10\x03\x08*\x90Q\x89?'
p4274
tp4275
bag801
asg3686
(lp4276
g21
(g22
(I0
tp4277
g24
tp4278
Rp4279
(I1
(I3
tp4280
g272
I00
S'\x8eNvI\xdd\xdc\x01@]\xefK6U\xcf\x1b\xc0d\xd1\xff\xbc\x08\xad\xe1?'
p4281
tp4282
bag21
(g22
(I0
tp4283
g24
tp4284
Rp4285
(I1
(I3
tp4286
g283
I00
S'\xb9O\xa7Y\x02\x91\x00@\x96d\x95\x0e\xe6\xda\x1e\xc0l\xef\x8e\x11Rk\xeb?'
p4287
tp4288
bag21
(g22
(I0
tp4289
g24
tp4290
Rp4291
(I1
(I3
tp4292
g283
I00
S'&\x0c\x9f\xd5\xa9\xbf\xfc?n\x13\xcb\xbd\xbf\x0b \xc0L\xd8\xef\x1bN\xb4\x00@'
p4293
tp4294
bag21
(g22
(I0
tp4295
g24
tp4296
Rp4297
(I1
(I3
tp4298
g283
I00
S'\xack\x86\xecj\xbe\xf2?\x96O\xb7\x87\x84\x85\x1f\xc0\xfa\x84\x19\xd1\xe3\x0c\x04@'
p4299
tp4300
bag21
(g22
(I0
tp4301
g24
tp4302
Rp4303
(I1
(I3
tp4304
g283
I00
S'\x08\x171\xc6\x9f\xd1\xe4?\xb69P\xb8\xb4\x03\x1e\xc0\x00`"#(A\x05@'
p4305
tp4306
bag21
(g22
(I0
tp4307
g24
tp4308
Rp4309
(I1
(I3
tp4310
g283
I00
S'\x00{\xeeM\xfb\x06\xd8?\xa7W\x1e\xc1\xa5F\x1b\xc0\xd0\xcaV\x8a\x88D\xf6?'
p4311
tp4312
bag887
asg74
g3713
sg3732
(lp4313
g21
(g22
(I0
tp4314
g24
tp4315
Rp4316
(I1
(I3
tp4317
g272
I00
S'\x8eNvI\xdd\xdc\x01@]\xefK6U\xcf\x1b\xc0d\xd1\xff\xbc\x08\xad\xe1?'
p4318
tp4319
bag3753
assg429
(dp4320
(Vsquare_packing_box3
p4321
(g1763
(g272
S'0/\xc0>:5\xf5?'
p4322
tp4323
Rp4324
g1763
(g272
S'\xe8\x9f\xe0bE\xcd\x16\xc0'
p4325
tp4326
Rp4327
g1763
(g272
S'[[x^*v\x04@'
p4328
tp4329
Rp4330
tp4331
tp4332
g455
s(Vrectangular_packing_box1
p4333
(g1763
(g272
S'\xf9\x9e\x91\x08\x8d\xa0\xf9?'
p4334
tp4335
Rp4336
g1763
(g272
S'Ec\xed\xefl\xef\x19\xc0'
p4337
tp4338
Rp4339
g1763
(g272
S'E\xf3\x00\x16\xf9u\x18@'
p4340
tp4341
Rp4342
tp4343
tp4344
g447
s(Vsquare_packing_box4
p4345
(g1763
(g272
S'Y\x14vQ\xf4\x00\x05@'
p4346
tp4347
Rp4348
g1763
(g272
S'\x9a\x08\x1b\x9e^)\x19\xc0'
p4349
tp4350
Rp4351
g1763
(g272
S'\xf0\xc1k\x976\xbc\x0f@'
p4352
tp4353
Rp4354
tp4355
tp4356
g3698
s(Vrectangular_packing_box3
p4357
(g1763
(g272
S'gE\xd4D\x9f/\x0f@'
p4358
tp4359
Rp4360
g1763
(g272
S'W_]\x15\xa8\x15\x17\xc0'
p4361
tp4362
Rp4363
g1763
(g272
S'\x82\xe2\xc7\x98\xbb\x96\xec?'
p4364
tp4365
Rp4366
tp4367
tp4368
g443
s(Vsquare_packing_box1
p4369
(g1763
(g272
S'\x0b*\xaa~\xa53\xf8?'
p4370
tp4371
Rp4372
g1763
(g272
S'\x9c4\r\x8a\xe6\xf1\x1c\xc0'
p4373
tp4374
Rp4375
g1763
(g272
S'8\xa0\xa5+\xd8F\xb0?'
p4376
tp4377
Rp4378
tp4379
tp4380
g459
s(Vrectangular_packing_box2
p4381
(g1763
(g272
S'F\xb2G\xa8\x19R\xb9\xbf'
p4382
tp4383
Rp4384
g1763
(g272
S'\x830\xb7{\xb9\x1f\x1f\xc0'
p4385
tp4386
Rp4387
g1763
(g272
S'\x85"\xdd\xcf)\x88\x14@'
p4388
tp4389
Rp4390
tp4391
tp4392
g439
s(Vsquare_packing_box2
p4393
(g1763
(g272
S'x\xee=\\r\xfc\x02@'
p4394
tp4395
Rp4396
g1763
(g272
S'\xb2G\xa8\x19R\x95\x16\xc0'
p4397
tp4398
Rp4399
g1763
(g272
S'\x01\xdfm\xde8I\x14@'
p4400
tp4401
Rp4402
tp4403
tp4404
g451
s(Vrectangular_packing_box4
p4405
(g1763
(g272
S'\x90\x11P\xe1\x08R\x0b@'
p4406
tp4407
Rp4408
g1763
(g272
S'\x07\xeb\xff\x1c\xe6+\x1d\xc0'
p4409
tp4410
Rp4411
g1763
(g272
S'\xd1[<\xbc\xe7\xc0\x11@'
p4412
tp4413
Rp4414
tp4415
tp4416
g435
ssg1859
(igtamp_utils.utils
CustomStateSaver
p4417
(dp4418
g1862
g21
(g22
(I0
tp4419
g24
tp4420
Rp4421
(I1
(I1
I3
tp4422
g272
I00
S'\x8cNvI\xdd\xdc\x01@^\xefK6U\xcf\x1b\xc0e\xd1\xff\xbc\x08\xad\xe1?'
p4423
tp4424
bsg1869
Nsg1870
g1871
sg1872
I1
sg1527
(dp4425
Vright_wall_1
p4426
g21
(g22
(I0
tp4427
g24
tp4428
Rp4429
(I1
(I4
tp4430
g272
I00
S'H\xe1z\x14\xaeG\x12@&\\\x8f\xc2\xf5(\xd4\xbf\xcc\x7fH\xbf}\x1d\xed?\x00\x00\x00\x00\x00\x00\x00\x00'
p4431
tp4432
bsVc_obst5
p4433
g21
(g22
(I0
tp4434
g24
tp4435
Rp4436
(I1
(I4
tp4437
g272
I00
S"D.\x92\xbd\x0e\x96\x12@\x1a\xe8T^\xcc,\xc4?e\xaa`TR'\xed?\x9fz\xfe\xa8\xa4:\xac?"
p4438
tp4439
bsVentrance_right
p4440
g21
(g22
(I0
tp4441
g24
tp4442
Rp4443
(I1
(I4
tp4444
g272
I00
S'ffffff\n@H\xe1z\x14\xaeG\t\xc0\x9c\xc4 \xb0rh\xc1?\x00\x00\x00\x00\x00\x00\x00\x00'
p4445
tp4446
bsVcomputer_table
p4447
g21
(g22
(I0
tp4448
g24
tp4449
Rp4450
(I1
(I4
tp4451
g272
I00
S'\x00\x00\x00\x00\x00\x00\x13@\x00\x00\x00\x00\x00\x00\xf8\xbf\x96C\x8bl\xe7\xfb\xe7?\xd2!3\x7f|\xd9\x12@'
p4452
tp4453
bsVchair_6b56
p4454
g21
(g22
(I0
tp4455
g24
tp4456
Rp4457
(I1
(I4
tp4458
g272
I00
S'\x93=\n\xd7\xa3p\xf5?[\xe1z\x14\xaeG\xd1?\x00\x00\x00\x00\x00\x00\x00\x00\xd6$\xfaNBm\n@'
p4459
tp4460
bsVsquare_packing_box3
p4461
g21
(g22
(I0
tp4462
g24
tp4463
Rp4464
(I1
(I4
tp4465
g272
I00
S"{J'\xcd95\xf5?\xe2\xcf\xd6JE\xcd\x16\xc0?7\x89A`\xe5\xd8?\xd4\xf3\x85\x93*v\x04@"
p4466
tp4467
bsVsquare_packing_box2
p4468
g21
(g22
(I0
tp4469
g24
tp4470
Rp4471
(I1
(I4
tp4472
g272
I00
S'-\x02\xa2>r\xfc\x02@+\xaf\x81.R\x95\x16\xc0L7\x89A`\xe5\xd8?\xc3\x97\xc4\xf38I\x14@'
p4473
tp4474
bsVtable
p4475
g21
(g22
(I0
tp4476
g24
tp4477
Rp4478
(I1
(I4
tp4479
g272
I00
S'\x7f\xf6#EdX\xed?\xac\xffs\x98//\xc0\xbf\x00\x00\x00\x00\x00\x00\x00\x00\x00\x00\x00\x00\x00\x00\x00\x00'
p4480
tp4481
bsVsquare_packing_box1
p4482
g21
(g22
(I0
tp4483
g24
tp4484
Rp4485
(I1
(I4
tp4486
g272
I00
S'\xc1(\xb2G\xa53\xf8?\x06\x982\xa7\xe6\xf1\x1c\xc0L7\x89A`\xe5\xd8?`\xaa,\xdd\xd8F\xb0?'
p4487
tp4488
bsVback_wall_2
p4489
g21
(g22
(I0
tp4490
g24
tp4491
Rp4492
(I1
(I4
tp4493
g272
I00
S'\xaeG\xe1z\x14.\x13@\x80\x14\xaeG\xe1z\xc4?xX\xa85\xcd\xbb\xf2?\x00\x00\x00\x00\x00\x00\x00\x00'
p4494
tp4495
bsVchair_083c
p4496
g21
(g22
(I0
tp4497
g24
tp4498
Rp4499
(I1
(I4
tp4500
g272
I00
S'\xa4p=\n\xd7\xa3\xe0?333333\xe3\xbf\x00\x00\x00\x00\x00\x00\x00\x00\x00\x00\x00\x00\x00\x00\x00\x00'
p4501
tp4502
bsVback_wall_1
p4503
g21
(g22
(I0
tp4504
g24
tp4505
Rp4506
(I1
(I4
tp4507
g272
I00
S'\xaeG\xe1z\x14.\x13@\x80\x14\xaeG\xe1z\xc4?\xcc\x7fH\xbf}\x1d\xed?\x00\x00\x00\x00\x00\x00\x00\x00'
p4508
tp4509
bsVbottom_wall
p4510
g21
(g22
(I0
tp4511
g24
tp4512
Rp4513
(I1
(I4
tp4514
g272
I00
S'\x00\x00\x00\x00\x00\x00\xfc?\x00\x00\x00\x00\x00\x00\x00\x00\x00\x00\x00\x00\x00\x00\x00\x00\x00\x00\x00\x00\x00\x00\x00\x00'
p4515
tp4516
bsVcup_905a
p4517
g21
(g22
(I0
tp4518
g24
tp4519
Rp4520
(I1
(I4
tp4521
g272
I00
S'\x00\x00\x00\x00\x00\x00\xf0?\x83\xc0\xca\xa1E\xb6\xdb?\x1b/\xdd$\x06\x81\xed?\x00\x00\x00\x00\x00\x00\x00\x00'
p4522
tp4523
bsVplate_496f
p4524
g21
(g22
(I0
tp4525
g24
tp4526
Rp4527
(I1
(I4
tp4528
g272
I00
S"q=\n\xd7\xa3p\xe5?\x9dhW!\xe5'\xdd\xbf\x1b/\xdd$\x06\x81\xed?\x00\x00\x00\x00\x00\x00\x00\x00"
p4529
tp4530
bsVtoaster
p4531
g21
(g22
(I0
tp4532
g24
tp4533
Rp4534
(I1
(I4
tp4535
g272
I00
S')\\\x8f\xc2\xf5(\xf4\xbf\xe0z\x14\xaeG\xe1\xf2\xbf\xb8\x1e\x85\xebQ\xb8\xee?\x89/`\x9b\xf8\x8a\xe4?'
p4536
tp4537
bsVc_obst1
p4538
g21
(g22
(I0
tp4539
g24
tp4540
Rp4541
(I1
(I4
tp4542
g272
I00
S"\xfeV\x99Zu\x90\x12@\xc0\x9feq\xd7\x96\xa8?e\xaa`TR'\xed?\xb4\xbd\x05-\x99\xa0\x03@"
p4543
tp4544
bsVrectangular_packing_box4
p4545
g21
(g22
(I0
tp4546
g24
tp4547
Rp4548
(I1
(I4
tp4549
g272
I00
S'\x02\xc6\x05#\tR\x0b@(\x97\xdf-\xe6+\x1d\xc0^7\x89A`\xe5\xd8?\xb9\xe8W\xce\xe7\xc0\x11@'
p4550
tp4551
bsVmicrowave
p4552
g21
(g22
(I0
tp4553
g24
tp4554
Rp4555
(I1
(I4
tp4556
g272
I00
S'\x9a\x99\x99\x99\x99\x99\xf1\xbf\x00\x00\x00\x00\x00\x00\x00@7\x89A`\xe5\xd0\xee?\x00\x00\x00\x00\x00\x00\x00\x00'
p4557
tp4558
bsVc_obst7
p4559
g21
(g22
(I0
tp4560
g24
tp4561
Rp4562
(I1
(I4
tp4563
g272
I00
S"\xfao'\xbc\xeez\x12@4'^\x8d\x17\x8b\xe0?e\xaa`TR'\xed?\xaa\xf0\xd4\x94\xa3\xc3\x02@"
p4564
tp4565
bsVc_obst6
p4566
g21
(g22
(I0
tp4567
g24
tp4568
Rp4569
(I1
(I4
tp4570
g272
I00
S"\x04\xf7:\xa3\xc8\xfa\x11@\xbc0<\x1f\x9f\xde\xd7?e\xaa`TR'\xed?Bi\x80t_\x89\xda?"
p4571
tp4572
bsVcup_b6af
p4573
g21
(g22
(I0
tp4574
g24
tp4575
Rp4576
(I1
(I4
tp4577
g272
I00
S'R\xb8\x1e\x85\xebQ\xe8?\x9a\x99\x99\x99\x99\x99\xe1?\x1b/\xdd$\x06\x81\xed?\x00\x00\x00\x00\x00\x00\x00\x00'
p4578
tp4579
bsVc_obst4
p4580
g21
(g22
(I0
tp4581
g24
tp4582
Rp4583
(I1
(I4
tp4584
g272
I00
S"?\x1bl\x99\x97E\x12@\xf0\xa0\xb5\x1c\x0c\x01\xb0\xbfe\xaa`TR'\xed?\xf4}>\xa0Z4\x06@"
p4585
tp4586
bsVrectangular_packing_box2
p4587
g21
(g22
(I0
tp4588
g24
tp4589
Rp4590
(I1
(I4
tp4591
g272
I00
S'\xdcfy\x12\x1fR\xb9\xbf#!\xd3\x93\xb9\x1f\x1f\xc0*7\x89A`\xe5\xd8?\x1a\xd0h\xd3)\x88\x14@'
p4592
tp4593
bsVplate_fa76
p4594
g21
(g22
(I0
tp4595
g24
tp4596
Rp4597
(I1
(I4
tp4598
g272
I00
S'=\n\xd7\xa3p=\xf2?\x00\x00\x00\x00\x00\x00\x00\x00\x1b/\xdd$\x06\x81\xed?\x00\x00\x00\x00\x00\x00\x00\x00'
p4599
tp4600
bsVfloorwalls
p4601
g21
(g22
(I0
tp4602
g24
tp4603
Rp4604
(I1
(I4
tp4605
g272
I00
S'\xc7\xcc\xcc\xcc\xcc\xcc\xfc?\x00\x00\x00\x00\x00\x00\x18\xc0H\xe1z\x14\xaeG\xc1?\x16-DT\xfb!\xf9?'
p4606
tp4607
bsVpin_c671
p4608
g21
(g22
(I0
tp4609
g24
tp4610
Rp4611
(I1
(I4
tp4612
g272
I00
S'\xc3\xf5(\\\x8f\xc2\xf1\xbf}?5^\xbaI\x02@\xb8\x1e\x85\xebQ\xb8\xfa?\x00\x00\x00\x00\x00\x00\x00\x00'
p4613
tp4614
bsVc_obst3
p4615
g21
(g22
(I0
tp4616
g24
tp4617
Rp4618
(I1
(I4
tp4619
g272
I00
S"L\xbd\xde*\xd3Q\x12@\x8016\xf0\xfd\xbc\xd4?e\xaa`TR'\xed?\xd8\x83\xaf\x1ar\x92\x11@"
p4620
tp4621
bsVchair_2e39
p4622
g21
(g22
(I0
tp4623
g24
tp4624
Rp4625
(I1
(I4
tp4626
g272
I00
S'\x8efffff\xee?#fffff\xf2\xbf\x00\x00\x00\x00\x00\x00\x00\x00\x07M\xe8QQF\xf3?'
p4627
tp4628
bsVentrance_left
p4629
g21
(g22
(I0
tp4630
g24
tp4631
Rp4632
(I1
(I4
tp4633
g272
I00
S'\x98\x99\x99\x99\x99\x99\xe9\xbfH\xe1z\x14\xaeG\t\xc0\x9c\xc4 \xb0rh\xc1?\x00\x00\x00\x00\x00\x00\x00\x00'
p4634
tp4635
bsVtop_wall_1
p4636
g21
(g22
(I0
tp4637
g24
tp4638
Rp4639
(I1
(I4
tp4640
g272
I00
S'H\xe1z\x14\xaeG\x12@\x80\x14\xaeG\xe1z\xc4?xX\xa85\xcd\xbb\xf2?\x00\x00\x00\x00\x00\x00\x00\x00'
p4641
tp4642
bsVrectangular_packing_box3
p4643
g21
(g22
(I0
tp4644
g24
tp4645
Rp4646
(I1
(I4
tp4647
g272
I00
S'L\xdd_\x14\x9f/\x0f@@\x01\xd3\xf8\xa7\x15\x17\xc0N7\x89A`\xe5\xd8?\xf9\xd6\xb1\xbc\xba\x96\xec?'
p4648
tp4649
bsVshaker
p4650
g21
(g22
(I0
tp4651
g24
tp4652
Rp4653
(I1
(I4
tp4654
g272
I00
S'\n\xd7\xa3p=\n\x01@\x14\xaeG\xe1z\x14\x02@\\\x8f\xc2\xf5(\\\xef?\x00\x00\x00\x00\x00\x00\x00\x00'
p4655
tp4656
bsVc_obst9
p4657
g21
(g22
(I0
tp4658
g24
tp4659
Rp4660
(I1
(I4
tp4661
g272
I00
S"V*\x8f\xfa\x02\x08\x12@5j\xc4\x9aNC\xdc?e\xaa`TR'\xed?\xa5/\xa0\xc9\x1f\x03\x18@"
p4662
tp4663
bsVplate_835a
p4664
g21
(g22
(I0
tp4665
g24
tp4666
Rp4667
(I1
(I4
tp4668
g272
I00
S'\xf6(\\\x8f\xc2\xf5\xf0?\\\x8f\xc2\xf5(\\\xe7\xbf\x1b/\xdd$\x06\x81\xed?\x00\x00\x00\x00\x00\x00\x00\x00'
p4669
tp4670
bsVcup_58a2
p4671
g21
(g22
(I0
tp4672
g24
tp4673
Rp4674
(I1
(I4
tp4675
g272
I00
S'\x85\xebQ\xb8\x1e\x85\xe3?\xcd\xcc\xcc\xcc\xcc\xcc\xdc?\x1b/\xdd$\x06\x81\xed?\x00\x00\x00\x00\x00\x00\x00\x00'
p4676
tp4677
bsVleft_wall_1
p4678
g21
(g22
(I0
tp4679
g24
tp4680
Rp4681
(I1
(I4
tp4682
g272
I00
S'H\xe1z\x14\xaeG\x12@S\xb8\x1e\x85\xebQ\xe4?\xcc\x7fH\xbf}\x1d\xed?\x00\x00\x00\x00\x00\x00\x00\x00'
p4683
tp4684
bsVc_obst2
p4685
g21
(g22
(I0
tp4686
g24
tp4687
Rp4688
(I1
(I4
tp4689
g272
I00
S"\x18T\xc7K\xc0\xfd\x11@\x00\xae0S[\x0b\xb5\xbfe\xaa`TR'\xed?\x0f7\xcc6\x9b\xd9\r@"
p4690
tp4691
bsVsquare_packing_box4
p4692
g21
(g22
(I0
tp4693
g24
tp4694
Rp4695
(I1
(I4
tp4696
g272
I00
S'\x17\x8dy|\xf4\x00\x05@\xdf\xfd\xa0\xa3^)\x19\xc0J7\x89A`\xe5\xd8?\xae\xd5\xa6v6\xbc\x0f@'
p4697
tp4698
bsVrectangular_packing_box1
p4699
g21
(g22
(I0
tp4700
g24
tp4701
Rp4702
(I1
(I4
tp4703
g272
I00
S'f\xc1\xe8\xd8\x8c\xa0\xf9?\xfc\xc5\xa1\xf0l\xef\x19\xc027\x89A`\xe5\xd8?[I~5\xf9u\x18@'
p4704
tp4705
bsVpin_371e
p4706
g21
(g22
(I0
tp4707
g24
tp4708
Rp4709
(I1
(I4
tp4710
g272
I00
S'333333\xf3\xbfffffff\xf6?\xb8\x1e\x85\xebQ\xb8\xee?\x00\x00\x00\x00\x00\x00\x00\x00'
p4711
tp4712
bsVfridge
p4713
g21
(g22
(I0
tp4714
g24
tp4715
Rp4716
(I1
(I4
tp4717
g272
I00
S'\xd7\xa3p=\n\xd7\xeb\xbf\x00\x00\x00\x00\x00\x00\x00\xc0\xcd\xcc\xcc\xcc\xcc\xcc\xf8?\x00\x00\x00\x00\x00\x00\x00\x00'
p4718
tp4719
bsVcup_d441
p4720
g21
(g22
(I0
tp4721
g24
tp4722
Rp4723
(I1
(I4
tp4724
g272
I00
S'\n\xd7\xa3p=\n\xef?\x8f\xc2\xf5(\\\x8f\xe2?\x1b/\xdd$\x06\x81\xed?\x00\x00\x00\x00\x00\x00\x00\x00'
p4725
tp4726
bsVshelf2
p4727
g21
(g22
(I0
tp4728
g24
tp4729
Rp4730
(I1
(I4
tp4731
g272
I00
S'\x00\x00\x00\x00\x00\x00\x0e@\xaeG\xe1z\x14\xae\x07@\x9c\xc4 \xb0rh\xc1?\xd2!3\x7f|\xd9\x12@'
p4732
tp4733
bsVtop_wall_2
p4734
g21
(g22
(I0
tp4735
g24
tp4736
Rp4737
(I1
(I4
tp4738
g272
I00
S'H\xe1z\x14\xaeG\x12@\x80\x14\xaeG\xe1z\xc4?\x16HP\xfc\x18\xf3\xfd?\x00\x00\x00\x00\x00\x00\x00\x00'
p4739
tp4740
bsVc_obst0
p4741
g21
(g22
(I0
tp4742
g24
tp4743
Rp4744
(I1
(I4
tp4745
g272
I00
S"\xdc\xb4#\xc2\xae\xf5\x11@c\xc2\t\xf0a\x06/\xbfe\xaa`TR'\xed?\xaa\xd7\x17\x97QY\x13@"
p4746
tp4747
bsVshelf1
p4748
g21
(g22
(I0
tp4749
g24
tp4750
Rp4751
(I1
(I4
tp4752
g272
I00
S'\x00\x00\x00\x00\x00\x00\x13@\xaeG\xe1z\x14\xae\x07@\x9c\xc4 \xb0rh\xc1?\xd2!3\x7f|\xd9\x12@'
p4753
tp4754
bsVsink
p4755
g21
(g22
(I0
tp4756
g24
tp4757
Rp4758
(I1
(I4
tp4759
g272
I00
S'ffffff\xd6?333333\x01@\x9a\x99\x99\x99\x99\x99\xb9\xbf\x00\x00\x00\x00\x00\x00\x00\x00'
p4760
tp4761
bsVpr2
p4762
g21
(g22
(I0
tp4763
g24
tp4764
Rp4765
(I1
(I4
tp4766
g272
I00
S'\x8dNvI\xdd\xdc\x01@a\xefK6U\xcf\x1b\xc0\x9a_\x94\xa0\xbf\xd0\xc1?e\xd1\xff\xbc\x08\xad\xe1?'
p4767
tp4768
bsVchair_12d0
p4769
g21
(g22
(I0
tp4770
g24
tp4771
Rp4772
(I1
(I4
tp4773
g272
I00
S'^\xd2\x18\xad\xa3\xaa\xdb?Pf\x83L2r\xc6?\x00\x00\x00\x00\x00\x00\x00\x00\xf8\x81\r\x14M\xa6\x17@'
p4774
tp4775
bsVright_wall_2
p4776
g21
(g22
(I0
tp4777
g24
tp4778
Rp4779
(I1
(I4
tp4780
g272
I00
S'H\xe1z\x14\xaeG\x12@&\\\x8f\xc2\xf5(\xd4\xbfxX\xa85\xcd\xbb\xf2?\x00\x00\x00\x00\x00\x00\x00\x00'
p4781
tp4782
bsVknife_block
p4783
g21
(g22
(I0
tp4784
g24
tp4785
Rp4786
(I1
(I4
tp4787
g272
I00
S'R\xb8\x1e\x85\xebQ\xe0\xbfffffff\x02@`\xe5\xd0"\xdb\xf9\xee?\x00\x00\x00\x00\x00\x00\x00\x00'
p4788
tp4789
bsVleft_wall_2
p4790
g21
(g22
(I0
tp4791
g24
tp4792
Rp4793
(I1
(I4
tp4794
g272
I00
S'H\xe1z\x14\xaeG\x12@S\xb8\x1e\x85\xebQ\xe4?xX\xa85\xcd\xbb\xf2?\x00\x00\x00\x00\x00\x00\x00\x00'
p4795
tp4796
bsVleft_wall
p4797
g21
(g22
(I0
tp4798
g24
tp4799
Rp4800
(I1
(I4
tp4801
g272
I00
S'\x9a\x99\x99\x99\x99\x99\x07@H\xe1z\x14\xaeG\xff?\x9c\xc4 \xb0rh\xc1?\x00\x00\x00\x00\x00\x00\x00\x00'
p4802
tp4803
bsVkitchen
p4804
g21
(g22
(I0
tp4805
g24
tp4806
Rp4807
(I1
(I4
tp4808
g272
I00
S'\x00\x00\x00\x00\x00\x00\x00\x00\x00\x00\x00\x00\x00\x00\x00\x00\x00\x00\x00\x00\x00\x00\x00\x00\x00\x00\x00\x00\x00\x00\x00\x00'
p4809
tp4810
bsVtable2
p4811
g21
(g22
(I0
tp4812
g24
tp4813
Rp4814
(I1
(I4
tp4815
g272
I00
S'\x00\x00\x00\x00\x00\x00\x13@\x80\x14\xaeG\xe1z\xc4?S\x96!\x8euq\xec?\xd2!3\x7f|\xd9\x12@'
p4816
tp4817
bsVc_obst8
p4818
g21
(g22
(I0
tp4819
g24
tp4820
Rp4821
(I1
(I4
tp4822
g272
I00
S"w\xbb\x06!3F\x12@\x901k\\\x9f>\xa3?e\xaa`TR'\xed?\xfda\x8fuf?\x18@"
p4823
tp4824
bsVplate_b4e7
p4825
g21
(g22
(I0
tp4826
g24
tp4827
Rp4828
(I1
(I4
tp4829
g272
I00
S'\x14\xaeG\xe1z\x14\xf2\xbf\x14\xaeG\xe1z\x14\x00@=\n\xd7\xa3p=\xf2?\x00\x00\x00\x00\x00\x00\x00\x00'
p4830
tp4831
bsVcooker
p4832
g21
(g22
(I0
tp4833
g24
tp4834
Rp4835
(I1
(I4
tp4836
g272
I00
S'\xaeG\xe1z\x14\xae\xff?\x85\xebQ\xb8\x1e\x85\xfb?\x00\x00\x00\x00\x00\x00\xe8?\x00\x00\x00\x00\x00\x00\x00\x00'
p4837
tp4838
bsVpin_a091
p4839
g21
(g22
(I0
tp4840
g24
tp4841
Rp4842
(I1
(I4
tp4843
g272
I00
S'\xdb\xf9~j\xbct\xf7\xbf)\\\x8f\xc2\xf5(\x02@\xb8\x1e\x85\xebQ\xb8\xfa?\x00\x00\x00\x00\x00\x00\x00\x00'
p4844
tp4845
bsVside_wall_2
p4846
g21
(g22
(I0
tp4847
g24
tp4848
Rp4849
(I1
(I4
tp4850
g272
I00
S'\xd3\xff\xff\xff\xff\xff\x14@\xcd\xff\xff\xff\xffg =\x9c\xc4 \xb0rh\xc1?#-DT\xfb!\xf9?'
p4851
tp4852
bsVside_wall_3
p4853
g21
(g22
(I0
tp4854
g24
tp4855
Rp4856
(I1
(I4
tp4857
g272
I00
S'\x00\x00\x00\x00\x00\x00\xfc?H\xe1z\x14\xaeG\t@\x9c\xc4 \xb0rh\xc1?\x00\x00\x00\x00\x00\x00\x00\x00'
p4858
tp4859
bsVmixer
p4860
g21
(g22
(I0
tp4861
g24
tp4862
Rp4863
(I1
(I4
tp4864
g272
I00
S'\n\xd7\xa3p=\n\xfb?ffffff\x02@d;\xdfO\x8d\x97\xee?\x00\x00\x00\x00\x00\x00\x00\x00'
p4865
tp4866
bsVside_wall_1
p4867
g21
(g22
(I0
tp4868
g24
tp4869
Rp4870
(I1
(I4
tp4871
g272
I00
S'\xa6\xff\xff\xff\xff\xff\xfb\xbf\xa8\xff\xff\xff\xff\xdf\x05\xbd\x9c\xc4 \xb0rh\xc1?#-DT\xfb!\xf9?'
p4872
tp4873
bsVbottom_wall_1
p4874
g21
(g22
(I0
tp4875
g24
tp4876
Rp4877
(I1
(I4
tp4878
g272
I00
S'H\xe1z\x14\xaeG\x12@\x80\x14\xaeG\xe1z\xc4?\xcc\x7fH\xbf}\x1d\xed?\x00\x00\x00\x00\x00\x00\x00\x00'
p4879
tp4880
bsVcan
p4881
g21
(g22
(I0
tp4882
g24
tp4883
Rp4884
(I1
(I4
tp4885
g272
I00
S'\x00\x00\x00\x00\x00\x00\xf4\xbfH\xe1z\x14\xaeG\xe1\xbf\n\xd7\xa3p=\n\xef?\x00\x00\x00\x00\x00\x00\x00\x00'
p4886
tp4887
bsVright_wall
p4888
g21
(g22
(I0
tp4889
g24
tp4890
Rp4891
(I1
(I4
tp4892
g272
I00
S'\x9a\x99\x99\x99\x99\x99\x07@H\xe1z\x14\xaeG\xff\xbf\x9c\xc4 \xb0rh\xc1?\x00\x00\x00\x00\x00\x00\x00\x00'
p4893
tp4894
bsVcoffe_machine
p4895
g21
(g22
(I0
tp4896
g24
tp4897
Rp4898
(I1
(I4
tp4899
g272
I00
S'\\\x8f\xc2\xf5(\\\xf5\xbf\xb8\x1e\x85\xebQ\xb8\xee?\n\xd7\xa3p=\n\xef?\x00\x00\x00\x00\x00\x00\x00\x00'
p4900
tp4901
bsVcomputer_chair
p4902
g21
(g22
(I0
tp4903
g24
tp4904
Rp4905
(I1
(I4
tp4906
g272
I00
S'\xcd\xcc\xcc\xcc\xcc\xcc\x10@\x00\x00\x00\x00\x00\x00\xf8\xbf\xa00\xb6\x10\xe4\xa9\x95\xbf\x00\x00\x00\x00\x00\x00\x00\x00'
p4907
tp4908
bssg2357
g21
(g22
(I0
tp4909
g24
tp4910
Rp4911
(I1
(I39
tp4912
g272
I00
S'\x00\x00\x00\x00\x00\x00\x00\x00\x00\x00\x00\x00\x00\x00\x00\x00\x00\x00\x00\x00\x00\x00\x00\x00\x00\x00\x00\x00\x00\x00\x00\x00\x00\x00\x00\x00\x00\x00\x00\x00\x00\x00\x00\x00\x00\x00\x00\x00\x00\x00\x00\x00\x00\x00\x00\x00\x00\x00\x00\x00\x00\x00\x00\x00\x00\x00\x00\x00\x00\x00\x00\x00\x00\x00\x00\x00\x00\x00\x00\x00\x00\x00\x00\x00\x00\x00\x00\x00\x00\x00\x00\x00\x00\x00\x00\x00@d;\xdfO\x8d\x87?\x00\x00\x00\x00\x00\x00\x00\x00\x00\x00\x00\x00\x00\x00\x00\x00\x00\x00\x00\x00\x00\x00\x00\x00\xea\xed\t\xf1\xcc\xa4\xf4?\x00\x00\x00\x00\x00\x00\xc0<M"\xd0^p\xf8\x00\xc0\x00\x00\x00\x00\x00\x00\x00\x00\xa3\x03\r.\x04V\xe6\xbf\x00\x00\x00\x00\x00\x00\x00\x00\x00\x00\x00\x00\x00\x00\x00\x00\x00\x00\x00\x00\x00 \xf4<\x10H\x17\x80\x946\xb5<\x00\x00\x00\x00\x00\x00\x10=\x00\x00\x00\x00\x00\x00\x00\x00\x00\x00\x00\x00\x00\x00\x00\x00\xea\xed\t\xf1\xcc\xa4\xf4?\x00\x00\x00\x00\x00\x00\xb0<M"\xd0^p\xf8\x00\xc0\x00\x00\x00\x00\x00\x00\x00\x00\xa0\x03\r.\x04V\xe6\xbf\x00\x00\x00\x00\x00\x00\x00\x00\x9d9\xe3\xc17\x89\xe1?\x00\x00\x00\x00\x00 \xff<\x00\x00\x00\x00\x00\x00\x00\x00\x00\x00\x00\x00\x00\x00\xf8<\x00\x00\x00\x00\x00\x00\x00\x00'
p4913
tp4914
bsg2364
I00
sbsg2365
Nsg2366
(dp4915
(g1002
g1002
g263
tp4916
g1030
s(g1016
g1031
g1031
tp4917
g1033
s(g1034
g262
g263
tp4918
g1036
s(g375
g1016
g263
tp4919
g1092
s(g375
g263
g263
tp4920
g1392
s(g263
g263
g263
tp4921
g1040
s(g263
g1007
g263
tp4922
g1114
s(g1016
g1007
g263
tp4923
g1044
s(g263
g1014
g263
tp4924
g1046
s(g330
g1016
g263
tp4925
g1048
s(g330
g1007
g1031
tp4926
g1356
s(g1034
g1014
g263
tp4927
g1462
s(g330
g1034
g263
tp4928
g1054
s(g1031
g263
g1031
tp4929
g1056
s(g1014
g375
g263
tp4930
g1058
s(g330
g262
g1031
tp4931
g1062
s(g375
g1031
g263
tp4932
g1064
s(g1034
g1002
g1031
tp4933
g1066
s(g1002
g1031
g263
tp4934
g1070
s(g1002
g1014
g1031
tp4935
g1210
s(g1016
g1016
g1031
tp4936
g1074
s(g1034
g330
g263
tp4937
g1080
s(g1031
g1031
g263
tp4938
g1082
s(g375
g1014
g1031
tp4939
g1084
s(g263
g263
g1031
tp4940
g1086
s(g262
g330
g1031
tp4941
g1088
s(g1031
g1034
g1031
tp4942
g1376
s(g1007
g375
g1031
tp4943
g1182
s(g262
g263
g1031
tp4944
g1094
s(g1002
g1007
g1031
tp4945
g1454
s(g262
g1007
g1031
tp4946
g1098
s(g1007
g262
g263
tp4947
g1100
s(g1031
g1016
g1031
tp4948
g1102
s(g1002
g1002
g1031
tp4949
g1106
s(g1031
g330
g263
tp4950
g1458
s(g1031
g263
g263
tp4951
g1110
s(g1014
g1002
g263
tp4952
g1112
s(g330
g262
g263
tp4953
g1116
s(g1016
g1007
g1031
tp4954
g1120
s(g375
g330
g263
tp4955
g1122
s(g330
g1016
g1031
tp4956
g1124
s(g330
g1002
g1031
tp4957
g1126
s(g1034
g330
g1031
tp4958
g1128
s(g1031
g1007
g1031
tp4959
g1130
s(g1034
g263
g263
tp4960
g1132
s(g1031
g1034
g263
tp4961
g1136
s(g375
g1002
g1031
tp4962
g1140
s(g262
g375
g1031
tp4963
g1216
s(g262
g1007
g263
tp4964
g1144
s(g1034
g1002
g263
tp4965
g1146
s(g1034
g375
g1031
tp4966
g1196
s(g1016
g1016
g263
tp4967
g1152
s(g1016
g1014
g263
tp4968
g1154
s(g1014
g1002
g1031
tp4969
g1156
s(g375
g1014
g263
tp4970
g1160
s(g262
g330
g263
tp4971
g1162
s(g1002
g262
g1031
tp4972
g1164
s(g262
g263
g263
tp4973
g1166
s(g330
g1002
g263
tp4974
g1168
s(g1002
g375
g263
tp4975
g1170
s(g1007
g262
g1031
tp4976
g1172
s(g1034
g263
g1031
tp4977
g1176
s(g1031
g330
g1031
tp4978
g1200
s(g375
g1002
g263
tp4979
g1180
s(g1031
g262
g263
tp4980
g1380
s(g1002
g1034
g1031
tp4981
g1184
s(g262
g1031
g263
tp4982
g1186
s(g375
g330
g1031
tp4983
g1188
s(g375
g262
g1031
tp4984
g1190
s(g262
g1031
g1031
tp4985
g1148
s(g1031
g1007
g263
tp4986
g1198
s(g1002
g262
g263
tp4987
g1202
s(g1031
g375
g263
tp4988
g1206
s(g263
g330
g1031
tp4989
g1174
s(g375
g1034
g263
tp4990
g1072
s(g1016
g1014
g1031
tp4991
g1214
s(g375
g375
g263
tp4992
g1142
s(g330
g330
g263
tp4993
g1474
s(g1007
g1031
g1031
tp4994
g1220
s(g1016
g262
g263
tp4995
g1224
s(g1002
g1034
g263
tp4996
g1226
s(g1014
g330
g1031
tp4997
g1228
s(g1007
g1002
g1031
tp4998
g1230
s(g375
g262
g263
tp4999
g1232
s(g330
g263
g263
tp5000
g1236
s(g1031
g262
g1031
tp5001
g1242
s(g1031
g375
g1031
tp5002
g1244
s(g1016
g375
g263
tp5003
g1246
s(g1034
g1031
g263
tp5004
g1078
s(g1016
g262
g1031
tp5005
g1250
s(g1007
g1002
g263
tp5006
g1252
s(g1002
g330
g263
tp5007
g1254
s(g1007
g263
g1031
tp5008
g1256
s(g1016
g375
g1031
tp5009
g1300
s(g1031
g1014
g1031
tp5010
g1260
s(g1002
g1014
g263
tp5011
g1262
s(g330
g1014
g263
tp5012
g1480
s(g1014
g1014
g263
tp5013
g1266
s(g1014
g1007
g1031
tp5014
g1268
s(g1007
g1031
g263
tp5015
g1270
s(g1014
g330
g263
tp5016
g1274
s(g330
g1031
g1031
tp5017
g1276
s(g1007
g1034
g1031
tp5018
g1278
s(g330
g263
g1031
tp5019
g1280
s(g1016
g330
g1031
tp5020
g1282
s(g375
g263
g1031
tp5021
g1286
s(g1007
g263
g263
tp5022
g1288
s(g1031
g1014
g263
tp5023
g1290
s(g262
g262
g263
tp5024
g1292
s(g1016
g1002
g263
tp5025
g1298
s(g263
g1034
g263
tp5026
g1068
s(g1014
g1016
g1031
tp5027
g1302
s(g263
g330
g263
tp5028
g1304
s(g1034
g1007
g1031
tp5029
g1306
s(g1007
g1016
g263
tp5030
g1308
s(g262
g1034
g263
tp5031
g1310
s(g375
g1007
g1031
tp5032
g1314
s(g1014
g262
g263
tp5033
g1316
s(g263
g375
g1031
tp5034
g1240
s(g1014
g1031
g263
tp5035
g1320
s(g1007
g1034
g263
tp5036
g1322
s(g1002
g330
g1031
tp5037
g1318
s(g1007
g375
g263
tp5038
g1484
s(g1014
g1014
g1031
tp5039
g1332
s(g262
g262
g1031
tp5040
g1334
s(g1034
g1016
g263
tp5041
g1340
s(g263
g1034
g1031
tp5042
g1342
s(g263
g262
g1031
tp5043
g1344
s(g330
g1031
g263
tp5044
g1346
s(g1016
g1002
g1031
tp5045
g1348
s(g262
g1016
g1031
tp5046
g1350
s(g330
g1014
g1031
tp5047
g1414
s(g1034
g1007
g263
tp5048
g1354
s(g1002
g1016
g263
tp5049
g1326
s(g1007
g1014
g1031
tp5050
g1050
s(g262
g1034
g1031
tp5051
g1358
s(g1016
g330
g263
tp5052
g1360
s(g1014
g262
g1031
tp5053
g1362
s(g1002
g1031
g1031
tp5054
g1498
s(g1007
g1014
g263
tp5055
g1460
s(g1016
g263
g1031
tp5056
g1368
s(g330
g375
g263
tp5057
g1370
s(g262
g375
g263
tp5058
g1248
s(g1014
g1034
g263
tp5059
g1374
s(g1034
g1034
g1031
tp5060
g1382
s(g1014
g1016
g263
tp5061
g1384
s(g1034
g1014
g1031
tp5062
g1422
s(g1007
g1016
g1031
tp5063
g1390
s(g1014
g263
g1031
tp5064
g1222
s(g1034
g1016
g1031
tp5065
g1394
s(g375
g1007
g263
tp5066
g1396
s(g1007
g330
g263
tp5067
g1398
s(g1014
g1031
g1031
tp5068
g1400
s(g1002
g1016
g1031
tp5069
g1402
s(g262
g1002
g263
tp5070
g1404
s(g1034
g1031
g1031
tp5071
g1406
s(g1016
g1034
g263
tp5072
g1410
s(g330
g375
g1031
tp5073
g1412
s(g1007
g1007
g1031
tp5074
g1352
s(g375
g375
g1031
tp5075
g1372
s(g1031
g1002
g1031
tp5076
g1388
s(g263
g262
g263
tp5077
g1424
s(g263
g375
g263
tp5078
g1426
s(g262
g1014
g263
tp5079
g1430
s(g262
g1016
g263
tp5080
g1428
s(g1002
g375
g1031
tp5081
g1208
s(g1034
g375
g263
tp5082
g1432
s(g330
g1007
g263
tp5083
g1434
s(g330
g330
g1031
tp5084
g1436
s(g1002
g263
g263
tp5085
g1442
s(g1016
g263
g263
tp5086
g1444
s(g262
g1002
g1031
tp5087
g1446
s(g1014
g1034
g1031
tp5088
g1418
s(g263
g1007
g1031
tp5089
g1194
s(g263
g1031
g263
tp5090
g1450
s(g1034
g1034
g263
tp5091
g1452
s(g263
g1002
g1031
tp5092
g1096
s(g1016
g1034
g1031
tp5093
g1456
s(g1014
g263
g263
tp5094
g1134
s(g1031
g1002
g263
tp5095
g1408
s(g1016
g1031
g263
tp5096
g1464
s(g1007
g330
g1031
tp5097
g1466
s(g263
g1016
g263
tp5098
g1468
s(g1034
g262
g1031
tp5099
g1470
s(g263
g1016
g1031
tp5100
g1218
s(g375
g1034
g1031
tp5101
g1478
s(g1007
g1007
g263
tp5102
g1264
s(g262
g1014
g1031
tp5103
g1490
s(g375
g1016
g1031
tp5104
g1328
s(g375
g1031
g1031
tp5105
g1494
s(g1002
g1007
g263
tp5106
g1512
s(g1014
g1007
g263
tp5107
g1364
s(g263
g1014
g1031
tp5108
g1500
s(g1002
g263
g1031
tp5109
g1502
s(g1031
g1031
g1031
tp5110
g1504
s(g330
g1034
g1031
tp5111
g1506
s(g1014
g375
g1031
tp5112
g1508
s(g263
g1031
g1031
tp5113
g1510
s(g263
g1002
g263
tp5114
g1496
s(g1031
g1016
g263
tp5115
g1514
ssg2368
(dp5116
(g3701
g1031
tp5117
(lp5118
g21
(g22
(I0
tp5119
g24
tp5120
Rp5121
(I1
(I3
tp5122
g272
I00
S'\xa3/\xf7\xed\x83f\xf8?\xab9\x1cn5\xfc\x1c\xc0 B\n\xd8\xe8\xbc\xf9?'
p5123
tp5124
bas(g3732
g263
tp5125
g3496
s(g3684
g263
tp5126
g3378
s(g3686
g1031
tp5127
(lp5128
g21
(g22
(I0
tp5129
g24
tp5130
Rp5131
(I1
(I3
tp5132
g272
I00
S'\xf9\xee1\xa0z \xe0?J\x02Q\xdd\xc0\xf6\x15\xc0\x82=b\x95\x9ff\x16@'
p5133
tp5134
bas(g3684
g1031
tp5135
(lp5136
g21
(g22
(I0
tp5137
g24
tp5138
Rp5139
(I1
(I3
tp5140
g272
I00
S'\x07\xdcw\xb5n\x1b\x0e@0\x7f}\xaa9\x89\x1a\xc0\xc4W#\xda\x072\x11@'
p5141
tp5142
bas(g3686
g263
tp5143
(lp5144
g21
(g22
(I0
tp5145
g24
tp5146
Rp5147
(I1
(I3
tp5148
g272
I00
S'\x10\xef1\xa0z \xe0?H\x02Q\xdd\xc0\xf6\x15\xc0\x82=b\x95\x9ff\x16@'
p5149
tp5150
bag21
(g22
(I0
tp5151
g24
tp5152
Rp5153
(I1
(I3
tp5154
g283
I00
S'l[\xc4\x16<\xe6\xe9?\xa6\xa0\x90\x84X\x9f\x13\xc0\xc2\xd74Q\x00\xaf\xff\xbf'
p5155
tp5156
bag21
(g22
(I0
tp5157
g24
tp5158
Rp5159
(I1
(I3
tp5160
g283
I00
S"\xaeJ\xbd\x1936\xec?\x04\x13\xd4'\x9f\x88\x10\xc0\x805qo\xb6\xe6\xff\xbf"
p5161
tp5162
bag21
(g22
(I0
tp5163
g24
tp5164
Rp5165
(I1
(I3
tp5166
g283
I00
S'\xf09\xb6\x1c*\x86\xee?\xc4\n/\x96\xcb\xe3\n\xc0\xa0\xc9\xd6F6\x0f\x00\xc0'
p5167
tp5168
bag21
(g22
(I0
tp5169
g24
tp5170
Rp5171
(I1
(I3
tp5172
g283
I00
S'3\xe9\xaf\x05T\x89\xe7?+~\xcb\xd3\x15\xc7\x04\xc0x6(d5\xed\x07@'
p5173
tp5174
bas(g3702
g1031
tp5175
(lp5176
g21
(g22
(I0
tp5177
g24
tp5178
Rp5179
(I1
(I3
tp5180
g272
I00
S'\xce\x0b.\x98\x94\xdf\xf8?\x92\x92B\xb5\xedj\x17\xc0\xe0M\xc6@U,\xd5?'
p5181
tp5182
bas(g3702
g263
tp5183
g3614
s(g74
g263
tp5184
(lp5185
g21
(g22
(I0
tp5186
g24
tp5187
Rp5188
(I1
(I3
tp5189
g272
I00
S'\xb0N\x1f\xb7g\x0c\xfb?\xfek\x94m\x14\xce\x1f\xc0:\xacu\xb6f\xd7\x00@'
p5190
tp5191
bag21
(g22
(I0
tp5192
g24
tp5193
Rp5194
(I1
(I3
tp5195
g283
I00
S'\xack\x86\xecj\xbe\xf2?\x96O\xb7\x87\x84\x85\x1f\xc0\xfa\x84\x19\xd1\xe3\x0c\x04@'
p5196
tp5197
bag21
(g22
(I0
tp5198
g24
tp5199
Rp5200
(I1
(I3
tp5201
g283
I00
S'\x08\x171\xc6\x9f\xd1\xe4?\xb69P\xb8\xb4\x03\x1e\xc0\x00`"#(A\x05@'
p5202
tp5203
bag21
(g22
(I0
tp5204
g24
tp5205
Rp5206
(I1
(I3
tp5207
g283
I00
S"f'\x1d)\\\x10\xe6?I\x87\x7f\xab\xf9\x9f\x1b\xc0\x90\xd8HX\xe5\x0e\x04@"
p5208
tp5209
bag21
(g22
(I0
tp5210
g24
tp5211
Rp5212
(I1
(I3
tp5213
g283
I00
S'\xc0T\xe2\x97\xaf3h\xbfv\xa30\xd5\xeb\xd1\x1a\xc0\x8a\rz\xc6\xa6z\x04@'
p5214
tp5215
bag21
(g22
(I0
tp5216
g24
tp5217
Rp5218
(I1
(I3
tp5219
g283
I00
S'\x0c\x8b\xaa\xe9\xe8%\xb0\xbf\xf7\x05\x80\xfb=|\x18\xc0X\xd6!\xf5\xa2\x12\x07@'
p5220
tp5221
bag21
(g22
(I0
tp5222
g24
tp5223
Rp5224
(I1
(I3
tp5225
g283
I00
S'\xc6\xac\xab\xcd\xa1A\xa0\xbfq\xe6\x8c\xab\xec{\x16\xc0r\xcfs\xfbHY\x03@'
p5226
tp5227
bag21
(g22
(I0
tp5228
g24
tp5229
Rp5230
(I1
(I3
tp5231
g283
I00
S'\xa5P\xd1\x87\x88:\xe5?\xd8\xf1\xd1l\xc6\x00\x15\xc0{\xeaM\xb0\xfa\x02\x0e@'
p5232
tp5233
bag21
(g22
(I0
tp5234
g24
tp5235
Rp5236
(I1
(I3
tp5237
g283
I00
S'\xc6\x05\xbdtg\xd9\xe2?F\xdf\x9d@\\\xf3\x11\xc0\x1a\xc4.\xbb\xcc\x12\x02@'
p5238
tp5239
bag21
(g22
(I0
tp5240
g24
tp5241
Rp5242
(I1
(I3
tp5243
g283
I00
S'3z\xed\x8eN)\xe4?\x0c\x96\xd4\xa2\x0e\xd0\r\xc0\xbd%\xf5{\xe9\xf9\x03@'
p5244
tp5245
bag21
(g22
(I0
tp5246
g24
tp5247
Rp5248
(I1
(I3
tp5249
g283
I00
S'\xaf0\xe9h\xba~\xee?k\xbb\xd8\xd4\xd0g\t\xc09\x9ey\xed\xb06\x06@'
p5250
tp5251
bag21
(g22
(I0
tp5252
g24
tp5253
Rp5254
(I1
(I3
tp5255
g283
I00
S'\xf4\xfdJ\x1a(#\xec?H"\x9cD\x1aE\x05\xc0.\xa9\x0b\x87\xf8\xe1\x02@'
p5256
tp5257
bas(g3700
g263
tp5258
g3440
s(g3700
g1031
tp5259
(lp5260
g21
(g22
(I0
tp5261
g24
tp5262
Rp5263
(I1
(I3
tp5264
g272
I00
S"\xe66\x90\xd2'\x1b\n@>,\xfc\x1b\x0b\x0b\x19\xc0\x08\x1a\x94Iv\xca\xeb?"
p5265
tp5266
bas(g3732
g1031
tp5267
(lp5268
g21
(g22
(I0
tp5269
g24
tp5270
Rp5271
(I1
(I3
tp5272
g272
I00
S'\xba!\xd3\xc6\xc5\x05\n@\xce90\x8a^#\x1a\xc0\xf3\xe9\xab@\x96\xe2\x05@'
p5273
tp5274
bas(g74
g1031
tp5275
(lp5276
g21
(g22
(I0
tp5277
g24
tp5278
Rp5279
(I1
(I3
tp5280
g272
I00
S'\xaaN\x1f\xb7g\x0c\xfb?\x01l\x94m\x14\xce\x1f\xc09\xacu\xb6f\xd7\x00@'
p5281
tp5282
bas(g3685
g1031
tp5283
(lp5284
g21
(g22
(I0
tp5285
g24
tp5286
Rp5287
(I1
(I3
tp5288
g272
I00
S'\xf8\xb7u\n\r\xbc\xdd?.\xa8\x8e|\x87\xe8\x1d\xc0\xbfe\xf4K\xee0\x0c@'
p5289
tp5290
bas(g3685
g263
tp5291
(lp5292
g21
(g22
(I0
tp5293
g24
tp5294
Rp5295
(I1
(I3
tp5296
g272
I00
S'\xf8\xb7u\n\r\xbc\xdd?1\xa8\x8e|\x87\xe8\x1d\xc0\xbee\xf4K\xee0\x0c@'
p5297
tp5298
bag21
(g22
(I0
tp5299
g24
tp5300
Rp5301
(I1
(I3
tp5302
g283
I00
S'\xda:H\x99\\\xf4\xd7?\x9d\xfe\xfa\xb2d\xee\x1a\xc0\xb9=\xe66\x01\xe0\x07\xc0'
p5303
tp5304
bag21
(g22
(I0
tp5305
g24
tp5306
Rp5307
(I1
(I3
tp5308
g283
I00
S"\xc6'8AN\xb0\xec?\xe0\x975>\x0f\x03\x19\xc0(\xe0e;\x85\x89\x05\xc0"
p5309
tp5310
bag21
(g22
(I0
tp5311
g24
tp5312
Rp5313
(I1
(I3
tp5314
g283
I00
S'\xac\xb4\xd5\x83\xbb\xf9\xe0?\xe1\x80\xe9+%\xe6\x16\xc0<\xd6N\xab\x06\xcc\xf7\xbf'
p5315
tp5316
bag21
(g22
(I0
tp5317
g24
tp5318
Rp5319
(I1
(I3
tp5320
g283
I00
S"\xb2&6mg)\xe8?\x99\xe0G'\x16\xe0\x13\xc0\xc8oL\xf5\x17p\xe6\xbf"
p5321
tp5322
bag21
(g22
(I0
tp5323
g24
tp5324
Rp5325
(I1
(I3
tp5326
g283
I00
S'`\xc8Aw-\x81\xeb?/\xc3\xe6O\x04\xca\x10\xc0\x8a\xb7K)\x91{\xe4\xbf'
p5327
tp5328
bag21
(g22
(I0
tp5329
g24
tp5330
Rp5331
(I1
(I3
tp5332
g283
I00
S'\xe1\xc6\xc7\xa7\x12X\xe7?\x98\x99\xb0\x9a\xfb\xdb\x0b\xc0R\t\x1b)\xeae\xe0\xbf'
p5333
tp5334
bag21
(g22
(I0
tp5335
g24
tp5336
Rp5337
(I1
(I3
tp5338
g283
I00
S'p\xf1\xbdc^\x84\xf1?"\x88LL\xf9D\x06\xc0~w\r\xe9m\x0f\x19@'
p5339
tp5340
bas(g3701
g263
tp5341
g3558
ssg2789
(dp5342
(g1007
g375
tp5343
g2889
s(g330
g1014
tp5344
g2887
s(g1002
g1002
tp5345
g3079
s(g1007
g1007
tp5346
g2891
s(g1002
g375
tp5347
g2893
s(g263
g1002
tp5348
g3089
s(g330
g1016
tp5349
g2899
s(g262
g1007
tp5350
g2901
s(g1014
g1014
tp5351
g2903
s(g1002
g1031
tp5352
g2905
s(g262
g375
tp5353
g2937
s(g1016
g263
tp5354
g2921
s(g1031
g1014
tp5355
g2959
s(g1007
g1034
tp5356
g2927
s(g330
g330
tp5357
g2929
s(g375
g1002
tp5358
g2933
s(g1002
g263
tp5359
g2935
s(g1034
g1031
tp5360
g2915
s(g1014
g262
tp5361
g2939
s(g1016
g1016
tp5362
g2941
s(g1002
g1034
tp5363
g2943
s(g1034
g1014
tp5364
g3029
s(g1031
g375
tp5365
g2947
s(g1002
g330
tp5366
g3077
s(g1031
g1007
tp5367
g2949
s(g375
g263
tp5368
g2951
s(g262
g1014
tp5369
g2955
s(g375
g262
tp5370
g2957
s(g1034
g263
tp5371
g2961
s(g1016
g1002
tp5372
g2963
s(g1014
g375
tp5373
g2965
s(g1034
g375
tp5374
g2967
s(g375
g1034
tp5375
g2969
s(g1007
g330
tp5376
g2971
s(g1007
g1002
tp5377
g2975
s(g1034
g1034
tp5378
g2979
s(g1002
g1007
tp5379
g2895
s(g375
g1014
tp5380
g2981
s(g263
g1034
tp5381
g3113
s(g263
g1016
tp5382
g2985
s(g262
g1031
tp5383
g2987
s(g263
g262
tp5384
g2989
s(g1007
g1016
tp5385
g2993
s(g375
g1031
tp5386
g2995
s(g1007
g262
tp5387
g2997
s(g375
g375
tp5388
g2999
s(g262
g1002
tp5389
g3001
s(g1031
g263
tp5390
g3003
s(g263
g330
tp5391
g3005
s(g1014
g263
tp5392
g3007
s(g1034
g262
tp5393
g3009
s(g330
g375
tp5394
g3097
s(g262
g1034
tp5395
g3015
s(g262
g330
tp5396
g3019
s(g1014
g1002
tp5397
g3021
s(g1014
g1031
tp5398
g3023
s(g1031
g330
tp5399
g2931
s(g1031
g1002
tp5400
g2945
s(g262
g263
tp5401
g3031
s(g330
g262
tp5402
g3033
s(g1016
g262
tp5403
g3035
s(g1031
g1031
tp5404
g3039
s(g1007
g1014
tp5405
g3121
s(g1016
g375
tp5406
g3043
s(g1031
g1016
tp5407
g3045
s(g1002
g1014
tp5408
g3047
s(g1031
g262
tp5409
g3049
s(g1016
g1034
tp5410
g3051
s(g330
g1002
tp5411
g3053
s(g1007
g263
tp5412
g3055
s(g1016
g1014
tp5413
g3057
s(g1014
g1016
tp5414
g3059
s(g1002
g1016
tp5415
g3061
s(g1034
g330
tp5416
g3063
s(g1002
g262
tp5417
g3065
s(g375
g330
tp5418
g3067
s(g330
g1031
tp5419
g3069
s(g262
g262
tp5420
g3071
s(g263
g375
tp5421
g3037
s(g263
g1007
tp5422
g3025
s(g330
g263
tp5423
g3083
s(g375
g1016
tp5424
g3085
s(g1007
g1031
tp5425
g3087
s(g262
g1016
tp5426
g3091
s(g1014
g1007
tp5427
g3093
s(g263
g1031
tp5428
g3095
s(g1034
g1007
tp5429
g3099
s(g330
g1034
tp5430
g3101
s(g375
g1007
tp5431
g3103
s(g263
g263
tp5432
g3105
s(g1014
g1034
tp5433
g3109
s(g1016
g330
tp5434
g2983
s(g1034
g1002
tp5435
g2923
s(g263
g1014
tp5436
g3115
s(g330
g1007
tp5437
g3041
s(g1031
g1034
tp5438
g3123
s(g1016
g1007
tp5439
g3125
s(g1014
g330
tp5440
g3127
s(g1016
g1031
tp5441
g3131
s(g1034
g1016
tp5442
g3133
ssg2791
(dp5443
g1034
(lp5444
I0
aI0
aI0
aI0
aI0
aI0
aI00
aI01
aI00
aI01
aI00
asg1031
(lp5445
I0
aI0
aI0
aI0
aI0
aI0
aI00
aI01
aI00
aI01
aI00
asg263
(lp5446
I0
aI0
aI0
aI0
aI0
aI0
aI00
aI01
aI01
aI01
aI00
asg1014
(lp5447
I0
aI0
aI0
ag1763
(g272
S'\xae\xc5\x05#\tR\x0b@'
p5448
tp5449
Rp5450
ag1763
(g272
S'\xcd\x96\xdf-\xe6+\x1d\xc0'
p5451
tp5452
Rp5453
ag1763
(g272
S'\xb9\xe8W\xce\xe7\xc0\x11@'
p5454
tp5455
Rp5456
aI01
aI00
aI00
aI01
aI00
asg1002
(lp5457
I0
aI0
aI0
ag1763
(g272
S'\xdcwy\x12\x1fR\xb9\xbf'
p5458
tp5459
Rp5460
ag1763
(g272
S' !\xd3\x93\xb9\x1f\x1f\xc0'
p5461
tp5462
Rp5463
ag1763
(g272
S'\x1a\xd0h\xd3)\x88\x14@'
p5464
tp5465
Rp5466
aI01
aI00
aI00
aI01
aI00
asg1007
(lp5467
I0
aI0
aI0
ag1763
(g272
S'j\xdd_\x14\x9f/\x0f@'
p5468
tp5469
Rp5470
ag1763
(g272
S'*\x01\xd3\xf8\xa7\x15\x17\xc0'
p5471
tp5472
Rp5473
ag1763
(g272
S'\xf9\xd6\xb1\xbc\xba\x96\xec?'
p5474
tp5475
Rp5476
aI01
aI00
aI00
aI00
aI00
asg262
(lp5477
I0
aI0
aI0
ag1763
(g272
S'h\xc1\xe8\xd8\x8c\xa0\xf9?'
p5478
tp5479
Rp5480
ag1763
(g272
S'\xf0\xc5\xa1\xf0l\xef\x19\xc0'
p5481
tp5482
Rp5483
ag1763
(g272
S'[I~5\xf9u\x18@'
p5484
tp5485
Rp5486
aI01
aI00
aI00
aI00
aI00
asg330
(lp5487
I0
aI0
aI0
ag1763
(g272
S'\x8a\x02\xa2>r\xfc\x02@'
p5488
tp5489
Rp5490
ag1763
(g272
S')\xaf\x81.R\x95\x16\xc0'
p5491
tp5492
Rp5493
ag1763
(g272
S'\xc3\x97\xc4\xf38I\x14@'
p5494
tp5495
Rp5496
aI01
aI00
aI00
aI00
aI00
asg375
(lp5497
I0
aI0
aI0
ag1763
(g272
S"yJ'\xcd95\xf5?"
p5498
tp5499
Rp5500
ag1763
(g272
S'z\xcf\xd6JE\xcd\x16\xc0'
p5501
tp5502
Rp5503
ag1763
(g272
S'\xd4\xf3\x85\x93*v\x04@'
p5504
tp5505
Rp5506
aI01
aI00
aI00
aI01
aI00
asg1016
(lp5507
I0
aI0
aI0
ag1763
(g272
S'\xb5(\xb2G\xa53\xf8?'
p5508
tp5509
Rp5510
ag1763
(g272
S'\xfa\x972\xa7\xe6\xf1\x1c\xc0'
p5511
tp5512
Rp5513
ag1763
(g272
S'\x8ee,\xdd\xd8F\xb0?'
p5514
tp5515
Rp5516
aI01
aI00
aI01
aI01
aI00
asg999
(lp5517
I0
aI0
aI0
ag1763
(g272
S'\xa2\x8by|\xf4\x00\x05@'
p5518
tp5519
Rp5520
ag1763
(g272
S'&\xfc\xa0\xa3^)\x19\xc0'
p5521
tp5522
Rp5523
ag1763
(g272
S'\xae\xd5\xa6v6\xbc\x0f@'
p5524
tp5525
Rp5526
aI01
aI00
aI00
aI00
aI00
assg2876
(dp5527
sg2878
g117
sg2879
g2880
sg2882
(dp5528
(g330
g999
tp5529
(lp5530
I00
aI00
aI00
as(g330
g1014
tp5531
(lp5532
I00
aI00
aI00
as(g1007
g375
tp5533
(lp5534
I00
aI00
aI00
as(g1007
g1007
tp5535
(lp5536
I00
aI00
aI00
as(g1002
g375
tp5537
(lp5538
I00
aI00
aI00
as(g1002
g1007
tp5539
(lp5540
I00
aI00
aI00
as(g999
g1002
tp5541
(lp5542
I00
aI00
aI00
as(g330
g1016
tp5543
(lp5544
I00
aI00
aI00
as(g262
g1007
tp5545
(lp5546
I00
aI00
aI00
as(g1014
g1014
tp5547
(lp5548
I00
aI00
aI00
as(g1002
g1031
tp5549
(lp5550
g2913
aI00
aI01
as(g1034
g1031
tp5551
(lp5552
I00
aI00
aI00
as(g1014
g999
tp5553
(lp5554
I00
aI00
aI00
as(g1031
g999
tp5555
(lp5556
I00
aI00
aI00
as(g1016
g263
tp5557
(lp5558
I00
aI00
aI01
as(g1034
g1002
tp5559
(lp5560
I00
aI00
aI00
as(g1002
g999
tp5561
(lp5562
I00
aI00
aI00
as(g1007
g1034
tp5563
(lp5564
g2913
aI00
aI00
as(g330
g330
tp5565
(lp5566
I00
aI00
aI00
as(g1031
g330
tp5567
(lp5568
I00
aI00
aI00
as(g375
g1002
tp5569
(lp5570
I00
aI00
aI00
as(g1002
g263
tp5571
(lp5572
I00
aI00
aI01
as(g262
g375
tp5573
(lp5574
I00
aI00
aI00
as(g1014
g262
tp5575
(lp5576
I00
aI00
aI00
as(g1016
g1016
tp5577
(lp5578
I00
aI00
aI00
as(g1002
g1034
tp5579
(lp5580
g2913
aI00
aI00
as(g1031
g1002
tp5581
(lp5582
I00
aI00
aI00
as(g1031
g375
tp5583
(lp5584
I00
aI00
aI00
as(g1031
g1007
tp5585
(lp5586
I00
aI00
aI00
as(g375
g263
tp5587
(lp5588
I00
aI00
aI01
as(g999
g1014
tp5589
(lp5590
I00
aI00
aI00
as(g262
g1014
tp5591
(lp5592
I00
aI00
aI00
as(g375
g262
tp5593
(lp5594
I00
aI00
aI00
as(g1031
g1014
tp5595
(lp5596
I00
aI00
aI00
as(g1034
g263
tp5597
(lp5598
I00
aI00
aI00
as(g1016
g1002
tp5599
(lp5600
I00
aI00
aI00
as(g1014
g375
tp5601
(lp5602
I00
aI00
aI00
as(g1034
g375
tp5603
(lp5604
I00
aI00
aI00
as(g375
g1034
tp5605
(lp5606
g2913
aI00
aI00
as(g1007
g330
tp5607
(lp5608
I00
aI00
aI00
as(g999
g1016
tp5609
(lp5610
I00
aI00
aI00
as(g1007
g1002
tp5611
(lp5612
I00
aI00
aI00
as(g999
g263
tp5613
(lp5614
I00
aI00
aI00
as(g1034
g1034
tp5615
(lp5616
I00
aI00
aI00
as(g375
g1014
tp5617
(lp5618
I00
aI00
aI00
as(g1016
g330
tp5619
(lp5620
I00
aI01
aI00
as(g263
g1016
tp5621
(lp5622
I00
aI00
aI00
as(g262
g1031
tp5623
(lp5624
g2913
aI00
aI01
as(g263
g262
tp5625
(lp5626
I00
aI00
aI00
as(g999
g1007
tp5627
(lp5628
I00
aI00
aI00
as(g1007
g1016
tp5629
(lp5630
I00
aI00
aI00
as(g375
g1031
tp5631
(lp5632
g2913
aI00
aI01
as(g1007
g262
tp5633
(lp5634
I00
aI00
aI00
as(g375
g375
tp5635
(lp5636
I00
aI00
aI00
as(g262
g1002
tp5637
(lp5638
I00
aI00
aI00
as(g1031
g263
tp5639
(lp5640
I00
aI00
aI00
as(g263
g330
tp5641
(lp5642
I00
aI00
aI00
as(g1014
g263
tp5643
(lp5644
I00
aI00
aI00
as(g1034
g262
tp5645
(lp5646
I00
aI00
aI00
as(g263
g999
tp5647
(lp5648
I00
aI00
aI00
as(g1007
g999
tp5649
(lp5650
I00
aI00
aI00
as(g262
g1034
tp5651
(lp5652
g2913
aI00
aI00
as(g999
g1031
tp5653
(lp5654
g2913
aI00
aI01
as(g262
g330
tp5655
(lp5656
I00
aI01
aI00
as(g1014
g1002
tp5657
(lp5658
I00
aI00
aI00
as(g1014
g1031
tp5659
(lp5660
g2913
aI00
aI01
as(g263
g1007
tp5661
(lp5662
I00
aI00
aI00
as(g1034
g999
tp5663
(lp5664
I00
aI00
aI00
as(g1034
g1014
tp5665
(lp5666
I00
aI00
aI00
as(g262
g263
tp5667
(lp5668
I00
aI00
aI00
as(g330
g262
tp5669
(lp5670
I00
aI00
aI00
as(g1016
g262
tp5671
(lp5672
I00
aI01
aI00
as(g263
g375
tp5673
(lp5674
I00
aI00
aI00
as(g1031
g1031
tp5675
(lp5676
I00
aI00
aI00
as(g330
g1007
tp5677
(lp5678
I00
aI00
aI00
as(g1016
g375
tp5679
(lp5680
I00
aI00
aI00
as(g1031
g1016
tp5681
(lp5682
I00
aI00
aI00
as(g1002
g1014
tp5683
(lp5684
I00
aI00
aI00
as(g1031
g262
tp5685
(lp5686
I00
aI00
aI00
as(g1016
g1034
tp5687
(lp5688
g2913
aI00
aI00
as(g330
g1002
tp5689
(lp5690
I00
aI00
aI00
as(g1007
g263
tp5691
(lp5692
I00
aI00
aI00
as(g1016
g1014
tp5693
(lp5694
I00
aI00
aI00
as(g1014
g1016
tp5695
(lp5696
I00
aI00
aI00
as(g1002
g1016
tp5697
(lp5698
I00
aI00
aI00
as(g1034
g330
tp5699
(lp5700
I00
aI00
aI00
as(g1002
g262
tp5701
(lp5702
I00
aI00
aI00
as(g375
g330
tp5703
(lp5704
I00
aI01
aI00
as(g330
g1031
tp5705
(lp5706
g2913
aI00
aI01
as(g262
g262
tp5707
(lp5708
I00
aI00
aI00
as(g999
g330
tp5709
(lp5710
I00
aI00
aI00
as(g1016
g999
tp5711
(lp5712
I00
aI00
aI00
as(g1002
g330
tp5713
(lp5714
I00
aI00
aI00
as(g1002
g1002
tp5715
(lp5716
I00
aI00
aI00
as(g999
g262
tp5717
(lp5718
I00
aI01
aI00
as(g330
g263
tp5719
(lp5720
I00
aI00
aI00
as(g375
g1016
tp5721
(lp5722
I00
aI00
aI00
as(g1007
g1031
tp5723
(lp5724
g2913
aI00
aI01
as(g263
g1002
tp5725
(lp5726
I00
aI00
aI00
as(g262
g1016
tp5727
(lp5728
I00
aI00
aI00
as(g1014
g1007
tp5729
(lp5730
I00
aI01
aI00
as(g263
g1031
tp5731
(lp5732
I00
aI00
aI00
as(g330
g375
tp5733
(lp5734
I00
aI00
aI00
as(g1034
g1007
tp5735
(lp5736
I00
aI00
aI00
as(g330
g1034
tp5737
(lp5738
g2913
aI00
aI00
as(g375
g1007
tp5739
(lp5740
I00
aI00
aI00
as(g263
g263
tp5741
(lp5742
I00
aI00
aI00
as(g262
g999
tp5743
(lp5744
I00
aI01
aI00
as(g1014
g1034
tp5745
(lp5746
g2913
aI00
aI00
as(g999
g1034
tp5747
(lp5748
g2913
aI00
aI00
as(g263
g1034
tp5749
(lp5750
I00
aI00
aI00
as(g263
g1014
tp5751
(lp5752
I00
aI00
aI00
as(g375
g999
tp5753
(lp5754
I00
aI00
aI00
as(g999
g375
tp5755
(lp5756
I00
aI00
aI00
as(g1007
g1014
tp5757
(lp5758
I00
aI00
aI00
as(g1031
g1034
tp5759
(lp5760
I00
aI00
aI00
as(g1016
g1007
tp5761
(lp5762
I00
aI00
aI00
as(g1014
g330
tp5763
(lp5764
I00
aI00
aI00
as(g999
g999
tp5765
(lp5766
I00
aI00
aI00
as(g1016
g1031
tp5767
(lp5768
g2913
aI00
aI01
as(g1034
g1016
tp5769
(lp5770
I00
aI00
aI00
assg423
g3683
sg3134
(itrajectory_representation.predicates.pick_in_way
PickInWay
p5771
(dp5772
g260
(dp5773
g1014
g4187
sg1002
g4194
sg1007
g4219
sg262
g4238
sg330
g4257
sg375
g4276
sg1016
g3713
sg999
g4313
ssg408
(dp5774
g1014
(lp5775
sg1002
(lp5776
sg1007
(lp5777
Vrectangular_packing_box4
p5778
asg262
(lp5779
Vsquare_packing_box4
p5780
aVsquare_packing_box1
p5781
aVrectangular_packing_box1
p5782
asg330
(lp5783
Vsquare_packing_box1
p5784
aVrectangular_packing_box1
p5785
aVsquare_packing_box3
p5786
asg375
(lp5787
sg1016
(lp5788
sg999
(lp5789
Vrectangular_packing_box1
p5790
assg423
(lp5791
g1002
ag375
ag1014
ag1034
ag263
ag1031
ag1016
ag1034
ag263
ag1031
ag1034
ag263
ag1031
ag1034
ag263
ag1031
ag1034
ag263
ag1031
ag1034
ag263
ag1031
ag1034
ag263
ag1031
ag1034
ag263
ag1031
asg429
g3687
sg119
(dp5792
sg464
g3699
sg989
Nsg995
g3699
sg992
(dp5793
sg994
I8
sg1026
I01
sg996
Nsg997
(dp5794
(g330
g999
tp5795
I00
s(g330
g1014
tp5796
I00
s(g1007
g375
tp5797
I00
s(g1007
g1007
tp5798
I00
s(g1002
g375
tp5799
I00
s(g1002
g1007
tp5800
I00
s(g999
g1002
tp5801
I00
s(g330
g1016
tp5802
I00
s(g262
g1007
tp5803
I00
s(g1014
g1014
tp5804
I00
s(g1002
g1031
tp5805
I00
s(g1034
g1031
tp5806
I00
s(g1014
g999
tp5807
I00
s(g1031
g999
tp5808
I00
s(g1016
g263
tp5809
I00
s(g1034
g1002
tp5810
I00
s(g1002
g999
tp5811
I00
s(g1007
g1034
tp5812
I00
s(g330
g330
tp5813
I00
s(g1031
g330
tp5814
I00
s(g375
g1002
tp5815
I00
s(g1002
g263
tp5816
I00
s(g262
g375
tp5817
I00
s(g1014
g262
tp5818
I00
s(g1016
g1016
tp5819
I00
s(g1002
g1034
tp5820
I00
s(g1031
g1002
tp5821
I00
s(g1031
g375
tp5822
I00
s(g1031
g1007
tp5823
I00
s(g375
g263
tp5824
I00
s(g999
g1014
tp5825
I00
s(g262
g1014
tp5826
I00
s(g375
g262
tp5827
I00
s(g1031
g1014
tp5828
I00
s(g1034
g263
tp5829
I00
s(g1016
g1002
tp5830
I00
s(g1014
g375
tp5831
I00
s(g1034
g375
tp5832
I00
s(g375
g1034
tp5833
I00
s(g1007
g330
tp5834
I00
s(g999
g1016
tp5835
I00
s(g1007
g1002
tp5836
I00
s(g999
g263
tp5837
I00
s(g1034
g1034
tp5838
I00
s(g375
g1014
tp5839
I00
s(g1016
g330
tp5840
I01
s(g263
g1016
tp5841
I00
s(g262
g1031
tp5842
I00
s(g263
g262
tp5843
I00
s(g999
g1007
tp5844
I00
s(g1007
g1016
tp5845
I00
s(g375
g1031
tp5846
I00
s(g1007
g262
tp5847
I00
s(g375
g375
tp5848
I00
s(g262
g1002
tp5849
I00
s(g1031
g263
tp5850
I00
s(g263
g330
tp5851
I00
s(g1014
g263
tp5852
I00
s(g1034
g262
tp5853
I00
s(g263
g999
tp5854
I00
s(g1007
g999
tp5855
I00
s(g262
g1034
tp5856
I00
s(g999
g1031
tp5857
I00
s(g262
g330
tp5858
I01
s(g1014
g1002
tp5859
I00
s(g1014
g1031
tp5860
I00
s(g263
g1007
tp5861
I00
s(g1034
g999
tp5862
I00
s(g1034
g1014
tp5863
I00
s(g262
g263
tp5864
I00
s(g330
g262
tp5865
I00
s(g1016
g262
tp5866
I01
s(g263
g375
tp5867
I00
s(g1031
g1031
tp5868
I00
s(g330
g1007
tp5869
I00
s(g1016
g375
tp5870
I00
s(g1031
g1016
tp5871
I00
s(g1002
g1014
tp5872
I00
s(g1031
g262
tp5873
I00
s(g1016
g1034
tp5874
I00
s(g330
g1002
tp5875
I00
s(g1007
g263
tp5876
I00
s(g1016
g1014
tp5877
I00
s(g1014
g1016
tp5878
I00
s(g1002
g1016
tp5879
I00
s(g1034
g330
tp5880
I00
s(g1002
g262
tp5881
I00
s(g375
g330
tp5882
I01
s(g330
g1031
tp5883
I00
s(g262
g262
tp5884
I00
s(g999
g330
tp5885
I00
s(g1016
g999
tp5886
I00
s(g1002
g330
tp5887
I00
s(g1002
g1002
tp5888
I00
s(g999
g262
tp5889
I01
s(g330
g263
tp5890
I00
s(g375
g1016
tp5891
I00
s(g1007
g1031
tp5892
I00
s(g263
g1002
tp5893
I00
s(g262
g1016
tp5894
I00
s(g1014
g1007
tp5895
I01
s(g263
g1031
tp5896
I00
s(g330
g375
tp5897
I00
s(g1034
g1007
tp5898
I00
s(g330
g1034
tp5899
I00
s(g375
g1007
tp5900
I00
s(g263
g263
tp5901
I00
s(g262
g999
tp5902
I01
s(g1014
g1034
tp5903
I00
s(g999
g1034
tp5904
I00
s(g263
g1034
tp5905
I00
s(g263
g1014
tp5906
I00
s(g375
g999
tp5907
I00
s(g999
g375
tp5908
I00
s(g1007
g1014
tp5909
I00
s(g1031
g1034
tp5910
I00
s(g1016
g1007
tp5911
I00
s(g1014
g330
tp5912
I00
s(g999
g999
tp5913
I00
s(g1016
g1031
tp5914
I00
s(g1034
g1016
tp5915
I00
ssg1025
Nsbsg3275
g21
(g22
(I0
tp5916
g24
tp5917
Rp5918
(I1
(I1
I3
tp5919
g272
I00
S'\x8cNvI\xdd\xdc\x01@]\xefK6U\xcf\x1b\xc0e\xd1\xff\xbc\x08\xad\xe1?'
p5920
tp5921
bsg3282
(itrajectory_representation.predicates.is_holding_goal_entity
IsHoldingGoalEntity
p5922
(dp5923
g2879
g2880
sg996
Nsbsg3285
(dp5924
sg3287
g3687
sbasS'seed'
p5925
NsS'state_prime'
p5926
(lp5927
g3288
asS'problem_idx'
p5928
I131
sb.