(itrajectory_representation.trajectory
Trajectory
p0
(dp1
S'rewards'
p2
(lp3
I10
asS'actions'
p4
(lp5
(itrajectory_representation.operator
Operator
p6
(dp7
S'is_skeleton'
p8
I00
sS'discrete_parameters'
p9
(dp10
S'object'
p11
Vsquare_packing_box1
p12
sS'two_arm_place_region'
p13
S'home_region'
p14
sS'two_arm_place_object'
p15
Vsquare_packing_box1
p16
ssS'type'
p17
S'two_arm_pick_two_arm_place'
p18
sS'continuous_parameters'
p19
(dp20
S'q_goal'
p21
cnumpy.core.multiarray
_reconstruct
p22
(cnumpy
ndarray
p23
(I0
tp24
S'b'
p25
tp26
Rp27
(I1
(I3
tp28
cnumpy
dtype
p29
(S'f8'
p30
I0
I1
tp31
Rp32
(I3
S'<'
p33
NNNI-1
I-1
I0
tp34
bI00
S'\x19L"\x8ca+\xf9?>\xec@_|\x07\x19\xc0\x8b}$/\x89\xd7\x03@'
p35
tp36
bsS'place'
p37
(dp38
g21
g22
(g23
(I0
tp39
g25
tp40
Rp41
(I1
(I3
tp42
g32
I00
S'\xfcFAE \xe9\xfd?:[\xce\x7f\xa3\xe3\x03\xc0\x04\xb9v\x98\xa4-\xd3?'
p43
tp44
bssS'pick'
p45
(dp46
g21
g27
sssS'low_level_motion'
p47
(lp48
g22
(g23
(I0
tp49
g25
tp50
Rp51
(I1
(I3
tp52
g32
I00
S'ya\xd2\xf3\x9a8\x0b@\x8f\xc8$\xe1\xa6\xfa\x1a\xc0\x0f!\xfb\xb5\xcds\x05@'
p53
tp54
bag22
(g23
(I0
tp55
g25
tp56
Rp57
(I1
(I3
tp58
g29
(S'f8'
p59
I0
I1
tp60
Rp61
(I3
S'<'
p62
NNNI-1
I-1
I0
tp63
bI00
S'\x82PU+O\xe4\n@~_\xe5t\xa53\x1a\xc0\xc63\xe2"\x04\x7f\x01@'
p64
tp65
bag22
(g23
(I0
tp66
g25
tp67
Rp68
(I1
(I3
tp69
g61
I00
S'\xd8\xd6B\xff\x18\xb2\x05@\xf2%;\x9a\xab\xd5\x18\xc0\xce\xc8,\xa0\x8a\x9a\x00@'
p70
tp71
bag22
(g23
(I0
tp72
g25
tp73
Rp74
(I1
(I3
tp75
g61
I00
S'\xac)\x94\xc9\xc1\xda\x03@>\xa9\\\xfe\x1d\xeb\x18\xc0\x03\xc0\n\xd21\x11\x08@'
p76
tp77
bag22
(g23
(I0
tp78
g25
tp79
Rp80
(I1
(I3
tp81
g61
I00
S'\xb9\x81\xdfb\xdf\x92\xfe?\x1a\xe3?2\xb6\xec\x1a\xc0B\x1b\x81\xfa\x93C\xfa?'
p82
tp83
bag27
ag27
asbasS'filename'
p84
S''
p85
sS'states'
p86
(lp87
(itrajectory_representation.shortest_path_pick_and_place_state
ShortestPathPaPState
p88
(dp89
S'place_used'
p90
(dp91
(g16
g14
tp92
(itrajectory_representation.operator
Operator
p93
(dp94
g8
I01
sg9
(dp95
S'region'
p96
g14
sg11
g16
ssg17
S'two_arm_place'
p97
sg19
(dp98
g21
g22
(g23
(I0
tp99
g25
tp100
Rp101
(I1
(I3
tp102
g32
I00
S'\xfcFAE \xe9\xfd?:[\xce\x7f\xa3\xe3\x03\xc0\x04\xb9v\x98\xa4-\xd3?'
p103
tp104
bssg47
(lp105
g22
(g23
(I0
tp106
g25
tp107
Rp108
(I1
(I3
tp109
g32
I00
S'\x12L"\x8ca+\xf9?D\xec@_|\x07\x19\xc0\x8b}$/\x89\xd7\x03@'
p110
tp111
bag22
(g23
(I0
tp112
g25
tp113
Rp114
(I1
(I3
tp115
g61
I00
S'{\xe7\xcc\xce\x02,\xf5?\xeb\x85\xf2\xb4\xc9\x08\x19\xc0\xcd\x97\xf6\xcc\xe4z\x00@'
p116
tp117
bag22
(g23
(I0
tp118
g25
tp119
Rp120
(I1
(I3
tp121
g61
I00
S'o\xd6\x82\xea\x7f\xb2\xed?9\xf2C\x0b?\xfd\x16\xc0(?d\xe9@\xb5\x02@'
p122
tp123
bag22
(g23
(I0
tp124
g25
tp125
Rp126
(I1
(I3
tp127
g61
I00
S'&>c9\x01,\xeb?\xb2\xc2\xf0\x02\xce\x8e\x14\xc0\xd8p\xbb2\x14\xd2\x03@'
p128
tp129
bag22
(g23
(I0
tp130
g25
tp131
Rp132
(I1
(I3
tp133
g61
I00
S'\xc6\x05\xbdtg\xd9\xe2?F\xdf\x9d@\\\xf3\x11\xc0\x1a\xc4.\xbb\xcc\x12\x02@'
p134
tp135
bag22
(g23
(I0
tp136
g25
tp137
Rp138
(I1
(I3
tp139
g61
I00
S'\xe4u**\x0e5\xe9?\xaa\xfd\r\xed\xc4\xf6\r\xc0\x0fDE0\x1f\x0b\xfe?'
p140
tp141
bag22
(g23
(I0
tp142
g25
tp143
Rp144
(I1
(I3
tp145
g61
I00
S'\x06\x11,\xef\x98O\xe7??\x10\x01s=b\t\xc04\x92\xb79o\x8c\x00@'
p146
tp147
bag22
(g23
(I0
tp148
g25
tp149
Rp150
(I1
(I3
tp151
g61
I00
S'\xf4\xfdJ\x1a(#\xec?H"\x9cD\x1aE\x05\xc0.\xa9\x0b\x87\xf8\xe1\x02@'
p152
tp153
bag22
(g23
(I0
tp154
g25
tp155
Rp156
(I1
(I3
tp157
g61
I00
S'm\xce}C\x08\xbf\xf8?n\x1b_\x80\xc4X\x02\xc0\xa0\xd6\xd4\xb1Na\xa7?'
p158
tp159
bag101
ag101
asbssS'place_in_way'
p160
(itrajectory_representation.predicates.place_in_way
PlaceInWay
p161
(dp162
S'mc_path_to_entity'
p163
(dp164
(Vrectangular_packing_box3
p165
S'home_region'
p166
tp167
(lp168
g22
(g23
(I0
tp169
g25
tp170
Rp171
(I1
(I3
tp172
g29
(S'f8'
p173
I0
I1
tp174
Rp175
(I3
S'<'
p176
NNNI-1
I-1
I0
tp177
bI00
S'\xdaP45Y\x8c\x02@@\x8b\x0c\xcfg9\x19\xc0\x01\xa1&\xb1\x89{\xf1?'
p178
tp179
bag22
(g23
(I0
tp180
g25
tp181
Rp182
(I1
(I3
tp183
g29
(S'f8'
p184
I0
I1
tp185
Rp186
(I3
S'<'
p187
NNNI-1
I-1
I0
tp188
bI00
S'/\xe1\x02^.|\x00@\xb8\xae\xc5\xcfF\x16\x17\xc0\xf8\x01)d\xc5\xf9\xe2?'
p189
tp190
bag22
(g23
(I0
tp191
g25
tp192
Rp193
(I1
(I3
tp194
g186
I00
S'\x85\\2\xba\x0b5\xf5?I\r\x06\xd10\xfb\x15\xc0\x9e\x11\xee\xd8\xb9\xd7\xf5?'
p195
tp196
bag22
(g23
(I0
tp197
g25
tp198
Rp199
(I1
(I3
tp200
g186
I00
S'v\xb8^\x85\xa7[\xea?x\xbe\xff2t\x8d\x13\xc0\x88\x85\x8cCyH\xf6?'
p201
tp202
bag22
(g23
(I0
tp203
g25
tp204
Rp205
(I1
(I3
tp206
g186
I00
S'\xc2\xda(e\x83\x1a\xeb?\x8au\x8d3\xa6E\x11\xc0\xb4c\x1b\xed_\xfd\xfa?'
p207
tp208
bag22
(g23
(I0
tp209
g25
tp210
Rp211
(I1
(I3
tp212
g186
I00
S'\xe4u**\x0e5\xe9?\xaa\xfd\r\xed\xc4\xf6\r\xc0\x0fDE0\x1f\x0b\xfe?'
p213
tp214
bag22
(g23
(I0
tp215
g25
tp216
Rp217
(I1
(I3
tp218
g186
I00
S'\x06\x11,\xef\x98O\xe7??\x10\x01s=b\t\xc04\x92\xb79o\x8c\x00@'
p219
tp220
bag22
(g23
(I0
tp221
g25
tp222
Rp223
(I1
(I3
tp224
g186
I00
S'\x92\xaf\xf3P\x96O\xc2?(\xa1:\x8er}\x05\xc0\xd4_\x91\xb3\xffL\x02@'
p225
tp226
bas(Vsquare_packing_box4
p227
g166
tp228
(lp229
g22
(g23
(I0
tp230
g25
tp231
Rp232
(I1
(I3
tp233
g175
I00
S"\x10\xa2\xd8'\x04Z\xf6?\xde-p\xa9\x95\x1f\x19\xc0o?\xb47\x0e\x98\xe2?"
p234
tp235
bag22
(g23
(I0
tp236
g25
tp237
Rp238
(I1
(I3
tp239
g186
I00
S'\x85\\2\xba\x0b5\xf5?I\r\x06\xd10\xfb\x15\xc0\x9e\x11\xee\xd8\xb9\xd7\xf5?'
p240
tp241
bag22
(g23
(I0
tp242
g25
tp243
Rp244
(I1
(I3
tp245
g186
I00
S'v\xb8^\x85\xa7[\xea?x\xbe\xff2t\x8d\x13\xc0\x88\x85\x8cCyH\xf6?'
p246
tp247
bag22
(g23
(I0
tp248
g25
tp249
Rp250
(I1
(I3
tp251
g186
I00
S'\xc2\xda(e\x83\x1a\xeb?\x8au\x8d3\xa6E\x11\xc0\xb4c\x1b\xed_\xfd\xfa?'
p252
tp253
bag22
(g23
(I0
tp254
g25
tp255
Rp256
(I1
(I3
tp257
g186
I00
S'\xe4u**\x0e5\xe9?\xaa\xfd\r\xed\xc4\xf6\r\xc0\x0fDE0\x1f\x0b\xfe?'
p258
tp259
bag22
(g23
(I0
tp260
g25
tp261
Rp262
(I1
(I3
tp263
g186
I00
S'\x06\x11,\xef\x98O\xe7??\x10\x01s=b\t\xc04\x92\xb79o\x8c\x00@'
p264
tp265
bag22
(g23
(I0
tp266
g25
tp267
Rp268
(I1
(I3
tp269
g186
I00
S'\x92\xaf\xf3P\x96O\xc2?(\xa1:\x8er}\x05\xc0\xd4_\x91\xb3\xffL\x02@'
p270
tp271
bas(Vrectangular_packing_box4
p272
g166
tp273
(lp274
g22
(g23
(I0
tp275
g25
tp276
Rp277
(I1
(I3
tp278
g175
I00
S'p!\xe6$\x8cB\xe7?t]>^<\xd5\x1b\xc0\xd8\x8c,~v\xf4\n@'
p279
tp280
bag22
(g23
(I0
tp281
g25
tp282
Rp283
(I1
(I3
tp284
g186
I00
S'\xae\xea\x9e\xa3\xa2\xb1\xed?\xa4\xca\x1d?h\x96\x19\xc0dq\xdf\xb1\x9d\xe4\x05@'
p285
tp286
bag22
(g23
(I0
tp287
g25
tp288
Rp289
(I1
(I3
tp290
g186
I00
S'o\xd6\x82\xea\x7f\xb2\xed?9\xf2C\x0b?\xfd\x16\xc0(?d\xe9@\xb5\x02@'
p291
tp292
bag22
(g23
(I0
tp293
g25
tp294
Rp295
(I1
(I3
tp296
g186
I00
S'&>c9\x01,\xeb?\xb2\xc2\xf0\x02\xce\x8e\x14\xc0\xd8p\xbb2\x14\xd2\x03@'
p297
tp298
bag22
(g23
(I0
tp299
g25
tp300
Rp301
(I1
(I3
tp302
g186
I00
S'\xc6\x05\xbdtg\xd9\xe2?F\xdf\x9d@\\\xf3\x11\xc0\x1a\xc4.\xbb\xcc\x12\x02@'
p303
tp304
bag22
(g23
(I0
tp305
g25
tp306
Rp307
(I1
(I3
tp308
g186
I00
S'3z\xed\x8eN)\xe4?\x0c\x96\xd4\xa2\x0e\xd0\r\xc0\xbd%\xf5{\xe9\xf9\x03@'
p309
tp310
bag22
(g23
(I0
tp311
g25
tp312
Rp313
(I1
(I3
tp314
g186
I00
S'\xaf0\xe9h\xba~\xee?k\xbb\xd8\xd4\xd0g\t\xc09\x9ey\xed\xb06\x06@'
p315
tp316
bag22
(g23
(I0
tp317
g25
tp318
Rp319
(I1
(I3
tp320
g186
I00
S'\xf4\xfdJ\x1a(#\xec?H"\x9cD\x1aE\x05\xc0.\xa9\x0b\x87\xf8\xe1\x02@'
p321
tp322
bas(Vsquare_packing_box1
p323
g166
tp324
(lp325
g22
(g23
(I0
tp326
g25
tp327
Rp328
(I1
(I3
tp329
g175
I00
S'\x15L"\x8ca+\xf9?;\xec@_|\x07\x19\xc0\x8b}$/\x89\xd7\x03@'
p330
tp331
bag22
(g23
(I0
tp332
g25
tp333
Rp334
(I1
(I3
tp335
g186
I00
S'{\xe7\xcc\xce\x02,\xf5?\xeb\x85\xf2\xb4\xc9\x08\x19\xc0\xcd\x97\xf6\xcc\xe4z\x00@'
p336
tp337
bag22
(g23
(I0
tp338
g25
tp339
Rp340
(I1
(I3
tp341
g186
I00
S'o\xd6\x82\xea\x7f\xb2\xed?9\xf2C\x0b?\xfd\x16\xc0(?d\xe9@\xb5\x02@'
p342
tp343
bag22
(g23
(I0
tp344
g25
tp345
Rp346
(I1
(I3
tp347
g186
I00
S'&>c9\x01,\xeb?\xb2\xc2\xf0\x02\xce\x8e\x14\xc0\xd8p\xbb2\x14\xd2\x03@'
p348
tp349
bag22
(g23
(I0
tp350
g25
tp351
Rp352
(I1
(I3
tp353
g186
I00
S'\xc6\x05\xbdtg\xd9\xe2?F\xdf\x9d@\\\xf3\x11\xc0\x1a\xc4.\xbb\xcc\x12\x02@'
p354
tp355
bag22
(g23
(I0
tp356
g25
tp357
Rp358
(I1
(I3
tp359
g186
I00
S'3z\xed\x8eN)\xe4?\x0c\x96\xd4\xa2\x0e\xd0\r\xc0\xbd%\xf5{\xe9\xf9\x03@'
p360
tp361
bag22
(g23
(I0
tp362
g25
tp363
Rp364
(I1
(I3
tp365
g186
I00
S'\xaf0\xe9h\xba~\xee?k\xbb\xd8\xd4\xd0g\t\xc09\x9ey\xed\xb06\x06@'
p366
tp367
bag22
(g23
(I0
tp368
g25
tp369
Rp370
(I1
(I3
tp371
g186
I00
S'\xf4\xfdJ\x1a(#\xec?H"\x9cD\x1aE\x05\xc0.\xa9\x0b\x87\xf8\xe1\x02@'
p372
tp373
bas(Vsquare_packing_box2
p374
g166
tp375
(lp376
g22
(g23
(I0
tp377
g25
tp378
Rp379
(I1
(I3
tp380
g175
I00
S'`\x13\x9f\x8c\xd4\xae\xca?\x12\xcd\xcdI|\xac\x19\xc0\xaa\x92\xca@\xfd\xaf\x17@'
p381
tp382
bag22
(g23
(I0
tp383
g25
tp384
Rp385
(I1
(I3
tp386
g186
I00
S'\xac\xb4\xd5\x83\xbb\xf9\xe0?\xe1\x80\xe9+%\xe6\x16\xc0<\xd6N\xab\x06\xcc\xf7\xbf'
p387
tp388
bag22
(g23
(I0
tp389
g25
tp390
Rp391
(I1
(I3
tp392
g186
I00
S"\xb2&6mg)\xe8?\x99\xe0G'\x16\xe0\x13\xc0\xc8oL\xf5\x17p\xe6\xbf"
p393
tp394
bag22
(g23
(I0
tp395
g25
tp396
Rp397
(I1
(I3
tp398
g186
I00
S'`\xc8Aw-\x81\xeb?/\xc3\xe6O\x04\xca\x10\xc0\x8a\xb7K)\x91{\xe4\xbf'
p399
tp400
bag22
(g23
(I0
tp401
g25
tp402
Rp403
(I1
(I3
tp404
g186
I00
S'\xe1\xc6\xc7\xa7\x12X\xe7?\x98\x99\xb0\x9a\xfb\xdb\x0b\xc0R\t\x1b)\xeae\xe0\xbf'
p405
tp406
bag22
(g23
(I0
tp407
g25
tp408
Rp409
(I1
(I3
tp410
g186
I00
S'p\xf1\xbdc^\x84\xf1?"\x88LL\xf9D\x06\xc0~w\r\xe9m\x0f\x19@'
p411
tp412
bas(Vrectangular_packing_box1
p413
g166
tp414
(lp415
g22
(g23
(I0
tp416
g25
tp417
Rp418
(I1
(I3
tp419
g175
I00
S'~R=\xddr\xe0\xf0?\xefRm\xe7\x82X\x1d\xc0\xe9y\xeb\xb9\r7\x07@'
p420
tp421
bag22
(g23
(I0
tp422
g25
tp423
Rp424
(I1
(I3
tp425
g186
I00
S'Z\xd4U\x1d\xf6`\xf4? %_\x1c\x06\x1f\x1b\xc0T\xcf(@X`\r@'
p426
tp427
bag22
(g23
(I0
tp428
g25
tp429
Rp430
(I1
(I3
tp431
g186
I00
S'\xae\xea\x9e\xa3\xa2\xb1\xed?\xa4\xca\x1d?h\x96\x19\xc0dq\xdf\xb1\x9d\xe4\x05@'
p432
tp433
bag22
(g23
(I0
tp434
g25
tp435
Rp436
(I1
(I3
tp437
g186
I00
S'o\xd6\x82\xea\x7f\xb2\xed?9\xf2C\x0b?\xfd\x16\xc0(?d\xe9@\xb5\x02@'
p438
tp439
bag22
(g23
(I0
tp440
g25
tp441
Rp442
(I1
(I3
tp443
g186
I00
S'&>c9\x01,\xeb?\xb2\xc2\xf0\x02\xce\x8e\x14\xc0\xd8p\xbb2\x14\xd2\x03@'
p444
tp445
bag22
(g23
(I0
tp446
g25
tp447
Rp448
(I1
(I3
tp449
g186
I00
S'\xc6\x05\xbdtg\xd9\xe2?F\xdf\x9d@\\\xf3\x11\xc0\x1a\xc4.\xbb\xcc\x12\x02@'
p450
tp451
bag22
(g23
(I0
tp452
g25
tp453
Rp454
(I1
(I3
tp455
g186
I00
S'3z\xed\x8eN)\xe4?\x0c\x96\xd4\xa2\x0e\xd0\r\xc0\xbd%\xf5{\xe9\xf9\x03@'
p456
tp457
bag22
(g23
(I0
tp458
g25
tp459
Rp460
(I1
(I3
tp461
g186
I00
S'\xaf0\xe9h\xba~\xee?k\xbb\xd8\xd4\xd0g\t\xc09\x9ey\xed\xb06\x06@'
p462
tp463
bag22
(g23
(I0
tp464
g25
tp465
Rp466
(I1
(I3
tp467
g186
I00
S'\xf4\xfdJ\x1a(#\xec?H"\x9cD\x1aE\x05\xc0.\xa9\x0b\x87\xf8\xe1\x02@'
p468
tp469
bas(Vsquare_packing_box3
p470
g166
tp471
(lp472
g22
(g23
(I0
tp473
g25
tp474
Rp475
(I1
(I3
tp476
g175
I00
S'\x14L\xdb1=\xda\x07@:\xbd\x841v\xe4\x18\xc0l\x0b\xdb\xae\x85\xa0\xe7?'
p477
tp478
bag22
(g23
(I0
tp479
g25
tp480
Rp481
(I1
(I3
tp482
g186
I00
S'A\xec\xb55+(\x03@v\x14\x1a\xc5J\xca\x18\xc0\xe9\rA\xa0%\xbe\xc7?'
p483
tp484
bag22
(g23
(I0
tp485
g25
tp486
Rp487
(I1
(I3
tp488
g186
I00
S'/\xe1\x02^.|\x00@\xb8\xae\xc5\xcfF\x16\x17\xc0\xf8\x01)d\xc5\xf9\xe2?'
p489
tp490
bag22
(g23
(I0
tp491
g25
tp492
Rp493
(I1
(I3
tp494
g186
I00
S'\x85\\2\xba\x0b5\xf5?I\r\x06\xd10\xfb\x15\xc0\x9e\x11\xee\xd8\xb9\xd7\xf5?'
p495
tp496
bag22
(g23
(I0
tp497
g25
tp498
Rp499
(I1
(I3
tp500
g186
I00
S'v\xb8^\x85\xa7[\xea?x\xbe\xff2t\x8d\x13\xc0\x88\x85\x8cCyH\xf6?'
p501
tp502
bag22
(g23
(I0
tp503
g25
tp504
Rp505
(I1
(I3
tp506
g186
I00
S'\xc2\xda(e\x83\x1a\xeb?\x8au\x8d3\xa6E\x11\xc0\xb4c\x1b\xed_\xfd\xfa?'
p507
tp508
bag22
(g23
(I0
tp509
g25
tp510
Rp511
(I1
(I3
tp512
g186
I00
S'\xe4u**\x0e5\xe9?\xaa\xfd\r\xed\xc4\xf6\r\xc0\x0fDE0\x1f\x0b\xfe?'
p513
tp514
bag22
(g23
(I0
tp515
g25
tp516
Rp517
(I1
(I3
tp518
g186
I00
S'\x06\x11,\xef\x98O\xe7??\x10\x01s=b\t\xc04\x92\xb79o\x8c\x00@'
p519
tp520
bag22
(g23
(I0
tp521
g25
tp522
Rp523
(I1
(I3
tp524
g186
I00
S'\x92\xaf\xf3P\x96O\xc2?(\xa1:\x8er}\x05\xc0\xd4_\x91\xb3\xffL\x02@'
p525
tp526
bas(Vrectangular_packing_box2
p527
g166
tp528
(lp529
g22
(g23
(I0
tp530
g25
tp531
Rp532
(I1
(I3
tp533
g175
I00
S'(\xbb\xe5\xb1\xbe*\x07@\xb8?R\xcf\x94\xcc\x1e\xc0@0v\xf7>O\xfa?'
p534
tp535
bag22
(g23
(I0
tp536
g25
tp537
Rp538
(I1
(I3
tp539
g186
I00
S'>\xc0\x12$\xd1\xa3\x02@L\xfb\xe9\xe8\x00\xfd\x1c\xc0\x1dL8%\x1b\x13\x04@'
p540
tp541
bag22
(g23
(I0
tp542
g25
tp543
Rp544
(I1
(I3
tp545
g186
I00
S'zNu~${\xfb?c\xfe\x8c\xbf\x1f\xab\x1b\xc0\x9b\xbb\x05m\x02\x02\x07@'
p546
tp547
bag22
(g23
(I0
tp548
g25
tp549
Rp550
(I1
(I3
tp551
g186
I00
S'{\xe7\xcc\xce\x02,\xf5?\xeb\x85\xf2\xb4\xc9\x08\x19\xc0\xcd\x97\xf6\xcc\xe4z\x00@'
p552
tp553
bag22
(g23
(I0
tp554
g25
tp555
Rp556
(I1
(I3
tp557
g186
I00
S'o\xd6\x82\xea\x7f\xb2\xed?9\xf2C\x0b?\xfd\x16\xc0(?d\xe9@\xb5\x02@'
p558
tp559
bag22
(g23
(I0
tp560
g25
tp561
Rp562
(I1
(I3
tp563
g186
I00
S'&>c9\x01,\xeb?\xb2\xc2\xf0\x02\xce\x8e\x14\xc0\xd8p\xbb2\x14\xd2\x03@'
p564
tp565
bag22
(g23
(I0
tp566
g25
tp567
Rp568
(I1
(I3
tp569
g186
I00
S'\xc6\x05\xbdtg\xd9\xe2?F\xdf\x9d@\\\xf3\x11\xc0\x1a\xc4.\xbb\xcc\x12\x02@'
p570
tp571
bag22
(g23
(I0
tp572
g25
tp573
Rp574
(I1
(I3
tp575
g186
I00
S'3z\xed\x8eN)\xe4?\x0c\x96\xd4\xa2\x0e\xd0\r\xc0\xbd%\xf5{\xe9\xf9\x03@'
p576
tp577
bag22
(g23
(I0
tp578
g25
tp579
Rp580
(I1
(I3
tp581
g186
I00
S'\xaf0\xe9h\xba~\xee?k\xbb\xd8\xd4\xd0g\t\xc09\x9ey\xed\xb06\x06@'
p582
tp583
bag22
(g23
(I0
tp584
g25
tp585
Rp586
(I1
(I3
tp587
g186
I00
S'\xf4\xfdJ\x1a(#\xec?H"\x9cD\x1aE\x05\xc0.\xa9\x0b\x87\xf8\xe1\x02@'
p588
tp589
bassS'mc_to_entity'
p590
(dp591
(g165
g166
tp592
(lp593
Vsquare_packing_box4
p594
aVsquare_packing_box1
p595
as(g227
g166
tp596
(lp597
Vsquare_packing_box1
p598
as(g272
g166
tp599
(lp600
Vrectangular_packing_box1
p601
aVsquare_packing_box2
p602
aVsquare_packing_box1
p603
as(g323
g166
tp604
(lp605
s(g374
g166
tp606
(lp607
Vrectangular_packing_box4
p608
aVsquare_packing_box1
p609
as(g413
g166
tp610
(lp611
Vsquare_packing_box2
p612
aVrectangular_packing_box4
p613
aVsquare_packing_box1
p614
as(g470
g166
tp615
(lp616
Vrectangular_packing_box3
p617
aVsquare_packing_box4
p618
aVsquare_packing_box1
p619
as(g527
g166
tp620
(lp621
Vsquare_packing_box2
p622
aVsquare_packing_box1
p623
assS'reachable_entities'
p624
(lp625
Vrectangular_packing_box2
p626
aVrectangular_packing_box3
p627
aVsquare_packing_box2
p628
aVsquare_packing_box3
p629
ag12
aVsquare_packing_box4
p630
asS'collides'
p631
(dp632
Vrectangular_packing_box4
p633
c__builtin__
set
p634
((lp635
I384
aI518
aI521
aI394
aI523
aI580
aI152
aI153
aI154
aI155
aI157
aI163
aI164
aI165
aI166
aI553
aI575
aI452
aI197
aI589
aI338
aI547
aI229
aI249
atp636
Rp637
sVrectangular_packing_box2
p638
g634
((lp639
I256
aI577
aI343
aI268
aI194
aI145
aI405
aI538
aI91
aI548
aI511
aI422
aI179
aI436
aI438
aI440
aI443
aI444
aI64
aI65
aI66
aI67
aI68
aI79
aI210
aI211
aI340
aI215
aI89
aI90
aI219
aI220
aI354
aI358
aI113
aI114
aI500
aI375
aI376
aI123
aI255
atp640
Rp641
sVrectangular_packing_box3
p642
g634
((lp643
I2
aI3
aI393
aI395
aI404
aI539
aI160
aI161
aI37
aI38
aI39
aI40
aI41
aI42
aI304
aI54
aI288
aI454
aI289
aI611
aI115
aI372
aI379
aI380
atp644
Rp645
sVrectangular_packing_box1
p646
g634
((lp647
I384
aI257
aI134
aI135
aI264
aI265
aI394
aI523
aI532
aI580
aI158
aI159
aI163
aI164
aI433
aI564
aI452
aI197
aI583
aI328
aI458
aI589
aI83
aI346
aI478
aI356
aI229
aI490
aI366
aI502
aI122
atp648
Rp649
sVsquare_packing_box2
p650
g634
((lp651
I384
aI5
aI134
aI136
aI137
aI523
aI157
aI133
aI35
aI165
aI166
aI296
aI176
aI584
aI308
aI163
aI262
aI197
aI328
aI458
aI81
aI82
aI83
aI84
aI597
aI607
aI355
aI230
aI124
aI107
aI251
aI252
atp652
Rp653
sVsquare_packing_box3
p654
g634
((lp655
I0
aI1
aI144
aI403
aI539
aI541
aI288
aI545
aI546
aI550
aI39
aI40
aI555
aI302
aI571
aI62
aI454
aI342
aI474
aI348
aI605
aI612
aI368
aI369
aI370
aI371
aI377
aI378
atp656
Rp657
sVsquare_packing_box1
p658
g634
((lp659
I4
aI517
aI132
aI416
aI33
aI34
aI554
aI43
aI44
aI301
aI584
aI310
aI55
aI56
aI186
aI187
aI449
aI196
aI71
aI456
aI202
aI203
aI162
aI84
aI93
aI94
aI607
aI327
aI484
aI233
aI106
aI107
aI108
aI497
aI252
aI234
atp660
Rp661
sVsquare_packing_box4
p662
g634
((lp663
I3
aI4
aI449
aI395
aI404
aI160
aI161
aI162
aI42
aI43
aI301
aI309
aI55
aI56
aI187
aI188
aI416
aI289
aI201
aI202
aI203
aI595
aI327
aI484
aI106
aI497
aI115
aI372
aI379
aI380
aI554
atp664
Rp665
ssg90
g91
sS'pick_used'
p666
(dp667
Vrectangular_packing_box4
p668
(itrajectory_representation.operator
Operator
p669
(dp670
g8
I01
sg9
(dp671
S'object'
p672
Vrectangular_packing_box4
p673
ssg17
S'two_arm_pick'
p674
sg19
(dp675
S'q_goal'
p676
(lp677
g22
(g23
(I0
tp678
g25
tp679
Rp680
(I1
(I3
tp681
g175
I00
S'r!\xe6$\x8cB\xe7?u]>^<\xd5\x1b\xc0\xd8\x8c,~v\xf4\n@'
p682
tp683
bag22
(g23
(I0
tp684
g25
tp685
Rp686
(I1
(I3
tp687
g175
I00
S"\x90\xdc\xe1eQ\x91\xd2\xbf\x10\x86.t\x1aM\x1e\xc0\xb7\xd7\xe8'\x87\x81\xf9?"
p688
tp689
bag22
(g23
(I0
tp690
g25
tp691
Rp692
(I1
(I3
tp693
g175
I00
S"\xdaJT\xa9\t\x04\xa7?\xeds\x92]'T\x18\xc0\xc63\xf7>\x7f\xe0\xfe\xbf"
p694
tp695
basS'is_feasible'
p696
I00
ssg47
(lp697
g22
(g23
(I0
tp698
g25
tp699
Rp700
(I1
(I3
tp701
g175
I00
S'ja\xd2\xf3\x9a8\x0b@|\xc8$\xe1\xa6\xfa\x1a\xc0\x0f!\xfb\xb5\xcds\x05@'
p702
tp703
bag22
(g23
(I0
tp704
g25
tp705
Rp706
(I1
(I3
tp707
g186
I00
S'\xa3\xe7\xb4\x16R\xf0\x07@\xbc\n8\xab\xe3x\x1c\xc0=\x94\xaf\xa7P\t\x01@'
p708
tp709
bag22
(g23
(I0
tp710
g25
tp711
Rp712
(I1
(I3
tp713
g186
I00
S'\xe8[\xb2\xaa\xa5@\x04@(j\r1!I\x1b\xc0Xj\x8bx\xc9`\xfc?'
p714
tp715
bag22
(g23
(I0
tp716
g25
tp717
Rp718
(I1
(I3
tp719
g186
I00
S'\xb9\x81\xdfb\xdf\x92\xfe?\x1a\xe3?2\xb6\xec\x1a\xc0B\x1b\x81\xfa\x93C\xfa?'
p720
tp721
bag22
(g23
(I0
tp722
g25
tp723
Rp724
(I1
(I3
tp725
g186
I00
S'Z\xd4U\x1d\xf6`\xf4? %_\x1c\x06\x1f\x1b\xc0T\xcf(@X`\r@'
p726
tp727
bag680
asbsg626
(itrajectory_representation.operator
Operator
p728
(dp729
g8
I01
sg9
(dp730
g672
Vrectangular_packing_box2
p731
ssg17
g674
sg19
(dp732
g676
(lp733
g22
(g23
(I0
tp734
g25
tp735
Rp736
(I1
(I3
tp737
g175
I00
S'$\xbb\xe5\xb1\xbe*\x07@\xb9?R\xcf\x94\xcc\x1e\xc0@0v\xf7>O\xfa?'
p738
tp739
bag22
(g23
(I0
tp740
g25
tp741
Rp742
(I1
(I3
tp743
g175
I00
S"#\xd7\xeb\x83'\x00\n@\xc4'1\xc7A\x01\x1a\xc0j-\xb4\xa4q\xfb\x00\xc0"
p744
tp745
bag22
(g23
(I0
tp746
g25
tp747
Rp748
(I1
(I3
tp749
g175
I00
S'F-\x1f\xa2q\xb4\n@\x8d\xbc\xe1\xbe\x16v\x1a\xc0\xc7L\x02|\xdb\xbb\x00\xc0'
p750
tp751
bag22
(g23
(I0
tp752
g25
tp753
Rp754
(I1
(I3
tp755
g175
I00
S'\x1ab\xf4\xb3\xad\x91\x06@\xbb\xbc;\xed\xe3\xe3\x1e\xc0\xef\x06NJ\x02}\xf9?'
p756
tp757
bag22
(g23
(I0
tp758
g25
tp759
Rp760
(I1
(I3
tp761
g175
I00
S'\tn\xc58\xf4\xe3\xfc?O\x14-\xd1\x1d\x92\x1d\xc0p>*G\xfd\x11\xc5?'
p762
tp763
basg696
I00
ssg47
(lp764
g22
(g23
(I0
tp765
g25
tp766
Rp767
(I1
(I3
tp768
g175
I00
S'ja\xd2\xf3\x9a8\x0b@|\xc8$\xe1\xa6\xfa\x1a\xc0\x0f!\xfb\xb5\xcds\x05@'
p769
tp770
bag22
(g23
(I0
tp771
g25
tp772
Rp773
(I1
(I3
tp774
g186
I00
S'\x82PU+O\xe4\n@~_\xe5t\xa53\x1a\xc0\xc63\xe2"\x04\x7f\x01@'
p775
tp776
bag22
(g23
(I0
tp777
g25
tp778
Rp779
(I1
(I3
tp780
g186
I00
S'S\xb5\xd0\x1cl\xf0\x0c@>\x04.\xd9\xd9\xa1\x1c\xc0|\x85\x1fUEk\xf8\xbf'
p781
tp782
bag748
asbsg627
(itrajectory_representation.operator
Operator
p783
(dp784
g8
I01
sg9
(dp785
g672
Vrectangular_packing_box3
p786
ssg17
g674
sg19
(dp787
g676
(lp788
g22
(g23
(I0
tp789
g25
tp790
Rp791
(I1
(I3
tp792
g175
I00
S'\xd2P45Y\x8c\x02@@\x8b\x0c\xcfg9\x19\xc0\x00\xa1&\xb1\x89{\xf1?'
p793
tp794
bag22
(g23
(I0
tp795
g25
tp796
Rp797
(I1
(I3
tp798
g175
I00
S'{M5lT\x91\x01@\x0e\xbb\xde\xfb\xee\x80\x19\xc0e\xce\xc7IZz\xfb?'
p799
tp800
bag22
(g23
(I0
tp801
g25
tp802
Rp803
(I1
(I3
tp804
g175
I00
S'\xce\x0b\xca\xee\xf4\x1e\x04@\xcbr|\xc8m}\x19\xc0$\xa5\x92_\xdeg\xf5?'
p805
tp806
basg696
I00
ssg47
(lp807
g22
(g23
(I0
tp808
g25
tp809
Rp810
(I1
(I3
tp811
g175
I00
S'ja\xd2\xf3\x9a8\x0b@|\xc8$\xe1\xa6\xfa\x1a\xc0\x0f!\xfb\xb5\xcds\x05@'
p812
tp813
bag22
(g23
(I0
tp814
g25
tp815
Rp816
(I1
(I3
tp817
g186
I00
S'\x82PU+O\xe4\n@~_\xe5t\xa53\x1a\xc0\xc63\xe2"\x04\x7f\x01@'
p818
tp819
bag22
(g23
(I0
tp820
g25
tp821
Rp822
(I1
(I3
tp823
g186
I00
S'\xd8\xd6B\xff\x18\xb2\x05@\xf2%;\x9a\xab\xd5\x18\xc0\xce\xc8,\xa0\x8a\x9a\x00@'
p824
tp825
bag803
asbsVrectangular_packing_box1
p826
(itrajectory_representation.operator
Operator
p827
(dp828
g8
I01
sg9
(dp829
g672
Vrectangular_packing_box1
p830
ssg17
g674
sg19
(dp831
g676
(lp832
g22
(g23
(I0
tp833
g25
tp834
Rp835
(I1
(I3
tp836
g175
I00
S'\x86R=\xddr\xe0\xf0?\xf5Rm\xe7\x82X\x1d\xc0G\xe0\x9c\xee\xe8\x0c\x0b\xc0'
p837
tp838
bag22
(g23
(I0
tp839
g25
tp840
Rp841
(I1
(I3
tp842
g175
I00
S'\xd3$\xd7\xf9\xf0\xb7\xf0?\xa7\xd5A\x1c)\xca\x1c\xc0\xefW{\x9e\x99Y\x05\xc0'
p843
tp844
bag22
(g23
(I0
tp845
g25
tp846
Rp847
(I1
(I3
tp848
g175
I00
S'%\x05[\x15\xbc\x1e\xf1?\xea+\x13w\xb9=\x1d\xc0G.\xc2\x19\xa8>\x08\xc0'
p849
tp850
basg696
I00
ssg47
(lp851
g22
(g23
(I0
tp852
g25
tp853
Rp854
(I1
(I3
tp855
g175
I00
S'ja\xd2\xf3\x9a8\x0b@|\xc8$\xe1\xa6\xfa\x1a\xc0\x0f!\xfb\xb5\xcds\x05@'
p856
tp857
bag22
(g23
(I0
tp858
g25
tp859
Rp860
(I1
(I3
tp861
g186
I00
S'\xa3\xe7\xb4\x16R\xf0\x07@\xbc\n8\xab\xe3x\x1c\xc0=\x94\xaf\xa7P\t\x01@'
p862
tp863
bag22
(g23
(I0
tp864
g25
tp865
Rp866
(I1
(I3
tp867
g186
I00
S'>\xc0\x12$\xd1\xa3\x02@L\xfb\xe9\xe8\x00\xfd\x1c\xc0\x1dL8%\x1b\x13\x04@'
p868
tp869
bag22
(g23
(I0
tp870
g25
tp871
Rp872
(I1
(I3
tp873
g186
I00
S'zNu~${\xfb?c\xfe\x8c\xbf\x1f\xab\x1b\xc0\x9b\xbb\x05m\x02\x02\x07@'
p874
tp875
bag841
asbsg628
(itrajectory_representation.operator
Operator
p876
(dp877
g8
I01
sg9
(dp878
g672
Vsquare_packing_box2
p879
ssg17
g674
sg19
(dp880
g676
(lp881
g22
(g23
(I0
tp882
g25
tp883
Rp884
(I1
(I3
tp885
g175
I00
S'&\x13\x9f\x8c\xd4\xae\xca?\x10\xcd\xcdI|\xac\x19\xc0\xe4\xa6\x997\xe1\x1f\xd7\xbf'
p886
tp887
bag22
(g23
(I0
tp888
g25
tp889
Rp890
(I1
(I3
tp891
g175
I00
S'X<\xa0\x83&-\xf6?\xf2`_\xdbt\x9b\x1a\xc0B!\n\xc0\x97\x7f\x06\xc0'
p892
tp893
bag22
(g23
(I0
tp894
g25
tp895
Rp896
(I1
(I3
tp897
g175
I00
S'\xc2\xf4wq\x9f~\xe2?^SG\xdf\x8d\xce\x18\xc03\x8a\xd2a\xaex\xf0\xbf'
p898
tp899
basg696
I00
ssg47
(lp900
g22
(g23
(I0
tp901
g25
tp902
Rp903
(I1
(I3
tp904
g175
I00
S'ja\xd2\xf3\x9a8\x0b@|\xc8$\xe1\xa6\xfa\x1a\xc0\x0f!\xfb\xb5\xcds\x05@'
p905
tp906
bag22
(g23
(I0
tp907
g25
tp908
Rp909
(I1
(I3
tp910
g186
I00
S'\x00\xb3\x82\xcf\x06o\x0b@\xee\x82h^\xc0\xd1\x1d\xc0\x06B\xc4\x83X\x1d\x08\xc0'
p911
tp912
bag22
(g23
(I0
tp913
g25
tp914
Rp915
(I1
(I3
tp916
g186
I00
S'sL@\xf8\xbf\x12\x06@\xa9_:\x94go\x1f\xc0\xc0\x96\xc8\xcc\xba}\x0b\xc0'
p917
tp918
bag22
(g23
(I0
tp919
g25
tp920
Rp921
(I1
(I3
tp922
g186
I00
S'j3^\x1e\x86u\xff?:\xcbg\xab\x92\xaa\x1f\xc0\x05\x95\xa3X\x1c\x93\x07\xc0'
p923
tp924
bag22
(g23
(I0
tp925
g25
tp926
Rp927
(I1
(I3
tp928
g186
I00
S'S@\xf8l\x95\x08\xf8?\xef\x91If\xa4L\x1e\xc0\x8b\xc5pa\xf4C\x04\xc0'
p929
tp930
bag22
(g23
(I0
tp931
g25
tp932
Rp933
(I1
(I3
tp934
g186
I00
S'zNu~${\xfb?c\xfe\x8c\xbf\x1f\xab\x1b\xc0\x9b\xbb\x05m\x02\x02\x07@'
p935
tp936
bag890
asbsg629
(itrajectory_representation.operator
Operator
p937
(dp938
g8
I01
sg9
(dp939
g672
Vsquare_packing_box3
p940
ssg17
g674
sg19
(dp941
g676
(lp942
g22
(g23
(I0
tp943
g25
tp944
Rp945
(I1
(I3
tp946
g175
I00
S'\x12L\xdb1=\xda\x07@;\xbd\x841v\xe4\x18\xc0k\x0b\xdb\xae\x85\xa0\xe7?'
p947
tp948
bag22
(g23
(I0
tp949
g25
tp950
Rp951
(I1
(I3
tp952
g175
I00
S'\x16t\xf4!\x1c\xb9\x05@\x90\xa2\x0fJ(\\\x17\xc0\xc0t\x94{\x0c\x8d\xd2?'
p953
tp954
bag22
(g23
(I0
tp955
g25
tp956
Rp957
(I1
(I3
tp958
g175
I00
S'\xf2\x17f}\xfa\x81\x05@\xd2\xfe\x12\x14\x8c\xba\x17\xc0\x16\xc8nr.B\xe2?'
p959
tp960
bag22
(g23
(I0
tp961
g25
tp962
Rp963
(I1
(I3
tp964
g175
I00
S'\xed\xddxY\xba\x00\x06@l\xe7\x10h\x0f\xb3\x18\xc0y\xe1e\xdf|\x1a\xf1?'
p965
tp966
basg696
I00
ssg47
(lp967
g22
(g23
(I0
tp968
g25
tp969
Rp970
(I1
(I3
tp971
g175
I00
S'ja\xd2\xf3\x9a8\x0b@|\xc8$\xe1\xa6\xfa\x1a\xc0\x0f!\xfb\xb5\xcds\x05@'
p972
tp973
bag22
(g23
(I0
tp974
g25
tp975
Rp976
(I1
(I3
tp977
g186
I00
S'j\x9a/\xe4\xb3\xb5\r@\xedB\x9a\x11*Q\x19\xc0q\xe8(\xabY\x9d\x08@'
p978
tp979
bag22
(g23
(I0
tp980
g25
tp981
Rp982
(I1
(I3
tp983
g186
I00
S'\xe2\x90\xda\xb0m\x9a\x0b@7Q\xb0\xf5\xd4\xbe\x19\xc0\xee\xbc\x06\xc4\xdeD\xd0?'
p984
tp985
bag945
asbsg12
(itrajectory_representation.operator
Operator
p986
(dp987
g8
I01
sg9
(dp988
g11
g12
ssg17
S'two_arm_pick'
p989
sg19
(dp990
g21
g22
(g23
(I0
tp991
g25
tp992
Rp993
(I1
(I3
tp994
g32
I00
S'\x19L"\x8ca+\xf9?>\xec@_|\x07\x19\xc0\x8b}$/\x89\xd7\x03@'
p995
tp996
bssg47
(lp997
g22
(g23
(I0
tp998
g25
tp999
Rp1000
(I1
(I3
tp1001
g175
I00
S'ja\xd2\xf3\x9a8\x0b@|\xc8$\xe1\xa6\xfa\x1a\xc0\x0f!\xfb\xb5\xcds\x05@'
p1002
tp1003
bag22
(g23
(I0
tp1004
g25
tp1005
Rp1006
(I1
(I3
tp1007
g186
I00
S'\x00\xb3\x82\xcf\x06o\x0b@\xee\x82h^\xc0\xd1\x1d\xc0\x06B\xc4\x83X\x1d\x08\xc0'
p1008
tp1009
bag22
(g23
(I0
tp1010
g25
tp1011
Rp1012
(I1
(I3
tp1013
g186
I00
S'sL@\xf8\xbf\x12\x06@\xa9_:\x94go\x1f\xc0\xc0\x96\xc8\xcc\xba}\x0b\xc0'
p1014
tp1015
bag22
(g23
(I0
tp1016
g25
tp1017
Rp1018
(I1
(I3
tp1019
g186
I00
S'j3^\x1e\x86u\xff?:\xcbg\xab\x92\xaa\x1f\xc0\x05\x95\xa3X\x1c\x93\x07\xc0'
p1020
tp1021
bag22
(g23
(I0
tp1022
g25
tp1023
Rp1024
(I1
(I3
tp1025
g186
I00
S'S@\xf8l\x95\x08\xf8?\xef\x91If\xa4L\x1e\xc0\x8b\xc5pa\xf4C\x04\xc0'
p1026
tp1027
bag22
(g23
(I0
tp1028
g25
tp1029
Rp1030
(I1
(I3
tp1031
g186
I00
S'zNu~${\xfb?c\xfe\x8c\xbf\x1f\xab\x1b\xc0\x9b\xbb\x05m\x02\x02\x07@'
p1032
tp1033
bag993
asbsg630
(itrajectory_representation.operator
Operator
p1034
(dp1035
g8
I01
sg9
(dp1036
g672
Vsquare_packing_box4
p1037
ssg17
g674
sg19
(dp1038
g676
(lp1039
g22
(g23
(I0
tp1040
g25
tp1041
Rp1042
(I1
(I3
tp1043
g175
I00
S"\xfc\xa1\xd8'\x04Z\xf6?\xdb-p\xa9\x95\x1f\x19\xc0n?\xb47\x0e\x98\xe2?"
p1044
tp1045
bag22
(g23
(I0
tp1046
g25
tp1047
Rp1048
(I1
(I3
tp1049
g175
I00
S'<X\x9fw\x84\xcd\xfd?.i\xa7"\x03\xb3\x19\xc0O\x9fL;j\xc6\xf8?'
p1050
tp1051
bag22
(g23
(I0
tp1052
g25
tp1053
Rp1054
(I1
(I3
tp1055
g175
I00
S'\xa4\xdb\xedzhT\x02@U\xa6i\xddk\x1b\x19\xc0\x07x\xf3\xe9\x87`\x03@'
p1056
tp1057
basg696
I00
ssg47
(lp1058
g22
(g23
(I0
tp1059
g25
tp1060
Rp1061
(I1
(I3
tp1062
g175
I00
S'ja\xd2\xf3\x9a8\x0b@|\xc8$\xe1\xa6\xfa\x1a\xc0\x0f!\xfb\xb5\xcds\x05@'
p1063
tp1064
bag22
(g23
(I0
tp1065
g25
tp1066
Rp1067
(I1
(I3
tp1068
g186
I00
S'\x82PU+O\xe4\n@~_\xe5t\xa53\x1a\xc0\xc63\xe2"\x04\x7f\x01@'
p1069
tp1070
bag22
(g23
(I0
tp1071
g25
tp1072
Rp1073
(I1
(I3
tp1074
g186
I00
S'\xd8\xd6B\xff\x18\xb2\x05@\xf2%;\x9a\xab\xd5\x18\xc0\xce\xc8,\xa0\x8a\x9a\x00@'
p1075
tp1076
bag1054
asbssS'mc_paths'
p1077
(dp1078
sS'robot'
p1079
NsS'reachable_obj_region_pairs'
p1080
(lp1081
(g323
g166
tp1082
asS'sampled_pick_configs_for_objects'
p1083
(dp1084
sS'mc_calls'
p1085
I0
sS'pick_poses'
p1086
g667
sS'problem_env'
p1087
NsS'evaluations'
p1088
(dp1089
(g413
g527
g166
tp1090
I00
s(g374
g527
g166
tp1091
I00
s(g527
g470
g166
tp1092
I00
s(g272
g374
g166
tp1093
I01
s(g470
g323
g166
tp1094
I01
s(g227
g374
g166
tp1095
I00
s(g323
g165
g166
tp1096
I00
s(g470
g527
g166
tp1097
I00
s(g272
g227
g166
tp1098
I00
s(g374
g323
g166
tp1099
I01
s(g413
g323
g166
tp1100
I01
s(g413
g272
g166
tp1101
I01
s(g374
g165
g166
tp1102
I00
s(g272
g470
g166
tp1103
I00
s(g470
g165
g166
tp1104
I01
s(g227
g470
g166
tp1105
I00
s(g323
g527
g166
tp1106
I00
s(g470
g227
g166
tp1107
I01
s(g527
g413
g166
tp1108
I00
s(g165
g323
g166
tp1109
I01
s(g227
g413
g166
tp1110
I00
s(g470
g272
g166
tp1111
I00
s(g527
g323
g166
tp1112
I01
s(g165
g272
g166
tp1113
I00
s(g527
g227
g166
tp1114
I00
s(g272
g413
g166
tp1115
I01
s(g323
g413
g166
tp1116
I00
s(g165
g470
g166
tp1117
I00
s(g165
g413
g166
tp1118
I00
s(g470
g413
g166
tp1119
I00
s(g227
g527
g166
tp1120
I00
s(g272
g527
g166
tp1121
I00
s(g413
g227
g166
tp1122
I00
s(g374
g413
g166
tp1123
I00
s(g227
g272
g166
tp1124
I00
s(g165
g227
g166
tp1125
I01
s(g374
g272
g166
tp1126
I01
s(g470
g374
g166
tp1127
I00
s(g323
g374
g166
tp1128
I00
s(g374
g227
g166
tp1129
I00
s(g227
g165
g166
tp1130
I00
s(g323
g470
g166
tp1131
I00
s(g374
g470
g166
tp1132
I00
s(g272
g165
g166
tp1133
I00
s(g413
g470
g166
tp1134
I00
s(g413
g165
g166
tp1135
I00
s(g165
g527
g166
tp1136
I00
s(g527
g374
g166
tp1137
I01
s(g272
g323
g166
tp1138
I01
s(g323
g227
g166
tp1139
I00
s(g227
g323
g166
tp1140
I01
s(g323
g272
g166
tp1141
I00
s(g527
g272
g166
tp1142
I00
s(g165
g374
g166
tp1143
I00
s(g527
g165
g166
tp1144
I00
s(g413
g374
g166
tp1145
I01
ssS'paths_to_reachable_entities'
p1146
NsS'use_shortest_path'
p1147
I01
sbsS'ternary_edges'
p1148
(dp1149
(g527
g527
g166
tp1150
(lp1151
I00
as(g323
S'loading_region'
p1152
g1152
tp1153
(lp1154
I00
as(S'entire_region'
p1155
g413
g166
tp1156
(lp1157
I00
as(g374
g227
g1152
tp1158
(lp1159
I00
as(g166
g166
g166
tp1160
(lp1161
I00
as(g227
g527
g1152
tp1162
(lp1163
I00
as(g323
g165
g166
tp1164
(lp1165
I00
as(g166
g272
g166
tp1166
(lp1167
I00
as(g374
g323
g166
tp1168
(lp1169
I01
as(g165
g272
g1152
tp1170
(lp1171
I00
as(g166
g227
g1152
tp1172
(lp1173
I00
as(g374
g1155
g166
tp1174
(lp1175
I00
as(g1152
g166
g1152
tp1176
(lp1177
I00
as(g272
g470
g166
tp1178
(lp1179
I00
as(g227
g1155
g166
tp1180
(lp1181
I00
as(g374
g413
g1152
tp1182
(lp1183
I00
as(g470
g1152
g166
tp1184
(lp1185
I00
as(g1155
g527
g1152
tp1186
(lp1187
I00
as(g166
g1155
g166
tp1188
(lp1189
I00
as(g527
g1152
g166
tp1190
(lp1191
I00
as(g470
g1155
g166
tp1192
(lp1193
I00
as(g323
g323
g1152
tp1194
(lp1195
I00
as(g1152
g227
g1152
tp1196
(lp1197
I00
as(g1155
g1152
g166
tp1198
(lp1199
I00
as(g1155
g374
g166
tp1200
(lp1201
I00
as(g1152
g1152
g166
tp1202
(lp1203
I00
as(g470
g272
g1152
tp1204
(lp1205
I00
as(g166
g166
g1152
tp1206
(lp1207
I00
as(g413
g374
g1152
tp1208
(lp1209
I00
as(g527
g227
g166
tp1210
(lp1211
I00
as(g470
g323
g166
tp1212
(lp1213
I01
as(g413
g166
g1152
tp1214
(lp1215
I00
as(g166
g527
g1152
tp1216
(lp1217
I00
as(g413
g165
g1152
tp1218
(lp1219
I00
as(g165
g413
g166
tp1220
(lp1221
I00
as(g1152
g323
g1152
tp1222
(lp1223
I00
as(g227
g374
g1152
tp1224
(lp1225
I00
as(g527
g527
g1152
tp1226
(lp1227
I00
as(g1155
g227
g166
tp1228
(lp1229
I00
as(g1152
g166
g166
tp1230
(lp1231
I00
as(g272
g527
g166
tp1232
(lp1233
I00
as(g166
g165
g166
tp1234
(lp1235
I00
as(g374
g413
g166
tp1236
(lp1237
I00
as(g165
g227
g166
tp1238
(lp1239
I01
as(g323
g165
g1152
tp1240
(lp1241
I00
as(g470
g374
g166
tp1242
(lp1243
I00
as(g374
g323
g1152
tp1244
(lp1245
I00
as(g374
g527
g1152
tp1246
(lp1247
I00
as(g1155
g374
g1152
tp1248
(lp1249
I00
as(g1152
g165
g1152
tp1250
(lp1251
I00
as(g1155
g166
g166
tp1252
(lp1253
I00
as(g272
g166
g166
tp1254
(lp1255
I00
as(g1152
g1155
g166
tp1256
(lp1257
I00
as(g527
g227
g1152
tp1258
(lp1259
I00
as(g470
g527
g1152
tp1260
(lp1261
I00
as(g470
g470
g166
tp1262
(lp1263
I00
as(g413
g165
g166
tp1264
(lp1265
I00
as(g1155
g527
g166
tp1266
(lp1267
I00
as(g413
g1152
g1152
tp1268
(lp1269
I00
as(g227
g323
g166
tp1270
(lp1271
I01
as(g323
g323
g166
tp1272
(lp1273
I00
as(g323
g272
g166
tp1274
(lp1275
I00
as(g272
g527
g1152
tp1276
(lp1277
I00
as(g227
g413
g1152
tp1278
(lp1279
I00
as(g470
g272
g166
tp1280
(lp1281
I00
as(g413
g374
g166
tp1282
(lp1283
I01
as(g527
g413
g1152
tp1284
(lp1285
I00
as(g413
g166
g166
tp1286
(lp1287
I00
as(g374
g527
g166
tp1288
(lp1289
I00
as(g527
g470
g166
tp1290
(lp1291
I00
as(g165
g413
g1152
tp1292
(lp1293
I00
as(g166
g374
g1152
tp1294
(lp1295
I00
as(g1155
g166
g1152
tp1296
(lp1297
I00
as(g1155
g227
g1152
tp1298
(lp1299
I00
as(g470
g527
g166
tp1300
(lp1301
I00
as(g165
g470
g1152
tp1302
(lp1303
I00
as(g527
g1155
g1152
tp1304
(lp1305
I00
as(g413
g1152
g166
tp1306
(lp1307
I00
as(g470
g374
g1152
tp1308
(lp1309
I00
as(g470
g413
g1152
tp1310
(lp1311
I00
as(g227
g323
g1152
tp1312
(lp1313
I00
as(g166
g165
g1152
tp1314
(lp1315
I00
as(g1155
g470
g1152
tp1316
(lp1317
I00
as(g1152
g165
g166
tp1318
(lp1319
I00
as(g1152
g374
g1152
tp1320
(lp1321
I00
as(g527
g413
g166
tp1322
(lp1323
I00
as(g227
g413
g166
tp1324
(lp1325
I00
as(g1152
g470
g166
tp1326
(lp1327
I00
as(g527
g470
g1152
tp1328
(lp1329
I00
as(g527
g272
g1152
tp1330
(lp1331
I00
as(g165
g227
g1152
tp1332
(lp1333
I00
as(g323
g272
g1152
tp1334
(lp1335
I00
as(g413
g470
g1152
tp1336
(lp1337
I00
as(g166
g323
g1152
tp1338
(lp1339
I00
as(g165
g1152
g1152
tp1340
(lp1341
I00
as(g272
g166
g1152
tp1342
(lp1343
I00
as(g323
g413
g166
tp1344
(lp1345
I00
as(g527
g1155
g166
tp1346
(lp1347
I00
as(g272
g374
g1152
tp1348
(lp1349
I00
as(g165
g527
g1152
tp1350
(lp1351
I00
as(g470
g413
g166
tp1352
(lp1353
I00
as(g227
g1152
g1152
tp1354
(lp1355
I00
as(g374
g166
g166
tp1356
(lp1357
I00
as(g227
g272
g166
tp1358
(lp1359
I00
as(g166
g470
g1152
tp1360
(lp1361
I00
as(g1152
g413
g1152
tp1362
(lp1363
I00
as(g1152
g470
g1152
tp1364
(lp1365
I00
as(g323
g470
g166
tp1366
(lp1367
I00
as(g413
g470
g166
tp1368
(lp1369
I00
as(g323
g413
g1152
tp1370
(lp1371
I00
as(g165
g527
g166
tp1372
(lp1373
I00
as(g527
g374
g166
tp1374
(lp1375
I01
as(g165
g166
g1152
tp1376
(lp1377
I00
as(g227
g1152
g166
tp1378
(lp1379
I00
as(g1152
g272
g1152
tp1380
(lp1381
I00
as(g527
g272
g166
tp1382
(lp1383
I00
as(g165
g165
g166
tp1384
(lp1385
I00
as(g272
g272
g166
tp1386
(lp1387
I00
as(g272
g165
g1152
tp1388
(lp1389
I00
as(g165
g1152
g166
tp1390
(lp1391
I00
as(g470
g227
g166
tp1392
(lp1393
I01
as(g272
g374
g166
tp1394
(lp1395
I01
as(g374
g1152
g1152
tp1396
(lp1397
I00
as(g165
g1155
g1152
tp1398
(lp1399
I00
as(g374
g166
g1152
tp1400
(lp1401
I00
as(g323
g374
g1152
tp1402
(lp1403
I00
as(g227
g272
g1152
tp1404
(lp1405
I00
as(g470
g166
g1152
tp1406
(lp1407
I00
as(g165
g166
g166
tp1408
(lp1409
I00
as(g1152
g272
g166
tp1410
(lp1411
I00
as(g413
g413
g166
tp1412
(lp1413
I00
as(g1152
g227
g166
tp1414
(lp1415
I00
as(g227
g470
g166
tp1416
(lp1417
I00
as(g323
g527
g166
tp1418
(lp1419
I00
as(g323
g470
g1152
tp1420
(lp1421
I00
as(g272
g323
g1152
tp1422
(lp1423
I00
as(g166
g374
g166
tp1424
(lp1425
I00
as(g1155
g165
g1152
tp1426
(lp1427
I00
as(g165
g323
g166
tp1428
(lp1429
I01
as(g413
g1155
g166
tp1430
(lp1431
I00
as(g470
g227
g1152
tp1432
(lp1433
I00
as(g470
g165
g1152
tp1434
(lp1435
I00
as(g272
g413
g166
tp1436
(lp1437
I01
as(g527
g374
g1152
tp1438
(lp1439
I00
as(g272
g1152
g166
tp1440
(lp1441
I00
as(g165
g1155
g166
tp1442
(lp1443
I00
as(g227
g165
g1152
tp1444
(lp1445
I00
as(g527
g323
g166
tp1446
(lp1447
I01
as(g470
g323
g1152
tp1448
(lp1449
I00
as(g227
g227
g1152
tp1450
(lp1451
I00
as(g272
g272
g1152
tp1452
(lp1453
I00
as(g413
g413
g1152
tp1454
(lp1455
I00
as(g323
g227
g1152
tp1456
(lp1457
I00
as(g227
g374
g166
tp1458
(lp1459
I00
as(g1155
g323
g166
tp1460
(lp1461
I00
as(g166
g1155
g1152
tp1462
(lp1463
I00
as(g166
g413
g1152
tp1464
(lp1465
I00
as(g374
g1152
g166
tp1466
(lp1467
I00
as(g323
g527
g1152
tp1468
(lp1469
I00
as(g413
g323
g1152
tp1470
(lp1471
I00
as(g165
g165
g1152
tp1472
(lp1473
I00
as(g1155
g165
g166
tp1474
(lp1475
I00
as(g374
g165
g1152
tp1476
(lp1477
I00
as(g413
g1155
g1152
tp1478
(lp1479
I00
as(g323
g374
g166
tp1480
(lp1481
I00
as(g272
g413
g1152
tp1482
(lp1483
I00
as(g272
g165
g166
tp1484
(lp1485
I00
as(g227
g165
g166
tp1486
(lp1487
I00
as(g323
g166
g1152
tp1488
(lp1489
I00
as(g374
g470
g166
tp1490
(lp1491
I00
as(g470
g470
g1152
tp1492
(lp1493
I00
as(g272
g1155
g166
tp1494
(lp1495
I00
as(g1152
g1155
g1152
tp1496
(lp1497
I00
as(g227
g470
g1152
tp1498
(lp1499
I00
as(g1152
g413
g166
tp1500
(lp1501
I00
as(g1155
g1155
g1152
tp1502
(lp1503
I00
as(g272
g323
g166
tp1504
(lp1505
I01
as(g323
g227
g166
tp1506
(lp1507
I00
as(g1152
g527
g1152
tp1508
(lp1509
I00
as(g165
g323
g1152
tp1510
(lp1511
I00
as(g470
g166
g166
tp1512
(lp1513
I00
as(g1155
g323
g1152
tp1514
(lp1515
I00
as(g470
g165
g166
tp1516
(lp1517
I01
as(g165
g374
g166
tp1518
(lp1519
I00
as(g272
g1152
g1152
tp1520
(lp1521
I00
as(g527
g323
g1152
tp1522
(lp1523
I00
as(g413
g527
g166
tp1524
(lp1525
I00
as(g1155
g1152
g1152
tp1526
(lp1527
I00
as(g1152
g527
g166
tp1528
(lp1529
I00
as(g323
g1155
g166
tp1530
(lp1531
I00
as(g374
g470
g1152
tp1532
(lp1533
I00
as(g374
g272
g1152
tp1534
(lp1535
I00
as(g227
g166
g166
tp1536
(lp1537
I00
as(g272
g1155
g1152
tp1538
(lp1539
I00
as(g272
g227
g166
tp1540
(lp1541
I00
as(g1155
g272
g1152
tp1542
(lp1543
I00
as(g166
g413
g166
tp1544
(lp1545
I00
as(g166
g470
g166
tp1546
(lp1547
I00
as(g413
g323
g166
tp1548
(lp1549
I01
as(g413
g272
g166
tp1550
(lp1551
I01
as(g1155
g470
g166
tp1552
(lp1553
I00
as(g374
g165
g166
tp1554
(lp1555
I00
as(g374
g374
g1152
tp1556
(lp1557
I00
as(g413
g227
g1152
tp1558
(lp1559
I00
as(g227
g166
g1152
tp1560
(lp1561
I00
as(g527
g166
g166
tp1562
(lp1563
I00
as(g323
g166
g166
tp1564
(lp1565
I00
as(g413
g527
g1152
tp1566
(lp1567
I00
as(g227
g527
g166
tp1568
(lp1569
I00
as(g166
g1152
g166
tp1570
(lp1571
I00
as(g1155
g1155
g166
tp1572
(lp1573
I00
as(g527
g165
g1152
tp1574
(lp1575
I00
as(g323
g1155
g1152
tp1576
(lp1577
I00
as(g1152
g374
g166
tp1578
(lp1579
I00
as(g165
g272
g166
tp1580
(lp1581
I00
as(g1155
g272
g166
tp1582
(lp1583
I00
as(g323
g1152
g166
tp1584
(lp1585
I00
as(g165
g374
g1152
tp1586
(lp1587
I00
as(g166
g323
g166
tp1588
(lp1589
I00
as(g1155
g413
g1152
tp1590
(lp1591
I00
as(g227
g1155
g1152
tp1592
(lp1593
I00
as(g374
g374
g166
tp1594
(lp1595
I00
as(g413
g227
g166
tp1596
(lp1597
I00
as(g470
g1155
g1152
tp1598
(lp1599
I00
as(g374
g272
g166
tp1600
(lp1601
I01
as(g166
g227
g166
tp1602
(lp1603
I00
as(g165
g470
g166
tp1604
(lp1605
I00
as(g272
g227
g1152
tp1606
(lp1607
I00
as(g227
g227
g166
tp1608
(lp1609
I00
as(g413
g272
g1152
tp1610
(lp1611
I00
as(g374
g227
g166
tp1612
(lp1613
I00
as(g470
g1152
g1152
tp1614
(lp1615
I00
as(g166
g527
g166
tp1616
(lp1617
I00
as(g527
g1152
g1152
tp1618
(lp1619
I00
as(g166
g272
g1152
tp1620
(lp1621
I00
as(g527
g166
g1152
tp1622
(lp1623
I00
as(g1152
g1152
g1152
tp1624
(lp1625
I00
as(g374
g1155
g1152
tp1626
(lp1627
I00
as(g272
g470
g1152
tp1628
(lp1629
I00
as(g166
g1152
g1152
tp1630
(lp1631
I00
as(g527
g165
g166
tp1632
(lp1633
I00
as(g1152
g323
g166
tp1634
(lp1635
I00
assg666
g667
sS'use_prm'
p1636
I01
sS'object_names'
p1637
(lp1638
S'square_packing_box1'
p1639
aS'rectangular_packing_box1'
p1640
aS'square_packing_box2'
p1641
aS'rectangular_packing_box2'
p1642
aS'square_packing_box3'
p1643
aS'rectangular_packing_box3'
p1644
aS'square_packing_box4'
p1645
aS'rectangular_packing_box4'
p1646
asg1087
NsS'current_holding_collides'
p1647
NsS'object_poses'
p1648
(dp1649
Vrectangular_packing_box4
p1650
g22
(g23
(I0
tp1651
g25
tp1652
Rp1653
(I1
(I1
I3
tp1654
g175
I00
S'\x88y\xbdP\x1e`\xb2\xbf~vq\xb6\x82\xfe\x1a\xc0l\x9b\xd1!3\xfb\x17@'
p1655
tp1656
bsVrectangular_packing_box2
p1657
g22
(g23
(I0
tp1658
g25
tp1659
Rp1660
(I1
(I1
I3
tp1661
g175
I00
S'Q\xb1\xd4NC\xf7\x04@\xd9)\xd4\xf6\xed8\x1c\xc0W\x89\x15\x86\x970\xd6?'
p1662
tp1663
bsVrectangular_packing_box3
p1664
g22
(g23
(I0
tp1665
g25
tp1666
Rp1667
(I1
(I1
I3
tp1668
g175
I00
S'.\xca\x8d\xa4\xfc\x98\x03@\xd3\x1a\x91\xf594\x16\xc0\xa5\xc5dCc\x8d\x11@'
p1669
tp1670
bsVrectangular_packing_box1
p1671
g22
(g23
(I0
tp1672
g25
tp1673
Rp1674
(I1
(I1
I3
tp1675
g175
I00
S'\x84\x14\xed\x1c\xa3,\xd7?\xed\x94\x92\xc4\xff\x11\x1e\xc0\xac\x1c\xcb\x0e\xb4\xb5\x13@'
p1676
tp1677
bsVsquare_packing_box2
p1678
g22
(g23
(I0
tp1679
g25
tp1680
Rp1681
(I1
(I1
I3
tp1682
g175
I00
S'\xf4\xa6\xb10\x06\xf2\xe9?\xb8\xb7\xe8KCC\x1b\xc0}\xf1\xf9g=\xb9\x01@'
p1683
tp1684
bsVsquare_packing_box3
p1685
g22
(g23
(I0
tp1686
g25
tp1687
Rp1688
(I1
(I1
I3
tp1689
g175
I00
S'\x16\xcf0V\x19\xdf\n@\xd9"\xa0b%\xbe\x16\xc0\xebO\xc9\x19\x9a\xe8\x01@'
p1690
tp1691
bsVsquare_packing_box1
p1692
g22
(g23
(I0
tp1693
g25
tp1694
Rp1695
(I1
(I1
I3
tp1696
g175
I00
S'\xb86\xf5\xd3\xcb\xdc\xf1?\x12t~\xef\xe6[\x17\xc0uRW\xd3*a\x17@'
p1697
tp1698
bsVsquare_packing_box4
p1699
g22
(g23
(I0
tp1700
g25
tp1701
Rp1702
(I1
(I1
I3
tp1703
g175
I00
S'\xea\x11\xab4q{\xfd?^f\xbb\x185\x11\x17\xc0\x90i\xf4\xfc\x17\n\x10@'
p1704
tp1705
bssS'reachable_regions_while_holding'
p1706
(lp1707
(g668
g1152
tp1708
a(g626
g1152
tp1709
a(g627
g1152
tp1710
a(g826
g1152
tp1711
a(g628
g1152
tp1712
a(g629
g1152
tp1713
a(g12
g1152
tp1714
a(g630
g1152
tp1715
asS'in_region'
p1716
(itrajectory_representation.predicates.in_region
InRegion
p1717
(dp1718
g1087
NsbsS'cached_pick_paths'
p1719
(dp1720
g668
g697
sg626
g764
sg627
g807
sg826
g851
sg628
g900
sg629
g967
sg12
g997
sg630
g1058
ssg631
(dp1721
(Vrectangular_packing_box1
p1722
(cnumpy.core.multiarray
scalar
p1723
(g175
S'\xf5\x83\xbaH\xa1,\xd7?'
p1724
tp1725
Rp1726
g1723
(g175
S'\xad\xa5\x80\xb4\xff\x11\x1e\xc0'
p1727
tp1728
Rp1729
g1723
(g175
S'\xd9Z_$\xb4\xb5\x13@'
p1730
tp1731
Rp1732
tp1733
tp1734
g649
s(Vsquare_packing_box2
p1735
(g1723
(g175
S't`9B\x06\xf2\xe9?'
p1736
tp1737
Rp1738
g1723
(g175
S'a8\xd70CC\x1b\xc0'
p1739
tp1740
Rp1741
g1723
(g175
S'\xb1\xa5GS=\xb9\x01@'
p1742
tp1743
Rp1744
tp1745
tp1746
g653
s(Vsquare_packing_box1
p1747
(g1723
(g175
S'?tA}\xcb\xdc\xf1?'
p1748
tp1749
Rp1750
g1723
(g175
S'\x90\x86S\xe6\xe6[\x17\xc0'
p1751
tp1752
Rp1753
g1723
(g175
S'\xa9\xde\x1a\xd8*a\x17@'
p1754
tp1755
Rp1756
tp1757
tp1758
g661
s(Vrectangular_packing_box3
p1759
(g1723
(g175
S'\xf6\xd3\x7f\xd6\xfc\x98\x03@'
p1760
tp1761
Rp1762
g1723
(g175
S'T\x1fH\xde94\x16\xc0'
p1763
tp1764
Rp1765
g1723
(g175
S',\xb6IEc\x8d\x11@'
p1766
tp1767
Rp1768
tp1769
tp1770
g645
s(Vsquare_packing_box4
p1771
(g1723
(g175
S'\x91dV\xefp{\xfd?'
p1772
tp1773
Rp1774
g1723
(g175
S'\x97\xc4Y\x115\x11\x17\xc0'
p1775
tp1776
Rp1777
g1723
(g175
S'\xf4\x8b\x12\xf4\x17\n\x10@'
p1778
tp1779
Rp1780
tp1781
tp1782
g665
s(Vrectangular_packing_box2
p1783
(g1723
(g175
S'C\x1f,cC\xf7\x04@'
p1784
tp1785
Rp1786
g1723
(g175
S'\xd4HK\xe5\xed8\x1c\xc0'
p1787
tp1788
Rp1789
g1723
(g175
S'\xf4\xfe?N\x980\xd6?'
p1790
tp1791
Rp1792
tp1793
tp1794
g641
s(Vrectangular_packing_box4
p1795
(g1723
(g175
S'-"\x8a\xc9\x1b`\xb2\xbf'
p1796
tp1797
Rp1798
g1723
(g175
S'\xdb4\xb6\xd7\x82\xfe\x1a\xc0'
p1799
tp1800
Rp1801
g1723
(g175
S'\xf2C\xa5\x113\xfb\x17@'
p1802
tp1803
Rp1804
tp1805
tp1806
g637
s(Vsquare_packing_box3
p1807
(g1723
(g175
S':\x1e3P\x19\xdf\n@'
p1808
tp1809
Rp1810
g1723
(g175
S'd\xe8\xd8A%\xbe\x16\xc0'
p1811
tp1812
Rp1813
g1723
(g175
S'F%u\x02\x9a\xe8\x01@'
p1814
tp1815
Rp1816
tp1817
tp1818
g657
ssS'state_saver'
p1819
(igtamp_utils.utils
CustomStateSaver
p1820
(dp1821
S'robot_base_pose'
p1822
g22
(g23
(I0
tp1823
g25
tp1824
Rp1825
(I1
(I1
I3
tp1826
g175
I00
S'ja\xd2\xf3\x9a8\x0b@~\xc8$\xe1\xa6\xfa\x1a\xc0\x0f!\xfb\xb5\xcds\x05@'
p1827
tp1828
bsS'held_object'
p1829
NsS'robot_name'
p1830
S'pr2'
p1831
sS'env_id'
p1832
I1
sg1648
(dp1833
Vright_wall_1
p1834
g22
(g23
(I0
tp1835
g25
tp1836
Rp1837
(I1
(I4
tp1838
g175
I00
S'H\xe1z\x14\xaeG\x12@&\\\x8f\xc2\xf5(\xd4\xbf\xcc\x7fH\xbf}\x1d\xed?\x00\x00\x00\x00\x00\x00\x00\x00'
p1839
tp1840
bsVc_obst5
p1841
g22
(g23
(I0
tp1842
g25
tp1843
Rp1844
(I1
(I4
tp1845
g175
I00
S"\xc0\xcab\xff\x1f\xa0\x12@\xae\xbb'\xee\xe5\x9e\xd1?e\xaa`TR'\xed?7\xa8\x1c\n\xe5\xdd\xd5?"
p1846
tp1847
bsVentrance_right
p1848
g22
(g23
(I0
tp1849
g25
tp1850
Rp1851
(I1
(I4
tp1852
g175
I00
S'ffffff\n@H\xe1z\x14\xaeG\t\xc0\x9c\xc4 \xb0rh\xc1?\x00\x00\x00\x00\x00\x00\x00\x00'
p1853
tp1854
bsVcomputer_table
p1855
g22
(g23
(I0
tp1856
g25
tp1857
Rp1858
(I1
(I4
tp1859
g175
I00
S'\x00\x00\x00\x00\x00\x00\x13@\x00\x00\x00\x00\x00\x00\xf8\xbf\x96C\x8bl\xe7\xfb\xe7?\xd2!3\x7f|\xd9\x12@'
p1860
tp1861
bsVchair_6b56
p1862
g22
(g23
(I0
tp1863
g25
tp1864
Rp1865
(I1
(I4
tp1866
g175
I00
S'u=\n\xd7\xa3p\xf5?K\xe1z\x14\xaeG\xd1?\x00\x00\x00\x00\x00\x00\x00\x00\xd6$\xfaNBm\n@'
p1867
tp1868
bsVsquare_packing_box3
p1869
g22
(g23
(I0
tp1870
g25
tp1871
Rp1872
(I1
(I4
tp1873
g175
I00
S'\x1b\xcf0V\x19\xdf\n@\xde"\xa0b%\xbe\x16\xc0L7\x89A`\xe5\xd8?\xebO\xc9\x19\x9a\xe8\x01@'
p1874
tp1875
bsVsquare_packing_box2
p1876
g22
(g23
(I0
tp1877
g25
tp1878
Rp1879
(I1
(I4
tp1880
g175
I00
S'\x0c\xa7\xb10\x06\xf2\xe9?\xc3\xb7\xe8KCC\x1b\xc0L7\x89A`\xe5\xd8?}\xf1\xf9g=\xb9\x01@'
p1881
tp1882
bsVtable
p1883
g22
(g23
(I0
tp1884
g25
tp1885
Rp1886
(I1
(I4
tp1887
g175
I00
S'\x7f\xf6#EdX\xed?\xac\xffs\x98//\xc0\xbf\x00\x00\x00\x00\x00\x00\x00\x00\x00\x00\x00\x00\x00\x00\x00\x00'
p1888
tp1889
bsVsquare_packing_box1
p1890
g22
(g23
(I0
tp1891
g25
tp1892
Rp1893
(I1
(I4
tp1894
g175
I00
S'\xb86\xf5\xd3\xcb\xdc\xf1?\x12t~\xef\xe6[\x17\xc0L7\x89A`\xe5\xd8?uRW\xd3*a\x17@'
p1895
tp1896
bsVback_wall_2
p1897
g22
(g23
(I0
tp1898
g25
tp1899
Rp1900
(I1
(I4
tp1901
g175
I00
S'\xaeG\xe1z\x14.\x13@\x80\x14\xaeG\xe1z\xc4?xX\xa85\xcd\xbb\xf2?\x00\x00\x00\x00\x00\x00\x00\x00'
p1902
tp1903
bsVchair_083c
p1904
g22
(g23
(I0
tp1905
g25
tp1906
Rp1907
(I1
(I4
tp1908
g175
I00
S'\xa4p=\n\xd7\xa3\xe0?333333\xe3\xbf\x00\x00\x00\x00\x00\x00\x00\x00\x00\x00\x00\x00\x00\x00\x00\x00'
p1909
tp1910
bsVback_wall_1
p1911
g22
(g23
(I0
tp1912
g25
tp1913
Rp1914
(I1
(I4
tp1915
g175
I00
S'\xaeG\xe1z\x14.\x13@\x80\x14\xaeG\xe1z\xc4?\xcc\x7fH\xbf}\x1d\xed?\x00\x00\x00\x00\x00\x00\x00\x00'
p1916
tp1917
bsVbottom_wall
p1918
g22
(g23
(I0
tp1919
g25
tp1920
Rp1921
(I1
(I4
tp1922
g175
I00
S'\x00\x00\x00\x00\x00\x00\xfc?\x00\x00\x00\x00\x00\x00\x00\x00\x00\x00\x00\x00\x00\x00\x00\x00\x00\x00\x00\x00\x00\x00\x00\x00'
p1923
tp1924
bsVcup_905a
p1925
g22
(g23
(I0
tp1926
g25
tp1927
Rp1928
(I1
(I4
tp1929
g175
I00
S'\x00\x00\x00\x00\x00\x00\xf0?\x83\xc0\xca\xa1E\xb6\xdb?\x1b/\xdd$\x06\x81\xed?\x00\x00\x00\x00\x00\x00\x00\x00'
p1930
tp1931
bsVplate_496f
p1932
g22
(g23
(I0
tp1933
g25
tp1934
Rp1935
(I1
(I4
tp1936
g175
I00
S"q=\n\xd7\xa3p\xe5?\x9dhW!\xe5'\xdd\xbf\x1b/\xdd$\x06\x81\xed?\x00\x00\x00\x00\x00\x00\x00\x00"
p1937
tp1938
bsVtoaster
p1939
g22
(g23
(I0
tp1940
g25
tp1941
Rp1942
(I1
(I4
tp1943
g175
I00
S')\\\x8f\xc2\xf5(\xf4\xbf\xe0z\x14\xaeG\xe1\xf2\xbf\xb8\x1e\x85\xebQ\xb8\xee?\x89/`\x9b\xf8\x8a\xe4?'
p1944
tp1945
bsVc_obst1
p1946
g22
(g23
(I0
tp1947
g25
tp1948
Rp1949
(I1
(I4
tp1950
g175
I00
S"\xc4\xa1\x99\xb4!\x07\x12@ \x9epf9\x8c\x93\xbfe\xaa`TR'\xed?06\xa3\xe9\xd5j\x0b@"
p1951
tp1952
bsVrectangular_packing_box4
p1953
g22
(g23
(I0
tp1954
g25
tp1955
Rp1956
(I1
(I4
tp1957
g175
I00
S'\x8ey\xbdP\x1e`\xb2\xbf~vq\xb6\x82\xfe\x1a\xc0L7\x89A`\xe5\xd8?l\x9b\xd1!3\xfb\x17@'
p1958
tp1959
bsVmicrowave
p1960
g22
(g23
(I0
tp1961
g25
tp1962
Rp1963
(I1
(I4
tp1964
g175
I00
S'\x9a\x99\x99\x99\x99\x99\xf1\xbf\x00\x00\x00\x00\x00\x00\x00@7\x89A`\xe5\xd0\xee?\x00\x00\x00\x00\x00\x00\x00\x00'
p1965
tp1966
bsVc_obst7
p1967
g22
(g23
(I0
tp1968
g25
tp1969
Rp1970
(I1
(I4
tp1971
g175
I00
S"0\x1b\x81\xac\x9cj\x12@xg\xc1\x97\x91\x00\xa6?e\xaa`TR'\xed?\xdb\xdc#l\xf2\x7f\xf1?"
p1972
tp1973
bsVc_obst6
p1974
g22
(g23
(I0
tp1975
g25
tp1976
Rp1977
(I1
(I4
tp1978
g175
I00
S'"\x16\xf9\xbc\xe0u\x12@\x86\xd6\xa5\xca\xbe&\xb9\xbfe\xaa`TR\'\xed?\x1c\xbc\x00\xc2\xba\xd8\x14@'
p1979
tp1980
bsVcup_b6af
p1981
g22
(g23
(I0
tp1982
g25
tp1983
Rp1984
(I1
(I4
tp1985
g175
I00
S'R\xb8\x1e\x85\xebQ\xe8?\x9a\x99\x99\x99\x99\x99\xe1?\x1b/\xdd$\x06\x81\xed?\x00\x00\x00\x00\x00\x00\x00\x00'
p1986
tp1987
bsVc_obst4
p1988
g22
(g23
(I0
tp1989
g25
tp1990
Rp1991
(I1
(I4
tp1992
g175
I00
S"\x91E\xb4\xc8\xb2I\x12@\xa0ht\x0b\x84\x85\xc4?e\xaa`TR'\xed?*\xf9,/\x04\x0b\x0f@"
p1993
tp1994
bsVrectangular_packing_box2
p1995
g22
(g23
(I0
tp1996
g25
tp1997
Rp1998
(I1
(I4
tp1999
g175
I00
S'Q\xb1\xd4NC\xf7\x04@\xdb)\xd4\xf6\xed8\x1c\xc0L7\x89A`\xe5\xd8?W\x89\x15\x86\x970\xd6?'
p2000
tp2001
bsVplate_fa76
p2002
g22
(g23
(I0
tp2003
g25
tp2004
Rp2005
(I1
(I4
tp2006
g175
I00
S'=\n\xd7\xa3p=\xf2?\x00\x00\x00\x00\x00\x00\x00\x00\x1b/\xdd$\x06\x81\xed?\x00\x00\x00\x00\x00\x00\x00\x00'
p2007
tp2008
bsVfloorwalls
p2009
g22
(g23
(I0
tp2010
g25
tp2011
Rp2012
(I1
(I4
tp2013
g175
I00
S'\xc7\xcc\xcc\xcc\xcc\xcc\xfc?\x00\x00\x00\x00\x00\x00\x18\xc0H\xe1z\x14\xaeG\xc1?\x16-DT\xfb!\xf9?'
p2014
tp2015
bsVpin_c671
p2016
g22
(g23
(I0
tp2017
g25
tp2018
Rp2019
(I1
(I4
tp2020
g175
I00
S'\xc3\xf5(\\\x8f\xc2\xf1\xbf}?5^\xbaI\x02@\xb8\x1e\x85\xebQ\xb8\xfa?\x00\x00\x00\x00\x00\x00\x00\x00'
p2021
tp2022
bsVc_obst3
p2023
g22
(g23
(I0
tp2024
g25
tp2025
Rp2026
(I1
(I4
tp2027
g175
I00
S'\x9e\xae\x04\x0c\xd9\n\x12@L\xcf\x93\r"\xb9\xdf?e\xaa`TR\'\xed?\x8a`\\\x15.\xbe\x15@'
p2028
tp2029
bsVchair_2e39
p2030
g22
(g23
(I0
tp2031
g25
tp2032
Rp2033
(I1
(I4
tp2034
g175
I00
S'hfffff\xee?cfffff\xf2\xbf\x00\x00\x00\x00\x00\x00\x00\x00\x07M\xe8QQF\xf3?'
p2035
tp2036
bsVentrance_left
p2037
g22
(g23
(I0
tp2038
g25
tp2039
Rp2040
(I1
(I4
tp2041
g175
I00
S'\x98\x99\x99\x99\x99\x99\xe9\xbfH\xe1z\x14\xaeG\t\xc0\x9c\xc4 \xb0rh\xc1?\x00\x00\x00\x00\x00\x00\x00\x00'
p2042
tp2043
bsVtop_wall_1
p2044
g22
(g23
(I0
tp2045
g25
tp2046
Rp2047
(I1
(I4
tp2048
g175
I00
S'H\xe1z\x14\xaeG\x12@\x80\x14\xaeG\xe1z\xc4?xX\xa85\xcd\xbb\xf2?\x00\x00\x00\x00\x00\x00\x00\x00'
p2049
tp2050
bsVrectangular_packing_box3
p2051
g22
(g23
(I0
tp2052
g25
tp2053
Rp2054
(I1
(I4
tp2055
g175
I00
S'.\xca\x8d\xa4\xfc\x98\x03@\xd3\x1a\x91\xf594\x16\xc0L7\x89A`\xe5\xd8?\xa5\xc5dCc\x8d\x11@'
p2056
tp2057
bsVshaker
p2058
g22
(g23
(I0
tp2059
g25
tp2060
Rp2061
(I1
(I4
tp2062
g175
I00
S'\n\xd7\xa3p=\n\x01@\x14\xaeG\xe1z\x14\x02@\\\x8f\xc2\xf5(\\\xef?\x00\x00\x00\x00\x00\x00\x00\x00'
p2063
tp2064
bsVc_obst9
p2065
g22
(g23
(I0
tp2066
g25
tp2067
Rp2068
(I1
(I4
tp2069
g175
I00
S"\xde\xc0\x06\x81\xb1\x1e\x12@}G0\x1d;\x1f\xca?e\xaa`TR'\xed?\xf8pN\xe8\xa99\xa5?"
p2070
tp2071
bsVplate_835a
p2072
g22
(g23
(I0
tp2073
g25
tp2074
Rp2075
(I1
(I4
tp2076
g175
I00
S'\xf6(\\\x8f\xc2\xf5\xf0?\\\x8f\xc2\xf5(\\\xe7\xbf\x1b/\xdd$\x06\x81\xed?\x00\x00\x00\x00\x00\x00\x00\x00'
p2077
tp2078
bsVcup_58a2
p2079
g22
(g23
(I0
tp2080
g25
tp2081
Rp2082
(I1
(I4
tp2083
g175
I00
S'\x85\xebQ\xb8\x1e\x85\xe3?\xcd\xcc\xcc\xcc\xcc\xcc\xdc?\x1b/\xdd$\x06\x81\xed?\x00\x00\x00\x00\x00\x00\x00\x00'
p2084
tp2085
bsVleft_wall_1
p2086
g22
(g23
(I0
tp2087
g25
tp2088
Rp2089
(I1
(I4
tp2090
g175
I00
S'H\xe1z\x14\xaeG\x12@S\xb8\x1e\x85\xebQ\xe4?\xcc\x7fH\xbf}\x1d\xed?\x00\x00\x00\x00\x00\x00\x00\x00'
p2091
tp2092
bsVc_obst2
p2093
g22
(g23
(I0
tp2094
g25
tp2095
Rp2096
(I1
(I4
tp2097
g175
I00
S"\xae7[2,*\x12@T\xcbVc3\xaf\xbc\xbfe\xaa`TR'\xed?]\x04h \xfe\xe1\xfa?"
p2098
tp2099
bsVsquare_packing_box4
p2100
g22
(g23
(I0
tp2101
g25
tp2102
Rp2103
(I1
(I4
tp2104
g175
I00
S'\xea\x11\xab4q{\xfd?^f\xbb\x185\x11\x17\xc0L7\x89A`\xe5\xd8?\x90i\xf4\xfc\x17\n\x10@'
p2105
tp2106
bsVrectangular_packing_box1
p2107
g22
(g23
(I0
tp2108
g25
tp2109
Rp2110
(I1
(I4
tp2111
g175
I00
S'\xd4\x14\xed\x1c\xa3,\xd7?\xeb\x94\x92\xc4\xff\x11\x1e\xc0L7\x89A`\xe5\xd8?\xac\x1c\xcb\x0e\xb4\xb5\x13@'
p2112
tp2113
bsVpin_371e
p2114
g22
(g23
(I0
tp2115
g25
tp2116
Rp2117
(I1
(I4
tp2118
g175
I00
S'333333\xf3\xbfffffff\xf6?\xb8\x1e\x85\xebQ\xb8\xee?\x00\x00\x00\x00\x00\x00\x00\x00'
p2119
tp2120
bsVfridge
p2121
g22
(g23
(I0
tp2122
g25
tp2123
Rp2124
(I1
(I4
tp2125
g175
I00
S'\xd7\xa3p=\n\xd7\xeb\xbf\x00\x00\x00\x00\x00\x00\x00\xc0\xcd\xcc\xcc\xcc\xcc\xcc\xf8?\x00\x00\x00\x00\x00\x00\x00\x00'
p2126
tp2127
bsVcup_d441
p2128
g22
(g23
(I0
tp2129
g25
tp2130
Rp2131
(I1
(I4
tp2132
g175
I00
S'\n\xd7\xa3p=\n\xef?\x8f\xc2\xf5(\\\x8f\xe2?\x1b/\xdd$\x06\x81\xed?\x00\x00\x00\x00\x00\x00\x00\x00'
p2133
tp2134
bsVshelf2
p2135
g22
(g23
(I0
tp2136
g25
tp2137
Rp2138
(I1
(I4
tp2139
g175
I00
S'\x00\x00\x00\x00\x00\x00\x0e@\xaeG\xe1z\x14\xae\x07@\x9c\xc4 \xb0rh\xc1?\xd2!3\x7f|\xd9\x12@'
p2140
tp2141
bsVtop_wall_2
p2142
g22
(g23
(I0
tp2143
g25
tp2144
Rp2145
(I1
(I4
tp2146
g175
I00
S'H\xe1z\x14\xaeG\x12@\x80\x14\xaeG\xe1z\xc4?\x16HP\xfc\x18\xf3\xfd?\x00\x00\x00\x00\x00\x00\x00\x00'
p2147
tp2148
bsVc_obst0
p2149
g22
(g23
(I0
tp2150
g25
tp2151
Rp2152
(I1
(I4
tp2153
g175
I00
S'"\xa6\xb1+\xf3)\x12@\xc9\x85\x1d\xea\x05\x00\xd4?e\xaa`TR\'\xed?\xee\xcdViG\xee\x12@'
p2154
tp2155
bsVshelf1
p2156
g22
(g23
(I0
tp2157
g25
tp2158
Rp2159
(I1
(I4
tp2160
g175
I00
S'\x00\x00\x00\x00\x00\x00\x13@\xaeG\xe1z\x14\xae\x07@\x9c\xc4 \xb0rh\xc1?\xd2!3\x7f|\xd9\x12@'
p2161
tp2162
bsVsink
p2163
g22
(g23
(I0
tp2164
g25
tp2165
Rp2166
(I1
(I4
tp2167
g175
I00
S'ffffff\xd6?333333\x01@\x9a\x99\x99\x99\x99\x99\xb9\xbf\x00\x00\x00\x00\x00\x00\x00\x00'
p2168
tp2169
bsVpr2
p2170
g22
(g23
(I0
tp2171
g25
tp2172
Rp2173
(I1
(I4
tp2174
g175
I00
S'oa\xd2\xf3\x9a8\x0b@\x84\xc8$\xe1\xa6\xfa\x1a\xc0\x9a_\x94\xa0\xbf\xd0\xc1?\x0f!\xfb\xb5\xcds\x05@'
p2175
tp2176
bsVchair_12d0
p2177
g22
(g23
(I0
tp2178
g25
tp2179
Rp2180
(I1
(I4
tp2181
g175
I00
S'\\\xd2\x18\xad\xa3\xaa\xdb?Of\x83L2r\xc6?\x00\x00\x00\x00\x00\x00\x00\x00\xf8\x81\r\x14M\xa6\x17@'
p2182
tp2183
bsVright_wall_2
p2184
g22
(g23
(I0
tp2185
g25
tp2186
Rp2187
(I1
(I4
tp2188
g175
I00
S'H\xe1z\x14\xaeG\x12@&\\\x8f\xc2\xf5(\xd4\xbfxX\xa85\xcd\xbb\xf2?\x00\x00\x00\x00\x00\x00\x00\x00'
p2189
tp2190
bsVknife_block
p2191
g22
(g23
(I0
tp2192
g25
tp2193
Rp2194
(I1
(I4
tp2195
g175
I00
S'R\xb8\x1e\x85\xebQ\xe0\xbfffffff\x02@`\xe5\xd0"\xdb\xf9\xee?\x00\x00\x00\x00\x00\x00\x00\x00'
p2196
tp2197
bsVleft_wall_2
p2198
g22
(g23
(I0
tp2199
g25
tp2200
Rp2201
(I1
(I4
tp2202
g175
I00
S'H\xe1z\x14\xaeG\x12@S\xb8\x1e\x85\xebQ\xe4?xX\xa85\xcd\xbb\xf2?\x00\x00\x00\x00\x00\x00\x00\x00'
p2203
tp2204
bsVleft_wall
p2205
g22
(g23
(I0
tp2206
g25
tp2207
Rp2208
(I1
(I4
tp2209
g175
I00
S'\x9a\x99\x99\x99\x99\x99\x07@H\xe1z\x14\xaeG\xff?\x9c\xc4 \xb0rh\xc1?\x00\x00\x00\x00\x00\x00\x00\x00'
p2210
tp2211
bsVkitchen
p2212
g22
(g23
(I0
tp2213
g25
tp2214
Rp2215
(I1
(I4
tp2216
g175
I00
S'\x00\x00\x00\x00\x00\x00\x00\x00\x00\x00\x00\x00\x00\x00\x00\x00\x00\x00\x00\x00\x00\x00\x00\x00\x00\x00\x00\x00\x00\x00\x00\x00'
p2217
tp2218
bsVtable2
p2219
g22
(g23
(I0
tp2220
g25
tp2221
Rp2222
(I1
(I4
tp2223
g175
I00
S'\x00\x00\x00\x00\x00\x00\x13@\x80\x14\xaeG\xe1z\xc4?S\x96!\x8euq\xec?\xd2!3\x7f|\xd9\x12@'
p2224
tp2225
bsVc_obst8
p2226
g22
(g23
(I0
tp2227
g25
tp2228
Rp2229
(I1
(I4
tp2230
g175
I00
S"z\x99\x07\xbb\xbf\xf4\x11@8X1\xedr \xc6\xbfe\xaa`TR'\xed?\xea0X\x95\x1b\xd2\x0e@"
p2231
tp2232
bsVplate_b4e7
p2233
g22
(g23
(I0
tp2234
g25
tp2235
Rp2236
(I1
(I4
tp2237
g175
I00
S'\x14\xaeG\xe1z\x14\xf2\xbf\x14\xaeG\xe1z\x14\x00@=\n\xd7\xa3p=\xf2?\x00\x00\x00\x00\x00\x00\x00\x00'
p2238
tp2239
bsVcooker
p2240
g22
(g23
(I0
tp2241
g25
tp2242
Rp2243
(I1
(I4
tp2244
g175
I00
S'\xaeG\xe1z\x14\xae\xff?\x85\xebQ\xb8\x1e\x85\xfb?\x00\x00\x00\x00\x00\x00\xe8?\x00\x00\x00\x00\x00\x00\x00\x00'
p2245
tp2246
bsVpin_a091
p2247
g22
(g23
(I0
tp2248
g25
tp2249
Rp2250
(I1
(I4
tp2251
g175
I00
S'\xdb\xf9~j\xbct\xf7\xbf)\\\x8f\xc2\xf5(\x02@\xb8\x1e\x85\xebQ\xb8\xfa?\x00\x00\x00\x00\x00\x00\x00\x00'
p2252
tp2253
bsVside_wall_2
p2254
g22
(g23
(I0
tp2255
g25
tp2256
Rp2257
(I1
(I4
tp2258
g175
I00
S'\xfa\xff\xff\xff\xff\xff\x14@\x00\x00\x00\x00\x00\x00\x00\x00\x9c\xc4 \xb0rh\xc1?\x18-DT\xfb!\xf9?'
p2259
tp2260
bsVside_wall_3
p2261
g22
(g23
(I0
tp2262
g25
tp2263
Rp2264
(I1
(I4
tp2265
g175
I00
S'\x00\x00\x00\x00\x00\x00\xfc?H\xe1z\x14\xaeG\t@\x9c\xc4 \xb0rh\xc1?\x00\x00\x00\x00\x00\x00\x00\x00'
p2266
tp2267
bsVmixer
p2268
g22
(g23
(I0
tp2269
g25
tp2270
Rp2271
(I1
(I4
tp2272
g175
I00
S'\n\xd7\xa3p=\n\xfb?ffffff\x02@d;\xdfO\x8d\x97\xee?\x00\x00\x00\x00\x00\x00\x00\x00'
p2273
tp2274
bsVside_wall_1
p2275
g22
(g23
(I0
tp2276
g25
tp2277
Rp2278
(I1
(I4
tp2279
g175
I00
S'\xf4\xff\xff\xff\xff\xff\xfb\xbf\x00\x00\x00\x00\x00\x00\x00\x00\x9c\xc4 \xb0rh\xc1?\x18-DT\xfb!\xf9?'
p2280
tp2281
bsVbottom_wall_1
p2282
g22
(g23
(I0
tp2283
g25
tp2284
Rp2285
(I1
(I4
tp2286
g175
I00
S'H\xe1z\x14\xaeG\x12@\x80\x14\xaeG\xe1z\xc4?\xcc\x7fH\xbf}\x1d\xed?\x00\x00\x00\x00\x00\x00\x00\x00'
p2287
tp2288
bsVcan
p2289
g22
(g23
(I0
tp2290
g25
tp2291
Rp2292
(I1
(I4
tp2293
g175
I00
S'\x00\x00\x00\x00\x00\x00\xf4\xbfH\xe1z\x14\xaeG\xe1\xbf\n\xd7\xa3p=\n\xef?\x00\x00\x00\x00\x00\x00\x00\x00'
p2294
tp2295
bsVright_wall
p2296
g22
(g23
(I0
tp2297
g25
tp2298
Rp2299
(I1
(I4
tp2300
g175
I00
S'\x9a\x99\x99\x99\x99\x99\x07@H\xe1z\x14\xaeG\xff\xbf\x9c\xc4 \xb0rh\xc1?\x00\x00\x00\x00\x00\x00\x00\x00'
p2301
tp2302
bsVcoffe_machine
p2303
g22
(g23
(I0
tp2304
g25
tp2305
Rp2306
(I1
(I4
tp2307
g175
I00
S'\\\x8f\xc2\xf5(\\\xf5\xbf\xb8\x1e\x85\xebQ\xb8\xee?\n\xd7\xa3p=\n\xef?\x00\x00\x00\x00\x00\x00\x00\x00'
p2308
tp2309
bsVcomputer_chair
p2310
g22
(g23
(I0
tp2311
g25
tp2312
Rp2313
(I1
(I4
tp2314
g175
I00
S'\xcd\xcc\xcc\xcc\xcc\xcc\x10@\x00\x00\x00\x00\x00\x00\xf8\xbf\xa00\xb6\x10\xe4\xa9\x95\xbf\x00\x00\x00\x00\x00\x00\x00\x00'
p2315
tp2316
bssS'robot_dof_values'
p2317
g22
(g23
(I0
tp2318
g25
tp2319
Rp2320
(I1
(I39
tp2321
g175
I00
S'\x00\x00\x00\x00\x00\x00\x00\x00\x00\x00\x00\x00\x00\x00\x00\x00\x00\x00\x00\x00\x00\x00\x00\x00\x00\x00\x00\x00\x00\x00\x00\x00\x00\x00\x00\x00\x00\x00\x00\x00\x00\x00\x00\x00\x00\x00\x00\x00\x00\x00\x00\x00\x00\x00\x00\x00\x00\x00\x00\x00\x00\x00\x00\x00\x00\x00\x00\x00\x00\x00\x00\x00\x00\x00\x00\x00\x00\x00\x00\x00\x00\x00\x00\x00\x00\x00\x00\x00\x00\x00\x00\x00\x00\x00\x00\x00@d;\xdfO\x8d\x87?\x00\x00\x00\x00\x00\x00\x00\x00\x00\x00\x00\x00\x00\x00\x00\x00\x00\x00\x00\x00\x00\x00\x00\x00\xf0\xed\t\xf1\xcc\xa4\xf4?\x00\x00\x00\x00\x00\x00\xc0<N"\xd0^p\xf8\x00\xc0\x00\x00\x00\x00\x00\x00\x00\x00\x9b\x03\r.\x04V\xe6\xbf\x00\x00\x00\x00\x00\x00\x00\x00\x00\x00\x00\x00\x00\x00\x00\x00\x00\x00\x00\x00\x00\x00\xc7\xbc\x00\x00\x00\x00\x00\x00\x00\x00\x00\x00\x00\x00\x00\x00\xe0\xbc\x00\x00\x00\x00\x00\x00\x00\x00\x00\x00\x00\x00\x00\x00\x00\x00\xea\xed\t\xf1\xcc\xa4\xf4?\x00\x00\x00\x00\x00\x00\xb0\xbcN"\xd0^p\xf8\x00\xc0\x00\x00\x00\x00\x00\x00\x00\x00\x9b\x03\r.\x04V\xe6\xbf\x00\x00\x00\x00\x00\x00\x00\x00\xcd9\xe3\xc17\x89\xe1?\x00\x00\x00\x00\x00\x00\xcb\xbc\x00\x00\x00\x00\x00\x00\x00\x00\x00\x00\x00\x00\x00\x00\xd0\xbc\x00\x00\x00\x00\x00\x00\x00\x00'
p2322
tp2323
bsS'is_holding'
p2324
I00
sbsS'holding_collides'
p2325
NsS'parent_ternary_predicates'
p2326
(dp2327
sS'cached_place_paths'
p2328
(dp2329
(g826
g1152
tp2330
(lp2331
g22
(g23
(I0
tp2332
g25
tp2333
Rp2334
(I1
(I3
tp2335
g175
I00
S'~R=\xddr\xe0\xf0?\xf0Rm\xe7\x82X\x1d\xc0\xe9y\xeb\xb9\r7\x07@'
p2336
tp2337
bas(g630
g166
tp2338
g229
s(g668
g166
tp2339
g274
s(g629
g1152
tp2340
(lp2341
g22
(g23
(I0
tp2342
g25
tp2343
Rp2344
(I1
(I3
tp2345
g175
I00
S'\x15L\xdb1=\xda\x07@<\xbd\x841v\xe4\x18\xc0k\x0b\xdb\xae\x85\xa0\xe7?'
p2346
tp2347
bas(g668
g1152
tp2348
(lp2349
g22
(g23
(I0
tp2350
g25
tp2351
Rp2352
(I1
(I3
tp2353
g175
I00
S'x!\xe6$\x8cB\xe7?x]>^<\xd5\x1b\xc0\xd8\x8c,~v\xf4\n@'
p2354
tp2355
bas(g629
g166
tp2356
g472
s(g628
g1152
tp2357
(lp2358
g22
(g23
(I0
tp2359
g25
tp2360
Rp2361
(I1
(I3
tp2362
g175
I00
S'J\x13\x9f\x8c\xd4\xae\xca?\x12\xcd\xcdI|\xac\x19\xc0\xab\x92\xca@\xfd\xaf\x17@'
p2363
tp2364
bas(g628
g166
tp2365
g376
s(g12
g166
tp2366
g325
s(g627
g166
tp2367
g168
s(g627
g1152
tp2368
(lp2369
g22
(g23
(I0
tp2370
g25
tp2371
Rp2372
(I1
(I3
tp2373
g175
I00
S'\xd6P45Y\x8c\x02@=\x8b\x0c\xcfg9\x19\xc0\xff\xa0&\xb1\x89{\xf1?'
p2374
tp2375
bas(g630
g1152
tp2376
(lp2377
g22
(g23
(I0
tp2378
g25
tp2379
Rp2380
(I1
(I3
tp2381
g175
I00
S"\x0b\xa2\xd8'\x04Z\xf6?\xde-p\xa9\x95\x1f\x19\xc0m?\xb47\x0e\x98\xe2?"
p2382
tp2383
bas(g12
g1152
tp2384
(lp2385
g22
(g23
(I0
tp2386
g25
tp2387
Rp2388
(I1
(I3
tp2389
g175
I00
S'\x16L"\x8ca+\xf9?:\xec@_|\x07\x19\xc0\x8b}$/\x89\xd7\x03@'
p2390
tp2391
bas(g626
g1152
tp2392
(lp2393
g22
(g23
(I0
tp2394
g25
tp2395
Rp2396
(I1
(I3
tp2397
g175
I00
S'(\xbb\xe5\xb1\xbe*\x07@\xb9?R\xcf\x94\xcc\x1e\xc0C0v\xf7>O\xfa?'
p2398
tp2399
bas(g626
g166
tp2400
g529
s(g826
g166
tp2401
g415
ssS'parent_binary_predicates'
p2402
(dp2403
sS'nodes'
p2404
(dp2405
g1155
(lp2406
I0
aI0
aI0
aI0
aI0
aI0
aI00
aI01
aI00
aI01
aI00
asg1152
(lp2407
I0
aI0
aI0
aI0
aI0
aI0
aI00
aI01
aI00
aI01
aI00
asg166
(lp2408
I0
aI0
aI0
aI0
aI0
aI0
aI00
aI01
aI01
aI01
aI00
asg272
(lp2409
I0
aI0
aI0
ag1723
(g175
S'\xc0z\xbdP\x1e`\xb2\xbf'
p2410
tp2411
Rp2412
ag1723
(g175
S'zvq\xb6\x82\xfe\x1a\xc0'
p2413
tp2414
Rp2415
ag1723
(g175
S'l\x9b\xd1!3\xfb\x17@'
p2416
tp2417
Rp2418
aI01
aI00
aI00
aI00
aI00
asg527
(lp2419
I0
aI0
aI0
ag1723
(g175
S'R\xb1\xd4NC\xf7\x04@'
p2420
tp2421
Rp2422
ag1723
(g175
S'\xd0)\xd4\xf6\xed8\x1c\xc0'
p2423
tp2424
Rp2425
ag1723
(g175
S'W\x89\x15\x86\x970\xd6?'
p2426
tp2427
Rp2428
aI01
aI00
aI00
aI01
aI00
asg165
(lp2429
I0
aI0
aI0
ag1723
(g175
S'\x02\xc8\x8d\xa4\xfc\x98\x03@'
p2430
tp2431
Rp2432
ag1723
(g175
S'\xa3\x1a\x91\xf594\x16\xc0'
p2433
tp2434
Rp2435
ag1723
(g175
S'\xa3\xc5dCc\x8d\x11@'
p2436
tp2437
Rp2438
aI01
aI00
aI00
aI01
aI00
asg413
(lp2439
I0
aI0
aI0
ag1723
(g175
S'\xb8\xe3\xec\x1c\xa3,\xd7?'
p2440
tp2441
Rp2442
ag1723
(g175
S'\x9f\x95\x92\xc4\xff\x11\x1e\xc0'
p2443
tp2444
Rp2445
ag1723
(g175
S'\xac\x1c\xcb\x0e\xb4\xb5\x13@'
p2446
tp2447
Rp2448
aI01
aI00
aI00
aI00
aI00
asg374
(lp2449
I0
aI0
aI0
ag1723
(g175
S'$\xa9\xb10\x06\xf2\xe9?'
p2450
tp2451
Rp2452
ag1723
(g175
S'\xa8\xb6\xe8KCC\x1b\xc0'
p2453
tp2454
Rp2455
ag1723
(g175
S'~\xf1\xf9g=\xb9\x01@'
p2456
tp2457
Rp2458
aI01
aI00
aI00
aI01
aI00
asg470
(lp2459
I0
aI0
aI0
ag1723
(g175
S'\xdb\xcf0V\x19\xdf\n@'
p2460
tp2461
Rp2462
ag1723
(g175
S'\xaa \xa0b%\xbe\x16\xc0'
p2463
tp2464
Rp2465
ag1723
(g175
S'\xedO\xc9\x19\x9a\xe8\x01@'
p2466
tp2467
Rp2468
aI01
aI00
aI00
aI01
aI00
asg323
(lp2469
I0
aI0
aI0
ag1723
(g175
S'\xb86\xf5\xd3\xcb\xdc\xf1?'
p2470
tp2471
Rp2472
ag1723
(g175
S'\x12t~\xef\xe6[\x17\xc0'
p2473
tp2474
Rp2475
ag1723
(g175
S'uRW\xd3*a\x17@'
p2476
tp2477
Rp2478
aI01
aI00
aI01
aI01
aI00
asg227
(lp2479
I0
aI0
aI0
ag1723
(g175
S'\x08\x11\xab4q{\xfd?'
p2480
tp2481
Rp2482
ag1723
(g175
S'Hf\xbb\x185\x11\x17\xc0'
p2483
tp2484
Rp2485
ag1723
(g175
S'\x90i\xf4\xfc\x17\n\x10@'
p2486
tp2487
Rp2488
aI01
aI00
aI00
aI01
aI00
assS'mc_place_path'
p2489
(dp2490
sS'parent_state'
p2491
NsS'goal_entities'
p2492
(lp2493
S'square_packing_box1'
p2494
ag166
asS'binary_edges'
p2495
(dp2496
(g374
g227
tp2497
(lp2498
I00
aI00
aI00
as(g374
g272
tp2499
(lp2500
I00
aI01
aI00
as(g165
g470
tp2501
(lp2502
I00
aI00
aI00
as(g165
g165
tp2503
(lp2504
I00
aI00
aI00
as(g527
g470
tp2505
(lp2506
I00
aI00
aI00
as(g527
g165
tp2507
(lp2508
I00
aI00
aI00
as(g227
g527
tp2509
(lp2510
I00
aI00
aI00
as(g374
g323
tp2511
(lp2512
I00
aI00
aI00
as(g413
g165
tp2513
(lp2514
I00
aI00
aI00
as(g272
g272
tp2515
(lp2516
I00
aI00
aI00
as(g527
g1152
tp2517
(lp2518
g1723
(g29
(S'b1'
p2519
I0
I1
tp2520
Rp2521
(I3
S'|'
p2522
NNNI-1
I-1
I0
tp2523
bS'\x01'
p2524
tp2525
Rp2526
aI00
aI01
as(g1155
g1152
tp2527
(lp2528
I00
aI00
aI00
as(g272
g227
tp2529
(lp2530
I00
aI00
aI00
as(g1152
g227
tp2531
(lp2532
I00
aI00
aI00
as(g323
g166
tp2533
(lp2534
I00
aI00
aI00
as(g1155
g527
tp2535
(lp2536
I00
aI00
aI00
as(g527
g227
tp2537
(lp2538
I00
aI00
aI00
as(g165
g1155
tp2539
(lp2540
g2526
aI00
aI00
as(g374
g374
tp2541
(lp2542
I00
aI00
aI00
as(g1152
g374
tp2543
(lp2544
I00
aI00
aI00
as(g470
g527
tp2545
(lp2546
I00
aI00
aI00
as(g527
g166
tp2547
(lp2548
I00
aI00
aI00
as(g413
g470
tp2549
(lp2550
I00
aI00
aI00
as(g272
g413
tp2551
(lp2552
I00
aI00
aI00
as(g323
g323
tp2553
(lp2554
I00
aI00
aI00
as(g527
g1155
tp2555
(lp2556
g2526
aI00
aI00
as(g1152
g527
tp2557
(lp2558
I00
aI00
aI00
as(g1152
g470
tp2559
(lp2560
I00
aI00
aI00
as(g1152
g165
tp2561
(lp2562
I00
aI00
aI00
as(g470
g166
tp2563
(lp2564
I00
aI00
aI00
as(g227
g272
tp2565
(lp2566
I00
aI00
aI00
as(g413
g272
tp2567
(lp2568
I00
aI01
aI00
as(g470
g413
tp2569
(lp2570
I00
aI00
aI00
as(g1152
g272
tp2571
(lp2572
I00
aI00
aI00
as(g1155
g166
tp2573
(lp2574
I00
aI00
aI00
as(g323
g527
tp2575
(lp2576
I00
aI00
aI00
as(g272
g470
tp2577
(lp2578
I00
aI00
aI00
as(g1155
g470
tp2579
(lp2580
I00
aI00
aI00
as(g470
g1155
tp2581
(lp2582
g2526
aI00
aI00
as(g165
g374
tp2583
(lp2584
I00
aI00
aI00
as(g227
g323
tp2585
(lp2586
I00
aI00
aI00
as(g165
g527
tp2587
(lp2588
I00
aI00
aI00
as(g227
g166
tp2589
(lp2590
I00
aI00
aI00
as(g1155
g1155
tp2591
(lp2592
I00
aI00
aI00
as(g470
g272
tp2593
(lp2594
I00
aI00
aI00
as(g323
g374
tp2595
(lp2596
I00
aI00
aI00
as(g166
g323
tp2597
(lp2598
I00
aI00
aI00
as(g413
g1152
tp2599
(lp2600
g2526
aI00
aI01
as(g166
g413
tp2601
(lp2602
I00
aI00
aI00
as(g227
g165
tp2603
(lp2604
I00
aI00
aI00
as(g165
g323
tp2605
(lp2606
I00
aI00
aI00
as(g470
g1152
tp2607
(lp2608
g2526
aI00
aI01
as(g165
g413
tp2609
(lp2610
I00
aI00
aI00
as(g470
g470
tp2611
(lp2612
I00
aI00
aI00
as(g413
g527
tp2613
(lp2614
I00
aI00
aI00
as(g1152
g166
tp2615
(lp2616
I00
aI00
aI00
as(g166
g374
tp2617
(lp2618
I00
aI00
aI00
as(g272
g166
tp2619
(lp2620
I00
aI00
aI00
as(g1155
g413
tp2621
(lp2622
I00
aI00
aI00
as(g166
g227
tp2623
(lp2624
I00
aI00
aI00
as(g165
g227
tp2625
(lp2626
I00
aI00
aI00
as(g413
g1155
tp2627
(lp2628
g2526
aI00
aI00
as(g227
g1152
tp2629
(lp2630
g2526
aI00
aI01
as(g413
g374
tp2631
(lp2632
I00
aI00
aI00
as(g272
g527
tp2633
(lp2634
I00
aI00
aI00
as(g272
g1152
tp2635
(lp2636
g2526
aI00
aI01
as(g166
g165
tp2637
(lp2638
I00
aI00
aI00
as(g1155
g227
tp2639
(lp2640
I00
aI00
aI00
as(g1155
g272
tp2641
(lp2642
I00
aI00
aI00
as(g413
g166
tp2643
(lp2644
I00
aI00
aI00
as(g374
g413
tp2645
(lp2646
I00
aI01
aI00
as(g323
g413
tp2647
(lp2648
I00
aI00
aI00
as(g166
g470
tp2649
(lp2650
I00
aI00
aI00
as(g1152
g1152
tp2651
(lp2652
I00
aI00
aI00
as(g374
g165
tp2653
(lp2654
I00
aI00
aI00
as(g323
g470
tp2655
(lp2656
I00
aI00
aI00
as(g1152
g323
tp2657
(lp2658
I00
aI00
aI00
as(g527
g272
tp2659
(lp2660
I00
aI01
aI00
as(g1152
g413
tp2661
(lp2662
I00
aI00
aI00
as(g323
g1155
tp2663
(lp2664
g2526
aI00
aI00
as(g374
g527
tp2665
(lp2666
I00
aI00
aI00
as(g165
g166
tp2667
(lp2668
I00
aI00
aI00
as(g323
g272
tp2669
(lp2670
I00
aI00
aI00
as(g272
g323
tp2671
(lp2672
I00
aI00
aI00
as(g527
g323
tp2673
(lp2674
I00
aI00
aI00
as(g1155
g374
tp2675
(lp2676
I00
aI00
aI00
as(g527
g413
tp2677
(lp2678
I00
aI01
aI00
as(g470
g374
tp2679
(lp2680
I00
aI00
aI00
as(g374
g1152
tp2681
(lp2682
g2526
aI00
aI01
as(g413
g413
tp2683
(lp2684
I00
aI00
aI00
as(g227
g374
tp2685
(lp2686
I00
aI00
aI00
as(g323
g227
tp2687
(lp2688
I00
aI00
aI00
as(g527
g374
tp2689
(lp2690
I00
aI00
aI00
as(g527
g527
tp2691
(lp2692
I00
aI00
aI00
as(g227
g413
tp2693
(lp2694
I00
aI00
aI00
as(g374
g166
tp2695
(lp2696
I00
aI00
aI00
as(g470
g323
tp2697
(lp2698
I00
aI00
aI00
as(g165
g1152
tp2699
(lp2700
g2526
aI00
aI01
as(g166
g527
tp2701
(lp2702
I00
aI00
aI00
as(g413
g323
tp2703
(lp2704
I00
aI00
aI00
as(g272
g165
tp2705
(lp2706
I00
aI00
aI00
as(g166
g1152
tp2707
(lp2708
I00
aI00
aI00
as(g374
g470
tp2709
(lp2710
I00
aI00
aI00
as(g1155
g165
tp2711
(lp2712
I00
aI00
aI00
as(g374
g1155
tp2713
(lp2714
g2526
aI00
aI00
as(g470
g165
tp2715
(lp2716
I00
aI00
aI00
as(g166
g166
tp2717
(lp2718
I00
aI00
aI00
as(g413
g227
tp2719
(lp2720
I00
aI00
aI00
as(g272
g1155
tp2721
(lp2722
g2526
aI00
aI00
as(g227
g1155
tp2723
(lp2724
g2526
aI00
aI00
as(g166
g1155
tp2725
(lp2726
I00
aI00
aI00
as(g166
g272
tp2727
(lp2728
I00
aI00
aI00
as(g470
g227
tp2729
(lp2730
I00
aI00
aI00
as(g227
g470
tp2731
(lp2732
I00
aI00
aI00
as(g165
g272
tp2733
(lp2734
I00
aI00
aI00
as(g1152
g1155
tp2735
(lp2736
I00
aI00
aI00
as(g323
g165
tp2737
(lp2738
I00
aI00
aI00
as(g272
g374
tp2739
(lp2740
I00
aI00
aI00
as(g227
g227
tp2741
(lp2742
I00
aI00
aI00
as(g323
g1152
tp2743
(lp2744
g2526
aI00
aI01
as(g1155
g323
tp2745
(lp2746
I00
aI00
aI00
assg624
g625
sS'pick_in_way'
p2747
(itrajectory_representation.predicates.pick_in_way
PickInWay
p2748
(dp2749
g163
(dp2750
g272
g697
sg527
g764
sg165
g807
sg413
g851
sg374
g900
sg470
g967
sg323
g997
sg227
g1058
ssg590
(dp2751
g272
(lp2752
Vrectangular_packing_box2
p2753
aVsquare_packing_box2
p2754
aVrectangular_packing_box1
p2755
asg527
(lp2756
sg165
(lp2757
sg413
(lp2758
Vrectangular_packing_box2
p2759
aVsquare_packing_box2
p2760
asg374
(lp2761
sg470
(lp2762
sg323
(lp2763
sg227
(lp2764
ssg624
(lp2765
g374
ag527
ag470
ag165
ag227
ag1155
ag166
ag1152
ag323
ag1155
ag166
ag1152
ag1155
ag166
ag1152
ag1155
ag166
ag1152
ag1155
ag166
ag1152
ag1155
ag166
ag1152
ag1155
ag166
ag1152
ag1155
ag166
ag1152
asg631
g632
sg90
(dp2766
sg666
g667
sg1079
Nsg1086
g667
sg1083
(dp2767
sg1085
I8
sg1147
I01
sg1087
Nsg1088
(dp2768
(g374
g227
tp2769
I00
s(g374
g272
tp2770
I01
s(g165
g470
tp2771
I00
s(g165
g165
tp2772
I00
s(g527
g470
tp2773
I00
s(g527
g165
tp2774
I00
s(g227
g527
tp2775
I00
s(g374
g323
tp2776
I00
s(g413
g165
tp2777
I00
s(g272
g272
tp2778
I00
s(g527
g1152
tp2779
I00
s(g1155
g1152
tp2780
I00
s(g272
g227
tp2781
I00
s(g1152
g227
tp2782
I00
s(g323
g166
tp2783
I00
s(g1155
g527
tp2784
I00
s(g527
g227
tp2785
I00
s(g165
g1155
tp2786
I00
s(g374
g374
tp2787
I00
s(g1152
g374
tp2788
I00
s(g470
g527
tp2789
I00
s(g527
g166
tp2790
I00
s(g413
g470
tp2791
I00
s(g272
g413
tp2792
I00
s(g323
g323
tp2793
I00
s(g527
g1155
tp2794
I00
s(g1152
g527
tp2795
I00
s(g1152
g470
tp2796
I00
s(g1152
g165
tp2797
I00
s(g470
g166
tp2798
I00
s(g227
g272
tp2799
I00
s(g413
g272
tp2800
I01
s(g470
g413
tp2801
I00
s(g1152
g272
tp2802
I00
s(g1155
g166
tp2803
I00
s(g323
g527
tp2804
I00
s(g272
g470
tp2805
I00
s(g1155
g470
tp2806
I00
s(g470
g1155
tp2807
I00
s(g165
g374
tp2808
I00
s(g227
g323
tp2809
I00
s(g165
g527
tp2810
I00
s(g227
g166
tp2811
I00
s(g1155
g1155
tp2812
I00
s(g470
g272
tp2813
I00
s(g323
g374
tp2814
I00
s(g166
g323
tp2815
I00
s(g413
g1152
tp2816
I00
s(g166
g413
tp2817
I00
s(g227
g165
tp2818
I00
s(g165
g323
tp2819
I00
s(g470
g1152
tp2820
I00
s(g165
g413
tp2821
I00
s(g470
g470
tp2822
I00
s(g413
g527
tp2823
I00
s(g1152
g166
tp2824
I00
s(g166
g374
tp2825
I00
s(g272
g166
tp2826
I00
s(g1155
g413
tp2827
I00
s(g166
g227
tp2828
I00
s(g165
g227
tp2829
I00
s(g413
g1155
tp2830
I00
s(g227
g1152
tp2831
I00
s(g413
g374
tp2832
I00
s(g272
g527
tp2833
I00
s(g272
g1152
tp2834
I00
s(g166
g165
tp2835
I00
s(g1155
g227
tp2836
I00
s(g1155
g272
tp2837
I00
s(g413
g166
tp2838
I00
s(g374
g413
tp2839
I01
s(g323
g413
tp2840
I00
s(g166
g470
tp2841
I00
s(g1152
g1152
tp2842
I00
s(g374
g165
tp2843
I00
s(g323
g470
tp2844
I00
s(g1152
g323
tp2845
I00
s(g527
g272
tp2846
I01
s(g1152
g413
tp2847
I00
s(g323
g1155
tp2848
I00
s(g374
g527
tp2849
I00
s(g165
g166
tp2850
I00
s(g323
g272
tp2851
I00
s(g272
g323
tp2852
I00
s(g527
g323
tp2853
I00
s(g1155
g374
tp2854
I00
s(g527
g413
tp2855
I01
s(g470
g374
tp2856
I00
s(g374
g1152
tp2857
I00
s(g413
g413
tp2858
I00
s(g227
g374
tp2859
I00
s(g323
g227
tp2860
I00
s(g527
g374
tp2861
I00
s(g527
g527
tp2862
I00
s(g227
g413
tp2863
I00
s(g374
g166
tp2864
I00
s(g470
g323
tp2865
I00
s(g165
g1152
tp2866
I00
s(g166
g527
tp2867
I00
s(g413
g323
tp2868
I00
s(g272
g165
tp2869
I00
s(g166
g1152
tp2870
I00
s(g374
g470
tp2871
I00
s(g1155
g165
tp2872
I00
s(g374
g1155
tp2873
I00
s(g470
g165
tp2874
I00
s(g166
g166
tp2875
I00
s(g413
g227
tp2876
I00
s(g272
g1155
tp2877
I00
s(g227
g1155
tp2878
I00
s(g166
g1155
tp2879
I00
s(g166
g272
tp2880
I00
s(g470
g227
tp2881
I00
s(g227
g470
tp2882
I00
s(g165
g272
tp2883
I00
s(g1152
g1155
tp2884
I00
s(g323
g165
tp2885
I00
s(g272
g374
tp2886
I00
s(g227
g227
tp2887
I00
s(g323
g1152
tp2888
I00
s(g1155
g323
tp2889
I00
ssg1146
NsbsS'robot_pose'
p2890
g22
(g23
(I0
tp2891
g25
tp2892
Rp2893
(I1
(I1
I3
tp2894
g175
I00
S'ha\xd2\xf3\x9a8\x0b@|\xc8$\xe1\xa6\xfa\x1a\xc0\x0f!\xfb\xb5\xcds\x05@'
p2895
tp2896
bsS'is_holding_goal_entity'
p2897
(itrajectory_representation.predicates.is_holding_goal_entity
IsHoldingGoalEntity
p2898
(dp2899
g2492
g2493
sg1087
NsbsS'mc_pick_path'
p2900
(dp2901
sS'current_collides'
p2902
g632
sbasS'seed'
p2903
NsS'state_prime'
p2904
(lp2905
sS'problem_idx'
p2906
I241
sb.