(itrajectory_representation.trajectory
Trajectory
p0
(dp1
S'rewards'
p2
(lp3
I-1
aI10
asS'actions'
p4
(lp5
(itrajectory_representation.operator
Operator
p6
(dp7
S'is_skeleton'
p8
I00
sS'discrete_parameters'
p9
(dp10
S'object'
p11
Vrectangular_packing_box2
p12
sS'two_arm_place_region'
p13
S'loading_region'
p14
sS'two_arm_place_object'
p15
g12
ssS'type'
p16
S'two_arm_pick_two_arm_place'
p17
sS'continuous_parameters'
p18
(dp19
S'q_goal'
p20
cnumpy.core.multiarray
_reconstruct
p21
(cnumpy
ndarray
p22
(I0
tp23
S'b'
p24
tp25
Rp26
(I1
(I3
tp27
cnumpy
dtype
p28
(S'f8'
p29
I0
I1
tp30
Rp31
(I3
S'<'
p32
NNNI-1
I-1
I0
tp33
bI00
S'\xe2\x84m\x9e\xdas\xf0?I|\x8f\x85\xc5t\x19\xc0\x99\xe8\x02\xe0\x15b\xfd?'
p34
tp35
bsS'place'
p36
(dp37
g20
g21
(g22
(I0
tp38
g24
tp39
Rp40
(I1
(I3
tp41
g31
I00
S'\xf0\xdeEo\xd3\x06\xf0?\x16\xfd\xc0\xfaSg\x1b\xc0\xe4\xab\x94\x10C\x1d\xdb?'
p42
tp43
bssS'pick'
p44
(dp45
g20
g26
sssS'low_level_motion'
p46
(lp47
g21
(g22
(I0
tp48
g24
tp49
Rp50
(I1
(I3
tp51
g31
I00
S'\xca\xc35\xe3\xf0A\x07@r\x12\xd1\xd11%\x1e\xc0\xad\xcf\xb7\xbd\xf0\xfb\xf3?'
p52
tp53
bag21
(g22
(I0
tp54
g24
tp55
Rp56
(I1
(I3
tp57
g28
(S'f8'
p58
I0
I1
tp59
Rp60
(I3
S'<'
p61
NNNI-1
I-1
I0
tp62
bI00
S'0\xf2\xd6\x9e\xed\xca\x04@\xdc>\xfd\x07B\x8f\x1d\xc0\xe2\xaf5\x16\xb4\x0c\xda?'
p63
tp64
bag21
(g22
(I0
tp65
g24
tp66
Rp67
(I1
(I3
tp68
g60
I00
S'\tAsXx\r\x00@F^\x05/\xfdK\x1d\xc0~\xbbB\x0f\xbe\xe6\xd2?'
p69
tp70
bag21
(g22
(I0
tp71
g24
tp72
Rp73
(I1
(I3
tp74
g60
I00
S'*4\xc9\xb1\x13|\xf5?=~n\xf8\xb0\xf9\x1b\xc0\x97\x8e\x14L\xfds\x01@'
p75
tp76
bag26
ag26
asba(itrajectory_representation.operator
Operator
p77
(dp78
g8
I00
sg9
(dp79
g11
Vsquare_packing_box1
p80
sS'two_arm_place_region'
p81
S'home_region'
p82
sS'two_arm_place_object'
p83
g80
ssg16
S'two_arm_pick_two_arm_place'
p84
sg18
(dp85
g20
g21
(g22
(I0
tp86
g24
tp87
Rp88
(I1
(I3
tp89
g31
I00
S'\xe5\x80R`\x13\xa9\xff?z\x1a\x0f\x96\x06(\x18\xc03\x84\x85W\x0c\x8e\xd2?'
p90
tp91
bsg36
(dp92
g20
g21
(g22
(I0
tp93
g24
tp94
Rp95
(I1
(I3
tp96
g31
I00
S'@\x00wy\x17\xef\xf4?f\x8e\xa1\x8e\xa2\xe1\xfc\xbf\xfb\x13C\x0ba\xc5\xfa\xbf'
p97
tp98
bssg44
(dp99
g20
g88
sssg46
(lp100
g21
(g22
(I0
tp101
g24
tp102
Rp103
(I1
(I3
tp104
g31
I00
S'\xf0\xdeEo\xd3\x06\xf0?\x16\xfd\xc0\xfaSg\x1b\xc0\xe8\xab\x94\x10C\x1d\xdb?'
p105
tp106
bag21
(g22
(I0
tp107
g24
tp108
Rp109
(I1
(I3
tp110
g60
I00
S'B\x9aa8\x98\xa6\xe8?\xf3\xe9\x94/\xc2\xe4\x18\xc0u\xf8\xb0\x7fO\xb8\xf2?'
p111
tp112
bag21
(g22
(I0
tp113
g24
tp114
Rp115
(I1
(I3
tp116
g60
I00
S'\x0e]\xf2K\xc6E\xf7?\x06\x8c\xb9Ybt\x17\xc0%\xac6\x86\x93\xa8\xdd?'
p117
tp118
bag88
ag88
asbasS'filename'
p119
S''
p120
sS'states'
p121
(lp122
(itrajectory_representation.shortest_path_pick_and_place_state
ShortestPathPaPState
p123
(dp124
S'place_used'
p125
(dp126
(Vrectangular_packing_box2
p127
g14
tp128
(itrajectory_representation.operator
Operator
p129
(dp130
g8
I01
sg9
(dp131
S'region'
p132
g14
sg11
g127
ssg16
S'two_arm_place'
p133
sg18
(dp134
g20
g21
(g22
(I0
tp135
g24
tp136
Rp137
(I1
(I3
tp138
g31
I00
S'\xf0\xdeEo\xd3\x06\xf0?\x16\xfd\xc0\xfaSg\x1b\xc0\xe4\xab\x94\x10C\x1d\xdb?'
p139
tp140
bssg46
(lp141
g21
(g22
(I0
tp142
g24
tp143
Rp144
(I1
(I3
tp145
g31
I00
S'\xfc\x84m\x9e\xdas\xf0?L|\x8f\x85\xc5t\x19\xc0\x9f\xe8\x02\xe0\x15b\xfd?'
p146
tp147
bag21
(g22
(I0
tp148
g24
tp149
Rp150
(I1
(I3
tp151
g60
I00
S"f'\x1d)\\\x10\xe6?I\x87\x7f\xab\xf9\x9f\x1b\xc0\x90\xd8HX\xe5\x0e\x04@"
p152
tp153
bag21
(g22
(I0
tp154
g24
tp155
Rp156
(I1
(I3
tp157
g60
I00
S'\xf8\xfc\x1a\xd0\xc9l\xe8?\x8a\x897\x8e~\x98\x1a\xc0\xaf\xf7\xb87\xc6\xa7\x01\xc0'
p158
tp159
bag137
ag137
asbs(Vsquare_packing_box1
p160
g82
tp161
(itrajectory_representation.operator
Operator
p162
(dp163
g8
I01
sg9
(dp164
g132
g82
sg11
g160
ssg16
g133
sg18
(dp165
g20
g21
(g22
(I0
tp166
g24
tp167
Rp168
(I1
(I3
tp169
g31
I00
S'@\x00wy\x17\xef\xf4?f\x8e\xa1\x8e\xa2\xe1\xfc\xbf\xfb\x13C\x0ba\xc5\xfa\xbf'
p170
tp171
bssg46
(lp172
g21
(g22
(I0
tp173
g24
tp174
Rp175
(I1
(I3
tp176
g31
I00
S'\xea\x80R`\x13\xa9\xff?x\x1a\x0f\x96\x06(\x18\xc0+\x84\x85W\x0c\x8e\xd2?'
p177
tp178
bag21
(g22
(I0
tp179
g24
tp180
Rp181
(I1
(I3
tp182
g60
I00
S'\x12\xfe\xe1\x95\xb8\x19\xf8?\x8c#.~\xd7\xc6\x16\xc0\xfe\xd3A\xf0\xcat\xc0\xbf'
p183
tp184
bag21
(g22
(I0
tp185
g24
tp186
Rp187
(I1
(I3
tp188
g60
I00
S'tx\x8as\xa8b\xed?\x9ej\x15\xfa\xf0{\x15\xc0@\xed\x9a-\x9eD\xf2\xbf'
p189
tp190
bag21
(g22
(I0
tp191
g24
tp192
Rp193
(I1
(I3
tp194
g60
I00
S'\xb0E\xbb;Cb\xeb?\x9e\xde\xa7\xdd\xbdd\x12\xc0\xc6\xee\xbd\x16\x8c\xaa\xf3\xbf'
p195
tp196
bag21
(g22
(I0
tp197
g24
tp198
Rp199
(I1
(I3
tp200
g60
I00
S'\xec\x12\xec\x03\xdea\xe9?<\xa5t\x82\x15\x9b\x0e\xc0L\xf0\xe0\xffy\x10\xf5\xbf'
p201
tp202
bag21
(g22
(I0
tp203
g24
tp204
Rp205
(I1
(I3
tp206
g60
I00
S'(\xe0\x1c\xccxa\xe7?<\x8d\x99I\xafl\x08\xc0\xd2\xf1\x03\xe9gv\xf6\xbf'
p207
tp208
bag21
(g22
(I0
tp209
g24
tp210
Rp211
(I1
(I3
tp212
g60
I00
S'd\xadM\x94\x13a\xe5?>u\xbe\x10I>\x02\xc0X\xf3&\xd2U\xdc\xf7\xbf'
p213
tp214
bag168
ag168
asbssS'place_in_way'
p215
(itrajectory_representation.predicates.place_in_way
PlaceInWay
p216
(dp217
S'mc_path_to_entity'
p218
(dp219
(Vrectangular_packing_box4
p220
S'home_region'
p221
tp222
(lp223
g21
(g22
(I0
tp224
g24
tp225
Rp226
(I1
(I3
tp227
g28
(S'f8'
p228
I0
I1
tp229
Rp230
(I3
S'<'
p231
NNNI-1
I-1
I0
tp232
bI00
S'\x8eF\xfd*\xdd\x0f\x03@c T\x13\xa9\xc8\x18\xc0\xa1\x9b[yu \xfc?'
p233
tp234
bag21
(g22
(I0
tp235
g24
tp236
Rp237
(I1
(I3
tp238
g28
(S'f8'
p239
I0
I1
tp240
Rp241
(I3
S'<'
p242
NNNI-1
I-1
I0
tp243
bI00
S'\xe0 ;\x819w\xfd?\xe7\xcc\xc2\xa0\xa5f\x17\xc04\xedq\x1c\x8eK\xfa?'
p244
tp245
bag21
(g22
(I0
tp246
g24
tp247
Rp248
(I1
(I3
tp249
g241
I00
S'\x85\\2\xba\x0b5\xf5?I\r\x06\xd10\xfb\x15\xc0\x9e\x11\xee\xd8\xb9\xd7\xf5?'
p250
tp251
bag21
(g22
(I0
tp252
g24
tp253
Rp254
(I1
(I3
tp255
g241
I00
S'v\xb8^\x85\xa7[\xea?x\xbe\xff2t\x8d\x13\xc0\x88\x85\x8cCyH\xf6?'
p256
tp257
bag21
(g22
(I0
tp258
g24
tp259
Rp260
(I1
(I3
tp261
g241
I00
S'\xc2\xda(e\x83\x1a\xeb?\x8au\x8d3\xa6E\x11\xc0\xb4c\x1b\xed_\xfd\xfa?'
p262
tp263
bag21
(g22
(I0
tp264
g24
tp265
Rp266
(I1
(I3
tp267
g241
I00
S'\xe4u**\x0e5\xe9?\xaa\xfd\r\xed\xc4\xf6\r\xc0\x0fDE0\x1f\x0b\xfe?'
p268
tp269
bag21
(g22
(I0
tp270
g24
tp271
Rp272
(I1
(I3
tp273
g241
I00
S'\x06\x11,\xef\x98O\xe7??\x10\x01s=b\t\xc04\x92\xb79o\x8c\x00@'
p274
tp275
bag21
(g22
(I0
tp276
g24
tp277
Rp278
(I1
(I3
tp279
g241
I00
S'\x92\xaf\xf3P\x96O\xc2?(\xa1:\x8er}\x05\xc0\xd4_\x91\xb3\xffL\x02@'
p280
tp281
bas(Vrectangular_packing_box3
p282
g221
tp283
(lp284
g21
(g22
(I0
tp285
g24
tp286
Rp287
(I1
(I3
tp288
g230
I00
S'@\xb1\xcc\xbd\xca\x0e\xbb?5=\xc3\xc5\xf5\x96\x1a\xc0\x91\x02\xe5\xc3E\xe0\x12@'
p289
tp290
bag21
(g22
(I0
tp291
g24
tp292
Rp293
(I1
(I3
tp294
g241
I00
S'\xb0\xcfg\xd5._\xe8?\xd6\x8d\xba\x87\x91D\x1a\xc0\xea!\xf73\x0cB\xf7\xbf'
p295
tp296
bag21
(g22
(I0
tp297
g24
tp298
Rp299
(I1
(I3
tp300
g241
I00
S"\x1aq\xa1\x96-\xd2\xec?\xa2\x8f\xd2'\xa1I\x18\xc0\x06\xea(\x89^*\xf2\xbf"
p301
tp302
bag21
(g22
(I0
tp303
g24
tp304
Rp305
(I1
(I3
tp306
g241
I00
S'tx\x8as\xa8b\xed?\x9ej\x15\xfa\xf0{\x15\xc0@\xed\x9a-\x9eD\xf2\xbf'
p307
tp308
bag21
(g22
(I0
tp309
g24
tp310
Rp311
(I1
(I3
tp312
g241
I00
S"\xb2&6mg)\xe8?\x99\xe0G'\x16\xe0\x13\xc0\xc8oL\xf5\x17p\xe6\xbf"
p313
tp314
bag21
(g22
(I0
tp315
g24
tp316
Rp317
(I1
(I3
tp318
g241
I00
S'`\xc8Aw-\x81\xeb?/\xc3\xe6O\x04\xca\x10\xc0\x8a\xb7K)\x91{\xe4\xbf'
p319
tp320
bag21
(g22
(I0
tp321
g24
tp322
Rp323
(I1
(I3
tp324
g241
I00
S'\xe1\xc6\xc7\xa7\x12X\xe7?\x98\x99\xb0\x9a\xfb\xdb\x0b\xc0R\t\x1b)\xeae\xe0\xbf'
p325
tp326
bag21
(g22
(I0
tp327
g24
tp328
Rp329
(I1
(I3
tp330
g241
I00
S'p\xf1\xbdc^\x84\xf1?"\x88LL\xf9D\x06\xc0~w\r\xe9m\x0f\x19@'
p331
tp332
bas(Vsquare_packing_box4
p333
g221
tp334
(lp335
g21
(g22
(I0
tp336
g24
tp337
Rp338
(I1
(I3
tp339
g230
I00
S'\xaaM\xfe\x9e\x01\xf7\x07@\x91\xebq\xc9x\x93\x17\xc0\xd3\xe0\x9f\x13i0\x14@'
p340
tp341
bag21
(g22
(I0
tp342
g24
tp343
Rp344
(I1
(I3
tp345
g241
I00
S'\x02:\xde\x84?\xc0\x03@\x16\xfaJE\x8a\x0f\x19\xc0\x13\xc0\x8b\x01\x1d?\xf4\xbf'
p346
tp347
bag21
(g22
(I0
tp348
g24
tp349
Rp350
(I1
(I3
tp351
g241
I00
S'!\x83\xc0\xf3W\x85\xff?\xed\x8f\x90/y\xfd\x16\xc06jP\xfe\x98\xf5\xf4\xbf'
p352
tp353
bag21
(g22
(I0
tp354
g24
tp355
Rp356
(I1
(I3
tp357
g241
I00
S'2Z\xe1\xe97J\xf6?\\\x1e`@2v\x16\xc0\xc4\x0c\xcc\x14<\xf9\xf6\xbf'
p358
tp359
bag21
(g22
(I0
tp360
g24
tp361
Rp362
(I1
(I3
tp363
g241
I00
S'tx\x8as\xa8b\xed?\x9ej\x15\xfa\xf0{\x15\xc0@\xed\x9a-\x9eD\xf2\xbf'
p364
tp365
bag21
(g22
(I0
tp366
g24
tp367
Rp368
(I1
(I3
tp369
g241
I00
S"\xb2&6mg)\xe8?\x99\xe0G'\x16\xe0\x13\xc0\xc8oL\xf5\x17p\xe6\xbf"
p370
tp371
bag21
(g22
(I0
tp372
g24
tp373
Rp374
(I1
(I3
tp375
g241
I00
S'`\xc8Aw-\x81\xeb?/\xc3\xe6O\x04\xca\x10\xc0\x8a\xb7K)\x91{\xe4\xbf'
p376
tp377
bag21
(g22
(I0
tp378
g24
tp379
Rp380
(I1
(I3
tp381
g241
I00
S'\xe1\xc6\xc7\xa7\x12X\xe7?\x98\x99\xb0\x9a\xfb\xdb\x0b\xc0R\t\x1b)\xeae\xe0\xbf'
p382
tp383
bag21
(g22
(I0
tp384
g24
tp385
Rp386
(I1
(I3
tp387
g241
I00
S'p\xf1\xbdc^\x84\xf1?"\x88LL\xf9D\x06\xc0~w\r\xe9m\x0f\x19@'
p388
tp389
bas(Vsquare_packing_box2
p390
g221
tp391
(lp392
g21
(g22
(I0
tp393
g24
tp394
Rp395
(I1
(I3
tp396
g230
I00
S'U\xd4U\x01\x97\x97\t@\x9f\xd6\xfbp\xc5\x91\x1a\xc08\xcf<(@\x11\xf0?'
p397
tp398
bag21
(g22
(I0
tp399
g24
tp400
Rp401
(I1
(I3
tp402
g241
I00
S'\x00\xaa\xc9.!g\t@\x8d6\x8e\x15\x9c\xb2\x17\xc0"\xda\xa0\x8dBb\xe0?'
p403
tp404
bag21
(g22
(I0
tp405
g24
tp406
Rp407
(I1
(I3
tp408
g241
I00
S'\x19\xdbXU\x9c\xa8\x04@\xe6\xf1\xeb\xae\xcb\x05\x18\xc0\xce\x9cp\x98\xaf*\xeb?'
p409
tp410
bag21
(g22
(I0
tp411
g24
tp412
Rp413
(I1
(I3
tp414
g241
I00
S'/\xe1\x02^.|\x00@\xb8\xae\xc5\xcfF\x16\x17\xc0\xf8\x01)d\xc5\xf9\xe2?'
p415
tp416
bag21
(g22
(I0
tp417
g24
tp418
Rp419
(I1
(I3
tp420
g241
I00
S'\x85\\2\xba\x0b5\xf5?I\r\x06\xd10\xfb\x15\xc0\x9e\x11\xee\xd8\xb9\xd7\xf5?'
p421
tp422
bag21
(g22
(I0
tp423
g24
tp424
Rp425
(I1
(I3
tp426
g241
I00
S'v\xb8^\x85\xa7[\xea?x\xbe\xff2t\x8d\x13\xc0\x88\x85\x8cCyH\xf6?'
p427
tp428
bag21
(g22
(I0
tp429
g24
tp430
Rp431
(I1
(I3
tp432
g241
I00
S'\xc2\xda(e\x83\x1a\xeb?\x8au\x8d3\xa6E\x11\xc0\xb4c\x1b\xed_\xfd\xfa?'
p433
tp434
bag21
(g22
(I0
tp435
g24
tp436
Rp437
(I1
(I3
tp438
g241
I00
S'\xe4u**\x0e5\xe9?\xaa\xfd\r\xed\xc4\xf6\r\xc0\x0fDE0\x1f\x0b\xfe?'
p439
tp440
bag21
(g22
(I0
tp441
g24
tp442
Rp443
(I1
(I3
tp444
g241
I00
S'\x06\x11,\xef\x98O\xe7??\x10\x01s=b\t\xc04\x92\xb79o\x8c\x00@'
p445
tp446
bag21
(g22
(I0
tp447
g24
tp448
Rp449
(I1
(I3
tp450
g241
I00
S'\x92\xaf\xf3P\x96O\xc2?(\xa1:\x8er}\x05\xc0\xd4_\x91\xb3\xffL\x02@'
p451
tp452
bassS'mc_to_entity'
p453
(dp454
(g220
g221
tp455
(lp456
Vsquare_packing_box1
p457
aVsquare_packing_box4
p458
aVrectangular_packing_box2
p459
as(g282
g221
tp460
(lp461
Vsquare_packing_box3
p462
aVrectangular_packing_box2
p463
as(g333
g221
tp464
(lp465
Vsquare_packing_box1
p466
aVsquare_packing_box2
p467
aVrectangular_packing_box4
p468
aVrectangular_packing_box2
p469
as(g390
g221
tp470
(lp471
Vsquare_packing_box4
p472
aVsquare_packing_box1
p473
aVrectangular_packing_box4
p474
aVrectangular_packing_box2
p475
assS'reachable_entities'
p476
(lp477
g12
aVrectangular_packing_box3
p478
aVrectangular_packing_box1
p479
aVsquare_packing_box3
p480
ag80
aVsquare_packing_box4
p481
asS'collides'
p482
(dp483
Vrectangular_packing_box4
p484
c__builtin__
set
p485
((lp486
I160
aI161
aI2
aI611
aI454
aI38
aI39
aI40
aI41
aI42
aI395
aI289
aI288
aI304
aI115
aI372
aI393
aI404
aI539
aI380
atp487
Rp488
sVrectangular_packing_box2
p489
g485
((lp490
I235
aI132
aI517
aI8
aI416
aI33
aI34
aI607
aI554
aI43
aI44
aI301
aI584
aI55
aI56
aI186
aI187
aI449
aI459
aI196
aI71
aI456
aI202
aI203
aI162
aI84
aI93
aI94
aI95
aI327
aI484
aI233
aI106
aI107
aI108
aI497
aI252
aI234
atp491
Rp492
sVrectangular_packing_box3
p493
g485
((lp494
I384
aI257
aI164
aI197
aI394
aI452
aI589
aI564
aI580
aI532
aI502
aI356
aI575
aI478
aI229
atp495
Rp496
sVrectangular_packing_box1
p497
g485
((lp498
I514
aI259
aI392
aI406
aI407
aI556
aI429
aI177
aI118
aI585
aI463
aI464
aI593
aI121
aI610
aI486
aI490
aI494
aI240
aI374
aI119
aI120
aI505
atp499
Rp500
sVsquare_packing_box2
p501
g485
((lp502
I0
aI1
aI144
aI403
aI541
aI545
aI546
aI550
aI40
aI425
aI555
aI302
aI307
aI571
aI62
aI453
aI454
aI342
aI474
aI348
aI605
aI612
aI367
aI368
aI369
aI370
aI371
aI247
aI248
aI377
aI378
atp503
Rp504
sVsquare_packing_box3
p505
g485
((lp506
I547
aI197
aI518
aI521
aI138
aI553
aI338
aI249
aI152
aI153
aI154
aI155
aI157
aI394
atp507
Rp508
sVsquare_packing_box1
p509
g485
((lp510
I2
aI3
aI393
aI144
aI403
aI539
aI541
aI288
aI37
aI38
aI39
aI40
aI41
aI302
aI304
aI561
aI178
aI435
aI54
aI188
aI62
aI63
aI248
aI342
aI348
aI605
aI611
aI612
aI550
aI115
aI376
aI379
aI380
aI511
atp511
Rp512
sVsquare_packing_box4
p513
g485
((lp514
I577
aI307
aI268
aI435
aI144
aI91
aI548
aI37
aI550
aI348
aI302
aI303
aI561
aI178
aI179
aI54
aI442
aI63
aI64
aI65
aI194
aI438
aI79
aI376
aI210
aI343
aI89
aI90
aI219
aI220
aI605
aI612
aI114
aI500
aI247
aI248
aI511
atp515
Rp516
ssg125
g126
sS'pick_used'
p517
(dp518
Vrectangular_packing_box4
p519
(itrajectory_representation.operator
Operator
p520
(dp521
g8
I01
sg9
(dp522
S'object'
p523
Vrectangular_packing_box4
p524
ssg16
S'two_arm_pick'
p525
sg18
(dp526
S'q_goal'
p527
(lp528
g21
(g22
(I0
tp529
g24
tp530
Rp531
(I1
(I3
tp532
g230
I00
S'\x8eF\xfd*\xdd\x0f\x03@e T\x13\xa9\xc8\x18\xc0\xa1\x9b[yu \xfc?'
p533
tp534
bag21
(g22
(I0
tp535
g24
tp536
Rp537
(I1
(I3
tp538
g230
I00
S'#\x85\xdd\xff\xb9\xaa\x08@2\xc7\xea\x88\x85\xc7\x16\xc0\x8c\xad\xeb\x06\r\x90\x07@'
p539
tp540
bag21
(g22
(I0
tp541
g24
tp542
Rp543
(I1
(I3
tp544
g230
I00
S'\x9c8\xb8\x94\xf0\x9a\x08@8\t\xf351\x0b\x17\xc0\xec\x8f\xb0\x86G\xfa\x06@'
p545
tp546
basS'is_feasible'
p547
I00
ssg46
(lp548
g21
(g22
(I0
tp549
g24
tp550
Rp551
(I1
(I3
tp552
g230
I00
S'<\x00wy\x17\xef\xf4?H\x8e\xa1\x8e\xa2\xe1\xfc\xbf\x17hs\x11\xa3p\x12@'
p553
tp554
bag21
(g22
(I0
tp555
g24
tp556
Rp557
(I1
(I3
tp558
g241
I00
S'd\xadM\x94\x13a\xe5?>u\xbe\x10I>\x02\xc0X\xf3&\xd2U\xdc\xf7\xbf'
p559
tp560
bag21
(g22
(I0
tp561
g24
tp562
Rp563
(I1
(I3
tp564
g241
I00
S'(\xe0\x1c\xccxa\xe7?<\x8d\x99I\xafl\x08\xc0\xd2\xf1\x03\xe9gv\xf6\xbf'
p565
tp566
bag21
(g22
(I0
tp567
g24
tp568
Rp569
(I1
(I3
tp570
g241
I00
S'\xec\x12\xec\x03\xdea\xe9?<\xa5t\x82\x15\x9b\x0e\xc0L\xf0\xe0\xffy\x10\xf5\xbf'
p571
tp572
bag21
(g22
(I0
tp573
g24
tp574
Rp575
(I1
(I3
tp576
g241
I00
S'\xb0E\xbb;Cb\xeb?\x9e\xde\xa7\xdd\xbdd\x12\xc0\xc6\xee\xbd\x16\x8c\xaa\xf3\xbf'
p577
tp578
bag21
(g22
(I0
tp579
g24
tp580
Rp581
(I1
(I3
tp582
g241
I00
S'tx\x8as\xa8b\xed?\x9ej\x15\xfa\xf0{\x15\xc0@\xed\x9a-\x9eD\xf2\xbf'
p583
tp584
bag21
(g22
(I0
tp585
g24
tp586
Rp587
(I1
(I3
tp588
g241
I00
S'2Z\xe1\xe97J\xf6?\\\x1e`@2v\x16\xc0\xc4\x0c\xcc\x14<\xf9\xf6\xbf'
p589
tp590
bag21
(g22
(I0
tp591
g24
tp592
Rp593
(I1
(I3
tp594
g241
I00
S'\xe0 ;\x819w\xfd?\xe7\xcc\xc2\xa0\xa5f\x17\xc04\xedq\x1c\x8eK\xfa?'
p595
tp596
bag531
asbsg12
(itrajectory_representation.operator
Operator
p597
(dp598
g8
I01
sg9
(dp599
g11
g12
ssg16
S'two_arm_pick'
p600
sg18
(dp601
g20
g21
(g22
(I0
tp602
g24
tp603
Rp604
(I1
(I3
tp605
g31
I00
S'\xe2\x84m\x9e\xdas\xf0?I|\x8f\x85\xc5t\x19\xc0\x99\xe8\x02\xe0\x15b\xfd?'
p606
tp607
bssg46
(lp608
g21
(g22
(I0
tp609
g24
tp610
Rp611
(I1
(I3
tp612
g230
I00
S'\xc0\xc35\xe3\xf0A\x07@\x80\x12\xd1\xd11%\x1e\xc0\xad\xcf\xb7\xbd\xf0\xfb\xf3?'
p613
tp614
bag21
(g22
(I0
tp615
g24
tp616
Rp617
(I1
(I3
tp618
g241
I00
S'V<\xdb\x99-b\x02@s\xd3@:\x7fA\x1e\xc0\xbf\x94H\xa7$\xf0\xff?'
p619
tp620
bag21
(g22
(I0
tp621
g24
tp622
Rp623
(I1
(I3
tp624
g241
I00
S'b\x95[\xf7r*\x00@:\x8f7a\xbf]\x1c\xc0\x98.\xce\xc6\x89M\xf2?'
p625
tp626
bag21
(g22
(I0
tp627
g24
tp628
Rp629
(I1
(I3
tp630
g241
I00
S'*4\xc9\xb1\x13|\xf5?=~n\xf8\xb0\xf9\x1b\xc0\x97\x8e\x14L\xfds\x01@'
p631
tp632
bag604
asbsg478
(itrajectory_representation.operator
Operator
p633
(dp634
g8
I01
sg9
(dp635
g523
Vrectangular_packing_box3
p636
ssg16
g525
sg18
(dp637
g527
(lp638
g21
(g22
(I0
tp639
g24
tp640
Rp641
(I1
(I3
tp642
g230
I00
S'0\xb1\xcc\xbd\xca\x0e\xbb?6=\xc3\xc5\xf5\x96\x1a\xc0\x1c\xaa|A\xd6\x06\xf9\xbf'
p643
tp644
bag21
(g22
(I0
tp645
g24
tp646
Rp647
(I1
(I3
tp648
g230
I00
S'\xa8\xe2\xe2\x0f\xd8\xfc\xd2?\xe4\x80\x7f-\xfa\x18\x1b\xc0\xaco\xe15\\\xe3\xfe\xbf'
p649
tp650
bag21
(g22
(I0
tp651
g24
tp652
Rp653
(I1
(I3
tp654
g230
I00
S'2\xfb\xf8\xe3S"\xd4?\xd9\xef\x13x\x8d\x13\x1b\xc0\xcdH\xc7\x0c\xae6\x02\xc0'
p655
tp656
basg547
I00
ssg46
(lp657
g21
(g22
(I0
tp658
g24
tp659
Rp660
(I1
(I3
tp661
g230
I00
S'<\x00wy\x17\xef\xf4?H\x8e\xa1\x8e\xa2\xe1\xfc\xbf\x17hs\x11\xa3p\x12@'
p662
tp663
bag21
(g22
(I0
tp664
g24
tp665
Rp666
(I1
(I3
tp667
g241
I00
S'*|\xf3/\xccM\xf3?\xed\r\x16\x06\xa2\xba\xfc\xbfx\xff\x96h\x12P\x08\xc0'
p668
tp669
bag21
(g22
(I0
tp670
g24
tp671
Rp672
(I1
(I3
tp673
g241
I00
S'\x12\xc7x\x9cht\xe0?\x1c\xd0\x10\xe70\xee\x00\xc0x]c\xd8J\x86\xec?'
p674
tp675
bag21
(g22
(I0
tp676
g24
tp677
Rp678
(I1
(I3
tp679
g241
I00
S'\xebo\xb6\xb8\xb0\xeb\xd1?g\x92\x02\x10P\xc1\x05\xc0V\x9dZ\x12\xad/\xf6?'
p680
tp681
bag21
(g22
(I0
tp682
g24
tp683
Rp684
(I1
(I3
tp685
g241
I00
S'\x06\x11,\xef\x98O\xe7??\x10\x01s=b\t\xc04\x92\xb79o\x8c\x00@'
p686
tp687
bag21
(g22
(I0
tp688
g24
tp689
Rp690
(I1
(I3
tp691
g241
I00
S'\xe4u**\x0e5\xe9?\xaa\xfd\r\xed\xc4\xf6\r\xc0\x0fDE0\x1f\x0b\xfe?'
p692
tp693
bag21
(g22
(I0
tp694
g24
tp695
Rp696
(I1
(I3
tp697
g241
I00
S'\xc2\xda(e\x83\x1a\xeb?\x8au\x8d3\xa6E\x11\xc0\xb4c\x1b\xed_\xfd\xfa?'
p698
tp699
bag21
(g22
(I0
tp700
g24
tp701
Rp702
(I1
(I3
tp703
g241
I00
S'v\xb8^\x85\xa7[\xea?x\xbe\xff2t\x8d\x13\xc0\x88\x85\x8cCyH\xf6?'
p704
tp705
bag21
(g22
(I0
tp706
g24
tp707
Rp708
(I1
(I3
tp709
g241
I00
S'\xd8\x87\x03p)T\xe4?\xd5\xabI\xb7V\xd0\x15\xc0vWg\x9a\x87\x8a\xec?'
p710
tp711
bag21
(g22
(I0
tp712
g24
tp713
Rp714
(I1
(I3
tp715
g241
I00
S'`$W\xed\x83\x04\xe1?@\xe9\x80h\xcc\xf0\x18\xc0{2\xe8\xfe\xbeY\r@'
p716
tp717
bag647
asbsg479
(itrajectory_representation.operator
Operator
p718
(dp719
g8
I01
sg9
(dp720
g523
Vrectangular_packing_box1
p721
ssg16
g525
sg18
(dp722
g527
(lp723
g21
(g22
(I0
tp724
g24
tp725
Rp726
(I1
(I3
tp727
g230
I00
S'\xc8f\xce\xd4\xa7^\xef?\x91q\x92\x102\x9c\x1f\xc0H\x1eE\xdaC}\xe9\xbf'
p728
tp729
bag21
(g22
(I0
tp730
g24
tp731
Rp732
(I1
(I3
tp733
g230
I00
S'\xc6\x02\x8d\xffs(\xf0?\xcbP\x04\x965\x1f\x1f\xc0p\x94\x83\x16\x82\xe8\xaa?'
p734
tp735
bag21
(g22
(I0
tp736
g24
tp737
Rp738
(I1
(I3
tp739
g230
I00
S'\xbad\xdb\xc7;m\x01@\xd61!\xd2b\xf0\x1d\xc0\'\xc9"\xe3\x87/\x05\xc0'
p740
tp741
basg547
I00
ssg46
(lp742
g21
(g22
(I0
tp743
g24
tp744
Rp745
(I1
(I3
tp746
g230
I00
S'<\x00wy\x17\xef\xf4?H\x8e\xa1\x8e\xa2\xe1\xfc\xbf\x17hs\x11\xa3p\x12@'
p747
tp748
bag21
(g22
(I0
tp749
g24
tp750
Rp751
(I1
(I3
tp752
g241
I00
S'*|\xf3/\xccM\xf3?\xed\r\x16\x06\xa2\xba\xfc\xbfx\xff\x96h\x12P\x08\xc0'
p753
tp754
bag21
(g22
(I0
tp755
g24
tp756
Rp757
(I1
(I3
tp758
g241
I00
S'\x12\xc7x\x9cht\xe0?\x1c\xd0\x10\xe70\xee\x00\xc0x]c\xd8J\x86\xec?'
p759
tp760
bag21
(g22
(I0
tp761
g24
tp762
Rp763
(I1
(I3
tp764
g241
I00
S'\xebo\xb6\xb8\xb0\xeb\xd1?g\x92\x02\x10P\xc1\x05\xc0V\x9dZ\x12\xad/\xf6?'
p765
tp766
bag21
(g22
(I0
tp767
g24
tp768
Rp769
(I1
(I3
tp770
g241
I00
S'\x06\x11,\xef\x98O\xe7??\x10\x01s=b\t\xc04\x92\xb79o\x8c\x00@'
p771
tp772
bag21
(g22
(I0
tp773
g24
tp774
Rp775
(I1
(I3
tp776
g241
I00
S'\xe4u**\x0e5\xe9?\xaa\xfd\r\xed\xc4\xf6\r\xc0\x0fDE0\x1f\x0b\xfe?'
p777
tp778
bag21
(g22
(I0
tp779
g24
tp780
Rp781
(I1
(I3
tp782
g241
I00
S'\xc2\xda(e\x83\x1a\xeb?\x8au\x8d3\xa6E\x11\xc0\xb4c\x1b\xed_\xfd\xfa?'
p783
tp784
bag21
(g22
(I0
tp785
g24
tp786
Rp787
(I1
(I3
tp788
g241
I00
S'v\xb8^\x85\xa7[\xea?x\xbe\xff2t\x8d\x13\xc0\x88\x85\x8cCyH\xf6?'
p789
tp790
bag21
(g22
(I0
tp791
g24
tp792
Rp793
(I1
(I3
tp794
g241
I00
S'E6\xa2Z]\x01\xe8?\x8b\x06T\x92\xa7\x82\x16\xc0q\xc1\x9f~\xe7\n\xfb?'
p795
tp796
bag21
(g22
(I0
tp797
g24
tp798
Rp799
(I1
(I3
tp800
g241
I00
S'\xae\xea\x9e\xa3\xa2\xb1\xed?\xa4\xca\x1d?h\x96\x19\xc0dq\xdf\xb1\x9d\xe4\x05@'
p801
tp802
bag21
(g22
(I0
tp803
g24
tp804
Rp805
(I1
(I3
tp806
g241
I00
S'|\xfa\xe6W\xd6\x85\xed?\xf8 \x068~N\x1c\xc0o\xb7\xf7\x8b\xdd*\xd7\xbf'
p807
tp808
bag732
asbsVsquare_packing_box2
p809
(itrajectory_representation.operator
Operator
p810
(dp811
g8
I01
sg9
(dp812
g523
Vsquare_packing_box2
p813
ssg16
g525
sg18
(dp814
g527
(lp815
g21
(g22
(I0
tp816
g24
tp817
Rp818
(I1
(I3
tp819
g230
I00
S'T\xd4U\x01\x97\x97\t@\x9f\xd6\xfbp\xc5\x91\x1a\xc08\xcf<(@\x11\xf0?'
p820
tp821
bag21
(g22
(I0
tp822
g24
tp823
Rp824
(I1
(I3
tp825
g230
I00
S':PL\x0e\x11\x90\x0b@\r\xe0\xdf\xfa/\x8b\x1a\xc0\xa4\x1eg\x8c96\xfc?'
p826
tp827
bag21
(g22
(I0
tp828
g24
tp829
Rp830
(I1
(I3
tp831
g230
I00
S'a]LI\x0bx\n@e\xd8\x86\x90\xb25\x1a\xc0:\xdcg\xda\xa0H\xfd?'
p832
tp833
basg547
I00
ssg46
(lp834
g21
(g22
(I0
tp835
g24
tp836
Rp837
(I1
(I3
tp838
g230
I00
S'<\x00wy\x17\xef\xf4?H\x8e\xa1\x8e\xa2\xe1\xfc\xbf\x17hs\x11\xa3p\x12@'
p839
tp840
bag21
(g22
(I0
tp841
g24
tp842
Rp843
(I1
(I3
tp844
g241
I00
S'd\xadM\x94\x13a\xe5?>u\xbe\x10I>\x02\xc0X\xf3&\xd2U\xdc\xf7\xbf'
p845
tp846
bag21
(g22
(I0
tp847
g24
tp848
Rp849
(I1
(I3
tp850
g241
I00
S'(\xe0\x1c\xccxa\xe7?<\x8d\x99I\xafl\x08\xc0\xd2\xf1\x03\xe9gv\xf6\xbf'
p851
tp852
bag21
(g22
(I0
tp853
g24
tp854
Rp855
(I1
(I3
tp856
g241
I00
S'\xec\x12\xec\x03\xdea\xe9?<\xa5t\x82\x15\x9b\x0e\xc0L\xf0\xe0\xffy\x10\xf5\xbf'
p857
tp858
bag21
(g22
(I0
tp859
g24
tp860
Rp861
(I1
(I3
tp862
g241
I00
S'\xb0E\xbb;Cb\xeb?\x9e\xde\xa7\xdd\xbdd\x12\xc0\xc6\xee\xbd\x16\x8c\xaa\xf3\xbf'
p863
tp864
bag21
(g22
(I0
tp865
g24
tp866
Rp867
(I1
(I3
tp868
g241
I00
S'tx\x8as\xa8b\xed?\x9ej\x15\xfa\xf0{\x15\xc0@\xed\x9a-\x9eD\xf2\xbf'
p869
tp870
bag21
(g22
(I0
tp871
g24
tp872
Rp873
(I1
(I3
tp874
g241
I00
S'v%D\x97w\xd1\xf7?Z\xadP\x90\x08<\x17\xc0-\xca\x8a\t\xe2p\xe7\xbf'
p875
tp876
bag21
(g22
(I0
tp877
g24
tp878
Rp879
(I1
(I3
tp880
g241
I00
S'\x00\xda\x1c<\xfd\xdc\x00@j"\x91\xe3 \x1a\x18\xc0i~!@)\xb0\xdc\xbf'
p881
tp882
bag21
(g22
(I0
tp883
g24
tp884
Rp885
(I1
(I3
tp886
g241
I00
S'\xd8\xd6B\xff\x18\xb2\x05@\xf2%;\x9a\xab\xd5\x18\xc0\xce\xc8,\xa0\x8a\x9a\x00@'
p887
tp888
bag818
asbsg480
(itrajectory_representation.operator
Operator
p889
(dp890
g8
I01
sg9
(dp891
g523
Vsquare_packing_box3
p892
ssg16
g525
sg18
(dp893
g527
(lp894
g21
(g22
(I0
tp895
g24
tp896
Rp897
(I1
(I3
tp898
g230
I00
S'\xf6\x8e\\\xf8\xdeC\xd3?\xf6\x19\xd2\xbdk\x8d\x1b\xc0wJ}\x1bQ\x12\x06@'
p899
tp900
bag21
(g22
(I0
tp901
g24
tp902
Rp903
(I1
(I3
tp904
g230
I00
S'Z\x9b!\x1c\xbex\xdc?3_\x82G\x06\x9a\x1b\xc0\x95R@k{\xe7\t@'
p905
tp906
bag21
(g22
(I0
tp907
g24
tp908
Rp909
(I1
(I3
tp910
g230
I00
S'\xddz\x8d:\xcc\xc3\xd2\xbf"\xc3<\xa4\xec\x8e\x17\xc0\x00]d\x01\xb9\xb0\xfd\xbf'
p911
tp912
basg547
I00
ssg46
(lp913
g21
(g22
(I0
tp914
g24
tp915
Rp916
(I1
(I3
tp917
g230
I00
S'<\x00wy\x17\xef\xf4?H\x8e\xa1\x8e\xa2\xe1\xfc\xbf\x17hs\x11\xa3p\x12@'
p918
tp919
bag21
(g22
(I0
tp920
g24
tp921
Rp922
(I1
(I3
tp923
g241
I00
S'*|\xf3/\xccM\xf3?\xed\r\x16\x06\xa2\xba\xfc\xbfx\xff\x96h\x12P\x08\xc0'
p924
tp925
bag21
(g22
(I0
tp926
g24
tp927
Rp928
(I1
(I3
tp929
g241
I00
S'\x12\xc7x\x9cht\xe0?\x1c\xd0\x10\xe70\xee\x00\xc0x]c\xd8J\x86\xec?'
p930
tp931
bag21
(g22
(I0
tp932
g24
tp933
Rp934
(I1
(I3
tp935
g241
I00
S'\xebo\xb6\xb8\xb0\xeb\xd1?g\x92\x02\x10P\xc1\x05\xc0V\x9dZ\x12\xad/\xf6?'
p936
tp937
bag21
(g22
(I0
tp938
g24
tp939
Rp940
(I1
(I3
tp941
g241
I00
S'\x06\x11,\xef\x98O\xe7??\x10\x01s=b\t\xc04\x92\xb79o\x8c\x00@'
p942
tp943
bag21
(g22
(I0
tp944
g24
tp945
Rp946
(I1
(I3
tp947
g241
I00
S'\xe4u**\x0e5\xe9?\xaa\xfd\r\xed\xc4\xf6\r\xc0\x0fDE0\x1f\x0b\xfe?'
p948
tp949
bag21
(g22
(I0
tp950
g24
tp951
Rp952
(I1
(I3
tp953
g241
I00
S'\xc6\x05\xbdtg\xd9\xe2?F\xdf\x9d@\\\xf3\x11\xc0\x1a\xc4.\xbb\xcc\x12\x02@'
p954
tp955
bag21
(g22
(I0
tp956
g24
tp957
Rp958
(I1
(I3
tp959
g241
I00
S'&>c9\x01,\xeb?\xb2\xc2\xf0\x02\xce\x8e\x14\xc0\xd8p\xbb2\x14\xd2\x03@'
p960
tp961
bag21
(g22
(I0
tp962
g24
tp963
Rp964
(I1
(I3
tp965
g241
I00
S'\xff\x1dX8\xbe\xd2\xc9?\x91h\xd1{\x1e(\x16\xc0\xee\xfeSI\xc3\xd4\x03\xc0'
p966
tp967
bag909
asbsg80
(itrajectory_representation.operator
Operator
p968
(dp969
g8
I01
sg9
(dp970
g11
g80
ssg16
g600
sg18
(dp971
g20
g21
(g22
(I0
tp972
g24
tp973
Rp974
(I1
(I3
tp975
g31
I00
S'\xe5\x80R`\x13\xa9\xff?z\x1a\x0f\x96\x06(\x18\xc03\x84\x85W\x0c\x8e\xd2?'
p976
tp977
bssg46
(lp978
g21
(g22
(I0
tp979
g24
tp980
Rp981
(I1
(I3
tp982
g230
I00
S'\xc0\xc35\xe3\xf0A\x07@\x80\x12\xd1\xd11%\x1e\xc0\xad\xcf\xb7\xbd\xf0\xfb\xf3?'
p983
tp984
bag21
(g22
(I0
tp985
g24
tp986
Rp987
(I1
(I3
tp988
g241
I00
S'V<\xdb\x99-b\x02@s\xd3@:\x7fA\x1e\xc0\xbf\x94H\xa7$\xf0\xff?'
p989
tp990
bag21
(g22
(I0
tp991
g24
tp992
Rp993
(I1
(I3
tp994
g241
I00
S'b\x95[\xf7r*\x00@:\x8f7a\xbf]\x1c\xc0\x98.\xce\xc6\x89M\xf2?'
p995
tp996
bag21
(g22
(I0
tp997
g24
tp998
Rp999
(I1
(I3
tp1000
g241
I00
S'JyH\x8ez\xd6\xfa?\xb3\xf7h\x83\xea\xba\x1a\xc0u\xf9Uf\xb7m\xe0?'
p1001
tp1002
bag974
asbsg481
(itrajectory_representation.operator
Operator
p1003
(dp1004
g8
I01
sg9
(dp1005
g523
Vsquare_packing_box4
p1006
ssg16
g525
sg18
(dp1007
g527
(lp1008
g21
(g22
(I0
tp1009
g24
tp1010
Rp1011
(I1
(I3
tp1012
g230
I00
S'\xadM\xfe\x9e\x01\xf7\x07@\x91\xebq\xc9x\x93\x17\xc0\x141\x91\x02I\xc6\xf3\xbf'
p1013
tp1014
bag21
(g22
(I0
tp1015
g24
tp1016
Rp1017
(I1
(I3
tp1018
g230
I00
S'\xfc1\xa2\xe7\xf2\xf9\x00@\x83\xf1\x93\xd7\xed\x1b\x1a\xc0.\xb6\x01\xfd\xc1\xf7\xc3?'
p1019
tp1020
bag21
(g22
(I0
tp1021
g24
tp1022
Rp1023
(I1
(I3
tp1024
g230
I00
S'\xca=\xeb\xff\xab^\x00@\xea\xf1S\xae\x8d\xa7\x19\xc0\xd0\xdc[x\xf3,\xd1\xbf'
p1025
tp1026
basg547
I00
ssg46
(lp1027
g21
(g22
(I0
tp1028
g24
tp1029
Rp1030
(I1
(I3
tp1031
g230
I00
S'<\x00wy\x17\xef\xf4?H\x8e\xa1\x8e\xa2\xe1\xfc\xbf\x17hs\x11\xa3p\x12@'
p1032
tp1033
bag21
(g22
(I0
tp1034
g24
tp1035
Rp1036
(I1
(I3
tp1037
g241
I00
S'd\xadM\x94\x13a\xe5?>u\xbe\x10I>\x02\xc0X\xf3&\xd2U\xdc\xf7\xbf'
p1038
tp1039
bag21
(g22
(I0
tp1040
g24
tp1041
Rp1042
(I1
(I3
tp1043
g241
I00
S'(\xe0\x1c\xccxa\xe7?<\x8d\x99I\xafl\x08\xc0\xd2\xf1\x03\xe9gv\xf6\xbf'
p1044
tp1045
bag21
(g22
(I0
tp1046
g24
tp1047
Rp1048
(I1
(I3
tp1049
g241
I00
S'\xec\x12\xec\x03\xdea\xe9?<\xa5t\x82\x15\x9b\x0e\xc0L\xf0\xe0\xffy\x10\xf5\xbf'
p1050
tp1051
bag21
(g22
(I0
tp1052
g24
tp1053
Rp1054
(I1
(I3
tp1055
g241
I00
S'\xb0E\xbb;Cb\xeb?\x9e\xde\xa7\xdd\xbdd\x12\xc0\xc6\xee\xbd\x16\x8c\xaa\xf3\xbf'
p1056
tp1057
bag21
(g22
(I0
tp1058
g24
tp1059
Rp1060
(I1
(I3
tp1061
g241
I00
S'tx\x8as\xa8b\xed?\x9ej\x15\xfa\xf0{\x15\xc0@\xed\x9a-\x9eD\xf2\xbf'
p1062
tp1063
bag21
(g22
(I0
tp1064
g24
tp1065
Rp1066
(I1
(I3
tp1067
g241
I00
S'2Z\xe1\xe97J\xf6?\\\x1e`@2v\x16\xc0\xc4\x0c\xcc\x14<\xf9\xf6\xbf'
p1068
tp1069
bag21
(g22
(I0
tp1070
g24
tp1071
Rp1072
(I1
(I3
tp1073
g241
I00
S'3\x82\x8a\x8fh\xb2\xf8?\xecMw\xff=$\x19\xc0\x10\x03\x08*\x90Q\x89?'
p1074
tp1075
bag1023
asbssS'mc_paths'
p1076
(dp1077
sS'robot'
p1078
NsS'reachable_obj_region_pairs'
p1079
(lp1080
sS'sampled_pick_configs_for_objects'
p1081
(dp1082
sS'mc_calls'
p1083
I0
sS'pick_poses'
p1084
g518
sS'problem_env'
p1085
NsS'evaluations'
p1086
(dp1087
(g390
Vrectangular_packing_box2
p1088
g221
tp1089
I01
s(g220
g390
g221
tp1090
I00
s(g333
g390
g221
tp1091
I01
s(g220
g333
g221
tp1092
I01
s(g390
Vsquare_packing_box1
p1093
g221
tp1094
I01
s(g282
g220
g221
tp1095
I00
s(g220
Vsquare_packing_box3
p1096
g221
tp1097
I00
s(g333
g1096
g221
tp1098
I00
s(g282
g1093
g221
tp1099
I00
s(g333
Vrectangular_packing_box1
p1100
g221
tp1101
I00
s(g220
g1100
g221
tp1102
I00
s(g390
g282
g221
tp1103
I00
s(g282
g1096
g221
tp1104
I01
s(g282
g1100
g221
tp1105
I00
s(g333
g1088
g221
tp1106
I01
s(g220
g1088
g221
tp1107
I01
s(g390
g1100
g221
tp1108
I00
s(g333
g220
g221
tp1109
I01
s(g282
g333
g221
tp1110
I00
s(g390
g220
g221
tp1111
I01
s(g390
g333
g221
tp1112
I01
s(g333
g282
g221
tp1113
I00
s(g390
g1096
g221
tp1114
I00
s(g220
g282
g221
tp1115
I00
s(g282
g1088
g221
tp1116
I01
s(g220
g1093
g221
tp1117
I01
s(g333
g1093
g221
tp1118
I01
s(g282
g390
g221
tp1119
I00
ssS'paths_to_reachable_entities'
p1120
NsS'use_shortest_path'
p1121
I01
sbsS'ternary_edges'
p1122
(dp1123
(g1088
g1088
g221
tp1124
(lp1125
I00
as(g1093
S'loading_region'
p1126
g1126
tp1127
(lp1128
I00
as(S'entire_region'
p1129
g1100
g221
tp1130
(lp1131
I00
as(g390
g333
g1126
tp1132
(lp1133
I00
as(g221
g221
g221
tp1134
(lp1135
I00
as(g333
g1088
g1126
tp1136
(lp1137
I00
as(g1093
g282
g221
tp1138
(lp1139
I00
as(g221
g220
g221
tp1140
(lp1141
I00
as(g390
g1093
g221
tp1142
(lp1143
I01
as(g282
g220
g1126
tp1144
(lp1145
I00
as(g221
g333
g1126
tp1146
(lp1147
I00
as(g390
g1129
g221
tp1148
(lp1149
I00
as(g1126
g221
g1126
tp1150
(lp1151
I00
as(g220
g1096
g221
tp1152
(lp1153
I00
as(g333
g1129
g221
tp1154
(lp1155
I00
as(g390
g1100
g1126
tp1156
(lp1157
I00
as(g1096
g1126
g221
tp1158
(lp1159
I00
as(g1129
g1088
g1126
tp1160
(lp1161
I00
as(g221
g1129
g221
tp1162
(lp1163
I00
as(g1088
g1126
g221
tp1164
(lp1165
I00
as(g1096
g1129
g221
tp1166
(lp1167
I00
as(g1093
g1093
g1126
tp1168
(lp1169
I00
as(g1126
g333
g1126
tp1170
(lp1171
I00
as(g1129
g1126
g221
tp1172
(lp1173
I00
as(g1129
g390
g221
tp1174
(lp1175
I00
as(g1126
g1126
g221
tp1176
(lp1177
I00
as(g1096
g220
g1126
tp1178
(lp1179
I00
as(g221
g221
g1126
tp1180
(lp1181
I00
as(g1100
g390
g1126
tp1182
(lp1183
I00
as(g1088
g333
g221
tp1184
(lp1185
I00
as(g1096
g1093
g221
tp1186
(lp1187
I00
as(g1100
g221
g1126
tp1188
(lp1189
I00
as(g221
g1088
g1126
tp1190
(lp1191
I00
as(g1100
g282
g1126
tp1192
(lp1193
I00
as(g282
g1100
g221
tp1194
(lp1195
I00
as(g1126
g1093
g1126
tp1196
(lp1197
I00
as(g333
g390
g1126
tp1198
(lp1199
I00
as(g1088
g1088
g1126
tp1200
(lp1201
I00
as(g1129
g333
g221
tp1202
(lp1203
I00
as(g1126
g221
g221
tp1204
(lp1205
I00
as(g220
g1088
g221
tp1206
(lp1207
I01
as(g221
g282
g221
tp1208
(lp1209
I00
as(g390
g1100
g221
tp1210
(lp1211
I00
as(g282
g333
g221
tp1212
(lp1213
I00
as(g1093
g282
g1126
tp1214
(lp1215
I00
as(g1096
g390
g221
tp1216
(lp1217
I00
as(g390
g1093
g1126
tp1218
(lp1219
I00
as(g390
g1088
g1126
tp1220
(lp1221
I00
as(g1129
g390
g1126
tp1222
(lp1223
I00
as(g1126
g282
g1126
tp1224
(lp1225
I00
as(g1129
g221
g221
tp1226
(lp1227
I00
as(g220
g221
g221
tp1228
(lp1229
I00
as(g1126
g1129
g221
tp1230
(lp1231
I00
as(g1088
g333
g1126
tp1232
(lp1233
I00
as(g1096
g1088
g1126
tp1234
(lp1235
I00
as(g1096
g1096
g221
tp1236
(lp1237
I00
as(g1100
g282
g221
tp1238
(lp1239
I00
as(g1129
g1088
g221
tp1240
(lp1241
I00
as(g1100
g1126
g1126
tp1242
(lp1243
I00
as(g333
g1093
g221
tp1244
(lp1245
I01
as(g1093
g1093
g221
tp1246
(lp1247
I00
as(g1093
g220
g221
tp1248
(lp1249
I00
as(g220
g1088
g1126
tp1250
(lp1251
I00
as(g333
g1100
g1126
tp1252
(lp1253
I00
as(g1096
g220
g221
tp1254
(lp1255
I00
as(g1100
g390
g221
tp1256
(lp1257
I00
as(g1088
g1100
g1126
tp1258
(lp1259
I00
as(g1100
g221
g221
tp1260
(lp1261
I00
as(g390
g1088
g221
tp1262
(lp1263
I01
as(g1088
g1096
g221
tp1264
(lp1265
I00
as(g282
g1100
g1126
tp1266
(lp1267
I00
as(g221
g390
g1126
tp1268
(lp1269
I00
as(g1129
g221
g1126
tp1270
(lp1271
I00
as(g1129
g333
g1126
tp1272
(lp1273
I00
as(g1096
g1088
g221
tp1274
(lp1275
I00
as(g282
g1096
g1126
tp1276
(lp1277
I00
as(g1088
g1129
g1126
tp1278
(lp1279
I00
as(g1100
g1126
g221
tp1280
(lp1281
I00
as(g1096
g390
g1126
tp1282
(lp1283
I00
as(g1096
g1100
g1126
tp1284
(lp1285
I00
as(g333
g1093
g1126
tp1286
(lp1287
I00
as(g221
g282
g1126
tp1288
(lp1289
I00
as(g1129
g1096
g1126
tp1290
(lp1291
I00
as(g1126
g282
g221
tp1292
(lp1293
I00
as(g1126
g390
g1126
tp1294
(lp1295
I00
as(g1088
g1100
g221
tp1296
(lp1297
I00
as(g333
g1100
g221
tp1298
(lp1299
I00
as(g1126
g1096
g221
tp1300
(lp1301
I00
as(g1088
g1096
g1126
tp1302
(lp1303
I00
as(g1088
g220
g1126
tp1304
(lp1305
I00
as(g282
g333
g1126
tp1306
(lp1307
I00
as(g1093
g220
g1126
tp1308
(lp1309
I00
as(g1100
g1096
g1126
tp1310
(lp1311
I00
as(g221
g1093
g1126
tp1312
(lp1313
I00
as(g282
g1126
g1126
tp1314
(lp1315
I00
as(g220
g221
g1126
tp1316
(lp1317
I00
as(g1093
g1100
g221
tp1318
(lp1319
I00
as(g1088
g1129
g221
tp1320
(lp1321
I00
as(g220
g390
g1126
tp1322
(lp1323
I00
as(g282
g1088
g1126
tp1324
(lp1325
I00
as(g1096
g1100
g221
tp1326
(lp1327
I00
as(g333
g1126
g1126
tp1328
(lp1329
I00
as(g390
g221
g221
tp1330
(lp1331
I00
as(g333
g220
g221
tp1332
(lp1333
I01
as(g221
g1096
g1126
tp1334
(lp1335
I00
as(g1126
g1100
g1126
tp1336
(lp1337
I00
as(g1126
g1096
g1126
tp1338
(lp1339
I00
as(g1093
g1096
g221
tp1340
(lp1341
I00
as(g1100
g1096
g221
tp1342
(lp1343
I00
as(g1093
g1100
g1126
tp1344
(lp1345
I00
as(g282
g1088
g221
tp1346
(lp1347
I01
as(g1088
g390
g221
tp1348
(lp1349
I00
as(g282
g221
g1126
tp1350
(lp1351
I00
as(g333
g1126
g221
tp1352
(lp1353
I00
as(g1126
g220
g1126
tp1354
(lp1355
I00
as(g1088
g220
g221
tp1356
(lp1357
I00
as(g282
g282
g221
tp1358
(lp1359
I00
as(g220
g220
g221
tp1360
(lp1361
I00
as(g220
g282
g1126
tp1362
(lp1363
I00
as(g282
g1126
g221
tp1364
(lp1365
I00
as(g1096
g333
g221
tp1366
(lp1367
I00
as(g220
g390
g221
tp1368
(lp1369
I00
as(g390
g1126
g1126
tp1370
(lp1371
I00
as(g282
g1129
g1126
tp1372
(lp1373
I00
as(g390
g221
g1126
tp1374
(lp1375
I00
as(g1093
g390
g1126
tp1376
(lp1377
I00
as(g333
g220
g1126
tp1378
(lp1379
I00
as(g1096
g221
g1126
tp1380
(lp1381
I00
as(g282
g221
g221
tp1382
(lp1383
I00
as(g1126
g220
g221
tp1384
(lp1385
I00
as(g1100
g1100
g221
tp1386
(lp1387
I00
as(g1126
g333
g221
tp1388
(lp1389
I00
as(g333
g1096
g221
tp1390
(lp1391
I00
as(g1093
g1088
g221
tp1392
(lp1393
I00
as(g1093
g1096
g1126
tp1394
(lp1395
I00
as(g220
g1093
g1126
tp1396
(lp1397
I00
as(g221
g390
g221
tp1398
(lp1399
I00
as(g1129
g282
g1126
tp1400
(lp1401
I00
as(g282
g1093
g221
tp1402
(lp1403
I00
as(g1100
g1129
g221
tp1404
(lp1405
I00
as(g1096
g333
g1126
tp1406
(lp1407
I00
as(g1096
g282
g1126
tp1408
(lp1409
I00
as(g220
g1100
g221
tp1410
(lp1411
I00
as(g1088
g390
g1126
tp1412
(lp1413
I00
as(g220
g1126
g221
tp1414
(lp1415
I00
as(g282
g1129
g221
tp1416
(lp1417
I00
as(g333
g282
g1126
tp1418
(lp1419
I00
as(g1088
g1093
g221
tp1420
(lp1421
I00
as(g1096
g1093
g1126
tp1422
(lp1423
I00
as(g333
g333
g1126
tp1424
(lp1425
I00
as(g220
g220
g1126
tp1426
(lp1427
I00
as(g1100
g1100
g1126
tp1428
(lp1429
I00
as(g1093
g333
g1126
tp1430
(lp1431
I00
as(g333
g390
g221
tp1432
(lp1433
I01
as(g1129
g1093
g221
tp1434
(lp1435
I00
as(g221
g1129
g1126
tp1436
(lp1437
I00
as(g221
g1100
g1126
tp1438
(lp1439
I00
as(g390
g1126
g221
tp1440
(lp1441
I00
as(g1093
g1088
g1126
tp1442
(lp1443
I00
as(g1100
g1093
g1126
tp1444
(lp1445
I00
as(g282
g282
g1126
tp1446
(lp1447
I00
as(g1129
g282
g221
tp1448
(lp1449
I00
as(g390
g282
g1126
tp1450
(lp1451
I00
as(g1100
g1129
g1126
tp1452
(lp1453
I00
as(g1093
g390
g221
tp1454
(lp1455
I00
as(g220
g1100
g1126
tp1456
(lp1457
I00
as(g220
g282
g221
tp1458
(lp1459
I00
as(g333
g282
g221
tp1460
(lp1461
I00
as(g1093
g221
g1126
tp1462
(lp1463
I00
as(g390
g1096
g221
tp1464
(lp1465
I00
as(g1096
g1096
g1126
tp1466
(lp1467
I00
as(g220
g1129
g221
tp1468
(lp1469
I00
as(g1126
g1129
g1126
tp1470
(lp1471
I00
as(g333
g1096
g1126
tp1472
(lp1473
I00
as(g1126
g1100
g221
tp1474
(lp1475
I00
as(g1129
g1129
g1126
tp1476
(lp1477
I00
as(g220
g1093
g221
tp1478
(lp1479
I01
as(g1093
g333
g221
tp1480
(lp1481
I00
as(g1126
g1088
g1126
tp1482
(lp1483
I00
as(g282
g1093
g1126
tp1484
(lp1485
I00
as(g1096
g221
g221
tp1486
(lp1487
I00
as(g1129
g1093
g1126
tp1488
(lp1489
I00
as(g1096
g282
g221
tp1490
(lp1491
I00
as(g282
g390
g221
tp1492
(lp1493
I00
as(g220
g1126
g1126
tp1494
(lp1495
I00
as(g1088
g1093
g1126
tp1496
(lp1497
I00
as(g1100
g1088
g221
tp1498
(lp1499
I00
as(g1129
g1126
g1126
tp1500
(lp1501
I00
as(g1126
g1088
g221
tp1502
(lp1503
I00
as(g1093
g1129
g221
tp1504
(lp1505
I00
as(g390
g1096
g1126
tp1506
(lp1507
I00
as(g390
g220
g1126
tp1508
(lp1509
I00
as(g333
g221
g221
tp1510
(lp1511
I00
as(g220
g1129
g1126
tp1512
(lp1513
I00
as(g220
g333
g221
tp1514
(lp1515
I01
as(g1129
g220
g1126
tp1516
(lp1517
I00
as(g221
g1100
g221
tp1518
(lp1519
I00
as(g221
g1096
g221
tp1520
(lp1521
I00
as(g1100
g1093
g221
tp1522
(lp1523
I00
as(g1100
g220
g221
tp1524
(lp1525
I00
as(g1129
g1096
g221
tp1526
(lp1527
I00
as(g390
g282
g221
tp1528
(lp1529
I00
as(g390
g390
g1126
tp1530
(lp1531
I00
as(g1100
g333
g1126
tp1532
(lp1533
I00
as(g333
g221
g1126
tp1534
(lp1535
I00
as(g1088
g221
g221
tp1536
(lp1537
I00
as(g1093
g221
g221
tp1538
(lp1539
I00
as(g1100
g1088
g1126
tp1540
(lp1541
I00
as(g333
g1088
g221
tp1542
(lp1543
I01
as(g221
g1126
g221
tp1544
(lp1545
I00
as(g1129
g1129
g221
tp1546
(lp1547
I00
as(g1088
g282
g1126
tp1548
(lp1549
I00
as(g1093
g1129
g1126
tp1550
(lp1551
I00
as(g1126
g390
g221
tp1552
(lp1553
I00
as(g282
g220
g221
tp1554
(lp1555
I00
as(g1129
g220
g221
tp1556
(lp1557
I00
as(g1093
g1126
g221
tp1558
(lp1559
I00
as(g282
g390
g1126
tp1560
(lp1561
I00
as(g221
g1093
g221
tp1562
(lp1563
I00
as(g1129
g1100
g1126
tp1564
(lp1565
I00
as(g333
g1129
g1126
tp1566
(lp1567
I00
as(g390
g390
g221
tp1568
(lp1569
I00
as(g1100
g333
g221
tp1570
(lp1571
I00
as(g1096
g1129
g1126
tp1572
(lp1573
I00
as(g390
g220
g221
tp1574
(lp1575
I01
as(g221
g333
g221
tp1576
(lp1577
I00
as(g282
g1096
g221
tp1578
(lp1579
I01
as(g220
g333
g1126
tp1580
(lp1581
I00
as(g333
g333
g221
tp1582
(lp1583
I00
as(g1100
g220
g1126
tp1584
(lp1585
I00
as(g390
g333
g221
tp1586
(lp1587
I01
as(g1096
g1126
g1126
tp1588
(lp1589
I00
as(g221
g1088
g221
tp1590
(lp1591
I00
as(g1088
g1126
g1126
tp1592
(lp1593
I00
as(g221
g220
g1126
tp1594
(lp1595
I00
as(g1088
g221
g1126
tp1596
(lp1597
I00
as(g1126
g1126
g1126
tp1598
(lp1599
I00
as(g390
g1129
g1126
tp1600
(lp1601
I00
as(g220
g1096
g1126
tp1602
(lp1603
I00
as(g221
g1126
g1126
tp1604
(lp1605
I00
as(g1088
g282
g221
tp1606
(lp1607
I00
as(g1126
g1093
g221
tp1608
(lp1609
I00
assg517
g518
sS'use_prm'
p1610
I01
sS'object_names'
p1611
(lp1612
S'square_packing_box1'
p1613
aS'rectangular_packing_box1'
p1614
aS'square_packing_box2'
p1615
aS'rectangular_packing_box2'
p1616
aS'square_packing_box3'
p1617
aS'rectangular_packing_box3'
p1618
aS'square_packing_box4'
p1619
aS'rectangular_packing_box4'
p1620
asg1085
NsS'current_holding_collides'
p1621
NsS'object_poses'
p1622
(dp1623
Vrectangular_packing_box4
p1624
g21
(g22
(I0
tp1625
g24
tp1626
Rp1627
(I1
(I1
I3
tp1628
g230
I00
S'a\xad\x94\xa8\xab\x0e\x03@\xf2\x9d\x97\x15\xa9\xea\x15\xc0\x80WL\xe8\x00}\x18@'
p1629
tp1630
bsVrectangular_packing_box2
p1631
g21
(g22
(I0
tp1632
g24
tp1633
Rp1634
(I1
(I1
I3
tp1635
g230
I00
S'\xe4\t \xf2\x19\xfb\xf0?5\xde\x95U\x0c\xab\x16\xc0\x02"K\x92\x06f\xa3?'
p1636
tp1637
bsVrectangular_packing_box3
p1638
g21
(g22
(I0
tp1639
g24
tp1640
Rp1641
(I1
(I1
I3
tp1642
g230
I00
S'P\xfb@\xc4\x90g\xc9\xbf\x90\x92&\xe5x\xd5\x1d\xc0S<=\x06S\x82\xea?'
p1643
tp1644
bsVrectangular_packing_box1
p1645
g21
(g22
(I0
tp1646
g24
tp1647
Rp1648
(I1
(I1
I3
tp1649
g230
I00
S'\xb2h\xa8@w\x9d\xfa?k\xb4K\x86<8 \xc0\x8d\x15\x04`\xf6\xb2\xee?'
p1650
tp1651
bsVsquare_packing_box2
p1652
g21
(g22
(I0
tp1653
g24
tp1654
Rp1655
(I1
(I1
I3
tp1656
g230
I00
S'_\x0c\x9eZ$\xe1\x0b@\xff\xdf\xa1\xe9Z\x7f\x17\xc0X\x9d\x83\xc1\xb7\x08y?'
p1657
tp1658
bsVsquare_packing_box3
p1659
g21
(g22
(I0
tp1660
g24
tp1661
Rp1662
(I1
(I1
I3
tp1663
g230
I00
S'0\x13S\xda\x00\x82\xd1\xbf3_\xb9ZI^\x1a\xc0o\x99\x7f9\x7f\xa8\x18@'
p1664
tp1665
bsVsquare_packing_box1
p1666
g21
(g22
(I0
tp1667
g24
tp1668
Rp1669
(I1
(I1
I3
tp1670
g230
I00
S"\xf00\xf6\x93\x8c\xb9\x05@\xe4'f\xbav(\x18\xc0\x9ea\xf6!D \x12@"
p1671
tp1672
bsVsquare_packing_box4
p1673
g21
(g22
(I0
tp1674
g24
tp1675
Rp1676
(I1
(I1
I3
tp1677
g230
I00
S'\x1c\x8a\xbe\x9el2\x07@\xc7Jv\x8f\xc3j\x1a\xc0|\xde\xfd\x1esf\xf8?'
p1678
tp1679
bssS'reachable_regions_while_holding'
p1680
(lp1681
(g519
g1126
tp1682
a(g12
g1126
tp1683
a(g478
g1126
tp1684
a(g479
g1126
tp1685
a(g809
g1126
tp1686
a(g480
g1126
tp1687
a(g80
g1126
tp1688
a(g481
g1126
tp1689
a(g12
g221
tp1690
a(g479
g221
tp1691
a(g480
g221
tp1692
a(g80
g221
tp1693
asS'in_region'
p1694
(itrajectory_representation.predicates.in_region
InRegion
p1695
(dp1696
g1085
NsbsS'cached_pick_paths'
p1697
(dp1698
g519
(lp1699
g21
(g22
(I0
tp1700
g24
tp1701
Rp1702
(I1
(I3
tp1703
g230
I00
S'\xc0\xc35\xe3\xf0A\x07@\x80\x12\xd1\xd11%\x1e\xc0\xad\xcf\xb7\xbd\xf0\xfb\xf3?'
p1704
tp1705
bag21
(g22
(I0
tp1706
g24
tp1707
Rp1708
(I1
(I3
tp1709
g241
I00
S'\xd3s\x0b\xfa\xdf\xd9\x08@\xc52\xb7\xa7\x86L\x1b\xc0\xca\xe2\x95Rh\xea\xf6?'
p1710
tp1711
bag21
(g22
(I0
tp1712
g24
tp1713
Rp1714
(I1
(I3
tp1715
g241
I00
S'\xd8\xd6B\xff\x18\xb2\x05@\xf2%;\x9a\xab\xd5\x18\xc0\xce\xc8,\xa0\x8a\x9a\x00@'
p1716
tp1717
bag531
asg12
g608
sg478
(lp1718
g21
(g22
(I0
tp1719
g24
tp1720
Rp1721
(I1
(I3
tp1722
g230
I00
S'\xc0\xc35\xe3\xf0A\x07@\x80\x12\xd1\xd11%\x1e\xc0\xad\xcf\xb7\xbd\xf0\xfb\xf3?'
p1723
tp1724
bag21
(g22
(I0
tp1725
g24
tp1726
Rp1727
(I1
(I3
tp1728
g241
I00
S'V<\xdb\x99-b\x02@s\xd3@:\x7fA\x1e\xc0\xbf\x94H\xa7$\xf0\xff?'
p1729
tp1730
bag21
(g22
(I0
tp1731
g24
tp1732
Rp1733
(I1
(I3
tp1734
g241
I00
S'b\x95[\xf7r*\x00@:\x8f7a\xbf]\x1c\xc0\x98.\xce\xc6\x89M\xf2?'
p1735
tp1736
bag21
(g22
(I0
tp1737
g24
tp1738
Rp1739
(I1
(I3
tp1740
g241
I00
S'\xad\xa0\xdfFH\xe9\xf6?\xa3\xfc\x14D\x8bb\x1d\xc0\x9e2hH\xc0\xe5\xf0?'
p1741
tp1742
bag21
(g22
(I0
tp1743
g24
tp1744
Rp1745
(I1
(I3
tp1746
g241
I00
S'\xd23W\xd6\xdd\xe3\xe6?\xdc\xcai,~\xa9\x1c\xc0\xe4\x03\x93/\x16_\x04\xc0'
p1747
tp1748
bag647
asg479
(lp1749
g21
(g22
(I0
tp1750
g24
tp1751
Rp1752
(I1
(I3
tp1753
g230
I00
S'\xc0\xc35\xe3\xf0A\x07@\x80\x12\xd1\xd11%\x1e\xc0\xad\xcf\xb7\xbd\xf0\xfb\xf3?'
p1754
tp1755
bag21
(g22
(I0
tp1756
g24
tp1757
Rp1758
(I1
(I3
tp1759
g241
I00
S'h\xe5u\t\x19Z\x05@*\x05#\xa8W\x05\x1f\xc0\t\xdeI\x16\xa6\x8a\xee?'
p1760
tp1761
bag21
(g22
(I0
tp1762
g24
tp1763
Rp1764
(I1
(I3
tp1765
g241
I00
S'P\\\xf8\xf5m\xdb\x03@\x14\x01v[\xf4\xc4\x1f\xc0\xb8\xb4\xf8c\xd1\xb2\x0b@'
p1766
tp1767
bag738
asg809
(lp1768
g21
(g22
(I0
tp1769
g24
tp1770
Rp1771
(I1
(I3
tp1772
g230
I00
S'\xc0\xc35\xe3\xf0A\x07@\x80\x12\xd1\xd11%\x1e\xc0\xad\xcf\xb7\xbd\xf0\xfb\xf3?'
p1773
tp1774
bag21
(g22
(I0
tp1775
g24
tp1776
Rp1777
(I1
(I3
tp1778
g241
I00
S'\xf6\x9c\xbc\xd8\xea\x86\x05@\xc8\t,\x83\x04\xa9\x1c\xc0HA\x84\xf4\xe0S\xf1?'
p1779
tp1780
bag21
(g22
(I0
tp1781
g24
tp1782
Rp1783
(I1
(I3
tp1784
g241
I00
S'\xa3\xe7\xb4\x16R\xf0\x07@\xbc\n8\xab\xe3x\x1c\xc0=\x94\xaf\xa7P\t\x01@'
p1785
tp1786
bag818
asg480
(lp1787
g21
(g22
(I0
tp1788
g24
tp1789
Rp1790
(I1
(I3
tp1791
g230
I00
S'\xc0\xc35\xe3\xf0A\x07@\x80\x12\xd1\xd11%\x1e\xc0\xad\xcf\xb7\xbd\xf0\xfb\xf3?'
p1792
tp1793
bag21
(g22
(I0
tp1794
g24
tp1795
Rp1796
(I1
(I3
tp1797
g241
I00
S'V<\xdb\x99-b\x02@s\xd3@:\x7fA\x1e\xc0\xbf\x94H\xa7$\xf0\xff?'
p1798
tp1799
bag21
(g22
(I0
tp1800
g24
tp1801
Rp1802
(I1
(I3
tp1803
g241
I00
S'b\x95[\xf7r*\x00@:\x8f7a\xbf]\x1c\xc0\x98.\xce\xc6\x89M\xf2?'
p1804
tp1805
bag21
(g22
(I0
tp1806
g24
tp1807
Rp1808
(I1
(I3
tp1809
g241
I00
S'\xad\xa0\xdfFH\xe9\xf6?\xa3\xfc\x14D\x8bb\x1d\xc0\x9e2hH\xc0\xe5\xf0?'
p1810
tp1811
bag21
(g22
(I0
tp1812
g24
tp1813
Rp1814
(I1
(I3
tp1815
g241
I00
S'\xd23W\xd6\xdd\xe3\xe6?\xdc\xcai,~\xa9\x1c\xc0\xe4\x03\x93/\x16_\x04\xc0'
p1816
tp1817
bag903
asg80
g978
sg481
(lp1818
g21
(g22
(I0
tp1819
g24
tp1820
Rp1821
(I1
(I3
tp1822
g230
I00
S'\xc0\xc35\xe3\xf0A\x07@\x80\x12\xd1\xd11%\x1e\xc0\xad\xcf\xb7\xbd\xf0\xfb\xf3?'
p1823
tp1824
bag21
(g22
(I0
tp1825
g24
tp1826
Rp1827
(I1
(I3
tp1828
g241
I00
S'V<\xdb\x99-b\x02@s\xd3@:\x7fA\x1e\xc0\xbf\x94H\xa7$\xf0\xff?'
p1829
tp1830
bag21
(g22
(I0
tp1831
g24
tp1832
Rp1833
(I1
(I3
tp1834
g241
I00
S'>\xc0\x12$\xd1\xa3\x02@L\xfb\xe9\xe8\x00\xfd\x1c\xc0\x1dL8%\x1b\x13\x04@'
p1835
tp1836
bag21
(g22
(I0
tp1837
g24
tp1838
Rp1839
(I1
(I3
tp1840
g241
I00
S'<|\xa2\xc3\xfag\xfe?Q\xd0\th}W\x1b\xc0\x8b\xe36n\xc16\xce\xbf'
p1841
tp1842
bag1017
assg482
(dp1843
(Vrectangular_packing_box3
p1844
(cnumpy.core.multiarray
scalar
p1845
(g230
S'\x04\xcb\x112\x90g\xc9\xbf'
p1846
tp1847
Rp1848
g1845
(g230
S'W\xeb\xc4\xe5x\xd5\x1d\xc0'
p1849
tp1850
Rp1851
g1845
(g230
S':\xc9V\x97S\x82\xea?'
p1852
tp1853
Rp1854
tp1855
tp1856
g496
s(Vsquare_packing_box3
p1857
(g1845
(g230
S'\xc4\x99_\xcd\x01\x82\xd1\xbf'
p1858
tp1859
Rp1860
g1845
(g230
S'\xec\xda\xdenI^\x1a\xc0'
p1861
tp1862
Rp1863
g1845
(g230
S'$}ZE\x7f\xa8\x18@'
p1864
tp1865
Rp1866
tp1867
tp1868
g508
s(Vsquare_packing_box2
p1869
(g1845
(g230
S'd\x02~\x8d$\xe1\x0b@'
p1870
tp1871
Rp1872
g1845
(g230
S'\x01jj\xd9Z\x7f\x17\xc0'
p1873
tp1874
Rp1875
g1845
(g230
S'yx\xcf\x81\xe5\x08y?'
p1876
tp1877
Rp1878
tp1879
tp1880
g504
s(Vsquare_packing_box4
p1881
(g1845
(g230
S'\xc8[\xae~l2\x07@'
p1882
tp1883
Rp1884
g1845
(g230
S'\xba\xdc`\xa8\xc3j\x1a\xc0'
p1885
tp1886
Rp1887
g1845
(g230
S'\xef\x1e\xa0\xfbrf\xf8?'
p1888
tp1889
Rp1890
tp1891
tp1892
g516
s(Vrectangular_packing_box1
p1893
(g1845
(g230
S'\x87\xa3\xabtw\x9d\xfa?'
p1894
tp1895
Rp1896
g1845
(g230
S'\x11\xc8%\x8e<8 \xc0'
p1897
tp1898
Rp1899
g1845
(g230
S'\xa0\x8c\xf1a\xf6\xb2\xee?'
p1900
tp1901
Rp1902
tp1903
tp1904
g500
s(Vrectangular_packing_box4
p1905
(g1845
(g230
S'\x13\xee\x95y\xab\x0e\x03@'
p1906
tp1907
Rp1908
g1845
(g230
S'\x1b\x13b.\xa9\xea\x15\xc0'
p1909
tp1910
Rp1911
g1845
(g230
S'\x82\xc4v\xf7\x00}\x18@'
p1912
tp1913
Rp1914
tp1915
tp1916
g488
s(Vsquare_packing_box1
p1917
(g1845
(g230
S'\x0b$(~\x8c\xb9\x05@'
p1918
tp1919
Rp1920
g1845
(g230
S'F\xce\xc2\x9ev(\x18\xc0'
p1921
tp1922
Rp1923
g1845
(g230
S'\xe3\xfcM(D \x12@'
p1924
tp1925
Rp1926
tp1927
tp1928
g512
s(Vrectangular_packing_box2
p1929
(g1845
(g230
S'\xe1\xd21\xe7\x19\xfb\xf0?'
p1930
tp1931
Rp1932
g1845
(g230
S'M\xa0\x88E\x0c\xab\x16\xc0'
p1933
tp1934
Rp1935
g1845
(g230
S'\xabZ\xd2Q\x0ef\xa3?'
p1936
tp1937
Rp1938
tp1939
tp1940
g492
ssS'state_saver'
p1941
(igtamp_utils.utils
CustomStateSaver
p1942
(dp1943
S'robot_base_pose'
p1944
g21
(g22
(I0
tp1945
g24
tp1946
Rp1947
(I1
(I1
I3
tp1948
g230
I00
S'\xc3\xc35\xe3\xf0A\x07@z\x12\xd1\xd11%\x1e\xc0\xac\xcf\xb7\xbd\xf0\xfb\xf3?'
p1949
tp1950
bsS'held_object'
p1951
NsS'robot_name'
p1952
S'pr2'
p1953
sS'env_id'
p1954
I1
sg1622
(dp1955
Vright_wall_1
p1956
g21
(g22
(I0
tp1957
g24
tp1958
Rp1959
(I1
(I4
tp1960
g230
I00
S'H\xe1z\x14\xaeG\x12@&\\\x8f\xc2\xf5(\xd4\xbf\xcc\x7fH\xbf}\x1d\xed?\x00\x00\x00\x00\x00\x00\x00\x00'
p1961
tp1962
bsVc_obst5
p1963
g21
(g22
(I0
tp1964
g24
tp1965
Rp1966
(I1
(I4
tp1967
g230
I00
S"i\xe6\x01\x1b\x9b[\x12@\xf0\x12S\xa7\x90<\xca\xbfe\xaa`TR'\xed?\xf7n&qM\x98\x00@"
p1968
tp1969
bsVentrance_right
p1970
g21
(g22
(I0
tp1971
g24
tp1972
Rp1973
(I1
(I4
tp1974
g230
I00
S'ffffff\n@H\xe1z\x14\xaeG\t\xc0\x9c\xc4 \xb0rh\xc1?\x00\x00\x00\x00\x00\x00\x00\x00'
p1975
tp1976
bsVcomputer_table
p1977
g21
(g22
(I0
tp1978
g24
tp1979
Rp1980
(I1
(I4
tp1981
g230
I00
S'\x00\x00\x00\x00\x00\x00\x13@\x00\x00\x00\x00\x00\x00\xf8\xbf\x96C\x8bl\xe7\xfb\xe7?\xd2!3\x7f|\xd9\x12@'
p1982
tp1983
bsVchair_6b56
p1984
g21
(g22
(I0
tp1985
g24
tp1986
Rp1987
(I1
(I4
tp1988
g230
I00
S'u=\n\xd7\xa3p\xf5?K\xe1z\x14\xaeG\xd1?\x00\x00\x00\x00\x00\x00\x00\x00\xd6$\xfaNBm\n@'
p1989
tp1990
bsVsquare_packing_box3
p1991
g21
(g22
(I0
tp1992
g24
tp1993
Rp1994
(I1
(I4
tp1995
g230
I00
S'3\x13S\xda\x00\x82\xd1\xbf4_\xb9ZI^\x1a\xc0L7\x89A`\xe5\xd8?k\x99\x7f9\x7f\xa8\x18@'
p1996
tp1997
bsVsquare_packing_box2
p1998
g21
(g22
(I0
tp1999
g24
tp2000
Rp2001
(I1
(I4
tp2002
g230
I00
S'`\x0c\x9eZ$\xe1\x0b@\xfd\xdf\xa1\xe9Z\x7f\x17\xc0L7\x89A`\xe5\xd8?\x1cV\x82\xc1\xb7\x08y?'
p2003
tp2004
bsVtable
p2005
g21
(g22
(I0
tp2006
g24
tp2007
Rp2008
(I1
(I4
tp2009
g230
I00
S'\x7f\xf6#EdX\xed?\xac\xffs\x98//\xc0\xbf\x00\x00\x00\x00\x00\x00\x00\x00\x00\x00\x00\x00\x00\x00\x00\x00'
p2010
tp2011
bsVsquare_packing_box1
p2012
g21
(g22
(I0
tp2013
g24
tp2014
Rp2015
(I1
(I4
tp2016
g230
I00
S"\xee0\xf6\x93\x8c\xb9\x05@\xe8'f\xbav(\x18\xc0L7\x89A`\xe5\xd8?\x9ea\xf6!D \x12@"
p2017
tp2018
bsVback_wall_2
p2019
g21
(g22
(I0
tp2020
g24
tp2021
Rp2022
(I1
(I4
tp2023
g230
I00
S'\xaeG\xe1z\x14.\x13@\x80\x14\xaeG\xe1z\xc4?xX\xa85\xcd\xbb\xf2?\x00\x00\x00\x00\x00\x00\x00\x00'
p2024
tp2025
bsVchair_083c
p2026
g21
(g22
(I0
tp2027
g24
tp2028
Rp2029
(I1
(I4
tp2030
g230
I00
S'\xa4p=\n\xd7\xa3\xe0?333333\xe3\xbf\x00\x00\x00\x00\x00\x00\x00\x00\x00\x00\x00\x00\x00\x00\x00\x00'
p2031
tp2032
bsVback_wall_1
p2033
g21
(g22
(I0
tp2034
g24
tp2035
Rp2036
(I1
(I4
tp2037
g230
I00
S'\xaeG\xe1z\x14.\x13@\x80\x14\xaeG\xe1z\xc4?\xcc\x7fH\xbf}\x1d\xed?\x00\x00\x00\x00\x00\x00\x00\x00'
p2038
tp2039
bsVbottom_wall
p2040
g21
(g22
(I0
tp2041
g24
tp2042
Rp2043
(I1
(I4
tp2044
g230
I00
S'\x00\x00\x00\x00\x00\x00\xfc?\x00\x00\x00\x00\x00\x00\x00\x00\x00\x00\x00\x00\x00\x00\x00\x00\x00\x00\x00\x00\x00\x00\x00\x00'
p2045
tp2046
bsVcup_905a
p2047
g21
(g22
(I0
tp2048
g24
tp2049
Rp2050
(I1
(I4
tp2051
g230
I00
S'\x00\x00\x00\x00\x00\x00\xf0?\x83\xc0\xca\xa1E\xb6\xdb?\x1b/\xdd$\x06\x81\xed?\x00\x00\x00\x00\x00\x00\x00\x00'
p2052
tp2053
bsVplate_496f
p2054
g21
(g22
(I0
tp2055
g24
tp2056
Rp2057
(I1
(I4
tp2058
g230
I00
S"q=\n\xd7\xa3p\xe5?\x9dhW!\xe5'\xdd\xbf\x1b/\xdd$\x06\x81\xed?\x00\x00\x00\x00\x00\x00\x00\x00"
p2059
tp2060
bsVtoaster
p2061
g21
(g22
(I0
tp2062
g24
tp2063
Rp2064
(I1
(I4
tp2065
g230
I00
S')\\\x8f\xc2\xf5(\xf4\xbf\xe0z\x14\xaeG\xe1\xf2\xbf\xb8\x1e\x85\xebQ\xb8\xee?\x89/`\x9b\xf8\x8a\xe4?'
p2066
tp2067
bsVc_obst1
p2068
g21
(g22
(I0
tp2069
g24
tp2070
Rp2071
(I1
(I4
tp2072
g230
I00
S"$\xc4\r\xdc/\x85\x12@8\x9d\xe7\xcb\x93\xe0\xc1?e\xaa`TR'\xed?\xbc\xc1\x11UW\xdb\x14@"
p2073
tp2074
bsVrectangular_packing_box4
p2075
g21
(g22
(I0
tp2076
g24
tp2077
Rp2078
(I1
(I4
tp2079
g230
I00
S'a\xad\x94\xa8\xab\x0e\x03@\xf2\x9d\x97\x15\xa9\xea\x15\xc0L7\x89A`\xe5\xd8?\x80WL\xe8\x00}\x18@'
p2080
tp2081
bsVmicrowave
p2082
g21
(g22
(I0
tp2083
g24
tp2084
Rp2085
(I1
(I4
tp2086
g230
I00
S'\x9a\x99\x99\x99\x99\x99\xf1\xbf\x00\x00\x00\x00\x00\x00\x00@7\x89A`\xe5\xd0\xee?\x00\x00\x00\x00\x00\x00\x00\x00'
p2087
tp2088
bsVc_obst7
p2089
g21
(g22
(I0
tp2090
g24
tp2091
Rp2092
(I1
(I4
tp2093
g230
I00
S'\xa8oH\xb2~"\x12@\xc0~\xe4}vG\xaf\xbfe\xaa`TR\'\xed? I)\xe3\xee+\x01@'
p2094
tp2095
bsVc_obst6
p2096
g21
(g22
(I0
tp2097
g24
tp2098
Rp2099
(I1
(I4
tp2100
g230
I00
S"\x9f\xb0Ne\x02\xa5\x12@mQb\x10\xfc\xeb\xd1?e\xaa`TR'\xed?\xc6\x8d^\xc0c\x1d\t@"
p2101
tp2102
bsVcup_b6af
p2103
g21
(g22
(I0
tp2104
g24
tp2105
Rp2106
(I1
(I4
tp2107
g230
I00
S'R\xb8\x1e\x85\xebQ\xe8?\x9a\x99\x99\x99\x99\x99\xe1?\x1b/\xdd$\x06\x81\xed?\x00\x00\x00\x00\x00\x00\x00\x00'
p2108
tp2109
bsVc_obst4
p2110
g21
(g22
(I0
tp2111
g24
tp2112
Rp2113
(I1
(I4
tp2114
g230
I00
S"\xd5\xccU\xa6\xe8\x8a\x12@\x9cN9S\x14\xdb\xb1?e\xaa`TR'\xed?\x97\x01t\x11\xbb\xf6\x14@"
p2115
tp2116
bsVrectangular_packing_box2
p2117
g21
(g22
(I0
tp2118
g24
tp2119
Rp2120
(I1
(I4
tp2121
g230
I00
S'\xe4\t \xf2\x19\xfb\xf0?6\xde\x95U\x0c\xab\x16\xc0L7\x89A`\xe5\xd8?\x9b(K\x92\x06f\xa3?'
p2122
tp2123
bsVplate_fa76
p2124
g21
(g22
(I0
tp2125
g24
tp2126
Rp2127
(I1
(I4
tp2128
g230
I00
S'=\n\xd7\xa3p=\xf2?\x00\x00\x00\x00\x00\x00\x00\x00\x1b/\xdd$\x06\x81\xed?\x00\x00\x00\x00\x00\x00\x00\x00'
p2129
tp2130
bsVfloorwalls
p2131
g21
(g22
(I0
tp2132
g24
tp2133
Rp2134
(I1
(I4
tp2135
g230
I00
S'\xc7\xcc\xcc\xcc\xcc\xcc\xfc?\x00\x00\x00\x00\x00\x00\x18\xc0H\xe1z\x14\xaeG\xc1?\x16-DT\xfb!\xf9?'
p2136
tp2137
bsVpin_c671
p2138
g21
(g22
(I0
tp2139
g24
tp2140
Rp2141
(I1
(I4
tp2142
g230
I00
S'\xc3\xf5(\\\x8f\xc2\xf1\xbf}?5^\xbaI\x02@\xb8\x1e\x85\xebQ\xb8\xfa?\x00\x00\x00\x00\x00\x00\x00\x00'
p2143
tp2144
bsVc_obst3
p2145
g21
(g22
(I0
tp2146
g24
tp2147
Rp2148
(I1
(I4
tp2149
g230
I00
S"t)\xf7\x8e\xc4^\x12@\x18\x0fJAWd\xa9\xbfe\xaa`TR'\xed?\xf3Y!\x14\xbc\xaa\xd7?"
p2150
tp2151
bsVchair_2e39
p2152
g21
(g22
(I0
tp2153
g24
tp2154
Rp2155
(I1
(I4
tp2156
g230
I00
S'hfffff\xee?cfffff\xf2\xbf\x00\x00\x00\x00\x00\x00\x00\x00\x07M\xe8QQF\xf3?'
p2157
tp2158
bsVentrance_left
p2159
g21
(g22
(I0
tp2160
g24
tp2161
Rp2162
(I1
(I4
tp2163
g230
I00
S'\x98\x99\x99\x99\x99\x99\xe9\xbfH\xe1z\x14\xaeG\t\xc0\x9c\xc4 \xb0rh\xc1?\x00\x00\x00\x00\x00\x00\x00\x00'
p2164
tp2165
bsVtop_wall_1
p2166
g21
(g22
(I0
tp2167
g24
tp2168
Rp2169
(I1
(I4
tp2170
g230
I00
S'H\xe1z\x14\xaeG\x12@\x80\x14\xaeG\xe1z\xc4?xX\xa85\xcd\xbb\xf2?\x00\x00\x00\x00\x00\x00\x00\x00'
p2171
tp2172
bsVrectangular_packing_box3
p2173
g21
(g22
(I0
tp2174
g24
tp2175
Rp2176
(I1
(I4
tp2177
g230
I00
S'\\\xfb@\xc4\x90g\xc9\xbf\x90\x92&\xe5x\xd5\x1d\xc0L7\x89A`\xe5\xd8?S<=\x06S\x82\xea?'
p2178
tp2179
bsVshaker
p2180
g21
(g22
(I0
tp2181
g24
tp2182
Rp2183
(I1
(I4
tp2184
g230
I00
S'\n\xd7\xa3p=\n\x01@\x14\xaeG\xe1z\x14\x02@\\\x8f\xc2\xf5(\\\xef?\x00\x00\x00\x00\x00\x00\x00\x00'
p2185
tp2186
bsVc_obst9
p2187
g21
(g22
(I0
tp2188
g24
tp2189
Rp2190
(I1
(I4
tp2191
g230
I00
S":\x10\xb39*|\x12@\x00Na/k'w?e\xaa`TR'\xed?\x0e\x1f\\@\xf2\xd0\x06@"
p2192
tp2193
bsVplate_835a
p2194
g21
(g22
(I0
tp2195
g24
tp2196
Rp2197
(I1
(I4
tp2198
g230
I00
S'\xf6(\\\x8f\xc2\xf5\xf0?\\\x8f\xc2\xf5(\\\xe7\xbf\x1b/\xdd$\x06\x81\xed?\x00\x00\x00\x00\x00\x00\x00\x00'
p2199
tp2200
bsVcup_58a2
p2201
g21
(g22
(I0
tp2202
g24
tp2203
Rp2204
(I1
(I4
tp2205
g230
I00
S'\x85\xebQ\xb8\x1e\x85\xe3?\xcd\xcc\xcc\xcc\xcc\xcc\xdc?\x1b/\xdd$\x06\x81\xed?\x00\x00\x00\x00\x00\x00\x00\x00'
p2206
tp2207
bsVleft_wall_1
p2208
g21
(g22
(I0
tp2209
g24
tp2210
Rp2211
(I1
(I4
tp2212
g230
I00
S'H\xe1z\x14\xaeG\x12@S\xb8\x1e\x85\xebQ\xe4?\xcc\x7fH\xbf}\x1d\xed?\x00\x00\x00\x00\x00\x00\x00\x00'
p2213
tp2214
bsVc_obst2
p2215
g21
(g22
(I0
tp2216
g24
tp2217
Rp2218
(I1
(I4
tp2219
g230
I00
S"\n\x06(;r'\x12@\\\xff\x1c\x06\x1f[\xd9?e\xaa`TR'\xed?\xdft\x91pa\xbd\xf1?"
p2220
tp2221
bsVsquare_packing_box4
p2222
g21
(g22
(I0
tp2223
g24
tp2224
Rp2225
(I1
(I4
tp2226
g230
I00
S' \x8a\xbe\x9el2\x07@\xc7Jv\x8f\xc3j\x1a\xc0L7\x89A`\xe5\xd8?|\xde\xfd\x1esf\xf8?'
p2227
tp2228
bsVrectangular_packing_box1
p2229
g21
(g22
(I0
tp2230
g24
tp2231
Rp2232
(I1
(I4
tp2233
g230
I00
S'\xb2h\xa8@w\x9d\xfa?k\xb4K\x86<8 \xc0L7\x89A`\xe5\xd8?\x8d\x15\x04`\xf6\xb2\xee?'
p2234
tp2235
bsVpin_371e
p2236
g21
(g22
(I0
tp2237
g24
tp2238
Rp2239
(I1
(I4
tp2240
g230
I00
S'333333\xf3\xbfffffff\xf6?\xb8\x1e\x85\xebQ\xb8\xee?\x00\x00\x00\x00\x00\x00\x00\x00'
p2241
tp2242
bsVfridge
p2243
g21
(g22
(I0
tp2244
g24
tp2245
Rp2246
(I1
(I4
tp2247
g230
I00
S'\xd7\xa3p=\n\xd7\xeb\xbf\x00\x00\x00\x00\x00\x00\x00\xc0\xcd\xcc\xcc\xcc\xcc\xcc\xf8?\x00\x00\x00\x00\x00\x00\x00\x00'
p2248
tp2249
bsVcup_d441
p2250
g21
(g22
(I0
tp2251
g24
tp2252
Rp2253
(I1
(I4
tp2254
g230
I00
S'\n\xd7\xa3p=\n\xef?\x8f\xc2\xf5(\\\x8f\xe2?\x1b/\xdd$\x06\x81\xed?\x00\x00\x00\x00\x00\x00\x00\x00'
p2255
tp2256
bsVshelf2
p2257
g21
(g22
(I0
tp2258
g24
tp2259
Rp2260
(I1
(I4
tp2261
g230
I00
S'\x00\x00\x00\x00\x00\x00\x0e@\xaeG\xe1z\x14\xae\x07@\x9c\xc4 \xb0rh\xc1?\xd2!3\x7f|\xd9\x12@'
p2262
tp2263
bsVtop_wall_2
p2264
g21
(g22
(I0
tp2265
g24
tp2266
Rp2267
(I1
(I4
tp2268
g230
I00
S'H\xe1z\x14\xaeG\x12@\x80\x14\xaeG\xe1z\xc4?\x16HP\xfc\x18\xf3\xfd?\x00\x00\x00\x00\x00\x00\x00\x00'
p2269
tp2270
bsVc_obst0
p2271
g21
(g22
(I0
tp2272
g24
tp2273
Rp2274
(I1
(I4
tp2275
g230
I00
S"\x92\x0f^\xd9\xa8\xf9\x11@\x14\xdd\x88\xaeV%\xc0?e\xaa`TR'\xed?\xea\x92W\xf2*\r\xfc?"
p2276
tp2277
bsVshelf1
p2278
g21
(g22
(I0
tp2279
g24
tp2280
Rp2281
(I1
(I4
tp2282
g230
I00
S'\x00\x00\x00\x00\x00\x00\x13@\xaeG\xe1z\x14\xae\x07@\x9c\xc4 \xb0rh\xc1?\xd2!3\x7f|\xd9\x12@'
p2283
tp2284
bsVsink
p2285
g21
(g22
(I0
tp2286
g24
tp2287
Rp2288
(I1
(I4
tp2289
g230
I00
S'ffffff\xd6?333333\x01@\x9a\x99\x99\x99\x99\x99\xb9\xbf\x00\x00\x00\x00\x00\x00\x00\x00'
p2290
tp2291
bsVpr2
p2292
g21
(g22
(I0
tp2293
g24
tp2294
Rp2295
(I1
(I4
tp2296
g230
I00
S'\xc8\xc35\xe3\xf0A\x07@w\x12\xd1\xd11%\x1e\xc0\x9a_\x94\xa0\xbf\xd0\xc1?\xac\xcf\xb7\xbd\xf0\xfb\xf3?'
p2297
tp2298
bsVchair_12d0
p2299
g21
(g22
(I0
tp2300
g24
tp2301
Rp2302
(I1
(I4
tp2303
g230
I00
S'\\\xd2\x18\xad\xa3\xaa\xdb?Of\x83L2r\xc6?\x00\x00\x00\x00\x00\x00\x00\x00\xf8\x81\r\x14M\xa6\x17@'
p2304
tp2305
bsVright_wall_2
p2306
g21
(g22
(I0
tp2307
g24
tp2308
Rp2309
(I1
(I4
tp2310
g230
I00
S'H\xe1z\x14\xaeG\x12@&\\\x8f\xc2\xf5(\xd4\xbfxX\xa85\xcd\xbb\xf2?\x00\x00\x00\x00\x00\x00\x00\x00'
p2311
tp2312
bsVknife_block
p2313
g21
(g22
(I0
tp2314
g24
tp2315
Rp2316
(I1
(I4
tp2317
g230
I00
S'R\xb8\x1e\x85\xebQ\xe0\xbfffffff\x02@`\xe5\xd0"\xdb\xf9\xee?\x00\x00\x00\x00\x00\x00\x00\x00'
p2318
tp2319
bsVleft_wall_2
p2320
g21
(g22
(I0
tp2321
g24
tp2322
Rp2323
(I1
(I4
tp2324
g230
I00
S'H\xe1z\x14\xaeG\x12@S\xb8\x1e\x85\xebQ\xe4?xX\xa85\xcd\xbb\xf2?\x00\x00\x00\x00\x00\x00\x00\x00'
p2325
tp2326
bsVleft_wall
p2327
g21
(g22
(I0
tp2328
g24
tp2329
Rp2330
(I1
(I4
tp2331
g230
I00
S'\x9a\x99\x99\x99\x99\x99\x07@H\xe1z\x14\xaeG\xff?\x9c\xc4 \xb0rh\xc1?\x00\x00\x00\x00\x00\x00\x00\x00'
p2332
tp2333
bsVkitchen
p2334
g21
(g22
(I0
tp2335
g24
tp2336
Rp2337
(I1
(I4
tp2338
g230
I00
S'\x00\x00\x00\x00\x00\x00\x00\x00\x00\x00\x00\x00\x00\x00\x00\x00\x00\x00\x00\x00\x00\x00\x00\x00\x00\x00\x00\x00\x00\x00\x00\x00'
p2339
tp2340
bsVtable2
p2341
g21
(g22
(I0
tp2342
g24
tp2343
Rp2344
(I1
(I4
tp2345
g230
I00
S'\x00\x00\x00\x00\x00\x00\x13@\x80\x14\xaeG\xe1z\xc4?S\x96!\x8euq\xec?\xd2!3\x7f|\xd9\x12@'
p2346
tp2347
bsVc_obst8
p2348
g21
(g22
(I0
tp2349
g24
tp2350
Rp2351
(I1
(I4
tp2352
g230
I00
S"\x08\xd7i\x8c\xb2\xe1\x11@\xc3O\xd6\xdey2\xd8?e\xaa`TR'\xed?\xd9\xbf\xd8\x8b\x95*\t@"
p2353
tp2354
bsVplate_b4e7
p2355
g21
(g22
(I0
tp2356
g24
tp2357
Rp2358
(I1
(I4
tp2359
g230
I00
S'\x14\xaeG\xe1z\x14\xf2\xbf\x14\xaeG\xe1z\x14\x00@=\n\xd7\xa3p=\xf2?\x00\x00\x00\x00\x00\x00\x00\x00'
p2360
tp2361
bsVcooker
p2362
g21
(g22
(I0
tp2363
g24
tp2364
Rp2365
(I1
(I4
tp2366
g230
I00
S'\xaeG\xe1z\x14\xae\xff?\x85\xebQ\xb8\x1e\x85\xfb?\x00\x00\x00\x00\x00\x00\xe8?\x00\x00\x00\x00\x00\x00\x00\x00'
p2367
tp2368
bsVpin_a091
p2369
g21
(g22
(I0
tp2370
g24
tp2371
Rp2372
(I1
(I4
tp2373
g230
I00
S'\xdb\xf9~j\xbct\xf7\xbf)\\\x8f\xc2\xf5(\x02@\xb8\x1e\x85\xebQ\xb8\xfa?\x00\x00\x00\x00\x00\x00\x00\x00'
p2374
tp2375
bsVside_wall_2
p2376
g21
(g22
(I0
tp2377
g24
tp2378
Rp2379
(I1
(I4
tp2380
g230
I00
S'\xfa\xff\xff\xff\xff\xff\x14@\x00\x00\x00\x00\x00\x00\x00\x00\x9c\xc4 \xb0rh\xc1?\x18-DT\xfb!\xf9?'
p2381
tp2382
bsVside_wall_3
p2383
g21
(g22
(I0
tp2384
g24
tp2385
Rp2386
(I1
(I4
tp2387
g230
I00
S'\x00\x00\x00\x00\x00\x00\xfc?H\xe1z\x14\xaeG\t@\x9c\xc4 \xb0rh\xc1?\x00\x00\x00\x00\x00\x00\x00\x00'
p2388
tp2389
bsVmixer
p2390
g21
(g22
(I0
tp2391
g24
tp2392
Rp2393
(I1
(I4
tp2394
g230
I00
S'\n\xd7\xa3p=\n\xfb?ffffff\x02@d;\xdfO\x8d\x97\xee?\x00\x00\x00\x00\x00\x00\x00\x00'
p2395
tp2396
bsVside_wall_1
p2397
g21
(g22
(I0
tp2398
g24
tp2399
Rp2400
(I1
(I4
tp2401
g230
I00
S'\xf4\xff\xff\xff\xff\xff\xfb\xbf\x00\x00\x00\x00\x00\x00\x00\x00\x9c\xc4 \xb0rh\xc1?\x18-DT\xfb!\xf9?'
p2402
tp2403
bsVbottom_wall_1
p2404
g21
(g22
(I0
tp2405
g24
tp2406
Rp2407
(I1
(I4
tp2408
g230
I00
S'H\xe1z\x14\xaeG\x12@\x80\x14\xaeG\xe1z\xc4?\xcc\x7fH\xbf}\x1d\xed?\x00\x00\x00\x00\x00\x00\x00\x00'
p2409
tp2410
bsVcan
p2411
g21
(g22
(I0
tp2412
g24
tp2413
Rp2414
(I1
(I4
tp2415
g230
I00
S'\x00\x00\x00\x00\x00\x00\xf4\xbfH\xe1z\x14\xaeG\xe1\xbf\n\xd7\xa3p=\n\xef?\x00\x00\x00\x00\x00\x00\x00\x00'
p2416
tp2417
bsVright_wall
p2418
g21
(g22
(I0
tp2419
g24
tp2420
Rp2421
(I1
(I4
tp2422
g230
I00
S'\x9a\x99\x99\x99\x99\x99\x07@H\xe1z\x14\xaeG\xff\xbf\x9c\xc4 \xb0rh\xc1?\x00\x00\x00\x00\x00\x00\x00\x00'
p2423
tp2424
bsVcoffe_machine
p2425
g21
(g22
(I0
tp2426
g24
tp2427
Rp2428
(I1
(I4
tp2429
g230
I00
S'\\\x8f\xc2\xf5(\\\xf5\xbf\xb8\x1e\x85\xebQ\xb8\xee?\n\xd7\xa3p=\n\xef?\x00\x00\x00\x00\x00\x00\x00\x00'
p2430
tp2431
bsVcomputer_chair
p2432
g21
(g22
(I0
tp2433
g24
tp2434
Rp2435
(I1
(I4
tp2436
g230
I00
S'\xcd\xcc\xcc\xcc\xcc\xcc\x10@\x00\x00\x00\x00\x00\x00\xf8\xbf\xa00\xb6\x10\xe4\xa9\x95\xbf\x00\x00\x00\x00\x00\x00\x00\x00'
p2437
tp2438
bssS'robot_dof_values'
p2439
g21
(g22
(I0
tp2440
g24
tp2441
Rp2442
(I1
(I39
tp2443
g230
I00
S'\x00\x00\x00\x00\x00\x00\x00\x00\xce;\x7ff\x9e\xa0\xb6\xbc\xce;\x7ff\x9e\xa0\xb6\xbc\x00\x00\x00\x00\x00\x00\x00\x00\xce;\x7ff\x9e\xa0\xb6\xbc\xce;\x7ff\x9e\xa0\xb6\xbc\x00\x00\x00\x00\x00\x00\x00\x00\xce;\x7ff\x9e\xa0\xb6\xbc\xce;\x7ff\x9e\xa0\xb6\xbc\x00\x00\x00\x00\x00\x00\x00\x00\xce;\x7ff\x9e\xa0\xb6\xbc\xce;\x7ff\x9e\xa0\xb6\xbc@d;\xdfO\x8d\x87?\x00\x00\x00\x00\x00\x00\x00\x00\xce;\x7ff\x9e\xa0\xb6\xbc\x00\x00\x00\x00\x00\x00\x00\x00\xec\xed\t\xf1\xcc\xa4\xf4?\x00\x00\x00\x00\x00\x00\xb0<N"\xd0^p\xf8\x00\xc0ST\xaf\x99\x8a\xcc\xa3<\x9d\x03\r.\x04V\xe6\xbf\x00\x00\x00\x00\x00\x00\x00\x00\x00\x00\x00\x00\x00\x00\x00\x00\x00\x00\x00\x00\x00\x80\xd9\xbc\xdal\xdf\xccv\xf8\xa0\xbc\x00\x00\x00\x00\x00\x00\xd0<\xce;\x7ff\x9e\xa0\xb6\xbc\x00\x00\x00\x00\x00\x00\x00\x00\xec\xed\t\xf1\xcc\xa4\xf4?\x00\x00\x00\x00\x00\x00\x00\x00N"\xd0^p\xf8\x00\xc0ST\xaf\x99\x8a\xcc\xa3<\xa2\x03\r.\x04V\xe6\xbf\x00\x00\x00\x00\x00\x00\x00\x00\xcc9\xe3\xc17\x89\xe1?\x00\x00\x00\x00\x00\x80\xdb\xbc\x00\x00\x00\x00\x00\x00\x00\x00\x00\x00\x00\x00\x00\x00\xf0<\x00\x00\x00\x00\x00\x00\x00\x00'
p2444
tp2445
bsS'is_holding'
p2446
I00
sbsS'holding_collides'
p2447
NsS'parent_ternary_predicates'
p2448
(dp2449
sS'cached_place_paths'
p2450
(dp2451
(g479
g1126
tp2452
(lp2453
g21
(g22
(I0
tp2454
g24
tp2455
Rp2456
(I1
(I3
tp2457
g230
I00
S'\xaff\xce\xd4\xa7^\xef?\x91q\x92\x102\x9c\x1f\xc0P\x89\xfb\xd8R\xf2\x15@'
p2458
tp2459
bas(g481
g221
tp2460
g335
s(g519
g221
tp2461
g223
s(g480
g1126
tp2462
(lp2463
g21
(g22
(I0
tp2464
g24
tp2465
Rp2466
(I1
(I3
tp2467
g230
I00
S'\xe9\x8e\\\xf8\xdeC\xd3?\xff\x19\xd2\xbdk\x8d\x1b\xc0wJ}\x1bQ\x12\x06@'
p2468
tp2469
bas(g519
g1126
tp2470
(lp2471
g21
(g22
(I0
tp2472
g24
tp2473
Rp2474
(I1
(I3
tp2475
g230
I00
S'\x8dF\xfd*\xdd\x0f\x03@` T\x13\xa9\xc8\x18\xc0\xa1\x9b[yu \xfc?'
p2476
tp2477
bas(g480
g221
tp2478
(lp2479
g21
(g22
(I0
tp2480
g24
tp2481
Rp2482
(I1
(I3
tp2483
g230
I00
S'\x00\x8f\\\xf8\xdeC\xd3?\xfa\x19\xd2\xbdk\x8d\x1b\xc0wJ}\x1bQ\x12\x06@'
p2484
tp2485
bag21
(g22
(I0
tp2486
g24
tp2487
Rp2488
(I1
(I3
tp2489
g241
I00
S'ib\xa2\x0c9\xe9\xd7?\xca\xcd\xb4=\xe6_\x18\xc0tY\xa4\x97\x8d\xd7\x02@'
p2490
tp2491
bag21
(g22
(I0
tp2492
g24
tp2493
Rp2494
(I1
(I3
tp2495
g241
I00
S'\xe4\x02R\xd9\x08\x8c\xc7?2\xc1\xd4;\xf6\xf3\x15\xc0>\x8c\x8fa?0\xd8?'
p2496
tp2497
bag21
(g22
(I0
tp2498
g24
tp2499
Rp2500
(I1
(I3
tp2501
g241
I00
S'\xcc\x87!\x1f\xfb\x05\xe6?\x14;\x08\xf1<\xc6\x13\xc0V!\xac1j\x94\xc8?'
p2502
tp2503
bag21
(g22
(I0
tp2504
g24
tp2505
Rp2506
(I1
(I3
tp2507
g241
I00
S'`\xc8Aw-\x81\xeb?/\xc3\xe6O\x04\xca\x10\xc0\x8a\xb7K)\x91{\xe4\xbf'
p2508
tp2509
bag21
(g22
(I0
tp2510
g24
tp2511
Rp2512
(I1
(I3
tp2513
g241
I00
S'\xe1\xc6\xc7\xa7\x12X\xe7?\x98\x99\xb0\x9a\xfb\xdb\x0b\xc0R\t\x1b)\xeae\xe0\xbf'
p2514
tp2515
bag21
(g22
(I0
tp2516
g24
tp2517
Rp2518
(I1
(I3
tp2519
g241
I00
S'p\xf1\xbdc^\x84\xf1?"\x88LL\xf9D\x06\xc0~w\r\xe9m\x0f\x19@'
p2520
tp2521
bas(g809
g1126
tp2522
(lp2523
g21
(g22
(I0
tp2524
g24
tp2525
Rp2526
(I1
(I3
tp2527
g230
I00
S'Z\xd4U\x01\x97\x97\t@\x9e\xd6\xfbp\xc5\x91\x1a\xc08\xcf<(@\x11\xf0?'
p2528
tp2529
bas(g809
g221
tp2530
g392
s(g80
g221
tp2531
(lp2532
g21
(g22
(I0
tp2533
g24
tp2534
Rp2535
(I1
(I3
tp2536
g230
I00
S'\xe0\x80R`\x13\xa9\xff?z\x1a\x0f\x96\x06(\x18\xc00\x84\x85W\x0c\x8e\xd2?'
p2537
tp2538
bag21
(g22
(I0
tp2539
g24
tp2540
Rp2541
(I1
(I3
tp2542
g241
I00
S'JyH\x8ez\xd6\xfa?\xb3\xf7h\x83\xea\xba\x1a\xc0u\xf9Uf\xb7m\xe0?'
p2543
tp2544
bag21
(g22
(I0
tp2545
g24
tp2546
Rp2547
(I1
(I3
tp2548
g241
I00
S'\xcb\xa0\xb6M\xadU\xef?ny]\x1b[.\x1a\xc0\x99\xfe\xc1BBE\xde?'
p2549
tp2550
bag21
(g22
(I0
tp2551
g24
tp2552
Rp2553
(I1
(I3
tp2554
g241
I00
S'T]\x0c\x0e\xd89\xda?\xf4\x992\x11%\\\x18\xc0\x95\x7f\x10B\xb1)\xe3?'
p2555
tp2556
bag21
(g22
(I0
tp2557
g24
tp2558
Rp2559
(I1
(I3
tp2560
g241
I00
S'\xe4\x02R\xd9\x08\x8c\xc7?2\xc1\xd4;\xf6\xf3\x15\xc0>\x8c\x8fa?0\xd8?'
p2561
tp2562
bag21
(g22
(I0
tp2563
g24
tp2564
Rp2565
(I1
(I3
tp2566
g241
I00
S'\xcc\x87!\x1f\xfb\x05\xe6?\x14;\x08\xf1<\xc6\x13\xc0V!\xac1j\x94\xc8?'
p2567
tp2568
bag21
(g22
(I0
tp2569
g24
tp2570
Rp2571
(I1
(I3
tp2572
g241
I00
S'`\xc8Aw-\x81\xeb?/\xc3\xe6O\x04\xca\x10\xc0\x8a\xb7K)\x91{\xe4\xbf'
p2573
tp2574
bag21
(g22
(I0
tp2575
g24
tp2576
Rp2577
(I1
(I3
tp2578
g241
I00
S'\xe1\xc6\xc7\xa7\x12X\xe7?\x98\x99\xb0\x9a\xfb\xdb\x0b\xc0R\t\x1b)\xeae\xe0\xbf'
p2579
tp2580
bag21
(g22
(I0
tp2581
g24
tp2582
Rp2583
(I1
(I3
tp2584
g241
I00
S'p\xf1\xbdc^\x84\xf1?"\x88LL\xf9D\x06\xc0~w\r\xe9m\x0f\x19@'
p2585
tp2586
bas(g478
g221
tp2587
g284
s(g478
g1126
tp2588
(lp2589
g21
(g22
(I0
tp2590
g24
tp2591
Rp2592
(I1
(I3
tp2593
g230
I00
S'?\xb1\xcc\xbd\xca\x0e\xbb?4=\xc3\xc5\xf5\x96\x1a\xc0\x90\x02\xe5\xc3E\xe0\x12@'
p2594
tp2595
bas(g481
g1126
tp2596
(lp2597
g21
(g22
(I0
tp2598
g24
tp2599
Rp2600
(I1
(I3
tp2601
g230
I00
S'\xacM\xfe\x9e\x01\xf7\x07@\x92\xebq\xc9x\x93\x17\xc0\xd3\xe0\x9f\x13i0\x14@'
p2602
tp2603
bas(g80
g1126
tp2604
(lp2605
g21
(g22
(I0
tp2606
g24
tp2607
Rp2608
(I1
(I3
tp2609
g230
I00
S'\xe2\x80R`\x13\xa9\xff?|\x1a\x0f\x96\x06(\x18\xc0/\x84\x85W\x0c\x8e\xd2?'
p2610
tp2611
bas(g12
g1126
tp2612
(lp2613
g21
(g22
(I0
tp2614
g24
tp2615
Rp2616
(I1
(I3
tp2617
g230
I00
S'\xec\x84m\x9e\xdas\xf0?F|\x8f\x85\xc5t\x19\xc0\x9a\xe8\x02\xe0\x15b\xfd?'
p2618
tp2619
bas(g12
g221
tp2620
(lp2621
g21
(g22
(I0
tp2622
g24
tp2623
Rp2624
(I1
(I3
tp2625
g230
I00
S'\xe0\x84m\x9e\xdas\xf0?K|\x8f\x85\xc5t\x19\xc0\x99\xe8\x02\xe0\x15b\xfd?'
p2626
tp2627
bag21
(g22
(I0
tp2628
g24
tp2629
Rp2630
(I1
(I3
tp2631
g241
I00
S'ib\xa2\x0c9\xe9\xd7?\xca\xcd\xb4=\xe6_\x18\xc0tY\xa4\x97\x8d\xd7\x02@'
p2632
tp2633
bag21
(g22
(I0
tp2634
g24
tp2635
Rp2636
(I1
(I3
tp2637
g241
I00
S'\xe4\x02R\xd9\x08\x8c\xc7?2\xc1\xd4;\xf6\xf3\x15\xc0>\x8c\x8fa?0\xd8?'
p2638
tp2639
bag21
(g22
(I0
tp2640
g24
tp2641
Rp2642
(I1
(I3
tp2643
g241
I00
S'\xcc\x87!\x1f\xfb\x05\xe6?\x14;\x08\xf1<\xc6\x13\xc0V!\xac1j\x94\xc8?'
p2644
tp2645
bag21
(g22
(I0
tp2646
g24
tp2647
Rp2648
(I1
(I3
tp2649
g241
I00
S'`\xc8Aw-\x81\xeb?/\xc3\xe6O\x04\xca\x10\xc0\x8a\xb7K)\x91{\xe4\xbf'
p2650
tp2651
bag21
(g22
(I0
tp2652
g24
tp2653
Rp2654
(I1
(I3
tp2655
g241
I00
S'\xe1\xc6\xc7\xa7\x12X\xe7?\x98\x99\xb0\x9a\xfb\xdb\x0b\xc0R\t\x1b)\xeae\xe0\xbf'
p2656
tp2657
bag21
(g22
(I0
tp2658
g24
tp2659
Rp2660
(I1
(I3
tp2661
g241
I00
S'p\xf1\xbdc^\x84\xf1?"\x88LL\xf9D\x06\xc0~w\r\xe9m\x0f\x19@'
p2662
tp2663
bas(g479
g221
tp2664
(lp2665
g21
(g22
(I0
tp2666
g24
tp2667
Rp2668
(I1
(I3
tp2669
g230
I00
S'\xe0f\xce\xd4\xa7^\xef?\x94q\x92\x102\x9c\x1f\xc0O\x89\xfb\xd8R\xf2\x15@'
p2670
tp2671
bag21
(g22
(I0
tp2672
g24
tp2673
Rp2674
(I1
(I3
tp2675
g241
I00
S'\xd23W\xd6\xdd\xe3\xe6?\xdc\xcai,~\xa9\x1c\xc0\xe4\x03\x93/\x16_\x04\xc0'
p2676
tp2677
bag21
(g22
(I0
tp2678
g24
tp2679
Rp2680
(I1
(I3
tp2681
g241
I00
S'\xf8\xfc\x1a\xd0\xc9l\xe8?\x8a\x897\x8e~\x98\x1a\xc0\xaf\xf7\xb87\xc6\xa7\x01\xc0'
p2682
tp2683
bag21
(g22
(I0
tp2684
g24
tp2685
Rp2686
(I1
(I3
tp2687
g241
I00
S'j\x1e\x80\xdd\x0f\xcc\xcc?\xb3\xd8X\xd3%~\x18\xc0\x90\xda\xcf7y\xd5\xe6\xbf'
p2688
tp2689
bag21
(g22
(I0
tp2690
g24
tp2691
Rp2692
(I1
(I3
tp2693
g241
I00
S'\xe4\x02R\xd9\x08\x8c\xc7?2\xc1\xd4;\xf6\xf3\x15\xc0>\x8c\x8fa?0\xd8?'
p2694
tp2695
bag21
(g22
(I0
tp2696
g24
tp2697
Rp2698
(I1
(I3
tp2699
g241
I00
S'\xcc\x87!\x1f\xfb\x05\xe6?\x14;\x08\xf1<\xc6\x13\xc0V!\xac1j\x94\xc8?'
p2700
tp2701
bag21
(g22
(I0
tp2702
g24
tp2703
Rp2704
(I1
(I3
tp2705
g241
I00
S'`\xc8Aw-\x81\xeb?/\xc3\xe6O\x04\xca\x10\xc0\x8a\xb7K)\x91{\xe4\xbf'
p2706
tp2707
bag21
(g22
(I0
tp2708
g24
tp2709
Rp2710
(I1
(I3
tp2711
g241
I00
S'\xe1\xc6\xc7\xa7\x12X\xe7?\x98\x99\xb0\x9a\xfb\xdb\x0b\xc0R\t\x1b)\xeae\xe0\xbf'
p2712
tp2713
bag21
(g22
(I0
tp2714
g24
tp2715
Rp2716
(I1
(I3
tp2717
g241
I00
S'p\xf1\xbdc^\x84\xf1?"\x88LL\xf9D\x06\xc0~w\r\xe9m\x0f\x19@'
p2718
tp2719
bassS'parent_binary_predicates'
p2720
(dp2721
sS'nodes'
p2722
(dp2723
g1129
(lp2724
I0
aI0
aI0
aI0
aI0
aI0
aI00
aI01
aI00
aI01
aI00
asg1126
(lp2725
I0
aI0
aI0
aI0
aI0
aI0
aI00
aI01
aI00
aI01
aI00
asg221
(lp2726
I0
aI0
aI0
aI0
aI0
aI0
aI00
aI01
aI01
aI01
aI00
asg220
(lp2727
I0
aI0
aI0
ag1845
(g230
S'W\xad\x94\xa8\xab\x0e\x03@'
p2728
tp2729
Rp2730
ag1845
(g230
S'\xf0\x9d\x97\x15\xa9\xea\x15\xc0'
p2731
tp2732
Rp2733
ag1845
(g230
S'\x83WL\xe8\x00}\x18@'
p2734
tp2735
Rp2736
aI01
aI00
aI00
aI00
aI00
asg1088
(lp2737
I0
aI0
aI0
ag1845
(g230
S'\xe4\t \xf2\x19\xfb\xf0?'
p2738
tp2739
Rp2740
ag1845
(g230
S'*\xde\x95U\x0c\xab\x16\xc0'
p2741
tp2742
Rp2743
ag1845
(g230
S'=iJ\x92\x06f\xa3?'
p2744
tp2745
Rp2746
aI01
aI00
aI00
aI01
aI00
asg282
(lp2747
I0
aI0
aI0
ag1845
(g230
S'`\xf9@\xc4\x90g\xc9\xbf'
p2748
tp2749
Rp2750
ag1845
(g230
S'\x90\x92&\xe5x\xd5\x1d\xc0'
p2751
tp2752
Rp2753
ag1845
(g230
S'S<=\x06S\x82\xea?'
p2754
tp2755
Rp2756
aI01
aI00
aI00
aI01
aI00
asg1100
(lp2757
I0
aI0
aI0
ag1845
(g230
S'\x1ck\xa8@w\x9d\xfa?'
p2758
tp2759
Rp2760
ag1845
(g230
S'\x1a\xb4K\x86<8 \xc0'
p2761
tp2762
Rp2763
ag1845
(g230
S'\x8d\x15\x04`\xf6\xb2\xee?'
p2764
tp2765
Rp2766
aI01
aI00
aI00
aI01
aI00
asg390
(lp2767
I0
aI0
aI0
ag1845
(g230
S'h\x0c\x9eZ$\xe1\x0b@'
p2768
tp2769
Rp2770
ag1845
(g230
S'!\xe0\xa1\xe9Z\x7f\x17\xc0'
p2771
tp2772
Rp2773
ag1845
(g230
S'\xed\xac$\xc2\xb7\x08y?'
p2774
tp2775
Rp2776
aI01
aI00
aI00
aI00
aI00
asg1096
(lp2777
I0
aI0
aI0
ag1845
(g230
S'\xe8\x15S\xda\x00\x82\xd1\xbf'
p2778
tp2779
Rp2780
ag1845
(g230
S'\x8a_\xb9ZI^\x1a\xc0'
p2781
tp2782
Rp2783
ag1845
(g230
S'w\x99\x7f9\x7f\xa8\x18@'
p2784
tp2785
Rp2786
aI01
aI00
aI00
aI01
aI00
asg1093
(lp2787
I0
aI0
aI0
ag1845
(g230
S'\x011\xf6\x93\x8c\xb9\x05@'
p2788
tp2789
Rp2790
ag1845
(g230
S"\xae'f\xbav(\x18\xc0"
p2791
tp2792
Rp2793
ag1845
(g230
S'\x9ea\xf6!D \x12@'
p2794
tp2795
Rp2796
aI01
aI00
aI01
aI01
aI00
asg333
(lp2797
I0
aI0
aI0
ag1845
(g230
S'u\x89\xbe\x9el2\x07@'
p2798
tp2799
Rp2800
ag1845
(g230
S'\xd1Jv\x8f\xc3j\x1a\xc0'
p2801
tp2802
Rp2803
ag1845
(g230
S'|\xde\xfd\x1esf\xf8?'
p2804
tp2805
Rp2806
aI01
aI00
aI00
aI01
aI00
assS'mc_place_path'
p2807
(dp2808
sS'parent_state'
p2809
NsS'goal_entities'
p2810
(lp2811
S'square_packing_box1'
p2812
ag221
asS'binary_edges'
p2813
(dp2814
(g390
g333
tp2815
(lp2816
I00
aI00
aI00
as(g390
g220
tp2817
(lp2818
I00
aI00
aI00
as(g282
g1096
tp2819
(lp2820
I00
aI00
aI00
as(g282
g282
tp2821
(lp2822
I00
aI00
aI00
as(g1088
g1096
tp2823
(lp2824
I00
aI00
aI00
as(g1088
g282
tp2825
(lp2826
I00
aI00
aI00
as(g333
g1088
tp2827
(lp2828
I00
aI00
aI00
as(g390
g1093
tp2829
(lp2830
I00
aI00
aI00
as(g1100
g282
tp2831
(lp2832
I00
aI00
aI00
as(g220
g220
tp2833
(lp2834
I00
aI00
aI00
as(g1088
g1126
tp2835
(lp2836
g1845
(g28
(S'b1'
p2837
I0
I1
tp2838
Rp2839
(I3
S'|'
p2840
NNNI-1
I-1
I0
tp2841
bS'\x01'
p2842
tp2843
Rp2844
aI00
aI01
as(g1129
g1126
tp2845
(lp2846
I00
aI00
aI00
as(g220
g333
tp2847
(lp2848
I00
aI00
aI00
as(g1126
g333
tp2849
(lp2850
I00
aI00
aI00
as(g1093
g221
tp2851
(lp2852
I00
aI00
aI01
as(g1129
g1088
tp2853
(lp2854
I00
aI00
aI00
as(g1088
g333
tp2855
(lp2856
I00
aI00
aI00
as(g282
g1129
tp2857
(lp2858
g2844
aI00
aI00
as(g390
g390
tp2859
(lp2860
I00
aI00
aI00
as(g1126
g390
tp2861
(lp2862
I00
aI00
aI00
as(g1096
g1088
tp2863
(lp2864
I00
aI00
aI00
as(g1088
g221
tp2865
(lp2866
I00
aI00
aI01
as(g1100
g1096
tp2867
(lp2868
I00
aI00
aI00
as(g220
g1100
tp2869
(lp2870
I00
aI00
aI00
as(g1093
g1093
tp2871
(lp2872
I00
aI00
aI00
as(g1088
g1129
tp2873
(lp2874
g2844
aI00
aI00
as(g1126
g1088
tp2875
(lp2876
I00
aI00
aI00
as(g1126
g1096
tp2877
(lp2878
I00
aI00
aI00
as(g1126
g282
tp2879
(lp2880
I00
aI00
aI00
as(g1096
g221
tp2881
(lp2882
I00
aI00
aI01
as(g333
g220
tp2883
(lp2884
I00
aI01
aI00
as(g1100
g220
tp2885
(lp2886
I00
aI00
aI00
as(g1096
g1100
tp2887
(lp2888
I00
aI00
aI00
as(g1126
g220
tp2889
(lp2890
I00
aI00
aI00
as(g1129
g221
tp2891
(lp2892
I00
aI00
aI00
as(g1093
g1088
tp2893
(lp2894
I00
aI00
aI00
as(g220
g1096
tp2895
(lp2896
I00
aI00
aI00
as(g1129
g1096
tp2897
(lp2898
I00
aI00
aI00
as(g1096
g1129
tp2899
(lp2900
g2844
aI00
aI00
as(g282
g390
tp2901
(lp2902
I00
aI00
aI00
as(g333
g1093
tp2903
(lp2904
I00
aI00
aI00
as(g282
g1088
tp2905
(lp2906
I00
aI00
aI00
as(g333
g221
tp2907
(lp2908
I00
aI00
aI00
as(g1129
g1129
tp2909
(lp2910
I00
aI00
aI00
as(g1096
g220
tp2911
(lp2912
I00
aI00
aI00
as(g1093
g390
tp2913
(lp2914
I00
aI00
aI00
as(g221
g1093
tp2915
(lp2916
I00
aI00
aI00
as(g1100
g1126
tp2917
(lp2918
g2844
aI00
aI01
as(g221
g1100
tp2919
(lp2920
I00
aI00
aI00
as(g333
g282
tp2921
(lp2922
I00
aI00
aI00
as(g282
g1093
tp2923
(lp2924
I00
aI00
aI00
as(g1096
g1126
tp2925
(lp2926
g2844
aI00
aI01
as(g282
g1100
tp2927
(lp2928
I00
aI00
aI00
as(g1096
g1096
tp2929
(lp2930
I00
aI00
aI00
as(g1100
g1088
tp2931
(lp2932
I00
aI00
aI00
as(g1126
g221
tp2933
(lp2934
I00
aI00
aI00
as(g221
g390
tp2935
(lp2936
I00
aI00
aI00
as(g220
g221
tp2937
(lp2938
I00
aI00
aI00
as(g1129
g1100
tp2939
(lp2940
I00
aI00
aI00
as(g221
g333
tp2941
(lp2942
I00
aI00
aI00
as(g282
g333
tp2943
(lp2944
I00
aI00
aI00
as(g1100
g1129
tp2945
(lp2946
g2844
aI00
aI00
as(g333
g1126
tp2947
(lp2948
g2844
aI00
aI01
as(g1100
g390
tp2949
(lp2950
I00
aI00
aI00
as(g220
g1088
tp2951
(lp2952
I00
aI00
aI00
as(g220
g1126
tp2953
(lp2954
g2844
aI00
aI01
as(g221
g282
tp2955
(lp2956
I00
aI00
aI00
as(g1129
g333
tp2957
(lp2958
I00
aI00
aI00
as(g1129
g220
tp2959
(lp2960
I00
aI00
aI00
as(g1100
g221
tp2961
(lp2962
I00
aI00
aI01
as(g390
g1100
tp2963
(lp2964
I00
aI00
aI00
as(g1093
g1100
tp2965
(lp2966
I00
aI00
aI00
as(g221
g1096
tp2967
(lp2968
I00
aI00
aI00
as(g1126
g1126
tp2969
(lp2970
I00
aI00
aI00
as(g390
g282
tp2971
(lp2972
I00
aI00
aI00
as(g1093
g1096
tp2973
(lp2974
I00
aI00
aI00
as(g1126
g1093
tp2975
(lp2976
I00
aI00
aI00
as(g1088
g220
tp2977
(lp2978
I00
aI00
aI00
as(g1126
g1100
tp2979
(lp2980
I00
aI00
aI00
as(g1093
g1129
tp2981
(lp2982
g2844
aI00
aI00
as(g390
g1088
tp2983
(lp2984
I00
aI00
aI00
as(g282
g221
tp2985
(lp2986
I00
aI00
aI00
as(g1093
g220
tp2987
(lp2988
I00
aI01
aI00
as(g220
g1093
tp2989
(lp2990
I00
aI00
aI00
as(g1088
g1093
tp2991
(lp2992
I00
aI00
aI00
as(g1129
g390
tp2993
(lp2994
I00
aI00
aI00
as(g1088
g1100
tp2995
(lp2996
I00
aI00
aI00
as(g1096
g390
tp2997
(lp2998
I00
aI00
aI00
as(g390
g1126
tp2999
(lp3000
g2844
aI00
aI01
as(g1100
g1100
tp3001
(lp3002
I00
aI00
aI00
as(g333
g390
tp3003
(lp3004
I00
aI01
aI00
as(g1093
g333
tp3005
(lp3006
I00
aI00
aI00
as(g1088
g390
tp3007
(lp3008
I00
aI00
aI00
as(g1088
g1088
tp3009
(lp3010
I00
aI00
aI00
as(g333
g1100
tp3011
(lp3012
I00
aI00
aI00
as(g390
g221
tp3013
(lp3014
I00
aI00
aI00
as(g1096
g1093
tp3015
(lp3016
I00
aI00
aI00
as(g282
g1126
tp3017
(lp3018
g2844
aI00
aI01
as(g221
g1088
tp3019
(lp3020
I00
aI00
aI00
as(g1100
g1093
tp3021
(lp3022
I00
aI00
aI00
as(g220
g282
tp3023
(lp3024
I00
aI00
aI00
as(g221
g1126
tp3025
(lp3026
I00
aI00
aI00
as(g390
g1096
tp3027
(lp3028
I00
aI00
aI00
as(g1129
g282
tp3029
(lp3030
I00
aI00
aI00
as(g390
g1129
tp3031
(lp3032
g2844
aI00
aI00
as(g1096
g282
tp3033
(lp3034
I00
aI00
aI00
as(g221
g221
tp3035
(lp3036
I00
aI00
aI00
as(g1100
g333
tp3037
(lp3038
I00
aI00
aI00
as(g220
g1129
tp3039
(lp3040
g2844
aI00
aI00
as(g333
g1129
tp3041
(lp3042
g2844
aI00
aI00
as(g221
g1129
tp3043
(lp3044
I00
aI00
aI00
as(g221
g220
tp3045
(lp3046
I00
aI00
aI00
as(g1096
g333
tp3047
(lp3048
I00
aI00
aI00
as(g333
g1096
tp3049
(lp3050
I00
aI00
aI00
as(g282
g220
tp3051
(lp3052
I00
aI00
aI00
as(g1126
g1129
tp3053
(lp3054
I00
aI00
aI00
as(g1093
g282
tp3055
(lp3056
I00
aI00
aI00
as(g220
g390
tp3057
(lp3058
I00
aI00
aI00
as(g333
g333
tp3059
(lp3060
I00
aI00
aI00
as(g1093
g1126
tp3061
(lp3062
g2844
aI00
aI01
as(g1129
g1093
tp3063
(lp3064
I00
aI00
aI00
assg476
g477
sS'pick_in_way'
p3065
(itrajectory_representation.predicates.pick_in_way
PickInWay
p3066
(dp3067
g218
(dp3068
g220
g1699
sg1088
g608
sg282
g1718
sg1100
g1749
sg390
g1768
sg1096
g1787
sg1093
g978
sg333
g1818
ssg453
(dp3069
g220
(lp3070
Vsquare_packing_box4
p3071
aVsquare_packing_box1
p3072
asg1088
(lp3073
sg282
(lp3074
sg1100
(lp3075
sg390
(lp3076
Vsquare_packing_box4
p3077
asg1096
(lp3078
sg1093
(lp3079
sg333
(lp3080
ssg476
(lp3081
g1100
ag1088
ag1096
ag282
ag333
ag1129
ag221
ag1126
ag1093
ag1129
ag221
ag1126
ag1129
ag221
ag1126
ag1129
ag221
ag1126
ag1129
ag221
ag1126
ag1129
ag221
ag1126
ag1129
ag221
ag1126
ag1129
ag221
ag1126
asg482
g483
sg125
(dp3082
sg517
g518
sg1078
Nsg1084
g518
sg1081
(dp3083
sg1083
I8
sg1121
I01
sg1085
Nsg1086
(dp3084
(g390
g333
tp3085
I00
s(g390
g220
tp3086
I00
s(g282
g1096
tp3087
I00
s(g282
g282
tp3088
I00
s(g1088
g1096
tp3089
I00
s(g1088
g282
tp3090
I00
s(g333
g1088
tp3091
I00
s(g390
g1093
tp3092
I00
s(g1100
g282
tp3093
I00
s(g220
g220
tp3094
I00
s(g1088
g1126
tp3095
I00
s(g1129
g1126
tp3096
I00
s(g220
g333
tp3097
I00
s(g1126
g333
tp3098
I00
s(g1093
g221
tp3099
I00
s(g1129
g1088
tp3100
I00
s(g1088
g333
tp3101
I00
s(g282
g1129
tp3102
I00
s(g390
g390
tp3103
I00
s(g1126
g390
tp3104
I00
s(g1096
g1088
tp3105
I00
s(g1088
g221
tp3106
I00
s(g1100
g1096
tp3107
I00
s(g220
g1100
tp3108
I00
s(g1093
g1093
tp3109
I00
s(g1088
g1129
tp3110
I00
s(g1126
g1088
tp3111
I00
s(g1126
g1096
tp3112
I00
s(g1126
g282
tp3113
I00
s(g1096
g221
tp3114
I00
s(g333
g220
tp3115
I01
s(g1100
g220
tp3116
I00
s(g1096
g1100
tp3117
I00
s(g1126
g220
tp3118
I00
s(g1129
g221
tp3119
I00
s(g1093
g1088
tp3120
I00
s(g220
g1096
tp3121
I00
s(g1129
g1096
tp3122
I00
s(g1096
g1129
tp3123
I00
s(g282
g390
tp3124
I00
s(g333
g1093
tp3125
I00
s(g282
g1088
tp3126
I00
s(g333
g221
tp3127
I00
s(g1129
g1129
tp3128
I00
s(g1096
g220
tp3129
I00
s(g1093
g390
tp3130
I00
s(g221
g1093
tp3131
I00
s(g1100
g1126
tp3132
I00
s(g221
g1100
tp3133
I00
s(g333
g282
tp3134
I00
s(g282
g1093
tp3135
I00
s(g1096
g1126
tp3136
I00
s(g282
g1100
tp3137
I00
s(g1096
g1096
tp3138
I00
s(g1100
g1088
tp3139
I00
s(g1126
g221
tp3140
I00
s(g221
g390
tp3141
I00
s(g220
g221
tp3142
I00
s(g1129
g1100
tp3143
I00
s(g221
g333
tp3144
I00
s(g282
g333
tp3145
I00
s(g1100
g1129
tp3146
I00
s(g333
g1126
tp3147
I00
s(g1100
g390
tp3148
I00
s(g220
g1088
tp3149
I00
s(g220
g1126
tp3150
I00
s(g221
g282
tp3151
I00
s(g1129
g333
tp3152
I00
s(g1129
g220
tp3153
I00
s(g1100
g221
tp3154
I00
s(g390
g1100
tp3155
I00
s(g1093
g1100
tp3156
I00
s(g221
g1096
tp3157
I00
s(g1126
g1126
tp3158
I00
s(g390
g282
tp3159
I00
s(g1093
g1096
tp3160
I00
s(g1126
g1093
tp3161
I00
s(g1088
g220
tp3162
I00
s(g1126
g1100
tp3163
I00
s(g1093
g1129
tp3164
I00
s(g390
g1088
tp3165
I00
s(g282
g221
tp3166
I00
s(g1093
g220
tp3167
I01
s(g220
g1093
tp3168
I00
s(g1088
g1093
tp3169
I00
s(g1129
g390
tp3170
I00
s(g1088
g1100
tp3171
I00
s(g1096
g390
tp3172
I00
s(g390
g1126
tp3173
I00
s(g1100
g1100
tp3174
I00
s(g333
g390
tp3175
I01
s(g1093
g333
tp3176
I00
s(g1088
g390
tp3177
I00
s(g1088
g1088
tp3178
I00
s(g333
g1100
tp3179
I00
s(g390
g221
tp3180
I00
s(g1096
g1093
tp3181
I00
s(g282
g1126
tp3182
I00
s(g221
g1088
tp3183
I00
s(g1100
g1093
tp3184
I00
s(g220
g282
tp3185
I00
s(g221
g1126
tp3186
I00
s(g390
g1096
tp3187
I00
s(g1129
g282
tp3188
I00
s(g390
g1129
tp3189
I00
s(g1096
g282
tp3190
I00
s(g221
g221
tp3191
I00
s(g1100
g333
tp3192
I00
s(g220
g1129
tp3193
I00
s(g333
g1129
tp3194
I00
s(g221
g1129
tp3195
I00
s(g221
g220
tp3196
I00
s(g1096
g333
tp3197
I00
s(g333
g1096
tp3198
I00
s(g282
g220
tp3199
I00
s(g1126
g1129
tp3200
I00
s(g1093
g282
tp3201
I00
s(g220
g390
tp3202
I00
s(g333
g333
tp3203
I00
s(g1093
g1126
tp3204
I00
s(g1129
g1093
tp3205
I00
ssg1120
NsbsS'robot_pose'
p3206
g21
(g22
(I0
tp3207
g24
tp3208
Rp3209
(I1
(I1
I3
tp3210
g230
I00
S'\xc2\xc35\xe3\xf0A\x07@|\x12\xd1\xd11%\x1e\xc0\xac\xcf\xb7\xbd\xf0\xfb\xf3?'
p3211
tp3212
bsS'is_holding_goal_entity'
p3213
(itrajectory_representation.predicates.is_holding_goal_entity
IsHoldingGoalEntity
p3214
(dp3215
g2810
g2811
sg1085
NsbsS'mc_pick_path'
p3216
(dp3217
sS'current_collides'
p3218
g483
sba(itrajectory_representation.shortest_path_pick_and_place_state
ShortestPathPaPState
p3219
(dp3220
g125
(dp3221
g161
(itrajectory_representation.operator
Operator
p3222
(dp3223
g8
I01
sg9
(dp3224
g132
g82
sg11
g160
ssg16
g133
sg18
(dp3225
g20
g21
(g22
(I0
tp3226
g24
tp3227
Rp3228
(I1
(I3
tp3229
g31
I00
S'@\x00wy\x17\xef\xf4?f\x8e\xa1\x8e\xa2\xe1\xfc\xbf\xfb\x13C\x0ba\xc5\xfa\xbf'
p3230
tp3231
bssg46
(lp3232
g21
(g22
(I0
tp3233
g24
tp3234
Rp3235
(I1
(I3
tp3236
g31
I00
S'\xea\x80R`\x13\xa9\xff?x\x1a\x0f\x96\x06(\x18\xc0+\x84\x85W\x0c\x8e\xd2?'
p3237
tp3238
bag21
(g22
(I0
tp3239
g24
tp3240
Rp3241
(I1
(I3
tp3242
g60
I00
S'\x12\xfe\xe1\x95\xb8\x19\xf8?\x8c#.~\xd7\xc6\x16\xc0\xfe\xd3A\xf0\xcat\xc0\xbf'
p3243
tp3244
bag21
(g22
(I0
tp3245
g24
tp3246
Rp3247
(I1
(I3
tp3248
g60
I00
S'tx\x8as\xa8b\xed?\x9ej\x15\xfa\xf0{\x15\xc0@\xed\x9a-\x9eD\xf2\xbf'
p3249
tp3250
bag21
(g22
(I0
tp3251
g24
tp3252
Rp3253
(I1
(I3
tp3254
g60
I00
S'\xb0E\xbb;Cb\xeb?\x9e\xde\xa7\xdd\xbdd\x12\xc0\xc6\xee\xbd\x16\x8c\xaa\xf3\xbf'
p3255
tp3256
bag21
(g22
(I0
tp3257
g24
tp3258
Rp3259
(I1
(I3
tp3260
g60
I00
S'\xec\x12\xec\x03\xdea\xe9?<\xa5t\x82\x15\x9b\x0e\xc0L\xf0\xe0\xffy\x10\xf5\xbf'
p3261
tp3262
bag21
(g22
(I0
tp3263
g24
tp3264
Rp3265
(I1
(I3
tp3266
g60
I00
S'(\xe0\x1c\xccxa\xe7?<\x8d\x99I\xafl\x08\xc0\xd2\xf1\x03\xe9gv\xf6\xbf'
p3267
tp3268
bag21
(g22
(I0
tp3269
g24
tp3270
Rp3271
(I1
(I3
tp3272
g60
I00
S'd\xadM\x94\x13a\xe5?>u\xbe\x10I>\x02\xc0X\xf3&\xd2U\xdc\xf7\xbf'
p3273
tp3274
bag3228
ag3228
asbssg215
(itrajectory_representation.predicates.place_in_way
PlaceInWay
p3275
(dp3276
g218
(dp3277
(g220
g221
tp3278
(lp3279
g21
(g22
(I0
tp3280
g24
tp3281
Rp3282
(I1
(I3
tp3283
g230
I00
S'\x90F\xfd*\xdd\x0f\x03@b T\x13\xa9\xc8\x18\xc0\xa1\x9b[yu \xfc?'
p3284
tp3285
bag21
(g22
(I0
tp3286
g24
tp3287
Rp3288
(I1
(I3
tp3289
g241
I00
S'\xe0 ;\x819w\xfd?\xe7\xcc\xc2\xa0\xa5f\x17\xc04\xedq\x1c\x8eK\xfa?'
p3290
tp3291
bag21
(g22
(I0
tp3292
g24
tp3293
Rp3294
(I1
(I3
tp3295
g241
I00
S'\x85\\2\xba\x0b5\xf5?I\r\x06\xd10\xfb\x15\xc0\x9e\x11\xee\xd8\xb9\xd7\xf5?'
p3296
tp3297
bag21
(g22
(I0
tp3298
g24
tp3299
Rp3300
(I1
(I3
tp3301
g241
I00
S'v\xb8^\x85\xa7[\xea?x\xbe\xff2t\x8d\x13\xc0\x88\x85\x8cCyH\xf6?'
p3302
tp3303
bag21
(g22
(I0
tp3304
g24
tp3305
Rp3306
(I1
(I3
tp3307
g241
I00
S'\xc2\xda(e\x83\x1a\xeb?\x8au\x8d3\xa6E\x11\xc0\xb4c\x1b\xed_\xfd\xfa?'
p3308
tp3309
bag21
(g22
(I0
tp3310
g24
tp3311
Rp3312
(I1
(I3
tp3313
g241
I00
S'\xe4u**\x0e5\xe9?\xaa\xfd\r\xed\xc4\xf6\r\xc0\x0fDE0\x1f\x0b\xfe?'
p3314
tp3315
bag21
(g22
(I0
tp3316
g24
tp3317
Rp3318
(I1
(I3
tp3319
g241
I00
S'\x06\x11,\xef\x98O\xe7??\x10\x01s=b\t\xc04\x92\xb79o\x8c\x00@'
p3320
tp3321
bag21
(g22
(I0
tp3322
g24
tp3323
Rp3324
(I1
(I3
tp3325
g241
I00
S'\x92\xaf\xf3P\x96O\xc2?(\xa1:\x8er}\x05\xc0\xd4_\x91\xb3\xffL\x02@'
p3326
tp3327
bas(g1088
g221
tp3328
(lp3329
g21
(g22
(I0
tp3330
g24
tp3331
Rp3332
(I1
(I3
tp3333
g230
I00
S"8F\xbc\xb0\xa9\xd0\xfc?0'7\x145\x1e\x1e\xc0\xef\xd2\x8cy\x19\xaf\xf9?"
p3334
tp3335
bag21
(g22
(I0
tp3336
g24
tp3337
Rp3338
(I1
(I3
tp3339
g241
I00
S'*4\xc9\xb1\x13|\xf5?=~n\xf8\xb0\xf9\x1b\xc0\x97\x8e\x14L\xfds\x01@'
p3340
tp3341
bag21
(g22
(I0
tp3342
g24
tp3343
Rp3344
(I1
(I3
tp3345
g241
I00
S'{\xe7\xcc\xce\x02,\xf5?\xeb\x85\xf2\xb4\xc9\x08\x19\xc0\xcd\x97\xf6\xcc\xe4z\x00@'
p3346
tp3347
bag21
(g22
(I0
tp3348
g24
tp3349
Rp3350
(I1
(I3
tp3351
g241
I00
S'o\xd6\x82\xea\x7f\xb2\xed?9\xf2C\x0b?\xfd\x16\xc0(?d\xe9@\xb5\x02@'
p3352
tp3353
bag21
(g22
(I0
tp3354
g24
tp3355
Rp3356
(I1
(I3
tp3357
g241
I00
S'&>c9\x01,\xeb?\xb2\xc2\xf0\x02\xce\x8e\x14\xc0\xd8p\xbb2\x14\xd2\x03@'
p3358
tp3359
bag21
(g22
(I0
tp3360
g24
tp3361
Rp3362
(I1
(I3
tp3363
g241
I00
S'\xc6\x05\xbdtg\xd9\xe2?F\xdf\x9d@\\\xf3\x11\xc0\x1a\xc4.\xbb\xcc\x12\x02@'
p3364
tp3365
bag21
(g22
(I0
tp3366
g24
tp3367
Rp3368
(I1
(I3
tp3369
g241
I00
S'3z\xed\x8eN)\xe4?\x0c\x96\xd4\xa2\x0e\xd0\r\xc0\xbd%\xf5{\xe9\xf9\x03@'
p3370
tp3371
bag21
(g22
(I0
tp3372
g24
tp3373
Rp3374
(I1
(I3
tp3375
g241
I00
S'\xaf0\xe9h\xba~\xee?k\xbb\xd8\xd4\xd0g\t\xc09\x9ey\xed\xb06\x06@'
p3376
tp3377
bag21
(g22
(I0
tp3378
g24
tp3379
Rp3380
(I1
(I3
tp3381
g241
I00
S'\xf4\xfdJ\x1a(#\xec?H"\x9cD\x1aE\x05\xc0.\xa9\x0b\x87\xf8\xe1\x02@'
p3382
tp3383
bas(g282
g221
tp3384
(lp3385
g21
(g22
(I0
tp3386
g24
tp3387
Rp3388
(I1
(I3
tp3389
g230
I00
S'\x80\xb0\xcc\xbd\xca\x0e\xbb?1=\xc3\xc5\xf5\x96\x1a\xc0\x90\x02\xe5\xc3E\xe0\x12@'
p3390
tp3391
bag21
(g22
(I0
tp3392
g24
tp3393
Rp3394
(I1
(I3
tp3395
g241
I00
S'j\x1e\x80\xdd\x0f\xcc\xcc?\xb3\xd8X\xd3%~\x18\xc0\x90\xda\xcf7y\xd5\xe6\xbf'
p3396
tp3397
bag21
(g22
(I0
tp3398
g24
tp3399
Rp3400
(I1
(I3
tp3401
g241
I00
S'\xbc\xcaD\xb3\xa5\xd0\xda?5\x9e\xd8L\xbc\xff\x15\xc0\x86v/\xef\x06;\xe9\xbf'
p3402
tp3403
bag21
(g22
(I0
tp3404
g24
tp3405
Rp3406
(I1
(I3
tp3407
g241
I00
S"\xb2&6mg)\xe8?\x99\xe0G'\x16\xe0\x13\xc0\xc8oL\xf5\x17p\xe6\xbf"
p3408
tp3409
bag21
(g22
(I0
tp3410
g24
tp3411
Rp3412
(I1
(I3
tp3413
g241
I00
S'`\xc8Aw-\x81\xeb?/\xc3\xe6O\x04\xca\x10\xc0\x8a\xb7K)\x91{\xe4\xbf'
p3414
tp3415
bag21
(g22
(I0
tp3416
g24
tp3417
Rp3418
(I1
(I3
tp3419
g241
I00
S'\xe1\xc6\xc7\xa7\x12X\xe7?\x98\x99\xb0\x9a\xfb\xdb\x0b\xc0R\t\x1b)\xeae\xe0\xbf'
p3420
tp3421
bag21
(g22
(I0
tp3422
g24
tp3423
Rp3424
(I1
(I3
tp3425
g241
I00
S'p\xf1\xbdc^\x84\xf1?"\x88LL\xf9D\x06\xc0~w\r\xe9m\x0f\x19@'
p3426
tp3427
bas(g333
g221
tp3428
(lp3429
g21
(g22
(I0
tp3430
g24
tp3431
Rp3432
(I1
(I3
tp3433
g230
I00
S'\xaaM\xfe\x9e\x01\xf7\x07@\x90\xebq\xc9x\x93\x17\xc0\xd3\xe0\x9f\x13i0\x14@'
p3434
tp3435
bag21
(g22
(I0
tp3436
g24
tp3437
Rp3438
(I1
(I3
tp3439
g241
I00
S'\x9a\xbe.\\\\1\x02@n\xc71\xde\x16\x1f\x18\xc0\xa5\xb9\xb4\xac*z\xff\xbf'
p3440
tp3441
bag21
(g22
(I0
tp3442
g24
tp3443
Rp3444
(I1
(I3
tp3445
g241
I00
S'\xa1\x0f=\xe0\x1aF\xfc?e&S\xf6\xb5\xfc\x17\xc0s\xad\xdc\xd8h\x9b\x04\xc0'
p3446
tp3447
bag21
(g22
(I0
tp3448
g24
tp3449
Rp3450
(I1
(I3
tp3451
g241
I00
S'R\x12);\xaf\xa5\xf7?\xf3\xf9\xeb\x07c\xef\x15\xc0\xf0V^\xd6\x94\x96\x05\xc0'
p3452
tp3453
bag21
(g22
(I0
tp3454
g24
tp3455
Rp3456
(I1
(I3
tp3457
g241
I00
S'\xd0\xcb\x13\x8f\xaa\x9d\xed?\x90\x01<]3\x06\x16\xc0F\xf1\xe7x32\x02\xc0'
p3458
tp3459
bag21
(g22
(I0
tp3460
g24
tp3461
Rp3462
(I1
(I3
tp3463
g241
I00
S'l[\xc4\x16<\xe6\xe9?\xa6\xa0\x90\x84X\x9f\x13\xc0\xc2\xd74Q\x00\xaf\xff\xbf'
p3464
tp3465
bag21
(g22
(I0
tp3466
g24
tp3467
Rp3468
(I1
(I3
tp3469
g241
I00
S"\xaeJ\xbd\x1936\xec?\x04\x13\xd4'\x9f\x88\x10\xc0\x805qo\xb6\xe6\xff\xbf"
p3470
tp3471
bag21
(g22
(I0
tp3472
g24
tp3473
Rp3474
(I1
(I3
tp3475
g241
I00
S'\xf09\xb6\x1c*\x86\xee?\xc4\n/\x96\xcb\xe3\n\xc0\xa0\xc9\xd6F6\x0f\x00\xc0'
p3476
tp3477
bag21
(g22
(I0
tp3478
g24
tp3479
Rp3480
(I1
(I3
tp3481
g241
I00
S'3\xe9\xaf\x05T\x89\xe7?+~\xcb\xd3\x15\xc7\x04\xc0x6(d5\xed\x07@'
p3482
tp3483
bas(g390
g221
tp3484
(lp3485
g21
(g22
(I0
tp3486
g24
tp3487
Rp3488
(I1
(I3
tp3489
g230
I00
S'T\xd4U\x01\x97\x97\t@\xa0\xd6\xfbp\xc5\x91\x1a\xc08\xcf<(@\x11\xf0?'
p3490
tp3491
bag21
(g22
(I0
tp3492
g24
tp3493
Rp3494
(I1
(I3
tp3495
g241
I00
S'\xe8[\xb2\xaa\xa5@\x04@(j\r1!I\x1b\xc0Xj\x8bx\xc9`\xfc?'
p3496
tp3497
bag21
(g22
(I0
tp3498
g24
tp3499
Rp3500
(I1
(I3
tp3501
g241
I00
S'\xf60LV\xe8\x96\x00@\x9aEw{a\xe2\x18\xc0^\xa8\x8a,\xa3\x98\x00@'
p3502
tp3503
bag21
(g22
(I0
tp3504
g24
tp3505
Rp3506
(I1
(I3
tp3507
g241
I00
S'\xc2:\x1b=\xad,\xfa?(\x190\xa5<\xab\x16\xc0\x9d\x91\xdc8Kq\x01@'
p3508
tp3509
bag21
(g22
(I0
tp3510
g24
tp3511
Rp3512
(I1
(I3
tp3513
g241
I00
S'o\xd6\x82\xea\x7f\xb2\xed?9\xf2C\x0b?\xfd\x16\xc0(?d\xe9@\xb5\x02@'
p3514
tp3515
bag21
(g22
(I0
tp3516
g24
tp3517
Rp3518
(I1
(I3
tp3519
g241
I00
S'&>c9\x01,\xeb?\xb2\xc2\xf0\x02\xce\x8e\x14\xc0\xd8p\xbb2\x14\xd2\x03@'
p3520
tp3521
bag21
(g22
(I0
tp3522
g24
tp3523
Rp3524
(I1
(I3
tp3525
g241
I00
S'\xc6\x05\xbdtg\xd9\xe2?F\xdf\x9d@\\\xf3\x11\xc0\x1a\xc4.\xbb\xcc\x12\x02@'
p3526
tp3527
bag21
(g22
(I0
tp3528
g24
tp3529
Rp3530
(I1
(I3
tp3531
g241
I00
S'3z\xed\x8eN)\xe4?\x0c\x96\xd4\xa2\x0e\xd0\r\xc0\xbd%\xf5{\xe9\xf9\x03@'
p3532
tp3533
bag21
(g22
(I0
tp3534
g24
tp3535
Rp3536
(I1
(I3
tp3537
g241
I00
S'\xaf0\xe9h\xba~\xee?k\xbb\xd8\xd4\xd0g\t\xc09\x9ey\xed\xb06\x06@'
p3538
tp3539
bag21
(g22
(I0
tp3540
g24
tp3541
Rp3542
(I1
(I3
tp3543
g241
I00
S'\xf4\xfdJ\x1a(#\xec?H"\x9cD\x1aE\x05\xc0.\xa9\x0b\x87\xf8\xe1\x02@'
p3544
tp3545
bassg453
(dp3546
(g220
g221
tp3547
(lp3548
Vsquare_packing_box1
p3549
aVsquare_packing_box4
p3550
as(g1088
g221
tp3551
(lp3552
Vrectangular_packing_box1
p3553
as(g282
g221
tp3554
(lp3555
Vsquare_packing_box3
p3556
as(g333
g221
tp3557
(lp3558
Vsquare_packing_box1
p3559
aVsquare_packing_box2
p3560
aVrectangular_packing_box4
p3561
aVrectangular_packing_box2
p3562
as(g390
g221
tp3563
(lp3564
Vsquare_packing_box4
p3565
aVrectangular_packing_box2
p3566
assg476
(lp3567
Vrectangular_packing_box3
p3568
aVrectangular_packing_box1
p3569
aVsquare_packing_box3
p3570
ag80
asg482
(dp3571
Vrectangular_packing_box4
p3572
g488
sVrectangular_packing_box2
p3573
g485
((lp3574
I256
aI4
aI5
aI262
aI145
aI146
aI538
aI413
aI543
aI162
aI35
aI36
aI422
aI309
aI310
aI55
aI570
aI188
aI65
aI69
aI70
aI205
aI79
aI80
aI81
aI595
aI215
aI92
aI93
aI355
aI230
aI444
aI240
aI124
atp3575
Rp3576
sVrectangular_packing_box3
p3577
g496
sVrectangular_packing_box1
p3578
g500
sVsquare_packing_box2
p3579
g504
sVsquare_packing_box3
p3580
g508
sVsquare_packing_box1
p3581
g512
sVsquare_packing_box4
p3582
g516
ssg125
g3221
sg517
(dp3583
Vrectangular_packing_box4
p3584
g520
sVrectangular_packing_box2
p3585
(itrajectory_representation.operator
Operator
p3586
(dp3587
g8
I01
sg9
(dp3588
g523
Vrectangular_packing_box2
p3589
ssg16
g525
sg18
(dp3590
g527
(lp3591
g21
(g22
(I0
tp3592
g24
tp3593
Rp3594
(I1
(I3
tp3595
g230
I00
S"2F\xbc\xb0\xa9\xd0\xfc?3'7\x145\x1e\x1e\xc0\xee\xd2\x8cy\x19\xaf\xf9?"
p3596
tp3597
bag21
(g22
(I0
tp3598
g24
tp3599
Rp3600
(I1
(I3
tp3601
g230
I00
S'\xe2\xe6\xdc(\x17y\x03@\xaa`\xc6c\x89Y\x1b\xc0\xb1\xd0\x0e\xfa\x86k\t@'
p3602
tp3603
bag21
(g22
(I0
tp3604
g24
tp3605
Rp3606
(I1
(I3
tp3607
g230
I00
S'A\xef\xa5\xfa\xb9\xc0\x02@\x07\xe9Q\xd8\x18\xa9\x1a\xc0S\xbcUm\xd25\x07\xc0'
p3608
tp3609
basg547
I00
ssg46
(lp3610
g21
(g22
(I0
tp3611
g24
tp3612
Rp3613
(I1
(I3
tp3614
g230
I00
S'<\x00wy\x17\xef\xf4?H\x8e\xa1\x8e\xa2\xe1\xfc\xbf\x17hs\x11\xa3p\x12@'
p3615
tp3616
bag21
(g22
(I0
tp3617
g24
tp3618
Rp3619
(I1
(I3
tp3620
g241
I00
S'd\xadM\x94\x13a\xe5?>u\xbe\x10I>\x02\xc0X\xf3&\xd2U\xdc\xf7\xbf'
p3621
tp3622
bag21
(g22
(I0
tp3623
g24
tp3624
Rp3625
(I1
(I3
tp3626
g241
I00
S'(\xe0\x1c\xccxa\xe7?<\x8d\x99I\xafl\x08\xc0\xd2\xf1\x03\xe9gv\xf6\xbf'
p3627
tp3628
bag21
(g22
(I0
tp3629
g24
tp3630
Rp3631
(I1
(I3
tp3632
g241
I00
S'\xec\x12\xec\x03\xdea\xe9?<\xa5t\x82\x15\x9b\x0e\xc0L\xf0\xe0\xffy\x10\xf5\xbf'
p3633
tp3634
bag21
(g22
(I0
tp3635
g24
tp3636
Rp3637
(I1
(I3
tp3638
g241
I00
S'\xb0E\xbb;Cb\xeb?\x9e\xde\xa7\xdd\xbdd\x12\xc0\xc6\xee\xbd\x16\x8c\xaa\xf3\xbf'
p3639
tp3640
bag21
(g22
(I0
tp3641
g24
tp3642
Rp3643
(I1
(I3
tp3644
g241
I00
S'tx\x8as\xa8b\xed?\x9ej\x15\xfa\xf0{\x15\xc0@\xed\x9a-\x9eD\xf2\xbf'
p3645
tp3646
bag21
(g22
(I0
tp3647
g24
tp3648
Rp3649
(I1
(I3
tp3650
g241
I00
S'v%D\x97w\xd1\xf7?Z\xadP\x90\x08<\x17\xc0-\xca\x8a\t\xe2p\xe7\xbf'
p3651
tp3652
bag21
(g22
(I0
tp3653
g24
tp3654
Rp3655
(I1
(I3
tp3656
g241
I00
S'\x08\xd0\xb5\xc6%\xc5\x01@\xbd\x02\xc9.\xfeS\x18\xc0\xafSz\xf3%\xbc\x07\xc0'
p3657
tp3658
bag3606
asbsg3568
g633
sg3569
g718
sVsquare_packing_box2
p3659
g810
sg3570
g889
sg80
(itrajectory_representation.operator
Operator
p3660
(dp3661
g8
I01
sg9
(dp3662
g11
g80
ssg16
g600
sg18
(dp3663
g20
g21
(g22
(I0
tp3664
g24
tp3665
Rp3666
(I1
(I3
tp3667
g31
I00
S'\xe5\x80R`\x13\xa9\xff?z\x1a\x0f\x96\x06(\x18\xc03\x84\x85W\x0c\x8e\xd2?'
p3668
tp3669
bssg46
(lp3670
g21
(g22
(I0
tp3671
g24
tp3672
Rp3673
(I1
(I3
tp3674
g230
I00
S'\xec\xdeEo\xd3\x06\xf0?\x15\xfd\xc0\xfaSg\x1b\xc0\xce\xab\x94\x10C\x1d\xdb?'
p3675
tp3676
bag21
(g22
(I0
tp3677
g24
tp3678
Rp3679
(I1
(I3
tp3680
g241
I00
S'B\x9aa8\x98\xa6\xe8?\xf3\xe9\x94/\xc2\xe4\x18\xc0u\xf8\xb0\x7fO\xb8\xf2?'
p3681
tp3682
bag21
(g22
(I0
tp3683
g24
tp3684
Rp3685
(I1
(I3
tp3686
g241
I00
S'\x0e]\xf2K\xc6E\xf7?\x06\x8c\xb9Ybt\x17\xc0%\xac6\x86\x93\xa8\xdd?'
p3687
tp3688
bag3666
asbsVsquare_packing_box4
p3689
g1003
ssg1076
(dp3690
sg1078
Nsg1079
(lp3691
sg1081
(dp3692
sg1083
I0
sg1084
g3583
sg1085
Nsg1086
(dp3693
(g390
g1088
g221
tp3694
I01
s(g1088
g1096
g221
tp3695
I00
s(g333
g1088
g221
tp3696
I01
s(g220
g1088
g221
tp3697
I00
s(g1088
g1100
g221
tp3698
I01
s(g1088
g390
g221
tp3699
I00
s(g282
g1088
g221
tp3700
I00
s(g1088
g220
g221
tp3701
I00
s(g1088
g1093
g221
tp3702
I00
s(g1088
g282
g221
tp3703
I00
s(g1088
g333
g221
tp3704
I00
ssg1120
Nsg1121
I01
sbsg1122
(dp3705
(g1088
g1088
g221
tp3706
(lp3707
I00
as(g1093
g1126
g1126
tp3708
g1128
s(g1129
g1100
g221
tp3709
g1131
s(g390
g333
g1126
tp3710
g1133
s(g221
g221
g221
tp3711
g1135
s(g333
g1088
g1126
tp3712
(lp3713
I00
as(g1093
g282
g221
tp3714
g1139
s(g221
g220
g221
tp3715
g1141
s(g390
g1093
g221
tp3716
g1143
s(g282
g220
g1126
tp3717
g1145
s(g221
g333
g1126
tp3718
g1147
s(g390
g1129
g221
tp3719
g1149
s(g1126
g221
g1126
tp3720
g1151
s(g220
g1096
g221
tp3721
g1153
s(g333
g1129
g221
tp3722
g1155
s(g390
g1100
g1126
tp3723
g1157
s(g1096
g1126
g221
tp3724
g1159
s(g1129
g1088
g1126
tp3725
(lp3726
I00
as(g221
g1129
g221
tp3727
g1163
s(g1088
g1126
g221
tp3728
(lp3729
I00
as(g1096
g1129
g221
tp3730
g1167
s(g1093
g1093
g1126
tp3731
g1169
s(g1126
g333
g1126
tp3732
g1171
s(g1129
g1126
g221
tp3733
g1173
s(g1129
g390
g221
tp3734
g1175
s(g1126
g1126
g221
tp3735
g1177
s(g1096
g220
g1126
tp3736
g1179
s(g221
g221
g1126
tp3737
g1181
s(g1100
g390
g1126
tp3738
g1183
s(g1088
g333
g221
tp3739
(lp3740
I00
as(g1096
g1093
g221
tp3741
g1187
s(g1100
g221
g1126
tp3742
g1189
s(g221
g1088
g1126
tp3743
(lp3744
I00
as(g1100
g282
g1126
tp3745
g1193
s(g282
g1100
g221
tp3746
g1195
s(g1126
g1093
g1126
tp3747
g1197
s(g333
g390
g1126
tp3748
g1199
s(g1088
g1088
g1126
tp3749
(lp3750
I00
as(g1129
g333
g221
tp3751
g1203
s(g1126
g221
g221
tp3752
g1205
s(g220
g1088
g221
tp3753
(lp3754
I00
as(g221
g282
g221
tp3755
g1209
s(g390
g1100
g221
tp3756
g1211
s(g282
g333
g221
tp3757
g1213
s(g1093
g282
g1126
tp3758
g1215
s(g1096
g390
g221
tp3759
g1217
s(g390
g1093
g1126
tp3760
g1219
s(g390
g1088
g1126
tp3761
(lp3762
I00
as(g1129
g390
g1126
tp3763
g1223
s(g1126
g282
g1126
tp3764
g1225
s(g1129
g221
g221
tp3765
g1227
s(g220
g221
g221
tp3766
g1229
s(g1126
g1129
g221
tp3767
g1231
s(g1088
g333
g1126
tp3768
(lp3769
I00
as(g1096
g1088
g1126
tp3770
(lp3771
I00
as(g1096
g1096
g221
tp3772
g1237
s(g1100
g282
g221
tp3773
g1239
s(g1129
g1088
g221
tp3774
(lp3775
I00
as(g1100
g1126
g1126
tp3776
g1243
s(g333
g1093
g221
tp3777
g1245
s(g1093
g1093
g221
tp3778
g1247
s(g1093
g220
g221
tp3779
g1249
s(g220
g1088
g1126
tp3780
(lp3781
I00
as(g333
g1100
g1126
tp3782
g1253
s(g1096
g220
g221
tp3783
g1255
s(g1100
g390
g221
tp3784
g1257
s(g1088
g1100
g1126
tp3785
(lp3786
I00
as(g1100
g221
g221
tp3787
g1261
s(g390
g1088
g221
tp3788
(lp3789
I01
as(g1088
g1096
g221
tp3790
(lp3791
I00
as(g282
g1100
g1126
tp3792
g1267
s(g221
g390
g1126
tp3793
g1269
s(g1129
g221
g1126
tp3794
g1271
s(g1129
g333
g1126
tp3795
g1273
s(g1096
g1088
g221
tp3796
(lp3797
I00
as(g282
g1096
g1126
tp3798
g1277
s(g1088
g1129
g1126
tp3799
(lp3800
I00
as(g1100
g1126
g221
tp3801
g1281
s(g1096
g390
g1126
tp3802
g1283
s(g1096
g1100
g1126
tp3803
g1285
s(g333
g1093
g1126
tp3804
g1287
s(g221
g282
g1126
tp3805
g1289
s(g1129
g1096
g1126
tp3806
g1291
s(g1126
g282
g221
tp3807
g1293
s(g1126
g390
g1126
tp3808
g1295
s(g1088
g1100
g221
tp3809
(lp3810
I01
as(g333
g1100
g221
tp3811
g1299
s(g1126
g1096
g221
tp3812
g1301
s(g1088
g1096
g1126
tp3813
(lp3814
I00
as(g1088
g220
g1126
tp3815
(lp3816
I00
as(g282
g333
g1126
tp3817
g1307
s(g1093
g220
g1126
tp3818
g1309
s(g1100
g1096
g1126
tp3819
g1311
s(g221
g1093
g1126
tp3820
g1313
s(g282
g1126
g1126
tp3821
g1315
s(g220
g221
g1126
tp3822
g1317
s(g1093
g1100
g221
tp3823
g1319
s(g1088
g1129
g221
tp3824
(lp3825
I00
as(g220
g390
g1126
tp3826
g1323
s(g282
g1088
g1126
tp3827
(lp3828
I00
as(g1096
g1100
g221
tp3829
g1327
s(g333
g1126
g1126
tp3830
g1329
s(g390
g221
g221
tp3831
g1331
s(g333
g220
g221
tp3832
g1333
s(g221
g1096
g1126
tp3833
g1335
s(g1126
g1100
g1126
tp3834
g1337
s(g1126
g1096
g1126
tp3835
g1339
s(g1093
g1096
g221
tp3836
g1341
s(g1100
g1096
g221
tp3837
g1343
s(g1093
g1100
g1126
tp3838
g1345
s(g282
g1088
g221
tp3839
(lp3840
I00
as(g1088
g390
g221
tp3841
(lp3842
I00
as(g282
g221
g1126
tp3843
g1351
s(g333
g1126
g221
tp3844
g1353
s(g1126
g220
g1126
tp3845
g1355
s(g1088
g220
g221
tp3846
(lp3847
I00
as(g282
g282
g221
tp3848
g1359
s(g220
g220
g221
tp3849
g1361
s(g220
g282
g1126
tp3850
g1363
s(g282
g1126
g221
tp3851
g1365
s(g1096
g333
g221
tp3852
g1367
s(g220
g390
g221
tp3853
g1369
s(g390
g1126
g1126
tp3854
g1371
s(g282
g1129
g1126
tp3855
g1373
s(g390
g221
g1126
tp3856
g1375
s(g1093
g390
g1126
tp3857
g1377
s(g333
g220
g1126
tp3858
g1379
s(g1096
g221
g1126
tp3859
g1381
s(g282
g221
g221
tp3860
g1383
s(g1126
g220
g221
tp3861
g1385
s(g1100
g1100
g221
tp3862
g1387
s(g1126
g333
g221
tp3863
g1389
s(g333
g1096
g221
tp3864
g1391
s(g1093
g1088
g221
tp3865
(lp3866
I00
as(g1093
g1096
g1126
tp3867
g1395
s(g220
g1093
g1126
tp3868
g1397
s(g221
g390
g221
tp3869
g1399
s(g1129
g282
g1126
tp3870
g1401
s(g282
g1093
g221
tp3871
g1403
s(g1100
g1129
g221
tp3872
g1405
s(g1096
g333
g1126
tp3873
g1407
s(g1096
g282
g1126
tp3874
g1409
s(g220
g1100
g221
tp3875
g1411
s(g1088
g390
g1126
tp3876
(lp3877
I00
as(g220
g1126
g221
tp3878
g1415
s(g282
g1129
g221
tp3879
g1417
s(g333
g282
g1126
tp3880
g1419
s(g1088
g1093
g221
tp3881
(lp3882
I00
as(g1096
g1093
g1126
tp3883
g1423
s(g333
g333
g1126
tp3884
g1425
s(g220
g220
g1126
tp3885
g1427
s(g1100
g1100
g1126
tp3886
g1429
s(g1093
g333
g1126
tp3887
g1431
s(g333
g390
g221
tp3888
g1433
s(g1129
g1093
g221
tp3889
g1435
s(g221
g1129
g1126
tp3890
g1437
s(g221
g1100
g1126
tp3891
g1439
s(g390
g1126
g221
tp3892
g1441
s(g1093
g1088
g1126
tp3893
(lp3894
I00
as(g1100
g1093
g1126
tp3895
g1445
s(g282
g282
g1126
tp3896
g1447
s(g1129
g282
g221
tp3897
g1449
s(g390
g282
g1126
tp3898
g1451
s(g1100
g1129
g1126
tp3899
g1453
s(g1093
g390
g221
tp3900
g1455
s(g220
g1100
g1126
tp3901
g1457
s(g220
g282
g221
tp3902
g1459
s(g333
g282
g221
tp3903
g1461
s(g1093
g221
g1126
tp3904
g1463
s(g390
g1096
g221
tp3905
g1465
s(g1096
g1096
g1126
tp3906
g1467
s(g220
g1129
g221
tp3907
g1469
s(g1126
g1129
g1126
tp3908
g1471
s(g333
g1096
g1126
tp3909
g1473
s(g1126
g1100
g221
tp3910
g1475
s(g1129
g1129
g1126
tp3911
g1477
s(g220
g1093
g221
tp3912
g1479
s(g1093
g333
g221
tp3913
g1481
s(g1126
g1088
g1126
tp3914
(lp3915
I00
as(g282
g1093
g1126
tp3916
g1485
s(g1096
g221
g221
tp3917
g1487
s(g1129
g1093
g1126
tp3918
g1489
s(g1096
g282
g221
tp3919
g1491
s(g282
g390
g221
tp3920
g1493
s(g220
g1126
g1126
tp3921
g1495
s(g1088
g1093
g1126
tp3922
(lp3923
I00
as(g1100
g1088
g221
tp3924
(lp3925
I00
as(g1129
g1126
g1126
tp3926
g1501
s(g1126
g1088
g221
tp3927
(lp3928
I00
as(g1093
g1129
g221
tp3929
g1505
s(g390
g1096
g1126
tp3930
g1507
s(g390
g220
g1126
tp3931
g1509
s(g333
g221
g221
tp3932
g1511
s(g220
g1129
g1126
tp3933
g1513
s(g220
g333
g221
tp3934
g1515
s(g1129
g220
g1126
tp3935
g1517
s(g221
g1100
g221
tp3936
g1519
s(g221
g1096
g221
tp3937
g1521
s(g1100
g1093
g221
tp3938
g1523
s(g1100
g220
g221
tp3939
g1525
s(g1129
g1096
g221
tp3940
g1527
s(g390
g282
g221
tp3941
g1529
s(g390
g390
g1126
tp3942
g1531
s(g1100
g333
g1126
tp3943
g1533
s(g333
g221
g1126
tp3944
g1535
s(g1088
g221
g221
tp3945
(lp3946
I00
as(g1093
g221
g221
tp3947
g1539
s(g1100
g1088
g1126
tp3948
(lp3949
I00
as(g333
g1088
g221
tp3950
(lp3951
I01
as(g221
g1126
g221
tp3952
g1545
s(g1129
g1129
g221
tp3953
g1547
s(g1088
g282
g1126
tp3954
(lp3955
I00
as(g1093
g1129
g1126
tp3956
g1551
s(g1126
g390
g221
tp3957
g1553
s(g282
g220
g221
tp3958
g1555
s(g1129
g220
g221
tp3959
g1557
s(g1093
g1126
g221
tp3960
g1559
s(g282
g390
g1126
tp3961
g1561
s(g221
g1093
g221
tp3962
g1563
s(g1129
g1100
g1126
tp3963
g1565
s(g333
g1129
g1126
tp3964
g1567
s(g390
g390
g221
tp3965
g1569
s(g1100
g333
g221
tp3966
g1571
s(g1096
g1129
g1126
tp3967
g1573
s(g390
g220
g221
tp3968
g1575
s(g221
g333
g221
tp3969
g1577
s(g282
g1096
g221
tp3970
g1579
s(g220
g333
g1126
tp3971
g1581
s(g333
g333
g221
tp3972
g1583
s(g1100
g220
g1126
tp3973
g1585
s(g390
g333
g221
tp3974
g1587
s(g1096
g1126
g1126
tp3975
g1589
s(g221
g1088
g221
tp3976
(lp3977
I00
as(g1088
g1126
g1126
tp3978
(lp3979
I00
as(g221
g220
g1126
tp3980
g1595
s(g1088
g221
g1126
tp3981
(lp3982
I00
as(g1126
g1126
g1126
tp3983
g1599
s(g390
g1129
g1126
tp3984
g1601
s(g220
g1096
g1126
tp3985
g1603
s(g221
g1126
g1126
tp3986
g1605
s(g1088
g282
g221
tp3987
(lp3988
I00
as(g1126
g1093
g221
tp3989
g1609
ssg517
g3583
sg1610
I01
sg1611
(lp3990
S'square_packing_box1'
p3991
aS'rectangular_packing_box1'
p3992
aS'square_packing_box2'
p3993
aS'rectangular_packing_box2'
p3994
aS'square_packing_box3'
p3995
aS'rectangular_packing_box3'
p3996
aS'square_packing_box4'
p3997
aS'rectangular_packing_box4'
p3998
asg1085
Nsg1621
Nsg1622
(dp3999
Vrectangular_packing_box4
p4000
g21
(g22
(I0
tp4001
g24
tp4002
Rp4003
(I1
(I1
I3
tp4004
g230
I00
S'T\xad\x94\xa8\xab\x0e\x03@\xf0\x9d\x97\x15\xa9\xea\x15\xc0\x83WL\xe8\x00}\x18@'
p4005
tp4006
bsVrectangular_packing_box2
p4007
g21
(g22
(I0
tp4008
g24
tp4009
Rp4010
(I1
(I1
I3
tp4011
g230
I00
S'3c\x0c\x88o\x1f\xfb?\xe0\x89LTi\x18\x1b\xc0\x82Rq\x1a\x16\xa2\x13@'
p4012
tp4013
bsVrectangular_packing_box3
p4014
g21
(g22
(I0
tp4015
g24
tp4016
Rp4017
(I1
(I1
I3
tp4018
g230
I00
S'\xd0\xf8@\xc4\x90g\xc9\xbf\x8f\x92&\xe5x\xd5\x1d\xc0S<=\x06S\x82\xea?'
p4019
tp4020
bsVrectangular_packing_box1
p4021
g21
(g22
(I0
tp4022
g24
tp4023
Rp4024
(I1
(I1
I3
tp4025
g230
I00
S'\x1ck\xa8@w\x9d\xfa?\x1a\xb4K\x86<8 \xc0\x8d\x15\x04`\xf6\xb2\xee?'
p4026
tp4027
bsVsquare_packing_box2
p4028
g21
(g22
(I0
tp4029
g24
tp4030
Rp4031
(I1
(I1
I3
tp4032
g230
I00
S'f\x0c\x9eZ$\xe1\x0b@"\xe0\xa1\xe9Z\x7f\x17\xc0\x82\xbc2\xc2\xb7\x08y?'
p4033
tp4034
bsVsquare_packing_box3
p4035
g21
(g22
(I0
tp4036
g24
tp4037
Rp4038
(I1
(I1
I3
tp4039
g230
I00
S'\xe8\x15S\xda\x00\x82\xd1\xbf\x8a_\xb9ZI^\x1a\xc0w\x99\x7f9\x7f\xa8\x18@'
p4040
tp4041
bsVsquare_packing_box1
p4042
g21
(g22
(I0
tp4043
g24
tp4044
Rp4045
(I1
(I1
I3
tp4046
g230
I00
S"\x131\xf6\x93\x8c\xb9\x05@\x9e'f\xbav(\x18\xc0\x9ea\xf6!D \x12@"
p4047
tp4048
bsVsquare_packing_box4
p4049
g21
(g22
(I0
tp4050
g24
tp4051
Rp4052
(I1
(I1
I3
tp4053
g230
I00
S'm\x89\xbe\x9el2\x07@\xbfJv\x8f\xc3j\x1a\xc0|\xde\xfd\x1esf\xf8?'
p4054
tp4055
bssg1680
(lp4056
(g3584
g1126
tp4057
a(g3585
g1126
tp4058
a(g3568
g1126
tp4059
a(g3569
g1126
tp4060
a(g3659
g1126
tp4061
a(g3570
g1126
tp4062
a(g80
g1126
tp4063
a(g3689
g1126
tp4064
a(g3569
g221
tp4065
a(g3570
g221
tp4066
a(g80
g221
tp4067
asg1694
(itrajectory_representation.predicates.in_region
InRegion
p4068
(dp4069
g1085
Nsbsg1697
(dp4070
g3584
(lp4071
g21
(g22
(I0
tp4072
g24
tp4073
Rp4074
(I1
(I3
tp4075
g230
I00
S'\xec\xdeEo\xd3\x06\xf0?\x15\xfd\xc0\xfaSg\x1b\xc0\xce\xab\x94\x10C\x1d\xdb?'
p4076
tp4077
bag21
(g22
(I0
tp4078
g24
tp4079
Rp4080
(I1
(I3
tp4081
g241
I00
S'j\xc7\xc0&\x8ag\xf6?h\x9cH4\x7f\xab\x18\xc0\xd8|\x1d\xfc\xcbV\xf2?'
p4082
tp4083
bag21
(g22
(I0
tp4084
g24
tp4085
Rp4086
(I1
(I3
tp4087
g241
I00
S'\xe0 ;\x819w\xfd?\xe7\xcc\xc2\xa0\xa5f\x17\xc04\xedq\x1c\x8eK\xfa?'
p4088
tp4089
bag531
asg3585
(lp4090
g21
(g22
(I0
tp4091
g24
tp4092
Rp4093
(I1
(I3
tp4094
g230
I00
S'\xec\xdeEo\xd3\x06\xf0?\x15\xfd\xc0\xfaSg\x1b\xc0\xce\xab\x94\x10C\x1d\xdb?'
p4095
tp4096
bag21
(g22
(I0
tp4097
g24
tp4098
Rp4099
(I1
(I3
tp4100
g241
I00
S'\xad\xa0\xdfFH\xe9\xf6?\xa3\xfc\x14D\x8bb\x1d\xc0\x9e2hH\xc0\xe5\xf0?'
p4101
tp4102
bag21
(g22
(I0
tp4103
g24
tp4104
Rp4105
(I1
(I3
tp4106
g241
I00
S'\xb9O\xa7Y\x02\x91\x00@\x96d\x95\x0e\xe6\xda\x1e\xc0l\xef\x8e\x11Rk\xeb?'
p4107
tp4108
bag3594
asg3568
(lp4109
g21
(g22
(I0
tp4110
g24
tp4111
Rp4112
(I1
(I3
tp4113
g230
I00
S'\xec\xdeEo\xd3\x06\xf0?\x15\xfd\xc0\xfaSg\x1b\xc0\xce\xab\x94\x10C\x1d\xdb?'
p4114
tp4115
bag21
(g22
(I0
tp4116
g24
tp4117
Rp4118
(I1
(I3
tp4119
g241
I00
S'<k;\xb0\x16\xda\xef?\x01\xf6\xb9DB\xf4\x18\xc0}\xc7/\x02\x8aR\x18@'
p4120
tp4121
bag21
(g22
(I0
tp4122
g24
tp4123
Rp4124
(I1
(I3
tp4125
g241
I00
S'\xf8\xfc\x1a\xd0\xc9l\xe8?\x8a\x897\x8e~\x98\x1a\xc0\xaf\xf7\xb87\xc6\xa7\x01\xc0'
p4126
tp4127
bag647
asg3569
(lp4128
g21
(g22
(I0
tp4129
g24
tp4130
Rp4131
(I1
(I3
tp4132
g230
I00
S'\xec\xdeEo\xd3\x06\xf0?\x15\xfd\xc0\xfaSg\x1b\xc0\xce\xab\x94\x10C\x1d\xdb?'
p4133
tp4134
bag21
(g22
(I0
tp4135
g24
tp4136
Rp4137
(I1
(I3
tp4138
g241
I00
S'|\xfa\xe6W\xd6\x85\xed?\xf8 \x068~N\x1c\xc0o\xb7\xf7\x8b\xdd*\xd7\xbf'
p4139
tp4140
bag21
(g22
(I0
tp4141
g24
tp4142
Rp4143
(I1
(I3
tp4144
g241
I00
S"\x16\x94\x96'9\xeb\xf2?\xa16\xd9K\xf3\xbe\x1d\xc0T\x83\x00\xa9\xa7I\xf0\xbf"
p4145
tp4146
bag732
asg3659
(lp4147
g21
(g22
(I0
tp4148
g24
tp4149
Rp4150
(I1
(I3
tp4151
g230
I00
S'\xec\xdeEo\xd3\x06\xf0?\x15\xfd\xc0\xfaSg\x1b\xc0\xce\xab\x94\x10C\x1d\xdb?'
p4152
tp4153
bag21
(g22
(I0
tp4154
g24
tp4155
Rp4156
(I1
(I3
tp4157
g241
I00
S'JyH\x8ez\xd6\xfa?\xb3\xf7h\x83\xea\xba\x1a\xc0u\xf9Uf\xb7m\xe0?'
p4158
tp4159
bag21
(g22
(I0
tp4160
g24
tp4161
Rp4162
(I1
(I3
tp4163
g241
I00
S'\xb1\x91\x83\xd6J:\x00@X\xbf\x9b\xa3\xf7;\x19\xc0\xb4\xa9\x94\xff\xff\xd1\xec?'
p4164
tp4165
bag21
(g22
(I0
tp4166
g24
tp4167
Rp4168
(I1
(I3
tp4169
g241
I00
S'\xc3#\x9b"m=\x05@O\x1c\xaf\xffo\x1c\x1b\xc0\xa4\xc19\xdd\xaa\xea\xdd?'
p4170
tp4171
bag818
asg3570
(lp4172
g21
(g22
(I0
tp4173
g24
tp4174
Rp4175
(I1
(I3
tp4176
g230
I00
S'\xec\xdeEo\xd3\x06\xf0?\x15\xfd\xc0\xfaSg\x1b\xc0\xce\xab\x94\x10C\x1d\xdb?'
p4177
tp4178
bag21
(g22
(I0
tp4179
g24
tp4180
Rp4181
(I1
(I3
tp4182
g241
I00
S'B\x9aa8\x98\xa6\xe8?\xf3\xe9\x94/\xc2\xe4\x18\xc0u\xf8\xb0\x7fO\xb8\xf2?'
p4183
tp4184
bag21
(g22
(I0
tp4185
g24
tp4186
Rp4187
(I1
(I3
tp4188
g241
I00
S'\xf8\xfc\x1a\xd0\xc9l\xe8?\x8a\x897\x8e~\x98\x1a\xc0\xaf\xf7\xb87\xc6\xa7\x01\xc0'
p4189
tp4190
bag903
asg80
g3670
sg3689
(lp4191
g21
(g22
(I0
tp4192
g24
tp4193
Rp4194
(I1
(I3
tp4195
g230
I00
S'\xec\xdeEo\xd3\x06\xf0?\x15\xfd\xc0\xfaSg\x1b\xc0\xce\xab\x94\x10C\x1d\xdb?'
p4196
tp4197
bag21
(g22
(I0
tp4198
g24
tp4199
Rp4200
(I1
(I3
tp4201
g241
I00
S'JyH\x8ez\xd6\xfa?\xb3\xf7h\x83\xea\xba\x1a\xc0u\xf9Uf\xb7m\xe0?'
p4202
tp4203
bag21
(g22
(I0
tp4204
g24
tp4205
Rp4206
(I1
(I3
tp4207
g241
I00
S'\x00\xda\x1c<\xfd\xdc\x00@j"\x91\xe3 \x1a\x18\xc0i~!@)\xb0\xdc\xbf'
p4208
tp4209
bag1023
assg482
(dp4210
(Vrectangular_packing_box3
p4211
(g1845
(g230
S'\x04\xcb\x112\x90g\xc9\xbf'
p4212
tp4213
Rp4214
g1845
(g230
S'W\xeb\xc4\xe5x\xd5\x1d\xc0'
p4215
tp4216
Rp4217
g1845
(g230
S':\xc9V\x97S\x82\xea?'
p4218
tp4219
Rp4220
tp4221
tp4222
g496
s(Vsquare_packing_box3
p4223
(g1845
(g230
S'\xc4\x99_\xcd\x01\x82\xd1\xbf'
p4224
tp4225
Rp4226
g1845
(g230
S'\xec\xda\xdenI^\x1a\xc0'
p4227
tp4228
Rp4229
g1845
(g230
S'$}ZE\x7f\xa8\x18@'
p4230
tp4231
Rp4232
tp4233
tp4234
g508
s(Vsquare_packing_box2
p4235
(g1845
(g230
S'd\x02~\x8d$\xe1\x0b@'
p4236
tp4237
Rp4238
g1845
(g230
S'\x01jj\xd9Z\x7f\x17\xc0'
p4239
tp4240
Rp4241
g1845
(g230
S'yx\xcf\x81\xe5\x08y?'
p4242
tp4243
Rp4244
tp4245
tp4246
g504
s(Vsquare_packing_box4
p4247
(g1845
(g230
S'\xc8[\xae~l2\x07@'
p4248
tp4249
Rp4250
g1845
(g230
S'\xba\xdc`\xa8\xc3j\x1a\xc0'
p4251
tp4252
Rp4253
g1845
(g230
S'\xef\x1e\xa0\xfbrf\xf8?'
p4254
tp4255
Rp4256
tp4257
tp4258
g516
s(Vrectangular_packing_box1
p4259
(g1845
(g230
S'\x87\xa3\xabtw\x9d\xfa?'
p4260
tp4261
Rp4262
g1845
(g230
S'\x11\xc8%\x8e<8 \xc0'
p4263
tp4264
Rp4265
g1845
(g230
S'\xa0\x8c\xf1a\xf6\xb2\xee?'
p4266
tp4267
Rp4268
tp4269
tp4270
g500
s(Vrectangular_packing_box2
p4271
(g1845
(g230
S'\xe5\xf2\x1f\xd2o\x1f\xfb?'
p4272
tp4273
Rp4274
g1845
(g230
S'5z5@i\x18\x1b\xc0'
p4275
tp4276
Rp4277
g1845
(g230
S'\x1e\x87\xc1\xfc\x15\xa2\x13@'
p4278
tp4279
Rp4280
tp4281
tp4282
g3576
s(Vrectangular_packing_box4
p4283
(g1845
(g230
S'\x13\xee\x95y\xab\x0e\x03@'
p4284
tp4285
Rp4286
g1845
(g230
S'\x1b\x13b.\xa9\xea\x15\xc0'
p4287
tp4288
Rp4289
g1845
(g230
S'\x82\xc4v\xf7\x00}\x18@'
p4290
tp4291
Rp4292
tp4293
tp4294
g488
s(Vsquare_packing_box1
p4295
(g1845
(g230
S'\x0b$(~\x8c\xb9\x05@'
p4296
tp4297
Rp4298
g1845
(g230
S'F\xce\xc2\x9ev(\x18\xc0'
p4299
tp4300
Rp4301
g1845
(g230
S'\xe3\xfcM(D \x12@'
p4302
tp4303
Rp4304
tp4305
tp4306
g512
ssg1941
(igtamp_utils.utils
CustomStateSaver
p4307
(dp4308
g1944
g21
(g22
(I0
tp4309
g24
tp4310
Rp4311
(I1
(I1
I3
tp4312
g230
I00
S'\xf1\xdeEo\xd3\x06\xf0?\x14\xfd\xc0\xfaSg\x1b\xc0\xce\xab\x94\x10C\x1d\xdb?'
p4313
tp4314
bsg1951
Nsg1952
g1953
sg1954
I1
sg1622
(dp4315
Vright_wall_1
p4316
g21
(g22
(I0
tp4317
g24
tp4318
Rp4319
(I1
(I4
tp4320
g230
I00
S'H\xe1z\x14\xaeG\x12@&\\\x8f\xc2\xf5(\xd4\xbf\xcc\x7fH\xbf}\x1d\xed?\x00\x00\x00\x00\x00\x00\x00\x00'
p4321
tp4322
bsVc_obst5
p4323
g21
(g22
(I0
tp4324
g24
tp4325
Rp4326
(I1
(I4
tp4327
g230
I00
S"j\xe6\x01\x1b\x9b[\x12@\xd0\x12S\xa7\x90<\xca\xbfe\xaa`TR'\xed?\xf7n&qM\x98\x00@"
p4328
tp4329
bsVentrance_right
p4330
g21
(g22
(I0
tp4331
g24
tp4332
Rp4333
(I1
(I4
tp4334
g230
I00
S'ffffff\n@H\xe1z\x14\xaeG\t\xc0\x9c\xc4 \xb0rh\xc1?\x00\x00\x00\x00\x00\x00\x00\x00'
p4335
tp4336
bsVcomputer_table
p4337
g21
(g22
(I0
tp4338
g24
tp4339
Rp4340
(I1
(I4
tp4341
g230
I00
S'\x00\x00\x00\x00\x00\x00\x13@\x00\x00\x00\x00\x00\x00\xf8\xbf\x96C\x8bl\xe7\xfb\xe7?\xd2!3\x7f|\xd9\x12@'
p4342
tp4343
bsVchair_6b56
p4344
g21
(g22
(I0
tp4345
g24
tp4346
Rp4347
(I1
(I4
tp4348
g230
I00
S'\x93=\n\xd7\xa3p\xf5?\\\xe1z\x14\xaeG\xd1?\x00\x00\x00\x00\x00\x00\x00\x00\xd6$\xfaNBm\n@'
p4349
tp4350
bsVsquare_packing_box3
p4351
g21
(g22
(I0
tp4352
g24
tp4353
Rp4354
(I1
(I4
tp4355
g230
I00
S'\xe8\x15S\xda\x00\x82\xd1\xbf\x8a_\xb9ZI^\x1a\xc0A7\x89A`\xe5\xd8?w\x99\x7f9\x7f\xa8\x18@'
p4356
tp4357
bsVsquare_packing_box2
p4358
g21
(g22
(I0
tp4359
g24
tp4360
Rp4361
(I1
(I4
tp4362
g230
I00
S'f\x0c\x9eZ$\xe1\x0b@#\xe0\xa1\xe9Z\x7f\x17\xc067\x89A`\xe5\xd8?Fu1\xc2\xb7\x08y?'
p4363
tp4364
bsVtable
p4365
g21
(g22
(I0
tp4366
g24
tp4367
Rp4368
(I1
(I4
tp4369
g230
I00
S'\x7f\xf6#EdX\xed?\xac\xffs\x98//\xc0\xbf\x00\x00\x00\x00\x00\x00\x00\x00\x00\x00\x00\x00\x00\x00\x00\x00'
p4370
tp4371
bsVsquare_packing_box1
p4372
g21
(g22
(I0
tp4373
g24
tp4374
Rp4375
(I1
(I4
tp4376
g230
I00
S"\x101\xf6\x93\x8c\xb9\x05@\xa0'f\xbav(\x18\xc0L7\x89A`\xe5\xd8?\x9ea\xf6!D \x12@"
p4377
tp4378
bsVback_wall_2
p4379
g21
(g22
(I0
tp4380
g24
tp4381
Rp4382
(I1
(I4
tp4383
g230
I00
S'\xaeG\xe1z\x14.\x13@\x80\x14\xaeG\xe1z\xc4?xX\xa85\xcd\xbb\xf2?\x00\x00\x00\x00\x00\x00\x00\x00'
p4384
tp4385
bsVchair_083c
p4386
g21
(g22
(I0
tp4387
g24
tp4388
Rp4389
(I1
(I4
tp4390
g230
I00
S'\xa4p=\n\xd7\xa3\xe0?333333\xe3\xbf\x00\x00\x00\x00\x00\x00\x00\x00\x00\x00\x00\x00\x00\x00\x00\x00'
p4391
tp4392
bsVback_wall_1
p4393
g21
(g22
(I0
tp4394
g24
tp4395
Rp4396
(I1
(I4
tp4397
g230
I00
S'\xaeG\xe1z\x14.\x13@\x80\x14\xaeG\xe1z\xc4?\xcc\x7fH\xbf}\x1d\xed?\x00\x00\x00\x00\x00\x00\x00\x00'
p4398
tp4399
bsVbottom_wall
p4400
g21
(g22
(I0
tp4401
g24
tp4402
Rp4403
(I1
(I4
tp4404
g230
I00
S'\x00\x00\x00\x00\x00\x00\xfc?\x00\x00\x00\x00\x00\x00\x00\x00\x00\x00\x00\x00\x00\x00\x00\x00\x00\x00\x00\x00\x00\x00\x00\x00'
p4405
tp4406
bsVcup_905a
p4407
g21
(g22
(I0
tp4408
g24
tp4409
Rp4410
(I1
(I4
tp4411
g230
I00
S'\x00\x00\x00\x00\x00\x00\xf0?\x83\xc0\xca\xa1E\xb6\xdb?\x1b/\xdd$\x06\x81\xed?\x00\x00\x00\x00\x00\x00\x00\x00'
p4412
tp4413
bsVplate_496f
p4414
g21
(g22
(I0
tp4415
g24
tp4416
Rp4417
(I1
(I4
tp4418
g230
I00
S"q=\n\xd7\xa3p\xe5?\x9dhW!\xe5'\xdd\xbf\x1b/\xdd$\x06\x81\xed?\x00\x00\x00\x00\x00\x00\x00\x00"
p4419
tp4420
bsVtoaster
p4421
g21
(g22
(I0
tp4422
g24
tp4423
Rp4424
(I1
(I4
tp4425
g230
I00
S')\\\x8f\xc2\xf5(\xf4\xbf\xe0z\x14\xaeG\xe1\xf2\xbf\xb8\x1e\x85\xebQ\xb8\xee?\x89/`\x9b\xf8\x8a\xe4?'
p4426
tp4427
bsVc_obst1
p4428
g21
(g22
(I0
tp4429
g24
tp4430
Rp4431
(I1
(I4
tp4432
g230
I00
S"#\xc4\r\xdc/\x85\x12@(\x9d\xe7\xcb\x93\xe0\xc1?e\xaa`TR'\xed?\xbc\xc1\x11UW\xdb\x14@"
p4433
tp4434
bsVrectangular_packing_box4
p4435
g21
(g22
(I0
tp4436
g24
tp4437
Rp4438
(I1
(I4
tp4439
g230
I00
S'V\xad\x94\xa8\xab\x0e\x03@\xf0\x9d\x97\x15\xa9\xea\x15\xc0P7\x89A`\xe5\xd8?\x83WL\xe8\x00}\x18@'
p4440
tp4441
bsVmicrowave
p4442
g21
(g22
(I0
tp4443
g24
tp4444
Rp4445
(I1
(I4
tp4446
g230
I00
S'\x9a\x99\x99\x99\x99\x99\xf1\xbf\x00\x00\x00\x00\x00\x00\x00@7\x89A`\xe5\xd0\xee?\x00\x00\x00\x00\x00\x00\x00\x00'
p4447
tp4448
bsVc_obst7
p4449
g21
(g22
(I0
tp4450
g24
tp4451
Rp4452
(I1
(I4
tp4453
g230
I00
S'\x9aoH\xb2~"\x12@\xc0~\xe4}vG\xaf\xbfe\xaa`TR\'\xed? I)\xe3\xee+\x01@'
p4454
tp4455
bsVc_obst6
p4456
g21
(g22
(I0
tp4457
g24
tp4458
Rp4459
(I1
(I4
tp4460
g230
I00
S"\xc9\xb0Ne\x02\xa5\x12@\x8cQb\x10\xfc\xeb\xd1?e\xaa`TR'\xed?\xc6\x8d^\xc0c\x1d\t@"
p4461
tp4462
bsVcup_b6af
p4463
g21
(g22
(I0
tp4464
g24
tp4465
Rp4466
(I1
(I4
tp4467
g230
I00
S'R\xb8\x1e\x85\xebQ\xe8?\x9a\x99\x99\x99\x99\x99\xe1?\x1b/\xdd$\x06\x81\xed?\x00\x00\x00\x00\x00\x00\x00\x00'
p4468
tp4469
bsVc_obst4
p4470
g21
(g22
(I0
tp4471
g24
tp4472
Rp4473
(I1
(I4
tp4474
g230
I00
S"\xd6\xccU\xa6\xe8\x8a\x12@\xa0N9S\x14\xdb\xb1?e\xaa`TR'\xed?\x97\x01t\x11\xbb\xf6\x14@"
p4475
tp4476
bsVrectangular_packing_box2
p4477
g21
(g22
(I0
tp4478
g24
tp4479
Rp4480
(I1
(I4
tp4481
g230
I00
S'4c\x0c\x88o\x1f\xfb?\xe2\x89LTi\x18\x1b\xc0L7\x89A`\xe5\xd8?\x82Rq\x1a\x16\xa2\x13@'
p4482
tp4483
bsVplate_fa76
p4484
g21
(g22
(I0
tp4485
g24
tp4486
Rp4487
(I1
(I4
tp4488
g230
I00
S'=\n\xd7\xa3p=\xf2?\x00\x00\x00\x00\x00\x00\x00\x00\x1b/\xdd$\x06\x81\xed?\x00\x00\x00\x00\x00\x00\x00\x00'
p4489
tp4490
bsVfloorwalls
p4491
g21
(g22
(I0
tp4492
g24
tp4493
Rp4494
(I1
(I4
tp4495
g230
I00
S'\xc7\xcc\xcc\xcc\xcc\xcc\xfc?\x00\x00\x00\x00\x00\x00\x18\xc0H\xe1z\x14\xaeG\xc1?\x16-DT\xfb!\xf9?'
p4496
tp4497
bsVpin_c671
p4498
g21
(g22
(I0
tp4499
g24
tp4500
Rp4501
(I1
(I4
tp4502
g230
I00
S'\xc3\xf5(\\\x8f\xc2\xf1\xbf}?5^\xbaI\x02@\xb8\x1e\x85\xebQ\xb8\xfa?\x00\x00\x00\x00\x00\x00\x00\x00'
p4503
tp4504
bsVc_obst3
p4505
g21
(g22
(I0
tp4506
g24
tp4507
Rp4508
(I1
(I4
tp4509
g230
I00
S"s)\xf7\x8e\xc4^\x12@ \x0fJAWd\xa9\xbfe\xaa`TR'\xed?\xf3Y!\x14\xbc\xaa\xd7?"
p4510
tp4511
bsVchair_2e39
p4512
g21
(g22
(I0
tp4513
g24
tp4514
Rp4515
(I1
(I4
tp4516
g230
I00
S'\x90fffff\xee?!fffff\xf2\xbf\x00\x00\x00\x00\x00\x00\x00\x00\x07M\xe8QQF\xf3?'
p4517
tp4518
bsVentrance_left
p4519
g21
(g22
(I0
tp4520
g24
tp4521
Rp4522
(I1
(I4
tp4523
g230
I00
S'\x98\x99\x99\x99\x99\x99\xe9\xbfH\xe1z\x14\xaeG\t\xc0\x9c\xc4 \xb0rh\xc1?\x00\x00\x00\x00\x00\x00\x00\x00'
p4524
tp4525
bsVtop_wall_1
p4526
g21
(g22
(I0
tp4527
g24
tp4528
Rp4529
(I1
(I4
tp4530
g230
I00
S'H\xe1z\x14\xaeG\x12@\x80\x14\xaeG\xe1z\xc4?xX\xa85\xcd\xbb\xf2?\x00\x00\x00\x00\x00\x00\x00\x00'
p4531
tp4532
bsVrectangular_packing_box3
p4533
g21
(g22
(I0
tp4534
g24
tp4535
Rp4536
(I1
(I4
tp4537
g230
I00
S'\x00\xf9@\xc4\x90g\xc9\xbf\x90\x92&\xe5x\xd5\x1d\xc0l7\x89A`\xe5\xd8?S<=\x06S\x82\xea?'
p4538
tp4539
bsVshaker
p4540
g21
(g22
(I0
tp4541
g24
tp4542
Rp4543
(I1
(I4
tp4544
g230
I00
S'\n\xd7\xa3p=\n\x01@\x14\xaeG\xe1z\x14\x02@\\\x8f\xc2\xf5(\\\xef?\x00\x00\x00\x00\x00\x00\x00\x00'
p4545
tp4546
bsVc_obst9
p4547
g21
(g22
(I0
tp4548
g24
tp4549
Rp4550
(I1
(I4
tp4551
g230
I00
S"\xa2\x0f\xb39*|\x12@\xa8\xb5a/k'w?e\xaa`TR'\xed?\x0e\x1f\\@\xf2\xd0\x06@"
p4552
tp4553
bsVplate_835a
p4554
g21
(g22
(I0
tp4555
g24
tp4556
Rp4557
(I1
(I4
tp4558
g230
I00
S'\xf6(\\\x8f\xc2\xf5\xf0?\\\x8f\xc2\xf5(\\\xe7\xbf\x1b/\xdd$\x06\x81\xed?\x00\x00\x00\x00\x00\x00\x00\x00'
p4559
tp4560
bsVcup_58a2
p4561
g21
(g22
(I0
tp4562
g24
tp4563
Rp4564
(I1
(I4
tp4565
g230
I00
S'\x85\xebQ\xb8\x1e\x85\xe3?\xcd\xcc\xcc\xcc\xcc\xcc\xdc?\x1b/\xdd$\x06\x81\xed?\x00\x00\x00\x00\x00\x00\x00\x00'
p4566
tp4567
bsVleft_wall_1
p4568
g21
(g22
(I0
tp4569
g24
tp4570
Rp4571
(I1
(I4
tp4572
g230
I00
S'H\xe1z\x14\xaeG\x12@S\xb8\x1e\x85\xebQ\xe4?\xcc\x7fH\xbf}\x1d\xed?\x00\x00\x00\x00\x00\x00\x00\x00'
p4573
tp4574
bsVc_obst2
p4575
g21
(g22
(I0
tp4576
g24
tp4577
Rp4578
(I1
(I4
tp4579
g230
I00
S"O\x06(;r'\x12@\xcc\xff\x1c\x06\x1f[\xd9?e\xaa`TR'\xed?\xdft\x91pa\xbd\xf1?"
p4580
tp4581
bsVsquare_packing_box4
p4582
g21
(g22
(I0
tp4583
g24
tp4584
Rp4585
(I1
(I4
tp4586
g230
I00
S'l\x89\xbe\x9el2\x07@\xc5Jv\x8f\xc3j\x1a\xc0R7\x89A`\xe5\xd8?|\xde\xfd\x1esf\xf8?'
p4587
tp4588
bsVrectangular_packing_box1
p4589
g21
(g22
(I0
tp4590
g24
tp4591
Rp4592
(I1
(I4
tp4593
g230
I00
S'\x1ck\xa8@w\x9d\xfa?\x1a\xb4K\x86<8 \xc087\x89A`\xe5\xd8?\x8d\x15\x04`\xf6\xb2\xee?'
p4594
tp4595
bsVpin_371e
p4596
g21
(g22
(I0
tp4597
g24
tp4598
Rp4599
(I1
(I4
tp4600
g230
I00
S'333333\xf3\xbfffffff\xf6?\xb8\x1e\x85\xebQ\xb8\xee?\x00\x00\x00\x00\x00\x00\x00\x00'
p4601
tp4602
bsVfridge
p4603
g21
(g22
(I0
tp4604
g24
tp4605
Rp4606
(I1
(I4
tp4607
g230
I00
S'\xd7\xa3p=\n\xd7\xeb\xbf\x00\x00\x00\x00\x00\x00\x00\xc0\xcd\xcc\xcc\xcc\xcc\xcc\xf8?\x00\x00\x00\x00\x00\x00\x00\x00'
p4608
tp4609
bsVcup_d441
p4610
g21
(g22
(I0
tp4611
g24
tp4612
Rp4613
(I1
(I4
tp4614
g230
I00
S'\n\xd7\xa3p=\n\xef?\x8f\xc2\xf5(\\\x8f\xe2?\x1b/\xdd$\x06\x81\xed?\x00\x00\x00\x00\x00\x00\x00\x00'
p4615
tp4616
bsVshelf2
p4617
g21
(g22
(I0
tp4618
g24
tp4619
Rp4620
(I1
(I4
tp4621
g230
I00
S'\x00\x00\x00\x00\x00\x00\x0e@\xaeG\xe1z\x14\xae\x07@\x9c\xc4 \xb0rh\xc1?\xd2!3\x7f|\xd9\x12@'
p4622
tp4623
bsVtop_wall_2
p4624
g21
(g22
(I0
tp4625
g24
tp4626
Rp4627
(I1
(I4
tp4628
g230
I00
S'H\xe1z\x14\xaeG\x12@\x80\x14\xaeG\xe1z\xc4?\x16HP\xfc\x18\xf3\xfd?\x00\x00\x00\x00\x00\x00\x00\x00'
p4629
tp4630
bsVc_obst0
p4631
g21
(g22
(I0
tp4632
g24
tp4633
Rp4634
(I1
(I4
tp4635
g230
I00
S"\xc8\x0f^\xd9\xa8\xf9\x11@(\xdd\x88\xaeV%\xc0?e\xaa`TR'\xed?\xea\x92W\xf2*\r\xfc?"
p4636
tp4637
bsVshelf1
p4638
g21
(g22
(I0
tp4639
g24
tp4640
Rp4641
(I1
(I4
tp4642
g230
I00
S'\x00\x00\x00\x00\x00\x00\x13@\xaeG\xe1z\x14\xae\x07@\x9c\xc4 \xb0rh\xc1?\xd2!3\x7f|\xd9\x12@'
p4643
tp4644
bsVsink
p4645
g21
(g22
(I0
tp4646
g24
tp4647
Rp4648
(I1
(I4
tp4649
g230
I00
S'ffffff\xd6?333333\x01@\x9a\x99\x99\x99\x99\x99\xb9\xbf\x00\x00\x00\x00\x00\x00\x00\x00'
p4650
tp4651
bsVpr2
p4652
g21
(g22
(I0
tp4653
g24
tp4654
Rp4655
(I1
(I4
tp4656
g230
I00
S'\xf1\xdeEo\xd3\x06\xf0?\x16\xfd\xc0\xfaSg\x1b\xc0\x9a_\x94\xa0\xbf\xd0\xc1?\xce\xab\x94\x10C\x1d\xdb?'
p4657
tp4658
bsVchair_12d0
p4659
g21
(g22
(I0
tp4660
g24
tp4661
Rp4662
(I1
(I4
tp4663
g230
I00
S'^\xd2\x18\xad\xa3\xaa\xdb?Pf\x83L2r\xc6?\x00\x00\x00\x00\x00\x00\x00\x00\xf8\x81\r\x14M\xa6\x17@'
p4664
tp4665
bsVright_wall_2
p4666
g21
(g22
(I0
tp4667
g24
tp4668
Rp4669
(I1
(I4
tp4670
g230
I00
S'H\xe1z\x14\xaeG\x12@&\\\x8f\xc2\xf5(\xd4\xbfxX\xa85\xcd\xbb\xf2?\x00\x00\x00\x00\x00\x00\x00\x00'
p4671
tp4672
bsVknife_block
p4673
g21
(g22
(I0
tp4674
g24
tp4675
Rp4676
(I1
(I4
tp4677
g230
I00
S'R\xb8\x1e\x85\xebQ\xe0\xbfffffff\x02@`\xe5\xd0"\xdb\xf9\xee?\x00\x00\x00\x00\x00\x00\x00\x00'
p4678
tp4679
bsVleft_wall_2
p4680
g21
(g22
(I0
tp4681
g24
tp4682
Rp4683
(I1
(I4
tp4684
g230
I00
S'H\xe1z\x14\xaeG\x12@S\xb8\x1e\x85\xebQ\xe4?xX\xa85\xcd\xbb\xf2?\x00\x00\x00\x00\x00\x00\x00\x00'
p4685
tp4686
bsVleft_wall
p4687
g21
(g22
(I0
tp4688
g24
tp4689
Rp4690
(I1
(I4
tp4691
g230
I00
S'\x9a\x99\x99\x99\x99\x99\x07@H\xe1z\x14\xaeG\xff?\x9c\xc4 \xb0rh\xc1?\x00\x00\x00\x00\x00\x00\x00\x00'
p4692
tp4693
bsVkitchen
p4694
g21
(g22
(I0
tp4695
g24
tp4696
Rp4697
(I1
(I4
tp4698
g230
I00
S'\x00\x00\x00\x00\x00\x00\x00\x00\x00\x00\x00\x00\x00\x00\x00\x00\x00\x00\x00\x00\x00\x00\x00\x00\x00\x00\x00\x00\x00\x00\x00\x00'
p4699
tp4700
bsVtable2
p4701
g21
(g22
(I0
tp4702
g24
tp4703
Rp4704
(I1
(I4
tp4705
g230
I00
S'\x00\x00\x00\x00\x00\x00\x13@\x80\x14\xaeG\xe1z\xc4?S\x96!\x8euq\xec?\xd2!3\x7f|\xd9\x12@'
p4706
tp4707
bsVc_obst8
p4708
g21
(g22
(I0
tp4709
g24
tp4710
Rp4711
(I1
(I4
tp4712
g230
I00
S"\xb4\xd6i\x8c\xb2\xe1\x11@uO\xd6\xdey2\xd8?e\xaa`TR'\xed?\xd9\xbf\xd8\x8b\x95*\t@"
p4713
tp4714
bsVplate_b4e7
p4715
g21
(g22
(I0
tp4716
g24
tp4717
Rp4718
(I1
(I4
tp4719
g230
I00
S'\x14\xaeG\xe1z\x14\xf2\xbf\x14\xaeG\xe1z\x14\x00@=\n\xd7\xa3p=\xf2?\x00\x00\x00\x00\x00\x00\x00\x00'
p4720
tp4721
bsVcooker
p4722
g21
(g22
(I0
tp4723
g24
tp4724
Rp4725
(I1
(I4
tp4726
g230
I00
S'\xaeG\xe1z\x14\xae\xff?\x85\xebQ\xb8\x1e\x85\xfb?\x00\x00\x00\x00\x00\x00\xe8?\x00\x00\x00\x00\x00\x00\x00\x00'
p4727
tp4728
bsVpin_a091
p4729
g21
(g22
(I0
tp4730
g24
tp4731
Rp4732
(I1
(I4
tp4733
g230
I00
S'\xdb\xf9~j\xbct\xf7\xbf)\\\x8f\xc2\xf5(\x02@\xb8\x1e\x85\xebQ\xb8\xfa?\x00\x00\x00\x00\x00\x00\x00\x00'
p4734
tp4735
bsVside_wall_2
p4736
g21
(g22
(I0
tp4737
g24
tp4738
Rp4739
(I1
(I4
tp4740
g230
I00
S'\xd1\xff\xff\xff\xff\xff\x14@\xc8\xff\xff\xff\xff\x0f!=\x9c\xc4 \xb0rh\xc1?#-DT\xfb!\xf9?'
p4741
tp4742
bsVside_wall_3
p4743
g21
(g22
(I0
tp4744
g24
tp4745
Rp4746
(I1
(I4
tp4747
g230
I00
S'\x00\x00\x00\x00\x00\x00\xfc?H\xe1z\x14\xaeG\t@\x9c\xc4 \xb0rh\xc1?\x00\x00\x00\x00\x00\x00\x00\x00'
p4748
tp4749
bsVmixer
p4750
g21
(g22
(I0
tp4751
g24
tp4752
Rp4753
(I1
(I4
tp4754
g230
I00
S'\n\xd7\xa3p=\n\xfb?ffffff\x02@d;\xdfO\x8d\x97\xee?\x00\x00\x00\x00\x00\x00\x00\x00'
p4755
tp4756
bsVside_wall_1
p4757
g21
(g22
(I0
tp4758
g24
tp4759
Rp4760
(I1
(I4
tp4761
g230
I00
S'\xa2\xff\xff\xff\xff\xff\xfb\xbf\xa2\xff\xff\xff\xff\xbf\x06\xbd\x9c\xc4 \xb0rh\xc1?#-DT\xfb!\xf9?'
p4762
tp4763
bsVbottom_wall_1
p4764
g21
(g22
(I0
tp4765
g24
tp4766
Rp4767
(I1
(I4
tp4768
g230
I00
S'H\xe1z\x14\xaeG\x12@\x80\x14\xaeG\xe1z\xc4?\xcc\x7fH\xbf}\x1d\xed?\x00\x00\x00\x00\x00\x00\x00\x00'
p4769
tp4770
bsVcan
p4771
g21
(g22
(I0
tp4772
g24
tp4773
Rp4774
(I1
(I4
tp4775
g230
I00
S'\x00\x00\x00\x00\x00\x00\xf4\xbfH\xe1z\x14\xaeG\xe1\xbf\n\xd7\xa3p=\n\xef?\x00\x00\x00\x00\x00\x00\x00\x00'
p4776
tp4777
bsVright_wall
p4778
g21
(g22
(I0
tp4779
g24
tp4780
Rp4781
(I1
(I4
tp4782
g230
I00
S'\x9a\x99\x99\x99\x99\x99\x07@H\xe1z\x14\xaeG\xff\xbf\x9c\xc4 \xb0rh\xc1?\x00\x00\x00\x00\x00\x00\x00\x00'
p4783
tp4784
bsVcoffe_machine
p4785
g21
(g22
(I0
tp4786
g24
tp4787
Rp4788
(I1
(I4
tp4789
g230
I00
S'\\\x8f\xc2\xf5(\\\xf5\xbf\xb8\x1e\x85\xebQ\xb8\xee?\n\xd7\xa3p=\n\xef?\x00\x00\x00\x00\x00\x00\x00\x00'
p4790
tp4791
bsVcomputer_chair
p4792
g21
(g22
(I0
tp4793
g24
tp4794
Rp4795
(I1
(I4
tp4796
g230
I00
S'\xcd\xcc\xcc\xcc\xcc\xcc\x10@\x00\x00\x00\x00\x00\x00\xf8\xbf\xa00\xb6\x10\xe4\xa9\x95\xbf\x00\x00\x00\x00\x00\x00\x00\x00'
p4797
tp4798
bssg2439
g21
(g22
(I0
tp4799
g24
tp4800
Rp4801
(I1
(I39
tp4802
g230
I00
S'\x00\x00\x00\x00\x00\x00\x00\x00\x1b\xdb;\x1a\x92Y\xd9\xbc\x1b\xdb;\x1a\x92Y\xd9\xbc\x00\x00\x00\x00\x00\x00\x00\x00\x1b\xdb;\x1a\x92Y\xd9\xbc\x1b\xdb;\x1a\x92Y\xd9\xbc\x00\x00\x00\x00\x00\x00\x00\x00\x1b\xdb;\x1a\x92Y\xd9\xbc\x1b\xdb;\x1a\x92Y\xd9\xbc\x00\x00\x00\x00\x00\x00\x00\x00\x1b\xdb;\x1a\x92Y\xd9\xbc\x1b\xdb;\x1a\x92Y\xd9\xbc@d;\xdfO\x8d\x87?\x00\x00\x00\x00\x00\x00\x00\x00\x1b\xdb;\x1a\x92Y\xd9\xbc\x00\x00\x00\x00\x00\x00\x00\x00\xec\xed\t\xf1\xcc\xa4\xf4?\x00\x00\x00\x00\x00\x00\xb0<O"\xd0^p\xf8\x00\xc0\x00\x00\x00\x00\x00\x00\x00\x00\xa1\x03\r.\x04V\xe6\xbf\x00\x00\x00\x00\x00\x00\x00\x00\x00\x00\x00\x00\x00\x00\x00\x00\x00\x00\x00\x00\x00X\x10\xbd\x00\x00\x00\x00\x00\x00\x00\x00\x00\x00\x00\x00\x00\x00\xf8<\x1b\xdb;\x1a\x92Y\xd9\xbc\x00\x00\x00\x00\x00\x00\x00\x00\xec\xed\t\xf1\xcc\xa4\xf4?\x00\x00\x00\x00\x00\x00\x00\x00N"\xd0^p\xf8\x00\xc0\x00\x00\x00\x00\x00\x00\x00\x00\x9f\x03\r.\x04V\xe6\xbf\x00\x00\x00\x00\x00\x00\x00\x00\x829\xe3\xc17\x89\xe1?\x00\x00\x00\x00\x000\x03\xbd\x00\x00\x00\x00\x00\x00\x00\x00\x00\x00\x00\x00\x00\x00\x00\xbd\x00\x00\x00\x00\x00\x00\x00\x00'
p4803
tp4804
bsg2446
I00
sbsg2447
Nsg2448
(dp4805
(g221
g282
g221
tp4806
g1209
s(g1093
g1126
g1126
tp4807
g1128
s(g1129
g1100
g221
tp4808
g1131
s(g390
g333
g1126
tp4809
g1133
s(g1096
g221
g221
tp4810
g1487
s(g221
g221
g221
tp4811
g1135
s(g1093
g390
g221
tp4812
g1455
s(g1093
g282
g221
tp4813
g1139
s(g221
g220
g221
tp4814
g1141
s(g390
g1093
g221
tp4815
g1143
s(g390
g282
g1126
tp4816
g1451
s(g221
g333
g1126
tp4817
g1147
s(g390
g1129
g221
tp4818
g1149
s(g1126
g221
g1126
tp4819
g1151
s(g220
g1096
g221
tp4820
g1153
s(g333
g1129
g221
tp4821
g1155
s(g390
g1100
g1126
tp4822
g1157
s(g1096
g1126
g221
tp4823
g1159
s(g1126
g220
g1126
tp4824
g1355
s(g220
g282
g1126
tp4825
g1363
s(g1093
g1093
g1126
tp4826
g1169
s(g1126
g333
g1126
tp4827
g1171
s(g1129
g390
g221
tp4828
g1175
s(g1126
g1126
g221
tp4829
g1177
s(g1096
g220
g1126
tp4830
g1179
s(g221
g221
g1126
tp4831
g1181
s(g1100
g390
g1126
tp4832
g1183
s(g1126
g1129
g1126
tp4833
g1471
s(g282
g1096
g1126
tp4834
g1277
s(g1100
g221
g1126
tp4835
g1189
s(g1100
g282
g1126
tp4836
g1193
s(g282
g1100
g221
tp4837
g1195
s(g1126
g1093
g1126
tp4838
g1197
s(g1093
g1129
g1126
tp4839
g1551
s(g221
g282
g1126
tp4840
g1289
s(g1129
g333
g221
tp4841
g1203
s(g1126
g221
g221
tp4842
g1205
s(g390
g1100
g221
tp4843
g1211
s(g390
g1096
g221
tp4844
g1465
s(g1093
g282
g1126
tp4845
g1215
s(g1096
g390
g221
tp4846
g1217
s(g390
g1093
g1126
tp4847
g1219
s(g1129
g390
g1126
tp4848
g1223
s(g1126
g282
g1126
tp4849
g1225
s(g1129
g221
g221
tp4850
g1227
s(g1126
g1129
g221
tp4851
g1231
s(g1100
g1096
g1126
tp4852
g1311
s(g1100
g282
g221
tp4853
g1239
s(g1126
g220
g221
tp4854
g1385
s(g1129
g1096
g1126
tp4855
g1291
s(g1096
g1093
g221
tp4856
g1187
s(g333
g1093
g221
tp4857
g1245
s(g1093
g1093
g221
tp4858
g1247
s(g1093
g220
g221
tp4859
g1249
s(g333
g1100
g1126
tp4860
g1253
s(g1096
g220
g221
tp4861
g1255
s(g1100
g390
g221
tp4862
g1257
s(g1100
g221
g221
tp4863
g1261
s(g221
g390
g221
tp4864
g1399
s(g282
g1100
g1126
tp4865
g1267
s(g1129
g221
g1126
tp4866
g1271
s(g1129
g333
g1126
tp4867
g1273
s(g1126
g1100
g221
tp4868
g1475
s(g390
g1096
g1126
tp4869
g1507
s(g1100
g1126
g221
tp4870
g1281
s(g1096
g390
g1126
tp4871
g1283
s(g1096
g1100
g1126
tp4872
g1285
s(g333
g1093
g1126
tp4873
g1287
s(g1100
g1126
g1126
tp4874
g1243
s(g1126
g282
g221
tp4875
g1293
s(g333
g1100
g221
tp4876
g1299
s(g1126
g1096
g221
tp4877
g1301
s(g221
g390
g1126
tp4878
g1269
s(g1096
g1129
g221
tp4879
g1167
s(g1093
g220
g1126
tp4880
g1309
s(g1096
g1096
g221
tp4881
g1237
s(g390
g390
g221
tp4882
g1569
s(g282
g1126
g1126
tp4883
g1315
s(g1093
g1100
g221
tp4884
g1319
s(g220
g390
g1126
tp4885
g1323
s(g1129
g1126
g1126
tp4886
g1501
s(g1096
g1100
g221
tp4887
g1327
s(g333
g1126
g1126
tp4888
g1329
s(g390
g221
g221
tp4889
g1331
s(g333
g220
g221
tp4890
g1333
s(g1126
g1100
g1126
tp4891
g1337
s(g1126
g1096
g1126
tp4892
g1339
s(g1093
g1096
g221
tp4893
g1341
s(g1100
g1096
g221
tp4894
g1343
s(g1093
g1100
g1126
tp4895
g1345
s(g221
g1096
g221
tp4896
g1521
s(g282
g221
g1126
tp4897
g1351
s(g333
g1126
g221
tp4898
g1353
s(g1096
g1129
g1126
tp4899
g1573
s(g390
g220
g221
tp4900
g1575
s(g220
g220
g221
tp4901
g1361
s(g282
g1126
g221
tp4902
g1365
s(g390
g333
g221
tp4903
g1587
s(g1096
g333
g221
tp4904
g1367
s(g220
g390
g221
tp4905
g1369
s(g390
g1126
g1126
tp4906
g1371
s(g282
g1129
g1126
tp4907
g1373
s(g390
g221
g1126
tp4908
g1375
s(g1093
g390
g1126
tp4909
g1377
s(g333
g220
g1126
tp4910
g1379
s(g1096
g221
g1126
tp4911
g1381
s(g282
g221
g221
tp4912
g1383
s(g1100
g1100
g221
tp4913
g1387
s(g1093
g1096
g1126
tp4914
g1395
s(g333
g1096
g221
tp4915
g1391
s(g333
g221
g1126
tp4916
g1535
s(g221
g1129
g221
tp4917
g1163
s(g220
g1093
g1126
tp4918
g1397
s(g1129
g282
g1126
tp4919
g1401
s(g282
g1093
g221
tp4920
g1403
s(g1100
g1129
g221
tp4921
g1405
s(g1096
g333
g1126
tp4922
g1407
s(g1096
g282
g1126
tp4923
g1409
s(g1126
g333
g221
tp4924
g1389
s(g221
g1096
g1126
tp4925
g1335
s(g220
g1126
g221
tp4926
g1415
s(g282
g1129
g221
tp4927
g1417
s(g333
g282
g1126
tp4928
g1419
s(g282
g1096
g221
tp4929
g1579
s(g333
g333
g1126
tp4930
g1425
s(g220
g220
g1126
tp4931
g1427
s(g1100
g1100
g1126
tp4932
g1429
s(g1093
g333
g1126
tp4933
g1431
s(g1093
g1129
g221
tp4934
g1505
s(g1129
g1093
g221
tp4935
g1435
s(g221
g1129
g1126
tp4936
g1437
s(g221
g1100
g1126
tp4937
g1439
s(g390
g1126
g221
tp4938
g1441
s(g1100
g1093
g1126
tp4939
g1445
s(g390
g220
g1126
tp4940
g1509
s(g1129
g282
g221
tp4941
g1449
s(g282
g220
g1126
tp4942
g1145
s(g1100
g1129
g1126
tp4943
g1453
s(g1126
g390
g1126
tp4944
g1295
s(g220
g1100
g1126
tp4945
g1457
s(g333
g282
g221
tp4946
g1461
s(g1093
g221
g1126
tp4947
g1463
s(g282
g333
g221
tp4948
g1213
s(g1129
g1126
g221
tp4949
g1173
s(g220
g1129
g221
tp4950
g1469
s(g333
g1096
g1126
tp4951
g1473
s(g1129
g1129
g1126
tp4952
g1477
s(g220
g1093
g221
tp4953
g1479
s(g1093
g333
g221
tp4954
g1481
s(g282
g1093
g1126
tp4955
g1485
s(g220
g221
g1126
tp4956
g1317
s(g1129
g1093
g1126
tp4957
g1489
s(g1096
g282
g221
tp4958
g1491
s(g282
g390
g221
tp4959
g1493
s(g220
g1126
g1126
tp4960
g1495
s(g333
g390
g221
tp4961
g1433
s(g282
g333
g1126
tp4962
g1307
s(g282
g282
g1126
tp4963
g1447
s(g333
g221
g221
tp4964
g1511
s(g1096
g1096
g1126
tp4965
g1467
s(g220
g333
g221
tp4966
g1515
s(g1129
g220
g1126
tp4967
g1517
s(g221
g1100
g221
tp4968
g1519
s(g1100
g1093
g221
tp4969
g1523
s(g1100
g220
g221
tp4970
g1525
s(g1129
g1096
g221
tp4971
g1527
s(g390
g282
g221
tp4972
g1529
s(g390
g390
g1126
tp4973
g1531
s(g1100
g333
g1126
tp4974
g1533
s(g1093
g221
g221
tp4975
g1539
s(g220
g1129
g1126
tp4976
g1513
s(g221
g1126
g221
tp4977
g1545
s(g1129
g1129
g221
tp4978
g1547
s(g333
g390
g1126
tp4979
g1199
s(g1126
g390
g221
tp4980
g1553
s(g220
g221
g221
tp4981
g1229
s(g1129
g220
g221
tp4982
g1557
s(g1093
g1126
g221
tp4983
g1559
s(g220
g1100
g221
tp4984
g1411
s(g221
g1093
g221
tp4985
g1563
s(g1129
g1100
g1126
tp4986
g1565
s(g333
g1129
g1126
tp4987
g1567
s(g282
g220
g221
tp4988
g1555
s(g221
g1093
g1126
tp4989
g1313
s(g1100
g333
g221
tp4990
g1571
s(g282
g282
g221
tp4991
g1359
s(g221
g333
g221
tp4992
g1577
s(g220
g333
g1126
tp4993
g1581
s(g333
g333
g221
tp4994
g1583
s(g1100
g220
g1126
tp4995
g1585
s(g1096
g1093
g1126
tp4996
g1423
s(g1096
g1126
g1126
tp4997
g1589
s(g220
g282
g221
tp4998
g1459
s(g221
g220
g1126
tp4999
g1595
s(g1126
g1126
g1126
tp5000
g1599
s(g390
g1129
g1126
tp5001
g1601
s(g220
g1096
g1126
tp5002
g1603
s(g221
g1126
g1126
tp5003
g1605
s(g1126
g1093
g221
tp5004
g1609
s(g282
g390
g1126
tp5005
g1561
ssg2450
(dp5006
(g3569
g1126
tp5007
(lp5008
g21
(g22
(I0
tp5009
g24
tp5010
Rp5011
(I1
(I3
tp5012
g230
I00
S'\xabf\xce\xd4\xa7^\xef?\x92q\x92\x102\x9c\x1f\xc0P\x89\xfb\xd8R\xf2\x15@'
p5013
tp5014
bas(g3689
g221
tp5015
g3429
s(g3584
g221
tp5016
g3279
s(g3570
g1126
tp5017
(lp5018
g21
(g22
(I0
tp5019
g24
tp5020
Rp5021
(I1
(I3
tp5022
g230
I00
S'\xf9\x8e\\\xf8\xdeC\xd3?\xf6\x19\xd2\xbdk\x8d\x1b\xc0wJ}\x1bQ\x12\x06@'
p5023
tp5024
bas(g3584
g1126
tp5025
(lp5026
g21
(g22
(I0
tp5027
g24
tp5028
Rp5029
(I1
(I3
tp5030
g230
I00
S'\x8cF\xfd*\xdd\x0f\x03@d T\x13\xa9\xc8\x18\xc0\xa2\x9b[yu \xfc?'
p5031
tp5032
bas(g3570
g221
tp5033
(lp5034
g21
(g22
(I0
tp5035
g24
tp5036
Rp5037
(I1
(I3
tp5038
g230
I00
S'\xe8\x8e\\\xf8\xdeC\xd3?\xf5\x19\xd2\xbdk\x8d\x1b\xc0wJ}\x1bQ\x12\x06@'
p5039
tp5040
bag21
(g22
(I0
tp5041
g24
tp5042
Rp5043
(I1
(I3
tp5044
g241
I00
S'\xae\xea\x9e\xa3\xa2\xb1\xed?\xa4\xca\x1d?h\x96\x19\xc0dq\xdf\xb1\x9d\xe4\x05@'
p5045
tp5046
bag21
(g22
(I0
tp5047
g24
tp5048
Rp5049
(I1
(I3
tp5050
g241
I00
S'o\xd6\x82\xea\x7f\xb2\xed?9\xf2C\x0b?\xfd\x16\xc0(?d\xe9@\xb5\x02@'
p5051
tp5052
bag21
(g22
(I0
tp5053
g24
tp5054
Rp5055
(I1
(I3
tp5056
g241
I00
S'&>c9\x01,\xeb?\xb2\xc2\xf0\x02\xce\x8e\x14\xc0\xd8p\xbb2\x14\xd2\x03@'
p5057
tp5058
bag21
(g22
(I0
tp5059
g24
tp5060
Rp5061
(I1
(I3
tp5062
g241
I00
S'\xc6\x05\xbdtg\xd9\xe2?F\xdf\x9d@\\\xf3\x11\xc0\x1a\xc4.\xbb\xcc\x12\x02@'
p5063
tp5064
bag21
(g22
(I0
tp5065
g24
tp5066
Rp5067
(I1
(I3
tp5068
g241
I00
S'3z\xed\x8eN)\xe4?\x0c\x96\xd4\xa2\x0e\xd0\r\xc0\xbd%\xf5{\xe9\xf9\x03@'
p5069
tp5070
bag21
(g22
(I0
tp5071
g24
tp5072
Rp5073
(I1
(I3
tp5074
g241
I00
S'\xaf0\xe9h\xba~\xee?k\xbb\xd8\xd4\xd0g\t\xc09\x9ey\xed\xb06\x06@'
p5075
tp5076
bag21
(g22
(I0
tp5077
g24
tp5078
Rp5079
(I1
(I3
tp5080
g241
I00
S'\xf4\xfdJ\x1a(#\xec?H"\x9cD\x1aE\x05\xc0.\xa9\x0b\x87\xf8\xe1\x02@'
p5081
tp5082
bas(g3659
g1126
tp5083
(lp5084
g21
(g22
(I0
tp5085
g24
tp5086
Rp5087
(I1
(I3
tp5088
g230
I00
S'L\xd4U\x01\x97\x97\t@\xa1\xd6\xfbp\xc5\x91\x1a\xc0:\xcf<(@\x11\xf0?'
p5089
tp5090
bas(g3659
g221
tp5091
g3485
s(g80
g221
tp5092
(lp5093
g21
(g22
(I0
tp5094
g24
tp5095
Rp5096
(I1
(I3
tp5097
g230
I00
S'\xe8\x80R`\x13\xa9\xff?z\x1a\x0f\x96\x06(\x18\xc02\x84\x85W\x0c\x8e\xd2?'
p5098
tp5099
bag21
(g22
(I0
tp5100
g24
tp5101
Rp5102
(I1
(I3
tp5103
g241
I00
S'\x0e]\xf2K\xc6E\xf7?\x06\x8c\xb9Ybt\x17\xc0%\xac6\x86\x93\xa8\xdd?'
p5104
tp5105
bag21
(g22
(I0
tp5106
g24
tp5107
Rp5108
(I1
(I3
tp5109
g241
I00
S'\xe4\x9e\xb7\xac\xe0!\xeb?\x8a\x83\x10\xb1\xa2\xad\x15\xc0\x9aS\xfbY\xaf\x8f\xd2\xbf'
p5110
tp5111
bag21
(g22
(I0
tp5112
g24
tp5113
Rp5114
(I1
(I3
tp5115
g241
I00
S"\xb2&6mg)\xe8?\x99\xe0G'\x16\xe0\x13\xc0\xc8oL\xf5\x17p\xe6\xbf"
p5116
tp5117
bag21
(g22
(I0
tp5118
g24
tp5119
Rp5120
(I1
(I3
tp5121
g241
I00
S'`\xc8Aw-\x81\xeb?/\xc3\xe6O\x04\xca\x10\xc0\x8a\xb7K)\x91{\xe4\xbf'
p5122
tp5123
bag21
(g22
(I0
tp5124
g24
tp5125
Rp5126
(I1
(I3
tp5127
g241
I00
S'\xe1\xc6\xc7\xa7\x12X\xe7?\x98\x99\xb0\x9a\xfb\xdb\x0b\xc0R\t\x1b)\xeae\xe0\xbf'
p5128
tp5129
bag21
(g22
(I0
tp5130
g24
tp5131
Rp5132
(I1
(I3
tp5133
g241
I00
S'p\xf1\xbdc^\x84\xf1?"\x88LL\xf9D\x06\xc0~w\r\xe9m\x0f\x19@'
p5134
tp5135
bas(g3568
g221
tp5136
g3385
s(g3568
g1126
tp5137
(lp5138
g21
(g22
(I0
tp5139
g24
tp5140
Rp5141
(I1
(I3
tp5142
g230
I00
S'J\xb0\xcc\xbd\xca\x0e\xbb?0=\xc3\xc5\xf5\x96\x1a\xc0\x90\x02\xe5\xc3E\xe0\x12@'
p5143
tp5144
bas(g3689
g1126
tp5145
(lp5146
g21
(g22
(I0
tp5147
g24
tp5148
Rp5149
(I1
(I3
tp5150
g230
I00
S'\xacM\xfe\x9e\x01\xf7\x07@\x92\xebq\xc9x\x93\x17\xc0\xd3\xe0\x9f\x13i0\x14@'
p5151
tp5152
bas(g80
g1126
tp5153
(lp5154
g21
(g22
(I0
tp5155
g24
tp5156
Rp5157
(I1
(I3
tp5158
g230
I00
S'\xe6\x80R`\x13\xa9\xff?z\x1a\x0f\x96\x06(\x18\xc0/\x84\x85W\x0c\x8e\xd2?'
p5159
tp5160
bas(g3585
g1126
tp5161
(lp5162
g21
(g22
(I0
tp5163
g24
tp5164
Rp5165
(I1
(I3
tp5166
g230
I00
S"FF\xbc\xb0\xa9\xd0\xfc?-'7\x145\x1e\x1e\xc0\xef\xd2\x8cy\x19\xaf\xf9?"
p5167
tp5168
bas(g3585
g221
tp5169
g3329
s(g3569
g221
tp5170
(lp5171
g21
(g22
(I0
tp5172
g24
tp5173
Rp5174
(I1
(I3
tp5175
g230
I00
S'\xb0f\xce\xd4\xa7^\xef?\x92q\x92\x102\x9c\x1f\xc0O\x89\xfb\xd8R\xf2\x15@'
p5176
tp5177
bag21
(g22
(I0
tp5178
g24
tp5179
Rp5180
(I1
(I3
tp5181
g241
I00
S'\x82\xeb.\xbfl\xf2\xe7?\xb8@O\xd3\x83\xb3\x1d\xc0\xc5\xeb\x9c\xf6Lc\xff\xbf'
p5182
tp5183
bag21
(g22
(I0
tp5184
g24
tp5185
Rp5186
(I1
(I3
tp5187
g241
I00
S'\xf8\xfc\x1a\xd0\xc9l\xe8?\x8a\x897\x8e~\x98\x1a\xc0\xaf\xf7\xb87\xc6\xa7\x01\xc0'
p5188
tp5189
bag21
(g22
(I0
tp5190
g24
tp5191
Rp5192
(I1
(I3
tp5193
g241
I00
S"\xc6'8AN\xb0\xec?\xe0\x975>\x0f\x03\x19\xc0(\xe0e;\x85\x89\x05\xc0"
p5194
tp5195
bag21
(g22
(I0
tp5196
g24
tp5197
Rp5198
(I1
(I3
tp5199
g241
I00
S'\xd0\xcb\x13\x8f\xaa\x9d\xed?\x90\x01<]3\x06\x16\xc0F\xf1\xe7x32\x02\xc0'
p5200
tp5201
bag21
(g22
(I0
tp5202
g24
tp5203
Rp5204
(I1
(I3
tp5205
g241
I00
S'l[\xc4\x16<\xe6\xe9?\xa6\xa0\x90\x84X\x9f\x13\xc0\xc2\xd74Q\x00\xaf\xff\xbf'
p5206
tp5207
bag21
(g22
(I0
tp5208
g24
tp5209
Rp5210
(I1
(I3
tp5211
g241
I00
S"\xaeJ\xbd\x1936\xec?\x04\x13\xd4'\x9f\x88\x10\xc0\x805qo\xb6\xe6\xff\xbf"
p5212
tp5213
bag21
(g22
(I0
tp5214
g24
tp5215
Rp5216
(I1
(I3
tp5217
g241
I00
S'\xf09\xb6\x1c*\x86\xee?\xc4\n/\x96\xcb\xe3\n\xc0\xa0\xc9\xd6F6\x0f\x00\xc0'
p5218
tp5219
bag21
(g22
(I0
tp5220
g24
tp5221
Rp5222
(I1
(I3
tp5223
g241
I00
S'3\xe9\xaf\x05T\x89\xe7?+~\xcb\xd3\x15\xc7\x04\xc0x6(d5\xed\x07@'
p5224
tp5225
bassg2720
(dp5226
(g390
g333
tp5227
g2816
s(g282
g282
tp5228
g2822
s(g282
g1096
tp5229
g2820
s(g390
g220
tp5230
g2818
s(g221
g390
tp5231
g2936
s(g390
g1093
tp5232
g2830
s(g1100
g282
tp5233
g2832
s(g220
g220
tp5234
g2834
s(g220
g333
tp5235
g2848
s(g1129
g390
tp5236
g2994
s(g1093
g221
tp5237
g2852
s(g1126
g220
tp5238
g2890
s(g282
g1129
tp5239
g2858
s(g390
g390
tp5240
g2860
s(g1129
g333
tp5241
g2958
s(g1129
g1126
tp5242
g2846
s(g220
g1100
tp5243
g2870
s(g1093
g1093
tp5244
g2872
s(g1126
g1096
tp5245
g2878
s(g1126
g282
tp5246
g2880
s(g1096
g221
tp5247
g2882
s(g333
g220
tp5248
g2884
s(g1100
g220
tp5249
g2886
s(g1096
g1100
tp5250
g2888
s(g1129
g221
tp5251
g2892
s(g220
g1096
tp5252
g2896
s(g1129
g1096
tp5253
g2898
s(g1096
g1129
tp5254
g2900
s(g282
g390
tp5255
g2902
s(g333
g1093
tp5256
g2904
s(g333
g221
tp5257
g2908
s(g1129
g1129
tp5258
g2910
s(g1096
g220
tp5259
g2912
s(g333
g1129
tp5260
g3042
s(g221
g1093
tp5261
g2916
s(g1100
g1126
tp5262
g2918
s(g221
g1100
tp5263
g2920
s(g333
g282
tp5264
g2922
s(g282
g1093
tp5265
g2924
s(g1096
g1126
tp5266
g2926
s(g282
g1100
tp5267
g2928
s(g1096
g1096
tp5268
g2930
s(g1126
g221
tp5269
g2934
s(g220
g221
tp5270
g2938
s(g1129
g1100
tp5271
g2940
s(g221
g333
tp5272
g2942
s(g390
g1096
tp5273
g3028
s(g1100
g1129
tp5274
g2946
s(g333
g1126
tp5275
g2948
s(g1100
g390
tp5276
g2950
s(g220
g1126
tp5277
g2954
s(g1126
g390
tp5278
g2862
s(g1129
g220
tp5279
g2960
s(g1100
g221
tp5280
g2962
s(g390
g1100
tp5281
g2964
s(g1093
g1100
tp5282
g2966
s(g1126
g1126
tp5283
g2970
s(g282
g220
tp5284
g3052
s(g1093
g1096
tp5285
g2974
s(g1126
g1093
tp5286
g2976
s(g1100
g1096
tp5287
g2868
s(g1126
g1100
tp5288
g2980
s(g1093
g1129
tp5289
g2982
s(g282
g221
tp5290
g2986
s(g1093
g220
tp5291
g2988
s(g220
g1093
tp5292
g2990
s(g1126
g333
tp5293
g2850
s(g1096
g390
tp5294
g2998
s(g390
g1126
tp5295
g3000
s(g1100
g1100
tp5296
g3002
s(g333
g390
tp5297
g3004
s(g1093
g333
tp5298
g3006
s(g221
g1096
tp5299
g2968
s(g221
g282
tp5300
g2956
s(g333
g1100
tp5301
g3012
s(g390
g221
tp5302
g3014
s(g1096
g1093
tp5303
g3016
s(g282
g1126
tp5304
g3018
s(g1100
g1093
tp5305
g3022
s(g220
g282
tp5306
g3024
s(g221
g1126
tp5307
g3026
s(g282
g333
tp5308
g2944
s(g1129
g282
tp5309
g3030
s(g390
g1129
tp5310
g3032
s(g1096
g282
tp5311
g3034
s(g221
g221
tp5312
g3036
s(g1100
g333
tp5313
g3038
s(g220
g1129
tp5314
g3040
s(g1093
g390
tp5315
g2914
s(g221
g1129
tp5316
g3044
s(g221
g220
tp5317
g3046
s(g1096
g333
tp5318
g3048
s(g333
g1096
tp5319
g3050
s(g390
g282
tp5320
g2972
s(g1126
g1129
tp5321
g3054
s(g1093
g282
tp5322
g3056
s(g220
g390
tp5323
g3058
s(g333
g333
tp5324
g3060
s(g1093
g1126
tp5325
g3062
s(g1129
g1093
tp5326
g3064
ssg2722
(dp5327
g1129
(lp5328
I0
aI0
aI0
aI0
aI0
aI0
aI00
aI01
aI00
aI01
aI00
asg1126
(lp5329
I0
aI0
aI0
aI0
aI0
aI0
aI00
aI01
aI00
aI01
aI00
asg221
(lp5330
I0
aI0
aI0
aI0
aI0
aI0
aI00
aI01
aI01
aI01
aI00
asg220
(lp5331
I0
aI0
aI0
ag1845
(g230
S'@\xad\x94\xa8\xab\x0e\x03@'
p5332
tp5333
Rp5334
ag1845
(g230
S'\xf8\x9d\x97\x15\xa9\xea\x15\xc0'
p5335
tp5336
Rp5337
ag1845
(g230
S'\x83WL\xe8\x00}\x18@'
p5338
tp5339
Rp5340
aI01
aI00
aI00
aI00
aI00
asg1088
(lp5341
I0
aI0
aI0
ag1845
(g230
S',c\x0c\x88o\x1f\xfb?'
p5342
tp5343
Rp5344
ag1845
(g230
S'\xd2\x89LTi\x18\x1b\xc0'
p5345
tp5346
Rp5347
ag1845
(g230
S'\x82Rq\x1a\x16\xa2\x13@'
p5348
tp5349
Rp5350
aI01
aI00
aI00
aI00
aI00
asg282
(lp5351
I0
aI0
aI0
ag1845
(g230
S' \xf6@\xc4\x90g\xc9\xbf'
p5352
tp5353
Rp5354
ag1845
(g230
S'\x90\x92&\xe5x\xd5\x1d\xc0'
p5355
tp5356
Rp5357
ag1845
(g230
S'S<=\x06S\x82\xea?'
p5358
tp5359
Rp5360
aI01
aI00
aI00
aI01
aI00
asg1100
(lp5361
I0
aI0
aI0
ag1845
(g230
S'\x8ak\xa8@w\x9d\xfa?'
p5362
tp5363
Rp5364
ag1845
(g230
S'\t\xb4K\x86<8 \xc0'
p5365
tp5366
Rp5367
ag1845
(g230
S'\x8d\x15\x04`\xf6\xb2\xee?'
p5368
tp5369
Rp5370
aI01
aI00
aI00
aI01
aI00
asg390
(lp5371
I0
aI0
aI0
ag1845
(g230
S'i\x0c\x9eZ$\xe1\x0b@'
p5372
tp5373
Rp5374
ag1845
(g230
S')\xe0\xa1\xe9Z\x7f\x17\xc0'
p5375
tp5376
Rp5377
ag1845
(g230
S'}2^\xc2\xb7\x08y?'
p5378
tp5379
Rp5380
aI01
aI00
aI00
aI00
aI00
asg1096
(lp5381
I0
aI0
aI0
ag1845
(g230
S'\xec\x15S\xda\x00\x82\xd1\xbf'
p5382
tp5383
Rp5384
ag1845
(g230
S'\x8a_\xb9ZI^\x1a\xc0'
p5385
tp5386
Rp5387
ag1845
(g230
S'w\x99\x7f9\x7f\xa8\x18@'
p5388
tp5389
Rp5390
aI01
aI00
aI00
aI01
aI00
asg1093
(lp5391
I0
aI0
aI0
ag1845
(g230
S'H1\xf6\x93\x8c\xb9\x05@'
p5392
tp5393
Rp5394
ag1845
(g230
S"f'f\xbav(\x18\xc0"
p5395
tp5396
Rp5397
ag1845
(g230
S'\x9ea\xf6!D \x12@'
p5398
tp5399
Rp5400
aI01
aI00
aI01
aI01
aI00
asg333
(lp5401
I0
aI0
aI0
ag1845
(g230
S'v\x89\xbe\x9el2\x07@'
p5402
tp5403
Rp5404
ag1845
(g230
S'sJv\x8f\xc3j\x1a\xc0'
p5405
tp5406
Rp5407
ag1845
(g230
S'|\xde\xfd\x1esf\xf8?'
p5408
tp5409
Rp5410
aI01
aI00
aI00
aI00
aI00
assg2807
(dp5411
sg2809
g123
sg2810
g2811
sg2813
(dp5412
(g390
g333
tp5413
(lp5414
I00
aI00
aI00
as(g390
g220
tp5415
(lp5416
I00
aI00
aI00
as(g282
g1096
tp5417
(lp5418
I00
aI00
aI00
as(g282
g282
tp5419
(lp5420
I00
aI00
aI00
as(g1088
g1096
tp5421
(lp5422
I00
aI00
aI00
as(g1088
g282
tp5423
(lp5424
I00
aI00
aI00
as(g333
g1088
tp5425
(lp5426
I00
aI00
aI00
as(g390
g1093
tp5427
(lp5428
I00
aI00
aI00
as(g1100
g282
tp5429
(lp5430
I00
aI00
aI00
as(g220
g220
tp5431
(lp5432
I00
aI00
aI00
as(g1088
g1126
tp5433
(lp5434
g2844
aI00
aI01
as(g1129
g1126
tp5435
(lp5436
I00
aI00
aI00
as(g220
g333
tp5437
(lp5438
I00
aI00
aI00
as(g1126
g333
tp5439
(lp5440
I00
aI00
aI00
as(g1093
g221
tp5441
(lp5442
I00
aI00
aI01
as(g1129
g1088
tp5443
(lp5444
I00
aI00
aI00
as(g1088
g333
tp5445
(lp5446
I00
aI01
aI00
as(g282
g1129
tp5447
(lp5448
g2844
aI00
aI00
as(g390
g390
tp5449
(lp5450
I00
aI00
aI00
as(g1126
g390
tp5451
(lp5452
I00
aI00
aI00
as(g1096
g1088
tp5453
(lp5454
I00
aI00
aI00
as(g1088
g221
tp5455
(lp5456
I00
aI00
aI00
as(g1100
g1096
tp5457
(lp5458
I00
aI00
aI00
as(g220
g1100
tp5459
(lp5460
I00
aI00
aI00
as(g1093
g1093
tp5461
(lp5462
I00
aI00
aI00
as(g1088
g1129
tp5463
(lp5464
g2844
aI00
aI00
as(g1126
g1088
tp5465
(lp5466
I00
aI00
aI00
as(g1126
g1096
tp5467
(lp5468
I00
aI00
aI00
as(g1126
g282
tp5469
(lp5470
I00
aI00
aI00
as(g1096
g221
tp5471
(lp5472
I00
aI00
aI01
as(g333
g220
tp5473
(lp5474
I00
aI01
aI00
as(g1100
g220
tp5475
(lp5476
I00
aI00
aI00
as(g1096
g1100
tp5477
(lp5478
I00
aI00
aI00
as(g1126
g220
tp5479
(lp5480
I00
aI00
aI00
as(g1129
g221
tp5481
(lp5482
I00
aI00
aI00
as(g1093
g1088
tp5483
(lp5484
I00
aI00
aI00
as(g220
g1096
tp5485
(lp5486
I00
aI00
aI00
as(g1129
g1096
tp5487
(lp5488
I00
aI00
aI00
as(g1096
g1129
tp5489
(lp5490
g2844
aI00
aI00
as(g282
g390
tp5491
(lp5492
I00
aI00
aI00
as(g333
g1093
tp5493
(lp5494
I00
aI00
aI00
as(g282
g1088
tp5495
(lp5496
I00
aI00
aI00
as(g333
g221
tp5497
(lp5498
I00
aI00
aI00
as(g1129
g1129
tp5499
(lp5500
I00
aI00
aI00
as(g1096
g220
tp5501
(lp5502
I00
aI00
aI00
as(g1093
g390
tp5503
(lp5504
I00
aI01
aI00
as(g221
g1093
tp5505
(lp5506
I00
aI00
aI00
as(g1100
g1126
tp5507
(lp5508
g2844
aI00
aI01
as(g221
g1100
tp5509
(lp5510
I00
aI00
aI00
as(g333
g282
tp5511
(lp5512
I00
aI00
aI00
as(g282
g1093
tp5513
(lp5514
I00
aI00
aI00
as(g1096
g1126
tp5515
(lp5516
g2844
aI00
aI01
as(g282
g1100
tp5517
(lp5518
I00
aI00
aI00
as(g1096
g1096
tp5519
(lp5520
I00
aI00
aI00
as(g1100
g1088
tp5521
(lp5522
I00
aI01
aI00
as(g1126
g221
tp5523
(lp5524
I00
aI00
aI00
as(g221
g390
tp5525
(lp5526
I00
aI00
aI00
as(g220
g221
tp5527
(lp5528
I00
aI00
aI00
as(g1129
g1100
tp5529
(lp5530
I00
aI00
aI00
as(g221
g333
tp5531
(lp5532
I00
aI00
aI00
as(g282
g333
tp5533
(lp5534
I00
aI00
aI00
as(g1100
g1129
tp5535
(lp5536
g2844
aI00
aI00
as(g333
g1126
tp5537
(lp5538
g2844
aI00
aI01
as(g1100
g390
tp5539
(lp5540
I00
aI00
aI00
as(g220
g1088
tp5541
(lp5542
I00
aI00
aI00
as(g220
g1126
tp5543
(lp5544
g2844
aI00
aI01
as(g221
g282
tp5545
(lp5546
I00
aI00
aI00
as(g1129
g333
tp5547
(lp5548
I00
aI00
aI00
as(g1129
g220
tp5549
(lp5550
I00
aI00
aI00
as(g1100
g221
tp5551
(lp5552
I00
aI00
aI01
as(g390
g1100
tp5553
(lp5554
I00
aI00
aI00
as(g1093
g1100
tp5555
(lp5556
I00
aI00
aI00
as(g221
g1096
tp5557
(lp5558
I00
aI00
aI00
as(g1126
g1126
tp5559
(lp5560
I00
aI00
aI00
as(g390
g282
tp5561
(lp5562
I00
aI00
aI00
as(g1093
g1096
tp5563
(lp5564
I00
aI00
aI00
as(g1126
g1093
tp5565
(lp5566
I00
aI00
aI00
as(g1088
g220
tp5567
(lp5568
I00
aI01
aI00
as(g1126
g1100
tp5569
(lp5570
I00
aI00
aI00
as(g1093
g1129
tp5571
(lp5572
g2844
aI00
aI00
as(g390
g1088
tp5573
(lp5574
I00
aI00
aI00
as(g282
g221
tp5575
(lp5576
I00
aI00
aI00
as(g1093
g220
tp5577
(lp5578
I00
aI01
aI00
as(g220
g1093
tp5579
(lp5580
I00
aI00
aI00
as(g1088
g1093
tp5581
(lp5582
I00
aI00
aI00
as(g1129
g390
tp5583
(lp5584
I00
aI00
aI00
as(g1088
g1100
tp5585
(lp5586
I00
aI00
aI00
as(g1096
g390
tp5587
(lp5588
I00
aI00
aI00
as(g390
g1126
tp5589
(lp5590
g2844
aI00
aI01
as(g1100
g1100
tp5591
(lp5592
I00
aI00
aI00
as(g333
g390
tp5593
(lp5594
I00
aI01
aI00
as(g1093
g333
tp5595
(lp5596
I00
aI01
aI00
as(g1088
g390
tp5597
(lp5598
I00
aI01
aI00
as(g1088
g1088
tp5599
(lp5600
I00
aI00
aI00
as(g333
g1100
tp5601
(lp5602
I00
aI00
aI00
as(g390
g221
tp5603
(lp5604
I00
aI00
aI00
as(g1096
g1093
tp5605
(lp5606
I00
aI00
aI00
as(g282
g1126
tp5607
(lp5608
g2844
aI00
aI01
as(g221
g1088
tp5609
(lp5610
I00
aI00
aI00
as(g1100
g1093
tp5611
(lp5612
I00
aI00
aI00
as(g220
g282
tp5613
(lp5614
I00
aI00
aI00
as(g221
g1126
tp5615
(lp5616
I00
aI00
aI00
as(g390
g1096
tp5617
(lp5618
I00
aI00
aI00
as(g1129
g282
tp5619
(lp5620
I00
aI00
aI00
as(g390
g1129
tp5621
(lp5622
g2844
aI00
aI00
as(g1096
g282
tp5623
(lp5624
I00
aI00
aI00
as(g221
g221
tp5625
(lp5626
I00
aI00
aI00
as(g1100
g333
tp5627
(lp5628
I00
aI00
aI00
as(g220
g1129
tp5629
(lp5630
g2844
aI00
aI00
as(g333
g1129
tp5631
(lp5632
g2844
aI00
aI00
as(g221
g1129
tp5633
(lp5634
I00
aI00
aI00
as(g221
g220
tp5635
(lp5636
I00
aI00
aI00
as(g1096
g333
tp5637
(lp5638
I00
aI00
aI00
as(g333
g1096
tp5639
(lp5640
I00
aI00
aI00
as(g282
g220
tp5641
(lp5642
I00
aI00
aI00
as(g1126
g1129
tp5643
(lp5644
I00
aI00
aI00
as(g1093
g282
tp5645
(lp5646
I00
aI00
aI00
as(g220
g390
tp5647
(lp5648
I00
aI00
aI00
as(g333
g333
tp5649
(lp5650
I00
aI00
aI00
as(g1093
g1126
tp5651
(lp5652
g2844
aI00
aI01
as(g1129
g1093
tp5653
(lp5654
I00
aI00
aI00
assg476
g3567
sg3065
(itrajectory_representation.predicates.pick_in_way
PickInWay
p5655
(dp5656
g218
(dp5657
g220
g4071
sg1088
g4090
sg282
g4109
sg1100
g4128
sg390
g4147
sg1096
g4172
sg1093
g3670
sg333
g4191
ssg453
(dp5658
g220
(lp5659
Vrectangular_packing_box2
p5660
aVrectangular_packing_box4
p5661
aVsquare_packing_box1
p5662
aVsquare_packing_box4
p5663
asg1088
(lp5664
Vrectangular_packing_box2
p5665
aVrectangular_packing_box1
p5666
asg282
(lp5667
sg1100
(lp5668
sg390
(lp5669
Vrectangular_packing_box2
p5670
aVsquare_packing_box1
p5671
aVsquare_packing_box4
p5672
asg1096
(lp5673
sg1093
(lp5674
sg333
(lp5675
Vrectangular_packing_box2
p5676
aVsquare_packing_box1
p5677
assg476
(lp5678
g1100
ag1096
ag282
ag1129
ag221
ag1126
ag1093
ag1129
ag221
ag1126
ag1129
ag221
ag1126
ag1129
ag221
ag1126
ag1129
ag221
ag1126
ag1129
ag221
ag1126
ag1129
ag221
ag1126
ag1129
ag221
ag1126
asg482
g3571
sg125
(dp5679
sg517
g3583
sg1078
Nsg1084
g3583
sg1081
(dp5680
sg1083
I8
sg1121
I01
sg1085
Nsg1086
(dp5681
(g390
g333
tp5682
I00
s(g390
g220
tp5683
I00
s(g282
g1096
tp5684
I00
s(g282
g282
tp5685
I00
s(g1088
g1096
tp5686
I00
s(g1088
g282
tp5687
I00
s(g333
g1088
tp5688
I00
s(g390
g1093
tp5689
I00
s(g1100
g282
tp5690
I00
s(g220
g220
tp5691
I00
s(g1088
g1126
tp5692
I00
s(g1129
g1126
tp5693
I00
s(g220
g333
tp5694
I00
s(g1126
g333
tp5695
I00
s(g1093
g221
tp5696
I00
s(g1129
g1088
tp5697
I00
s(g1088
g333
tp5698
I01
s(g282
g1129
tp5699
I00
s(g390
g390
tp5700
I00
s(g1126
g390
tp5701
I00
s(g1096
g1088
tp5702
I00
s(g1088
g221
tp5703
I00
s(g1100
g1096
tp5704
I00
s(g220
g1100
tp5705
I00
s(g1093
g1093
tp5706
I00
s(g1088
g1129
tp5707
I00
s(g1126
g1088
tp5708
I00
s(g1126
g1096
tp5709
I00
s(g1126
g282
tp5710
I00
s(g1096
g221
tp5711
I00
s(g333
g220
tp5712
I01
s(g1100
g220
tp5713
I00
s(g1096
g1100
tp5714
I00
s(g1126
g220
tp5715
I00
s(g1129
g221
tp5716
I00
s(g1093
g1088
tp5717
I00
s(g220
g1096
tp5718
I00
s(g1129
g1096
tp5719
I00
s(g1096
g1129
tp5720
I00
s(g282
g390
tp5721
I00
s(g333
g1093
tp5722
I00
s(g282
g1088
tp5723
I00
s(g333
g221
tp5724
I00
s(g1129
g1129
tp5725
I00
s(g1096
g220
tp5726
I00
s(g1093
g390
tp5727
I01
s(g221
g1093
tp5728
I00
s(g1100
g1126
tp5729
I00
s(g221
g1100
tp5730
I00
s(g333
g282
tp5731
I00
s(g282
g1093
tp5732
I00
s(g1096
g1126
tp5733
I00
s(g282
g1100
tp5734
I00
s(g1096
g1096
tp5735
I00
s(g1100
g1088
tp5736
I01
s(g1126
g221
tp5737
I00
s(g221
g390
tp5738
I00
s(g220
g221
tp5739
I00
s(g1129
g1100
tp5740
I00
s(g221
g333
tp5741
I00
s(g282
g333
tp5742
I00
s(g1100
g1129
tp5743
I00
s(g333
g1126
tp5744
I00
s(g1100
g390
tp5745
I00
s(g220
g1088
tp5746
I00
s(g220
g1126
tp5747
I00
s(g221
g282
tp5748
I00
s(g1129
g333
tp5749
I00
s(g1129
g220
tp5750
I00
s(g1100
g221
tp5751
I00
s(g390
g1100
tp5752
I00
s(g1093
g1100
tp5753
I00
s(g221
g1096
tp5754
I00
s(g1126
g1126
tp5755
I00
s(g390
g282
tp5756
I00
s(g1093
g1096
tp5757
I00
s(g1126
g1093
tp5758
I00
s(g1088
g220
tp5759
I01
s(g1126
g1100
tp5760
I00
s(g1093
g1129
tp5761
I00
s(g390
g1088
tp5762
I00
s(g282
g221
tp5763
I00
s(g1093
g220
tp5764
I01
s(g220
g1093
tp5765
I00
s(g1088
g1093
tp5766
I00
s(g1129
g390
tp5767
I00
s(g1088
g1100
tp5768
I00
s(g1096
g390
tp5769
I00
s(g390
g1126
tp5770
I00
s(g1100
g1100
tp5771
I00
s(g333
g390
tp5772
I01
s(g1093
g333
tp5773
I01
s(g1088
g390
tp5774
I01
s(g1088
g1088
tp5775
I00
s(g333
g1100
tp5776
I00
s(g390
g221
tp5777
I00
s(g1096
g1093
tp5778
I00
s(g282
g1126
tp5779
I00
s(g221
g1088
tp5780
I00
s(g1100
g1093
tp5781
I00
s(g220
g282
tp5782
I00
s(g221
g1126
tp5783
I00
s(g390
g1096
tp5784
I00
s(g1129
g282
tp5785
I00
s(g390
g1129
tp5786
I00
s(g1096
g282
tp5787
I00
s(g221
g221
tp5788
I00
s(g1100
g333
tp5789
I00
s(g220
g1129
tp5790
I00
s(g333
g1129
tp5791
I00
s(g221
g1129
tp5792
I00
s(g221
g220
tp5793
I00
s(g1096
g333
tp5794
I00
s(g333
g1096
tp5795
I00
s(g282
g220
tp5796
I00
s(g1126
g1129
tp5797
I00
s(g1093
g282
tp5798
I00
s(g220
g390
tp5799
I00
s(g333
g333
tp5800
I00
s(g1093
g1126
tp5801
I00
s(g1129
g1093
tp5802
I00
ssg1120
Nsbsg3206
g21
(g22
(I0
tp5803
g24
tp5804
Rp5805
(I1
(I1
I3
tp5806
g230
I00
S'\xf2\xdeEo\xd3\x06\xf0?\x14\xfd\xc0\xfaSg\x1b\xc0\xce\xab\x94\x10C\x1d\xdb?'
p5807
tp5808
bsg3213
(itrajectory_representation.predicates.is_holding_goal_entity
IsHoldingGoalEntity
p5809
(dp5810
g2810
g2811
sg1085
Nsbsg3216
(dp5811
sg3218
g3571
sbasS'seed'
p5812
NsS'state_prime'
p5813
(lp5814
g3219
asS'problem_idx'
p5815
I284
sb.