(itrajectory_representation.trajectory
Trajectory
p0
(dp1
S'rewards'
p2
(lp3
I10
asS'actions'
p4
(lp5
(itrajectory_representation.operator
Operator
p6
(dp7
S'is_skeleton'
p8
I00
sS'discrete_parameters'
p9
(dp10
S'object'
p11
Vsquare_packing_box1
p12
sS'two_arm_place_region'
p13
S'home_region'
p14
sS'two_arm_place_object'
p15
Vsquare_packing_box1
p16
ssS'type'
p17
S'two_arm_pick_two_arm_place'
p18
sS'continuous_parameters'
p19
(dp20
S'q_goal'
p21
cnumpy.core.multiarray
_reconstruct
p22
(cnumpy
ndarray
p23
(I0
tp24
S'b'
p25
tp26
Rp27
(I1
(I3
tp28
cnumpy
dtype
p29
(S'f8'
p30
I0
I1
tp31
Rp32
(I3
S'<'
p33
NNNI-1
I-1
I0
tp34
bI00
S'f\x8c\xaa\x05\xb9W\xfb?l$y\xa7\xc0\xb7\x15\xc0\xfdck\xa4^\x1a\x08@'
p35
tp36
bsS'place'
p37
(dp38
g21
g22
(g23
(I0
tp39
g25
tp40
Rp41
(I1
(I3
tp42
g32
I00
S'\x00\xc0\xd8\x89g\xfa\xbc?k\x05\xfb2\xc3\xeb\x01\xc0\xed\xfc\x82j\t5\r@'
p43
tp44
bssS'pick'
p45
(dp46
g21
g27
sssS'low_level_motion'
p47
(lp48
g22
(g23
(I0
tp49
g25
tp50
Rp51
(I1
(I3
tp52
g32
I00
S'\xad\x06iZy\xa0\x04@@4U\xe2=\xe8\x1f\xc0\x8a\x863\xcf\xff,\xfc?'
p53
tp54
bag22
(g23
(I0
tp55
g25
tp56
Rp57
(I1
(I3
tp58
g29
(S'f8'
p59
I0
I1
tp60
Rp61
(I3
S'<'
p62
NNNI-1
I-1
I0
tp63
bI00
S'\xadN\xcb\xe7{+\x07@\xd5\x0f;S\xc0\x0f\x1e\xc0\xb8\xd3V\x10\x16\xcb\xf9?'
p64
tp65
bag22
(g23
(I0
tp66
g25
tp67
Rp68
(I1
(I3
tp69
g61
I00
S'\xf6\x9c\xbc\xd8\xea\x86\x05@\xc8\t,\x83\x04\xa9\x1c\xc0HA\x84\xf4\xe0S\xf1?'
p70
tp71
bag22
(g23
(I0
tp72
g25
tp73
Rp74
(I1
(I3
tp75
g61
I00
S'\x80e\xcc\t\x9a\xde\x04@<\x13[@\x0e\xa9\x19\xc0\xca\xb9\x9c\x08\r\xad\xf4?'
p76
tp77
bag22
(g23
(I0
tp78
g25
tp79
Rp80
(I1
(I3
tp81
g61
I00
S'\xf8d\x877\x12\xfd\x04@h\xdbW\x9a\x83\x8e\x16\xc0\x87\xf16\xb9\x03k\x05@'
p82
tp83
bag22
(g23
(I0
tp84
g25
tp85
Rp86
(I1
(I3
tp87
g61
I00
S'\xe2>s\xda\xb3\xca\x03@\xe7\x8al\x18\x05\xe1\x15\xc0}\xfd7\xe9\xe3n\x0b@'
p88
tp89
bag27
ag27
asbasS'filename'
p90
S''
p91
sS'states'
p92
(lp93
(itrajectory_representation.shortest_path_pick_and_place_state
ShortestPathPaPState
p94
(dp95
S'place_used'
p96
(dp97
(g16
g14
tp98
(itrajectory_representation.operator
Operator
p99
(dp100
g8
I01
sg9
(dp101
S'region'
p102
g14
sg11
g16
ssg17
S'two_arm_place'
p103
sg19
(dp104
g21
g22
(g23
(I0
tp105
g25
tp106
Rp107
(I1
(I3
tp108
g32
I00
S'\x00\xc0\xd8\x89g\xfa\xbc?k\x05\xfb2\xc3\xeb\x01\xc0\xed\xfc\x82j\t5\r@'
p109
tp110
bssg47
(lp111
g22
(g23
(I0
tp112
g25
tp113
Rp114
(I1
(I3
tp115
g32
I00
S'T\x8c\xaa\x05\xb9W\xfb?r$y\xa7\xc0\xb7\x15\xc0\xfdck\xa4^\x1a\x08@'
p116
tp117
bag22
(g23
(I0
tp118
g25
tp119
Rp120
(I1
(I3
tp121
g61
I00
S'R\x12);\xaf\xa5\xf7?\xf3\xf9\xeb\x07c\xef\x15\xc0\xf0V^\xd6\x94\x96\x05\xc0'
p122
tp123
bag22
(g23
(I0
tp124
g25
tp125
Rp126
(I1
(I3
tp127
g61
I00
S'\xd0\xcb\x13\x8f\xaa\x9d\xed?\x90\x01<]3\x06\x16\xc0F\xf1\xe7x32\x02\xc0'
p128
tp129
bag22
(g23
(I0
tp130
g25
tp131
Rp132
(I1
(I3
tp133
g61
I00
S'l[\xc4\x16<\xe6\xe9?\xa6\xa0\x90\x84X\x9f\x13\xc0\xc2\xd74Q\x00\xaf\xff\xbf'
p134
tp135
bag22
(g23
(I0
tp136
g25
tp137
Rp138
(I1
(I3
tp139
g61
I00
S"\xaeJ\xbd\x1936\xec?\x04\x13\xd4'\x9f\x88\x10\xc0\x805qo\xb6\xe6\xff\xbf"
p140
tp141
bag22
(g23
(I0
tp142
g25
tp143
Rp144
(I1
(I3
tp145
g61
I00
S'\xf09\xb6\x1c*\x86\xee?\xc4\n/\x96\xcb\xe3\n\xc0\xa0\xc9\xd6F6\x0f\x00\xc0'
p146
tp147
bag22
(g23
(I0
tp148
g25
tp149
Rp150
(I1
(I3
tp151
g61
I00
S'3\xe9\xaf\x05T\x89\xe7?+~\xcb\xd3\x15\xc7\x04\xc0x6(d5\xed\x07@'
p152
tp153
bag107
ag107
asbssS'place_in_way'
p154
(itrajectory_representation.predicates.place_in_way
PlaceInWay
p155
(dp156
S'mc_path_to_entity'
p157
(dp158
(Vrectangular_packing_box3
p159
S'home_region'
p160
tp161
(lp162
g22
(g23
(I0
tp163
g25
tp164
Rp165
(I1
(I3
tp166
g29
(S'f8'
p167
I0
I1
tp168
Rp169
(I3
S'<'
p170
NNNI-1
I-1
I0
tp171
bI00
S'P\x85\x85W\x7f\xae\x0c@x\xc4\x16\xc5V\x8c\x1d\xc0\xb0\xc5\x1b{\xc7\xcc\x14@'
p172
tp173
bag22
(g23
(I0
tp174
g25
tp175
Rp176
(I1
(I3
tp177
g29
(S'f8'
p178
I0
I1
tp179
Rp180
(I3
S'<'
p181
NNNI-1
I-1
I0
tp182
bI00
S'\x9a\x9e\xdc\x13\r\n\n@\xf1\xbcp\x07u\xf1\x1a\xc0\xd2JG\xa3\xec%\xd4\xbf'
p183
tp184
bag22
(g23
(I0
tp185
g25
tp186
Rp187
(I1
(I3
tp188
g180
I00
S'\x00O\xfd4U\xed\x06@>#>\xa9c\x95\x18\xc0\xeb\xe4n\xb8\x98\xa5\xc9\xbf'
p189
tp190
bag22
(g23
(I0
tp191
g25
tp192
Rp193
(I1
(I3
tp194
g180
I00
S'\x00\xda\x1c<\xfd\xdc\x00@j"\x91\xe3 \x1a\x18\xc0i~!@)\xb0\xdc\xbf'
p195
tp196
bag22
(g23
(I0
tp197
g25
tp198
Rp199
(I1
(I3
tp200
g180
I00
S'v%D\x97w\xd1\xf7?Z\xadP\x90\x08<\x17\xc0-\xca\x8a\t\xe2p\xe7\xbf'
p201
tp202
bag22
(g23
(I0
tp203
g25
tp204
Rp205
(I1
(I3
tp206
g180
I00
S'tx\x8as\xa8b\xed?\x9ej\x15\xfa\xf0{\x15\xc0@\xed\x9a-\x9eD\xf2\xbf'
p207
tp208
bag22
(g23
(I0
tp209
g25
tp210
Rp211
(I1
(I3
tp212
g180
I00
S"\xb2&6mg)\xe8?\x99\xe0G'\x16\xe0\x13\xc0\xc8oL\xf5\x17p\xe6\xbf"
p213
tp214
bag22
(g23
(I0
tp215
g25
tp216
Rp217
(I1
(I3
tp218
g180
I00
S'`\xc8Aw-\x81\xeb?/\xc3\xe6O\x04\xca\x10\xc0\x8a\xb7K)\x91{\xe4\xbf'
p219
tp220
bag22
(g23
(I0
tp221
g25
tp222
Rp223
(I1
(I3
tp224
g180
I00
S'\xe1\xc6\xc7\xa7\x12X\xe7?\x98\x99\xb0\x9a\xfb\xdb\x0b\xc0R\t\x1b)\xeae\xe0\xbf'
p225
tp226
bag22
(g23
(I0
tp227
g25
tp228
Rp229
(I1
(I3
tp230
g180
I00
S'p\xf1\xbdc^\x84\xf1?"\x88LL\xf9D\x06\xc0~w\r\xe9m\x0f\x19@'
p231
tp232
bas(Vsquare_packing_box4
p233
g160
tp234
(lp235
g22
(g23
(I0
tp236
g25
tp237
Rp238
(I1
(I3
tp239
g169
I00
S'\xb1\xa5\x0fv\x892\x0c@\x06\xf5\x01\x1d\\\x98\x16\xc0\xdb\x9e\xa6\x8a\xf4\x8f\x0f@'
p240
tp241
bag22
(g23
(I0
tp242
g25
tp243
Rp244
(I1
(I3
tp245
g180
I00
S'\x7f\xf7\x8e\x1f\xfbq\x06@\x05\xa9\xa4M\x80 \x16\xc0\x85\x00\n\x0c\x80\xee\n\xc0'
p246
tp247
bag22
(g23
(I0
tp248
g25
tp249
Rp250
(I1
(I3
tp251
g180
I00
S'_\x1fd\x97D>\x00@W\xf2\x9b\xb2\x92\xd8\x15\xc0\x99\xbc\xd43\xf6\xfa\x08\xc0'
p252
tp253
bag22
(g23
(I0
tp254
g25
tp255
Rp256
(I1
(I3
tp257
g180
I00
S'R\x12);\xaf\xa5\xf7?\xf3\xf9\xeb\x07c\xef\x15\xc0\xf0V^\xd6\x94\x96\x05\xc0'
p258
tp259
bag22
(g23
(I0
tp260
g25
tp261
Rp262
(I1
(I3
tp263
g180
I00
S'\xd0\xcb\x13\x8f\xaa\x9d\xed?\x90\x01<]3\x06\x16\xc0F\xf1\xe7x32\x02\xc0'
p264
tp265
bag22
(g23
(I0
tp266
g25
tp267
Rp268
(I1
(I3
tp269
g180
I00
S'l[\xc4\x16<\xe6\xe9?\xa6\xa0\x90\x84X\x9f\x13\xc0\xc2\xd74Q\x00\xaf\xff\xbf'
p270
tp271
bag22
(g23
(I0
tp272
g25
tp273
Rp274
(I1
(I3
tp275
g180
I00
S"\xaeJ\xbd\x1936\xec?\x04\x13\xd4'\x9f\x88\x10\xc0\x805qo\xb6\xe6\xff\xbf"
p276
tp277
bag22
(g23
(I0
tp278
g25
tp279
Rp280
(I1
(I3
tp281
g180
I00
S'\xf09\xb6\x1c*\x86\xee?\xc4\n/\x96\xcb\xe3\n\xc0\xa0\xc9\xd6F6\x0f\x00\xc0'
p282
tp283
bag22
(g23
(I0
tp284
g25
tp285
Rp286
(I1
(I3
tp287
g180
I00
S'3\xe9\xaf\x05T\x89\xe7?+~\xcb\xd3\x15\xc7\x04\xc0x6(d5\xed\x07@'
p288
tp289
bas(Vrectangular_packing_box4
p290
g160
tp291
(lp292
g22
(g23
(I0
tp293
g25
tp294
Rp295
(I1
(I3
tp296
g169
I00
S'\x80qX\xef~x\xac?4,\xed\x86\xa1S\x1b\xc0\x1eyOF\xdbC\x11@'
p297
tp298
bag22
(g23
(I0
tp299
g25
tp300
Rp301
(I1
(I3
tp302
g180
I00
S'\xb0\xcfg\xd5._\xe8?\xd6\x8d\xba\x87\x91D\x1a\xc0\xea!\xf73\x0cB\xf7\xbf'
p303
tp304
bag22
(g23
(I0
tp305
g25
tp306
Rp307
(I1
(I3
tp308
g180
I00
S"\x1aq\xa1\x96-\xd2\xec?\xa2\x8f\xd2'\xa1I\x18\xc0\x06\xea(\x89^*\xf2\xbf"
p309
tp310
bag22
(g23
(I0
tp311
g25
tp312
Rp313
(I1
(I3
tp314
g180
I00
S'tx\x8as\xa8b\xed?\x9ej\x15\xfa\xf0{\x15\xc0@\xed\x9a-\x9eD\xf2\xbf'
p315
tp316
bag22
(g23
(I0
tp317
g25
tp318
Rp319
(I1
(I3
tp320
g180
I00
S'\xb0E\xbb;Cb\xeb?\x9e\xde\xa7\xdd\xbdd\x12\xc0\xc6\xee\xbd\x16\x8c\xaa\xf3\xbf'
p321
tp322
bag22
(g23
(I0
tp323
g25
tp324
Rp325
(I1
(I3
tp326
g180
I00
S'`\xc8Aw-\x81\xeb?/\xc3\xe6O\x04\xca\x10\xc0\x8a\xb7K)\x91{\xe4\xbf'
p327
tp328
bag22
(g23
(I0
tp329
g25
tp330
Rp331
(I1
(I3
tp332
g180
I00
S'\xe1\xc6\xc7\xa7\x12X\xe7?\x98\x99\xb0\x9a\xfb\xdb\x0b\xc0R\t\x1b)\xeae\xe0\xbf'
p333
tp334
bag22
(g23
(I0
tp335
g25
tp336
Rp337
(I1
(I3
tp338
g180
I00
S'p\xf1\xbdc^\x84\xf1?"\x88LL\xf9D\x06\xc0~w\r\xe9m\x0f\x19@'
p339
tp340
bas(Vsquare_packing_box1
p341
g160
tp342
(lp343
g22
(g23
(I0
tp344
g25
tp345
Rp346
(I1
(I3
tp347
g169
I00
S'h\x8c\xaa\x05\xb9W\xfb?j$y\xa7\xc0\xb7\x15\xc0\xfdck\xa4^\x1a\x08@'
p348
tp349
bag22
(g23
(I0
tp350
g25
tp351
Rp352
(I1
(I3
tp353
g180
I00
S'R\x12);\xaf\xa5\xf7?\xf3\xf9\xeb\x07c\xef\x15\xc0\xf0V^\xd6\x94\x96\x05\xc0'
p354
tp355
bag22
(g23
(I0
tp356
g25
tp357
Rp358
(I1
(I3
tp359
g180
I00
S'K\x19\xdd\x9a\xe6\xce\xe9?\xe1\x08\xb9\xe6+\xc9\x15\xc0\xeeN\x0e\xdd1/\x08\xc0'
p360
tp361
bag22
(g23
(I0
tp362
g25
tp363
Rp364
(I1
(I3
tp365
g180
I00
S'\x16nfXE \xf2?\x06\xf1|#c\xe6\x12\xc08\x98\x8f,\xc1@\x04\xc0'
p366
tp367
bag22
(g23
(I0
tp368
g25
tp369
Rp370
(I1
(I3
tp371
g180
I00
S'\xc1E\xbb\x1b\xed\x13\xf3?\xca\xdcw\xec\x1a\x18\x10\xc0j\xed\xec2j\x8c\x04\xc0'
p372
tp373
bag22
(g23
(I0
tp374
g25
tp375
Rp376
(I1
(I3
tp377
g180
I00
S'\xf09\xb6\x1c*\x86\xee?\xc4\n/\x96\xcb\xe3\n\xc0\xa0\xc9\xd6F6\x0f\x00\xc0'
p378
tp379
bag22
(g23
(I0
tp380
g25
tp381
Rp382
(I1
(I3
tp383
g180
I00
S'3\xe9\xaf\x05T\x89\xe7?+~\xcb\xd3\x15\xc7\x04\xc0x6(d5\xed\x07@'
p384
tp385
bas(Vrectangular_packing_box1
p386
g160
tp387
(lp388
g22
(g23
(I0
tp389
g25
tp390
Rp391
(I1
(I3
tp392
g169
I00
S'\x84.D\xf9$V\x05@()\xc6\x8e\x01\t\x16\xc0\x89\xdd\x89S\xf8\xe1\x16@'
p393
tp394
bag22
(g23
(I0
tp395
g25
tp396
Rp397
(I1
(I3
tp398
g180
I00
S'_\x1fd\x97D>\x00@W\xf2\x9b\xb2\x92\xd8\x15\xc0\x99\xbc\xd43\xf6\xfa\x08\xc0'
p399
tp400
bag22
(g23
(I0
tp401
g25
tp402
Rp403
(I1
(I3
tp404
g180
I00
S'R\x12);\xaf\xa5\xf7?\xf3\xf9\xeb\x07c\xef\x15\xc0\xf0V^\xd6\x94\x96\x05\xc0'
p405
tp406
bag22
(g23
(I0
tp407
g25
tp408
Rp409
(I1
(I3
tp410
g180
I00
S'\xd0\xcb\x13\x8f\xaa\x9d\xed?\x90\x01<]3\x06\x16\xc0F\xf1\xe7x32\x02\xc0'
p411
tp412
bag22
(g23
(I0
tp413
g25
tp414
Rp415
(I1
(I3
tp416
g180
I00
S'l[\xc4\x16<\xe6\xe9?\xa6\xa0\x90\x84X\x9f\x13\xc0\xc2\xd74Q\x00\xaf\xff\xbf'
p417
tp418
bag22
(g23
(I0
tp419
g25
tp420
Rp421
(I1
(I3
tp422
g180
I00
S"\xaeJ\xbd\x1936\xec?\x04\x13\xd4'\x9f\x88\x10\xc0\x805qo\xb6\xe6\xff\xbf"
p423
tp424
bag22
(g23
(I0
tp425
g25
tp426
Rp427
(I1
(I3
tp428
g180
I00
S'\xf09\xb6\x1c*\x86\xee?\xc4\n/\x96\xcb\xe3\n\xc0\xa0\xc9\xd6F6\x0f\x00\xc0'
p429
tp430
bag22
(g23
(I0
tp431
g25
tp432
Rp433
(I1
(I3
tp434
g180
I00
S'3\xe9\xaf\x05T\x89\xe7?+~\xcb\xd3\x15\xc7\x04\xc0x6(d5\xed\x07@'
p435
tp436
bas(Vsquare_packing_box3
p437
g160
tp438
(lp439
g22
(g23
(I0
tp440
g25
tp441
Rp442
(I1
(I3
tp443
g169
I00
S' \xb7\x14\x05\x0b\x16\xbb\xbfn\xee\x85\x18\xad)\x1e\xc0\xbf\xffm+\x92\xf5\xfb?'
p444
tp445
bag22
(g23
(I0
tp446
g25
tp447
Rp448
(I1
(I3
tp449
g180
I00
S'\xc4n\xb3\xbcO\x07\xe0?\xd0\x17\x1bE\xa1\xce\x1d\xc0\x95\xcf\xf4\xdc\x03J\xf9?'
p450
tp451
bag22
(g23
(I0
tp452
g25
tp453
Rp454
(I1
(I3
tp455
g180
I00
S'\x00{\xeeM\xfb\x06\xd8?\xa7W\x1e\xc1\xa5F\x1b\xc0\xd0\xcaV\x8a\x88D\xf6?'
p456
tp457
bag22
(g23
(I0
tp458
g25
tp459
Rp460
(I1
(I3
tp461
g180
I00
S'B\x9aa8\x98\xa6\xe8?\xf3\xe9\x94/\xc2\xe4\x18\xc0u\xf8\xb0\x7fO\xb8\xf2?'
p462
tp463
bag22
(g23
(I0
tp464
g25
tp465
Rp466
(I1
(I3
tp467
g180
I00
S'\xd8\x87\x03p)T\xe4?\xd5\xabI\xb7V\xd0\x15\xc0vWg\x9a\x87\x8a\xec?'
p468
tp469
bag22
(g23
(I0
tp470
g25
tp471
Rp472
(I1
(I3
tp473
g180
I00
S'\xa9\xd9\x1d\x8d\xa6j\xdf?\xa0\x85\x1a\x84\xc6\xec\x12\xc0\x01\xb6 H\xb1\x91\xeb?'
p474
tp475
bag22
(g23
(I0
tp476
g25
tp477
Rp478
(I1
(I3
tp479
g180
I00
S'\x93k\xbc\xee\xc2\x10\xe8?\xab^\x86?\x08D\x10\xc0\x10;2\x00\xe5\t\xde?'
p480
tp481
bag22
(g23
(I0
tp482
g25
tp483
Rp484
(I1
(I3
tp485
g180
I00
S'\xef\xc3u*\xfb\xdb\xeb?\x8d\xa5\n\xfd\x03<\n\xc0\xd8\xfb\xde\x16R\xac\xde?'
p486
tp487
bag22
(g23
(I0
tp488
g25
tp489
Rp490
(I1
(I3
tp491
g180
I00
S'\xf4\xfdJ\x1a(#\xec?H"\x9cD\x1aE\x05\xc0.\xa9\x0b\x87\xf8\xe1\x02@'
p492
tp493
bas(Vrectangular_packing_box2
p494
g160
tp495
(lp496
g22
(g23
(I0
tp497
g25
tp498
Rp499
(I1
(I3
tp500
g169
I00
S'\x02D\xc7\xa2\x7f\xac\x05@\xa4\xf7Z\xd3=M\x18\xc0\x86\xea\x07\xf7\xdc\x9c\n@'
p501
tp502
bag22
(g23
(I0
tp503
g25
tp504
Rp505
(I1
(I3
tp506
g180
I00
S'\xe2>s\xda\xb3\xca\x03@\xe7\x8al\x18\x05\xe1\x15\xc0}\xfd7\xe9\xe3n\x0b@'
p507
tp508
bag22
(g23
(I0
tp509
g25
tp510
Rp511
(I1
(I3
tp512
g180
I00
S'\xc7\xc7\x06s\xd6\xa3\xff?3\x91\xe4\x97\xb5\x07\x16\xc0\x1bW\xbc\xbfY:\x06@'
p513
tp514
bag22
(g23
(I0
tp515
g25
tp516
Rp517
(I1
(I3
tp518
g180
I00
S'\x84\xa2s4\xa1\xd0\xf6?E=|\xb9\xcam\x17\xc0\xa93^V\xfc\xed\x05@'
p519
tp520
bag22
(g23
(I0
tp521
g25
tp522
Rp523
(I1
(I3
tp524
g180
I00
S'f\xb4\x9c\x07\xac\xbf\xec?n\x96\x96\x9e\x90n\x16\xc0uo!\xa9\x9b\x82\x07@'
p525
tp526
bag22
(g23
(I0
tp527
g25
tp528
Rp529
(I1
(I3
tp530
g180
I00
S'm\xd5h\x072\x03\xea?\xdf\xe5\xe82\xd3\x17\x14\xc0\x08\x9e\xe1\xfbO\x94\x08@'
p531
tp532
bag22
(g23
(I0
tp533
g25
tp534
Rp535
(I1
(I3
tp536
g180
I00
S'\x97\xff-a\x91r\xf0?\x1a\x15\xfe\xb9:\x1b\x12\xc0\nG\xfe\xfa~y\x05@'
p537
tp538
bag22
(g23
(I0
tp539
g25
tp540
Rp541
(I1
(I3
tp542
g180
I00
S'y\xd4\xbc{`\x0b\xf2?\xb0C6m\xb7\xd6\x0e\xc0\xe8\xe2r\xbe\x16{\xf5?'
p543
tp544
bag22
(g23
(I0
tp545
g25
tp546
Rp547
(I1
(I3
tp548
g180
I00
S'\xd1\xaa\x15!\x8c\x06\xed?\x8c\xab\xab^w\xe3\t\xc0~&\xcc\xa2\xcbw\xf6?'
p549
tp550
bag22
(g23
(I0
tp551
g25
tp552
Rp553
(I1
(I3
tp554
g180
I00
S'3\xe9\xaf\x05T\x89\xe7?+~\xcb\xd3\x15\xc7\x04\xc0x6(d5\xed\x07@'
p555
tp556
bassS'mc_to_entity'
p557
(dp558
(g159
g160
tp559
(lp560
Vsquare_packing_box4
p561
aVrectangular_packing_box1
p562
aVrectangular_packing_box2
p563
aVsquare_packing_box1
p564
as(g233
g160
tp565
(lp566
Vrectangular_packing_box1
p567
aVrectangular_packing_box2
p568
aVsquare_packing_box1
p569
as(g290
g160
tp570
(lp571
Vsquare_packing_box3
p572
aVsquare_packing_box2
p573
aVrectangular_packing_box2
p574
aVsquare_packing_box1
p575
as(g341
g160
tp576
(lp577
s(g386
g160
tp578
(lp579
Vsquare_packing_box1
p580
as(g437
g160
tp581
(lp582
Vrectangular_packing_box4
p583
aVsquare_packing_box2
p584
aVsquare_packing_box1
p585
as(g494
g160
tp586
(lp587
Vsquare_packing_box1
p588
assS'reachable_entities'
p589
(lp590
Vrectangular_packing_box2
p591
aVrectangular_packing_box3
p592
aVrectangular_packing_box1
p593
aVsquare_packing_box2
p594
ag12
aVsquare_packing_box4
p595
asS'collides'
p596
(dp597
Vrectangular_packing_box4
p598
c__builtin__
set
p599
((lp600
I384
aI257
aI265
aI394
aI532
aI580
aI158
aI159
aI164
aI433
aI564
aI575
aI452
aI583
aI328
aI458
aI589
aI83
aI478
aI356
aI229
aI366
aI502
aI122
atp601
Rp602
sVrectangular_packing_box2
p603
g599
((lp604
I3
aI4
aI395
aI404
aI538
aI413
aI160
aI161
aI162
aI36
aI37
aI38
aI301
aI561
aI178
aI611
aI309
aI54
aI55
aI570
aI187
aI188
aI63
aI449
aI69
aI70
aI327
aI201
aI202
aI203
aI205
aI595
aI89
aI219
aI92
aI93
aI310
aI106
aI497
aI115
aI372
aI379
aI380
atp605
Rp606
sVrectangular_packing_box3
p607
g599
((lp608
I387
aI617
aI269
aI111
aI339
aI245
aI213
atp609
Rp610
sVrectangular_packing_box1
p611
g599
((lp612
I0
aI1
aI2
aI144
aI403
aI539
aI541
aI545
aI546
aI550
aI39
aI40
aI425
aI555
aI302
aI571
aI62
aI453
aI454
aI342
aI474
aI348
aI605
aI612
aI367
aI368
aI369
aI370
aI371
aI247
aI248
aI377
aI378
atp613
Rp614
sVsquare_packing_box2
p615
g599
((lp616
I384
aI5
aI134
aI136
aI137
aI394
aI523
aI157
aI133
aI35
aI165
aI166
aI296
aI176
aI308
aI163
aI197
aI328
aI458
aI338
aI83
aI597
aI355
aI82
aI251
atp617
Rp618
sVsquare_packing_box3
p619
g599
((lp620
I229
aI164
aI165
aI518
aI521
aI394
aI553
aI580
aI338
aI249
aI152
aI153
aI154
aI155
aI157
aI575
aI197
atp621
Rp622
sVsquare_packing_box1
p623
g599
((lp624
I8
aI9
aI301
aI32
aI33
aI554
aI43
aI44
aI45
aI56
aI186
aI189
aI416
aI71
aI203
aI341
aI472
aI94
aI95
aI484
aI233
aI106
aI235
aI108
aI234
atp625
Rp626
sVsquare_packing_box4
p627
g599
((lp628
I307
aI144
aI403
aI405
aI548
aI550
aI425
aI302
aI303
aI435
aI438
aI442
aI62
aI453
aI457
aI220
aI342
aI343
aI473
aI474
aI348
aI605
aI612
aI367
aI368
aI500
aI247
aI248
aI377
aI511
atp629
Rp630
ssg96
g97
sS'pick_used'
p631
(dp632
Vrectangular_packing_box4
p633
(itrajectory_representation.operator
Operator
p634
(dp635
g8
I01
sg9
(dp636
S'object'
p637
Vrectangular_packing_box4
p638
ssg17
S'two_arm_pick'
p639
sg19
(dp640
S'q_goal'
p641
(lp642
g22
(g23
(I0
tp643
g25
tp644
Rp645
(I1
(I3
tp646
g169
I00
S'apX\xef~x\xac?7,\xed\x86\xa1S\x1b\xc0\xe9\xcf\xd27\x80x\xff\xbf'
p647
tp648
bag22
(g23
(I0
tp649
g25
tp650
Rp651
(I1
(I3
tp652
g169
I00
S'V\xad\xdb\xd3\xb1!\xb2\xbf\x1d\xe5\xa9\xb9\x9b\xbd\x1b\xc0\xfe\xa2\x81\xf9R\xed\xf6\xbf'
p653
tp654
bag22
(g23
(I0
tp655
g25
tp656
Rp657
(I1
(I3
tp658
g169
I00
S'\xc47g\xcf\xce;\xeb?\xd1u\xf5\xb4o\x9d\x1d\xc0\\\xb4]U\xae\xe7\x05\xc0'
p659
tp660
bag22
(g23
(I0
tp661
g25
tp662
Rp663
(I1
(I3
tp664
g169
I00
S'\xfc5\xf1\x180V\xc4?KC\x13\x99\xc1^\x1b\xc0P\xdc\x7fO \xac\xf4\xbf'
p665
tp666
basS'is_feasible'
p667
I00
ssg47
(lp668
g22
(g23
(I0
tp669
g25
tp670
Rp671
(I1
(I3
tp672
g169
I00
S'\xac\x06iZy\xa0\x04@\\4U\xe2=\xe8\x1f\xc0\x8a\x863\xcf\xff,\xfc?'
p673
tp674
bag22
(g23
(I0
tp675
g25
tp676
Rp677
(I1
(I3
tp678
g180
I00
S'V<\xdb\x99-b\x02@s\xd3@:\x7fA\x1e\xc0\xbf\x94H\xa7$\xf0\xff?'
p679
tp680
bag22
(g23
(I0
tp681
g25
tp682
Rp683
(I1
(I3
tp684
g180
I00
S'S@\xf8l\x95\x08\xf8?\xef\x91If\xa4L\x1e\xc0\x8b\xc5pa\xf4C\x04\xc0'
p685
tp686
bag657
asbsg591
(itrajectory_representation.operator
Operator
p687
(dp688
g8
I01
sg9
(dp689
g637
Vrectangular_packing_box2
p690
ssg17
g639
sg19
(dp691
g641
(lp692
g22
(g23
(I0
tp693
g25
tp694
Rp695
(I1
(I3
tp696
g169
I00
S'\x04D\xc7\xa2\x7f\xac\x05@\xa6\xf7Z\xd3=M\x18\xc0\xaao\x80\xb1\x19\xa7\x07\xc0'
p697
tp698
bag22
(g23
(I0
tp699
g25
tp700
Rp701
(I1
(I3
tp702
g169
I00
S'\xa0\x1d\xfe^\xedS\x01@\xfb\x99 \x0b#@\x1b\xc0\xa9\xe4\xaf\xbe\x14\x06\x00@'
p703
tp704
bag22
(g23
(I0
tp705
g25
tp706
Rp707
(I1
(I3
tp708
g169
I00
S'\x00\x85\xef\xcd`\xa7\xfc?E\xf8\xa6\\\x01,\x16\xc0G\x95\x17\xdds\x9c\xee\xbf'
p709
tp710
basg667
I00
ssg47
(lp711
g22
(g23
(I0
tp712
g25
tp713
Rp714
(I1
(I3
tp715
g169
I00
S'\xac\x06iZy\xa0\x04@\\4U\xe2=\xe8\x1f\xc0\x8a\x863\xcf\xff,\xfc?'
p716
tp717
bag22
(g23
(I0
tp718
g25
tp719
Rp720
(I1
(I3
tp721
g180
I00
S'V<\xdb\x99-b\x02@s\xd3@:\x7fA\x1e\xc0\xbf\x94H\xa7$\xf0\xff?'
p722
tp723
bag22
(g23
(I0
tp724
g25
tp725
Rp726
(I1
(I3
tp727
g180
I00
S'b\x95[\xf7r*\x00@:\x8f7a\xbf]\x1c\xc0\x98.\xce\xc6\x89M\xf2?'
p728
tp729
bag701
asbsg592
(itrajectory_representation.operator
Operator
p730
(dp731
g8
I01
sg9
(dp732
g637
Vrectangular_packing_box3
p733
ssg17
g639
sg19
(dp734
g641
(lp735
g22
(g23
(I0
tp736
g25
tp737
Rp738
(I1
(I3
tp739
g169
I00
S'R\x85\x85W\x7f\xae\x0c@z\xc4\x16\xc5V\x8c\x1d\xc0\x9c\x9d\xa1d\xcfT\xf1\xbf'
p740
tp741
bag22
(g23
(I0
tp742
g25
tp743
Rp744
(I1
(I3
tp745
g169
I00
S'\xb8\x19\x0c7\r\x90\x0e@\x9a\x1b-\xfc\x8f\x8d\x1d\xc0\xbe.\xec\x94\x8c\x12\xf6\xbf'
p746
tp747
bag22
(g23
(I0
tp748
g25
tp749
Rp750
(I1
(I3
tp751
g169
I00
S'k\x84\xdeR~\xed\x0c@\x8a\xb5$\x9f\xbb\xa5\x1d\xc0\xfaZX\x9b\xb8X\xf1\xbf'
p752
tp753
basg667
I00
ssg47
(lp754
g22
(g23
(I0
tp755
g25
tp756
Rp757
(I1
(I3
tp758
g169
I00
S'\xac\x06iZy\xa0\x04@\\4U\xe2=\xe8\x1f\xc0\x8a\x863\xcf\xff,\xfc?'
p759
tp760
bag22
(g23
(I0
tp761
g25
tp762
Rp763
(I1
(I3
tp764
g180
I00
S'\xfc\x1d\xa6\x1b?\xa8\t@\xbf\xd1p\x15\xb8\xac\x1f\xc0\xd1\xf4\xfe\xa7\xfaI\xf4?'
p765
tp766
bag22
(g23
(I0
tp767
g25
tp768
Rp769
(I1
(I3
tp770
g180
I00
S'j\xbb@\x07\xd5\xf1\n@^t6\x93?\x1f\x1d\xc0\x013\xdbq\xb3\xf8\xec\xbf'
p771
tp772
bag738
asbsg593
(itrajectory_representation.operator
Operator
p773
(dp774
g8
I01
sg9
(dp775
g637
Vrectangular_packing_box1
p776
ssg17
g639
sg19
(dp777
g641
(lp778
g22
(g23
(I0
tp779
g25
tp780
Rp781
(I1
(I3
tp782
g169
I00
S'\x82.D\xf9$V\x05@&)\xc6\x8e\x01\t\x16\xc0v|\xd2\x05\x18\x00\xe2\xbf'
p783
tp784
bag22
(g23
(I0
tp785
g25
tp786
Rp787
(I1
(I3
tp788
g169
I00
S'\xfb\x0e\xea\x8c\xfa\x00\n@Po\x80\xb0Tw\x1a\xc0\xb4\xbe\xc9\xf8\xe4\x88\xf8?'
p789
tp790
bag22
(g23
(I0
tp791
g25
tp792
Rp793
(I1
(I3
tp794
g169
I00
S'\x1d\xf7r\x82\x95\xbb\x08@\t\xb4\xef\x178H\x1a\xc0\x8e\xd3\xfa\x85\x85\x17\xf2?'
p795
tp796
bag22
(g23
(I0
tp797
g25
tp798
Rp799
(I1
(I3
tp800
g169
I00
S'}\xc0M<!\x83\n@z\x8b\xfc\xd2\x83 \x1a\xc0A\x7f\x17\xd6\xbb5\xf8?'
p801
tp802
basg667
I00
ssg47
(lp803
g22
(g23
(I0
tp804
g25
tp805
Rp806
(I1
(I3
tp807
g169
I00
S'\xac\x06iZy\xa0\x04@\\4U\xe2=\xe8\x1f\xc0\x8a\x863\xcf\xff,\xfc?'
p808
tp809
bag22
(g23
(I0
tp810
g25
tp811
Rp812
(I1
(I3
tp813
g180
I00
S'>\xc0\x12$\xd1\xa3\x02@L\xfb\xe9\xe8\x00\xfd\x1c\xc0\x1dL8%\x1b\x13\x04@'
p814
tp815
bag22
(g23
(I0
tp816
g25
tp817
Rp818
(I1
(I3
tp819
g180
I00
S"'DJ\xaet\xe5\x02@&#\x93\x97\x82\xb8\x1b\xc0\xdbM\xcc\xf6#.\x08@"
p820
tp821
bag22
(g23
(I0
tp822
g25
tp823
Rp824
(I1
(I3
tp825
g180
I00
S'\x80e\xcc\t\x9a\xde\x04@<\x13[@\x0e\xa9\x19\xc0\xca\xb9\x9c\x08\r\xad\xf4?'
p826
tp827
bag22
(g23
(I0
tp828
g25
tp829
Rp830
(I1
(I3
tp831
g180
I00
S'\x16\x9e\xd06H\xd3\x04@\xe5\xe1\xfb\xc5\xb8\xd1\x16\xc0es\x86\x03\xdb\x8e\x17@'
p832
tp833
bag781
asbsg594
(itrajectory_representation.operator
Operator
p834
(dp835
g8
I01
sg9
(dp836
g637
Vsquare_packing_box2
p837
ssg17
g639
sg19
(dp838
g641
(lp839
g22
(g23
(I0
tp840
g25
tp841
Rp842
(I1
(I3
tp843
g169
I00
S"\x00\xb6*\x02\xc6Z\xe3?\xa9\t.\xe7t\x83\x18\xc0\xaa'Q|o\xb0\xfe\xbf"
p844
tp845
bag22
(g23
(I0
tp846
g25
tp847
Rp848
(I1
(I3
tp849
g169
I00
S'\xec\xd4\xf6mNK\xf7?\x1aD.\xe1\x10\x8a\x1c\xc0K\xd10\xff?8\x03@'
p850
tp851
bag22
(g23
(I0
tp852
g25
tp853
Rp854
(I1
(I3
tp855
g169
I00
S'\x183\x84ni\x9d\xf7?\xd5OX\xc6\xdeh\x1b\xc0)L\xdb\xd1NM\t\xc0'
p856
tp857
basg667
I00
ssg47
(lp858
g22
(g23
(I0
tp859
g25
tp860
Rp861
(I1
(I3
tp862
g169
I00
S'\xac\x06iZy\xa0\x04@\\4U\xe2=\xe8\x1f\xc0\x8a\x863\xcf\xff,\xfc?'
p863
tp864
bag22
(g23
(I0
tp865
g25
tp866
Rp867
(I1
(I3
tp868
g180
I00
S'>\xc0\x12$\xd1\xa3\x02@L\xfb\xe9\xe8\x00\xfd\x1c\xc0\x1dL8%\x1b\x13\x04@'
p869
tp870
bag22
(g23
(I0
tp871
g25
tp872
Rp873
(I1
(I3
tp874
g180
I00
S'zT\r\xfe&\xfe\xfd?~,i\xf5\xe3\x9c\x1d\xc0\xe2\x1a4?SB\x15@'
p875
tp876
bag848
asbsVsquare_packing_box3
p877
(itrajectory_representation.operator
Operator
p878
(dp879
g8
I01
sg9
(dp880
g637
Vsquare_packing_box3
p881
ssg17
g639
sg19
(dp882
g641
(lp883
g22
(g23
(I0
tp884
g25
tp885
Rp886
(I1
(I3
tp887
g169
I00
S'(\xb8\x14\x05\x0b\x16\xbb\xbfp\xee\x85\x18\xad)\x1e\xc0\xbf\xffm+\x92\xf5\xfb?'
p888
tp889
bag22
(g23
(I0
tp890
g25
tp891
Rp892
(I1
(I3
tp893
g169
I00
S'\xc2S\xa9\xf7\xcei\xc9?\xef=\xa6"\xb4\xbf\x1d\xc0F\x9e\n7\xd7\'\xff?'
p894
tp895
bag22
(g23
(I0
tp896
g25
tp897
Rp898
(I1
(I3
tp899
g169
I00
S'`\xfdo;\x05$\xd4?\x11P\x08d\xb5\x9b\x1d\xc0\xaeS&\xdeM\x80\xfc?'
p900
tp901
basg667
I00
ssg47
(lp902
g22
(g23
(I0
tp903
g25
tp904
Rp905
(I1
(I3
tp906
g169
I00
S'\xac\x06iZy\xa0\x04@\\4U\xe2=\xe8\x1f\xc0\x8a\x863\xcf\xff,\xfc?'
p907
tp908
bag22
(g23
(I0
tp909
g25
tp910
Rp911
(I1
(I3
tp912
g180
I00
S'&\x0c\x9f\xd5\xa9\xbf\xfc?n\x13\xcb\xbd\xbf\x0b \xc0L\xd8\xef\x1bN\xb4\x00@'
p913
tp914
bag22
(g23
(I0
tp915
g25
tp916
Rp917
(I1
(I3
tp918
g180
I00
S'\xack\x86\xecj\xbe\xf2?\x96O\xb7\x87\x84\x85\x1f\xc0\xfa\x84\x19\xd1\xe3\x0c\x04@'
p919
tp920
bag22
(g23
(I0
tp921
g25
tp922
Rp923
(I1
(I3
tp924
g180
I00
S"\xc6S\x92\x8e7i\xef?H}'\xb2\xea\x03\x1f\xc0\x1e\xe8\x98\xe5\t\x12\xf4?"
p925
tp926
bag898
asbsg12
(itrajectory_representation.operator
Operator
p927
(dp928
g8
I01
sg9
(dp929
g11
g12
ssg17
S'two_arm_pick'
p930
sg19
(dp931
g21
g22
(g23
(I0
tp932
g25
tp933
Rp934
(I1
(I3
tp935
g32
I00
S'f\x8c\xaa\x05\xb9W\xfb?l$y\xa7\xc0\xb7\x15\xc0\xfdck\xa4^\x1a\x08@'
p936
tp937
bssg47
(lp938
g22
(g23
(I0
tp939
g25
tp940
Rp941
(I1
(I3
tp942
g169
I00
S'\xac\x06iZy\xa0\x04@\\4U\xe2=\xe8\x1f\xc0\x8a\x863\xcf\xff,\xfc?'
p943
tp944
bag22
(g23
(I0
tp945
g25
tp946
Rp947
(I1
(I3
tp948
g180
I00
S'>\xc0\x12$\xd1\xa3\x02@L\xfb\xe9\xe8\x00\xfd\x1c\xc0\x1dL8%\x1b\x13\x04@'
p949
tp950
bag22
(g23
(I0
tp951
g25
tp952
Rp953
(I1
(I3
tp954
g180
I00
S"'DJ\xaet\xe5\x02@&#\x93\x97\x82\xb8\x1b\xc0\xdbM\xcc\xf6#.\x08@"
p955
tp956
bag22
(g23
(I0
tp957
g25
tp958
Rp959
(I1
(I3
tp960
g180
I00
S'\x80e\xcc\t\x9a\xde\x04@<\x13[@\x0e\xa9\x19\xc0\xca\xb9\x9c\x08\r\xad\xf4?'
p961
tp962
bag22
(g23
(I0
tp963
g25
tp964
Rp965
(I1
(I3
tp966
g180
I00
S'\xf8d\x877\x12\xfd\x04@h\xdbW\x9a\x83\x8e\x16\xc0\x87\xf16\xb9\x03k\x05@'
p967
tp968
bag22
(g23
(I0
tp969
g25
tp970
Rp971
(I1
(I3
tp972
g180
I00
S'\xe2>s\xda\xb3\xca\x03@\xe7\x8al\x18\x05\xe1\x15\xc0}\xfd7\xe9\xe3n\x0b@'
p973
tp974
bag934
asbsg595
(itrajectory_representation.operator
Operator
p975
(dp976
g8
I01
sg9
(dp977
g637
Vsquare_packing_box4
p978
ssg17
g639
sg19
(dp979
g641
(lp980
g22
(g23
(I0
tp981
g25
tp982
Rp983
(I1
(I3
tp984
g169
I00
S'\xb5\xa5\x0fv\x892\x0c@\x04\xf5\x01\x1d\\\x98\x16\xc0T\xbb\xe1\x1d\x02\xb4\x02\xc0'
p985
tp986
bag22
(g23
(I0
tp987
g25
tp988
Rp989
(I1
(I3
tp990
g169
I00
S'\xb2\xa8\xae@\x19Y\t@\x96E]\xcaM\xf9\x16\xc0\x84\xa6\xb9c\xd8\xb2\xf5\xbf'
p991
tp992
bag22
(g23
(I0
tp993
g25
tp994
Rp995
(I1
(I3
tp996
g169
I00
S'\x81\xab\xe1!?\xf1\x06@?\xf8\x07\xab\xd8\xcd\x1b\xc0\x96\xfc2\xcfss\xdb?'
p997
tp998
bag22
(g23
(I0
tp999
g25
tp1000
Rp1001
(I1
(I3
tp1002
g169
I00
S'\xff\xff.\x0bq\x8f\x04@\xa4\x1a\x17\xb2H\xca\x18\xc0\x1a2\x98}\xba%\xe0\xbf'
p1003
tp1004
bag22
(g23
(I0
tp1005
g25
tp1006
Rp1007
(I1
(I3
tp1008
g169
I00
S'@\xd9\x039\xc6Y\t@[L\x13\xc3#=\x1c\xc0\xa6\xc1\xb4;\x13\x91\xed?'
p1009
tp1010
basg667
I00
ssg47
(lp1011
g22
(g23
(I0
tp1012
g25
tp1013
Rp1014
(I1
(I3
tp1015
g169
I00
S'\xac\x06iZy\xa0\x04@\\4U\xe2=\xe8\x1f\xc0\x8a\x863\xcf\xff,\xfc?'
p1016
tp1017
bag22
(g23
(I0
tp1018
g25
tp1019
Rp1020
(I1
(I3
tp1021
g180
I00
S'T\x93\x9d\x1f\xdb\x8b\x00@h\xc33f\x19N\x1f\xc0\n\x0b9\x98\xdd\xa0\xf7?'
p1022
tp1023
bag22
(g23
(I0
tp1024
g25
tp1025
Rp1026
(I1
(I3
tp1027
g180
I00
S'0\xf2\xd6\x9e\xed\xca\x04@\xdc>\xfd\x07B\x8f\x1d\xc0\xe2\xaf5\x16\xb4\x0c\xda?'
p1028
tp1029
bag995
asbssS'mc_paths'
p1030
(dp1031
sS'robot'
p1032
NsS'reachable_obj_region_pairs'
p1033
(lp1034
(g341
g160
tp1035
asS'sampled_pick_configs_for_objects'
p1036
(dp1037
sS'mc_calls'
p1038
I0
sS'pick_poses'
p1039
g632
sS'problem_env'
p1040
NsS'evaluations'
p1041
(dp1042
(g386
g494
g160
tp1043
I00
s(g494
g437
g160
tp1044
I00
s(g290
Vsquare_packing_box2
p1045
g160
tp1046
I01
s(g437
g341
g160
tp1047
I01
s(g233
g1045
g160
tp1048
I00
s(g341
g159
g160
tp1049
I00
s(g437
g494
g160
tp1050
I00
s(g290
g233
g160
tp1051
I00
s(g386
g341
g160
tp1052
I01
s(g386
g290
g160
tp1053
I00
s(g159
g290
g160
tp1054
I00
s(g290
g437
g160
tp1055
I01
s(g233
g437
g160
tp1056
I00
s(g341
g494
g160
tp1057
I00
s(g437
g233
g160
tp1058
I00
s(g494
g386
g160
tp1059
I00
s(g159
g341
g160
tp1060
I01
s(g233
g386
g160
tp1061
I01
s(g290
g386
g160
tp1062
I00
s(g494
g341
g160
tp1063
I01
s(g494
g233
g160
tp1064
I00
s(g341
g386
g160
tp1065
I00
s(g159
g386
g160
tp1066
I01
s(g437
g386
g160
tp1067
I00
s(g233
g494
g160
tp1068
I01
s(g290
g494
g160
tp1069
I01
s(g386
g233
g160
tp1070
I00
s(g437
g159
g160
tp1071
I00
s(g233
g290
g160
tp1072
I00
s(g159
g233
g160
tp1073
I01
s(g437
g1045
g160
tp1074
I01
s(g341
g1045
g160
tp1075
I00
s(g159
g437
g160
tp1076
I00
s(g233
g159
g160
tp1077
I00
s(g341
g437
g160
tp1078
I00
s(g437
g290
g160
tp1079
I01
s(g290
g159
g160
tp1080
I00
s(g386
g437
g160
tp1081
I00
s(g386
g159
g160
tp1082
I00
s(g159
g494
g160
tp1083
I01
s(g494
g1045
g160
tp1084
I00
s(g290
g341
g160
tp1085
I01
s(g341
g233
g160
tp1086
I00
s(g233
g341
g160
tp1087
I01
s(g341
g290
g160
tp1088
I00
s(g494
g290
g160
tp1089
I00
s(g159
g1045
g160
tp1090
I00
s(g494
g159
g160
tp1091
I00
s(g386
g1045
g160
tp1092
I00
ssS'paths_to_reachable_entities'
p1093
NsS'use_shortest_path'
p1094
I01
sbsS'ternary_edges'
p1095
(dp1096
(g494
g494
g160
tp1097
(lp1098
I00
as(g341
S'loading_region'
p1099
g1099
tp1100
(lp1101
I00
as(S'entire_region'
p1102
g386
g160
tp1103
(lp1104
I00
as(g1045
g233
g1099
tp1105
(lp1106
I00
as(g160
g160
g160
tp1107
(lp1108
I00
as(g233
g494
g1099
tp1109
(lp1110
I00
as(g341
g159
g160
tp1111
(lp1112
I00
as(g160
g290
g160
tp1113
(lp1114
I00
as(g1045
g341
g160
tp1115
(lp1116
I00
as(g159
g290
g1099
tp1117
(lp1118
I00
as(g160
g233
g1099
tp1119
(lp1120
I00
as(g1045
g1102
g160
tp1121
(lp1122
I00
as(g1099
g160
g1099
tp1123
(lp1124
I00
as(g290
g437
g160
tp1125
(lp1126
I01
as(g233
g1102
g160
tp1127
(lp1128
I00
as(g1045
g386
g1099
tp1129
(lp1130
I00
as(g437
g1099
g160
tp1131
(lp1132
I00
as(g1102
g494
g1099
tp1133
(lp1134
I00
as(g160
g1102
g160
tp1135
(lp1136
I00
as(g494
g1099
g160
tp1137
(lp1138
I00
as(g437
g1102
g160
tp1139
(lp1140
I00
as(g341
g341
g1099
tp1141
(lp1142
I00
as(g1099
g233
g1099
tp1143
(lp1144
I00
as(g1102
g1099
g160
tp1145
(lp1146
I00
as(g1102
g1045
g160
tp1147
(lp1148
I00
as(g1099
g1099
g160
tp1149
(lp1150
I00
as(g437
g290
g1099
tp1151
(lp1152
I00
as(g160
g160
g1099
tp1153
(lp1154
I00
as(g386
g1045
g1099
tp1155
(lp1156
I00
as(g494
g233
g160
tp1157
(lp1158
I00
as(g437
g341
g160
tp1159
(lp1160
I01
as(g386
g160
g1099
tp1161
(lp1162
I00
as(g160
g494
g1099
tp1163
(lp1164
I00
as(g386
g159
g1099
tp1165
(lp1166
I00
as(g159
g386
g160
tp1167
(lp1168
I01
as(g1099
g341
g1099
tp1169
(lp1170
I00
as(g233
g1045
g1099
tp1171
(lp1172
I00
as(g494
g494
g1099
tp1173
(lp1174
I00
as(g1102
g233
g160
tp1175
(lp1176
I00
as(g1099
g160
g160
tp1177
(lp1178
I00
as(g290
g494
g160
tp1179
(lp1180
I01
as(g160
g159
g160
tp1181
(lp1182
I00
as(g1045
g386
g160
tp1183
(lp1184
I00
as(g159
g233
g160
tp1185
(lp1186
I01
as(g341
g159
g1099
tp1187
(lp1188
I00
as(g437
g1045
g160
tp1189
(lp1190
I01
as(g1045
g341
g1099
tp1191
(lp1192
I00
as(g1045
g494
g1099
tp1193
(lp1194
I00
as(g1102
g1045
g1099
tp1195
(lp1196
I00
as(g1099
g159
g1099
tp1197
(lp1198
I00
as(g1102
g160
g160
tp1199
(lp1200
I00
as(g290
g160
g160
tp1201
(lp1202
I00
as(g1099
g1102
g160
tp1203
(lp1204
I00
as(g494
g233
g1099
tp1205
(lp1206
I00
as(g437
g494
g1099
tp1207
(lp1208
I00
as(g437
g437
g160
tp1209
(lp1210
I00
as(g386
g159
g160
tp1211
(lp1212
I00
as(g1102
g494
g160
tp1213
(lp1214
I00
as(g386
g1099
g1099
tp1215
(lp1216
I00
as(g233
g341
g160
tp1217
(lp1218
I01
as(g341
g341
g160
tp1219
(lp1220
I00
as(g341
g290
g160
tp1221
(lp1222
I00
as(g290
g494
g1099
tp1223
(lp1224
I00
as(g233
g386
g1099
tp1225
(lp1226
I00
as(g437
g290
g160
tp1227
(lp1228
I01
as(g386
g1045
g160
tp1229
(lp1230
I00
as(g494
g386
g1099
tp1231
(lp1232
I00
as(g386
g160
g160
tp1233
(lp1234
I00
as(g1045
g494
g160
tp1235
(lp1236
I00
as(g494
g437
g160
tp1237
(lp1238
I00
as(g159
g386
g1099
tp1239
(lp1240
I00
as(g160
g1045
g1099
tp1241
(lp1242
I00
as(g1102
g160
g1099
tp1243
(lp1244
I00
as(g1102
g233
g1099
tp1245
(lp1246
I00
as(g437
g494
g160
tp1247
(lp1248
I00
as(g159
g437
g1099
tp1249
(lp1250
I00
as(g494
g1102
g1099
tp1251
(lp1252
I00
as(g386
g1099
g160
tp1253
(lp1254
I00
as(g437
g1045
g1099
tp1255
(lp1256
I00
as(g437
g386
g1099
tp1257
(lp1258
I00
as(g233
g341
g1099
tp1259
(lp1260
I00
as(g160
g159
g1099
tp1261
(lp1262
I00
as(g1102
g437
g1099
tp1263
(lp1264
I00
as(g1099
g159
g160
tp1265
(lp1266
I00
as(g1099
g1045
g1099
tp1267
(lp1268
I00
as(g494
g386
g160
tp1269
(lp1270
I00
as(g233
g386
g160
tp1271
(lp1272
I01
as(g1099
g437
g160
tp1273
(lp1274
I00
as(g494
g437
g1099
tp1275
(lp1276
I00
as(g494
g290
g1099
tp1277
(lp1278
I00
as(g159
g233
g1099
tp1279
(lp1280
I00
as(g341
g290
g1099
tp1281
(lp1282
I00
as(g386
g437
g1099
tp1283
(lp1284
I00
as(g160
g341
g1099
tp1285
(lp1286
I00
as(g159
g1099
g1099
tp1287
(lp1288
I00
as(g290
g160
g1099
tp1289
(lp1290
I00
as(g341
g386
g160
tp1291
(lp1292
I00
as(g494
g1102
g160
tp1293
(lp1294
I00
as(g290
g1045
g1099
tp1295
(lp1296
I00
as(g159
g494
g1099
tp1297
(lp1298
I00
as(g437
g386
g160
tp1299
(lp1300
I00
as(g233
g1099
g1099
tp1301
(lp1302
I00
as(g1045
g160
g160
tp1303
(lp1304
I00
as(g233
g290
g160
tp1305
(lp1306
I00
as(g160
g437
g1099
tp1307
(lp1308
I00
as(g1099
g386
g1099
tp1309
(lp1310
I00
as(g1099
g437
g1099
tp1311
(lp1312
I00
as(g341
g437
g160
tp1313
(lp1314
I00
as(g386
g437
g160
tp1315
(lp1316
I00
as(g341
g386
g1099
tp1317
(lp1318
I00
as(g159
g494
g160
tp1319
(lp1320
I01
as(g494
g1045
g160
tp1321
(lp1322
I00
as(g159
g160
g1099
tp1323
(lp1324
I00
as(g233
g1099
g160
tp1325
(lp1326
I00
as(g1099
g290
g1099
tp1327
(lp1328
I00
as(g494
g290
g160
tp1329
(lp1330
I00
as(g159
g159
g160
tp1331
(lp1332
I00
as(g290
g290
g160
tp1333
(lp1334
I00
as(g290
g159
g1099
tp1335
(lp1336
I00
as(g159
g1099
g160
tp1337
(lp1338
I00
as(g437
g233
g160
tp1339
(lp1340
I00
as(g290
g1045
g160
tp1341
(lp1342
I01
as(g1045
g1099
g1099
tp1343
(lp1344
I00
as(g159
g1102
g1099
tp1345
(lp1346
I00
as(g1045
g160
g1099
tp1347
(lp1348
I00
as(g341
g1045
g1099
tp1349
(lp1350
I00
as(g233
g290
g1099
tp1351
(lp1352
I00
as(g437
g160
g1099
tp1353
(lp1354
I00
as(g159
g160
g160
tp1355
(lp1356
I00
as(g1099
g290
g160
tp1357
(lp1358
I00
as(g386
g386
g160
tp1359
(lp1360
I00
as(g1099
g233
g160
tp1361
(lp1362
I00
as(g233
g437
g160
tp1363
(lp1364
I00
as(g341
g494
g160
tp1365
(lp1366
I00
as(g341
g437
g1099
tp1367
(lp1368
I00
as(g290
g341
g1099
tp1369
(lp1370
I00
as(g160
g1045
g160
tp1371
(lp1372
I00
as(g1102
g159
g1099
tp1373
(lp1374
I00
as(g159
g341
g160
tp1375
(lp1376
I01
as(g386
g1102
g160
tp1377
(lp1378
I00
as(g437
g233
g1099
tp1379
(lp1380
I00
as(g437
g159
g1099
tp1381
(lp1382
I00
as(g290
g386
g160
tp1383
(lp1384
I00
as(g494
g1045
g1099
tp1385
(lp1386
I00
as(g290
g1099
g160
tp1387
(lp1388
I00
as(g159
g1102
g160
tp1389
(lp1390
I00
as(g233
g159
g1099
tp1391
(lp1392
I00
as(g494
g341
g160
tp1393
(lp1394
I01
as(g437
g341
g1099
tp1395
(lp1396
I00
as(g233
g233
g1099
tp1397
(lp1398
I00
as(g290
g290
g1099
tp1399
(lp1400
I00
as(g386
g386
g1099
tp1401
(lp1402
I00
as(g341
g233
g1099
tp1403
(lp1404
I00
as(g233
g1045
g160
tp1405
(lp1406
I00
as(g1102
g341
g160
tp1407
(lp1408
I00
as(g160
g1102
g1099
tp1409
(lp1410
I00
as(g160
g386
g1099
tp1411
(lp1412
I00
as(g1045
g1099
g160
tp1413
(lp1414
I00
as(g341
g494
g1099
tp1415
(lp1416
I00
as(g386
g341
g1099
tp1417
(lp1418
I00
as(g159
g159
g1099
tp1419
(lp1420
I00
as(g1102
g159
g160
tp1421
(lp1422
I00
as(g1045
g159
g1099
tp1423
(lp1424
I00
as(g386
g1102
g1099
tp1425
(lp1426
I00
as(g341
g1045
g160
tp1427
(lp1428
I00
as(g290
g386
g1099
tp1429
(lp1430
I00
as(g290
g159
g160
tp1431
(lp1432
I00
as(g233
g159
g160
tp1433
(lp1434
I00
as(g341
g160
g1099
tp1435
(lp1436
I00
as(g1045
g437
g160
tp1437
(lp1438
I00
as(g437
g437
g1099
tp1439
(lp1440
I00
as(g290
g1102
g160
tp1441
(lp1442
I00
as(g1099
g1102
g1099
tp1443
(lp1444
I00
as(g233
g437
g1099
tp1445
(lp1446
I00
as(g1099
g386
g160
tp1447
(lp1448
I00
as(g1102
g1102
g1099
tp1449
(lp1450
I00
as(g290
g341
g160
tp1451
(lp1452
I01
as(g341
g233
g160
tp1453
(lp1454
I00
as(g1099
g494
g1099
tp1455
(lp1456
I00
as(g159
g341
g1099
tp1457
(lp1458
I00
as(g437
g160
g160
tp1459
(lp1460
I00
as(g1102
g341
g1099
tp1461
(lp1462
I00
as(g437
g159
g160
tp1463
(lp1464
I00
as(g159
g1045
g160
tp1465
(lp1466
I00
as(g290
g1099
g1099
tp1467
(lp1468
I00
as(g494
g341
g1099
tp1469
(lp1470
I00
as(g386
g494
g160
tp1471
(lp1472
I00
as(g1102
g1099
g1099
tp1473
(lp1474
I00
as(g1099
g494
g160
tp1475
(lp1476
I00
as(g341
g1102
g160
tp1477
(lp1478
I00
as(g1045
g437
g1099
tp1479
(lp1480
I00
as(g1045
g290
g1099
tp1481
(lp1482
I00
as(g233
g160
g160
tp1483
(lp1484
I00
as(g290
g1102
g1099
tp1485
(lp1486
I00
as(g290
g233
g160
tp1487
(lp1488
I00
as(g1102
g290
g1099
tp1489
(lp1490
I00
as(g160
g386
g160
tp1491
(lp1492
I00
as(g160
g437
g160
tp1493
(lp1494
I00
as(g386
g341
g160
tp1495
(lp1496
I01
as(g386
g290
g160
tp1497
(lp1498
I00
as(g1102
g437
g160
tp1499
(lp1500
I00
as(g1045
g159
g160
tp1501
(lp1502
I00
as(g1045
g1045
g1099
tp1503
(lp1504
I00
as(g386
g233
g1099
tp1505
(lp1506
I00
as(g233
g160
g1099
tp1507
(lp1508
I00
as(g494
g160
g160
tp1509
(lp1510
I00
as(g341
g160
g160
tp1511
(lp1512
I00
as(g386
g494
g1099
tp1513
(lp1514
I00
as(g233
g494
g160
tp1515
(lp1516
I01
as(g160
g1099
g160
tp1517
(lp1518
I00
as(g1102
g1102
g160
tp1519
(lp1520
I00
as(g494
g159
g1099
tp1521
(lp1522
I00
as(g341
g1102
g1099
tp1523
(lp1524
I00
as(g1099
g1045
g160
tp1525
(lp1526
I00
as(g159
g290
g160
tp1527
(lp1528
I00
as(g1102
g290
g160
tp1529
(lp1530
I00
as(g341
g1099
g160
tp1531
(lp1532
I00
as(g159
g1045
g1099
tp1533
(lp1534
I00
as(g160
g341
g160
tp1535
(lp1536
I00
as(g1102
g386
g1099
tp1537
(lp1538
I00
as(g233
g1102
g1099
tp1539
(lp1540
I00
as(g1045
g1045
g160
tp1541
(lp1542
I00
as(g386
g233
g160
tp1543
(lp1544
I00
as(g437
g1102
g1099
tp1545
(lp1546
I00
as(g1045
g290
g160
tp1547
(lp1548
I00
as(g160
g233
g160
tp1549
(lp1550
I00
as(g159
g437
g160
tp1551
(lp1552
I00
as(g290
g233
g1099
tp1553
(lp1554
I00
as(g233
g233
g160
tp1555
(lp1556
I00
as(g386
g290
g1099
tp1557
(lp1558
I00
as(g1045
g233
g160
tp1559
(lp1560
I00
as(g437
g1099
g1099
tp1561
(lp1562
I00
as(g160
g494
g160
tp1563
(lp1564
I00
as(g494
g1099
g1099
tp1565
(lp1566
I00
as(g160
g290
g1099
tp1567
(lp1568
I00
as(g494
g160
g1099
tp1569
(lp1570
I00
as(g1099
g1099
g1099
tp1571
(lp1572
I00
as(g1045
g1102
g1099
tp1573
(lp1574
I00
as(g290
g437
g1099
tp1575
(lp1576
I00
as(g160
g1099
g1099
tp1577
(lp1578
I00
as(g494
g159
g160
tp1579
(lp1580
I00
as(g1099
g341
g160
tp1581
(lp1582
I00
assg631
g632
sS'use_prm'
p1583
I01
sS'object_names'
p1584
(lp1585
S'square_packing_box1'
p1586
aS'rectangular_packing_box1'
p1587
aS'square_packing_box2'
p1588
aS'rectangular_packing_box2'
p1589
aS'square_packing_box3'
p1590
aS'rectangular_packing_box3'
p1591
aS'square_packing_box4'
p1592
aS'rectangular_packing_box4'
p1593
asg1040
NsS'current_holding_collides'
p1594
NsS'object_poses'
p1595
(dp1596
Vrectangular_packing_box4
p1597
g22
(g23
(I0
tp1598
g25
tp1599
Rp1600
(I1
(I1
I3
tp1601
g169
I00
S'\xc8\xc2d\x07\xbd\x88\xb9?q)\xaa\xb97<\x1e\xc0\x8d\xce\xbc\x839b\xc0?'
p1602
tp1603
bsVrectangular_packing_box2
p1604
g22
(g23
(I0
tp1605
g25
tp1606
Rp1607
(I1
(I1
I3
tp1608
g169
I00
S"\xb8\x81\xf4\x8e\xbe\x12\xff?=\x03\xde'&\xc4\x18\xc0\xa4\xabJ2&|\x0c@"
p1609
tp1610
bsVrectangular_packing_box3
p1611
g22
(g23
(I0
tp1612
g25
tp1613
Rp1614
(I1
(I1
I3
tp1615
g169
I00
S"\xcb\xa8\x16G\xbaB\x0f@\xe5Y\t\xd6GF \xc0\x18\x85\xc8\x87'\xb7\xfd?"
p1616
tp1617
bsVrectangular_packing_box1
p1618
g22
(g23
(I0
tp1619
g25
tp1620
Rp1621
(I1
(I1
I3
tp1622
g169
I00
S'\xee\x0f\x93^p:\x0b@.\xbb\xb9\x1b\xac?\x17\xc0d\x9f\x84\x8b\xad\x9c\x17@'
p1623
tp1624
bsVsquare_packing_box2
p1625
g22
(g23
(I0
tp1626
g25
tp1627
Rp1628
(I1
(I1
I3
tp1629
g169
I00
S'k\xb5\xdb\xf1\xe8\xc4\xe4?\x8cVZ\xf1X\x91\x1b\xc0\x0b\xa2\xb7\xc5p\x16\xf7?'
p1630
tp1631
bsVsquare_packing_box3
p1632
g22
(g23
(I0
tp1633
g25
tp1634
Rp1635
(I1
(I1
I3
tp1636
g169
I00
S'\x80\xe2i\xcd\x1b\x80\xcc\xbfZ\x7f!\xb1"\x07\x1b\xc0\xde\xb0\xc45\x81\x1b\x00@'
p1637
tp1638
bsVsquare_packing_box1
p1639
g22
(g23
(I0
tp1640
g25
tp1641
Rp1642
(I1
(I1
I3
tp1643
g169
I00
S'@@u\x0c\xc0\xa7\xf1?8A\xda\x9a\xdf4\x15\xc0E%\xa6m\x8e&\xb8?'
p1644
tp1645
bsVsquare_packing_box4
p1646
g22
(g23
(I0
tp1647
g25
tp1648
Rp1649
(I1
(I1
I3
tp1650
g169
I00
S'2i\xe9\x19\xf6t\n@\xfb\x93\x1d\x90{\x8c\x19\xc0\x1288S\xf3D\x06@'
p1651
tp1652
bssS'reachable_regions_while_holding'
p1653
(lp1654
(g633
g1099
tp1655
a(g591
g1099
tp1656
a(g592
g1099
tp1657
a(g593
g1099
tp1658
a(g594
g1099
tp1659
a(g877
g1099
tp1660
a(g12
g1099
tp1661
a(g595
g1099
tp1662
a(g594
g160
tp1663
asS'in_region'
p1664
(itrajectory_representation.predicates.in_region
InRegion
p1665
(dp1666
g1040
NsbsS'cached_pick_paths'
p1667
(dp1668
g633
g668
sg591
g711
sg592
g754
sg593
g803
sg594
g858
sg877
g902
sg12
g938
sg595
g1011
ssg596
(dp1669
(Vrectangular_packing_box4
p1670
(cnumpy.core.multiarray
scalar
p1671
(g169
S'\xf6B\x01\xdb\xc1\x88\xb9?'
p1672
tp1673
Rp1674
g1671
(g169
S'\xfb;\xdb\xa37<\x1e\xc0'
p1675
tp1676
Rp1677
g1671
(g169
S'F\t\xfa\x0b=b\xc0?'
p1678
tp1679
Rp1680
tp1681
tp1682
g602
s(Vsquare_packing_box3
p1683
(g1671
(g169
S'UM\x10u\x1f\x80\xcc\xbf'
p1684
tp1685
Rp1686
g1671
(g169
S'_y\x90\x9e"\x07\x1b\xc0'
p1687
tp1688
Rp1689
g1671
(g169
S'AH\x160\x81\x1b\x00@'
p1690
tp1691
Rp1692
tp1693
tp1694
g622
s(Vrectangular_packing_box3
p1695
(g1671
(g169
S'\x95\x81\x03Z\xbaB\x0f@'
p1696
tp1697
Rp1698
g1671
(g169
S'\xdb\xa37\xdcGF \xc0'
p1699
tp1700
Rp1701
g1671
(g169
S"\x10@j\x13'\xb7\xfd?"
p1702
tp1703
Rp1704
tp1705
tp1706
g610
s(Vrectangular_packing_box1
p1707
(g1671
(g169
S'\xb5T\xde\x8ep:\x0b@'
p1708
tp1709
Rp1710
g1671
(g169
S'r\xdc)\x1d\xac?\x17\xc0'
p1711
tp1712
Rp1713
g1671
(g169
S'\xfb]\xd8\x9a\xad\x9c\x17@'
p1714
tp1715
Rp1716
tp1717
tp1718
g614
s(Vsquare_packing_box1
p1719
(g1671
(g169
S'\x0f\xb9\x19n\xc0\xa7\xf1?'
p1720
tp1721
Rp1722
g1671
(g169
S'Xr\x15\x8b\xdf4\x15\xc0'
p1723
tp1724
Rp1725
g1671
(g169
S'\xde!\xc5\x00\x89&\xb8?'
p1726
tp1727
Rp1728
tp1729
tp1730
g626
s(Vsquare_packing_box2
p1731
(g1671
(g169
S'A\x9b\x1c>\xe9\xc4\xe4?'
p1732
tp1733
Rp1734
g1671
(g169
S'\x9d\xd8C\xfbX\x91\x1b\xc0'
p1735
tp1736
Rp1737
g1671
(g169
S'[\t\xdd%q\x16\xf7?'
p1738
tp1739
Rp1740
tp1741
tp1742
g618
s(Vsquare_packing_box4
p1743
(g1671
(g169
S'M2r\x16\xf6t\n@'
p1744
tp1745
Rp1746
g1671
(g169
S'\\Z\r\x89{\x8c\x19\xc0'
p1747
tp1748
Rp1749
g1671
(g169
S'\xad\xa2?4\xf3D\x06@'
p1750
tp1751
Rp1752
tp1753
tp1754
g630
s(Vrectangular_packing_box2
p1755
(g1671
(g169
S'?\x8b\xa5H\xbe\x12\xff?'
p1756
tp1757
Rp1758
g1671
(g169
S'\xfe\xee\x1d5&\xc4\x18\xc0'
p1759
tp1760
Rp1761
g1671
(g169
S'@\xde\xabV&|\x0c@'
p1762
tp1763
Rp1764
tp1765
tp1766
g606
ssS'state_saver'
p1767
(igtamp_utils.utils
CustomStateSaver
p1768
(dp1769
S'robot_base_pose'
p1770
g22
(g23
(I0
tp1771
g25
tp1772
Rp1773
(I1
(I1
I3
tp1774
g169
I00
S'\xae\x06iZy\xa0\x04@U4U\xe2=\xe8\x1f\xc0\x89\x863\xcf\xff,\xfc?'
p1775
tp1776
bsS'held_object'
p1777
NsS'robot_name'
p1778
S'pr2'
p1779
sS'env_id'
p1780
I1
sg1595
(dp1781
Vright_wall_1
p1782
g22
(g23
(I0
tp1783
g25
tp1784
Rp1785
(I1
(I4
tp1786
g169
I00
S'H\xe1z\x14\xaeG\x12@&\\\x8f\xc2\xf5(\xd4\xbf\xcc\x7fH\xbf}\x1d\xed?\x00\x00\x00\x00\x00\x00\x00\x00'
p1787
tp1788
bsVc_obst5
p1789
g22
(g23
(I0
tp1790
g25
tp1791
Rp1792
(I1
(I4
tp1793
g169
I00
S"@\x1ao\xa9j\t\x12@\xfe\xa2\x93\xe3\x8a\x08\xba?e\xaa`TR'\xed?=h@~\xd6F\xfa?"
p1794
tp1795
bsVentrance_right
p1796
g22
(g23
(I0
tp1797
g25
tp1798
Rp1799
(I1
(I4
tp1800
g169
I00
S'ffffff\n@H\xe1z\x14\xaeG\t\xc0\x9c\xc4 \xb0rh\xc1?\x00\x00\x00\x00\x00\x00\x00\x00'
p1801
tp1802
bsVcomputer_table
p1803
g22
(g23
(I0
tp1804
g25
tp1805
Rp1806
(I1
(I4
tp1807
g169
I00
S'\x00\x00\x00\x00\x00\x00\x13@\x00\x00\x00\x00\x00\x00\xf8\xbf\x96C\x8bl\xe7\xfb\xe7?\xd2!3\x7f|\xd9\x12@'
p1808
tp1809
bsVchair_6b56
p1810
g22
(g23
(I0
tp1811
g25
tp1812
Rp1813
(I1
(I4
tp1814
g169
I00
S'u=\n\xd7\xa3p\xf5?K\xe1z\x14\xaeG\xd1?\x00\x00\x00\x00\x00\x00\x00\x00\xd6$\xfaNBm\n@'
p1815
tp1816
bsVsquare_packing_box3
p1817
g22
(g23
(I0
tp1818
g25
tp1819
Rp1820
(I1
(I4
tp1821
g169
I00
S'\x80\xe2i\xcd\x1b\x80\xcc\xbfZ\x7f!\xb1"\x07\x1b\xc0L7\x89A`\xe5\xd8?\xde\xb0\xc45\x81\x1b\x00@'
p1822
tp1823
bsVsquare_packing_box2
p1824
g22
(g23
(I0
tp1825
g25
tp1826
Rp1827
(I1
(I4
tp1828
g169
I00
S'o\xb5\xdb\xf1\xe8\xc4\xe4?\x8cVZ\xf1X\x91\x1b\xc0L7\x89A`\xe5\xd8?\x0b\xa2\xb7\xc5p\x16\xf7?'
p1829
tp1830
bsVtable
p1831
g22
(g23
(I0
tp1832
g25
tp1833
Rp1834
(I1
(I4
tp1835
g169
I00
S'\x7f\xf6#EdX\xed?\xac\xffs\x98//\xc0\xbf\x00\x00\x00\x00\x00\x00\x00\x00\x00\x00\x00\x00\x00\x00\x00\x00'
p1836
tp1837
bsVsquare_packing_box1
p1838
g22
(g23
(I0
tp1839
g25
tp1840
Rp1841
(I1
(I4
tp1842
g169
I00
S'@@u\x0c\xc0\xa7\xf1?8A\xda\x9a\xdf4\x15\xc0L7\x89A`\xe5\xd8?E%\xa6m\x8e&\xb8?'
p1843
tp1844
bsVback_wall_2
p1845
g22
(g23
(I0
tp1846
g25
tp1847
Rp1848
(I1
(I4
tp1849
g169
I00
S'\xaeG\xe1z\x14.\x13@\x80\x14\xaeG\xe1z\xc4?xX\xa85\xcd\xbb\xf2?\x00\x00\x00\x00\x00\x00\x00\x00'
p1850
tp1851
bsVchair_083c
p1852
g22
(g23
(I0
tp1853
g25
tp1854
Rp1855
(I1
(I4
tp1856
g169
I00
S'\xa4p=\n\xd7\xa3\xe0?333333\xe3\xbf\x00\x00\x00\x00\x00\x00\x00\x00\x00\x00\x00\x00\x00\x00\x00\x00'
p1857
tp1858
bsVback_wall_1
p1859
g22
(g23
(I0
tp1860
g25
tp1861
Rp1862
(I1
(I4
tp1863
g169
I00
S'\xaeG\xe1z\x14.\x13@\x80\x14\xaeG\xe1z\xc4?\xcc\x7fH\xbf}\x1d\xed?\x00\x00\x00\x00\x00\x00\x00\x00'
p1864
tp1865
bsVbottom_wall
p1866
g22
(g23
(I0
tp1867
g25
tp1868
Rp1869
(I1
(I4
tp1870
g169
I00
S'\x00\x00\x00\x00\x00\x00\xfc?\x00\x00\x00\x00\x00\x00\x00\x00\x00\x00\x00\x00\x00\x00\x00\x00\x00\x00\x00\x00\x00\x00\x00\x00'
p1871
tp1872
bsVcup_905a
p1873
g22
(g23
(I0
tp1874
g25
tp1875
Rp1876
(I1
(I4
tp1877
g169
I00
S'\x00\x00\x00\x00\x00\x00\xf0?\x83\xc0\xca\xa1E\xb6\xdb?\x1b/\xdd$\x06\x81\xed?\x00\x00\x00\x00\x00\x00\x00\x00'
p1878
tp1879
bsVplate_496f
p1880
g22
(g23
(I0
tp1881
g25
tp1882
Rp1883
(I1
(I4
tp1884
g169
I00
S"q=\n\xd7\xa3p\xe5?\x9dhW!\xe5'\xdd\xbf\x1b/\xdd$\x06\x81\xed?\x00\x00\x00\x00\x00\x00\x00\x00"
p1885
tp1886
bsVtoaster
p1887
g22
(g23
(I0
tp1888
g25
tp1889
Rp1890
(I1
(I4
tp1891
g169
I00
S')\\\x8f\xc2\xf5(\xf4\xbf\xe0z\x14\xaeG\xe1\xf2\xbf\xb8\x1e\x85\xebQ\xb8\xee?\x89/`\x9b\xf8\x8a\xe4?'
p1892
tp1893
bsVc_obst1
p1894
g22
(g23
(I0
tp1895
g25
tp1896
Rp1897
(I1
(I4
tp1898
g169
I00
S"\xb6;\x01\xaf\xa0\x14\x12@\xec\xadK\xfe\x9e\x9c\xc5?e\xaa`TR'\xed?\x96d^`)f\x13@"
p1899
tp1900
bsVrectangular_packing_box4
p1901
g22
(g23
(I0
tp1902
g25
tp1903
Rp1904
(I1
(I4
tp1905
g169
I00
S'\xbc\xc2d\x07\xbd\x88\xb9?q)\xaa\xb97<\x1e\xc0L7\x89A`\xe5\xd8?\x8d\xce\xbc\x839b\xc0?'
p1906
tp1907
bsVmicrowave
p1908
g22
(g23
(I0
tp1909
g25
tp1910
Rp1911
(I1
(I4
tp1912
g169
I00
S'\x9a\x99\x99\x99\x99\x99\xf1\xbf\x00\x00\x00\x00\x00\x00\x00@7\x89A`\xe5\xd0\xee?\x00\x00\x00\x00\x00\x00\x00\x00'
p1913
tp1914
bsVc_obst7
p1915
g22
(g23
(I0
tp1916
g25
tp1917
Rp1918
(I1
(I4
tp1919
g169
I00
S"\xb7\xd4\xc1\xbb\xef~\x12@\x9f}q\xe3*/\xdc?e\xaa`TR'\xed?Q]\x06\x99a\xe6\x17@"
p1920
tp1921
bsVc_obst6
p1922
g22
(g23
(I0
tp1923
g25
tp1924
Rp1925
(I1
(I4
tp1926
g169
I00
S"y\x13o\x9b\n\x9b\x12@\x00\xd0\x0f\xdbc\x16R\xbfe\xaa`TR'\xed?\xea\x03\x1e\xd3\x83V\x02@"
p1927
tp1928
bsVcup_b6af
p1929
g22
(g23
(I0
tp1930
g25
tp1931
Rp1932
(I1
(I4
tp1933
g169
I00
S'R\xb8\x1e\x85\xebQ\xe8?\x9a\x99\x99\x99\x99\x99\xe1?\x1b/\xdd$\x06\x81\xed?\x00\x00\x00\x00\x00\x00\x00\x00'
p1934
tp1935
bsVc_obst4
p1936
g22
(g23
(I0
tp1937
g25
tp1938
Rp1939
(I1
(I4
tp1940
g169
I00
S"N\xc2\xa3f\x88}\x12@l\x86\xbe\xff\nz\xc8\xbfe\xaa`TR'\xed?)&\x92T\x8cN\xec?"
p1941
tp1942
bsVrectangular_packing_box2
p1943
g22
(g23
(I0
tp1944
g25
tp1945
Rp1946
(I1
(I4
tp1947
g169
I00
S"\xc0\x81\xf4\x8e\xbe\x12\xff??\x03\xde'&\xc4\x18\xc0L7\x89A`\xe5\xd8?\xa4\xabJ2&|\x0c@"
p1948
tp1949
bsVplate_fa76
p1950
g22
(g23
(I0
tp1951
g25
tp1952
Rp1953
(I1
(I4
tp1954
g169
I00
S'=\n\xd7\xa3p=\xf2?\x00\x00\x00\x00\x00\x00\x00\x00\x1b/\xdd$\x06\x81\xed?\x00\x00\x00\x00\x00\x00\x00\x00'
p1955
tp1956
bsVfloorwalls
p1957
g22
(g23
(I0
tp1958
g25
tp1959
Rp1960
(I1
(I4
tp1961
g169
I00
S'\xc7\xcc\xcc\xcc\xcc\xcc\xfc?\x00\x00\x00\x00\x00\x00\x18\xc0H\xe1z\x14\xaeG\xc1?\x16-DT\xfb!\xf9?'
p1962
tp1963
bsVpin_c671
p1964
g22
(g23
(I0
tp1965
g25
tp1966
Rp1967
(I1
(I4
tp1968
g169
I00
S'\xc3\xf5(\\\x8f\xc2\xf1\xbf}?5^\xbaI\x02@\xb8\x1e\x85\xebQ\xb8\xfa?\x00\x00\x00\x00\x00\x00\x00\x00'
p1969
tp1970
bsVc_obst3
p1971
g22
(g23
(I0
tp1972
g25
tp1973
Rp1974
(I1
(I4
tp1975
g169
I00
S"z\r\x9f\xf3\x0c\xa8\x12@\x14A.Az\xff\xd5?e\xaa`TR'\xed?\x19&\x91\x9f\xf4\xf4\n@"
p1976
tp1977
bsVchair_2e39
p1978
g22
(g23
(I0
tp1979
g25
tp1980
Rp1981
(I1
(I4
tp1982
g169
I00
S'hfffff\xee?cfffff\xf2\xbf\x00\x00\x00\x00\x00\x00\x00\x00\x07M\xe8QQF\xf3?'
p1983
tp1984
bsVentrance_left
p1985
g22
(g23
(I0
tp1986
g25
tp1987
Rp1988
(I1
(I4
tp1989
g169
I00
S'\x98\x99\x99\x99\x99\x99\xe9\xbfH\xe1z\x14\xaeG\t\xc0\x9c\xc4 \xb0rh\xc1?\x00\x00\x00\x00\x00\x00\x00\x00'
p1990
tp1991
bsVtop_wall_1
p1992
g22
(g23
(I0
tp1993
g25
tp1994
Rp1995
(I1
(I4
tp1996
g169
I00
S'H\xe1z\x14\xaeG\x12@\x80\x14\xaeG\xe1z\xc4?xX\xa85\xcd\xbb\xf2?\x00\x00\x00\x00\x00\x00\x00\x00'
p1997
tp1998
bsVrectangular_packing_box3
p1999
g22
(g23
(I0
tp2000
g25
tp2001
Rp2002
(I1
(I4
tp2003
g169
I00
S"\xd1\xa8\x16G\xbaB\x0f@\xe9Y\t\xd6GF \xc0L7\x89A`\xe5\xd8?\x18\x85\xc8\x87'\xb7\xfd?"
p2004
tp2005
bsVshaker
p2006
g22
(g23
(I0
tp2007
g25
tp2008
Rp2009
(I1
(I4
tp2010
g169
I00
S'\n\xd7\xa3p=\n\x01@\x14\xaeG\xe1z\x14\x02@\\\x8f\xc2\xf5(\\\xef?\x00\x00\x00\x00\x00\x00\x00\x00'
p2011
tp2012
bsVc_obst9
p2013
g22
(g23
(I0
tp2014
g25
tp2015
Rp2016
(I1
(I4
tp2017
g169
I00
S"\x1a\x89\xe3\x94\xb0T\x12@(\xd52c{G\xbb?e\xaa`TR'\xed?#N\xd4\xbb\x99s\x17@"
p2018
tp2019
bsVplate_835a
p2020
g22
(g23
(I0
tp2021
g25
tp2022
Rp2023
(I1
(I4
tp2024
g169
I00
S'\xf6(\\\x8f\xc2\xf5\xf0?\\\x8f\xc2\xf5(\\\xe7\xbf\x1b/\xdd$\x06\x81\xed?\x00\x00\x00\x00\x00\x00\x00\x00'
p2025
tp2026
bsVcup_58a2
p2027
g22
(g23
(I0
tp2028
g25
tp2029
Rp2030
(I1
(I4
tp2031
g169
I00
S'\x85\xebQ\xb8\x1e\x85\xe3?\xcd\xcc\xcc\xcc\xcc\xcc\xdc?\x1b/\xdd$\x06\x81\xed?\x00\x00\x00\x00\x00\x00\x00\x00'
p2032
tp2033
bsVleft_wall_1
p2034
g22
(g23
(I0
tp2035
g25
tp2036
Rp2037
(I1
(I4
tp2038
g169
I00
S'H\xe1z\x14\xaeG\x12@S\xb8\x1e\x85\xebQ\xe4?\xcc\x7fH\xbf}\x1d\xed?\x00\x00\x00\x00\x00\x00\x00\x00'
p2039
tp2040
bsVc_obst2
p2041
g22
(g23
(I0
tp2042
g25
tp2043
Rp2044
(I1
(I4
tp2045
g169
I00
S"\xf6\xe4r\xc3t$\x12@\xc0\xc5\x08\xd9\x06\xef\x9b?e\xaa`TR'\xed?;W\xf6.\xff\xf9\xfc?"
p2046
tp2047
bsVsquare_packing_box4
p2048
g22
(g23
(I0
tp2049
g25
tp2050
Rp2051
(I1
(I4
tp2052
g169
I00
S'1i\xe9\x19\xf6t\n@\xfb\x93\x1d\x90{\x8c\x19\xc0L7\x89A`\xe5\xd8?\x1288S\xf3D\x06@'
p2053
tp2054
bsVrectangular_packing_box1
p2055
g22
(g23
(I0
tp2056
g25
tp2057
Rp2058
(I1
(I4
tp2059
g169
I00
S'\xee\x0f\x93^p:\x0b@.\xbb\xb9\x1b\xac?\x17\xc0L7\x89A`\xe5\xd8?d\x9f\x84\x8b\xad\x9c\x17@'
p2060
tp2061
bsVpin_371e
p2062
g22
(g23
(I0
tp2063
g25
tp2064
Rp2065
(I1
(I4
tp2066
g169
I00
S'333333\xf3\xbfffffff\xf6?\xb8\x1e\x85\xebQ\xb8\xee?\x00\x00\x00\x00\x00\x00\x00\x00'
p2067
tp2068
bsVfridge
p2069
g22
(g23
(I0
tp2070
g25
tp2071
Rp2072
(I1
(I4
tp2073
g169
I00
S'\xd7\xa3p=\n\xd7\xeb\xbf\x00\x00\x00\x00\x00\x00\x00\xc0\xcd\xcc\xcc\xcc\xcc\xcc\xf8?\x00\x00\x00\x00\x00\x00\x00\x00'
p2074
tp2075
bsVcup_d441
p2076
g22
(g23
(I0
tp2077
g25
tp2078
Rp2079
(I1
(I4
tp2080
g169
I00
S'\n\xd7\xa3p=\n\xef?\x8f\xc2\xf5(\\\x8f\xe2?\x1b/\xdd$\x06\x81\xed?\x00\x00\x00\x00\x00\x00\x00\x00'
p2081
tp2082
bsVshelf2
p2083
g22
(g23
(I0
tp2084
g25
tp2085
Rp2086
(I1
(I4
tp2087
g169
I00
S'\x00\x00\x00\x00\x00\x00\x0e@\xaeG\xe1z\x14\xae\x07@\x9c\xc4 \xb0rh\xc1?\xd2!3\x7f|\xd9\x12@'
p2088
tp2089
bsVtop_wall_2
p2090
g22
(g23
(I0
tp2091
g25
tp2092
Rp2093
(I1
(I4
tp2094
g169
I00
S'H\xe1z\x14\xaeG\x12@\x80\x14\xaeG\xe1z\xc4?\x16HP\xfc\x18\xf3\xfd?\x00\x00\x00\x00\x00\x00\x00\x00'
p2095
tp2096
bsVc_obst0
p2097
g22
(g23
(I0
tp2098
g25
tp2099
Rp2100
(I1
(I4
tp2101
g169
I00
S"\x10\n\xf4))0\x12@X\x87\xc6Q\xfb-\xc7\xbfe\xaa`TR'\xed?\xc9\xab\x1d\xb9L\xba\x05@"
p2102
tp2103
bsVshelf1
p2104
g22
(g23
(I0
tp2105
g25
tp2106
Rp2107
(I1
(I4
tp2108
g169
I00
S'\x00\x00\x00\x00\x00\x00\x13@\xaeG\xe1z\x14\xae\x07@\x9c\xc4 \xb0rh\xc1?\xd2!3\x7f|\xd9\x12@'
p2109
tp2110
bsVsink
p2111
g22
(g23
(I0
tp2112
g25
tp2113
Rp2114
(I1
(I4
tp2115
g169
I00
S'ffffff\xd6?333333\x01@\x9a\x99\x99\x99\x99\x99\xb9\xbf\x00\x00\x00\x00\x00\x00\x00\x00'
p2116
tp2117
bsVpr2
p2118
g22
(g23
(I0
tp2119
g25
tp2120
Rp2121
(I1
(I4
tp2122
g169
I00
S'\xae\x06iZy\xa0\x04@M4U\xe2=\xe8\x1f\xc0\x9a_\x94\xa0\xbf\xd0\xc1?\x89\x863\xcf\xff,\xfc?'
p2123
tp2124
bsVchair_12d0
p2125
g22
(g23
(I0
tp2126
g25
tp2127
Rp2128
(I1
(I4
tp2129
g169
I00
S'\\\xd2\x18\xad\xa3\xaa\xdb?Of\x83L2r\xc6?\x00\x00\x00\x00\x00\x00\x00\x00\xf8\x81\r\x14M\xa6\x17@'
p2130
tp2131
bsVright_wall_2
p2132
g22
(g23
(I0
tp2133
g25
tp2134
Rp2135
(I1
(I4
tp2136
g169
I00
S'H\xe1z\x14\xaeG\x12@&\\\x8f\xc2\xf5(\xd4\xbfxX\xa85\xcd\xbb\xf2?\x00\x00\x00\x00\x00\x00\x00\x00'
p2137
tp2138
bsVknife_block
p2139
g22
(g23
(I0
tp2140
g25
tp2141
Rp2142
(I1
(I4
tp2143
g169
I00
S'R\xb8\x1e\x85\xebQ\xe0\xbfffffff\x02@`\xe5\xd0"\xdb\xf9\xee?\x00\x00\x00\x00\x00\x00\x00\x00'
p2144
tp2145
bsVleft_wall_2
p2146
g22
(g23
(I0
tp2147
g25
tp2148
Rp2149
(I1
(I4
tp2150
g169
I00
S'H\xe1z\x14\xaeG\x12@S\xb8\x1e\x85\xebQ\xe4?xX\xa85\xcd\xbb\xf2?\x00\x00\x00\x00\x00\x00\x00\x00'
p2151
tp2152
bsVleft_wall
p2153
g22
(g23
(I0
tp2154
g25
tp2155
Rp2156
(I1
(I4
tp2157
g169
I00
S'\x9a\x99\x99\x99\x99\x99\x07@H\xe1z\x14\xaeG\xff?\x9c\xc4 \xb0rh\xc1?\x00\x00\x00\x00\x00\x00\x00\x00'
p2158
tp2159
bsVkitchen
p2160
g22
(g23
(I0
tp2161
g25
tp2162
Rp2163
(I1
(I4
tp2164
g169
I00
S'\x00\x00\x00\x00\x00\x00\x00\x00\x00\x00\x00\x00\x00\x00\x00\x00\x00\x00\x00\x00\x00\x00\x00\x00\x00\x00\x00\x00\x00\x00\x00\x00'
p2165
tp2166
bsVtable2
p2167
g22
(g23
(I0
tp2168
g25
tp2169
Rp2170
(I1
(I4
tp2171
g169
I00
S'\x00\x00\x00\x00\x00\x00\x13@\x80\x14\xaeG\xe1z\xc4?S\x96!\x8euq\xec?\xd2!3\x7f|\xd9\x12@'
p2172
tp2173
bsVc_obst8
p2174
g22
(g23
(I0
tp2175
g25
tp2176
Rp2177
(I1
(I4
tp2178
g169
I00
S"\xfa\xe3(#\xc6$\x12@ \xa1\xd6.~\xcc\xd2?e\xaa`TR'\xed?\x7f\xa6\x06~\xb5<\xf0?"
p2179
tp2180
bsVplate_b4e7
p2181
g22
(g23
(I0
tp2182
g25
tp2183
Rp2184
(I1
(I4
tp2185
g169
I00
S'\x14\xaeG\xe1z\x14\xf2\xbf\x14\xaeG\xe1z\x14\x00@=\n\xd7\xa3p=\xf2?\x00\x00\x00\x00\x00\x00\x00\x00'
p2186
tp2187
bsVcooker
p2188
g22
(g23
(I0
tp2189
g25
tp2190
Rp2191
(I1
(I4
tp2192
g169
I00
S'\xaeG\xe1z\x14\xae\xff?\x85\xebQ\xb8\x1e\x85\xfb?\x00\x00\x00\x00\x00\x00\xe8?\x00\x00\x00\x00\x00\x00\x00\x00'
p2193
tp2194
bsVpin_a091
p2195
g22
(g23
(I0
tp2196
g25
tp2197
Rp2198
(I1
(I4
tp2199
g169
I00
S'\xdb\xf9~j\xbct\xf7\xbf)\\\x8f\xc2\xf5(\x02@\xb8\x1e\x85\xebQ\xb8\xfa?\x00\x00\x00\x00\x00\x00\x00\x00'
p2200
tp2201
bsVside_wall_2
p2202
g22
(g23
(I0
tp2203
g25
tp2204
Rp2205
(I1
(I4
tp2206
g169
I00
S'\xfa\xff\xff\xff\xff\xff\x14@\x00\x00\x00\x00\x00\x00\x00\x00\x9c\xc4 \xb0rh\xc1?\x18-DT\xfb!\xf9?'
p2207
tp2208
bsVside_wall_3
p2209
g22
(g23
(I0
tp2210
g25
tp2211
Rp2212
(I1
(I4
tp2213
g169
I00
S'\x00\x00\x00\x00\x00\x00\xfc?H\xe1z\x14\xaeG\t@\x9c\xc4 \xb0rh\xc1?\x00\x00\x00\x00\x00\x00\x00\x00'
p2214
tp2215
bsVmixer
p2216
g22
(g23
(I0
tp2217
g25
tp2218
Rp2219
(I1
(I4
tp2220
g169
I00
S'\n\xd7\xa3p=\n\xfb?ffffff\x02@d;\xdfO\x8d\x97\xee?\x00\x00\x00\x00\x00\x00\x00\x00'
p2221
tp2222
bsVside_wall_1
p2223
g22
(g23
(I0
tp2224
g25
tp2225
Rp2226
(I1
(I4
tp2227
g169
I00
S'\xf4\xff\xff\xff\xff\xff\xfb\xbf\x00\x00\x00\x00\x00\x00\x00\x00\x9c\xc4 \xb0rh\xc1?\x18-DT\xfb!\xf9?'
p2228
tp2229
bsVbottom_wall_1
p2230
g22
(g23
(I0
tp2231
g25
tp2232
Rp2233
(I1
(I4
tp2234
g169
I00
S'H\xe1z\x14\xaeG\x12@\x80\x14\xaeG\xe1z\xc4?\xcc\x7fH\xbf}\x1d\xed?\x00\x00\x00\x00\x00\x00\x00\x00'
p2235
tp2236
bsVcan
p2237
g22
(g23
(I0
tp2238
g25
tp2239
Rp2240
(I1
(I4
tp2241
g169
I00
S'\x00\x00\x00\x00\x00\x00\xf4\xbfH\xe1z\x14\xaeG\xe1\xbf\n\xd7\xa3p=\n\xef?\x00\x00\x00\x00\x00\x00\x00\x00'
p2242
tp2243
bsVright_wall
p2244
g22
(g23
(I0
tp2245
g25
tp2246
Rp2247
(I1
(I4
tp2248
g169
I00
S'\x9a\x99\x99\x99\x99\x99\x07@H\xe1z\x14\xaeG\xff\xbf\x9c\xc4 \xb0rh\xc1?\x00\x00\x00\x00\x00\x00\x00\x00'
p2249
tp2250
bsVcoffe_machine
p2251
g22
(g23
(I0
tp2252
g25
tp2253
Rp2254
(I1
(I4
tp2255
g169
I00
S'\\\x8f\xc2\xf5(\\\xf5\xbf\xb8\x1e\x85\xebQ\xb8\xee?\n\xd7\xa3p=\n\xef?\x00\x00\x00\x00\x00\x00\x00\x00'
p2256
tp2257
bsVcomputer_chair
p2258
g22
(g23
(I0
tp2259
g25
tp2260
Rp2261
(I1
(I4
tp2262
g169
I00
S'\xcd\xcc\xcc\xcc\xcc\xcc\x10@\x00\x00\x00\x00\x00\x00\xf8\xbf\xa00\xb6\x10\xe4\xa9\x95\xbf\x00\x00\x00\x00\x00\x00\x00\x00'
p2263
tp2264
bssS'robot_dof_values'
p2265
g22
(g23
(I0
tp2266
g25
tp2267
Rp2268
(I1
(I39
tp2269
g169
I00
S'\x00\x00\x00\x00\x00\x00\x00\x00\x00\x00\x00\x00\x00\x00\x00\x00\x00\x00\x00\x00\x00\x00\x00\x00\x00\x00\x00\x00\x00\x00\x00\x00\x00\x00\x00\x00\x00\x00\x00\x00\x00\x00\x00\x00\x00\x00\x00\x00\x00\x00\x00\x00\x00\x00\x00\x00\x00\x00\x00\x00\x00\x00\x00\x00\x00\x00\x00\x00\x00\x00\x00\x00\x00\x00\x00\x00\x00\x00\x00\x00\x00\x00\x00\x00\x00\x00\x00\x00\x00\x00\x00\x00\x00\x00\x00\x00@d;\xdfO\x8d\x87?\x00\x00\x00\x00\x00\x00\x00\x00\x00\x00\x00\x00\x00\x00\x00\x00\x00\x00\x00\x00\x00\x00\x00\x00\xec\xed\t\xf1\xcc\xa4\xf4?\x00\x00\x00\x00\x00\x00\x00\x00M"\xd0^p\xf8\x00\xc0\x00\x00\x00\x00\x00\x00\x00\x00\x9b\x03\r.\x04V\xe6\xbf\xab5\xb3Y\xa3U\xa7\xbc\x00\x00\x00\x00\x00\x00\x00\x00\x00\x00\x00\x00\x00\x80\xdd\xbc\x00\x00\x00\x00\x00\x00\x00\x00\x00\x00\x00\x00\x00\x00\xc8<\x00\x00\x00\x00\x00\x00\x00\x00\x00\x00\x00\x00\x00\x00\x00\x00\xeb\xed\t\xf1\xcc\xa4\xf4?\x00\x00\x00\x00\x00\x00\x00\x00N"\xd0^p\xf8\x00\xc0G#O3\xb2t\xa9<\x9a\x03\r.\x04V\xe6\xbf\x00\x00\x00\x00\x00\x00\x00\x00\xcf9\xe3\xc17\x89\xe1?\x00\x00\x00\x00\x00\x00\xb6\xbc\x94`G\xb3\x80b\xa2\xbc\x00\x00\x00\x00\x00\x00\xe6\xbc\x00\x00\x00\x00\x00\x00\x00\x00'
p2270
tp2271
bsS'is_holding'
p2272
I00
sbsS'holding_collides'
p2273
NsS'parent_ternary_predicates'
p2274
(dp2275
sS'cached_place_paths'
p2276
(dp2277
(g593
g1099
tp2278
(lp2279
g22
(g23
(I0
tp2280
g25
tp2281
Rp2282
(I1
(I3
tp2283
g169
I00
S"\x80.D\xf9$V\x05@')\xc6\x8e\x01\t\x16\xc0\x89\xdd\x89S\xf8\xe1\x16@"
p2284
tp2285
bas(g595
g160
tp2286
g235
s(g633
g160
tp2287
g292
s(g877
g1099
tp2288
(lp2289
g22
(g23
(I0
tp2290
g25
tp2291
Rp2292
(I1
(I3
tp2293
g169
I00
S"'\xb7\x14\x05\x0b\x16\xbb\xbfq\xee\x85\x18\xad)\x1e\xc0\xc0\xffm+\x92\xf5\xfb?"
p2294
tp2295
bas(g633
g1099
tp2296
(lp2297
g22
(g23
(I0
tp2298
g25
tp2299
Rp2300
(I1
(I3
tp2301
g169
I00
S'prX\xef~x\xac?6,\xed\x86\xa1S\x1b\xc0\x1dyOF\xdbC\x11@'
p2302
tp2303
bas(g877
g160
tp2304
g439
s(g594
g1099
tp2305
(lp2306
g22
(g23
(I0
tp2307
g25
tp2308
Rp2309
(I1
(I3
tp2310
g169
I00
S'\xf8\xb5*\x02\xc6Z\xe3?\xa6\t.\xe7t\x83\x18\xc0.\xe3/u\xdfu\x11@'
p2311
tp2312
bas(g594
g160
tp2313
(lp2314
g22
(g23
(I0
tp2315
g25
tp2316
Rp2317
(I1
(I3
tp2318
g169
I00
S'\xfc\xb5*\x02\xc6Z\xe3?\xa4\t.\xe7t\x83\x18\xc0.\xe3/u\xdfu\x11@'
p2319
tp2320
bag22
(g23
(I0
tp2321
g25
tp2322
Rp2323
(I1
(I3
tp2324
g180
I00
S'`$W\xed\x83\x04\xe1?@\xe9\x80h\xcc\xf0\x18\xc0{2\xe8\xfe\xbeY\r@'
p2325
tp2326
bag22
(g23
(I0
tp2327
g25
tp2328
Rp2329
(I1
(I3
tp2330
g180
I00
S'\xbc\xcaD\xb3\xa5\xd0\xda?5\x9e\xd8L\xbc\xff\x15\xc0\x86v/\xef\x06;\xe9\xbf'
p2331
tp2332
bag22
(g23
(I0
tp2333
g25
tp2334
Rp2335
(I1
(I3
tp2336
g180
I00
S'\xa9\xd9\x1d\x8d\xa6j\xdf?\xa0\x85\x1a\x84\xc6\xec\x12\xc0\x01\xb6 H\xb1\x91\xeb?'
p2337
tp2338
bag22
(g23
(I0
tp2339
g25
tp2340
Rp2341
(I1
(I3
tp2342
g180
I00
S'\x93k\xbc\xee\xc2\x10\xe8?\xab^\x86?\x08D\x10\xc0\x10;2\x00\xe5\t\xde?'
p2343
tp2344
bag22
(g23
(I0
tp2345
g25
tp2346
Rp2347
(I1
(I3
tp2348
g180
I00
S'\xef\xc3u*\xfb\xdb\xeb?\x8d\xa5\n\xfd\x03<\n\xc0\xd8\xfb\xde\x16R\xac\xde?'
p2349
tp2350
bag22
(g23
(I0
tp2351
g25
tp2352
Rp2353
(I1
(I3
tp2354
g180
I00
S'\xf4\xfdJ\x1a(#\xec?H"\x9cD\x1aE\x05\xc0.\xa9\x0b\x87\xf8\xe1\x02@'
p2355
tp2356
bas(g12
g160
tp2357
g343
s(g592
g160
tp2358
g162
s(g592
g1099
tp2359
(lp2360
g22
(g23
(I0
tp2361
g25
tp2362
Rp2363
(I1
(I3
tp2364
g169
I00
S'N\x85\x85W\x7f\xae\x0c@x\xc4\x16\xc5V\x8c\x1d\xc0\xb0\xc5\x1b{\xc7\xcc\x14@'
p2365
tp2366
bas(g595
g1099
tp2367
(lp2368
g22
(g23
(I0
tp2369
g25
tp2370
Rp2371
(I1
(I3
tp2372
g169
I00
S'\xb8\xa5\x0fv\x892\x0c@\x07\xf5\x01\x1d\\\x98\x16\xc0\xdb\x9e\xa6\x8a\xf4\x8f\x0f@'
p2373
tp2374
bas(g12
g1099
tp2375
(lp2376
g22
(g23
(I0
tp2377
g25
tp2378
Rp2379
(I1
(I3
tp2380
g169
I00
S'i\x8c\xaa\x05\xb9W\xfb?j$y\xa7\xc0\xb7\x15\xc0\xfdck\xa4^\x1a\x08@'
p2381
tp2382
bas(g591
g1099
tp2383
(lp2384
g22
(g23
(I0
tp2385
g25
tp2386
Rp2387
(I1
(I3
tp2388
g169
I00
S'\x02D\xc7\xa2\x7f\xac\x05@\xa4\xf7Z\xd3=M\x18\xc0\x86\xea\x07\xf7\xdc\x9c\n@'
p2389
tp2390
bas(g591
g160
tp2391
g496
s(g593
g160
tp2392
g388
ssS'parent_binary_predicates'
p2393
(dp2394
sS'nodes'
p2395
(dp2396
g1102
(lp2397
I0
aI0
aI0
aI0
aI0
aI0
aI00
aI01
aI00
aI01
aI00
asg1099
(lp2398
I0
aI0
aI0
aI0
aI0
aI0
aI00
aI01
aI00
aI01
aI00
asg160
(lp2399
I0
aI0
aI0
aI0
aI0
aI0
aI00
aI01
aI01
aI01
aI00
asg290
(lp2400
I0
aI0
aI0
ag1671
(g169
S'\xe8\xc1d\x07\xbd\x88\xb9?'
p2401
tp2402
Rp2403
ag1671
(g169
S'V)\xaa\xb97<\x1e\xc0'
p2404
tp2405
Rp2406
ag1671
(g169
S'\x10\xce\xbc\x839b\xc0?'
p2407
tp2408
Rp2409
aI01
aI00
aI00
aI00
aI00
asg494
(lp2410
I0
aI0
aI0
ag1671
(g169
S'\xb4\x80\xf4\x8e\xbe\x12\xff?'
p2411
tp2412
Rp2413
ag1671
(g169
S"\x1c\x03\xde'&\xc4\x18\xc0"
p2414
tp2415
Rp2416
ag1671
(g169
S'\xa4\xabJ2&|\x0c@'
p2417
tp2418
Rp2419
aI01
aI00
aI00
aI01
aI00
asg159
(lp2420
I0
aI0
aI0
ag1671
(g169
S'8\xa6\x16G\xbaB\x0f@'
p2421
tp2422
Rp2423
ag1671
(g169
S"']\t\xd6GF \xc0"
p2424
tp2425
Rp2426
ag1671
(g169
S"\x17\x85\xc8\x87'\xb7\xfd?"
p2427
tp2428
Rp2429
aI01
aI00
aI00
aI01
aI00
asg386
(lp2430
I0
aI0
aI0
ag1671
(g169
S'\xee\x0f\x93^p:\x0b@'
p2431
tp2432
Rp2433
ag1671
(g169
S'4\xbb\xb9\x1b\xac?\x17\xc0'
p2434
tp2435
Rp2436
ag1671
(g169
S'd\x9f\x84\x8b\xad\x9c\x17@'
p2437
tp2438
Rp2439
aI01
aI00
aI00
aI01
aI00
asg1045
(lp2440
I0
aI0
aI0
ag1671
(g169
S'|\xb1\xdb\xf1\xe8\xc4\xe4?'
p2441
tp2442
Rp2443
ag1671
(g169
S'6WZ\xf1X\x91\x1b\xc0'
p2444
tp2445
Rp2446
ag1671
(g169
S'\x0b\xa2\xb7\xc5p\x16\xf7?'
p2447
tp2448
Rp2449
aI01
aI00
aI00
aI01
aI00
asg437
(lp2450
I0
aI0
aI0
ag1671
(g169
S'\xb1\xe1i\xcd\x1b\x80\xcc\xbf'
p2451
tp2452
Rp2453
ag1671
(g169
S'4\x7f!\xb1"\x07\x1b\xc0'
p2454
tp2455
Rp2456
ag1671
(g169
S'\xde\xb0\xc45\x81\x1b\x00@'
p2457
tp2458
Rp2459
aI01
aI00
aI00
aI00
aI00
asg341
(lp2460
I0
aI0
aI0
ag1671
(g169
S'B@u\x0c\xc0\xa7\xf1?'
p2461
tp2462
Rp2463
ag1671
(g169
S'8A\xda\x9a\xdf4\x15\xc0'
p2464
tp2465
Rp2466
ag1671
(g169
S'E%\xa6m\x8e&\xb8?'
p2467
tp2468
Rp2469
aI01
aI00
aI01
aI01
aI00
asg233
(lp2470
I0
aI0
aI0
ag1671
(g169
S'6i\xe9\x19\xf6t\n@'
p2471
tp2472
Rp2473
ag1671
(g169
S'\xf0\x93\x1d\x90{\x8c\x19\xc0'
p2474
tp2475
Rp2476
ag1671
(g169
S'\x1288S\xf3D\x06@'
p2477
tp2478
Rp2479
aI01
aI00
aI00
aI01
aI00
assS'mc_place_path'
p2480
(dp2481
sS'parent_state'
p2482
NsS'goal_entities'
p2483
(lp2484
S'square_packing_box1'
p2485
ag160
asS'binary_edges'
p2486
(dp2487
(g1045
g233
tp2488
(lp2489
I00
aI00
aI00
as(g1045
g290
tp2490
(lp2491
I00
aI01
aI00
as(g159
g437
tp2492
(lp2493
I00
aI00
aI00
as(g159
g159
tp2494
(lp2495
I00
aI00
aI00
as(g494
g437
tp2496
(lp2497
I00
aI00
aI00
as(g494
g159
tp2498
(lp2499
I00
aI00
aI00
as(g233
g494
tp2500
(lp2501
I00
aI00
aI00
as(g1045
g341
tp2502
(lp2503
I00
aI00
aI00
as(g386
g159
tp2504
(lp2505
I00
aI00
aI00
as(g290
g290
tp2506
(lp2507
I00
aI00
aI00
as(g494
g1099
tp2508
(lp2509
g1671
(g29
(S'b1'
p2510
I0
I1
tp2511
Rp2512
(I3
S'|'
p2513
NNNI-1
I-1
I0
tp2514
bS'\x01'
p2515
tp2516
Rp2517
aI00
aI01
as(g1102
g1099
tp2518
(lp2519
I00
aI00
aI00
as(g290
g233
tp2520
(lp2521
I00
aI00
aI00
as(g1099
g233
tp2522
(lp2523
I00
aI00
aI00
as(g341
g160
tp2524
(lp2525
I00
aI00
aI00
as(g1102
g494
tp2526
(lp2527
I00
aI00
aI00
as(g494
g233
tp2528
(lp2529
I00
aI00
aI00
as(g159
g1102
tp2530
(lp2531
g2517
aI00
aI00
as(g1045
g1045
tp2532
(lp2533
I00
aI00
aI00
as(g1099
g1045
tp2534
(lp2535
I00
aI00
aI00
as(g437
g494
tp2536
(lp2537
I00
aI00
aI00
as(g494
g160
tp2538
(lp2539
I00
aI00
aI00
as(g386
g437
tp2540
(lp2541
I00
aI00
aI00
as(g290
g386
tp2542
(lp2543
I00
aI00
aI00
as(g341
g341
tp2544
(lp2545
I00
aI00
aI00
as(g494
g1102
tp2546
(lp2547
g2517
aI00
aI00
as(g1099
g494
tp2548
(lp2549
I00
aI00
aI00
as(g1099
g437
tp2550
(lp2551
I00
aI00
aI00
as(g1099
g159
tp2552
(lp2553
I00
aI00
aI00
as(g437
g160
tp2554
(lp2555
I00
aI00
aI00
as(g233
g290
tp2556
(lp2557
I00
aI00
aI00
as(g386
g290
tp2558
(lp2559
I00
aI00
aI00
as(g437
g386
tp2560
(lp2561
I00
aI00
aI00
as(g1099
g290
tp2562
(lp2563
I00
aI00
aI00
as(g1102
g160
tp2564
(lp2565
I00
aI00
aI00
as(g341
g494
tp2566
(lp2567
I00
aI00
aI00
as(g290
g437
tp2568
(lp2569
I00
aI01
aI00
as(g1102
g437
tp2570
(lp2571
I00
aI00
aI00
as(g437
g1102
tp2572
(lp2573
g2517
aI00
aI00
as(g159
g1045
tp2574
(lp2575
I00
aI00
aI00
as(g233
g341
tp2576
(lp2577
I00
aI00
aI00
as(g159
g494
tp2578
(lp2579
I00
aI00
aI00
as(g233
g160
tp2580
(lp2581
I00
aI00
aI00
as(g1102
g1102
tp2582
(lp2583
I00
aI00
aI00
as(g437
g290
tp2584
(lp2585
I00
aI00
aI00
as(g341
g1045
tp2586
(lp2587
I00
aI00
aI00
as(g160
g341
tp2588
(lp2589
I00
aI00
aI00
as(g386
g1099
tp2590
(lp2591
g2517
aI00
aI01
as(g160
g386
tp2592
(lp2593
I00
aI00
aI00
as(g233
g159
tp2594
(lp2595
I00
aI00
aI00
as(g159
g341
tp2596
(lp2597
I00
aI00
aI00
as(g437
g1099
tp2598
(lp2599
g2517
aI00
aI01
as(g159
g386
tp2600
(lp2601
I00
aI00
aI00
as(g437
g437
tp2602
(lp2603
I00
aI00
aI00
as(g386
g494
tp2604
(lp2605
I00
aI00
aI00
as(g1099
g160
tp2606
(lp2607
I00
aI00
aI00
as(g160
g1045
tp2608
(lp2609
I00
aI00
aI00
as(g290
g160
tp2610
(lp2611
I00
aI00
aI00
as(g1102
g386
tp2612
(lp2613
I00
aI00
aI00
as(g160
g233
tp2614
(lp2615
I00
aI00
aI00
as(g159
g233
tp2616
(lp2617
I00
aI00
aI00
as(g386
g1102
tp2618
(lp2619
g2517
aI00
aI00
as(g233
g1099
tp2620
(lp2621
g2517
aI00
aI01
as(g386
g1045
tp2622
(lp2623
I00
aI00
aI00
as(g290
g494
tp2624
(lp2625
I00
aI00
aI00
as(g290
g1099
tp2626
(lp2627
g2517
aI00
aI01
as(g160
g159
tp2628
(lp2629
I00
aI00
aI00
as(g1102
g233
tp2630
(lp2631
I00
aI00
aI00
as(g1102
g290
tp2632
(lp2633
I00
aI00
aI00
as(g386
g160
tp2634
(lp2635
I00
aI00
aI00
as(g1045
g386
tp2636
(lp2637
I00
aI00
aI00
as(g341
g386
tp2638
(lp2639
I00
aI00
aI00
as(g160
g437
tp2640
(lp2641
I00
aI00
aI00
as(g1099
g1099
tp2642
(lp2643
I00
aI00
aI00
as(g1045
g159
tp2644
(lp2645
I00
aI00
aI00
as(g341
g437
tp2646
(lp2647
I00
aI00
aI00
as(g1099
g341
tp2648
(lp2649
I00
aI00
aI00
as(g494
g290
tp2650
(lp2651
I00
aI00
aI00
as(g1099
g386
tp2652
(lp2653
I00
aI00
aI00
as(g341
g1102
tp2654
(lp2655
g2517
aI00
aI00
as(g1045
g494
tp2656
(lp2657
I00
aI00
aI00
as(g159
g160
tp2658
(lp2659
I00
aI00
aI00
as(g341
g290
tp2660
(lp2661
I00
aI00
aI00
as(g290
g341
tp2662
(lp2663
I00
aI00
aI00
as(g494
g341
tp2664
(lp2665
I00
aI00
aI00
as(g1102
g1045
tp2666
(lp2667
I00
aI00
aI00
as(g494
g386
tp2668
(lp2669
I00
aI00
aI00
as(g437
g1045
tp2670
(lp2671
I00
aI00
aI00
as(g1045
g1099
tp2672
(lp2673
g2517
aI00
aI01
as(g386
g386
tp2674
(lp2675
I00
aI00
aI00
as(g233
g1045
tp2676
(lp2677
I00
aI00
aI00
as(g341
g233
tp2678
(lp2679
I00
aI00
aI00
as(g494
g1045
tp2680
(lp2681
I00
aI00
aI00
as(g494
g494
tp2682
(lp2683
I00
aI00
aI00
as(g233
g386
tp2684
(lp2685
I00
aI00
aI00
as(g1045
g160
tp2686
(lp2687
I00
aI00
aI01
as(g437
g341
tp2688
(lp2689
I00
aI00
aI00
as(g159
g1099
tp2690
(lp2691
g2517
aI00
aI01
as(g160
g494
tp2692
(lp2693
I00
aI00
aI00
as(g386
g341
tp2694
(lp2695
I00
aI00
aI00
as(g290
g159
tp2696
(lp2697
I00
aI00
aI00
as(g160
g1099
tp2698
(lp2699
I00
aI00
aI00
as(g1045
g437
tp2700
(lp2701
I00
aI01
aI00
as(g1102
g159
tp2702
(lp2703
I00
aI00
aI00
as(g1045
g1102
tp2704
(lp2705
g2517
aI00
aI00
as(g437
g159
tp2706
(lp2707
I00
aI00
aI00
as(g160
g160
tp2708
(lp2709
I00
aI00
aI00
as(g386
g233
tp2710
(lp2711
I00
aI00
aI00
as(g290
g1102
tp2712
(lp2713
g2517
aI00
aI00
as(g233
g1102
tp2714
(lp2715
g2517
aI00
aI00
as(g160
g1102
tp2716
(lp2717
I00
aI00
aI00
as(g160
g290
tp2718
(lp2719
I00
aI00
aI00
as(g437
g233
tp2720
(lp2721
I00
aI00
aI00
as(g233
g437
tp2722
(lp2723
I00
aI00
aI00
as(g159
g290
tp2724
(lp2725
I00
aI00
aI00
as(g1099
g1102
tp2726
(lp2727
I00
aI00
aI00
as(g341
g159
tp2728
(lp2729
I00
aI00
aI00
as(g290
g1045
tp2730
(lp2731
I00
aI00
aI00
as(g233
g233
tp2732
(lp2733
I00
aI00
aI00
as(g341
g1099
tp2734
(lp2735
g2517
aI00
aI01
as(g1102
g341
tp2736
(lp2737
I00
aI00
aI00
assg589
g590
sS'pick_in_way'
p2738
(itrajectory_representation.predicates.pick_in_way
PickInWay
p2739
(dp2740
g157
(dp2741
g290
g668
sg494
g711
sg159
g754
sg386
g803
sg1045
g858
sg437
g902
sg341
g938
sg233
g1011
ssg557
(dp2742
g290
(lp2743
Vsquare_packing_box2
p2744
asg494
(lp2745
sg159
(lp2746
sg386
(lp2747
sg1045
(lp2748
sg437
(lp2749
Vsquare_packing_box2
p2750
aVrectangular_packing_box4
p2751
asg341
(lp2752
sg233
(lp2753
ssg589
(lp2754
g386
ag1045
ag494
ag159
ag233
ag1102
ag160
ag1099
ag341
ag1102
ag160
ag1099
ag1102
ag160
ag1099
ag1102
ag160
ag1099
ag1102
ag160
ag1099
ag1102
ag160
ag1099
ag1102
ag160
ag1099
ag1102
ag160
ag1099
asg596
g597
sg96
(dp2755
sg631
g632
sg1032
Nsg1039
g632
sg1036
(dp2756
sg1038
I8
sg1094
I01
sg1040
Nsg1041
(dp2757
(g1045
g233
tp2758
I00
s(g1045
g290
tp2759
I01
s(g159
g437
tp2760
I00
s(g159
g159
tp2761
I00
s(g494
g437
tp2762
I00
s(g494
g159
tp2763
I00
s(g233
g494
tp2764
I00
s(g1045
g341
tp2765
I00
s(g386
g159
tp2766
I00
s(g290
g290
tp2767
I00
s(g494
g1099
tp2768
I00
s(g1102
g1099
tp2769
I00
s(g290
g233
tp2770
I00
s(g1099
g233
tp2771
I00
s(g341
g160
tp2772
I00
s(g1102
g494
tp2773
I00
s(g494
g233
tp2774
I00
s(g159
g1102
tp2775
I00
s(g1045
g1045
tp2776
I00
s(g1099
g1045
tp2777
I00
s(g437
g494
tp2778
I00
s(g494
g160
tp2779
I00
s(g386
g437
tp2780
I00
s(g290
g386
tp2781
I00
s(g341
g341
tp2782
I00
s(g494
g1102
tp2783
I00
s(g1099
g494
tp2784
I00
s(g1099
g437
tp2785
I00
s(g1099
g159
tp2786
I00
s(g437
g160
tp2787
I00
s(g233
g290
tp2788
I00
s(g386
g290
tp2789
I00
s(g437
g386
tp2790
I00
s(g1099
g290
tp2791
I00
s(g1102
g160
tp2792
I00
s(g341
g494
tp2793
I00
s(g290
g437
tp2794
I01
s(g1102
g437
tp2795
I00
s(g437
g1102
tp2796
I00
s(g159
g1045
tp2797
I00
s(g233
g341
tp2798
I00
s(g159
g494
tp2799
I00
s(g233
g160
tp2800
I00
s(g1102
g1102
tp2801
I00
s(g437
g290
tp2802
I00
s(g341
g1045
tp2803
I00
s(g160
g341
tp2804
I00
s(g386
g1099
tp2805
I00
s(g160
g386
tp2806
I00
s(g233
g159
tp2807
I00
s(g159
g341
tp2808
I00
s(g437
g1099
tp2809
I00
s(g159
g386
tp2810
I00
s(g437
g437
tp2811
I00
s(g386
g494
tp2812
I00
s(g1099
g160
tp2813
I00
s(g160
g1045
tp2814
I00
s(g290
g160
tp2815
I00
s(g1102
g386
tp2816
I00
s(g160
g233
tp2817
I00
s(g159
g233
tp2818
I00
s(g386
g1102
tp2819
I00
s(g233
g1099
tp2820
I00
s(g386
g1045
tp2821
I00
s(g290
g494
tp2822
I00
s(g290
g1099
tp2823
I00
s(g160
g159
tp2824
I00
s(g1102
g233
tp2825
I00
s(g1102
g290
tp2826
I00
s(g386
g160
tp2827
I00
s(g1045
g386
tp2828
I00
s(g341
g386
tp2829
I00
s(g160
g437
tp2830
I00
s(g1099
g1099
tp2831
I00
s(g1045
g159
tp2832
I00
s(g341
g437
tp2833
I00
s(g1099
g341
tp2834
I00
s(g494
g290
tp2835
I00
s(g1099
g386
tp2836
I00
s(g341
g1102
tp2837
I00
s(g1045
g494
tp2838
I00
s(g159
g160
tp2839
I00
s(g341
g290
tp2840
I00
s(g290
g341
tp2841
I00
s(g494
g341
tp2842
I00
s(g1102
g1045
tp2843
I00
s(g494
g386
tp2844
I00
s(g437
g1045
tp2845
I00
s(g1045
g1099
tp2846
I00
s(g386
g386
tp2847
I00
s(g233
g1045
tp2848
I00
s(g341
g233
tp2849
I00
s(g494
g1045
tp2850
I00
s(g494
g494
tp2851
I00
s(g233
g386
tp2852
I00
s(g1045
g160
tp2853
I00
s(g437
g341
tp2854
I00
s(g159
g1099
tp2855
I00
s(g160
g494
tp2856
I00
s(g386
g341
tp2857
I00
s(g290
g159
tp2858
I00
s(g160
g1099
tp2859
I00
s(g1045
g437
tp2860
I01
s(g1102
g159
tp2861
I00
s(g1045
g1102
tp2862
I00
s(g437
g159
tp2863
I00
s(g160
g160
tp2864
I00
s(g386
g233
tp2865
I00
s(g290
g1102
tp2866
I00
s(g233
g1102
tp2867
I00
s(g160
g1102
tp2868
I00
s(g160
g290
tp2869
I00
s(g437
g233
tp2870
I00
s(g233
g437
tp2871
I00
s(g159
g290
tp2872
I00
s(g1099
g1102
tp2873
I00
s(g341
g159
tp2874
I00
s(g290
g1045
tp2875
I00
s(g233
g233
tp2876
I00
s(g341
g1099
tp2877
I00
s(g1102
g341
tp2878
I00
ssg1093
NsbsS'robot_pose'
p2879
g22
(g23
(I0
tp2880
g25
tp2881
Rp2882
(I1
(I1
I3
tp2883
g169
I00
S'\xae\x06iZy\xa0\x04@Y4U\xe2=\xe8\x1f\xc0\x89\x863\xcf\xff,\xfc?'
p2884
tp2885
bsS'is_holding_goal_entity'
p2886
(itrajectory_representation.predicates.is_holding_goal_entity
IsHoldingGoalEntity
p2887
(dp2888
g2483
g2484
sg1040
NsbsS'mc_pick_path'
p2889
(dp2890
sS'current_collides'
p2891
g597
sbasS'seed'
p2892
NsS'state_prime'
p2893
(lp2894
sS'problem_idx'
p2895
I256
sb.