(itrajectory_representation.trajectory
Trajectory
p0
(dp1
S'rewards'
p2
(lp3
I10
asS'actions'
p4
(lp5
(itrajectory_representation.operator
Operator
p6
(dp7
S'is_skeleton'
p8
I00
sS'discrete_parameters'
p9
(dp10
S'object'
p11
Vsquare_packing_box1
p12
sS'two_arm_place_region'
p13
S'home_region'
p14
sS'two_arm_place_object'
p15
Vsquare_packing_box1
p16
ssS'type'
p17
S'two_arm_pick_two_arm_place'
p18
sS'continuous_parameters'
p19
(dp20
S'q_goal'
p21
cnumpy.core.multiarray
_reconstruct
p22
(cnumpy
ndarray
p23
(I0
tp24
S'b'
p25
tp26
Rp27
(I1
(I3
tp28
cnumpy
dtype
p29
(S'f8'
p30
I0
I1
tp31
Rp32
(I3
S'<'
p33
NNNI-1
I-1
I0
tp34
bI00
S'0REg\xf7\xbb\xe7?\x01\x90 +\x19\xf6\x13\xc0\xcf?:Lr@\xe8\xbf'
p35
tp36
bsS'place'
p37
(dp38
g21
g22
(g23
(I0
tp39
g25
tp40
Rp41
(I1
(I3
tp42
g32
I00
S'`{\xae\xd6L\xdb\xd4\xbf,\xeb\xbam\x84\xf7\x01\xc0\x0f\xe1\xd0\xfc\xbaH\xe5?'
p43
tp44
bssS'pick'
p45
(dp46
g21
g27
sssS'low_level_motion'
p47
(lp48
g22
(g23
(I0
tp49
g25
tp50
Rp51
(I1
(I3
tp52
g32
I00
S'`}-\xec\xef\xa9\xc7\xbf\xc3\xf3\xee\xe0Y\xf7\x17\xc0\xeb]\x082$\xe1\x06@'
p53
tp54
bag22
(g23
(I0
tp55
g25
tp56
Rp57
(I1
(I3
tp58
g29
(S'f8'
p59
I0
I1
tp60
Rp61
(I3
S'<'
p62
NNNI-1
I-1
I0
tp63
bI00
S'\xd0\x185\xfd);\xc3?\x1c\xdfM\xe9\x03\xf1\x16\xc0y\xe4\x94w\xb3\xb2\x08\xc0'
p64
tp65
bag22
(g23
(I0
tp66
g25
tp67
Rp68
(I1
(I3
tp69
g61
I00
S'\xff\x1dX8\xbe\xd2\xc9?\x91h\xd1{\x1e(\x16\xc0\xee\xfeSI\xc3\xd4\x03\xc0'
p70
tp71
bag22
(g23
(I0
tp72
g25
tp73
Rp74
(I1
(I3
tp75
g61
I00
S"\xb2&6mg)\xe8?\x99\xe0G'\x16\xe0\x13\xc0\xc8oL\xf5\x17p\xe6\xbf"
p76
tp77
bag27
ag27
asbasS'filename'
p78
S''
p79
sS'states'
p80
(lp81
(itrajectory_representation.shortest_path_pick_and_place_state
ShortestPathPaPState
p82
(dp83
S'place_used'
p84
(dp85
(g16
g14
tp86
(itrajectory_representation.operator
Operator
p87
(dp88
g8
I01
sg9
(dp89
S'region'
p90
g14
sg11
g16
ssg17
S'two_arm_place'
p91
sg19
(dp92
g21
g22
(g23
(I0
tp93
g25
tp94
Rp95
(I1
(I3
tp96
g32
I00
S'`{\xae\xd6L\xdb\xd4\xbf,\xeb\xbam\x84\xf7\x01\xc0\x0f\xe1\xd0\xfc\xbaH\xe5?'
p97
tp98
bssg47
(lp99
g22
(g23
(I0
tp100
g25
tp101
Rp102
(I1
(I3
tp103
g32
I00
S'$REg\xf7\xbb\xe7?\x07\x90 +\x19\xf6\x13\xc0\xe3?:Lr@\xe8\xbf'
p104
tp105
bag22
(g23
(I0
tp106
g25
tp107
Rp108
(I1
(I3
tp109
g61
I00
S'\xb0E\xbb;Cb\xeb?\x9e\xde\xa7\xdd\xbdd\x12\xc0\xc6\xee\xbd\x16\x8c\xaa\xf3\xbf'
p110
tp111
bag22
(g23
(I0
tp112
g25
tp113
Rp114
(I1
(I3
tp115
g61
I00
S'\xec\x12\xec\x03\xdea\xe9?<\xa5t\x82\x15\x9b\x0e\xc0L\xf0\xe0\xffy\x10\xf5\xbf'
p116
tp117
bag22
(g23
(I0
tp118
g25
tp119
Rp120
(I1
(I3
tp121
g61
I00
S'(\xe0\x1c\xccxa\xe7?<\x8d\x99I\xafl\x08\xc0\xd2\xf1\x03\xe9gv\xf6\xbf'
p122
tp123
bag22
(g23
(I0
tp124
g25
tp125
Rp126
(I1
(I3
tp127
g61
I00
S'\xebo\xb6\xb8\xb0\xeb\xd1?g\x92\x02\x10P\xc1\x05\xc0V\x9dZ\x12\xad/\xf6?'
p128
tp129
bag95
ag95
asbssS'place_in_way'
p130
(itrajectory_representation.predicates.place_in_way
PlaceInWay
p131
(dp132
S'mc_path_to_entity'
p133
(dp134
(Vrectangular_packing_box3
p135
S'home_region'
p136
tp137
(lp138
g22
(g23
(I0
tp139
g25
tp140
Rp141
(I1
(I3
tp142
g29
(S'f8'
p143
I0
I1
tp144
Rp145
(I3
S'<'
p146
NNNI-1
I-1
I0
tp147
bI00
S'\xb0\xb5\xfd\x92\x969\xef?\xddBm\x0bT\x8b\x1d\xc0\xb9\xd6N\xc8T\xd2\x0b@'
p148
tp149
bag22
(g23
(I0
tp150
g25
tp151
Rp152
(I1
(I3
tp153
g29
(S'f8'
p154
I0
I1
tp155
Rp156
(I3
S'<'
p157
NNNI-1
I-1
I0
tp158
bI00
S'\xf8\xfc\x1a\xd0\xc9l\xe8?\x8a\x897\x8e~\x98\x1a\xc0\xaf\xf7\xb87\xc6\xa7\x01\xc0'
p159
tp160
bag22
(g23
(I0
tp161
g25
tp162
Rp163
(I1
(I3
tp164
g156
I00
S'\xf8C*\xbe\x14\xcf\xe8?\x81d\xab\xeb\xa8<\x18\xc0\xc8\\\xf4\x8c\xc3\xfa\xfe\xbf'
p165
tp166
bag22
(g23
(I0
tp167
g25
tp168
Rp169
(I1
(I3
tp170
g156
I00
S'\xd0\xcb\x13\x8f\xaa\x9d\xed?\x90\x01<]3\x06\x16\xc0F\xf1\xe7x32\x02\xc0'
p171
tp172
bag22
(g23
(I0
tp173
g25
tp174
Rp175
(I1
(I3
tp176
g156
I00
S'l[\xc4\x16<\xe6\xe9?\xa6\xa0\x90\x84X\x9f\x13\xc0\xc2\xd74Q\x00\xaf\xff\xbf'
p177
tp178
bag22
(g23
(I0
tp179
g25
tp180
Rp181
(I1
(I3
tp182
g156
I00
S"\xaeJ\xbd\x1936\xec?\x04\x13\xd4'\x9f\x88\x10\xc0\x805qo\xb6\xe6\xff\xbf"
p183
tp184
bag22
(g23
(I0
tp185
g25
tp186
Rp187
(I1
(I3
tp188
g156
I00
S'\xf09\xb6\x1c*\x86\xee?\xc4\n/\x96\xcb\xe3\n\xc0\xa0\xc9\xd6F6\x0f\x00\xc0'
p189
tp190
bag22
(g23
(I0
tp191
g25
tp192
Rp193
(I1
(I3
tp194
g156
I00
S'3\xe9\xaf\x05T\x89\xe7?+~\xcb\xd3\x15\xc7\x04\xc0x6(d5\xed\x07@'
p195
tp196
bas(Vsquare_packing_box4
p197
g136
tp198
(lp199
g22
(g23
(I0
tp200
g25
tp201
Rp202
(I1
(I3
tp203
g145
I00
S'zf\xd7>\xf2\xb5\x00@\xd0%\xd8\x87\n\xf3\x18\xc0\xb8/\xeb7\xe5\xcc\xec?'
p204
tp205
bag22
(g23
(I0
tp206
g25
tp207
Rp208
(I1
(I3
tp209
g156
I00
S'j\xc7\xc0&\x8ag\xf6?h\x9cH4\x7f\xab\x18\xc0\xd8|\x1d\xfc\xcbV\xf2?'
p210
tp211
bag22
(g23
(I0
tp212
g25
tp213
Rp214
(I1
(I3
tp215
g156
I00
S'\x85\\2\xba\x0b5\xf5?I\r\x06\xd10\xfb\x15\xc0\x9e\x11\xee\xd8\xb9\xd7\xf5?'
p216
tp217
bag22
(g23
(I0
tp218
g25
tp219
Rp220
(I1
(I3
tp221
g156
I00
S'v\xb8^\x85\xa7[\xea?x\xbe\xff2t\x8d\x13\xc0\x88\x85\x8cCyH\xf6?'
p222
tp223
bag22
(g23
(I0
tp224
g25
tp225
Rp226
(I1
(I3
tp227
g156
I00
S'\xc2\xda(e\x83\x1a\xeb?\x8au\x8d3\xa6E\x11\xc0\xb4c\x1b\xed_\xfd\xfa?'
p228
tp229
bag22
(g23
(I0
tp230
g25
tp231
Rp232
(I1
(I3
tp233
g156
I00
S'\xe4u**\x0e5\xe9?\xaa\xfd\r\xed\xc4\xf6\r\xc0\x0fDE0\x1f\x0b\xfe?'
p234
tp235
bag22
(g23
(I0
tp236
g25
tp237
Rp238
(I1
(I3
tp239
g156
I00
S'\x06\x11,\xef\x98O\xe7??\x10\x01s=b\t\xc04\x92\xb79o\x8c\x00@'
p240
tp241
bag22
(g23
(I0
tp242
g25
tp243
Rp244
(I1
(I3
tp245
g156
I00
S'\x92\xaf\xf3P\x96O\xc2?(\xa1:\x8er}\x05\xc0\xd4_\x91\xb3\xffL\x02@'
p246
tp247
bas(Vrectangular_packing_box4
p248
g136
tp249
(lp250
g22
(g23
(I0
tp251
g25
tp252
Rp253
(I1
(I3
tp254
g145
I00
S'\x08\xe9O\xb6m\xdf\x08@\xa7\x97\xa9\xf9\xd4\x87\x19\xc0\xa7\xf3\xfa\xebk\x1e\t@'
p255
tp256
bag22
(g23
(I0
tp257
g25
tp258
Rp259
(I1
(I3
tp260
g156
I00
S'\xac)\x94\xc9\xc1\xda\x03@>\xa9\\\xfe\x1d\xeb\x18\xc0\x03\xc0\n\xd21\x11\x08@'
p261
tp262
bag22
(g23
(I0
tp263
g25
tp264
Rp265
(I1
(I3
tp266
g156
I00
S'\xeaT\xc2\xbf\xe4\x8d\xfb?L\xe4y~t"\x18\xc0\x0f\x12ob\\\x05\x0b@'
p267
tp268
bag22
(g23
(I0
tp269
g25
tp270
Rp271
(I1
(I3
tp272
g156
I00
S'\x84\xa2s4\xa1\xd0\xf6?E=|\xb9\xcam\x17\xc0\xa93^V\xfc\xed\x05@'
p273
tp274
bag22
(g23
(I0
tp275
g25
tp276
Rp277
(I1
(I3
tp278
g156
I00
S'f\xb4\x9c\x07\xac\xbf\xec?n\x96\x96\x9e\x90n\x16\xc0uo!\xa9\x9b\x82\x07@'
p279
tp280
bag22
(g23
(I0
tp281
g25
tp282
Rp283
(I1
(I3
tp284
g156
I00
S'm\xd5h\x072\x03\xea?\xdf\xe5\xe82\xd3\x17\x14\xc0\x08\x9e\xe1\xfbO\x94\x08@'
p285
tp286
bag22
(g23
(I0
tp287
g25
tp288
Rp289
(I1
(I3
tp290
g156
I00
S'\x97\xff-a\x91r\xf0?\x1a\x15\xfe\xb9:\x1b\x12\xc0\nG\xfe\xfa~y\x05@'
p291
tp292
bag22
(g23
(I0
tp293
g25
tp294
Rp295
(I1
(I3
tp296
g156
I00
S'y\xd4\xbc{`\x0b\xf2?\xb0C6m\xb7\xd6\x0e\xc0\xe8\xe2r\xbe\x16{\xf5?'
p297
tp298
bag22
(g23
(I0
tp299
g25
tp300
Rp301
(I1
(I3
tp302
g156
I00
S'\xd1\xaa\x15!\x8c\x06\xed?\x8c\xab\xab^w\xe3\t\xc0~&\xcc\xa2\xcbw\xf6?'
p303
tp304
bag22
(g23
(I0
tp305
g25
tp306
Rp307
(I1
(I3
tp308
g156
I00
S'3\xe9\xaf\x05T\x89\xe7?+~\xcb\xd3\x15\xc7\x04\xc0x6(d5\xed\x07@'
p309
tp310
bas(Vsquare_packing_box2
p311
g136
tp312
(lp313
g22
(g23
(I0
tp314
g25
tp315
Rp316
(I1
(I3
tp317
g145
I00
S'\xc4\xd4|\x12-\xde\x00@E6\x8f\xc8\xd7\xe5\x1d\xc00\xdfGj@r\t@'
p318
tp319
bag22
(g23
(I0
tp320
g25
tp321
Rp322
(I1
(I3
tp323
g156
I00
S'zNu~${\xfb?c\xfe\x8c\xbf\x1f\xab\x1b\xc0\x9b\xbb\x05m\x02\x02\x07@'
p324
tp325
bag22
(g23
(I0
tp326
g25
tp327
Rp328
(I1
(I3
tp329
g156
I00
S'{\xe7\xcc\xce\x02,\xf5?\xeb\x85\xf2\xb4\xc9\x08\x19\xc0\xcd\x97\xf6\xcc\xe4z\x00@'
p330
tp331
bag22
(g23
(I0
tp332
g25
tp333
Rp334
(I1
(I3
tp335
g156
I00
S'o\xd6\x82\xea\x7f\xb2\xed?9\xf2C\x0b?\xfd\x16\xc0(?d\xe9@\xb5\x02@'
p336
tp337
bag22
(g23
(I0
tp338
g25
tp339
Rp340
(I1
(I3
tp341
g156
I00
S'&>c9\x01,\xeb?\xb2\xc2\xf0\x02\xce\x8e\x14\xc0\xd8p\xbb2\x14\xd2\x03@'
p342
tp343
bag22
(g23
(I0
tp344
g25
tp345
Rp346
(I1
(I3
tp347
g156
I00
S'\xc6\x05\xbdtg\xd9\xe2?F\xdf\x9d@\\\xf3\x11\xc0\x1a\xc4.\xbb\xcc\x12\x02@'
p348
tp349
bag22
(g23
(I0
tp350
g25
tp351
Rp352
(I1
(I3
tp353
g156
I00
S'3z\xed\x8eN)\xe4?\x0c\x96\xd4\xa2\x0e\xd0\r\xc0\xbd%\xf5{\xe9\xf9\x03@'
p354
tp355
bag22
(g23
(I0
tp356
g25
tp357
Rp358
(I1
(I3
tp359
g156
I00
S'\xaf0\xe9h\xba~\xee?k\xbb\xd8\xd4\xd0g\t\xc09\x9ey\xed\xb06\x06@'
p360
tp361
bag22
(g23
(I0
tp362
g25
tp363
Rp364
(I1
(I3
tp365
g156
I00
S'\xf4\xfdJ\x1a(#\xec?H"\x9cD\x1aE\x05\xc0.\xa9\x0b\x87\xf8\xe1\x02@'
p366
tp367
bas(Vsquare_packing_box3
p368
g136
tp369
(lp370
g22
(g23
(I0
tp371
g25
tp372
Rp373
(I1
(I3
tp374
g145
I00
S"\xe2\x16\x8cKm)\x0f@\xbe\xef\xe1\xc0%W\x1c\xc0c'-z/\xba\xfc?"
p375
tp376
bag22
(g23
(I0
tp377
g25
tp378
Rp379
(I1
(I3
tp380
g156
I00
S'\x82PU+O\xe4\n@~_\xe5t\xa53\x1a\xc0\xc63\xe2"\x04\x7f\x01@'
p381
tp382
bag22
(g23
(I0
tp383
g25
tp384
Rp385
(I1
(I3
tp386
g156
I00
S'\xd8\xd6B\xff\x18\xb2\x05@\xf2%;\x9a\xab\xd5\x18\xc0\xce\xc8,\xa0\x8a\x9a\x00@'
p387
tp388
bag22
(g23
(I0
tp389
g25
tp390
Rp391
(I1
(I3
tp392
g156
I00
S'\xf60LV\xe8\x96\x00@\x9aEw{a\xe2\x18\xc0^\xa8\x8a,\xa3\x98\x00@'
p393
tp394
bag22
(g23
(I0
tp395
g25
tp396
Rp397
(I1
(I3
tp398
g156
I00
S'\xe0 ;\x819w\xfd?\xe7\xcc\xc2\xa0\xa5f\x17\xc04\xedq\x1c\x8eK\xfa?'
p399
tp400
bag22
(g23
(I0
tp401
g25
tp402
Rp403
(I1
(I3
tp404
g156
I00
S'\x85\\2\xba\x0b5\xf5?I\r\x06\xd10\xfb\x15\xc0\x9e\x11\xee\xd8\xb9\xd7\xf5?'
p405
tp406
bag22
(g23
(I0
tp407
g25
tp408
Rp409
(I1
(I3
tp410
g156
I00
S'v\xb8^\x85\xa7[\xea?x\xbe\xff2t\x8d\x13\xc0\x88\x85\x8cCyH\xf6?'
p411
tp412
bag22
(g23
(I0
tp413
g25
tp414
Rp415
(I1
(I3
tp416
g156
I00
S'\xc2\xda(e\x83\x1a\xeb?\x8au\x8d3\xa6E\x11\xc0\xb4c\x1b\xed_\xfd\xfa?'
p417
tp418
bag22
(g23
(I0
tp419
g25
tp420
Rp421
(I1
(I3
tp422
g156
I00
S'\xe4u**\x0e5\xe9?\xaa\xfd\r\xed\xc4\xf6\r\xc0\x0fDE0\x1f\x0b\xfe?'
p423
tp424
bag22
(g23
(I0
tp425
g25
tp426
Rp427
(I1
(I3
tp428
g156
I00
S'\x06\x11,\xef\x98O\xe7??\x10\x01s=b\t\xc04\x92\xb79o\x8c\x00@'
p429
tp430
bag22
(g23
(I0
tp431
g25
tp432
Rp433
(I1
(I3
tp434
g156
I00
S'\x92\xaf\xf3P\x96O\xc2?(\xa1:\x8er}\x05\xc0\xd4_\x91\xb3\xffL\x02@'
p435
tp436
bas(Vrectangular_packing_box2
p437
g136
tp438
(lp439
g22
(g23
(I0
tp440
g25
tp441
Rp442
(I1
(I3
tp443
g145
I00
S"\xb0\xfb\xecw(n\xe5?\xc7g\x06\xe9\x82\xac\x17\xc04'\xb6\xaa\xf8\x13\x12@"
p444
tp445
bag22
(g23
(I0
tp446
g25
tp447
Rp448
(I1
(I3
tp449
g156
I00
S'\xa5P\xd1\x87\x88:\xe5?\xd8\xf1\xd1l\xc6\x00\x15\xc0{\xeaM\xb0\xfa\x02\x0e@'
p450
tp451
bag22
(g23
(I0
tp452
g25
tp453
Rp454
(I1
(I3
tp455
g156
I00
S'\xc6\x05\xbdtg\xd9\xe2?F\xdf\x9d@\\\xf3\x11\xc0\x1a\xc4.\xbb\xcc\x12\x02@'
p456
tp457
bag22
(g23
(I0
tp458
g25
tp459
Rp460
(I1
(I3
tp461
g156
I00
S'3z\xed\x8eN)\xe4?\x0c\x96\xd4\xa2\x0e\xd0\r\xc0\xbd%\xf5{\xe9\xf9\x03@'
p462
tp463
bag22
(g23
(I0
tp464
g25
tp465
Rp466
(I1
(I3
tp467
g156
I00
S'\xaf0\xe9h\xba~\xee?k\xbb\xd8\xd4\xd0g\t\xc09\x9ey\xed\xb06\x06@'
p468
tp469
bag22
(g23
(I0
tp470
g25
tp471
Rp472
(I1
(I3
tp473
g156
I00
S'\xf4\xfdJ\x1a(#\xec?H"\x9cD\x1aE\x05\xc0.\xa9\x0b\x87\xf8\xe1\x02@'
p474
tp475
bassS'mc_to_entity'
p476
(dp477
(g135
g136
tp478
(lp479
Vsquare_packing_box2
p480
aVrectangular_packing_box2
p481
aVsquare_packing_box1
p482
as(g197
g136
tp483
(lp484
Vrectangular_packing_box4
p485
aVsquare_packing_box1
p486
as(g248
g136
tp487
(lp488
Vsquare_packing_box3
p489
aVsquare_packing_box4
p490
aVrectangular_packing_box2
p491
aVsquare_packing_box1
p492
as(g311
g136
tp493
(lp494
Vrectangular_packing_box2
p495
aVsquare_packing_box1
p496
as(g368
g136
tp497
(lp498
Vsquare_packing_box4
p499
aVrectangular_packing_box4
p500
aVsquare_packing_box1
p501
as(g437
g136
tp502
(lp503
Vsquare_packing_box1
p504
assS'reachable_entities'
p505
(lp506
Vrectangular_packing_box1
p507
ag12
asS'collides'
p508
(dp509
Vrectangular_packing_box4
p510
c__builtin__
set
p511
((lp512
I3
aI577
aI538
aI413
aI36
aI37
aI38
aI220
aI561
aI178
aI435
aI309
aI54
aI188
aI63
aI64
aI65
aI194
aI69
aI202
aI205
aI79
aI376
aI595
aI215
aI89
aI90
aI219
aI92
aI611
aI550
aI114
aI115
aI248
aI379
aI511
atp513
Rp514
sVrectangular_packing_box2
p515
g511
((lp516
I132
aI5
aI6
aI136
aI137
aI394
aI523
aI276
aI155
aI157
aI133
aI35
aI165
aI166
aI296
aI547
aI308
aI163
aI134
aI197
aI198
aI584
aI518
aI82
aI83
aI84
aI597
aI607
aI355
aI362
aI107
aI338
aI251
aI252
aI383
atp517
Rp518
sVrectangular_packing_box3
p519
g511
((lp520
I384
aI257
aI264
aI265
aI532
aI494
aI158
aI159
aI164
aI433
aI564
aI448
aI452
aI583
aI328
aI458
aI589
aI346
aI478
aI356
aI229
aI486
aI490
aI366
aI502
aI122
atp521
Rp522
sVrectangular_packing_box1
p523
g511
((lp524
I257
aI452
aI229
aI356
aI394
aI589
aI564
aI580
aI532
aI502
aI164
aI478
aI575
atp525
Rp526
sVsquare_packing_box2
p527
g511
((lp528
I262
aI135
aI264
aI146
aI407
aI543
aI296
aI263
aI176
aI177
aI448
aI463
aI464
aI81
aI82
aI505
aI346
aI486
aI230
aI593
aI494
aI240
aI374
aI120
aI121
aI124
atp529
Rp530
sVsquare_packing_box3
p531
g511
((lp532
I144
aI545
aI425
aI302
aI303
aI307
aI438
aI442
aI453
aI457
aI343
aI473
aI474
aI612
aI614
aI367
aI368
aI369
aI370
aI500
aI246
aI247
aI377
atp533
Rp534
sVsquare_packing_box1
p535
g511
((lp536
I132
aI517
aI8
aI137
aI416
aI33
aI34
aI43
aI44
aI301
aI584
aI56
aI186
aI187
aI459
aI196
aI71
aI456
aI203
aI162
aI84
aI597
aI93
aI94
aI607
aI327
aI484
aI233
aI234
aI107
aI108
aI252
aI106
atp537
Rp538
sVsquare_packing_box4
p539
g511
((lp540
I1
aI2
aI393
aI395
aI144
aI403
aI539
aI541
aI160
aI289
aI37
aI38
aI39
aI40
aI41
aI555
aI302
aI304
aI561
aI178
aI435
aI54
aI62
aI63
aI288
aI454
aI248
aI342
aI348
aI605
aI611
aI612
aI550
aI115
aI376
aI377
aI379
aI380
atp541
Rp542
ssg84
g85
sS'pick_used'
p543
(dp544
Vrectangular_packing_box4
p545
(itrajectory_representation.operator
Operator
p546
(dp547
g8
I01
sg9
(dp548
S'object'
p549
Vrectangular_packing_box4
p550
ssg17
S'two_arm_pick'
p551
sg19
(dp552
S'q_goal'
p553
(lp554
g22
(g23
(I0
tp555
g25
tp556
Rp557
(I1
(I3
tp558
g145
I00
S'\x07\xe9O\xb6m\xdf\x08@\xa8\x97\xa9\xf9\xd4\x87\x19\xc0\x89f\x8d\xbc\x8a%\t\xc0'
p559
tp560
bag22
(g23
(I0
tp561
g25
tp562
Rp563
(I1
(I3
tp564
g145
I00
S'Z\x81Y\x8c\x16\xe1\t@\xc3\xba\xddw\xbf\xcb\x19\xc0\x8d\xb1I\x0f\xd7\xf3\x07@'
p565
tp566
bag22
(g23
(I0
tp567
g25
tp568
Rp569
(I1
(I3
tp570
g145
I00
S'\xdaz\xcff\xde\xea\xf9?F\xec\x8d\xdd\xb8\x14\x1a\xc0Z\xd0\xb9$\xf8\xbe\xc2?'
p571
tp572
bag22
(g23
(I0
tp573
g25
tp574
Rp575
(I1
(I3
tp576
g145
I00
S"\xc3Y\xe8\x8e\x9c\x9e\x02@\x13\xed\xf0w\xb2c\x1c\xc0\x04\xf6'R\x85A\xfd?"
p577
tp578
bag22
(g23
(I0
tp579
g25
tp580
Rp581
(I1
(I3
tp582
g145
I00
S'N\x1e\xb1\x91\xb4\xe1\xf9?\xd8\x88\xb7\x12KT\x19\xc04\x83\xccY\x9a\x18\xba\xbf'
p583
tp584
basS'is_feasible'
p585
I00
ssg47
(lp586
g22
(g23
(I0
tp587
g25
tp588
Rp589
(I1
(I3
tp590
g145
I00
S'\x98|-\xec\xef\xa9\xc7\xbf\xb8\xf3\xee\xe0Y\xf7\x17\xc0\xeb]\x082$\xe1\x06@'
p591
tp592
bag22
(g23
(I0
tp593
g25
tp594
Rp595
(I1
(I3
tp596
g156
I00
S'`$W\xed\x83\x04\xe1?@\xe9\x80h\xcc\xf0\x18\xc0{2\xe8\xfe\xbeY\r@'
p597
tp598
bag22
(g23
(I0
tp599
g25
tp600
Rp601
(I1
(I3
tp602
g156
I00
S'N\xcd\xaa\x1e;\x0f\xee?&\xa8j\x7f\xa2\xe5\x17\xc0\xc1rR\xf6\xd1Y\xe0\xbf'
p603
tp604
bag581
asbsVrectangular_packing_box2
p605
(itrajectory_representation.operator
Operator
p606
(dp607
g8
I01
sg9
(dp608
g549
Vrectangular_packing_box2
p609
ssg17
g551
sg19
(dp610
g553
(lp611
g22
(g23
(I0
tp612
g25
tp613
Rp614
(I1
(I3
tp615
g145
I00
S'\xad\xfb\xecw(n\xe5?\xc6g\x06\xe9\x82\xac\x17\xc0\x8f\x178\xa6\n8\xfc\xbf'
p616
tp617
bag22
(g23
(I0
tp618
g25
tp619
Rp620
(I1
(I3
tp621
g145
I00
S'`r\xf2O\xf2\x16\xe8?\xc9\xd22\x8f\x15\xbb\x16\xc0t\xa0\x16\x86\xf4\xf1\xf3\xbf'
p622
tp623
bag22
(g23
(I0
tp624
g25
tp625
Rp626
(I1
(I3
tp627
g145
I00
S'\xf9L?\xa2\x8a\xcd\xeb?\x9b(\xf8\x94\xb2(\x17\xc0\xdf\xbe<\x19W*\xfb\xbf'
p628
tp629
basg585
I00
ssg47
(lp630
g22
(g23
(I0
tp631
g25
tp632
Rp633
(I1
(I3
tp634
g145
I00
S'\x98|-\xec\xef\xa9\xc7\xbf\xb8\xf3\xee\xe0Y\xf7\x17\xc0\xeb]\x082$\xe1\x06@'
p635
tp636
bag22
(g23
(I0
tp637
g25
tp638
Rp639
(I1
(I3
tp640
g156
I00
S'\x0c\x8b\xaa\xe9\xe8%\xb0\xbf\xf7\x05\x80\xfb=|\x18\xc0X\xd6!\xf5\xa2\x12\x07@'
p641
tp642
bag22
(g23
(I0
tp643
g25
tp644
Rp645
(I1
(I3
tp646
g156
I00
S",0}\x1d\xd8'\xe3?\x1a_'\xd6T\x08\x17\xc0A\xde\xdb2\xd8\xd0\x14@"
p647
tp648
bag620
asbsVrectangular_packing_box3
p649
(itrajectory_representation.operator
Operator
p650
(dp651
g8
I01
sg9
(dp652
g549
Vrectangular_packing_box3
p653
ssg17
g551
sg19
(dp654
g553
(lp655
g22
(g23
(I0
tp656
g25
tp657
Rp658
(I1
(I3
tp659
g145
I00
S'\xaa\xb5\xfd\x92\x969\xef?\xe0Bm\x0bT\x8b\x1d\xc0w\x839\xe0\xa1q\x06\xc0'
p660
tp661
bag22
(g23
(I0
tp662
g25
tp663
Rp664
(I1
(I3
tp665
g145
I00
S'\xf4\xe0d\x94\x13E\xeb?\xc2\xac\xa2T\xfeS\x1d\xc0l\x95\x81\xe0eC\x05\xc0'
p666
tp667
bag22
(g23
(I0
tp668
g25
tp669
Rp670
(I1
(I3
tp671
g145
I00
S'\x0e\tB\xe7\x95\xdc\xc1\xbf\xd4\xb7n&\xe6\xf4\x1c\xc0\xafw\xe4/\xc2\xea\xe9\xbf'
p672
tp673
bag22
(g23
(I0
tp674
g25
tp675
Rp676
(I1
(I3
tp677
g145
I00
S'\x93"\xaf\x85\xd6\xd9\xf1?\xce3o\xc3\x8e\xe3\x1d\xc0\xf2\xdcj\xbb\x00q\x04\xc0'
p678
tp679
bag22
(g23
(I0
tp680
g25
tp681
Rp682
(I1
(I3
tp683
g145
I00
S'\x98X\x7f\xa0oV\xb7\xbf\xe9\xc0IF\x04H\x1c\xc0\xe1\xb1\xa1\x05\x1e\x11\xf1\xbf'
p684
tp685
basg585
I00
ssg47
(lp686
g22
(g23
(I0
tp687
g25
tp688
Rp689
(I1
(I3
tp690
g145
I00
S'\x98|-\xec\xef\xa9\xc7\xbf\xb8\xf3\xee\xe0Y\xf7\x17\xc0\xeb]\x082$\xe1\x06@'
p691
tp692
bag22
(g23
(I0
tp693
g25
tp694
Rp695
(I1
(I3
tp696
g156
I00
S'`$W\xed\x83\x04\xe1?@\xe9\x80h\xcc\xf0\x18\xc0{2\xe8\xfe\xbeY\r@'
p697
tp698
bag22
(g23
(I0
tp699
g25
tp700
Rp701
(I1
(I3
tp702
g156
I00
S'\xf8\xfc\x1a\xd0\xc9l\xe8?\x8a\x897\x8e~\x98\x1a\xc0\xaf\xf7\xb87\xc6\xa7\x01\xc0'
p703
tp704
bag664
asbsg507
(itrajectory_representation.operator
Operator
p705
(dp706
g8
I01
sg9
(dp707
g549
Vrectangular_packing_box1
p708
ssg17
g551
sg19
(dp709
g553
(lp710
g22
(g23
(I0
tp711
g25
tp712
Rp713
(I1
(I3
tp714
g145
I00
S'\xcb\x83\xdbZ\x1b6\xc0\xbf\xec\xcb\xfc\x9e.\xa2\x1a\xc0\x84\xc6\t(\xebU\xf5\xbf'
p715
tp716
bag22
(g23
(I0
tp717
g25
tp718
Rp719
(I1
(I3
tp720
g145
I00
S'\xda*\xbc\xa4\xd7G\xc9\xbf\x84G\xfc~\xd7\x98\x1a\xc0<^*S2\xb5\xfa\xbf'
p721
tp722
bag22
(g23
(I0
tp723
g25
tp724
Rp725
(I1
(I3
tp726
g145
I00
S"pIu\xa7\xb7\xb9|?\x11'\x12\xc0h\x03\x1b\xc0\xb0\xe7-\rs(\xff\xbf"
p727
tp728
basg585
I00
ssg47
(lp729
g22
(g23
(I0
tp730
g25
tp731
Rp732
(I1
(I3
tp733
g145
I00
S'\x98|-\xec\xef\xa9\xc7\xbf\xb8\xf3\xee\xe0Y\xf7\x17\xc0\xeb]\x082$\xe1\x06@'
p734
tp735
bag22
(g23
(I0
tp736
g25
tp737
Rp738
(I1
(I3
tp739
g156
I00
S'\x0c\x8b\xaa\xe9\xe8%\xb0\xbf\xf7\x05\x80\xfb=|\x18\xc0X\xd6!\xf5\xa2\x12\x07@'
p740
tp741
bag22
(g23
(I0
tp742
g25
tp743
Rp744
(I1
(I3
tp745
g156
I00
S'\xae\xa6N<\x83\t\xc9\xbfuz\x99\xff\xe5\xfa\x19\xc0ZD\x88\xc9\x8a\x8d\x11@'
p746
tp747
bag719
asbsVsquare_packing_box2
p748
(itrajectory_representation.operator
Operator
p749
(dp750
g8
I01
sg9
(dp751
g549
Vsquare_packing_box2
p752
ssg17
g551
sg19
(dp753
g553
(lp754
g22
(g23
(I0
tp755
g25
tp756
Rp757
(I1
(I3
tp758
g145
I00
S'\xc5\xd4|\x12-\xde\x00@G6\x8f\xc8\xd7\xe5\x1d\xc0\xffz@>\xb6\xd1\x08\xc0'
p759
tp760
bag22
(g23
(I0
tp761
g25
tp762
Rp763
(I1
(I3
tp764
g145
I00
S'\xb4/\x88\x0c\xe4s\x01@1\xe6\xb6w\xd0\x7f\x1e\xc0B+_\xd6\xd7\xac\x07@'
p765
tp766
bag22
(g23
(I0
tp767
g25
tp768
Rp769
(I1
(I3
tp770
g145
I00
S'G\x97\x8d\x04\xeb\xb3\xe6?\xec\xbaX\xc8\x0b\xc8\x1e\xc0\x80\x92\xe6\r\xa5\xc8\x9f?'
p771
tp772
basg585
I00
ssg47
(lp773
g22
(g23
(I0
tp774
g25
tp775
Rp776
(I1
(I3
tp777
g145
I00
S'\x98|-\xec\xef\xa9\xc7\xbf\xb8\xf3\xee\xe0Y\xf7\x17\xc0\xeb]\x082$\xe1\x06@'
p778
tp779
bag22
(g23
(I0
tp780
g25
tp781
Rp782
(I1
(I3
tp783
g156
I00
S'\xc0T\xe2\x97\xaf3h\xbfv\xa30\xd5\xeb\xd1\x1a\xc0\x8a\rz\xc6\xa6z\x04@'
p784
tp785
bag22
(g23
(I0
tp786
g25
tp787
Rp788
(I1
(I3
tp789
g156
I00
S'\x0c\xff\xe10\xe4\xfb\xe2?\xf1}1j\xd3\x96\x1c\xc0B\xd2\xc8(\xcc_\xe9?'
p790
tp791
bag769
asbsVsquare_packing_box3
p792
(itrajectory_representation.operator
Operator
p793
(dp794
g8
I01
sg9
(dp795
g549
Vsquare_packing_box3
p796
ssg17
g551
sg19
(dp797
g553
(lp798
g22
(g23
(I0
tp799
g25
tp800
Rp801
(I1
(I3
tp802
g145
I00
S"\xe5\x16\x8cKm)\x0f@\xc0\xef\xe1\xc0%W\x1c\xc0d'-z/\xba\xfc?"
p803
tp804
bag22
(g23
(I0
tp805
g25
tp806
Rp807
(I1
(I3
tp808
g145
I00
S"T\xc7]\x84uy\x08@\xc9\xa0/A\xe2F\x1b\xc0x'l\t\x12w\xcc?"
p809
tp810
bag22
(g23
(I0
tp811
g25
tp812
Rp813
(I1
(I3
tp814
g145
I00
S'\xca\xc9\xda%\x95\x94\x0e@\xd0\x14\xef\x12|\xed\x1b\xc0)\x9d\xfag&6\xfe?'
p815
tp816
basg585
I00
ssg47
(lp817
g22
(g23
(I0
tp818
g25
tp819
Rp820
(I1
(I3
tp821
g145
I00
S'\x98|-\xec\xef\xa9\xc7\xbf\xb8\xf3\xee\xe0Y\xf7\x17\xc0\xeb]\x082$\xe1\x06@'
p822
tp823
bag22
(g23
(I0
tp824
g25
tp825
Rp826
(I1
(I3
tp827
g156
I00
S'\xc0T\xe2\x97\xaf3h\xbfv\xa30\xd5\xeb\xd1\x1a\xc0\x8a\rz\xc6\xa6z\x04@'
p828
tp829
bag22
(g23
(I0
tp830
g25
tp831
Rp832
(I1
(I3
tp833
g156
I00
S'\xa1\xa7\xe1\x952\xb8\xd3?\xa5q<Z@\x9e\x1b\xc0\xbc\xd6\x90\xe8\x98\xf3\x08@'
p834
tp835
bag22
(g23
(I0
tp836
g25
tp837
Rp838
(I1
(I3
tp839
g156
I00
S'\x0c\x0f=\x82\xe8\x10\xef?\x95;\xd2\x17&\xe7\x1b\xc0\xf2\xbb\xbd\xb4q\x0b\t@'
p840
tp841
bag22
(g23
(I0
tp842
g25
tp843
Rp844
(I1
(I3
tp845
g156
I00
S'zNu~${\xfb?c\xfe\x8c\xbf\x1f\xab\x1b\xc0\x9b\xbb\x05m\x02\x02\x07@'
p846
tp847
bag22
(g23
(I0
tp848
g25
tp849
Rp850
(I1
(I3
tp851
g156
I00
S'\tf\xd5\xc3\xdb\xc1\x02@y9\xac\xaa\x85r\x1a\xc0n\x19\xc0\xf8c\xa8\xe2\xbf'
p852
tp853
bag807
asbsg12
(itrajectory_representation.operator
Operator
p854
(dp855
g8
I01
sg9
(dp856
g11
g12
ssg17
S'two_arm_pick'
p857
sg19
(dp858
g21
g22
(g23
(I0
tp859
g25
tp860
Rp861
(I1
(I3
tp862
g32
I00
S'0REg\xf7\xbb\xe7?\x01\x90 +\x19\xf6\x13\xc0\xcf?:Lr@\xe8\xbf'
p863
tp864
bssg47
(lp865
g22
(g23
(I0
tp866
g25
tp867
Rp868
(I1
(I3
tp869
g145
I00
S'\x98|-\xec\xef\xa9\xc7\xbf\xb8\xf3\xee\xe0Y\xf7\x17\xc0\xeb]\x082$\xe1\x06@'
p870
tp871
bag22
(g23
(I0
tp872
g25
tp873
Rp874
(I1
(I3
tp875
g156
I00
S'\xd0\x185\xfd);\xc3?\x1c\xdfM\xe9\x03\xf1\x16\xc0y\xe4\x94w\xb3\xb2\x08\xc0'
p876
tp877
bag22
(g23
(I0
tp878
g25
tp879
Rp880
(I1
(I3
tp881
g156
I00
S'\xff\x1dX8\xbe\xd2\xc9?\x91h\xd1{\x1e(\x16\xc0\xee\xfeSI\xc3\xd4\x03\xc0'
p882
tp883
bag22
(g23
(I0
tp884
g25
tp885
Rp886
(I1
(I3
tp887
g156
I00
S"\xb2&6mg)\xe8?\x99\xe0G'\x16\xe0\x13\xc0\xc8oL\xf5\x17p\xe6\xbf"
p888
tp889
bag861
asbsVsquare_packing_box4
p890
(itrajectory_representation.operator
Operator
p891
(dp892
g8
I01
sg9
(dp893
g549
Vsquare_packing_box4
p894
ssg17
g551
sg19
(dp895
g553
(lp896
g22
(g23
(I0
tp897
g25
tp898
Rp899
(I1
(I3
tp900
g145
I00
S'xf\xd7>\xf2\xb5\x00@\xd1%\xd8\x87\n\xf3\x18\xc0\xb9/\xeb7\xe5\xcc\xec?'
p901
tp902
bag22
(g23
(I0
tp903
g25
tp904
Rp905
(I1
(I3
tp906
g145
I00
S'gz\t\xcaZ\xdf\x02@\xda\xf9Z\xd3\xbcE\x19\xc0v#r\\3\xd5\xe6?'
p907
tp908
bag22
(g23
(I0
tp909
g25
tp910
Rp911
(I1
(I3
tp912
g145
I00
S'C\x08\x13\xff\x10\x8a\x00@Z\r\x0eL\xed\xed\x18\xc0lI\x0b\xaa\x07t\xd2?'
p913
tp914
basg585
I00
ssg47
(lp915
g22
(g23
(I0
tp916
g25
tp917
Rp918
(I1
(I3
tp919
g145
I00
S'\x98|-\xec\xef\xa9\xc7\xbf\xb8\xf3\xee\xe0Y\xf7\x17\xc0\xeb]\x082$\xe1\x06@'
p920
tp921
bag22
(g23
(I0
tp922
g25
tp923
Rp924
(I1
(I3
tp925
g156
I00
S'`$W\xed\x83\x04\xe1?@\xe9\x80h\xcc\xf0\x18\xc0{2\xe8\xfe\xbeY\r@'
p926
tp927
bag22
(g23
(I0
tp928
g25
tp929
Rp930
(I1
(I3
tp931
g156
I00
S'\x07\xe5\xeeo\xc2@\xf0?\x80*\x19Ng\xcf\x17\xc0\xccm\xca\xd2+4\x0f@'
p932
tp933
bag22
(g23
(I0
tp934
g25
tp935
Rp936
(I1
(I3
tp937
g156
I00
S'3\x82\x8a\x8fh\xb2\xf8?\xecMw\xff=$\x19\xc0\x10\x03\x08*\x90Q\x89?'
p938
tp939
bag911
asbssS'mc_paths'
p940
(dp941
sS'robot'
p942
NsS'reachable_obj_region_pairs'
p943
(lp944
sS'sampled_pick_configs_for_objects'
p945
(dp946
sS'mc_calls'
p947
I0
sS'pick_poses'
p948
g544
sS'problem_env'
p949
NsS'evaluations'
p950
(dp951
(g311
g437
g136
tp952
I01
s(g437
g368
g136
tp953
I00
s(g248
g311
g136
tp954
I00
s(g368
Vsquare_packing_box1
p955
g136
tp956
I01
s(g197
g311
g136
tp957
I00
s(g368
g437
g136
tp958
I00
s(g248
g197
g136
tp959
I01
s(g311
g955
g136
tp960
I01
s(g311
g135
g136
tp961
I00
s(g248
g368
g136
tp962
I01
s(g197
g368
g136
tp963
I00
s(g368
g197
g136
tp964
I01
s(g437
Vrectangular_packing_box1
p965
g136
tp966
I00
s(g135
g955
g136
tp967
I01
s(g197
g965
g136
tp968
I00
s(g248
g965
g136
tp969
I00
s(g437
g955
g136
tp970
I01
s(g135
g248
g136
tp971
I00
s(g437
g197
g136
tp972
I00
s(g437
g135
g136
tp973
I00
s(g135
g368
g136
tp974
I00
s(g135
g965
g136
tp975
I00
s(g368
g965
g136
tp976
I00
s(g197
g437
g136
tp977
I00
s(g248
g437
g136
tp978
I01
s(g311
g965
g136
tp979
I00
s(g197
g248
g136
tp980
I01
s(g135
g197
g136
tp981
I00
s(g311
g248
g136
tp982
I00
s(g368
g311
g136
tp983
I00
s(g437
g248
g136
tp984
I00
s(g311
g197
g136
tp985
I00
s(g197
g135
g136
tp986
I00
s(g311
g368
g136
tp987
I00
s(g248
g135
g136
tp988
I00
s(g135
g437
g136
tp989
I01
s(g437
g311
g136
tp990
I00
s(g248
g955
g136
tp991
I01
s(g197
g955
g136
tp992
I01
s(g368
g135
g136
tp993
I00
s(g135
g311
g136
tp994
I01
s(g368
g248
g136
tp995
I01
ssS'paths_to_reachable_entities'
p996
NsS'use_shortest_path'
p997
I01
sbsS'ternary_edges'
p998
(dp999
(g437
g437
g136
tp1000
(lp1001
I00
as(g955
S'loading_region'
p1002
g1002
tp1003
(lp1004
I00
as(S'entire_region'
p1005
g965
g136
tp1006
(lp1007
I00
as(g311
g197
g1002
tp1008
(lp1009
I00
as(g136
g136
g136
tp1010
(lp1011
I00
as(g197
g437
g1002
tp1012
(lp1013
I00
as(g955
g135
g136
tp1014
(lp1015
I00
as(g136
g248
g136
tp1016
(lp1017
I00
as(g311
g955
g136
tp1018
(lp1019
I01
as(g135
g248
g1002
tp1020
(lp1021
I00
as(g136
g197
g1002
tp1022
(lp1023
I00
as(g311
g1005
g136
tp1024
(lp1025
I00
as(g1002
g136
g1002
tp1026
(lp1027
I00
as(g248
g368
g136
tp1028
(lp1029
I01
as(g197
g1005
g136
tp1030
(lp1031
I00
as(g311
g965
g1002
tp1032
(lp1033
I00
as(g368
g1002
g136
tp1034
(lp1035
I00
as(g1005
g437
g1002
tp1036
(lp1037
I00
as(g136
g1005
g136
tp1038
(lp1039
I00
as(g437
g1002
g136
tp1040
(lp1041
I00
as(g368
g1005
g136
tp1042
(lp1043
I00
as(g955
g955
g1002
tp1044
(lp1045
I00
as(g1002
g197
g1002
tp1046
(lp1047
I00
as(g1005
g1002
g136
tp1048
(lp1049
I00
as(g1005
g311
g136
tp1050
(lp1051
I00
as(g1002
g1002
g136
tp1052
(lp1053
I00
as(g368
g248
g1002
tp1054
(lp1055
I00
as(g136
g136
g1002
tp1056
(lp1057
I00
as(g965
g311
g1002
tp1058
(lp1059
I00
as(g437
g197
g136
tp1060
(lp1061
I00
as(g368
g955
g136
tp1062
(lp1063
I01
as(g965
g136
g1002
tp1064
(lp1065
I00
as(g136
g437
g1002
tp1066
(lp1067
I00
as(g965
g135
g1002
tp1068
(lp1069
I00
as(g135
g965
g136
tp1070
(lp1071
I00
as(g1002
g955
g1002
tp1072
(lp1073
I00
as(g197
g311
g1002
tp1074
(lp1075
I00
as(g437
g437
g1002
tp1076
(lp1077
I00
as(g1005
g197
g136
tp1078
(lp1079
I00
as(g1002
g136
g136
tp1080
(lp1081
I00
as(g248
g437
g136
tp1082
(lp1083
I01
as(g136
g135
g136
tp1084
(lp1085
I00
as(g311
g965
g136
tp1086
(lp1087
I00
as(g135
g197
g136
tp1088
(lp1089
I00
as(g955
g135
g1002
tp1090
(lp1091
I00
as(g368
g311
g136
tp1092
(lp1093
I00
as(g311
g955
g1002
tp1094
(lp1095
I00
as(g311
g437
g1002
tp1096
(lp1097
I00
as(g1005
g311
g1002
tp1098
(lp1099
I00
as(g1002
g135
g1002
tp1100
(lp1101
I00
as(g1005
g136
g136
tp1102
(lp1103
I00
as(g248
g136
g136
tp1104
(lp1105
I00
as(g1002
g1005
g136
tp1106
(lp1107
I00
as(g437
g197
g1002
tp1108
(lp1109
I00
as(g368
g437
g1002
tp1110
(lp1111
I00
as(g368
g368
g136
tp1112
(lp1113
I00
as(g965
g135
g136
tp1114
(lp1115
I00
as(g1005
g437
g136
tp1116
(lp1117
I00
as(g965
g1002
g1002
tp1118
(lp1119
I00
as(g197
g955
g136
tp1120
(lp1121
I01
as(g955
g955
g136
tp1122
(lp1123
I00
as(g955
g248
g136
tp1124
(lp1125
I00
as(g248
g437
g1002
tp1126
(lp1127
I00
as(g197
g965
g1002
tp1128
(lp1129
I00
as(g368
g248
g136
tp1130
(lp1131
I01
as(g965
g311
g136
tp1132
(lp1133
I00
as(g437
g965
g1002
tp1134
(lp1135
I00
as(g965
g136
g136
tp1136
(lp1137
I00
as(g311
g437
g136
tp1138
(lp1139
I01
as(g437
g368
g136
tp1140
(lp1141
I00
as(g135
g965
g1002
tp1142
(lp1143
I00
as(g136
g311
g1002
tp1144
(lp1145
I00
as(g1005
g136
g1002
tp1146
(lp1147
I00
as(g1005
g197
g1002
tp1148
(lp1149
I00
as(g368
g437
g136
tp1150
(lp1151
I00
as(g135
g368
g1002
tp1152
(lp1153
I00
as(g437
g1005
g1002
tp1154
(lp1155
I00
as(g965
g1002
g136
tp1156
(lp1157
I00
as(g368
g311
g1002
tp1158
(lp1159
I00
as(g368
g965
g1002
tp1160
(lp1161
I00
as(g197
g955
g1002
tp1162
(lp1163
I00
as(g136
g135
g1002
tp1164
(lp1165
I00
as(g1005
g368
g1002
tp1166
(lp1167
I00
as(g1002
g135
g136
tp1168
(lp1169
I00
as(g1002
g311
g1002
tp1170
(lp1171
I00
as(g437
g965
g136
tp1172
(lp1173
I00
as(g197
g965
g136
tp1174
(lp1175
I00
as(g1002
g368
g136
tp1176
(lp1177
I00
as(g437
g368
g1002
tp1178
(lp1179
I00
as(g437
g248
g1002
tp1180
(lp1181
I00
as(g135
g197
g1002
tp1182
(lp1183
I00
as(g955
g248
g1002
tp1184
(lp1185
I00
as(g965
g368
g1002
tp1186
(lp1187
I00
as(g136
g955
g1002
tp1188
(lp1189
I00
as(g135
g1002
g1002
tp1190
(lp1191
I00
as(g248
g136
g1002
tp1192
(lp1193
I00
as(g955
g965
g136
tp1194
(lp1195
I00
as(g437
g1005
g136
tp1196
(lp1197
I00
as(g248
g311
g1002
tp1198
(lp1199
I00
as(g135
g437
g1002
tp1200
(lp1201
I00
as(g368
g965
g136
tp1202
(lp1203
I00
as(g197
g1002
g1002
tp1204
(lp1205
I00
as(g311
g136
g136
tp1206
(lp1207
I00
as(g197
g248
g136
tp1208
(lp1209
I01
as(g136
g368
g1002
tp1210
(lp1211
I00
as(g1002
g965
g1002
tp1212
(lp1213
I00
as(g1002
g368
g1002
tp1214
(lp1215
I00
as(g955
g368
g136
tp1216
(lp1217
I00
as(g965
g368
g136
tp1218
(lp1219
I00
as(g955
g965
g1002
tp1220
(lp1221
I00
as(g135
g437
g136
tp1222
(lp1223
I01
as(g437
g311
g136
tp1224
(lp1225
I00
as(g135
g136
g1002
tp1226
(lp1227
I00
as(g197
g1002
g136
tp1228
(lp1229
I00
as(g1002
g248
g1002
tp1230
(lp1231
I00
as(g437
g248
g136
tp1232
(lp1233
I00
as(g135
g135
g136
tp1234
(lp1235
I00
as(g248
g248
g136
tp1236
(lp1237
I00
as(g248
g135
g1002
tp1238
(lp1239
I00
as(g135
g1002
g136
tp1240
(lp1241
I00
as(g368
g197
g136
tp1242
(lp1243
I01
as(g248
g311
g136
tp1244
(lp1245
I00
as(g311
g1002
g1002
tp1246
(lp1247
I00
as(g135
g1005
g1002
tp1248
(lp1249
I00
as(g311
g136
g1002
tp1250
(lp1251
I00
as(g955
g311
g1002
tp1252
(lp1253
I00
as(g197
g248
g1002
tp1254
(lp1255
I00
as(g368
g136
g1002
tp1256
(lp1257
I00
as(g135
g136
g136
tp1258
(lp1259
I00
as(g1002
g248
g136
tp1260
(lp1261
I00
as(g965
g965
g136
tp1262
(lp1263
I00
as(g1002
g197
g136
tp1264
(lp1265
I00
as(g197
g368
g136
tp1266
(lp1267
I00
as(g955
g437
g136
tp1268
(lp1269
I00
as(g955
g368
g1002
tp1270
(lp1271
I00
as(g248
g955
g1002
tp1272
(lp1273
I00
as(g136
g311
g136
tp1274
(lp1275
I00
as(g1005
g135
g1002
tp1276
(lp1277
I00
as(g135
g955
g136
tp1278
(lp1279
I01
as(g965
g1005
g136
tp1280
(lp1281
I00
as(g368
g197
g1002
tp1282
(lp1283
I00
as(g368
g135
g1002
tp1284
(lp1285
I00
as(g248
g965
g136
tp1286
(lp1287
I00
as(g437
g311
g1002
tp1288
(lp1289
I00
as(g248
g1002
g136
tp1290
(lp1291
I00
as(g135
g1005
g136
tp1292
(lp1293
I00
as(g197
g135
g1002
tp1294
(lp1295
I00
as(g437
g955
g136
tp1296
(lp1297
I01
as(g368
g955
g1002
tp1298
(lp1299
I00
as(g197
g197
g1002
tp1300
(lp1301
I00
as(g248
g248
g1002
tp1302
(lp1303
I00
as(g965
g965
g1002
tp1304
(lp1305
I00
as(g955
g197
g1002
tp1306
(lp1307
I00
as(g197
g311
g136
tp1308
(lp1309
I00
as(g1005
g955
g136
tp1310
(lp1311
I00
as(g136
g1005
g1002
tp1312
(lp1313
I00
as(g136
g965
g1002
tp1314
(lp1315
I00
as(g311
g1002
g136
tp1316
(lp1317
I00
as(g955
g437
g1002
tp1318
(lp1319
I00
as(g965
g955
g1002
tp1320
(lp1321
I00
as(g135
g135
g1002
tp1322
(lp1323
I00
as(g1005
g135
g136
tp1324
(lp1325
I00
as(g311
g135
g1002
tp1326
(lp1327
I00
as(g965
g1005
g1002
tp1328
(lp1329
I00
as(g955
g311
g136
tp1330
(lp1331
I00
as(g248
g965
g1002
tp1332
(lp1333
I00
as(g248
g135
g136
tp1334
(lp1335
I00
as(g197
g135
g136
tp1336
(lp1337
I00
as(g955
g136
g1002
tp1338
(lp1339
I00
as(g311
g368
g136
tp1340
(lp1341
I00
as(g368
g368
g1002
tp1342
(lp1343
I00
as(g248
g1005
g136
tp1344
(lp1345
I00
as(g1002
g1005
g1002
tp1346
(lp1347
I00
as(g197
g368
g1002
tp1348
(lp1349
I00
as(g1002
g965
g136
tp1350
(lp1351
I00
as(g1005
g1005
g1002
tp1352
(lp1353
I00
as(g248
g955
g136
tp1354
(lp1355
I01
as(g955
g197
g136
tp1356
(lp1357
I00
as(g1002
g437
g1002
tp1358
(lp1359
I00
as(g135
g955
g1002
tp1360
(lp1361
I00
as(g368
g136
g136
tp1362
(lp1363
I00
as(g1005
g955
g1002
tp1364
(lp1365
I00
as(g368
g135
g136
tp1366
(lp1367
I00
as(g135
g311
g136
tp1368
(lp1369
I01
as(g248
g1002
g1002
tp1370
(lp1371
I00
as(g437
g955
g1002
tp1372
(lp1373
I00
as(g965
g437
g136
tp1374
(lp1375
I00
as(g1005
g1002
g1002
tp1376
(lp1377
I00
as(g1002
g437
g136
tp1378
(lp1379
I00
as(g955
g1005
g136
tp1380
(lp1381
I00
as(g311
g368
g1002
tp1382
(lp1383
I00
as(g311
g248
g1002
tp1384
(lp1385
I00
as(g197
g136
g136
tp1386
(lp1387
I00
as(g248
g1005
g1002
tp1388
(lp1389
I00
as(g248
g197
g136
tp1390
(lp1391
I01
as(g1005
g248
g1002
tp1392
(lp1393
I00
as(g136
g965
g136
tp1394
(lp1395
I00
as(g136
g368
g136
tp1396
(lp1397
I00
as(g965
g955
g136
tp1398
(lp1399
I00
as(g965
g248
g136
tp1400
(lp1401
I00
as(g1005
g368
g136
tp1402
(lp1403
I00
as(g311
g135
g136
tp1404
(lp1405
I00
as(g311
g311
g1002
tp1406
(lp1407
I00
as(g965
g197
g1002
tp1408
(lp1409
I00
as(g197
g136
g1002
tp1410
(lp1411
I00
as(g437
g136
g136
tp1412
(lp1413
I00
as(g955
g136
g136
tp1414
(lp1415
I00
as(g965
g437
g1002
tp1416
(lp1417
I00
as(g197
g437
g136
tp1418
(lp1419
I00
as(g136
g1002
g136
tp1420
(lp1421
I00
as(g1005
g1005
g136
tp1422
(lp1423
I00
as(g437
g135
g1002
tp1424
(lp1425
I00
as(g955
g1005
g1002
tp1426
(lp1427
I00
as(g1002
g311
g136
tp1428
(lp1429
I00
as(g135
g248
g136
tp1430
(lp1431
I00
as(g1005
g248
g136
tp1432
(lp1433
I00
as(g955
g1002
g136
tp1434
(lp1435
I00
as(g135
g311
g1002
tp1436
(lp1437
I00
as(g136
g955
g136
tp1438
(lp1439
I00
as(g1005
g965
g1002
tp1440
(lp1441
I00
as(g197
g1005
g1002
tp1442
(lp1443
I00
as(g311
g311
g136
tp1444
(lp1445
I00
as(g965
g197
g136
tp1446
(lp1447
I00
as(g368
g1005
g1002
tp1448
(lp1449
I00
as(g311
g248
g136
tp1450
(lp1451
I00
as(g136
g197
g136
tp1452
(lp1453
I00
as(g135
g368
g136
tp1454
(lp1455
I00
as(g248
g197
g1002
tp1456
(lp1457
I00
as(g197
g197
g136
tp1458
(lp1459
I00
as(g965
g248
g1002
tp1460
(lp1461
I00
as(g311
g197
g136
tp1462
(lp1463
I00
as(g368
g1002
g1002
tp1464
(lp1465
I00
as(g136
g437
g136
tp1466
(lp1467
I00
as(g437
g1002
g1002
tp1468
(lp1469
I00
as(g136
g248
g1002
tp1470
(lp1471
I00
as(g437
g136
g1002
tp1472
(lp1473
I00
as(g1002
g1002
g1002
tp1474
(lp1475
I00
as(g311
g1005
g1002
tp1476
(lp1477
I00
as(g248
g368
g1002
tp1478
(lp1479
I00
as(g136
g1002
g1002
tp1480
(lp1481
I00
as(g437
g135
g136
tp1482
(lp1483
I00
as(g1002
g955
g136
tp1484
(lp1485
I00
assg543
g544
sS'use_prm'
p1486
I01
sS'object_names'
p1487
(lp1488
S'square_packing_box1'
p1489
aS'rectangular_packing_box1'
p1490
aS'square_packing_box2'
p1491
aS'rectangular_packing_box2'
p1492
aS'square_packing_box3'
p1493
aS'rectangular_packing_box3'
p1494
aS'square_packing_box4'
p1495
aS'rectangular_packing_box4'
p1496
asg949
NsS'current_holding_collides'
p1497
NsS'object_poses'
p1498
(dp1499
Vrectangular_packing_box4
p1500
g22
(g23
(I0
tp1501
g25
tp1502
Rp1503
(I1
(I1
I3
tp1504
g145
I00
S'6\xaa|\x02\x80\xe1\x02@\x16\x90\x07\x0by\xba\x19\xc0\xd73l\x9e ^\t@'
p1505
tp1506
bsVrectangular_packing_box2
p1507
g22
(g23
(I0
tp1508
g25
tp1509
Rp1510
(I1
(I1
I3
tp1511
g145
I00
S't\xf6\xa9[\xe0\x99\xe3?Z\xcb\xc5\x94\x1f:\x1a\xc0I\xe9\xcb\xb9\xff?\x18@'
p1512
tp1513
bsVrectangular_packing_box3
p1514
g22
(g23
(I0
tp1515
g25
tp1516
Rp1517
(I1
(I1
I3
tp1518
g145
I00
S"\xe8'\xc4\xce\xcbG\xd8?wA\xde\xb6\xe4<\x1f\xc0\x9a\xa2\xd3\\_\xb6\x00@"
p1519
tp1520
bsVrectangular_packing_box1
p1521
g22
(g23
(I0
tp1522
g25
tp1523
Rp1524
(I1
(I1
I3
tp1525
g145
I00
S'\xf7\xaa\x82\xb6Ig\xd5\xbfv\xd5\x0c\n\x9c\xa6\x1d\xc0\xaa\xf9\x04sa\x97\xf6?'
p1526
tp1527
bsVsquare_packing_box2
p1528
g22
(g23
(I0
tp1529
g25
tp1530
Rp1531
(I1
(I1
I3
tp1532
g145
I00
S'r\x9cj\x8a>%\xf6?\x9c[$\xcdT\xfd\x1d\xc0\xd5\xe6b\xb8f\xec\x13@'
p1533
tp1534
bsVsquare_packing_box3
p1535
g22
(g23
(I0
tp1536
g25
tp1537
Rp1538
(I1
(I1
I3
tp1539
g145
I00
S'W\x8eG\xae\xaag\r@\x00\xdb\xab\xe1\x17\x98\x19\xc0\x13\x9f\xc5z\x0fc\xe2?'
p1540
tp1541
bsVsquare_packing_box1
p1542
g22
(g23
(I0
tp1543
g25
tp1544
Rp1545
(I1
(I1
I3
tp1546
g145
I00
S'\xfd\x96\x95\xb1\xf6\x1c\xf0?oa\xd9\x12\x91\x0e\x17\xc0f1.\xda\x01\x92\x00@'
p1547
tp1548
bsVsquare_packing_box4
p1549
g22
(g23
(I0
tp1550
g25
tp1551
Rp1552
(I1
(I1
I3
tp1553
g145
I00
S'_\xec\x0e\xa8I%\x06@3x\x93\xe8\xb6f\x17\xc0|\xdc\x07\t\x0f<\x15@'
p1554
tp1555
bssS'reachable_regions_while_holding'
p1556
(lp1557
(g545
g1002
tp1558
a(g605
g1002
tp1559
a(g649
g1002
tp1560
a(g507
g1002
tp1561
a(g748
g1002
tp1562
a(g792
g1002
tp1563
a(g12
g1002
tp1564
a(g890
g1002
tp1565
a(g507
g136
tp1566
a(g12
g136
tp1567
asS'in_region'
p1568
(itrajectory_representation.predicates.in_region
InRegion
p1569
(dp1570
g949
NsbsS'cached_pick_paths'
p1571
(dp1572
g545
g586
sg605
g630
sg649
g686
sg507
g729
sg748
g773
sg792
g817
sg12
g865
sg890
g915
ssg508
(dp1573
(Vsquare_packing_box3
p1574
(cnumpy.core.multiarray
scalar
p1575
(g145
S'&s,\xef\xaag\r@'
p1576
tp1577
Rp1578
g1575
(g145
S'\xc4\x07v\xfc\x17\x98\x19\xc0'
p1579
tp1580
Rp1581
g1575
(g145
S'(b\x11\xc3\x0ec\xe2?'
p1582
tp1583
Rp1584
tp1585
tp1586
g534
s(Vsquare_packing_box2
p1587
(g1575
(g145
S'\xe0\xf5\x99\xb3>%\xf6?'
p1588
tp1589
Rp1590
g1575
(g145
S'\x10\xe8L\xdaT\xfd\x1d\xc0'
p1591
tp1592
Rp1593
g1575
(g145
S'\xfb\xafs\xd3f\xec\x13@'
p1594
tp1595
Rp1596
tp1597
tp1598
g530
s(Vrectangular_packing_box1
p1599
(g1575
(g145
S'\xfe_u\xe4Hg\xd5\xbf'
p1600
tp1601
Rp1602
g1575
(g145
S'-\x95\xb7#\x9c\xa6\x1d\xc0'
p1603
tp1604
Rp1605
g1575
(g145
S'\x875\x95Ea\x97\xf6?'
p1606
tp1607
Rp1608
tp1609
tp1610
g526
s(Vsquare_packing_box4
p1611
(g1575
(g145
S'Ww,\xb6I%\x06@'
p1612
tp1613
Rp1614
g1575
(g145
S'O=\xd2\xe0\xb6f\x17\xc0'
p1615
tp1616
Rp1617
g1575
(g145
S'\xc3\x82\xfb\x01\x0f<\x15@'
p1618
tp1619
Rp1620
tp1621
tp1622
g542
s(Vsquare_packing_box1
p1623
(g1575
(g145
S'\x11\x00\x1c{\xf6\x1c\xf0?'
p1624
tp1625
Rp1626
g1575
(g145
S't$\x97\xff\x90\x0e\x17\xc0'
p1627
tp1628
Rp1629
g1575
(g145
S'Fx{\x10\x02\x92\x00@'
p1630
tp1631
Rp1632
tp1633
tp1634
g538
s(Vrectangular_packing_box3
p1635
(g1575
(g145
S'\x86:\xacp\xcbG\xd8?'
p1636
tp1637
Rp1638
g1575
(g145
S'O\xe5\xb4\xa7\xe4<\x1f\xc0'
p1639
tp1640
Rp1641
g1575
(g145
S'\x9a\xeeuR_\xb6\x00@'
p1642
tp1643
Rp1644
tp1645
tp1646
g522
s(Vrectangular_packing_box2
p1647
(g1575
(g145
S'\x9f\x046\xe7\xe0\x99\xe3?'
p1648
tp1649
Rp1650
g1575
(g145
S'\xc6\xc0:\x8e\x1f:\x1a\xc0'
p1651
tp1652
Rp1653
g1575
(g145
S'}!\xe4\xbc\xff?\x18@'
p1654
tp1655
Rp1656
tp1657
tp1658
g518
s(Vrectangular_packing_box4
p1659
(g1575
(g145
S'B|`\xc7\x7f\xe1\x02@'
p1660
tp1661
Rp1662
g1575
(g145
S'\x10%Z\xf2x\xba\x19\xc0'
p1663
tp1664
Rp1665
g1575
(g145
S'\xb4!\xff\xcc ^\t@'
p1666
tp1667
Rp1668
tp1669
tp1670
g514
ssS'state_saver'
p1671
(igtamp_utils.utils
CustomStateSaver
p1672
(dp1673
S'robot_base_pose'
p1674
g22
(g23
(I0
tp1675
g25
tp1676
Rp1677
(I1
(I1
I3
tp1678
g145
I00
S'\xe8|-\xec\xef\xa9\xc7\xbf\xbb\xf3\xee\xe0Y\xf7\x17\xc0\xeb]\x082$\xe1\x06@'
p1679
tp1680
bsS'held_object'
p1681
NsS'robot_name'
p1682
S'pr2'
p1683
sS'env_id'
p1684
I1
sg1498
(dp1685
Vright_wall_1
p1686
g22
(g23
(I0
tp1687
g25
tp1688
Rp1689
(I1
(I4
tp1690
g145
I00
S'H\xe1z\x14\xaeG\x12@&\\\x8f\xc2\xf5(\xd4\xbf\xcc\x7fH\xbf}\x1d\xed?\x00\x00\x00\x00\x00\x00\x00\x00'
p1691
tp1692
bsVc_obst5
p1693
g22
(g23
(I0
tp1694
g25
tp1695
Rp1696
(I1
(I4
tp1697
g145
I00
S"lC\x0e\\\x97g\x12@L\xf5\xa7K\xe4 \xdc?e\xaa`TR'\xed?\xe0\xda\xac\xbbBd\x13@"
p1698
tp1699
bsVentrance_right
p1700
g22
(g23
(I0
tp1701
g25
tp1702
Rp1703
(I1
(I4
tp1704
g145
I00
S'ffffff\n@H\xe1z\x14\xaeG\t\xc0\x9c\xc4 \xb0rh\xc1?\x00\x00\x00\x00\x00\x00\x00\x00'
p1705
tp1706
bsVcomputer_table
p1707
g22
(g23
(I0
tp1708
g25
tp1709
Rp1710
(I1
(I4
tp1711
g145
I00
S'\x00\x00\x00\x00\x00\x00\x13@\x00\x00\x00\x00\x00\x00\xf8\xbf\x96C\x8bl\xe7\xfb\xe7?\xd2!3\x7f|\xd9\x12@'
p1712
tp1713
bsVchair_6b56
p1714
g22
(g23
(I0
tp1715
g25
tp1716
Rp1717
(I1
(I4
tp1718
g145
I00
S'u=\n\xd7\xa3p\xf5?K\xe1z\x14\xaeG\xd1?\x00\x00\x00\x00\x00\x00\x00\x00\xd6$\xfaNBm\n@'
p1719
tp1720
bsVsquare_packing_box3
p1721
g22
(g23
(I0
tp1722
g25
tp1723
Rp1724
(I1
(I4
tp1725
g145
I00
S'R\x8eG\xae\xaag\r@\x01\xdb\xab\xe1\x17\x98\x19\xc0L7\x89A`\xe5\xd8?\x13\x9f\xc5z\x0fc\xe2?'
p1726
tp1727
bsVsquare_packing_box2
p1728
g22
(g23
(I0
tp1729
g25
tp1730
Rp1731
(I1
(I4
tp1732
g145
I00
S'p\x9cj\x8a>%\xf6?\x9a[$\xcdT\xfd\x1d\xc0L7\x89A`\xe5\xd8?\xd5\xe6b\xb8f\xec\x13@'
p1733
tp1734
bsVtable
p1735
g22
(g23
(I0
tp1736
g25
tp1737
Rp1738
(I1
(I4
tp1739
g145
I00
S'\x7f\xf6#EdX\xed?\xac\xffs\x98//\xc0\xbf\x00\x00\x00\x00\x00\x00\x00\x00\x00\x00\x00\x00\x00\x00\x00\x00'
p1740
tp1741
bsVsquare_packing_box1
p1742
g22
(g23
(I0
tp1743
g25
tp1744
Rp1745
(I1
(I4
tp1746
g145
I00
S'\xfd\x96\x95\xb1\xf6\x1c\xf0?oa\xd9\x12\x91\x0e\x17\xc0L7\x89A`\xe5\xd8?f1.\xda\x01\x92\x00@'
p1747
tp1748
bsVback_wall_2
p1749
g22
(g23
(I0
tp1750
g25
tp1751
Rp1752
(I1
(I4
tp1753
g145
I00
S'\xaeG\xe1z\x14.\x13@\x80\x14\xaeG\xe1z\xc4?xX\xa85\xcd\xbb\xf2?\x00\x00\x00\x00\x00\x00\x00\x00'
p1754
tp1755
bsVchair_083c
p1756
g22
(g23
(I0
tp1757
g25
tp1758
Rp1759
(I1
(I4
tp1760
g145
I00
S'\xa4p=\n\xd7\xa3\xe0?333333\xe3\xbf\x00\x00\x00\x00\x00\x00\x00\x00\x00\x00\x00\x00\x00\x00\x00\x00'
p1761
tp1762
bsVback_wall_1
p1763
g22
(g23
(I0
tp1764
g25
tp1765
Rp1766
(I1
(I4
tp1767
g145
I00
S'\xaeG\xe1z\x14.\x13@\x80\x14\xaeG\xe1z\xc4?\xcc\x7fH\xbf}\x1d\xed?\x00\x00\x00\x00\x00\x00\x00\x00'
p1768
tp1769
bsVbottom_wall
p1770
g22
(g23
(I0
tp1771
g25
tp1772
Rp1773
(I1
(I4
tp1774
g145
I00
S'\x00\x00\x00\x00\x00\x00\xfc?\x00\x00\x00\x00\x00\x00\x00\x00\x00\x00\x00\x00\x00\x00\x00\x00\x00\x00\x00\x00\x00\x00\x00\x00'
p1775
tp1776
bsVcup_905a
p1777
g22
(g23
(I0
tp1778
g25
tp1779
Rp1780
(I1
(I4
tp1781
g145
I00
S'\x00\x00\x00\x00\x00\x00\xf0?\x83\xc0\xca\xa1E\xb6\xdb?\x1b/\xdd$\x06\x81\xed?\x00\x00\x00\x00\x00\x00\x00\x00'
p1782
tp1783
bsVplate_496f
p1784
g22
(g23
(I0
tp1785
g25
tp1786
Rp1787
(I1
(I4
tp1788
g145
I00
S"q=\n\xd7\xa3p\xe5?\x9dhW!\xe5'\xdd\xbf\x1b/\xdd$\x06\x81\xed?\x00\x00\x00\x00\x00\x00\x00\x00"
p1789
tp1790
bsVtoaster
p1791
g22
(g23
(I0
tp1792
g25
tp1793
Rp1794
(I1
(I4
tp1795
g145
I00
S')\\\x8f\xc2\xf5(\xf4\xbf\xe0z\x14\xaeG\xe1\xf2\xbf\xb8\x1e\x85\xebQ\xb8\xee?\x89/`\x9b\xf8\x8a\xe4?'
p1796
tp1797
bsVc_obst1
p1798
g22
(g23
(I0
tp1799
g25
tp1800
Rp1801
(I1
(I4
tp1802
g145
I00
S"\x8a7\x08\xb2\xf1\t\x12@\x00\xc6K\x9e5\xdb\xa1?e\xaa`TR'\xed?z^\x0c\xdcO\xb9\xfd?"
p1803
tp1804
bsVrectangular_packing_box4
p1805
g22
(g23
(I0
tp1806
g25
tp1807
Rp1808
(I1
(I4
tp1809
g145
I00
S'6\xaa|\x02\x80\xe1\x02@\x18\x90\x07\x0by\xba\x19\xc0L7\x89A`\xe5\xd8?\xd73l\x9e ^\t@'
p1810
tp1811
bsVmicrowave
p1812
g22
(g23
(I0
tp1813
g25
tp1814
Rp1815
(I1
(I4
tp1816
g145
I00
S'\x9a\x99\x99\x99\x99\x99\xf1\xbf\x00\x00\x00\x00\x00\x00\x00@7\x89A`\xe5\xd0\xee?\x00\x00\x00\x00\x00\x00\x00\x00'
p1817
tp1818
bsVc_obst7
p1819
g22
(g23
(I0
tp1820
g25
tp1821
Rp1822
(I1
(I4
tp1823
g145
I00
S"\x9f\x95%\xa5l\xfc\x11@ \xbd\x9d\xd9\x1e\xeb\xaf\xbfe\xaa`TR'\xed?\xbf\x0c\xd1\x16\x04\x97\x15@"
p1824
tp1825
bsVc_obst6
p1826
g22
(g23
(I0
tp1827
g25
tp1828
Rp1829
(I1
(I4
tp1830
g145
I00
S"\xd8\xac^\t\xebj\x12@\x04\xf2\xc2-i\xed\xb1\xbfe\xaa`TR'\xed?\x17\x9e\xa5)\xf7P\x16@"
p1831
tp1832
bsVcup_b6af
p1833
g22
(g23
(I0
tp1834
g25
tp1835
Rp1836
(I1
(I4
tp1837
g145
I00
S'R\xb8\x1e\x85\xebQ\xe8?\x9a\x99\x99\x99\x99\x99\xe1?\x1b/\xdd$\x06\x81\xed?\x00\x00\x00\x00\x00\x00\x00\x00'
p1838
tp1839
bsVc_obst4
p1840
g22
(g23
(I0
tp1841
g25
tp1842
Rp1843
(I1
(I4
tp1844
g145
I00
S"\xdf[\x03zx^\x12@\xfa3\x12\xa5\xa0\x8e\xd3?e\xaa`TR'\xed?\x17C\xe07\x90\x17\xf7?"
p1845
tp1846
bsVrectangular_packing_box2
p1847
g22
(g23
(I0
tp1848
g25
tp1849
Rp1850
(I1
(I4
tp1851
g145
I00
S't\xf6\xa9[\xe0\x99\xe3?Z\xcb\xc5\x94\x1f:\x1a\xc0L7\x89A`\xe5\xd8?I\xe9\xcb\xb9\xff?\x18@'
p1852
tp1853
bsVplate_fa76
p1854
g22
(g23
(I0
tp1855
g25
tp1856
Rp1857
(I1
(I4
tp1858
g145
I00
S'=\n\xd7\xa3p=\xf2?\x00\x00\x00\x00\x00\x00\x00\x00\x1b/\xdd$\x06\x81\xed?\x00\x00\x00\x00\x00\x00\x00\x00'
p1859
tp1860
bsVfloorwalls
p1861
g22
(g23
(I0
tp1862
g25
tp1863
Rp1864
(I1
(I4
tp1865
g145
I00
S'\xc7\xcc\xcc\xcc\xcc\xcc\xfc?\x00\x00\x00\x00\x00\x00\x18\xc0H\xe1z\x14\xaeG\xc1?\x16-DT\xfb!\xf9?'
p1866
tp1867
bsVpin_c671
p1868
g22
(g23
(I0
tp1869
g25
tp1870
Rp1871
(I1
(I4
tp1872
g145
I00
S'\xc3\xf5(\\\x8f\xc2\xf1\xbf}?5^\xbaI\x02@\xb8\x1e\x85\xebQ\xb8\xfa?\x00\x00\x00\x00\x00\x00\x00\x00'
p1873
tp1874
bsVc_obst3
p1875
g22
(g23
(I0
tp1876
g25
tp1877
Rp1878
(I1
(I4
tp1879
g145
I00
S"\xa0`\xf0\x17\x9a<\x12@\xd00\x84\x9a\xdfB\xca?e\xaa`TR'\xed?\x87c%\xe3\xfc\xf4\x01@"
p1880
tp1881
bsVchair_2e39
p1882
g22
(g23
(I0
tp1883
g25
tp1884
Rp1885
(I1
(I4
tp1886
g145
I00
S'hfffff\xee?cfffff\xf2\xbf\x00\x00\x00\x00\x00\x00\x00\x00\x07M\xe8QQF\xf3?'
p1887
tp1888
bsVentrance_left
p1889
g22
(g23
(I0
tp1890
g25
tp1891
Rp1892
(I1
(I4
tp1893
g145
I00
S'\x98\x99\x99\x99\x99\x99\xe9\xbfH\xe1z\x14\xaeG\t\xc0\x9c\xc4 \xb0rh\xc1?\x00\x00\x00\x00\x00\x00\x00\x00'
p1894
tp1895
bsVtop_wall_1
p1896
g22
(g23
(I0
tp1897
g25
tp1898
Rp1899
(I1
(I4
tp1900
g145
I00
S'H\xe1z\x14\xaeG\x12@\x80\x14\xaeG\xe1z\xc4?xX\xa85\xcd\xbb\xf2?\x00\x00\x00\x00\x00\x00\x00\x00'
p1901
tp1902
bsVrectangular_packing_box3
p1903
g22
(g23
(I0
tp1904
g25
tp1905
Rp1906
(I1
(I4
tp1907
g145
I00
S"\xa0'\xc4\xce\xcbG\xd8?gA\xde\xb6\xe4<\x1f\xc0L7\x89A`\xe5\xd8?\x9a\xa2\xd3\\_\xb6\x00@"
p1908
tp1909
bsVshaker
p1910
g22
(g23
(I0
tp1911
g25
tp1912
Rp1913
(I1
(I4
tp1914
g145
I00
S'\n\xd7\xa3p=\n\x01@\x14\xaeG\xe1z\x14\x02@\\\x8f\xc2\xf5(\\\xef?\x00\x00\x00\x00\x00\x00\x00\x00'
p1915
tp1916
bsVc_obst9
p1917
g22
(g23
(I0
tp1918
g25
tp1919
Rp1920
(I1
(I4
tp1921
g145
I00
S"\x0c\xc0\x8b8\x1b\xff\x11@\xb8\xbab\xcaq\xfb\xcd?e\xaa`TR'\xed?S\x13\xd1\xa2\xea \x14@"
p1922
tp1923
bsVplate_835a
p1924
g22
(g23
(I0
tp1925
g25
tp1926
Rp1927
(I1
(I4
tp1928
g145
I00
S'\xf6(\\\x8f\xc2\xf5\xf0?\\\x8f\xc2\xf5(\\\xe7\xbf\x1b/\xdd$\x06\x81\xed?\x00\x00\x00\x00\x00\x00\x00\x00'
p1929
tp1930
bsVcup_58a2
p1931
g22
(g23
(I0
tp1932
g25
tp1933
Rp1934
(I1
(I4
tp1935
g145
I00
S'\x85\xebQ\xb8\x1e\x85\xe3?\xcd\xcc\xcc\xcc\xcc\xcc\xdc?\x1b/\xdd$\x06\x81\xed?\x00\x00\x00\x00\x00\x00\x00\x00'
p1936
tp1937
bsVleft_wall_1
p1938
g22
(g23
(I0
tp1939
g25
tp1940
Rp1941
(I1
(I4
tp1942
g145
I00
S'H\xe1z\x14\xaeG\x12@S\xb8\x1e\x85\xebQ\xe4?\xcc\x7fH\xbf}\x1d\xed?\x00\x00\x00\x00\x00\x00\x00\x00'
p1943
tp1944
bsVc_obst2
p1945
g22
(g23
(I0
tp1946
g25
tp1947
Rp1948
(I1
(I4
tp1949
g145
I00
S"\xc6\x1e\xf4W\xa9\x8a\x12@\x08f\xf9i\x9a\xba\xcf?e\xaa`TR'\xed?\xfae\xdf\xb9\xeb\x7f\x0f@"
p1950
tp1951
bsVsquare_packing_box4
p1952
g22
(g23
(I0
tp1953
g25
tp1954
Rp1955
(I1
(I4
tp1956
g145
I00
S'h\xec\x0e\xa8I%\x06@3x\x93\xe8\xb6f\x17\xc0L7\x89A`\xe5\xd8?|\xdc\x07\t\x0f<\x15@'
p1957
tp1958
bsVrectangular_packing_box1
p1959
g22
(g23
(I0
tp1960
g25
tp1961
Rp1962
(I1
(I4
tp1963
g145
I00
S'\x8d\xaa\x82\xb6Ig\xd5\xbft\xd5\x0c\n\x9c\xa6\x1d\xc0L7\x89A`\xe5\xd8?\xaa\xf9\x04sa\x97\xf6?'
p1964
tp1965
bsVpin_371e
p1966
g22
(g23
(I0
tp1967
g25
tp1968
Rp1969
(I1
(I4
tp1970
g145
I00
S'333333\xf3\xbfffffff\xf6?\xb8\x1e\x85\xebQ\xb8\xee?\x00\x00\x00\x00\x00\x00\x00\x00'
p1971
tp1972
bsVfridge
p1973
g22
(g23
(I0
tp1974
g25
tp1975
Rp1976
(I1
(I4
tp1977
g145
I00
S'\xd7\xa3p=\n\xd7\xeb\xbf\x00\x00\x00\x00\x00\x00\x00\xc0\xcd\xcc\xcc\xcc\xcc\xcc\xf8?\x00\x00\x00\x00\x00\x00\x00\x00'
p1978
tp1979
bsVcup_d441
p1980
g22
(g23
(I0
tp1981
g25
tp1982
Rp1983
(I1
(I4
tp1984
g145
I00
S'\n\xd7\xa3p=\n\xef?\x8f\xc2\xf5(\\\x8f\xe2?\x1b/\xdd$\x06\x81\xed?\x00\x00\x00\x00\x00\x00\x00\x00'
p1985
tp1986
bsVshelf2
p1987
g22
(g23
(I0
tp1988
g25
tp1989
Rp1990
(I1
(I4
tp1991
g145
I00
S'\x00\x00\x00\x00\x00\x00\x0e@\xaeG\xe1z\x14\xae\x07@\x9c\xc4 \xb0rh\xc1?\xd2!3\x7f|\xd9\x12@'
p1992
tp1993
bsVtop_wall_2
p1994
g22
(g23
(I0
tp1995
g25
tp1996
Rp1997
(I1
(I4
tp1998
g145
I00
S'H\xe1z\x14\xaeG\x12@\x80\x14\xaeG\xe1z\xc4?\x16HP\xfc\x18\xf3\xfd?\x00\x00\x00\x00\x00\x00\x00\x00'
p1999
tp2000
bsVc_obst0
p2001
g22
(g23
(I0
tp2002
g25
tp2003
Rp2004
(I1
(I4
tp2005
g145
I00
S"4R\x1a\xd4\xe4T\x12@\xa0\xa8U\x84\xc2\x94\xb0?e\xaa`TR'\xed?\x84\x1b)\xcb\x9c\xcd\x14@"
p2006
tp2007
bsVshelf1
p2008
g22
(g23
(I0
tp2009
g25
tp2010
Rp2011
(I1
(I4
tp2012
g145
I00
S'\x00\x00\x00\x00\x00\x00\x13@\xaeG\xe1z\x14\xae\x07@\x9c\xc4 \xb0rh\xc1?\xd2!3\x7f|\xd9\x12@'
p2013
tp2014
bsVsink
p2015
g22
(g23
(I0
tp2016
g25
tp2017
Rp2018
(I1
(I4
tp2019
g145
I00
S'ffffff\xd6?333333\x01@\x9a\x99\x99\x99\x99\x99\xb9\xbf\x00\x00\x00\x00\x00\x00\x00\x00'
p2020
tp2021
bsVpr2
p2022
g22
(g23
(I0
tp2023
g25
tp2024
Rp2025
(I1
(I4
tp2026
g145
I00
S' }-\xec\xef\xa9\xc7\xbf\xbe\xf3\xee\xe0Y\xf7\x17\xc0\x9a_\x94\xa0\xbf\xd0\xc1?\xeb]\x082$\xe1\x06@'
p2027
tp2028
bsVchair_12d0
p2029
g22
(g23
(I0
tp2030
g25
tp2031
Rp2032
(I1
(I4
tp2033
g145
I00
S'\\\xd2\x18\xad\xa3\xaa\xdb?Of\x83L2r\xc6?\x00\x00\x00\x00\x00\x00\x00\x00\xf8\x81\r\x14M\xa6\x17@'
p2034
tp2035
bsVright_wall_2
p2036
g22
(g23
(I0
tp2037
g25
tp2038
Rp2039
(I1
(I4
tp2040
g145
I00
S'H\xe1z\x14\xaeG\x12@&\\\x8f\xc2\xf5(\xd4\xbfxX\xa85\xcd\xbb\xf2?\x00\x00\x00\x00\x00\x00\x00\x00'
p2041
tp2042
bsVknife_block
p2043
g22
(g23
(I0
tp2044
g25
tp2045
Rp2046
(I1
(I4
tp2047
g145
I00
S'R\xb8\x1e\x85\xebQ\xe0\xbfffffff\x02@`\xe5\xd0"\xdb\xf9\xee?\x00\x00\x00\x00\x00\x00\x00\x00'
p2048
tp2049
bsVleft_wall_2
p2050
g22
(g23
(I0
tp2051
g25
tp2052
Rp2053
(I1
(I4
tp2054
g145
I00
S'H\xe1z\x14\xaeG\x12@S\xb8\x1e\x85\xebQ\xe4?xX\xa85\xcd\xbb\xf2?\x00\x00\x00\x00\x00\x00\x00\x00'
p2055
tp2056
bsVleft_wall
p2057
g22
(g23
(I0
tp2058
g25
tp2059
Rp2060
(I1
(I4
tp2061
g145
I00
S'\x9a\x99\x99\x99\x99\x99\x07@H\xe1z\x14\xaeG\xff?\x9c\xc4 \xb0rh\xc1?\x00\x00\x00\x00\x00\x00\x00\x00'
p2062
tp2063
bsVkitchen
p2064
g22
(g23
(I0
tp2065
g25
tp2066
Rp2067
(I1
(I4
tp2068
g145
I00
S'\x00\x00\x00\x00\x00\x00\x00\x00\x00\x00\x00\x00\x00\x00\x00\x00\x00\x00\x00\x00\x00\x00\x00\x00\x00\x00\x00\x00\x00\x00\x00\x00'
p2069
tp2070
bsVtable2
p2071
g22
(g23
(I0
tp2072
g25
tp2073
Rp2074
(I1
(I4
tp2075
g145
I00
S'\x00\x00\x00\x00\x00\x00\x13@\x80\x14\xaeG\xe1z\xc4?S\x96!\x8euq\xec?\xd2!3\x7f|\xd9\x12@'
p2076
tp2077
bsVc_obst8
p2078
g22
(g23
(I0
tp2079
g25
tp2080
Rp2081
(I1
(I4
tp2082
g145
I00
S"\xb8\xea\xd7\xa9\xc2r\x12@RJM\x1c\x960\xc6?e\xaa`TR'\xed?B\xe4\x03)\xec\xd8\x17@"
p2083
tp2084
bsVplate_b4e7
p2085
g22
(g23
(I0
tp2086
g25
tp2087
Rp2088
(I1
(I4
tp2089
g145
I00
S'\x14\xaeG\xe1z\x14\xf2\xbf\x14\xaeG\xe1z\x14\x00@=\n\xd7\xa3p=\xf2?\x00\x00\x00\x00\x00\x00\x00\x00'
p2090
tp2091
bsVcooker
p2092
g22
(g23
(I0
tp2093
g25
tp2094
Rp2095
(I1
(I4
tp2096
g145
I00
S'\xaeG\xe1z\x14\xae\xff?\x85\xebQ\xb8\x1e\x85\xfb?\x00\x00\x00\x00\x00\x00\xe8?\x00\x00\x00\x00\x00\x00\x00\x00'
p2097
tp2098
bsVpin_a091
p2099
g22
(g23
(I0
tp2100
g25
tp2101
Rp2102
(I1
(I4
tp2103
g145
I00
S'\xdb\xf9~j\xbct\xf7\xbf)\\\x8f\xc2\xf5(\x02@\xb8\x1e\x85\xebQ\xb8\xfa?\x00\x00\x00\x00\x00\x00\x00\x00'
p2104
tp2105
bsVside_wall_2
p2106
g22
(g23
(I0
tp2107
g25
tp2108
Rp2109
(I1
(I4
tp2110
g145
I00
S'\xfa\xff\xff\xff\xff\xff\x14@\x00\x00\x00\x00\x00\x00\x00\x00\x9c\xc4 \xb0rh\xc1?\x18-DT\xfb!\xf9?'
p2111
tp2112
bsVside_wall_3
p2113
g22
(g23
(I0
tp2114
g25
tp2115
Rp2116
(I1
(I4
tp2117
g145
I00
S'\x00\x00\x00\x00\x00\x00\xfc?H\xe1z\x14\xaeG\t@\x9c\xc4 \xb0rh\xc1?\x00\x00\x00\x00\x00\x00\x00\x00'
p2118
tp2119
bsVmixer
p2120
g22
(g23
(I0
tp2121
g25
tp2122
Rp2123
(I1
(I4
tp2124
g145
I00
S'\n\xd7\xa3p=\n\xfb?ffffff\x02@d;\xdfO\x8d\x97\xee?\x00\x00\x00\x00\x00\x00\x00\x00'
p2125
tp2126
bsVside_wall_1
p2127
g22
(g23
(I0
tp2128
g25
tp2129
Rp2130
(I1
(I4
tp2131
g145
I00
S'\xf4\xff\xff\xff\xff\xff\xfb\xbf\x00\x00\x00\x00\x00\x00\x00\x00\x9c\xc4 \xb0rh\xc1?\x18-DT\xfb!\xf9?'
p2132
tp2133
bsVbottom_wall_1
p2134
g22
(g23
(I0
tp2135
g25
tp2136
Rp2137
(I1
(I4
tp2138
g145
I00
S'H\xe1z\x14\xaeG\x12@\x80\x14\xaeG\xe1z\xc4?\xcc\x7fH\xbf}\x1d\xed?\x00\x00\x00\x00\x00\x00\x00\x00'
p2139
tp2140
bsVcan
p2141
g22
(g23
(I0
tp2142
g25
tp2143
Rp2144
(I1
(I4
tp2145
g145
I00
S'\x00\x00\x00\x00\x00\x00\xf4\xbfH\xe1z\x14\xaeG\xe1\xbf\n\xd7\xa3p=\n\xef?\x00\x00\x00\x00\x00\x00\x00\x00'
p2146
tp2147
bsVright_wall
p2148
g22
(g23
(I0
tp2149
g25
tp2150
Rp2151
(I1
(I4
tp2152
g145
I00
S'\x9a\x99\x99\x99\x99\x99\x07@H\xe1z\x14\xaeG\xff\xbf\x9c\xc4 \xb0rh\xc1?\x00\x00\x00\x00\x00\x00\x00\x00'
p2153
tp2154
bsVcoffe_machine
p2155
g22
(g23
(I0
tp2156
g25
tp2157
Rp2158
(I1
(I4
tp2159
g145
I00
S'\\\x8f\xc2\xf5(\\\xf5\xbf\xb8\x1e\x85\xebQ\xb8\xee?\n\xd7\xa3p=\n\xef?\x00\x00\x00\x00\x00\x00\x00\x00'
p2160
tp2161
bsVcomputer_chair
p2162
g22
(g23
(I0
tp2163
g25
tp2164
Rp2165
(I1
(I4
tp2166
g145
I00
S'\xcd\xcc\xcc\xcc\xcc\xcc\x10@\x00\x00\x00\x00\x00\x00\xf8\xbf\xa00\xb6\x10\xe4\xa9\x95\xbf\x00\x00\x00\x00\x00\x00\x00\x00'
p2167
tp2168
bssS'robot_dof_values'
p2169
g22
(g23
(I0
tp2170
g25
tp2171
Rp2172
(I1
(I39
tp2173
g145
I00
S'\x00\x00\x00\x00\x00\x00\x00\x00\x00\x00\x00\x00\x00\x00\x00\x00\x00\x00\x00\x00\x00\x00\x00\x00\x00\x00\x00\x00\x00\x00\x00\x00\x00\x00\x00\x00\x00\x00\x00\x00\x00\x00\x00\x00\x00\x00\x00\x00\x00\x00\x00\x00\x00\x00\x00\x00\x00\x00\x00\x00\x00\x00\x00\x00\x00\x00\x00\x00\x00\x00\x00\x00\x00\x00\x00\x00\x00\x00\x00\x00\x00\x00\x00\x00\x00\x00\x00\x00\x00\x00\x00\x00\x00\x00\x00\x00@d;\xdfO\x8d\x87?\x00\x00\x00\x00\x00\x00\x00\x00\x00\x00\x00\x00\x00\x00\x00\x00\x00\x00\x00\x00\x00\x00\x00\x00\xeb\xed\t\xf1\xcc\xa4\xf4?\x00\x00\x00\x00\x00\x00\xb0<L"\xd0^p\xf8\x00\xc0\x00\x00\x00\x00\x00\x00\x00\x00\x9d\x03\r.\x04V\xe6\xbf\x00\x00\x00\x00\x00\x00\x00\x00\x00\x00\x00\x00\x00\x00\x00\x00\x00\x00\x00\x00\x00\x00\xcb\xbc\xcc;\x7ff\x9e\xa0\xa6\xbc\x00\x00\x00\x00\x00\x00\xfc\xbc\x00\x00\x00\x00\x00\x00\x00\x00\x00\x00\x00\x00\x00\x00\x00\x00\xe9\xed\t\xf1\xcc\xa4\xf4?\x00\x00\x00\x00\x00\x00\xb0\xbcM"\xd0^p\xf8\x00\xc0\x00\x00\x00\x00\x00\x00\x00\x00\x9f\x03\r.\x04V\xe6\xbf\x00\x00\x00\x00\x00\x00\x00\x00\xcc9\xe3\xc17\x89\xe1?\x00\x00\x00\x00\x00\x00\xbe\xbc\xd9l\xdf\xccv\xf8\xb0\xbc\x00\x00\x00\x00\x00\x00\x00\x00\x00\x00\x00\x00\x00\x00\x00\x00'
p2174
tp2175
bsS'is_holding'
p2176
I00
sbsS'holding_collides'
p2177
NsS'parent_ternary_predicates'
p2178
(dp2179
sS'cached_place_paths'
p2180
(dp2181
(g507
g1002
tp2182
(lp2183
g22
(g23
(I0
tp2184
g25
tp2185
Rp2186
(I1
(I3
tp2187
g145
I00
S'\xc0\x83\xdbZ\x1b6\xc0\xbf\xee\xcb\xfc\x9e.\xa2\x1a\xc0w\xbbA\x8a\x80\xcc\x13@'
p2188
tp2189
bas(g890
g136
tp2190
g199
s(g545
g136
tp2191
g250
s(g792
g1002
tp2192
(lp2193
g22
(g23
(I0
tp2194
g25
tp2195
Rp2196
(I1
(I3
tp2197
g145
I00
S"\xe0\x16\x8cKm)\x0f@\xbd\xef\xe1\xc0%W\x1c\xc0e'-z/\xba\xfc?"
p2198
tp2199
bas(g545
g1002
tp2200
(lp2201
g22
(g23
(I0
tp2202
g25
tp2203
Rp2204
(I1
(I3
tp2205
g145
I00
S'\x08\xe9O\xb6m\xdf\x08@\xaa\x97\xa9\xf9\xd4\x87\x19\xc0\xa7\xf3\xfa\xebk\x1e\t@'
p2206
tp2207
bas(g792
g136
tp2208
g370
s(g748
g1002
tp2209
(lp2210
g22
(g23
(I0
tp2211
g25
tp2212
Rp2213
(I1
(I3
tp2214
g145
I00
S'\xc2\xd4|\x12-\xde\x00@A6\x8f\xc8\xd7\xe5\x1d\xc01\xdfGj@r\t@'
p2215
tp2216
bas(g748
g136
tp2217
g313
s(g12
g136
tp2218
(lp2219
g22
(g23
(I0
tp2220
g25
tp2221
Rp2222
(I1
(I3
tp2223
g145
I00
S',REg\xf7\xbb\xe7?\x04\x90 +\x19\xf6\x13\xc0\x1e\xe5\xbc\n\xed\x19\x16@'
p2224
tp2225
bag22
(g23
(I0
tp2226
g25
tp2227
Rp2228
(I1
(I3
tp2229
g156
I00
S'\xb5\xe3\x18\xc8\x9f\xf5\xd7?\xac\xb7\x0f\x9d\xa7\x8c\x11\xc0`\xf2\xb76\xda\xcb\xfa\xbf'
p2230
tp2231
bag22
(g23
(I0
tp2232
g25
tp2233
Rp2234
(I1
(I3
tp2235
g156
I00
S"\xaeJ\xbd\x1936\xec?\x04\x13\xd4'\x9f\x88\x10\xc0\x805qo\xb6\xe6\xff\xbf"
p2236
tp2237
bag22
(g23
(I0
tp2238
g25
tp2239
Rp2240
(I1
(I3
tp2241
g156
I00
S'\xf09\xb6\x1c*\x86\xee?\xc4\n/\x96\xcb\xe3\n\xc0\xa0\xc9\xd6F6\x0f\x00\xc0'
p2242
tp2243
bag22
(g23
(I0
tp2244
g25
tp2245
Rp2246
(I1
(I3
tp2247
g156
I00
S'3\xe9\xaf\x05T\x89\xe7?+~\xcb\xd3\x15\xc7\x04\xc0x6(d5\xed\x07@'
p2248
tp2249
bas(g649
g136
tp2250
g138
s(g649
g1002
tp2251
(lp2252
g22
(g23
(I0
tp2253
g25
tp2254
Rp2255
(I1
(I3
tp2256
g145
I00
S'\xa4\xb5\xfd\x92\x969\xef?\xd7Bm\x0bT\x8b\x1d\xc0\xb9\xd6N\xc8T\xd2\x0b@'
p2257
tp2258
bas(g890
g1002
tp2259
(lp2260
g22
(g23
(I0
tp2261
g25
tp2262
Rp2263
(I1
(I3
tp2264
g145
I00
S'xf\xd7>\xf2\xb5\x00@\xd1%\xd8\x87\n\xf3\x18\xc0\xbc/\xeb7\xe5\xcc\xec?'
p2265
tp2266
bas(g12
g1002
tp2267
(lp2268
g22
(g23
(I0
tp2269
g25
tp2270
Rp2271
(I1
(I3
tp2272
g145
I00
S'%REg\xf7\xbb\xe7?\x04\x90 +\x19\xf6\x13\xc0\x1d\xe5\xbc\n\xed\x19\x16@'
p2273
tp2274
bas(g605
g1002
tp2275
(lp2276
g22
(g23
(I0
tp2277
g25
tp2278
Rp2279
(I1
(I3
tp2280
g145
I00
S"\xbc\xfb\xecw(n\xe5?\xc6g\x06\xe9\x82\xac\x17\xc03'\xb6\xaa\xf8\x13\x12@"
p2281
tp2282
bas(g605
g136
tp2283
g439
s(g507
g136
tp2284
(lp2285
g22
(g23
(I0
tp2286
g25
tp2287
Rp2288
(I1
(I3
tp2289
g145
I00
S'\xc0\x83\xdbZ\x1b6\xc0\xbf\xed\xcb\xfc\x9e.\xa2\x1a\xc0w\xbbA\x8a\x80\xcc\x13@'
p2290
tp2291
bag22
(g23
(I0
tp2292
g25
tp2293
Rp2294
(I1
(I3
tp2295
g156
I00
S'\xe0\x97|b\x16`\xa3?3l\xa93*\x8e\x17\xc0\x0e7\xe2\x9e\x84z\x10@'
p2296
tp2297
bag22
(g23
(I0
tp2298
g25
tp2299
Rp2300
(I1
(I3
tp2301
g156
I00
S"\xce2\xed\xc4U\xc2\xb5?\x81'\xaf\x93\x05R\x16\xc0Z\x15T->\xe4\x08@"
p2302
tp2303
bag22
(g23
(I0
tp2304
g25
tp2305
Rp2306
(I1
(I3
tp2307
g156
I00
S'\xa5P\xd1\x87\x88:\xe5?\xd8\xf1\xd1l\xc6\x00\x15\xc0{\xeaM\xb0\xfa\x02\x0e@'
p2308
tp2309
bag22
(g23
(I0
tp2310
g25
tp2311
Rp2312
(I1
(I3
tp2313
g156
I00
S'\xc6\x05\xbdtg\xd9\xe2?F\xdf\x9d@\\\xf3\x11\xc0\x1a\xc4.\xbb\xcc\x12\x02@'
p2314
tp2315
bag22
(g23
(I0
tp2316
g25
tp2317
Rp2318
(I1
(I3
tp2319
g156
I00
S'3z\xed\x8eN)\xe4?\x0c\x96\xd4\xa2\x0e\xd0\r\xc0\xbd%\xf5{\xe9\xf9\x03@'
p2320
tp2321
bag22
(g23
(I0
tp2322
g25
tp2323
Rp2324
(I1
(I3
tp2325
g156
I00
S'\xaf0\xe9h\xba~\xee?k\xbb\xd8\xd4\xd0g\t\xc09\x9ey\xed\xb06\x06@'
p2326
tp2327
bag22
(g23
(I0
tp2328
g25
tp2329
Rp2330
(I1
(I3
tp2331
g156
I00
S'\xf4\xfdJ\x1a(#\xec?H"\x9cD\x1aE\x05\xc0.\xa9\x0b\x87\xf8\xe1\x02@'
p2332
tp2333
bassS'parent_binary_predicates'
p2334
(dp2335
sS'nodes'
p2336
(dp2337
g1005
(lp2338
I0
aI0
aI0
aI0
aI0
aI0
aI00
aI01
aI00
aI01
aI00
asg1002
(lp2339
I0
aI0
aI0
aI0
aI0
aI0
aI00
aI01
aI00
aI01
aI00
asg136
(lp2340
I0
aI0
aI0
aI0
aI0
aI0
aI00
aI01
aI01
aI01
aI00
asg248
(lp2341
I0
aI0
aI0
ag1575
(g145
S'\x12\xaa|\x02\x80\xe1\x02@'
p2342
tp2343
Rp2344
ag1575
(g145
S'\x9f\x8f\x07\x0by\xba\x19\xc0'
p2345
tp2346
Rp2347
ag1575
(g145
S'\xd73l\x9e ^\t@'
p2348
tp2349
Rp2350
aI01
aI00
aI00
aI00
aI00
asg437
(lp2351
I0
aI0
aI0
ag1575
(g145
S'o\xf6\xa9[\xe0\x99\xe3?'
p2352
tp2353
Rp2354
ag1575
(g145
S'L\xcb\xc5\x94\x1f:\x1a\xc0'
p2355
tp2356
Rp2357
ag1575
(g145
S'I\xe9\xcb\xb9\xff?\x18@'
p2358
tp2359
Rp2360
aI01
aI00
aI00
aI00
aI00
asg135
(lp2361
I0
aI0
aI0
ag1575
(g145
S'\x10H\xc4\xce\xcbG\xd8?'
p2362
tp2363
Rp2364
ag1575
(g145
S' H\xde\xb6\xe4<\x1f\xc0'
p2365
tp2366
Rp2367
ag1575
(g145
S'\x9a\xa2\xd3\\_\xb6\x00@'
p2368
tp2369
Rp2370
aI01
aI00
aI00
aI00
aI00
asg965
(lp2371
I0
aI0
aI0
ag1575
(g145
S'\x84\xb0\x82\xb6Ig\xd5\xbf'
p2372
tp2373
Rp2374
ag1575
(g145
S'V\xd4\x0c\n\x9c\xa6\x1d\xc0'
p2375
tp2376
Rp2377
ag1575
(g145
S'\xa4\xf9\x04sa\x97\xf6?'
p2378
tp2379
Rp2380
aI01
aI00
aI00
aI01
aI00
asg311
(lp2381
I0
aI0
aI0
ag1575
(g145
S'y\x9ej\x8a>%\xf6?'
p2382
tp2383
Rp2384
ag1575
(g145
S'\xef[$\xcdT\xfd\x1d\xc0'
p2385
tp2386
Rp2387
ag1575
(g145
S'\xd5\xe6b\xb8f\xec\x13@'
p2388
tp2389
Rp2390
aI01
aI00
aI00
aI00
aI00
asg368
(lp2391
I0
aI0
aI0
ag1575
(g145
S'\xec\x8eG\xae\xaag\r@'
p2392
tp2393
Rp2394
ag1575
(g145
S'\xd0\xda\xab\xe1\x17\x98\x19\xc0'
p2395
tp2396
Rp2397
ag1575
(g145
S'\x13\x9f\xc5z\x0fc\xe2?'
p2398
tp2399
Rp2400
aI01
aI00
aI00
aI00
aI00
asg955
(lp2401
I0
aI0
aI0
ag1575
(g145
S'\xfd\x96\x95\xb1\xf6\x1c\xf0?'
p2402
tp2403
Rp2404
ag1575
(g145
S'oa\xd9\x12\x91\x0e\x17\xc0'
p2405
tp2406
Rp2407
ag1575
(g145
S'f1.\xda\x01\x92\x00@'
p2408
tp2409
Rp2410
aI01
aI00
aI01
aI01
aI00
asg197
(lp2411
I0
aI0
aI0
ag1575
(g145
S'\xdc\xeb\x0e\xa8I%\x06@'
p2412
tp2413
Rp2414
ag1575
(g145
S'\tx\x93\xe8\xb6f\x17\xc0'
p2415
tp2416
Rp2417
ag1575
(g145
S'y\xdc\x07\t\x0f<\x15@'
p2418
tp2419
Rp2420
aI01
aI00
aI00
aI00
aI00
assS'mc_place_path'
p2421
(dp2422
sS'parent_state'
p2423
NsS'goal_entities'
p2424
(lp2425
S'square_packing_box1'
p2426
ag136
asS'binary_edges'
p2427
(dp2428
(g311
g197
tp2429
(lp2430
I00
aI00
aI00
as(g311
g248
tp2431
(lp2432
I00
aI00
aI00
as(g135
g368
tp2433
(lp2434
I00
aI00
aI00
as(g135
g135
tp2435
(lp2436
I00
aI00
aI00
as(g437
g368
tp2437
(lp2438
I00
aI01
aI00
as(g437
g135
tp2439
(lp2440
I00
aI01
aI00
as(g197
g437
tp2441
(lp2442
I00
aI00
aI00
as(g311
g955
tp2443
(lp2444
I00
aI00
aI00
as(g965
g135
tp2445
(lp2446
I00
aI00
aI00
as(g248
g248
tp2447
(lp2448
I00
aI00
aI00
as(g437
g1002
tp2449
(lp2450
g1575
(g29
(S'b1'
p2451
I0
I1
tp2452
Rp2453
(I3
S'|'
p2454
NNNI-1
I-1
I0
tp2455
bS'\x01'
p2456
tp2457
Rp2458
aI00
aI01
as(g1005
g1002
tp2459
(lp2460
I00
aI00
aI00
as(g248
g197
tp2461
(lp2462
I00
aI01
aI00
as(g1002
g197
tp2463
(lp2464
I00
aI00
aI00
as(g955
g136
tp2465
(lp2466
I00
aI00
aI01
as(g1005
g437
tp2467
(lp2468
I00
aI00
aI00
as(g437
g197
tp2469
(lp2470
I00
aI01
aI00
as(g135
g1005
tp2471
(lp2472
g2458
aI00
aI00
as(g311
g311
tp2473
(lp2474
I00
aI00
aI00
as(g1002
g311
tp2475
(lp2476
I00
aI00
aI00
as(g368
g437
tp2477
(lp2478
I00
aI00
aI00
as(g437
g136
tp2479
(lp2480
I00
aI00
aI00
as(g965
g368
tp2481
(lp2482
I00
aI00
aI00
as(g248
g965
tp2483
(lp2484
I00
aI00
aI00
as(g955
g955
tp2485
(lp2486
I00
aI00
aI00
as(g437
g1005
tp2487
(lp2488
g2458
aI00
aI00
as(g1002
g437
tp2489
(lp2490
I00
aI00
aI00
as(g1002
g368
tp2491
(lp2492
I00
aI00
aI00
as(g1002
g135
tp2493
(lp2494
I00
aI00
aI00
as(g368
g136
tp2495
(lp2496
I00
aI00
aI00
as(g197
g248
tp2497
(lp2498
I00
aI00
aI00
as(g965
g248
tp2499
(lp2500
I00
aI00
aI00
as(g368
g965
tp2501
(lp2502
I00
aI00
aI00
as(g1002
g248
tp2503
(lp2504
I00
aI00
aI00
as(g1005
g136
tp2505
(lp2506
I00
aI00
aI00
as(g955
g437
tp2507
(lp2508
I00
aI01
aI00
as(g248
g368
tp2509
(lp2510
I00
aI01
aI00
as(g1005
g368
tp2511
(lp2512
I00
aI00
aI00
as(g368
g1005
tp2513
(lp2514
g2458
aI00
aI00
as(g135
g311
tp2515
(lp2516
I00
aI01
aI00
as(g197
g955
tp2517
(lp2518
I00
aI00
aI00
as(g135
g437
tp2519
(lp2520
I00
aI00
aI00
as(g197
g136
tp2521
(lp2522
I00
aI00
aI00
as(g1005
g1005
tp2523
(lp2524
I00
aI00
aI00
as(g368
g248
tp2525
(lp2526
I00
aI00
aI00
as(g955
g311
tp2527
(lp2528
I00
aI00
aI00
as(g136
g955
tp2529
(lp2530
I00
aI00
aI00
as(g965
g1002
tp2531
(lp2532
g2458
aI00
aI01
as(g136
g965
tp2533
(lp2534
I00
aI00
aI00
as(g197
g135
tp2535
(lp2536
I00
aI00
aI00
as(g135
g955
tp2537
(lp2538
I00
aI00
aI00
as(g368
g1002
tp2539
(lp2540
g2458
aI00
aI01
as(g135
g965
tp2541
(lp2542
I00
aI00
aI00
as(g368
g368
tp2543
(lp2544
I00
aI00
aI00
as(g965
g437
tp2545
(lp2546
I00
aI00
aI00
as(g1002
g136
tp2547
(lp2548
I00
aI00
aI00
as(g136
g311
tp2549
(lp2550
I00
aI00
aI00
as(g248
g136
tp2551
(lp2552
I00
aI00
aI00
as(g1005
g965
tp2553
(lp2554
I00
aI00
aI00
as(g136
g197
tp2555
(lp2556
I00
aI00
aI00
as(g135
g197
tp2557
(lp2558
I00
aI00
aI00
as(g965
g1005
tp2559
(lp2560
g2458
aI00
aI00
as(g197
g1002
tp2561
(lp2562
g2458
aI00
aI01
as(g965
g311
tp2563
(lp2564
I00
aI00
aI00
as(g248
g437
tp2565
(lp2566
I00
aI00
aI00
as(g248
g1002
tp2567
(lp2568
g2458
aI00
aI01
as(g136
g135
tp2569
(lp2570
I00
aI00
aI00
as(g1005
g197
tp2571
(lp2572
I00
aI00
aI00
as(g1005
g248
tp2573
(lp2574
I00
aI00
aI00
as(g965
g136
tp2575
(lp2576
I00
aI00
aI01
as(g311
g965
tp2577
(lp2578
I00
aI00
aI00
as(g955
g965
tp2579
(lp2580
I00
aI00
aI00
as(g136
g368
tp2581
(lp2582
I00
aI00
aI00
as(g1002
g1002
tp2583
(lp2584
I00
aI00
aI00
as(g311
g135
tp2585
(lp2586
I00
aI01
aI00
as(g955
g368
tp2587
(lp2588
I00
aI00
aI00
as(g1002
g955
tp2589
(lp2590
I00
aI00
aI00
as(g437
g248
tp2591
(lp2592
I00
aI01
aI00
as(g1002
g965
tp2593
(lp2594
I00
aI00
aI00
as(g955
g1005
tp2595
(lp2596
g2458
aI00
aI00
as(g311
g437
tp2597
(lp2598
I00
aI00
aI00
as(g135
g136
tp2599
(lp2600
I00
aI00
aI00
as(g955
g248
tp2601
(lp2602
I00
aI01
aI00
as(g248
g955
tp2603
(lp2604
I00
aI00
aI00
as(g437
g955
tp2605
(lp2606
I00
aI00
aI00
as(g1005
g311
tp2607
(lp2608
I00
aI00
aI00
as(g437
g965
tp2609
(lp2610
I00
aI00
aI00
as(g368
g311
tp2611
(lp2612
I00
aI00
aI00
as(g311
g1002
tp2613
(lp2614
g2458
aI00
aI01
as(g965
g965
tp2615
(lp2616
I00
aI00
aI00
as(g197
g311
tp2617
(lp2618
I00
aI00
aI00
as(g955
g197
tp2619
(lp2620
I00
aI01
aI00
as(g437
g311
tp2621
(lp2622
I00
aI01
aI00
as(g437
g437
tp2623
(lp2624
I00
aI00
aI00
as(g197
g965
tp2625
(lp2626
I00
aI00
aI00
as(g311
g136
tp2627
(lp2628
I00
aI00
aI00
as(g368
g955
tp2629
(lp2630
I00
aI00
aI00
as(g135
g1002
tp2631
(lp2632
g2458
aI00
aI01
as(g136
g437
tp2633
(lp2634
I00
aI00
aI00
as(g965
g955
tp2635
(lp2636
I00
aI00
aI00
as(g248
g135
tp2637
(lp2638
I00
aI00
aI00
as(g136
g1002
tp2639
(lp2640
I00
aI00
aI00
as(g311
g368
tp2641
(lp2642
I00
aI00
aI00
as(g1005
g135
tp2643
(lp2644
I00
aI00
aI00
as(g311
g1005
tp2645
(lp2646
g2458
aI00
aI00
as(g368
g135
tp2647
(lp2648
I00
aI00
aI00
as(g136
g136
tp2649
(lp2650
I00
aI00
aI00
as(g965
g197
tp2651
(lp2652
I00
aI00
aI00
as(g248
g1005
tp2653
(lp2654
g2458
aI00
aI00
as(g197
g1005
tp2655
(lp2656
g2458
aI00
aI00
as(g136
g1005
tp2657
(lp2658
I00
aI00
aI00
as(g136
g248
tp2659
(lp2660
I00
aI00
aI00
as(g368
g197
tp2661
(lp2662
I00
aI00
aI00
as(g197
g368
tp2663
(lp2664
I00
aI00
aI00
as(g135
g248
tp2665
(lp2666
I00
aI00
aI00
as(g1002
g1005
tp2667
(lp2668
I00
aI00
aI00
as(g955
g135
tp2669
(lp2670
I00
aI00
aI00
as(g248
g311
tp2671
(lp2672
I00
aI00
aI00
as(g197
g197
tp2673
(lp2674
I00
aI00
aI00
as(g955
g1002
tp2675
(lp2676
g2458
aI00
aI01
as(g1005
g955
tp2677
(lp2678
I00
aI00
aI00
assg505
g506
sS'pick_in_way'
p2679
(itrajectory_representation.predicates.pick_in_way
PickInWay
p2680
(dp2681
g133
(dp2682
g248
g586
sg437
g630
sg135
g686
sg965
g729
sg311
g773
sg368
g817
sg955
g865
sg197
g915
ssg476
(dp2683
g248
(lp2684
Vrectangular_packing_box2
p2685
aVsquare_packing_box1
p2686
asg437
(lp2687
Vsquare_packing_box1
p2688
asg135
(lp2689
Vrectangular_packing_box2
p2690
aVsquare_packing_box2
p2691
asg965
(lp2692
sg311
(lp2693
Vrectangular_packing_box2
p2694
aVrectangular_packing_box3
p2695
asg368
(lp2696
Vrectangular_packing_box2
p2697
aVrectangular_packing_box4
p2698
asg955
(lp2699
sg197
(lp2700
Vrectangular_packing_box2
p2701
aVsquare_packing_box1
p2702
aVrectangular_packing_box4
p2703
assg505
(lp2704
g965
ag1005
ag136
ag1002
ag955
ag1005
ag136
ag1002
ag1005
ag136
ag1002
ag1005
ag136
ag1002
ag1005
ag136
ag1002
ag1005
ag136
ag1002
ag1005
ag136
ag1002
ag1005
ag136
ag1002
asg508
g509
sg84
(dp2705
sg543
g544
sg942
Nsg948
g544
sg945
(dp2706
sg947
I8
sg997
I01
sg949
Nsg950
(dp2707
(g311
g197
tp2708
I00
s(g311
g248
tp2709
I00
s(g135
g368
tp2710
I00
s(g135
g135
tp2711
I00
s(g437
g368
tp2712
I01
s(g437
g135
tp2713
I01
s(g197
g437
tp2714
I00
s(g311
g955
tp2715
I00
s(g965
g135
tp2716
I00
s(g248
g248
tp2717
I00
s(g437
g1002
tp2718
I00
s(g1005
g1002
tp2719
I00
s(g248
g197
tp2720
I01
s(g1002
g197
tp2721
I00
s(g955
g136
tp2722
I00
s(g1005
g437
tp2723
I00
s(g437
g197
tp2724
I01
s(g135
g1005
tp2725
I00
s(g311
g311
tp2726
I00
s(g1002
g311
tp2727
I00
s(g368
g437
tp2728
I00
s(g437
g136
tp2729
I00
s(g965
g368
tp2730
I00
s(g248
g965
tp2731
I00
s(g955
g955
tp2732
I00
s(g437
g1005
tp2733
I00
s(g1002
g437
tp2734
I00
s(g1002
g368
tp2735
I00
s(g1002
g135
tp2736
I00
s(g368
g136
tp2737
I00
s(g197
g248
tp2738
I00
s(g965
g248
tp2739
I00
s(g368
g965
tp2740
I00
s(g1002
g248
tp2741
I00
s(g1005
g136
tp2742
I00
s(g955
g437
tp2743
I01
s(g248
g368
tp2744
I01
s(g1005
g368
tp2745
I00
s(g368
g1005
tp2746
I00
s(g135
g311
tp2747
I01
s(g197
g955
tp2748
I00
s(g135
g437
tp2749
I00
s(g197
g136
tp2750
I00
s(g1005
g1005
tp2751
I00
s(g368
g248
tp2752
I00
s(g955
g311
tp2753
I00
s(g136
g955
tp2754
I00
s(g965
g1002
tp2755
I00
s(g136
g965
tp2756
I00
s(g197
g135
tp2757
I00
s(g135
g955
tp2758
I00
s(g368
g1002
tp2759
I00
s(g135
g965
tp2760
I00
s(g368
g368
tp2761
I00
s(g965
g437
tp2762
I00
s(g1002
g136
tp2763
I00
s(g136
g311
tp2764
I00
s(g248
g136
tp2765
I00
s(g1005
g965
tp2766
I00
s(g136
g197
tp2767
I00
s(g135
g197
tp2768
I00
s(g965
g1005
tp2769
I00
s(g197
g1002
tp2770
I00
s(g965
g311
tp2771
I00
s(g248
g437
tp2772
I00
s(g248
g1002
tp2773
I00
s(g136
g135
tp2774
I00
s(g1005
g197
tp2775
I00
s(g1005
g248
tp2776
I00
s(g965
g136
tp2777
I00
s(g311
g965
tp2778
I00
s(g955
g965
tp2779
I00
s(g136
g368
tp2780
I00
s(g1002
g1002
tp2781
I00
s(g311
g135
tp2782
I01
s(g955
g368
tp2783
I00
s(g1002
g955
tp2784
I00
s(g437
g248
tp2785
I01
s(g1002
g965
tp2786
I00
s(g955
g1005
tp2787
I00
s(g311
g437
tp2788
I00
s(g135
g136
tp2789
I00
s(g955
g248
tp2790
I01
s(g248
g955
tp2791
I00
s(g437
g955
tp2792
I00
s(g1005
g311
tp2793
I00
s(g437
g965
tp2794
I00
s(g368
g311
tp2795
I00
s(g311
g1002
tp2796
I00
s(g965
g965
tp2797
I00
s(g197
g311
tp2798
I00
s(g955
g197
tp2799
I01
s(g437
g311
tp2800
I01
s(g437
g437
tp2801
I00
s(g197
g965
tp2802
I00
s(g311
g136
tp2803
I00
s(g368
g955
tp2804
I00
s(g135
g1002
tp2805
I00
s(g136
g437
tp2806
I00
s(g965
g955
tp2807
I00
s(g248
g135
tp2808
I00
s(g136
g1002
tp2809
I00
s(g311
g368
tp2810
I00
s(g1005
g135
tp2811
I00
s(g311
g1005
tp2812
I00
s(g368
g135
tp2813
I00
s(g136
g136
tp2814
I00
s(g965
g197
tp2815
I00
s(g248
g1005
tp2816
I00
s(g197
g1005
tp2817
I00
s(g136
g1005
tp2818
I00
s(g136
g248
tp2819
I00
s(g368
g197
tp2820
I00
s(g197
g368
tp2821
I00
s(g135
g248
tp2822
I00
s(g1002
g1005
tp2823
I00
s(g955
g135
tp2824
I00
s(g248
g311
tp2825
I00
s(g197
g197
tp2826
I00
s(g955
g1002
tp2827
I00
s(g1005
g955
tp2828
I00
ssg996
NsbsS'robot_pose'
p2829
g22
(g23
(I0
tp2830
g25
tp2831
Rp2832
(I1
(I1
I3
tp2833
g145
I00
S'\xc8|-\xec\xef\xa9\xc7\xbf\xb9\xf3\xee\xe0Y\xf7\x17\xc0\xeb]\x082$\xe1\x06@'
p2834
tp2835
bsS'is_holding_goal_entity'
p2836
(itrajectory_representation.predicates.is_holding_goal_entity
IsHoldingGoalEntity
p2837
(dp2838
g2424
g2425
sg949
NsbsS'mc_pick_path'
p2839
(dp2840
sS'current_collides'
p2841
g509
sbasS'seed'
p2842
NsS'state_prime'
p2843
(lp2844
sS'problem_idx'
p2845
I275
sb.