(itrajectory_representation.trajectory
Trajectory
p0
(dp1
S'rewards'
p2
(lp3
I10
asS'actions'
p4
(lp5
(itrajectory_representation.operator
Operator
p6
(dp7
S'is_skeleton'
p8
I00
sS'discrete_parameters'
p9
(dp10
S'object'
p11
Vsquare_packing_box1
p12
sS'two_arm_place_region'
p13
S'home_region'
p14
sS'two_arm_place_object'
p15
Vsquare_packing_box1
p16
ssS'type'
p17
S'two_arm_pick_two_arm_place'
p18
sS'continuous_parameters'
p19
(dp20
S'q_goal'
p21
cnumpy.core.multiarray
_reconstruct
p22
(cnumpy
ndarray
p23
(I0
tp24
S'b'
p25
tp26
Rp27
(I1
(I3
tp28
cnumpy
dtype
p29
(S'f8'
p30
I0
I1
tp31
Rp32
(I3
S'<'
p33
NNNI-1
I-1
I0
tp34
bI00
S'\x8aB/W\x85x\xea?\xe9\xc96\xe1\xf9\x86\x15\xc0\xfdM\xde\xbb\x02\x17\t\xc0'
p35
tp36
bsS'place'
p37
(dp38
g21
g22
(g23
(I0
tp39
g25
tp40
Rp41
(I1
(I3
tp42
g32
I00
S'b\xf7L\xacc\xda\xf5?Bt\xce\x04$\xad\x03\xc0S\xdc\xf3R-4\xce\xbf'
p43
tp44
bssS'pick'
p45
(dp46
g21
g27
sssS'low_level_motion'
p47
(lp48
g22
(g23
(I0
tp49
g25
tp50
Rp51
(I1
(I3
tp52
g32
I00
S'\xf2I-\xc1\xee\x1f\xfa?Yc\rx\x9c\n\x18\xc0?_z:D*\x17@'
p53
tp54
bag22
(g23
(I0
tp55
g25
tp56
Rp57
(I1
(I3
tp58
g29
(S'f8'
p59
I0
I1
tp60
Rp61
(I3
S'<'
p62
NNNI-1
I-1
I0
tp63
bI00
S'v%D\x97w\xd1\xf7?Z\xadP\x90\x08<\x17\xc0-\xca\x8a\t\xe2p\xe7\xbf'
p64
tp65
bag22
(g23
(I0
tp66
g25
tp67
Rp68
(I1
(I3
tp69
g61
I00
S'\xf8C*\xbe\x14\xcf\xe8?\x81d\xab\xeb\xa8<\x18\xc0\xc8\\\xf4\x8c\xc3\xfa\xfe\xbf'
p70
tp71
bag27
ag27
asbasS'filename'
p72
S''
p73
sS'states'
p74
(lp75
(itrajectory_representation.shortest_path_pick_and_place_state
ShortestPathPaPState
p76
(dp77
S'place_used'
p78
(dp79
(g16
g14
tp80
(itrajectory_representation.operator
Operator
p81
(dp82
g8
I01
sg9
(dp83
S'region'
p84
g14
sg11
g16
ssg17
S'two_arm_place'
p85
sg19
(dp86
g21
g22
(g23
(I0
tp87
g25
tp88
Rp89
(I1
(I3
tp90
g32
I00
S'b\xf7L\xacc\xda\xf5?Bt\xce\x04$\xad\x03\xc0S\xdc\xf3R-4\xce\xbf'
p91
tp92
bssg47
(lp93
g22
(g23
(I0
tp94
g25
tp95
Rp96
(I1
(I3
tp97
g32
I00
S'\x8aB/W\x85x\xea?\xdf\xc96\xe1\xf9\x86\x15\xc03\x0c\xaa\xec\xf3,\t@'
p98
tp99
bag22
(g23
(I0
tp100
g25
tp101
Rp102
(I1
(I3
tp103
g61
I00
S'\x16nfXE \xf2?\x06\xf1|#c\xe6\x12\xc08\x98\x8f,\xc1@\x04\xc0'
p104
tp105
bag22
(g23
(I0
tp106
g25
tp107
Rp108
(I1
(I3
tp109
g61
I00
S'\xc1E\xbb\x1b\xed\x13\xf3?\xca\xdcw\xec\x1a\x18\x10\xc0j\xed\xec2j\x8c\x04\xc0'
p110
tp111
bag22
(g23
(I0
tp112
g25
tp113
Rp114
(I1
(I3
tp115
g61
I00
S'\xf09\xb6\x1c*\x86\xee?\xc4\n/\x96\xcb\xe3\n\xc0\xa0\xc9\xd6F6\x0f\x00\xc0'
p116
tp117
bag22
(g23
(I0
tp118
g25
tp119
Rp120
(I1
(I3
tp121
g61
I00
S'{\xaa2 U\x1e\xf1?RG\x9d\xd8Q\xfe\x05\xc0JC\x0e\x08/\xff\x08\xc0'
p122
tp123
bag89
ag89
asbssS'place_in_way'
p124
(itrajectory_representation.predicates.place_in_way
PlaceInWay
p125
(dp126
S'mc_path_to_entity'
p127
(dp128
(Vrectangular_packing_box4
p129
S'home_region'
p130
tp131
(lp132
g22
(g23
(I0
tp133
g25
tp134
Rp135
(I1
(I3
tp136
g29
(S'f8'
p137
I0
I1
tp138
Rp139
(I3
S'<'
p140
NNNI-1
I-1
I0
tp141
bI00
S'\xf8\rl\xaf\xd1)\x08@\n\xb9\xb4\xd1`\xd6\x1c\xc0\xae\xb1\x0b. A\x11@'
p142
tp143
bag22
(g23
(I0
tp144
g25
tp145
Rp146
(I1
(I3
tp147
g29
(S'f8'
p148
I0
I1
tp149
Rp150
(I3
S'<'
p151
NNNI-1
I-1
I0
tp152
bI00
S'/\x08\xfbO\x0f\xe3\x04@j\xb9\xdeR\x8bv\x1a\xc0Nw\xbd\xbe\xd2\x01\xfd\xbf'
p153
tp154
bag22
(g23
(I0
tp155
g25
tp156
Rp157
(I1
(I3
tp158
g150
I00
S'\x02:\xde\x84?\xc0\x03@\x16\xfaJE\x8a\x0f\x19\xc0\x13\xc0\x8b\x01\x1d?\xf4\xbf'
p159
tp160
bag22
(g23
(I0
tp161
g25
tp162
Rp163
(I1
(I3
tp164
g150
I00
S'!\x83\xc0\xf3W\x85\xff?\xed\x8f\x90/y\xfd\x16\xc06jP\xfe\x98\xf5\xf4\xbf'
p165
tp166
bag22
(g23
(I0
tp167
g25
tp168
Rp169
(I1
(I3
tp170
g150
I00
S'2Z\xe1\xe97J\xf6?\\\x1e`@2v\x16\xc0\xc4\x0c\xcc\x14<\xf9\xf6\xbf'
p171
tp172
bag22
(g23
(I0
tp173
g25
tp174
Rp175
(I1
(I3
tp176
g150
I00
S'tx\x8as\xa8b\xed?\x9ej\x15\xfa\xf0{\x15\xc0@\xed\x9a-\x9eD\xf2\xbf'
p177
tp178
bag22
(g23
(I0
tp179
g25
tp180
Rp181
(I1
(I3
tp182
g150
I00
S"\xb2&6mg)\xe8?\x99\xe0G'\x16\xe0\x13\xc0\xc8oL\xf5\x17p\xe6\xbf"
p183
tp184
bag22
(g23
(I0
tp185
g25
tp186
Rp187
(I1
(I3
tp188
g150
I00
S'`\xc8Aw-\x81\xeb?/\xc3\xe6O\x04\xca\x10\xc0\x8a\xb7K)\x91{\xe4\xbf'
p189
tp190
bag22
(g23
(I0
tp191
g25
tp192
Rp193
(I1
(I3
tp194
g150
I00
S'\xe1\xc6\xc7\xa7\x12X\xe7?\x98\x99\xb0\x9a\xfb\xdb\x0b\xc0R\t\x1b)\xeae\xe0\xbf'
p195
tp196
bag22
(g23
(I0
tp197
g25
tp198
Rp199
(I1
(I3
tp200
g150
I00
S'p\xf1\xbdc^\x84\xf1?"\x88LL\xf9D\x06\xc0~w\r\xe9m\x0f\x19@'
p201
tp202
bas(Vsquare_packing_box4
p203
g130
tp204
(lp205
g22
(g23
(I0
tp206
g25
tp207
Rp208
(I1
(I3
tp209
g139
I00
S'E\x11[Yw\xd7\t@\x82\xc4\rM\xcf3\x1f\xc0\x12~\x0by\xe9$\x16@'
p210
tp211
bag22
(g23
(I0
tp212
g25
tp213
Rp214
(I1
(I3
tp215
g150
I00
S'\xc4Q\xc7C\xc2\x94\x07@g\xab\x8b\xc7\xff\xcd\x1c\xc0\xf74\xc6\xd0z\x89\xfa\xbf'
p216
tp217
bag22
(g23
(I0
tp218
g25
tp219
Rp220
(I1
(I3
tp221
g150
I00
S'/\x08\xfbO\x0f\xe3\x04@j\xb9\xdeR\x8bv\x1a\xc0Nw\xbd\xbe\xd2\x01\xfd\xbf'
p222
tp223
bag22
(g23
(I0
tp224
g25
tp225
Rp226
(I1
(I3
tp227
g150
I00
S'2]\x933g}\x00@\xebx\x00&R!\x1b\xc0\xce\x170ZD}\x00\xc0'
p228
tp229
bag22
(g23
(I0
tp230
g25
tp231
Rp232
(I1
(I3
tp233
g150
I00
S'4#\xe8i\x80D\xf8?\xdd\x1dlTl\\\x19\xc0m\xc1\x1a\xec\xde\x01\x01\xc0'
p234
tp235
bag22
(g23
(I0
tp236
g25
tp237
Rp238
(I1
(I3
tp239
g150
I00
S'\x9f5<Q\xb2\xb3\xf7?\xb3\xd6LI,\xe8\x16\xc0\xc2\x13\xbbtu\x87\x00\xc0'
p240
tp241
bag22
(g23
(I0
tp242
g25
tp243
Rp244
(I1
(I3
tp245
g150
I00
S'\xd0\xcb\x13\x8f\xaa\x9d\xed?\x90\x01<]3\x06\x16\xc0F\xf1\xe7x32\x02\xc0'
p246
tp247
bag22
(g23
(I0
tp248
g25
tp249
Rp250
(I1
(I3
tp251
g150
I00
S'l[\xc4\x16<\xe6\xe9?\xa6\xa0\x90\x84X\x9f\x13\xc0\xc2\xd74Q\x00\xaf\xff\xbf'
p252
tp253
bag22
(g23
(I0
tp254
g25
tp255
Rp256
(I1
(I3
tp257
g150
I00
S"\xaeJ\xbd\x1936\xec?\x04\x13\xd4'\x9f\x88\x10\xc0\x805qo\xb6\xe6\xff\xbf"
p258
tp259
bag22
(g23
(I0
tp260
g25
tp261
Rp262
(I1
(I3
tp263
g150
I00
S'\xf09\xb6\x1c*\x86\xee?\xc4\n/\x96\xcb\xe3\n\xc0\xa0\xc9\xd6F6\x0f\x00\xc0'
p264
tp265
bag22
(g23
(I0
tp266
g25
tp267
Rp268
(I1
(I3
tp269
g150
I00
S'3\xe9\xaf\x05T\x89\xe7?+~\xcb\xd3\x15\xc7\x04\xc0x6(d5\xed\x07@'
p270
tp271
bas(Vrectangular_packing_box1
p272
g130
tp273
(lp274
g22
(g23
(I0
tp275
g25
tp276
Rp277
(I1
(I3
tp278
g139
I00
S'\x0e<\xcd\x89\x98K\x05@=\x07\x92M\x04O\x18\xc0\x98F\xe8\x16\xce<\x18@'
p279
tp280
bag22
(g23
(I0
tp281
g25
tp282
Rp283
(I1
(I3
tp284
g150
I00
S'!\x83\xc0\xf3W\x85\xff?\xed\x8f\x90/y\xfd\x16\xc06jP\xfe\x98\xf5\xf4\xbf'
p285
tp286
bag22
(g23
(I0
tp287
g25
tp288
Rp289
(I1
(I3
tp290
g150
I00
S'2Z\xe1\xe97J\xf6?\\\x1e`@2v\x16\xc0\xc4\x0c\xcc\x14<\xf9\xf6\xbf'
p291
tp292
bag22
(g23
(I0
tp293
g25
tp294
Rp295
(I1
(I3
tp296
g150
I00
S'tx\x8as\xa8b\xed?\x9ej\x15\xfa\xf0{\x15\xc0@\xed\x9a-\x9eD\xf2\xbf'
p297
tp298
bag22
(g23
(I0
tp299
g25
tp300
Rp301
(I1
(I3
tp302
g150
I00
S"\xb2&6mg)\xe8?\x99\xe0G'\x16\xe0\x13\xc0\xc8oL\xf5\x17p\xe6\xbf"
p303
tp304
bag22
(g23
(I0
tp305
g25
tp306
Rp307
(I1
(I3
tp308
g150
I00
S'`\xc8Aw-\x81\xeb?/\xc3\xe6O\x04\xca\x10\xc0\x8a\xb7K)\x91{\xe4\xbf'
p309
tp310
bag22
(g23
(I0
tp311
g25
tp312
Rp313
(I1
(I3
tp314
g150
I00
S'\xe1\xc6\xc7\xa7\x12X\xe7?\x98\x99\xb0\x9a\xfb\xdb\x0b\xc0R\t\x1b)\xeae\xe0\xbf'
p315
tp316
bag22
(g23
(I0
tp317
g25
tp318
Rp319
(I1
(I3
tp320
g150
I00
S'p\xf1\xbdc^\x84\xf1?"\x88LL\xf9D\x06\xc0~w\r\xe9m\x0f\x19@'
p321
tp322
bas(Vsquare_packing_box2
p323
g130
tp324
(lp325
g22
(g23
(I0
tp326
g25
tp327
Rp328
(I1
(I3
tp329
g139
I00
S'\x90\x91SI=f\xe6?\x84[\x80\xff\xbd\xe1\x1e\xc0l_\xb3\x1a\x84\xa7\x18@'
p330
tp331
bag22
(g23
(I0
tp332
g25
tp333
Rp334
(I1
(I3
tp335
g150
I00
S'\xd23W\xd6\xdd\xe3\xe6?\xdc\xcai,~\xa9\x1c\xc0\xe4\x03\x93/\x16_\x04\xc0'
p336
tp337
bag22
(g23
(I0
tp338
g25
tp339
Rp340
(I1
(I3
tp341
g150
I00
S'\xf8\xfc\x1a\xd0\xc9l\xe8?\x8a\x897\x8e~\x98\x1a\xc0\xaf\xf7\xb87\xc6\xa7\x01\xc0'
p342
tp343
bag22
(g23
(I0
tp344
g25
tp345
Rp346
(I1
(I3
tp347
g150
I00
S"\xc6'8AN\xb0\xec?\xe0\x975>\x0f\x03\x19\xc0(\xe0e;\x85\x89\x05\xc0"
p348
tp349
bag22
(g23
(I0
tp350
g25
tp351
Rp352
(I1
(I3
tp353
g150
I00
S'\xd0\xcb\x13\x8f\xaa\x9d\xed?\x90\x01<]3\x06\x16\xc0F\xf1\xe7x32\x02\xc0'
p354
tp355
bag22
(g23
(I0
tp356
g25
tp357
Rp358
(I1
(I3
tp359
g150
I00
S'l[\xc4\x16<\xe6\xe9?\xa6\xa0\x90\x84X\x9f\x13\xc0\xc2\xd74Q\x00\xaf\xff\xbf'
p360
tp361
bag22
(g23
(I0
tp362
g25
tp363
Rp364
(I1
(I3
tp365
g150
I00
S"\xaeJ\xbd\x1936\xec?\x04\x13\xd4'\x9f\x88\x10\xc0\x805qo\xb6\xe6\xff\xbf"
p366
tp367
bag22
(g23
(I0
tp368
g25
tp369
Rp370
(I1
(I3
tp371
g150
I00
S'\xf09\xb6\x1c*\x86\xee?\xc4\n/\x96\xcb\xe3\n\xc0\xa0\xc9\xd6F6\x0f\x00\xc0'
p372
tp373
bag22
(g23
(I0
tp374
g25
tp375
Rp376
(I1
(I3
tp377
g150
I00
S'3\xe9\xaf\x05T\x89\xe7?+~\xcb\xd3\x15\xc7\x04\xc0x6(d5\xed\x07@'
p378
tp379
bassS'mc_to_entity'
p380
(dp381
(g129
g130
tp382
(lp383
Vrectangular_packing_box3
p384
aVrectangular_packing_box2
p385
as(g203
g130
tp386
(lp387
Vrectangular_packing_box4
p388
aVrectangular_packing_box2
p389
as(g272
g130
tp390
(lp391
Vrectangular_packing_box2
p392
as(g323
g130
tp393
(lp394
Vsquare_packing_box3
p395
aVsquare_packing_box1
p396
assS'reachable_entities'
p397
(lp398
Vrectangular_packing_box4
p399
aVrectangular_packing_box2
p400
aVrectangular_packing_box3
p401
aVrectangular_packing_box1
p402
aVsquare_packing_box2
p403
aVsquare_packing_box3
p404
ag12
asS'collides'
p405
(dp406
Vrectangular_packing_box4
p407
c__builtin__
set
p408
((lp409
I513
aI386
aI515
aI68
aI613
aI552
aI111
aI112
aI337
aI286
aI339
aI117
aI118
aI375
aI440
aI260
aI572
aI573
aI254
atp410
Rp411
sVrectangular_packing_box2
p412
g408
((lp413
I179
aI268
aI435
aI144
aI405
aI453
aI548
aI37
aI38
aI348
aI302
aI303
aI561
aI178
aI307
aI565
aI54
aI442
aI63
aI64
aI577
aI194
aI438
aI457
aI376
aI210
aI343
aI89
aI90
aI219
aI220
aI605
aI425
aI612
aI550
aI367
aI114
aI500
aI247
aI248
aI511
atp414
Rp415
sVrectangular_packing_box3
p416
g408
((lp417
I269
aI270
aI405
aI280
aI548
aI303
aI307
aI565
aI438
aI442
aI193
aI457
aI210
aI211
aI212
aI213
aI343
aI473
aI479
aI614
aI112
aI500
aI245
aI246
aI381
aI254
atp418
Rp419
sVrectangular_packing_box1
p420
g408
((lp421
I307
aI144
aI403
aI541
aI545
aI550
aI425
aI555
aI302
aI303
aI435
aI438
aI442
aI571
aI62
aI453
aI457
aI342
aI343
aI473
aI474
aI348
aI605
aI612
aI367
aI368
aI369
aI370
aI500
aI247
aI248
aI377
atp422
Rp423
sVsquare_packing_box2
p424
g408
((lp425
I135
aI392
aI146
aI406
aI407
aI177
aI263
aI264
aI448
aI463
aI464
aI593
aI121
aI346
aI486
aI490
aI494
aI240
aI374
aI119
aI120
aI505
aI122
atp426
Rp427
sVsquare_packing_box3
p428
g408
((lp429
I257
aI356
aI583
aI264
aI265
aI490
aI589
aI366
aI564
aI328
aI532
aI478
aI502
aI452
aI122
aI158
aI159
atp430
Rp431
sVsquare_packing_box1
p432
g408
((lp433
I417
aI459
aI196
aI198
aI6
aI7
aI8
aI138
aI139
aI517
aI424
aI362
aI275
aI503
aI152
aI383
aI491
aI349
aI350
aI351
atp434
Rp435
sVsquare_packing_box4
p436
g408
((lp437
I386
aI387
aI617
aI269
aI111
aI339
aI245
aI213
atp438
Rp439
ssg78
g79
sS'pick_used'
p440
(dp441
g399
(itrajectory_representation.operator
Operator
p442
(dp443
g8
I01
sg9
(dp444
S'object'
p445
Vrectangular_packing_box4
p446
ssg17
S'two_arm_pick'
p447
sg19
(dp448
S'q_goal'
p449
(lp450
g22
(g23
(I0
tp451
g25
tp452
Rp453
(I1
(I3
tp454
g139
I00
S'\xf7\rl\xaf\xd1)\x08@\x0c\xb9\xb4\xd1`\xd6\x1c\xc0\xaa\xed\xe1\x98l\x83\xff\xbf'
p455
tp456
bag22
(g23
(I0
tp457
g25
tp458
Rp459
(I1
(I3
tp460
g139
I00
S'\xf8iL\rN\xce\x0c@R\x84\x86\xa7u\xdb\x1f\xc0\xc8\x01_\xf2\xc7\xb5\x06\xc0'
p461
tp462
bag22
(g23
(I0
tp463
g25
tp464
Rp465
(I1
(I3
tp466
g139
I00
S'\xbd\xe4l\x18\x15l\x05@\x15\xcdt8\x81\x17\x1d\xc0\xda\xef^u\xac\xa1\xf1\xbf'
p467
tp468
bag22
(g23
(I0
tp469
g25
tp470
Rp471
(I1
(I3
tp472
g139
I00
S'\xa2R\x7f\xee\x1e\xa1\x07@$l\xd9 \xcb\xd7\x1c\xc0\x96O\x10g\r\xe8\xfa\xbf'
p473
tp474
basS'is_feasible'
p475
I00
ssg47
(lp476
g22
(g23
(I0
tp477
g25
tp478
Rp479
(I1
(I3
tp480
g139
I00
S'\xe4I-\xc1\xee\x1f\xfa?Vc\rx\x9c\n\x18\xc0?_z:D*\x17@'
p481
tp482
bag22
(g23
(I0
tp483
g25
tp484
Rp485
(I1
(I3
tp486
g150
I00
S'\x00\xda\x1c<\xfd\xdc\x00@j"\x91\xe3 \x1a\x18\xc0i~!@)\xb0\xdc\xbf'
p487
tp488
bag22
(g23
(I0
tp489
g25
tp490
Rp491
(I1
(I3
tp492
g150
I00
S'\xf9\xba\xbb\xd8\xde<\x02@\x99\xbe:\xeaE5\x1b\xc0!\x7fo\x1e\nW\x0f@'
p493
tp494
bag465
asbsg400
(itrajectory_representation.operator
Operator
p495
(dp496
g8
I01
sg9
(dp497
g445
Vrectangular_packing_box2
p498
ssg17
g447
sg19
(dp499
g449
(lp500
g22
(g23
(I0
tp501
g25
tp502
Rp503
(I1
(I3
tp504
g139
I00
S'%D;I\xbf\xd2\x01@\xc0\n\xa1\xc1\xfd\xa7\x19\xc0\x8eb\x81@\x0c\xb4\xde\xbf'
p505
tp506
bag22
(g23
(I0
tp507
g25
tp508
Rp509
(I1
(I3
tp510
g139
I00
S'h\xc0\xec{\xed\xc0\x06@\xab\xd0Q\xfb\xdb\x1e\x1d\xc0t\xe1\x1ce\x10\xe6\xf2?'
p511
tp512
bag22
(g23
(I0
tp513
g25
tp514
Rp515
(I1
(I3
tp516
g139
I00
S'\xf7p7\xe6\x0e\n\n@\xef\x0bAx\xff\xd5\x17\xc0\xd4`yw\xfc9\x01\xc0'
p517
tp518
bag22
(g23
(I0
tp519
g25
tp520
Rp521
(I1
(I3
tp522
g139
I00
S'~\xb2t6\xd8j\x06@\x83\xba?;\x05\xfd\x1c\xc0\xa9WX\x8e\x0b\x07\xea?'
p523
tp524
bag22
(g23
(I0
tp525
g25
tp526
Rp527
(I1
(I3
tp528
g139
I00
S'\x85(Z\xfd\xc2\x80\x08@$/\x93eeV\x17\xc0QPSM\xfc\xfa\xf8\xbf'
p529
tp530
basg475
I00
ssg47
(lp531
g22
(g23
(I0
tp532
g25
tp533
Rp534
(I1
(I3
tp535
g139
I00
S'\xe4I-\xc1\xee\x1f\xfa?Vc\rx\x9c\n\x18\xc0?_z:D*\x17@'
p536
tp537
bag503
asbsg401
(itrajectory_representation.operator
Operator
p538
(dp539
g8
I01
sg9
(dp540
g445
Vrectangular_packing_box3
p541
ssg17
g447
sg19
(dp542
g449
(lp543
g22
(g23
(I0
tp544
g25
tp545
Rp546
(I1
(I3
tp547
g139
I00
S'\x0b\xb8Y\xfd\xd7\xd3\x06@\xbb\x94S\xf5\x82\xa0\x1d\xc0\x8aM\xeaDQn\xc6?'
p548
tp549
bag22
(g23
(I0
tp550
g25
tp551
Rp552
(I1
(I3
tp553
g139
I00
S'\xd2`\\\xa7\xa7\x87\x0b@\xb1\x02\xf4\xeb|\x96\x19\xc0p\xf6rCt\x07\xf4\xbf'
p554
tp555
bag22
(g23
(I0
tp556
g25
tp557
Rp558
(I1
(I3
tp559
g139
I00
S'\x9fd\xc1\xcb\xa6X\x0c@1\x0e\xd7\xffD\x04 \xc0\xceF\xf8\xc5\x1e\x97\xfa?'
p560
tp561
bag22
(g23
(I0
tp562
g25
tp563
Rp564
(I1
(I3
tp565
g139
I00
S'\xa0\xd9\xa7BuS\r@\xd8#\xa6\x0f\xc9\x9d\x1f\xc0)\x98\xa6\xcf\x06\xb1\xf5?'
p566
tp567
basg475
I00
ssg47
(lp568
g22
(g23
(I0
tp569
g25
tp570
Rp571
(I1
(I3
tp572
g139
I00
S'\xe4I-\xc1\xee\x1f\xfa?Vc\rx\x9c\n\x18\xc0?_z:D*\x17@'
p573
tp574
bag22
(g23
(I0
tp575
g25
tp576
Rp577
(I1
(I3
tp578
g150
I00
S'\x84\xa3|.\x10\xee\xfc?\xfc\xc5\t\x9e\xc3\xe9\x1a\xc0\xec\x96S\xb5\x05\x08\x05\xc0'
p579
tp580
bag22
(g23
(I0
tp581
g25
tp582
Rp583
(I1
(I3
tp584
g150
I00
S'\xc4_\xf9\x03N\xba\x00@R\xfd8\x1fs\r\x1d\xc0\xa1\xe6w68\xd4\x03\xc0'
p585
tp586
bag22
(g23
(I0
tp587
g25
tp588
Rp589
(I1
(I3
tp590
g150
I00
S'\x80\xbc\xa4f\x96M\x06@\x9bs*uUR\x1d\xc04!\xe3\x9bv-\xda\xbf'
p591
tp592
bag546
asbsg402
(itrajectory_representation.operator
Operator
p593
(dp594
g8
I01
sg9
(dp595
g445
Vrectangular_packing_box1
p596
ssg17
g447
sg19
(dp597
g449
(lp598
g22
(g23
(I0
tp599
g25
tp600
Rp601
(I1
(I3
tp602
g139
I00
S'\x0e<\xcd\x89\x98K\x05@=\x07\x92M\x04O\x18\xc0\x10\xd0|\xab\xa7\xa5\xcc\xbf'
p603
tp604
bag22
(g23
(I0
tp605
g25
tp606
Rp607
(I1
(I3
tp608
g139
I00
S'T\xb2O&tC\x05@f\x99\xd8^w\xd3\x17\xc0\x1c\xf8\r\xf3\xa6\x94\xd2\xbf'
p609
tp610
bag22
(g23
(I0
tp611
g25
tp612
Rp613
(I1
(I3
tp614
g139
I00
S'a\x9d\xf6\x940\x9b\x0b@\x88\xae9<v\xdc\x15\xc0\xb8$\x979+g\xf4\xbf'
p615
tp616
basg475
I00
ssg47
(lp617
g22
(g23
(I0
tp618
g25
tp619
Rp620
(I1
(I3
tp621
g139
I00
S'\xe4I-\xc1\xee\x1f\xfa?Vc\rx\x9c\n\x18\xc0?_z:D*\x17@'
p622
tp623
bag22
(g23
(I0
tp624
g25
tp625
Rp626
(I1
(I3
tp627
g150
I00
S'\xfe\xe8\x18\xb9\x80t\x02@\xc8\xc9\x8bB\xfe\x86\x16\xc0\x19\xcf\xcc\xc3%!\x9e\xbf'
p628
tp629
bag22
(g23
(I0
tp630
g25
tp631
Rp632
(I1
(I3
tp633
g150
I00
S'\x8f\x8b\x05 q\xd7\x07@\xc9\x9b\xdaI\x95\xce\x15\xc0 \xe4\x9d\x1bP\xf8\x80?'
p634
tp635
bag22
(g23
(I0
tp636
g25
tp637
Rp638
(I1
(I3
tp639
g150
I00
S'\xc6>\xe9 \xd2e\x0b@\xe4\xbc"M2\xad\x15\xc0\xbe~a\xe9h\n\x13@'
p640
tp641
bag613
asbsg403
(itrajectory_representation.operator
Operator
p642
(dp643
g8
I01
sg9
(dp644
g445
Vsquare_packing_box2
p645
ssg17
g447
sg19
(dp646
g449
(lp647
g22
(g23
(I0
tp648
g25
tp649
Rp650
(I1
(I3
tp651
g139
I00
S'\x8d\x91SI=f\xe6?\x84[\x80\xff\xbd\xe1\x1e\xc0\xe6j3d\xce\x9d\xbe\xbf'
p652
tp653
bag22
(g23
(I0
tp654
g25
tp655
Rp656
(I1
(I3
tp657
g139
I00
S'\xc8\x8c\xe05\x856\xf6?\xc4E\xbb\xe7[\x02\x1c\xc0= :\xc0\xb3Z\x00\xc0'
p658
tp659
bag22
(g23
(I0
tp660
g25
tp661
Rp662
(I1
(I3
tp663
g139
I00
S'\xc4h\xebK\xb4\x87\xe0?x\xf7\xbec\xaa\xcc\x1f\xc0\x82kh\x87J\xa1\xb3\xbf'
p664
tp665
basg475
I00
ssg47
(lp666
g22
(g23
(I0
tp667
g25
tp668
Rp669
(I1
(I3
tp670
g139
I00
S'\xe4I-\xc1\xee\x1f\xfa?Vc\rx\x9c\n\x18\xc0?_z:D*\x17@'
p671
tp672
bag22
(g23
(I0
tp673
g25
tp674
Rp675
(I1
(I3
tp676
g150
I00
S'\x9a\xbe.\\\\1\x02@n\xc71\xde\x16\x1f\x18\xc0\xa5\xb9\xb4\xac*z\xff\xbf'
p677
tp678
bag22
(g23
(I0
tp679
g25
tp680
Rp681
(I1
(I3
tp682
g150
I00
S'2]\x933g}\x00@\xebx\x00&R!\x1b\xc0\xce\x170ZD}\x00\xc0'
p683
tp684
bag656
asbsg404
(itrajectory_representation.operator
Operator
p685
(dp686
g8
I01
sg9
(dp687
g445
Vsquare_packing_box3
p688
ssg17
g447
sg19
(dp689
g449
(lp690
g22
(g23
(I0
tp691
g25
tp692
Rp693
(I1
(I3
tp694
g139
I00
S'V\xa2G\xdc\xfd\x9a\xc4\xbf\x1b\x95\x95\xb7\xd5c\x1d\xc0\x18va\x87c\x02\xf1\xbf'
p695
tp696
bag22
(g23
(I0
tp697
g25
tp698
Rp699
(I1
(I3
tp700
g139
I00
S'W\x80\x857\n\x8d\xe5?\xa0\xde\x19\xcd\xb0\xaf\x1d\xc0\x1bd\xcb2\x9f,\x03\xc0'
p701
tp702
bag22
(g23
(I0
tp703
g25
tp704
Rp705
(I1
(I3
tp706
g139
I00
S'H\xa5\xae,\x88\x7f\xaa\xbf\\\xc8\x9b$10\x1d\xc0\x8d~\xb6\xe7D\xc1\xf7\xbf'
p707
tp708
bag22
(g23
(I0
tp709
g25
tp710
Rp711
(I1
(I3
tp712
g139
I00
S'\xd1{\xee\xdc2\xf2\xe1?\x84"\xb3\x1f\xdd\xea\x1c\xc0\x92\xad\x00\xd0\xf98\x01\xc0'
p713
tp714
bag22
(g23
(I0
tp715
g25
tp716
Rp717
(I1
(I3
tp718
g139
I00
S't!a\x03\xef\xae\xb9\xbfw\xc2\xe9WQ\x01\x1d\xc0\xf6\x8a\xa8\xeb\x87\x95\xf5\xbf'
p719
tp720
basg475
I00
ssg47
(lp721
g22
(g23
(I0
tp722
g25
tp723
Rp724
(I1
(I3
tp725
g139
I00
S'\xe4I-\xc1\xee\x1f\xfa?Vc\rx\x9c\n\x18\xc0?_z:D*\x17@'
p726
tp727
bag22
(g23
(I0
tp728
g25
tp729
Rp730
(I1
(I3
tp731
g150
I00
S'<k;\xb0\x16\xda\xef?\x01\xf6\xb9DB\xf4\x18\xc0}\xc7/\x02\x8aR\x18@'
p732
tp733
bag22
(g23
(I0
tp734
g25
tp735
Rp736
(I1
(I3
tp737
g150
I00
S'\xf8\xfc\x1a\xd0\xc9l\xe8?\x8a\x897\x8e~\x98\x1a\xc0\xaf\xf7\xb87\xc6\xa7\x01\xc0'
p738
tp739
bag711
asbsg12
(itrajectory_representation.operator
Operator
p740
(dp741
g8
I01
sg9
(dp742
g11
g12
ssg17
S'two_arm_pick'
p743
sg19
(dp744
g21
g22
(g23
(I0
tp745
g25
tp746
Rp747
(I1
(I3
tp748
g32
I00
S'\x8aB/W\x85x\xea?\xe9\xc96\xe1\xf9\x86\x15\xc0\xfdM\xde\xbb\x02\x17\t\xc0'
p749
tp750
bssg47
(lp751
g22
(g23
(I0
tp752
g25
tp753
Rp754
(I1
(I3
tp755
g139
I00
S'\xe4I-\xc1\xee\x1f\xfa?Vc\rx\x9c\n\x18\xc0?_z:D*\x17@'
p756
tp757
bag22
(g23
(I0
tp758
g25
tp759
Rp760
(I1
(I3
tp761
g150
I00
S'2Z\xe1\xe97J\xf6?\\\x1e`@2v\x16\xc0\xc4\x0c\xcc\x14<\xf9\xf6\xbf'
p762
tp763
bag22
(g23
(I0
tp764
g25
tp765
Rp766
(I1
(I3
tp767
g150
I00
S'-%/\xa8h{\xf9?\x98fM\xb1\x8f\x0e\x16\xc0\x8f\x17\x96\x89\xffQ\x10@'
p768
tp769
bag747
asbsVsquare_packing_box4
p770
(itrajectory_representation.operator
Operator
p771
(dp772
g8
I01
sg9
(dp773
g445
Vsquare_packing_box4
p774
ssg17
g447
sg19
(dp775
g449
(lp776
g22
(g23
(I0
tp777
g25
tp778
Rp779
(I1
(I3
tp780
g139
I00
S'F\x11[Yw\xd7\t@\x84\xc4\rM\xcf3\x1f\xc0.x\xc5\xd9\x8e\xe8\xe7\xbf'
p781
tp782
bag22
(g23
(I0
tp783
g25
tp784
Rp785
(I1
(I3
tp786
g139
I00
S'\xd4I\xa1\xbd\x9c\x1d\n@\xa8\x1a4\xa9\xb6\xf3\x1d\xc0\xa7A\xc4\x96\x0b\xc3\xf2\xbf'
p787
tp788
bag22
(g23
(I0
tp789
g25
tp790
Rp791
(I1
(I3
tp792
g139
I00
S'R\xf1feI\x84\t@\xa7\xcd1\x0c\xc3\xda\x1e\xc0^gp\xc55\x8a\xeb\xbf'
p793
tp794
basg475
I00
ssg47
(lp795
g22
(g23
(I0
tp796
g25
tp797
Rp798
(I1
(I3
tp799
g139
I00
S'\xe4I-\xc1\xee\x1f\xfa?Vc\rx\x9c\n\x18\xc0?_z:D*\x17@'
p800
tp801
bag22
(g23
(I0
tp802
g25
tp803
Rp804
(I1
(I3
tp805
g150
I00
S'\x05\x83iK\x01\x86\xfb?\x162zB{\xdc\x1a\xc0T\xd8\x04\x17\xd4b\xea\xbf'
p806
tp807
bag22
(g23
(I0
tp808
g25
tp809
Rp810
(I1
(I3
tp811
g150
I00
S'\tf\xd5\xc3\xdb\xc1\x02@y9\xac\xaa\x85r\x1a\xc0n\x19\xc0\xf8c\xa8\xe2\xbf'
p812
tp813
bag22
(g23
(I0
tp814
g25
tp815
Rp816
(I1
(I3
tp817
g150
I00
S'\x98\x1b)\xc7\xadp\x07@\xe0a\x03*\x00_\x1b\xc0\xe8\xec\xcc63\x8c\xf0\xbf'
p818
tp819
bag785
asbssS'mc_paths'
p820
(dp821
sS'robot'
p822
NsS'reachable_obj_region_pairs'
p823
(lp824
sS'sampled_pick_configs_for_objects'
p825
(dp826
sS'mc_calls'
p827
I0
sS'pick_poses'
p828
g441
sS'problem_env'
p829
NsS'evaluations'
p830
(dp831
(g272
Vrectangular_packing_box2
p832
g130
tp833
I01
s(g323
g832
g130
tp834
I00
s(g129
g323
g130
tp835
I00
s(g203
g323
g130
tp836
I00
s(g129
g203
g130
tp837
I00
s(g323
Vsquare_packing_box1
p838
g130
tp839
I01
s(g272
g838
g130
tp840
I00
s(g272
g129
g130
tp841
I00
s(g323
Vrectangular_packing_box3
p842
g130
tp843
I00
s(g129
Vsquare_packing_box3
p844
g130
tp845
I00
s(g203
g844
g130
tp846
I00
s(g203
g272
g130
tp847
I00
s(g129
g272
g130
tp848
I00
s(g203
g832
g130
tp849
I01
s(g129
g832
g130
tp850
I01
s(g272
g203
g130
tp851
I00
s(g323
g272
g130
tp852
I00
s(g203
g129
g130
tp853
I01
s(g323
g129
g130
tp854
I00
s(g323
g203
g130
tp855
I00
s(g203
g842
g130
tp856
I00
s(g323
g844
g130
tp857
I01
s(g129
g842
g130
tp858
I01
s(g272
g844
g130
tp859
I00
s(g272
g842
g130
tp860
I00
s(g129
g838
g130
tp861
I00
s(g203
g838
g130
tp862
I00
s(g272
g323
g130
tp863
I00
ssS'paths_to_reachable_entities'
p864
NsS'use_shortest_path'
p865
I01
sbsS'ternary_edges'
p866
(dp867
(g832
g832
g130
tp868
(lp869
I00
as(g838
S'loading_region'
p870
g870
tp871
(lp872
I00
as(S'entire_region'
p873
g272
g130
tp874
(lp875
I00
as(g323
g203
g870
tp876
(lp877
I00
as(g130
g130
g130
tp878
(lp879
I00
as(g203
g832
g870
tp880
(lp881
I00
as(g838
g842
g130
tp882
(lp883
I00
as(g130
g129
g130
tp884
(lp885
I00
as(g323
g838
g130
tp886
(lp887
I01
as(g842
g129
g870
tp888
(lp889
I00
as(g130
g203
g870
tp890
(lp891
I00
as(g323
g873
g130
tp892
(lp893
I00
as(g870
g130
g870
tp894
(lp895
I00
as(g129
g844
g130
tp896
(lp897
I00
as(g203
g873
g130
tp898
(lp899
I00
as(g323
g272
g870
tp900
(lp901
I00
as(g844
g870
g130
tp902
(lp903
I00
as(g873
g832
g870
tp904
(lp905
I00
as(g130
g873
g130
tp906
(lp907
I00
as(g832
g870
g130
tp908
(lp909
I00
as(g844
g873
g130
tp910
(lp911
I00
as(g838
g838
g870
tp912
(lp913
I00
as(g870
g203
g870
tp914
(lp915
I00
as(g873
g870
g130
tp916
(lp917
I00
as(g873
g323
g130
tp918
(lp919
I00
as(g870
g870
g130
tp920
(lp921
I00
as(g844
g129
g870
tp922
(lp923
I00
as(g130
g130
g870
tp924
(lp925
I00
as(g272
g323
g870
tp926
(lp927
I00
as(g832
g203
g130
tp928
(lp929
I00
as(g844
g838
g130
tp930
(lp931
I00
as(g272
g130
g870
tp932
(lp933
I00
as(g130
g832
g870
tp934
(lp935
I00
as(g272
g842
g870
tp936
(lp937
I00
as(g842
g272
g130
tp938
(lp939
I00
as(g870
g838
g870
tp940
(lp941
I00
as(g203
g323
g870
tp942
(lp943
I00
as(g832
g832
g870
tp944
(lp945
I00
as(g873
g203
g130
tp946
(lp947
I00
as(g870
g130
g130
tp948
(lp949
I00
as(g129
g832
g130
tp950
(lp951
I01
as(g130
g842
g130
tp952
(lp953
I00
as(g323
g272
g130
tp954
(lp955
I00
as(g842
g203
g130
tp956
(lp957
I00
as(g838
g842
g870
tp958
(lp959
I00
as(g844
g323
g130
tp960
(lp961
I00
as(g323
g838
g870
tp962
(lp963
I00
as(g323
g832
g870
tp964
(lp965
I00
as(g873
g323
g870
tp966
(lp967
I00
as(g870
g842
g870
tp968
(lp969
I00
as(g873
g130
g130
tp970
(lp971
I00
as(g129
g130
g130
tp972
(lp973
I00
as(g870
g873
g130
tp974
(lp975
I00
as(g832
g203
g870
tp976
(lp977
I00
as(g844
g832
g870
tp978
(lp979
I00
as(g844
g844
g130
tp980
(lp981
I00
as(g272
g842
g130
tp982
(lp983
I00
as(g873
g832
g130
tp984
(lp985
I00
as(g272
g870
g870
tp986
(lp987
I00
as(g203
g838
g130
tp988
(lp989
I00
as(g838
g838
g130
tp990
(lp991
I00
as(g838
g129
g130
tp992
(lp993
I00
as(g129
g832
g870
tp994
(lp995
I00
as(g203
g272
g870
tp996
(lp997
I00
as(g844
g129
g130
tp998
(lp999
I00
as(g272
g323
g130
tp1000
(lp1001
I00
as(g832
g272
g870
tp1002
(lp1003
I00
as(g272
g130
g130
tp1004
(lp1005
I00
as(g323
g832
g130
tp1006
(lp1007
I00
as(g832
g844
g130
tp1008
(lp1009
I00
as(g842
g272
g870
tp1010
(lp1011
I00
as(g130
g323
g870
tp1012
(lp1013
I00
as(g873
g130
g870
tp1014
(lp1015
I00
as(g873
g203
g870
tp1016
(lp1017
I00
as(g844
g832
g130
tp1018
(lp1019
I00
as(g842
g844
g870
tp1020
(lp1021
I00
as(g832
g873
g870
tp1022
(lp1023
I00
as(g272
g870
g130
tp1024
(lp1025
I00
as(g844
g323
g870
tp1026
(lp1027
I00
as(g844
g272
g870
tp1028
(lp1029
I00
as(g203
g838
g870
tp1030
(lp1031
I00
as(g130
g842
g870
tp1032
(lp1033
I00
as(g873
g844
g870
tp1034
(lp1035
I00
as(g870
g842
g130
tp1036
(lp1037
I00
as(g870
g323
g870
tp1038
(lp1039
I00
as(g832
g272
g130
tp1040
(lp1041
I00
as(g203
g272
g130
tp1042
(lp1043
I00
as(g870
g844
g130
tp1044
(lp1045
I00
as(g832
g844
g870
tp1046
(lp1047
I00
as(g832
g129
g870
tp1048
(lp1049
I00
as(g842
g203
g870
tp1050
(lp1051
I00
as(g838
g129
g870
tp1052
(lp1053
I00
as(g272
g844
g870
tp1054
(lp1055
I00
as(g130
g838
g870
tp1056
(lp1057
I00
as(g842
g870
g870
tp1058
(lp1059
I00
as(g129
g130
g870
tp1060
(lp1061
I00
as(g838
g272
g130
tp1062
(lp1063
I00
as(g832
g873
g130
tp1064
(lp1065
I00
as(g129
g323
g870
tp1066
(lp1067
I00
as(g842
g832
g870
tp1068
(lp1069
I00
as(g844
g272
g130
tp1070
(lp1071
I00
as(g203
g870
g870
tp1072
(lp1073
I00
as(g323
g130
g130
tp1074
(lp1075
I00
as(g203
g129
g130
tp1076
(lp1077
I01
as(g130
g844
g870
tp1078
(lp1079
I00
as(g870
g272
g870
tp1080
(lp1081
I00
as(g870
g844
g870
tp1082
(lp1083
I00
as(g838
g844
g130
tp1084
(lp1085
I00
as(g272
g844
g130
tp1086
(lp1087
I00
as(g838
g272
g870
tp1088
(lp1089
I00
as(g842
g832
g130
tp1090
(lp1091
I00
as(g832
g323
g130
tp1092
(lp1093
I00
as(g842
g130
g870
tp1094
(lp1095
I00
as(g203
g870
g130
tp1096
(lp1097
I00
as(g870
g129
g870
tp1098
(lp1099
I00
as(g832
g129
g130
tp1100
(lp1101
I00
as(g842
g842
g130
tp1102
(lp1103
I00
as(g129
g129
g130
tp1104
(lp1105
I00
as(g129
g842
g870
tp1106
(lp1107
I00
as(g842
g870
g130
tp1108
(lp1109
I00
as(g844
g203
g130
tp1110
(lp1111
I00
as(g129
g323
g130
tp1112
(lp1113
I00
as(g323
g870
g870
tp1114
(lp1115
I00
as(g842
g873
g870
tp1116
(lp1117
I00
as(g323
g130
g870
tp1118
(lp1119
I00
as(g838
g323
g870
tp1120
(lp1121
I00
as(g203
g129
g870
tp1122
(lp1123
I00
as(g844
g130
g870
tp1124
(lp1125
I00
as(g842
g130
g130
tp1126
(lp1127
I00
as(g870
g129
g130
tp1128
(lp1129
I00
as(g272
g272
g130
tp1130
(lp1131
I00
as(g870
g203
g130
tp1132
(lp1133
I00
as(g203
g844
g130
tp1134
(lp1135
I00
as(g838
g832
g130
tp1136
(lp1137
I00
as(g838
g844
g870
tp1138
(lp1139
I00
as(g129
g838
g870
tp1140
(lp1141
I00
as(g130
g323
g130
tp1142
(lp1143
I00
as(g873
g842
g870
tp1144
(lp1145
I00
as(g842
g838
g130
tp1146
(lp1147
I00
as(g272
g873
g130
tp1148
(lp1149
I00
as(g844
g203
g870
tp1150
(lp1151
I00
as(g844
g842
g870
tp1152
(lp1153
I00
as(g129
g272
g130
tp1154
(lp1155
I00
as(g832
g323
g870
tp1156
(lp1157
I00
as(g129
g870
g130
tp1158
(lp1159
I00
as(g842
g873
g130
tp1160
(lp1161
I00
as(g203
g842
g870
tp1162
(lp1163
I00
as(g832
g838
g130
tp1164
(lp1165
I00
as(g844
g838
g870
tp1166
(lp1167
I00
as(g203
g203
g870
tp1168
(lp1169
I00
as(g129
g129
g870
tp1170
(lp1171
I00
as(g272
g272
g870
tp1172
(lp1173
I00
as(g838
g203
g870
tp1174
(lp1175
I00
as(g203
g323
g130
tp1176
(lp1177
I00
as(g873
g838
g130
tp1178
(lp1179
I00
as(g130
g873
g870
tp1180
(lp1181
I00
as(g130
g272
g870
tp1182
(lp1183
I00
as(g323
g870
g130
tp1184
(lp1185
I00
as(g838
g832
g870
tp1186
(lp1187
I00
as(g272
g838
g870
tp1188
(lp1189
I00
as(g842
g842
g870
tp1190
(lp1191
I00
as(g873
g842
g130
tp1192
(lp1193
I00
as(g323
g842
g870
tp1194
(lp1195
I00
as(g272
g873
g870
tp1196
(lp1197
I00
as(g838
g323
g130
tp1198
(lp1199
I00
as(g129
g272
g870
tp1200
(lp1201
I00
as(g129
g842
g130
tp1202
(lp1203
I01
as(g203
g842
g130
tp1204
(lp1205
I00
as(g838
g130
g870
tp1206
(lp1207
I00
as(g323
g844
g130
tp1208
(lp1209
I01
as(g844
g844
g870
tp1210
(lp1211
I00
as(g129
g873
g130
tp1212
(lp1213
I00
as(g870
g873
g870
tp1214
(lp1215
I00
as(g203
g844
g870
tp1216
(lp1217
I00
as(g870
g272
g130
tp1218
(lp1219
I00
as(g873
g873
g870
tp1220
(lp1221
I00
as(g129
g838
g130
tp1222
(lp1223
I00
as(g838
g203
g130
tp1224
(lp1225
I00
as(g870
g832
g870
tp1226
(lp1227
I00
as(g842
g838
g870
tp1228
(lp1229
I00
as(g844
g130
g130
tp1230
(lp1231
I00
as(g873
g838
g870
tp1232
(lp1233
I00
as(g844
g842
g130
tp1234
(lp1235
I00
as(g842
g323
g130
tp1236
(lp1237
I00
as(g129
g870
g870
tp1238
(lp1239
I00
as(g832
g838
g870
tp1240
(lp1241
I00
as(g272
g832
g130
tp1242
(lp1243
I01
as(g873
g870
g870
tp1244
(lp1245
I00
as(g870
g832
g130
tp1246
(lp1247
I00
as(g838
g873
g130
tp1248
(lp1249
I00
as(g323
g844
g870
tp1250
(lp1251
I00
as(g323
g129
g870
tp1252
(lp1253
I00
as(g203
g130
g130
tp1254
(lp1255
I00
as(g129
g873
g870
tp1256
(lp1257
I00
as(g129
g203
g130
tp1258
(lp1259
I00
as(g873
g129
g870
tp1260
(lp1261
I00
as(g130
g272
g130
tp1262
(lp1263
I00
as(g130
g844
g130
tp1264
(lp1265
I00
as(g272
g838
g130
tp1266
(lp1267
I00
as(g272
g129
g130
tp1268
(lp1269
I00
as(g873
g844
g130
tp1270
(lp1271
I00
as(g323
g842
g130
tp1272
(lp1273
I00
as(g323
g323
g870
tp1274
(lp1275
I00
as(g272
g203
g870
tp1276
(lp1277
I00
as(g203
g130
g870
tp1278
(lp1279
I00
as(g832
g130
g130
tp1280
(lp1281
I00
as(g838
g130
g130
tp1282
(lp1283
I00
as(g272
g832
g870
tp1284
(lp1285
I00
as(g203
g832
g130
tp1286
(lp1287
I01
as(g130
g870
g130
tp1288
(lp1289
I00
as(g873
g873
g130
tp1290
(lp1291
I00
as(g832
g842
g870
tp1292
(lp1293
I00
as(g838
g873
g870
tp1294
(lp1295
I00
as(g870
g323
g130
tp1296
(lp1297
I00
as(g842
g129
g130
tp1298
(lp1299
I00
as(g873
g129
g130
tp1300
(lp1301
I00
as(g838
g870
g130
tp1302
(lp1303
I00
as(g842
g323
g870
tp1304
(lp1305
I00
as(g130
g838
g130
tp1306
(lp1307
I00
as(g873
g272
g870
tp1308
(lp1309
I00
as(g203
g873
g870
tp1310
(lp1311
I00
as(g323
g323
g130
tp1312
(lp1313
I00
as(g272
g203
g130
tp1314
(lp1315
I00
as(g844
g873
g870
tp1316
(lp1317
I00
as(g323
g129
g130
tp1318
(lp1319
I00
as(g130
g203
g130
tp1320
(lp1321
I00
as(g842
g844
g130
tp1322
(lp1323
I00
as(g129
g203
g870
tp1324
(lp1325
I00
as(g203
g203
g130
tp1326
(lp1327
I00
as(g272
g129
g870
tp1328
(lp1329
I00
as(g323
g203
g130
tp1330
(lp1331
I00
as(g844
g870
g870
tp1332
(lp1333
I00
as(g130
g832
g130
tp1334
(lp1335
I00
as(g832
g870
g870
tp1336
(lp1337
I00
as(g130
g129
g870
tp1338
(lp1339
I00
as(g832
g130
g870
tp1340
(lp1341
I00
as(g870
g870
g870
tp1342
(lp1343
I00
as(g323
g873
g870
tp1344
(lp1345
I00
as(g129
g844
g870
tp1346
(lp1347
I00
as(g130
g870
g870
tp1348
(lp1349
I00
as(g832
g842
g130
tp1350
(lp1351
I00
as(g870
g838
g130
tp1352
(lp1353
I00
assg440
g441
sS'use_prm'
p1354
I01
sS'object_names'
p1355
(lp1356
S'square_packing_box1'
p1357
aS'rectangular_packing_box1'
p1358
aS'square_packing_box2'
p1359
aS'rectangular_packing_box2'
p1360
aS'square_packing_box3'
p1361
aS'rectangular_packing_box3'
p1362
aS'square_packing_box4'
p1363
aS'rectangular_packing_box4'
p1364
asg829
NsS'current_holding_collides'
p1365
NsS'object_poses'
p1366
(dp1367
Vrectangular_packing_box4
p1368
g22
(g23
(I0
tp1369
g25
tp1370
Rp1371
(I1
(I1
I3
tp1372
g139
I00
S'\x07\x8f\xeb\xb9\x00\x82\x07@\x1a\x10V\x0eA% \xc0\xd0O\xaf\xb9q\x10\xfa?'
p1373
tp1374
bsVrectangular_packing_box2
p1375
g22
(g23
(I0
tp1376
g25
tp1377
Rp1378
(I1
(I1
I3
tp1379
g139
I00
S'\x00\xcc\xf1\xa8,\xc1\x07@ti\xb5\xe2z;\x1a\xc0&\x92wh\xddN\x17@'
p1380
tp1381
bsVrectangular_packing_box3
p1382
g22
(g23
(I0
tp1383
g25
tp1384
Rp1385
(I1
(I1
I3
tp1386
g139
I00
S'\xb6\xe3d\xa2\xfc\xcc\x0c@,W\xa8\x8a\x0e\x8a\x1c\xc0*\n\x86o\xc0d\xfb?'
p1387
tp1388
bsVrectangular_packing_box1
p1389
g22
(g23
(I0
tp1390
g25
tp1391
Rp1392
(I1
(I1
I3
tp1393
g139
I00
S'\xefL\x97\xef0d\x0b@\xb5\xb4bq\x14\xbd\x18\xc0\xfbO\xd6\x8a\x90\xc1\x18@'
p1394
tp1395
bsVsquare_packing_box2
p1396
g22
(g23
(I0
tp1397
g25
tp1398
Rp1399
(I1
(I1
I3
tp1400
g139
I00
S'\xd7FV\xb0*\x1a\xf5?\xcd\x06\xc1\xc2\xb2V\x1f\xc0;^\x83^\xaeP\x12@'
p1401
tp1402
bsVsquare_packing_box3
p1403
g22
(g23
(I0
tp1404
g25
tp1405
Rp1406
(I1
(I1
I3
tp1407
g139
I00
S"\x80\x1c\xa2'Tv\xd0?f\xf7\xe3y\x9d\xcd\x1f\xc0\t\x90jtq\xf1\x15@"
p1408
tp1409
bsVsquare_packing_box1
p1410
g22
(g23
(I0
tp1411
g25
tp1412
Rp1413
(I1
(I1
I3
tp1414
g139
I00
S"`\xcaO\xd4\xd4=\xbf?\x0cV'\x88\xe8\x89\x16\xc0\x1c\x17\xfe,\xc1\xed\x01@"
p1415
tp1416
bsVsquare_packing_box4
p1417
g22
(g23
(I0
tp1418
g25
tp1419
Rp1420
(I1
(I1
I3
tp1421
g139
I00
S',\x97\xfb\xb2!:\x0f@\xc32\xf9\x1d\x9b, \xc0PF\xe0\x95]\x8d\x16@'
p1422
tp1423
bssS'reachable_regions_while_holding'
p1424
(lp1425
(g399
g870
tp1426
a(g400
g870
tp1427
a(g401
g870
tp1428
a(g402
g870
tp1429
a(g403
g870
tp1430
a(g404
g870
tp1431
a(g12
g870
tp1432
a(g770
g870
tp1433
a(g400
g130
tp1434
a(g401
g130
tp1435
a(g404
g130
tp1436
a(g12
g130
tp1437
asS'in_region'
p1438
(itrajectory_representation.predicates.in_region
InRegion
p1439
(dp1440
g829
NsbsS'cached_pick_paths'
p1441
(dp1442
g399
g476
sg400
g531
sg401
g568
sg402
g617
sg403
g666
sg404
g721
sg12
g751
sg770
g795
ssg405
(dp1443
(Vrectangular_packing_box1
p1444
(cnumpy.core.multiarray
scalar
p1445
(g139
S'p\xb3x\xb10d\x0b@'
p1446
tp1447
Rp1448
g1445
(g139
S'U\x16\x85]\x14\xbd\x18\xc0'
p1449
tp1450
Rp1451
g1445
(g139
S'\xf8\x1cX\x8e\x90\xc1\x18@'
p1452
tp1453
Rp1454
tp1455
tp1456
g423
s(Vsquare_packing_box4
p1457
(g1445
(g139
S'`\x935\xea!:\x0f@'
p1458
tp1459
Rp1460
g1445
(g139
S'\xf2\x96\xab\x1f\x9b, \xc0'
p1461
tp1462
Rp1463
g1445
(g139
S'\xee\x96\xe4\x80]\x8d\x16@'
p1464
tp1465
Rp1466
tp1467
tp1468
g439
s(Vrectangular_packing_box4
p1469
(g1445
(g139
S'\xb8\x1f\xf0\xc0\x00\x82\x07@'
p1470
tp1471
Rp1472
g1445
(g139
S'z\xc8\x94\x0fA% \xc0'
p1473
tp1474
Rp1475
g1445
(g139
S'U\x18[\x08r\x10\xfa?'
p1476
tp1477
Rp1478
tp1479
tp1480
g411
s(Vrectangular_packing_box3
p1481
(g1445
(g139
S'\xd2\xfd\x9c\x82\xfc\xcc\x0c@'
p1482
tp1483
Rp1484
g1445
(g139
S"\x8dA'\x84\x0e\x8a\x1c\xc0"
p1485
tp1486
Rp1487
g1445
(g139
S'\x8b\xc0X\xdf\xc0d\xfb?'
p1488
tp1489
Rp1490
tp1491
tp1492
g419
s(Vsquare_packing_box2
p1493
(g1445
(g139
S'\xbbc\xb1M*\x1a\xf5?'
p1494
tp1495
Rp1496
g1445
(g139
S'"U\x14\xaf\xb2V\x1f\xc0'
p1497
tp1498
Rp1499
g1445
(g139
S'\xe2\x01eS\xaeP\x12@'
p1500
tp1501
Rp1502
tp1503
tp1504
g427
s(Vsquare_packing_box1
p1505
(g1445
(g139
S'T\xe6\xe6\x1b\xd1=\xbf?'
p1506
tp1507
Rp1508
g1445
(g139
S'q9^\x81\xe8\x89\x16\xc0'
p1509
tp1510
Rp1511
g1445
(g139
S'&\xe1B\x1e\xc1\xed\x01@'
p1512
tp1513
Rp1514
tp1515
tp1516
g435
s(Vrectangular_packing_box2
p1517
(g1445
(g139
S'\xba\x15\xc2j,\xc1\x07@'
p1518
tp1519
Rp1520
g1445
(g139
S'\xfdky\xe5z;\x1a\xc0'
p1521
tp1522
Rp1523
g1445
(g139
S'0\x13EH\xddN\x17@'
p1524
tp1525
Rp1526
tp1527
tp1528
g415
s(Vsquare_packing_box3
p1529
(g1445
(g139
S'\x17\xf3sCSv\xd0?'
p1530
tp1531
Rp1532
g1445
(g139
S'\xa4\xabtw\x9d\xcd\x1f\xc0'
p1533
tp1534
Rp1535
g1445
(g139
S'%\xaec\\q\xf1\x15@'
p1536
tp1537
Rp1538
tp1539
tp1540
g431
ssS'state_saver'
p1541
(igtamp_utils.utils
CustomStateSaver
p1542
(dp1543
S'robot_base_pose'
p1544
g22
(g23
(I0
tp1545
g25
tp1546
Rp1547
(I1
(I1
I3
tp1548
g139
I00
S'\xeeI-\xc1\xee\x1f\xfa?Xc\rx\x9c\n\x18\xc0?_z:D*\x17@'
p1549
tp1550
bsS'held_object'
p1551
NsS'robot_name'
p1552
S'pr2'
p1553
sS'env_id'
p1554
I1
sg1366
(dp1555
Vright_wall_1
p1556
g22
(g23
(I0
tp1557
g25
tp1558
Rp1559
(I1
(I4
tp1560
g139
I00
S'H\xe1z\x14\xaeG\x12@&\\\x8f\xc2\xf5(\xd4\xbf\xcc\x7fH\xbf}\x1d\xed?\x00\x00\x00\x00\x00\x00\x00\x00'
p1561
tp1562
bsVc_obst5
p1563
g22
(g23
(I0
tp1564
g25
tp1565
Rp1566
(I1
(I4
tp1567
g139
I00
S"\x83#\x02\x9d@\xa1\x12@\x88\xce\xd36\xffX\xc8\xbfe\xaa`TR'\xed?3J\x00Q\x04d\x01@"
p1568
tp1569
bsVentrance_right
p1570
g22
(g23
(I0
tp1571
g25
tp1572
Rp1573
(I1
(I4
tp1574
g139
I00
S'ffffff\n@H\xe1z\x14\xaeG\t\xc0\x9c\xc4 \xb0rh\xc1?\x00\x00\x00\x00\x00\x00\x00\x00'
p1575
tp1576
bsVcomputer_table
p1577
g22
(g23
(I0
tp1578
g25
tp1579
Rp1580
(I1
(I4
tp1581
g139
I00
S'\x00\x00\x00\x00\x00\x00\x13@\x00\x00\x00\x00\x00\x00\xf8\xbf\x96C\x8bl\xe7\xfb\xe7?\xd2!3\x7f|\xd9\x12@'
p1582
tp1583
bsVchair_6b56
p1584
g22
(g23
(I0
tp1585
g25
tp1586
Rp1587
(I1
(I4
tp1588
g139
I00
S'u=\n\xd7\xa3p\xf5?K\xe1z\x14\xaeG\xd1?\x00\x00\x00\x00\x00\x00\x00\x00\xd6$\xfaNBm\n@'
p1589
tp1590
bsVsquare_packing_box3
p1591
g22
(g23
(I0
tp1592
g25
tp1593
Rp1594
(I1
(I4
tp1595
g139
I00
S"\x84\x1c\xa2'Tv\xd0?b\xf7\xe3y\x9d\xcd\x1f\xc0L7\x89A`\xe5\xd8?\t\x90jtq\xf1\x15@"
p1596
tp1597
bsVsquare_packing_box2
p1598
g22
(g23
(I0
tp1599
g25
tp1600
Rp1601
(I1
(I4
tp1602
g139
I00
S'\xd8FV\xb0*\x1a\xf5?\xcb\x06\xc1\xc2\xb2V\x1f\xc0L7\x89A`\xe5\xd8?;^\x83^\xaeP\x12@'
p1603
tp1604
bsVtable
p1605
g22
(g23
(I0
tp1606
g25
tp1607
Rp1608
(I1
(I4
tp1609
g139
I00
S'\x7f\xf6#EdX\xed?\xac\xffs\x98//\xc0\xbf\x00\x00\x00\x00\x00\x00\x00\x00\x00\x00\x00\x00\x00\x00\x00\x00'
p1610
tp1611
bsVsquare_packing_box1
p1612
g22
(g23
(I0
tp1613
g25
tp1614
Rp1615
(I1
(I4
tp1616
g139
I00
S"\xd8\xc9O\xd4\xd4=\xbf?\x0cV'\x88\xe8\x89\x16\xc0L7\x89A`\xe5\xd8?\x1c\x17\xfe,\xc1\xed\x01@"
p1617
tp1618
bsVback_wall_2
p1619
g22
(g23
(I0
tp1620
g25
tp1621
Rp1622
(I1
(I4
tp1623
g139
I00
S'\xaeG\xe1z\x14.\x13@\x80\x14\xaeG\xe1z\xc4?xX\xa85\xcd\xbb\xf2?\x00\x00\x00\x00\x00\x00\x00\x00'
p1624
tp1625
bsVchair_083c
p1626
g22
(g23
(I0
tp1627
g25
tp1628
Rp1629
(I1
(I4
tp1630
g139
I00
S'\xa4p=\n\xd7\xa3\xe0?333333\xe3\xbf\x00\x00\x00\x00\x00\x00\x00\x00\x00\x00\x00\x00\x00\x00\x00\x00'
p1631
tp1632
bsVback_wall_1
p1633
g22
(g23
(I0
tp1634
g25
tp1635
Rp1636
(I1
(I4
tp1637
g139
I00
S'\xaeG\xe1z\x14.\x13@\x80\x14\xaeG\xe1z\xc4?\xcc\x7fH\xbf}\x1d\xed?\x00\x00\x00\x00\x00\x00\x00\x00'
p1638
tp1639
bsVbottom_wall
p1640
g22
(g23
(I0
tp1641
g25
tp1642
Rp1643
(I1
(I4
tp1644
g139
I00
S'\x00\x00\x00\x00\x00\x00\xfc?\x00\x00\x00\x00\x00\x00\x00\x00\x00\x00\x00\x00\x00\x00\x00\x00\x00\x00\x00\x00\x00\x00\x00\x00'
p1645
tp1646
bsVcup_905a
p1647
g22
(g23
(I0
tp1648
g25
tp1649
Rp1650
(I1
(I4
tp1651
g139
I00
S'\x00\x00\x00\x00\x00\x00\xf0?\x83\xc0\xca\xa1E\xb6\xdb?\x1b/\xdd$\x06\x81\xed?\x00\x00\x00\x00\x00\x00\x00\x00'
p1652
tp1653
bsVplate_496f
p1654
g22
(g23
(I0
tp1655
g25
tp1656
Rp1657
(I1
(I4
tp1658
g139
I00
S"q=\n\xd7\xa3p\xe5?\x9dhW!\xe5'\xdd\xbf\x1b/\xdd$\x06\x81\xed?\x00\x00\x00\x00\x00\x00\x00\x00"
p1659
tp1660
bsVtoaster
p1661
g22
(g23
(I0
tp1662
g25
tp1663
Rp1664
(I1
(I4
tp1665
g139
I00
S')\\\x8f\xc2\xf5(\xf4\xbf\xe0z\x14\xaeG\xe1\xf2\xbf\xb8\x1e\x85\xebQ\xb8\xee?\x89/`\x9b\xf8\x8a\xe4?'
p1666
tp1667
bsVc_obst1
p1668
g22
(g23
(I0
tp1669
g25
tp1670
Rp1671
(I1
(I4
tp1672
g139
I00
S"\x12\xe9@\xc2}\x01\x12@\xb4\xdaz\x82\xd4\xa7\xd2?e\xaa`TR'\xed?Y^O\xd83\x02\x19@"
p1673
tp1674
bsVrectangular_packing_box4
p1675
g22
(g23
(I0
tp1676
g25
tp1677
Rp1678
(I1
(I4
tp1679
g139
I00
S'\x07\x8f\xeb\xb9\x00\x82\x07@\x1c\x10V\x0eA% \xc0L7\x89A`\xe5\xd8?\xd0O\xaf\xb9q\x10\xfa?'
p1680
tp1681
bsVmicrowave
p1682
g22
(g23
(I0
tp1683
g25
tp1684
Rp1685
(I1
(I4
tp1686
g139
I00
S'\x9a\x99\x99\x99\x99\x99\xf1\xbf\x00\x00\x00\x00\x00\x00\x00@7\x89A`\xe5\xd0\xee?\x00\x00\x00\x00\x00\x00\x00\x00'
p1687
tp1688
bsVc_obst7
p1689
g22
(g23
(I0
tp1690
g25
tp1691
Rp1692
(I1
(I4
tp1693
g139
I00
S"\xcbK__\xdb\x96\x12@H\xfbC`\xc9Y\xa4\xbfe\xaa`TR'\xed?5$\x1d\xfb`\xe8\xea?"
p1694
tp1695
bsVc_obst6
p1696
g22
(g23
(I0
tp1697
g25
tp1698
Rp1699
(I1
(I4
tp1700
g139
I00
S"]?zW\xec\x90\x12@\\6y\xde\x92\xc7\xd9?e\xaa`TR'\xed?\xa2\xd2\x0e\xf3H1\x14@"
p1701
tp1702
bsVcup_b6af
p1703
g22
(g23
(I0
tp1704
g25
tp1705
Rp1706
(I1
(I4
tp1707
g139
I00
S'R\xb8\x1e\x85\xebQ\xe8?\x9a\x99\x99\x99\x99\x99\xe1?\x1b/\xdd$\x06\x81\xed?\x00\x00\x00\x00\x00\x00\x00\x00'
p1708
tp1709
bsVc_obst4
p1710
g22
(g23
(I0
tp1711
g25
tp1712
Rp1713
(I1
(I4
tp1714
g139
I00
S"\xce[\xfc\xf0\xb9\xfa\x11@\x08\x8dV\x1f\x1c\x19\xc8\xbfe\xaa`TR'\xed?qR!\xee\x16i\x06@"
p1715
tp1716
bsVrectangular_packing_box2
p1717
g22
(g23
(I0
tp1718
g25
tp1719
Rp1720
(I1
(I4
tp1721
g139
I00
S'\x04\xcc\xf1\xa8,\xc1\x07@vi\xb5\xe2z;\x1a\xc0L7\x89A`\xe5\xd8?&\x92wh\xddN\x17@'
p1722
tp1723
bsVplate_fa76
p1724
g22
(g23
(I0
tp1725
g25
tp1726
Rp1727
(I1
(I4
tp1728
g139
I00
S'=\n\xd7\xa3p=\xf2?\x00\x00\x00\x00\x00\x00\x00\x00\x1b/\xdd$\x06\x81\xed?\x00\x00\x00\x00\x00\x00\x00\x00'
p1729
tp1730
bsVfloorwalls
p1731
g22
(g23
(I0
tp1732
g25
tp1733
Rp1734
(I1
(I4
tp1735
g139
I00
S'\xc7\xcc\xcc\xcc\xcc\xcc\xfc?\x00\x00\x00\x00\x00\x00\x18\xc0H\xe1z\x14\xaeG\xc1?\x16-DT\xfb!\xf9?'
p1736
tp1737
bsVpin_c671
p1738
g22
(g23
(I0
tp1739
g25
tp1740
Rp1741
(I1
(I4
tp1742
g139
I00
S'\xc3\xf5(\\\x8f\xc2\xf1\xbf}?5^\xbaI\x02@\xb8\x1e\x85\xebQ\xb8\xfa?\x00\x00\x00\x00\x00\x00\x00\x00'
p1743
tp1744
bsVc_obst3
p1745
g22
(g23
(I0
tp1746
g25
tp1747
Rp1748
(I1
(I4
tp1749
g139
I00
S"\x9fG\xb9\x95\x8e\x1d\x12@_\x82\xdb>\xcd\x8e\xd7?e\xaa`TR'\xed?)\x83\xb6\x10\xb9\x12\x00@"
p1750
tp1751
bsVchair_2e39
p1752
g22
(g23
(I0
tp1753
g25
tp1754
Rp1755
(I1
(I4
tp1756
g139
I00
S'hfffff\xee?cfffff\xf2\xbf\x00\x00\x00\x00\x00\x00\x00\x00\x07M\xe8QQF\xf3?'
p1757
tp1758
bsVentrance_left
p1759
g22
(g23
(I0
tp1760
g25
tp1761
Rp1762
(I1
(I4
tp1763
g139
I00
S'\x98\x99\x99\x99\x99\x99\xe9\xbfH\xe1z\x14\xaeG\t\xc0\x9c\xc4 \xb0rh\xc1?\x00\x00\x00\x00\x00\x00\x00\x00'
p1764
tp1765
bsVtop_wall_1
p1766
g22
(g23
(I0
tp1767
g25
tp1768
Rp1769
(I1
(I4
tp1770
g139
I00
S'H\xe1z\x14\xaeG\x12@\x80\x14\xaeG\xe1z\xc4?xX\xa85\xcd\xbb\xf2?\x00\x00\x00\x00\x00\x00\x00\x00'
p1771
tp1772
bsVrectangular_packing_box3
p1773
g22
(g23
(I0
tp1774
g25
tp1775
Rp1776
(I1
(I4
tp1777
g139
I00
S'\xba\xe3d\xa2\xfc\xcc\x0c@.W\xa8\x8a\x0e\x8a\x1c\xc0L7\x89A`\xe5\xd8?*\n\x86o\xc0d\xfb?'
p1778
tp1779
bsVshaker
p1780
g22
(g23
(I0
tp1781
g25
tp1782
Rp1783
(I1
(I4
tp1784
g139
I00
S'\n\xd7\xa3p=\n\x01@\x14\xaeG\xe1z\x14\x02@\\\x8f\xc2\xf5(\\\xef?\x00\x00\x00\x00\x00\x00\x00\x00'
p1785
tp1786
bsVc_obst9
p1787
g22
(g23
(I0
tp1788
g25
tp1789
Rp1790
(I1
(I4
tp1791
g139
I00
S"{1V\xe2t\x9f\x12@\xa4K\xb2\x84\xe8\x08\xd0?e\xaa`TR'\xed?\x19\\\xce\x9a\xa2\x1c\xff?"
p1792
tp1793
bsVplate_835a
p1794
g22
(g23
(I0
tp1795
g25
tp1796
Rp1797
(I1
(I4
tp1798
g139
I00
S'\xf6(\\\x8f\xc2\xf5\xf0?\\\x8f\xc2\xf5(\\\xe7\xbf\x1b/\xdd$\x06\x81\xed?\x00\x00\x00\x00\x00\x00\x00\x00'
p1799
tp1800
bsVcup_58a2
p1801
g22
(g23
(I0
tp1802
g25
tp1803
Rp1804
(I1
(I4
tp1805
g139
I00
S'\x85\xebQ\xb8\x1e\x85\xe3?\xcd\xcc\xcc\xcc\xcc\xcc\xdc?\x1b/\xdd$\x06\x81\xed?\x00\x00\x00\x00\x00\x00\x00\x00'
p1806
tp1807
bsVleft_wall_1
p1808
g22
(g23
(I0
tp1809
g25
tp1810
Rp1811
(I1
(I4
tp1812
g139
I00
S'H\xe1z\x14\xaeG\x12@S\xb8\x1e\x85\xebQ\xe4?\xcc\x7fH\xbf}\x1d\xed?\x00\x00\x00\x00\x00\x00\x00\x00'
p1813
tp1814
bsVc_obst2
p1815
g22
(g23
(I0
tp1816
g25
tp1817
Rp1818
(I1
(I4
tp1819
g139
I00
S"\x05e\xedPNo\x12@\xac\xfc\xa4#t\x0f\xb8?e\xaa`TR'\xed?k-\xbb\xfa^\x0f\x0e@"
p1820
tp1821
bsVsquare_packing_box4
p1822
g22
(g23
(I0
tp1823
g25
tp1824
Rp1825
(I1
(I4
tp1826
g139
I00
S'7\x97\xfb\xb2!:\x0f@\xc22\xf9\x1d\x9b, \xc0L7\x89A`\xe5\xd8?PF\xe0\x95]\x8d\x16@'
p1827
tp1828
bsVrectangular_packing_box1
p1829
g22
(g23
(I0
tp1830
g25
tp1831
Rp1832
(I1
(I4
tp1833
g139
I00
S'\xedL\x97\xef0d\x0b@\xb1\xb4bq\x14\xbd\x18\xc0L7\x89A`\xe5\xd8?\xfbO\xd6\x8a\x90\xc1\x18@'
p1834
tp1835
bsVpin_371e
p1836
g22
(g23
(I0
tp1837
g25
tp1838
Rp1839
(I1
(I4
tp1840
g139
I00
S'333333\xf3\xbfffffff\xf6?\xb8\x1e\x85\xebQ\xb8\xee?\x00\x00\x00\x00\x00\x00\x00\x00'
p1841
tp1842
bsVfridge
p1843
g22
(g23
(I0
tp1844
g25
tp1845
Rp1846
(I1
(I4
tp1847
g139
I00
S'\xd7\xa3p=\n\xd7\xeb\xbf\x00\x00\x00\x00\x00\x00\x00\xc0\xcd\xcc\xcc\xcc\xcc\xcc\xf8?\x00\x00\x00\x00\x00\x00\x00\x00'
p1848
tp1849
bsVcup_d441
p1850
g22
(g23
(I0
tp1851
g25
tp1852
Rp1853
(I1
(I4
tp1854
g139
I00
S'\n\xd7\xa3p=\n\xef?\x8f\xc2\xf5(\\\x8f\xe2?\x1b/\xdd$\x06\x81\xed?\x00\x00\x00\x00\x00\x00\x00\x00'
p1855
tp1856
bsVshelf2
p1857
g22
(g23
(I0
tp1858
g25
tp1859
Rp1860
(I1
(I4
tp1861
g139
I00
S'\x00\x00\x00\x00\x00\x00\x0e@\xaeG\xe1z\x14\xae\x07@\x9c\xc4 \xb0rh\xc1?\xd2!3\x7f|\xd9\x12@'
p1862
tp1863
bsVtop_wall_2
p1864
g22
(g23
(I0
tp1865
g25
tp1866
Rp1867
(I1
(I4
tp1868
g139
I00
S'H\xe1z\x14\xaeG\x12@\x80\x14\xaeG\xe1z\xc4?\x16HP\xfc\x18\xf3\xfd?\x00\x00\x00\x00\x00\x00\x00\x00'
p1869
tp1870
bsVc_obst0
p1871
g22
(g23
(I0
tp1872
g25
tp1873
Rp1874
(I1
(I4
tp1875
g139
I00
S'\x02\x15\x94^\xdc?\x12@\xe8k\xb2\xe2Dv\xbc\xbfe\xaa`TR\'\xed?\xeb "\x90e\x90\xfd?'
p1876
tp1877
bsVshelf1
p1878
g22
(g23
(I0
tp1879
g25
tp1880
Rp1881
(I1
(I4
tp1882
g139
I00
S'\x00\x00\x00\x00\x00\x00\x13@\xaeG\xe1z\x14\xae\x07@\x9c\xc4 \xb0rh\xc1?\xd2!3\x7f|\xd9\x12@'
p1883
tp1884
bsVsink
p1885
g22
(g23
(I0
tp1886
g25
tp1887
Rp1888
(I1
(I4
tp1889
g139
I00
S'ffffff\xd6?333333\x01@\x9a\x99\x99\x99\x99\x99\xb9\xbf\x00\x00\x00\x00\x00\x00\x00\x00'
p1890
tp1891
bsVpr2
p1892
g22
(g23
(I0
tp1893
g25
tp1894
Rp1895
(I1
(I4
tp1896
g139
I00
S'\xeeI-\xc1\xee\x1f\xfa?Xc\rx\x9c\n\x18\xc0\x9a_\x94\xa0\xbf\xd0\xc1??_z:D*\x17@'
p1897
tp1898
bsVchair_12d0
p1899
g22
(g23
(I0
tp1900
g25
tp1901
Rp1902
(I1
(I4
tp1903
g139
I00
S'\\\xd2\x18\xad\xa3\xaa\xdb?Of\x83L2r\xc6?\x00\x00\x00\x00\x00\x00\x00\x00\xf8\x81\r\x14M\xa6\x17@'
p1904
tp1905
bsVright_wall_2
p1906
g22
(g23
(I0
tp1907
g25
tp1908
Rp1909
(I1
(I4
tp1910
g139
I00
S'H\xe1z\x14\xaeG\x12@&\\\x8f\xc2\xf5(\xd4\xbfxX\xa85\xcd\xbb\xf2?\x00\x00\x00\x00\x00\x00\x00\x00'
p1911
tp1912
bsVknife_block
p1913
g22
(g23
(I0
tp1914
g25
tp1915
Rp1916
(I1
(I4
tp1917
g139
I00
S'R\xb8\x1e\x85\xebQ\xe0\xbfffffff\x02@`\xe5\xd0"\xdb\xf9\xee?\x00\x00\x00\x00\x00\x00\x00\x00'
p1918
tp1919
bsVleft_wall_2
p1920
g22
(g23
(I0
tp1921
g25
tp1922
Rp1923
(I1
(I4
tp1924
g139
I00
S'H\xe1z\x14\xaeG\x12@S\xb8\x1e\x85\xebQ\xe4?xX\xa85\xcd\xbb\xf2?\x00\x00\x00\x00\x00\x00\x00\x00'
p1925
tp1926
bsVleft_wall
p1927
g22
(g23
(I0
tp1928
g25
tp1929
Rp1930
(I1
(I4
tp1931
g139
I00
S'\x9a\x99\x99\x99\x99\x99\x07@H\xe1z\x14\xaeG\xff?\x9c\xc4 \xb0rh\xc1?\x00\x00\x00\x00\x00\x00\x00\x00'
p1932
tp1933
bsVkitchen
p1934
g22
(g23
(I0
tp1935
g25
tp1936
Rp1937
(I1
(I4
tp1938
g139
I00
S'\x00\x00\x00\x00\x00\x00\x00\x00\x00\x00\x00\x00\x00\x00\x00\x00\x00\x00\x00\x00\x00\x00\x00\x00\x00\x00\x00\x00\x00\x00\x00\x00'
p1939
tp1940
bsVtable2
p1941
g22
(g23
(I0
tp1942
g25
tp1943
Rp1944
(I1
(I4
tp1945
g139
I00
S'\x00\x00\x00\x00\x00\x00\x13@\x80\x14\xaeG\xe1z\xc4?S\x96!\x8euq\xec?\xd2!3\x7f|\xd9\x12@'
p1946
tp1947
bsVc_obst8
p1948
g22
(g23
(I0
tp1949
g25
tp1950
Rp1951
(I1
(I4
tp1952
g139
I00
S"\xdd\xd7W\xbd\x8d\x80\x12@ \x99#\x18\xd9\xae\xc6?e\xaa`TR'\xed?\x97o\x95pu\x19\x14@"
p1953
tp1954
bsVplate_b4e7
p1955
g22
(g23
(I0
tp1956
g25
tp1957
Rp1958
(I1
(I4
tp1959
g139
I00
S'\x14\xaeG\xe1z\x14\xf2\xbf\x14\xaeG\xe1z\x14\x00@=\n\xd7\xa3p=\xf2?\x00\x00\x00\x00\x00\x00\x00\x00'
p1960
tp1961
bsVcooker
p1962
g22
(g23
(I0
tp1963
g25
tp1964
Rp1965
(I1
(I4
tp1966
g139
I00
S'\xaeG\xe1z\x14\xae\xff?\x85\xebQ\xb8\x1e\x85\xfb?\x00\x00\x00\x00\x00\x00\xe8?\x00\x00\x00\x00\x00\x00\x00\x00'
p1967
tp1968
bsVpin_a091
p1969
g22
(g23
(I0
tp1970
g25
tp1971
Rp1972
(I1
(I4
tp1973
g139
I00
S'\xdb\xf9~j\xbct\xf7\xbf)\\\x8f\xc2\xf5(\x02@\xb8\x1e\x85\xebQ\xb8\xfa?\x00\x00\x00\x00\x00\x00\x00\x00'
p1974
tp1975
bsVside_wall_2
p1976
g22
(g23
(I0
tp1977
g25
tp1978
Rp1979
(I1
(I4
tp1980
g139
I00
S'\xfa\xff\xff\xff\xff\xff\x14@\x00\x00\x00\x00\x00\x00\x00\x00\x9c\xc4 \xb0rh\xc1?\x18-DT\xfb!\xf9?'
p1981
tp1982
bsVside_wall_3
p1983
g22
(g23
(I0
tp1984
g25
tp1985
Rp1986
(I1
(I4
tp1987
g139
I00
S'\x00\x00\x00\x00\x00\x00\xfc?H\xe1z\x14\xaeG\t@\x9c\xc4 \xb0rh\xc1?\x00\x00\x00\x00\x00\x00\x00\x00'
p1988
tp1989
bsVmixer
p1990
g22
(g23
(I0
tp1991
g25
tp1992
Rp1993
(I1
(I4
tp1994
g139
I00
S'\n\xd7\xa3p=\n\xfb?ffffff\x02@d;\xdfO\x8d\x97\xee?\x00\x00\x00\x00\x00\x00\x00\x00'
p1995
tp1996
bsVside_wall_1
p1997
g22
(g23
(I0
tp1998
g25
tp1999
Rp2000
(I1
(I4
tp2001
g139
I00
S'\xf4\xff\xff\xff\xff\xff\xfb\xbf\x00\x00\x00\x00\x00\x00\x00\x00\x9c\xc4 \xb0rh\xc1?\x18-DT\xfb!\xf9?'
p2002
tp2003
bsVbottom_wall_1
p2004
g22
(g23
(I0
tp2005
g25
tp2006
Rp2007
(I1
(I4
tp2008
g139
I00
S'H\xe1z\x14\xaeG\x12@\x80\x14\xaeG\xe1z\xc4?\xcc\x7fH\xbf}\x1d\xed?\x00\x00\x00\x00\x00\x00\x00\x00'
p2009
tp2010
bsVcan
p2011
g22
(g23
(I0
tp2012
g25
tp2013
Rp2014
(I1
(I4
tp2015
g139
I00
S'\x00\x00\x00\x00\x00\x00\xf4\xbfH\xe1z\x14\xaeG\xe1\xbf\n\xd7\xa3p=\n\xef?\x00\x00\x00\x00\x00\x00\x00\x00'
p2016
tp2017
bsVright_wall
p2018
g22
(g23
(I0
tp2019
g25
tp2020
Rp2021
(I1
(I4
tp2022
g139
I00
S'\x9a\x99\x99\x99\x99\x99\x07@H\xe1z\x14\xaeG\xff\xbf\x9c\xc4 \xb0rh\xc1?\x00\x00\x00\x00\x00\x00\x00\x00'
p2023
tp2024
bsVcoffe_machine
p2025
g22
(g23
(I0
tp2026
g25
tp2027
Rp2028
(I1
(I4
tp2029
g139
I00
S'\\\x8f\xc2\xf5(\\\xf5\xbf\xb8\x1e\x85\xebQ\xb8\xee?\n\xd7\xa3p=\n\xef?\x00\x00\x00\x00\x00\x00\x00\x00'
p2030
tp2031
bsVcomputer_chair
p2032
g22
(g23
(I0
tp2033
g25
tp2034
Rp2035
(I1
(I4
tp2036
g139
I00
S'\xcd\xcc\xcc\xcc\xcc\xcc\x10@\x00\x00\x00\x00\x00\x00\xf8\xbf\xa00\xb6\x10\xe4\xa9\x95\xbf\x00\x00\x00\x00\x00\x00\x00\x00'
p2037
tp2038
bssS'robot_dof_values'
p2039
g22
(g23
(I0
tp2040
g25
tp2041
Rp2042
(I1
(I39
tp2043
g139
I00
S'\x00\x00\x00\x00\x00\x00\x00\x00\x00\x00\x00\x00\x00\x00\x00\x00\x00\x00\x00\x00\x00\x00\x00\x00\x00\x00\x00\x00\x00\x00\x00\x00\x00\x00\x00\x00\x00\x00\x00\x00\x00\x00\x00\x00\x00\x00\x00\x00\x00\x00\x00\x00\x00\x00\x00\x00\x00\x00\x00\x00\x00\x00\x00\x00\x00\x00\x00\x00\x00\x00\x00\x00\x00\x00\x00\x00\x00\x00\x00\x00\x00\x00\x00\x00\x00\x00\x00\x00\x00\x00\x00\x00\x00\x00\x00\x00@d;\xdfO\x8d\x87?\x00\x00\x00\x00\x00\x00\x00\x00\x00\x00\x00\x00\x00\x00\x00\x00\x00\x00\x00\x00\x00\x00\x00\x00\xec\xed\t\xf1\xcc\xa4\xf4?\x00\x00\x00\x00\x00\x00\xb0<N"\xd0^p\xf8\x00\xc0\x00\x00\x00\x00\x00\x00\x00\x00\x9b\x03\r.\x04V\xe6\xbf\x00\x00\x00\x00\x00\x00\x00\x00\x00\x00\x00\x00\x00\x00\x00\x00\x00\x00\x00\x00\x00\x00\xb2<\xdal\xdf\xccv\xf8\xa0\xbc\x00\x00\x00\x00\x00\x00\x00\x00\x00\x00\x00\x00\x00\x00\x00\x00\x00\x00\x00\x00\x00\x00\x00\x00\xec\xed\t\xf1\xcc\xa4\xf4?\x00\x00\x00\x00\x00\x00\x00\x00M"\xd0^p\xf8\x00\xc0\x00\x00\x00\x00\x00\x00\x00\x00\xa3\x03\r.\x04V\xe6\xbf\x00\x00\x00\x00\x00\x00\x00\x00\xcc9\xe3\xc17\x89\xe1?\x00\x00\x00\x00\x00\x00\xc1<\x00\x00\x00\x00\x00\x00\x00\x00\x00\x00\x00\x00\x00\x00\xe8<\x00\x00\x00\x00\x00\x00\x00\x00'
p2044
tp2045
bsS'is_holding'
p2046
I00
sbsS'holding_collides'
p2047
NsS'parent_ternary_predicates'
p2048
(dp2049
sS'cached_place_paths'
p2050
(dp2051
(g402
g870
tp2052
(lp2053
g22
(g23
(I0
tp2054
g25
tp2055
Rp2056
(I1
(I3
tp2057
g139
I00
S'\x0f<\xcd\x89\x98K\x05@=\x07\x92M\x04O\x18\xc0\x99F\xe8\x16\xce<\x18@'
p2058
tp2059
bas(g770
g130
tp2060
g205
s(g399
g130
tp2061
g132
s(g404
g870
tp2062
(lp2063
g22
(g23
(I0
tp2064
g25
tp2065
Rp2066
(I1
(I3
tp2067
g139
I00
S'\xc5\xa2G\xdc\xfd\x9a\xc4\xbf\x1c\x95\x95\xb7\xd5c\x1d\xc0\x92\xcfkrb\xe1\x14@'
p2068
tp2069
bas(g399
g870
tp2070
(lp2071
g22
(g23
(I0
tp2072
g25
tp2073
Rp2074
(I1
(I3
tp2075
g139
I00
S'\xfc\rl\xaf\xd1)\x08@\n\xb9\xb4\xd1`\xd6\x1c\xc0\xae\xb1\x0b. A\x11@'
p2076
tp2077
bas(g404
g130
tp2078
(lp2079
g22
(g23
(I0
tp2080
g25
tp2081
Rp2082
(I1
(I3
tp2083
g139
I00
S'X\xa2G\xdc\xfd\x9a\xc4\xbf\x1c\x95\x95\xb7\xd5c\x1d\xc0\x92\xcfkrb\xe1\x14@'
p2084
tp2085
bag22
(g23
(I0
tp2086
g25
tp2087
Rp2088
(I1
(I3
tp2089
g150
I00
S'\xae\x07\x89g\xb1\x14\xca?\xe8\xaf6h\xdc,\x1c\xc0\x8c\xdc\xfdrPU\xf4\xbf'
p2090
tp2091
bag22
(g23
(I0
tp2092
g25
tp2093
Rp2094
(I1
(I3
tp2095
g150
I00
S'\xb0\xcfg\xd5._\xe8?\xd6\x8d\xba\x87\x91D\x1a\xc0\xea!\xf73\x0cB\xf7\xbf'
p2096
tp2097
bag22
(g23
(I0
tp2098
g25
tp2099
Rp2100
(I1
(I3
tp2101
g150
I00
S"\x1aq\xa1\x96-\xd2\xec?\xa2\x8f\xd2'\xa1I\x18\xc0\x06\xea(\x89^*\xf2\xbf"
p2102
tp2103
bag22
(g23
(I0
tp2104
g25
tp2105
Rp2106
(I1
(I3
tp2107
g150
I00
S'tx\x8as\xa8b\xed?\x9ej\x15\xfa\xf0{\x15\xc0@\xed\x9a-\x9eD\xf2\xbf'
p2108
tp2109
bag22
(g23
(I0
tp2110
g25
tp2111
Rp2112
(I1
(I3
tp2113
g150
I00
S"\xb2&6mg)\xe8?\x99\xe0G'\x16\xe0\x13\xc0\xc8oL\xf5\x17p\xe6\xbf"
p2114
tp2115
bag22
(g23
(I0
tp2116
g25
tp2117
Rp2118
(I1
(I3
tp2119
g150
I00
S'`\xc8Aw-\x81\xeb?/\xc3\xe6O\x04\xca\x10\xc0\x8a\xb7K)\x91{\xe4\xbf'
p2120
tp2121
bag22
(g23
(I0
tp2122
g25
tp2123
Rp2124
(I1
(I3
tp2125
g150
I00
S'\xe1\xc6\xc7\xa7\x12X\xe7?\x98\x99\xb0\x9a\xfb\xdb\x0b\xc0R\t\x1b)\xeae\xe0\xbf'
p2126
tp2127
bag22
(g23
(I0
tp2128
g25
tp2129
Rp2130
(I1
(I3
tp2131
g150
I00
S'p\xf1\xbdc^\x84\xf1?"\x88LL\xf9D\x06\xc0~w\r\xe9m\x0f\x19@'
p2132
tp2133
bas(g403
g870
tp2134
(lp2135
g22
(g23
(I0
tp2136
g25
tp2137
Rp2138
(I1
(I3
tp2139
g139
I00
S'\x8c\x91SI=f\xe6?\x83[\x80\xff\xbd\xe1\x1e\xc0h_\xb3\x1a\x84\xa7\x18@'
p2140
tp2141
bas(g403
g130
tp2142
g325
s(g12
g130
tp2143
(lp2144
g22
(g23
(I0
tp2145
g25
tp2146
Rp2147
(I1
(I3
tp2148
g139
I00
S'\x88B/W\x85x\xea?\xe6\xc96\xe1\xf9\x86\x15\xc03\x0c\xaa\xec\xf3,\t@'
p2149
tp2150
bag22
(g23
(I0
tp2151
g25
tp2152
Rp2153
(I1
(I3
tp2154
g150
I00
S'\x16nfXE \xf2?\x06\xf1|#c\xe6\x12\xc08\x98\x8f,\xc1@\x04\xc0'
p2155
tp2156
bag22
(g23
(I0
tp2157
g25
tp2158
Rp2159
(I1
(I3
tp2160
g150
I00
S'\xc1E\xbb\x1b\xed\x13\xf3?\xca\xdcw\xec\x1a\x18\x10\xc0j\xed\xec2j\x8c\x04\xc0'
p2161
tp2162
bag22
(g23
(I0
tp2163
g25
tp2164
Rp2165
(I1
(I3
tp2166
g150
I00
S'\xf09\xb6\x1c*\x86\xee?\xc4\n/\x96\xcb\xe3\n\xc0\xa0\xc9\xd6F6\x0f\x00\xc0'
p2167
tp2168
bag22
(g23
(I0
tp2169
g25
tp2170
Rp2171
(I1
(I3
tp2172
g150
I00
S'3\xe9\xaf\x05T\x89\xe7?+~\xcb\xd3\x15\xc7\x04\xc0x6(d5\xed\x07@'
p2173
tp2174
bas(g401
g130
tp2175
(lp2176
g22
(g23
(I0
tp2177
g25
tp2178
Rp2179
(I1
(I3
tp2180
g139
I00
S'\x0b\xb8Y\xfd\xd7\xd3\x06@\xbb\x94S\xf5\x82\xa0\x1d\xc0\x8fM\xeaDQn\xc6?'
p2181
tp2182
bag22
(g23
(I0
tp2183
g25
tp2184
Rp2185
(I1
(I3
tp2186
g150
I00
S'0\xf2\xd6\x9e\xed\xca\x04@\xdc>\xfd\x07B\x8f\x1d\xc0\xe2\xaf5\x16\xb4\x0c\xda?'
p2187
tp2188
bag22
(g23
(I0
tp2189
g25
tp2190
Rp2191
(I1
(I3
tp2192
g150
I00
S'\tAsXx\r\x00@F^\x05/\xfdK\x1d\xc0~\xbbB\x0f\xbe\xe6\xd2?'
p2193
tp2194
bag22
(g23
(I0
tp2195
g25
tp2196
Rp2197
(I1
(I3
tp2198
g150
I00
S'JyH\x8ez\xd6\xfa?\xb3\xf7h\x83\xea\xba\x1a\xc0u\xf9Uf\xb7m\xe0?'
p2199
tp2200
bag22
(g23
(I0
tp2201
g25
tp2202
Rp2203
(I1
(I3
tp2204
g150
I00
S'j\xc7\xc0&\x8ag\xf6?h\x9cH4\x7f\xab\x18\xc0\xd8|\x1d\xfc\xcbV\xf2?'
p2205
tp2206
bag22
(g23
(I0
tp2207
g25
tp2208
Rp2209
(I1
(I3
tp2210
g150
I00
S'\x85\\2\xba\x0b5\xf5?I\r\x06\xd10\xfb\x15\xc0\x9e\x11\xee\xd8\xb9\xd7\xf5?'
p2211
tp2212
bag22
(g23
(I0
tp2213
g25
tp2214
Rp2215
(I1
(I3
tp2216
g150
I00
S'v\xb8^\x85\xa7[\xea?x\xbe\xff2t\x8d\x13\xc0\x88\x85\x8cCyH\xf6?'
p2217
tp2218
bag22
(g23
(I0
tp2219
g25
tp2220
Rp2221
(I1
(I3
tp2222
g150
I00
S'\xc2\xda(e\x83\x1a\xeb?\x8au\x8d3\xa6E\x11\xc0\xb4c\x1b\xed_\xfd\xfa?'
p2223
tp2224
bag22
(g23
(I0
tp2225
g25
tp2226
Rp2227
(I1
(I3
tp2228
g150
I00
S'\xe4u**\x0e5\xe9?\xaa\xfd\r\xed\xc4\xf6\r\xc0\x0fDE0\x1f\x0b\xfe?'
p2229
tp2230
bag22
(g23
(I0
tp2231
g25
tp2232
Rp2233
(I1
(I3
tp2234
g150
I00
S'\x06\x11,\xef\x98O\xe7??\x10\x01s=b\t\xc04\x92\xb79o\x8c\x00@'
p2235
tp2236
bag22
(g23
(I0
tp2237
g25
tp2238
Rp2239
(I1
(I3
tp2240
g150
I00
S'\x92\xaf\xf3P\x96O\xc2?(\xa1:\x8er}\x05\xc0\xd4_\x91\xb3\xffL\x02@'
p2241
tp2242
bas(g401
g870
tp2243
(lp2244
g22
(g23
(I0
tp2245
g25
tp2246
Rp2247
(I1
(I3
tp2248
g139
I00
S'\x0c\xb8Y\xfd\xd7\xd3\x06@\xb9\x94S\xf5\x82\xa0\x1d\xc0\xc0M\xeaDQn\xc6?'
p2249
tp2250
bas(g770
g870
tp2251
(lp2252
g22
(g23
(I0
tp2253
g25
tp2254
Rp2255
(I1
(I3
tp2256
g139
I00
S'G\x11[Yw\xd7\t@\x86\xc4\rM\xcf3\x1f\xc0\x12~\x0by\xe9$\x16@'
p2257
tp2258
bas(g12
g870
tp2259
(lp2260
g22
(g23
(I0
tp2261
g25
tp2262
Rp2263
(I1
(I3
tp2264
g139
I00
S'\x8aB/W\x85x\xea?\xea\xc96\xe1\xf9\x86\x15\xc03\x0c\xaa\xec\xf3,\t@'
p2265
tp2266
bas(g400
g870
tp2267
(lp2268
g22
(g23
(I0
tp2269
g25
tp2270
Rp2271
(I1
(I3
tp2272
g139
I00
S'%D;I\xbf\xd2\x01@\xc0\n\xa1\xc1\xfd\xa7\x19\xc0\xef\x16<\x90\xba6\x17@'
p2273
tp2274
bas(g400
g130
tp2275
(lp2276
g22
(g23
(I0
tp2277
g25
tp2278
Rp2279
(I1
(I3
tp2280
g139
I00
S'&D;I\xbf\xd2\x01@\xc0\n\xa1\xc1\xfd\xa7\x19\xc0\xef\x16<\x90\xba6\x17@'
p2281
tp2282
bag22
(g23
(I0
tp2283
g25
tp2284
Rp2285
(I1
(I3
tp2286
g150
I00
S'!\x83\xc0\xf3W\x85\xff?\xed\x8f\x90/y\xfd\x16\xc06jP\xfe\x98\xf5\xf4\xbf'
p2287
tp2288
bag22
(g23
(I0
tp2289
g25
tp2290
Rp2291
(I1
(I3
tp2292
g150
I00
S'2Z\xe1\xe97J\xf6?\\\x1e`@2v\x16\xc0\xc4\x0c\xcc\x14<\xf9\xf6\xbf'
p2293
tp2294
bag22
(g23
(I0
tp2295
g25
tp2296
Rp2297
(I1
(I3
tp2298
g150
I00
S'tx\x8as\xa8b\xed?\x9ej\x15\xfa\xf0{\x15\xc0@\xed\x9a-\x9eD\xf2\xbf'
p2299
tp2300
bag22
(g23
(I0
tp2301
g25
tp2302
Rp2303
(I1
(I3
tp2304
g150
I00
S"\xb2&6mg)\xe8?\x99\xe0G'\x16\xe0\x13\xc0\xc8oL\xf5\x17p\xe6\xbf"
p2305
tp2306
bag22
(g23
(I0
tp2307
g25
tp2308
Rp2309
(I1
(I3
tp2310
g150
I00
S'`\xc8Aw-\x81\xeb?/\xc3\xe6O\x04\xca\x10\xc0\x8a\xb7K)\x91{\xe4\xbf'
p2311
tp2312
bag22
(g23
(I0
tp2313
g25
tp2314
Rp2315
(I1
(I3
tp2316
g150
I00
S'\xe1\xc6\xc7\xa7\x12X\xe7?\x98\x99\xb0\x9a\xfb\xdb\x0b\xc0R\t\x1b)\xeae\xe0\xbf'
p2317
tp2318
bag22
(g23
(I0
tp2319
g25
tp2320
Rp2321
(I1
(I3
tp2322
g150
I00
S'p\xf1\xbdc^\x84\xf1?"\x88LL\xf9D\x06\xc0~w\r\xe9m\x0f\x19@'
p2323
tp2324
bas(g402
g130
tp2325
g274
ssS'parent_binary_predicates'
p2326
(dp2327
sS'nodes'
p2328
(dp2329
g873
(lp2330
I0
aI0
aI0
aI0
aI0
aI0
aI00
aI01
aI00
aI01
aI00
asg870
(lp2331
I0
aI0
aI0
aI0
aI0
aI0
aI00
aI01
aI00
aI01
aI00
asg130
(lp2332
I0
aI0
aI0
aI0
aI0
aI0
aI00
aI01
aI01
aI01
aI00
asg129
(lp2333
I0
aI0
aI0
ag1445
(g139
S'\xc1\x87\xeb\xb9\x00\x82\x07@'
p2334
tp2335
Rp2336
ag1445
(g139
S'\xb9\x0fV\x0eA% \xc0'
p2337
tp2338
Rp2339
ag1445
(g139
S'\xdbO\xaf\xb9q\x10\xfa?'
p2340
tp2341
Rp2342
aI01
aI00
aI00
aI01
aI00
asg832
(lp2343
I0
aI0
aI0
ag1445
(g139
S'\x00\xcc\xf1\xa8,\xc1\x07@'
p2344
tp2345
Rp2346
ag1445
(g139
S'ji\xb5\xe2z;\x1a\xc0'
p2347
tp2348
Rp2349
ag1445
(g139
S'&\x92wh\xddN\x17@'
p2350
tp2351
Rp2352
aI01
aI00
aI00
aI01
aI00
asg842
(lp2353
I0
aI0
aI0
ag1445
(g139
S'\x9d\xe3d\xa2\xfc\xcc\x0c@'
p2354
tp2355
Rp2356
ag1445
(g139
S'\x18W\xa8\x8a\x0e\x8a\x1c\xc0'
p2357
tp2358
Rp2359
ag1445
(g139
S'*\n\x86o\xc0d\xfb?'
p2360
tp2361
Rp2362
aI01
aI00
aI00
aI01
aI00
asg272
(lp2363
I0
aI0
aI0
ag1445
(g139
S'\x0bM\x97\xef0d\x0b@'
p2364
tp2365
Rp2366
ag1445
(g139
S'\x04\xb5bq\x14\xbd\x18\xc0'
p2367
tp2368
Rp2369
ag1445
(g139
S'\xfbO\xd6\x8a\x90\xc1\x18@'
p2370
tp2371
Rp2372
aI01
aI00
aI00
aI01
aI00
asg323
(lp2373
I0
aI0
aI0
ag1445
(g139
S'\x00GV\xb0*\x1a\xf5?'
p2374
tp2375
Rp2376
ag1445
(g139
S'\xe4\x06\xc1\xc2\xb2V\x1f\xc0'
p2377
tp2378
Rp2379
ag1445
(g139
S'8^\x83^\xaeP\x12@'
p2380
tp2381
Rp2382
aI01
aI00
aI00
aI01
aI00
asg844
(lp2383
I0
aI0
aI0
ag1445
(g139
S"\xf8\x1e\xa2'Tv\xd0?"
p2384
tp2385
Rp2386
ag1445
(g139
S'\x0c\xf8\xe3y\x9d\xcd\x1f\xc0'
p2387
tp2388
Rp2389
ag1445
(g139
S'\x08\x90jtq\xf1\x15@'
p2390
tp2391
Rp2392
aI01
aI00
aI00
aI01
aI00
asg838
(lp2393
I0
aI0
aI0
ag1445
(g139
S'0\xd0O\xd4\xd4=\xbf?'
p2394
tp2395
Rp2396
ag1445
(g139
S"\xcbU'\x88\xe8\x89\x16\xc0"
p2397
tp2398
Rp2399
ag1445
(g139
S'\x1c\x17\xfe,\xc1\xed\x01@'
p2400
tp2401
Rp2402
aI01
aI00
aI01
aI01
aI00
asg203
(lp2403
I0
aI0
aI0
ag1445
(g139
S'\x10\x8a\xfb\xb2!:\x0f@'
p2404
tp2405
Rp2406
ag1445
(g139
S'\x923\xf9\x1d\x9b, \xc0'
p2407
tp2408
Rp2409
ag1445
(g139
S'PF\xe0\x95]\x8d\x16@'
p2410
tp2411
Rp2412
aI01
aI00
aI00
aI00
aI00
assS'mc_place_path'
p2413
(dp2414
sS'parent_state'
p2415
NsS'goal_entities'
p2416
(lp2417
S'square_packing_box1'
p2418
ag130
asS'binary_edges'
p2419
(dp2420
(g323
g203
tp2421
(lp2422
I00
aI00
aI00
as(g323
g129
tp2423
(lp2424
I00
aI00
aI00
as(g842
g844
tp2425
(lp2426
I00
aI00
aI00
as(g842
g842
tp2427
(lp2428
I00
aI00
aI00
as(g832
g844
tp2429
(lp2430
I00
aI00
aI00
as(g832
g842
tp2431
(lp2432
I00
aI00
aI00
as(g203
g832
tp2433
(lp2434
I00
aI00
aI00
as(g323
g838
tp2435
(lp2436
I00
aI00
aI00
as(g272
g842
tp2437
(lp2438
I00
aI00
aI00
as(g129
g129
tp2439
(lp2440
I00
aI00
aI00
as(g832
g870
tp2441
(lp2442
g1445
(g29
(S'b1'
p2443
I0
I1
tp2444
Rp2445
(I3
S'|'
p2446
NNNI-1
I-1
I0
tp2447
bS'\x01'
p2448
tp2449
Rp2450
aI00
aI01
as(g873
g870
tp2451
(lp2452
I00
aI00
aI00
as(g129
g203
tp2453
(lp2454
I00
aI01
aI00
as(g870
g203
tp2455
(lp2456
I00
aI00
aI00
as(g838
g130
tp2457
(lp2458
I00
aI00
aI01
as(g873
g832
tp2459
(lp2460
I00
aI00
aI00
as(g832
g203
tp2461
(lp2462
I00
aI01
aI00
as(g842
g873
tp2463
(lp2464
g2450
aI00
aI00
as(g323
g323
tp2465
(lp2466
I00
aI00
aI00
as(g870
g323
tp2467
(lp2468
I00
aI00
aI00
as(g844
g832
tp2469
(lp2470
I00
aI00
aI00
as(g832
g130
tp2471
(lp2472
I00
aI00
aI01
as(g272
g844
tp2473
(lp2474
I00
aI00
aI00
as(g129
g272
tp2475
(lp2476
I00
aI00
aI00
as(g838
g838
tp2477
(lp2478
I00
aI00
aI00
as(g832
g873
tp2479
(lp2480
g2450
aI00
aI00
as(g870
g832
tp2481
(lp2482
I00
aI00
aI00
as(g870
g844
tp2483
(lp2484
I00
aI00
aI00
as(g870
g842
tp2485
(lp2486
I00
aI00
aI00
as(g844
g130
tp2487
(lp2488
I00
aI00
aI01
as(g203
g129
tp2489
(lp2490
I00
aI00
aI00
as(g272
g129
tp2491
(lp2492
I00
aI00
aI00
as(g844
g272
tp2493
(lp2494
I00
aI00
aI00
as(g870
g129
tp2495
(lp2496
I00
aI00
aI00
as(g873
g130
tp2497
(lp2498
I00
aI00
aI00
as(g838
g832
tp2499
(lp2500
I00
aI00
aI00
as(g129
g844
tp2501
(lp2502
I00
aI00
aI00
as(g873
g844
tp2503
(lp2504
I00
aI00
aI00
as(g844
g873
tp2505
(lp2506
g2450
aI00
aI00
as(g842
g323
tp2507
(lp2508
I00
aI00
aI00
as(g203
g838
tp2509
(lp2510
I00
aI00
aI00
as(g842
g832
tp2511
(lp2512
I00
aI00
aI00
as(g203
g130
tp2513
(lp2514
I00
aI00
aI00
as(g873
g873
tp2515
(lp2516
I00
aI00
aI00
as(g844
g129
tp2517
(lp2518
I00
aI00
aI00
as(g838
g323
tp2519
(lp2520
I00
aI00
aI00
as(g130
g838
tp2521
(lp2522
I00
aI00
aI00
as(g272
g870
tp2523
(lp2524
g2450
aI00
aI01
as(g130
g272
tp2525
(lp2526
I00
aI00
aI00
as(g203
g842
tp2527
(lp2528
I00
aI00
aI00
as(g842
g838
tp2529
(lp2530
I00
aI00
aI00
as(g844
g870
tp2531
(lp2532
g2450
aI00
aI01
as(g842
g272
tp2533
(lp2534
I00
aI00
aI00
as(g844
g844
tp2535
(lp2536
I00
aI00
aI00
as(g272
g832
tp2537
(lp2538
I00
aI00
aI00
as(g870
g130
tp2539
(lp2540
I00
aI00
aI00
as(g130
g323
tp2541
(lp2542
I00
aI00
aI00
as(g129
g130
tp2543
(lp2544
I00
aI00
aI00
as(g873
g272
tp2545
(lp2546
I00
aI00
aI00
as(g130
g203
tp2547
(lp2548
I00
aI00
aI00
as(g842
g203
tp2549
(lp2550
I00
aI01
aI00
as(g272
g873
tp2551
(lp2552
g2450
aI00
aI00
as(g203
g870
tp2553
(lp2554
g2450
aI00
aI01
as(g272
g323
tp2555
(lp2556
I00
aI00
aI00
as(g129
g832
tp2557
(lp2558
I00
aI00
aI00
as(g129
g870
tp2559
(lp2560
g2450
aI00
aI01
as(g130
g842
tp2561
(lp2562
I00
aI00
aI00
as(g873
g203
tp2563
(lp2564
I00
aI00
aI00
as(g873
g129
tp2565
(lp2566
I00
aI00
aI00
as(g272
g130
tp2567
(lp2568
I00
aI00
aI00
as(g323
g272
tp2569
(lp2570
I00
aI00
aI00
as(g838
g272
tp2571
(lp2572
I00
aI00
aI00
as(g130
g844
tp2573
(lp2574
I00
aI00
aI00
as(g870
g870
tp2575
(lp2576
I00
aI00
aI00
as(g323
g842
tp2577
(lp2578
I00
aI00
aI00
as(g838
g844
tp2579
(lp2580
I00
aI00
aI00
as(g870
g838
tp2581
(lp2582
I00
aI00
aI00
as(g832
g129
tp2583
(lp2584
I00
aI00
aI00
as(g870
g272
tp2585
(lp2586
I00
aI00
aI00
as(g838
g873
tp2587
(lp2588
g2450
aI00
aI00
as(g323
g832
tp2589
(lp2590
I00
aI00
aI00
as(g842
g130
tp2591
(lp2592
I00
aI00
aI01
as(g838
g129
tp2593
(lp2594
I00
aI00
aI00
as(g129
g838
tp2595
(lp2596
I00
aI00
aI00
as(g832
g838
tp2597
(lp2598
I00
aI00
aI00
as(g873
g323
tp2599
(lp2600
I00
aI00
aI00
as(g832
g272
tp2601
(lp2602
I00
aI00
aI00
as(g844
g323
tp2603
(lp2604
I00
aI00
aI00
as(g323
g870
tp2605
(lp2606
g2450
aI00
aI01
as(g272
g272
tp2607
(lp2608
I00
aI00
aI00
as(g203
g323
tp2609
(lp2610
I00
aI00
aI00
as(g838
g203
tp2611
(lp2612
I00
aI00
aI00
as(g832
g323
tp2613
(lp2614
I00
aI00
aI00
as(g832
g832
tp2615
(lp2616
I00
aI00
aI00
as(g203
g272
tp2617
(lp2618
I00
aI00
aI00
as(g323
g130
tp2619
(lp2620
I00
aI00
aI00
as(g844
g838
tp2621
(lp2622
I00
aI00
aI00
as(g842
g870
tp2623
(lp2624
g2450
aI00
aI01
as(g130
g832
tp2625
(lp2626
I00
aI00
aI00
as(g272
g838
tp2627
(lp2628
I00
aI00
aI00
as(g129
g842
tp2629
(lp2630
I00
aI00
aI00
as(g130
g870
tp2631
(lp2632
I00
aI00
aI00
as(g323
g844
tp2633
(lp2634
I00
aI00
aI00
as(g873
g842
tp2635
(lp2636
I00
aI00
aI00
as(g323
g873
tp2637
(lp2638
g2450
aI00
aI00
as(g844
g842
tp2639
(lp2640
I00
aI00
aI00
as(g130
g130
tp2641
(lp2642
I00
aI00
aI00
as(g272
g203
tp2643
(lp2644
I00
aI00
aI00
as(g129
g873
tp2645
(lp2646
g2450
aI00
aI00
as(g203
g873
tp2647
(lp2648
g2450
aI00
aI00
as(g130
g873
tp2649
(lp2650
I00
aI00
aI00
as(g130
g129
tp2651
(lp2652
I00
aI00
aI00
as(g844
g203
tp2653
(lp2654
I00
aI00
aI00
as(g203
g844
tp2655
(lp2656
I00
aI00
aI00
as(g842
g129
tp2657
(lp2658
I00
aI00
aI00
as(g870
g873
tp2659
(lp2660
I00
aI00
aI00
as(g838
g842
tp2661
(lp2662
I00
aI00
aI00
as(g129
g323
tp2663
(lp2664
I00
aI00
aI00
as(g203
g203
tp2665
(lp2666
I00
aI00
aI00
as(g838
g870
tp2667
(lp2668
g2450
aI00
aI01
as(g873
g838
tp2669
(lp2670
I00
aI00
aI00
assg397
g398
sS'pick_in_way'
p2671
(itrajectory_representation.predicates.pick_in_way
PickInWay
p2672
(dp2673
g127
(dp2674
g129
g476
sg832
g531
sg842
g568
sg272
g617
sg323
g666
sg844
g721
sg838
g751
sg203
g795
ssg380
(dp2675
g129
(lp2676
sg832
(lp2677
sg842
(lp2678
sg272
(lp2679
sg323
(lp2680
sg844
(lp2681
sg838
(lp2682
sg203
(lp2683
Vrectangular_packing_box2
p2684
aVrectangular_packing_box3
p2685
aVrectangular_packing_box4
p2686
assg397
(lp2687
g272
ag323
ag832
ag844
ag842
ag129
ag873
ag130
ag870
ag838
ag873
ag130
ag870
ag873
ag130
ag870
ag873
ag130
ag870
ag873
ag130
ag870
ag873
ag130
ag870
ag873
ag130
ag870
ag873
ag130
ag870
asg405
g406
sg78
(dp2688
sg440
g441
sg822
Nsg828
g441
sg825
(dp2689
sg827
I8
sg865
I01
sg829
Nsg830
(dp2690
(g323
g203
tp2691
I00
s(g323
g129
tp2692
I00
s(g842
g844
tp2693
I00
s(g842
g842
tp2694
I00
s(g832
g844
tp2695
I00
s(g832
g842
tp2696
I00
s(g203
g832
tp2697
I00
s(g323
g838
tp2698
I00
s(g272
g842
tp2699
I00
s(g129
g129
tp2700
I00
s(g832
g870
tp2701
I00
s(g873
g870
tp2702
I00
s(g129
g203
tp2703
I01
s(g870
g203
tp2704
I00
s(g838
g130
tp2705
I00
s(g873
g832
tp2706
I00
s(g832
g203
tp2707
I01
s(g842
g873
tp2708
I00
s(g323
g323
tp2709
I00
s(g870
g323
tp2710
I00
s(g844
g832
tp2711
I00
s(g832
g130
tp2712
I00
s(g272
g844
tp2713
I00
s(g129
g272
tp2714
I00
s(g838
g838
tp2715
I00
s(g832
g873
tp2716
I00
s(g870
g832
tp2717
I00
s(g870
g844
tp2718
I00
s(g870
g842
tp2719
I00
s(g844
g130
tp2720
I00
s(g203
g129
tp2721
I00
s(g272
g129
tp2722
I00
s(g844
g272
tp2723
I00
s(g870
g129
tp2724
I00
s(g873
g130
tp2725
I00
s(g838
g832
tp2726
I00
s(g129
g844
tp2727
I00
s(g873
g844
tp2728
I00
s(g844
g873
tp2729
I00
s(g842
g323
tp2730
I00
s(g203
g838
tp2731
I00
s(g842
g832
tp2732
I00
s(g203
g130
tp2733
I00
s(g873
g873
tp2734
I00
s(g844
g129
tp2735
I00
s(g838
g323
tp2736
I00
s(g130
g838
tp2737
I00
s(g272
g870
tp2738
I00
s(g130
g272
tp2739
I00
s(g203
g842
tp2740
I00
s(g842
g838
tp2741
I00
s(g844
g870
tp2742
I00
s(g842
g272
tp2743
I00
s(g844
g844
tp2744
I00
s(g272
g832
tp2745
I00
s(g870
g130
tp2746
I00
s(g130
g323
tp2747
I00
s(g129
g130
tp2748
I00
s(g873
g272
tp2749
I00
s(g130
g203
tp2750
I00
s(g842
g203
tp2751
I01
s(g272
g873
tp2752
I00
s(g203
g870
tp2753
I00
s(g272
g323
tp2754
I00
s(g129
g832
tp2755
I00
s(g129
g870
tp2756
I00
s(g130
g842
tp2757
I00
s(g873
g203
tp2758
I00
s(g873
g129
tp2759
I00
s(g272
g130
tp2760
I00
s(g323
g272
tp2761
I00
s(g838
g272
tp2762
I00
s(g130
g844
tp2763
I00
s(g870
g870
tp2764
I00
s(g323
g842
tp2765
I00
s(g838
g844
tp2766
I00
s(g870
g838
tp2767
I00
s(g832
g129
tp2768
I00
s(g870
g272
tp2769
I00
s(g838
g873
tp2770
I00
s(g323
g832
tp2771
I00
s(g842
g130
tp2772
I00
s(g838
g129
tp2773
I00
s(g129
g838
tp2774
I00
s(g832
g838
tp2775
I00
s(g873
g323
tp2776
I00
s(g832
g272
tp2777
I00
s(g844
g323
tp2778
I00
s(g323
g870
tp2779
I00
s(g272
g272
tp2780
I00
s(g203
g323
tp2781
I00
s(g838
g203
tp2782
I00
s(g832
g323
tp2783
I00
s(g832
g832
tp2784
I00
s(g203
g272
tp2785
I00
s(g323
g130
tp2786
I00
s(g844
g838
tp2787
I00
s(g842
g870
tp2788
I00
s(g130
g832
tp2789
I00
s(g272
g838
tp2790
I00
s(g129
g842
tp2791
I00
s(g130
g870
tp2792
I00
s(g323
g844
tp2793
I00
s(g873
g842
tp2794
I00
s(g323
g873
tp2795
I00
s(g844
g842
tp2796
I00
s(g130
g130
tp2797
I00
s(g272
g203
tp2798
I00
s(g129
g873
tp2799
I00
s(g203
g873
tp2800
I00
s(g130
g873
tp2801
I00
s(g130
g129
tp2802
I00
s(g844
g203
tp2803
I00
s(g203
g844
tp2804
I00
s(g842
g129
tp2805
I00
s(g870
g873
tp2806
I00
s(g838
g842
tp2807
I00
s(g129
g323
tp2808
I00
s(g203
g203
tp2809
I00
s(g838
g870
tp2810
I00
s(g873
g838
tp2811
I00
ssg864
NsbsS'robot_pose'
p2812
g22
(g23
(I0
tp2813
g25
tp2814
Rp2815
(I1
(I1
I3
tp2816
g139
I00
S'\xf0I-\xc1\xee\x1f\xfa?Xc\rx\x9c\n\x18\xc0?_z:D*\x17@'
p2817
tp2818
bsS'is_holding_goal_entity'
p2819
(itrajectory_representation.predicates.is_holding_goal_entity
IsHoldingGoalEntity
p2820
(dp2821
g2416
g2417
sg829
NsbsS'mc_pick_path'
p2822
(dp2823
sS'current_collides'
p2824
g406
sbasS'seed'
p2825
NsS'state_prime'
p2826
(lp2827
sS'problem_idx'
p2828
I70
sb.