(itrajectory_representation.trajectory
Trajectory
p0
(dp1
S'rewards'
p2
(lp3
I10
asS'actions'
p4
(lp5
(itrajectory_representation.operator
Operator
p6
(dp7
S'is_skeleton'
p8
I00
sS'discrete_parameters'
p9
(dp10
S'object'
p11
Vsquare_packing_box1
p12
sS'two_arm_place_region'
p13
S'home_region'
p14
sS'two_arm_place_object'
p15
Vsquare_packing_box1
p16
ssS'type'
p17
S'two_arm_pick_two_arm_place'
p18
sS'continuous_parameters'
p19
(dp20
S'q_goal'
p21
cnumpy.core.multiarray
_reconstruct
p22
(cnumpy
ndarray
p23
(I0
tp24
S'b'
p25
tp26
Rp27
(I1
(I3
tp28
cnumpy
dtype
p29
(S'f8'
p30
I0
I1
tp31
Rp32
(I3
S'<'
p33
NNNI-1
I-1
I0
tp34
bI00
S'N\x9a\xde\xa7\xc5m\xf9?Q\x99\xa0\x1d\x97B\x19\xc0\x01\x96\x81\xa19a\x00\xc0'
p35
tp36
bsS'place'
p37
(dp38
g21
g22
(g23
(I0
tp39
g25
tp40
Rp41
(I1
(I3
tp42
g32
I00
S'h5\xdeM\x0e"\xf3?J\xe8\xf7\xbc"\xfd\x00\xc0\xfce\xc2\xa2\x01\xde\x05@'
p43
tp44
bssS'pick'
p45
(dp46
g21
g27
sssS'low_level_motion'
p47
(lp48
g22
(g23
(I0
tp49
g25
tp50
Rp51
(I1
(I3
tp52
g32
I00
S'y\\\x01M\xb5h\xfa?\xd3\xfb\n\xa4,\xcb\x17\xc0U\xd1p<\xe9\x83\xfe?'
p53
tp54
bag22
(g23
(I0
tp55
g25
tp56
Rp57
(I1
(I3
tp58
g29
(S'f8'
p59
I0
I1
tp60
Rp61
(I3
S'<'
p62
NNNI-1
I-1
I0
tp63
bI00
S'\xe0 ;\x819w\xfd?\xe7\xcc\xc2\xa0\xa5f\x17\xc04\xedq\x1c\x8eK\xfa?'
p64
tp65
bag22
(g23
(I0
tp66
g25
tp67
Rp68
(I1
(I3
tp69
g61
I00
S"'\xc1{\xbc\xf6\x05\xf8?\x02^\x18\xdc\xb7\xac\x18\xc0o\x85MZ3\x91\xf3\xbf"
p70
tp71
bag27
ag27
asbasS'filename'
p72
S''
p73
sS'states'
p74
(lp75
(itrajectory_representation.shortest_path_pick_and_place_state
ShortestPathPaPState
p76
(dp77
S'place_used'
p78
(dp79
(g16
g14
tp80
(itrajectory_representation.operator
Operator
p81
(dp82
g8
I01
sg9
(dp83
S'region'
p84
g14
sg11
g16
ssg17
S'two_arm_place'
p85
sg19
(dp86
g21
g22
(g23
(I0
tp87
g25
tp88
Rp89
(I1
(I3
tp90
g32
I00
S'h5\xdeM\x0e"\xf3?J\xe8\xf7\xbc"\xfd\x00\xc0\xfce\xc2\xa2\x01\xde\x05@'
p91
tp92
bssg47
(lp93
g22
(g23
(I0
tp94
g25
tp95
Rp96
(I1
(I3
tp97
g32
I00
S'1\x9a\xde\xa7\xc5m\xf9?K\x99\xa0\x1d\x97B\x19\xc0\xfd\x95\x81\xa19a\x00\xc0'
p98
tp99
bag22
(g23
(I0
tp100
g25
tp101
Rp102
(I1
(I3
tp103
g61
I00
S'2Z\xe1\xe97J\xf6?\\\x1e`@2v\x16\xc0\xc4\x0c\xcc\x14<\xf9\xf6\xbf'
p104
tp105
bag22
(g23
(I0
tp106
g25
tp107
Rp108
(I1
(I3
tp109
g61
I00
S'tx\x8as\xa8b\xed?\x9ej\x15\xfa\xf0{\x15\xc0@\xed\x9a-\x9eD\xf2\xbf'
p110
tp111
bag22
(g23
(I0
tp112
g25
tp113
Rp114
(I1
(I3
tp115
g61
I00
S'l[\xc4\x16<\xe6\xe9?\xa6\xa0\x90\x84X\x9f\x13\xc0\xc2\xd74Q\x00\xaf\xff\xbf'
p116
tp117
bag22
(g23
(I0
tp118
g25
tp119
Rp120
(I1
(I3
tp121
g61
I00
S"\xaeJ\xbd\x1936\xec?\x04\x13\xd4'\x9f\x88\x10\xc0\x805qo\xb6\xe6\xff\xbf"
p122
tp123
bag22
(g23
(I0
tp124
g25
tp125
Rp126
(I1
(I3
tp127
g61
I00
S'\xf09\xb6\x1c*\x86\xee?\xc4\n/\x96\xcb\xe3\n\xc0\xa0\xc9\xd6F6\x0f\x00\xc0'
p128
tp129
bag22
(g23
(I0
tp130
g25
tp131
Rp132
(I1
(I3
tp133
g61
I00
S'{\xaa2 U\x1e\xf1?RG\x9d\xd8Q\xfe\x05\xc0JC\x0e\x08/\xff\x08\xc0'
p134
tp135
bag89
ag89
asbssS'place_in_way'
p136
(itrajectory_representation.predicates.place_in_way
PlaceInWay
p137
(dp138
S'mc_path_to_entity'
p139
(dp140
(Vrectangular_packing_box4
p141
S'home_region'
p142
tp143
(lp144
g22
(g23
(I0
tp145
g25
tp146
Rp147
(I1
(I3
tp148
g29
(S'f8'
p149
I0
I1
tp150
Rp151
(I3
S'<'
p152
NNNI-1
I-1
I0
tp153
bI00
S'@\xda!\x06|\xe0\xea?\x02\r\\ :k\x1b\xc0x\xbb;\x13\x85\xa3\x0c@'
p154
tp155
bag22
(g23
(I0
tp156
g25
tp157
Rp158
(I1
(I3
tp159
g29
(S'f8'
p160
I0
I1
tp161
Rp162
(I3
S'<'
p163
NNNI-1
I-1
I0
tp164
bI00
S'\xf8C*\xbe\x14\xcf\xe8?\x81d\xab\xeb\xa8<\x18\xc0\xc8\\\xf4\x8c\xc3\xfa\xfe\xbf'
p165
tp166
bag22
(g23
(I0
tp167
g25
tp168
Rp169
(I1
(I3
tp170
g162
I00
S'\xd0\xcb\x13\x8f\xaa\x9d\xed?\x90\x01<]3\x06\x16\xc0F\xf1\xe7x32\x02\xc0'
p171
tp172
bag22
(g23
(I0
tp173
g25
tp174
Rp175
(I1
(I3
tp176
g162
I00
S'l[\xc4\x16<\xe6\xe9?\xa6\xa0\x90\x84X\x9f\x13\xc0\xc2\xd74Q\x00\xaf\xff\xbf'
p177
tp178
bag22
(g23
(I0
tp179
g25
tp180
Rp181
(I1
(I3
tp182
g162
I00
S"\xaeJ\xbd\x1936\xec?\x04\x13\xd4'\x9f\x88\x10\xc0\x805qo\xb6\xe6\xff\xbf"
p183
tp184
bag22
(g23
(I0
tp185
g25
tp186
Rp187
(I1
(I3
tp188
g162
I00
S'\xf09\xb6\x1c*\x86\xee?\xc4\n/\x96\xcb\xe3\n\xc0\xa0\xc9\xd6F6\x0f\x00\xc0'
p189
tp190
bag22
(g23
(I0
tp191
g25
tp192
Rp193
(I1
(I3
tp194
g162
I00
S'3\xe9\xaf\x05T\x89\xe7?+~\xcb\xd3\x15\xc7\x04\xc0x6(d5\xed\x07@'
p195
tp196
bas(Vsquare_packing_box4
p197
g142
tp198
(lp199
g22
(g23
(I0
tp200
g25
tp201
Rp202
(I1
(I3
tp203
g151
I00
S'To#`\xabW\t@2B\xadk?\x1c\x1b\xc0\x00\x9eUFd\xaf\x12@'
p204
tp205
bag22
(g23
(I0
tp206
g25
tp207
Rp208
(I1
(I3
tp209
g162
I00
S'/\x08\xfbO\x0f\xe3\x04@j\xb9\xdeR\x8bv\x1a\xc0Nw\xbd\xbe\xd2\x01\xfd\xbf'
p210
tp211
bag22
(g23
(I0
tp212
g25
tp213
Rp214
(I1
(I3
tp215
g162
I00
S'2]\x933g}\x00@\xebx\x00&R!\x1b\xc0\xce\x170ZD}\x00\xc0'
p216
tp217
bag22
(g23
(I0
tp218
g25
tp219
Rp220
(I1
(I3
tp221
g162
I00
S'4#\xe8i\x80D\xf8?\xdd\x1dlTl\\\x19\xc0m\xc1\x1a\xec\xde\x01\x01\xc0'
p222
tp223
bag22
(g23
(I0
tp224
g25
tp225
Rp226
(I1
(I3
tp227
g162
I00
S'\x9f5<Q\xb2\xb3\xf7?\xb3\xd6LI,\xe8\x16\xc0\xc2\x13\xbbtu\x87\x00\xc0'
p228
tp229
bag22
(g23
(I0
tp230
g25
tp231
Rp232
(I1
(I3
tp233
g162
I00
S'\xd0\xcb\x13\x8f\xaa\x9d\xed?\x90\x01<]3\x06\x16\xc0F\xf1\xe7x32\x02\xc0'
p234
tp235
bag22
(g23
(I0
tp236
g25
tp237
Rp238
(I1
(I3
tp239
g162
I00
S'l[\xc4\x16<\xe6\xe9?\xa6\xa0\x90\x84X\x9f\x13\xc0\xc2\xd74Q\x00\xaf\xff\xbf'
p240
tp241
bag22
(g23
(I0
tp242
g25
tp243
Rp244
(I1
(I3
tp245
g162
I00
S"\xaeJ\xbd\x1936\xec?\x04\x13\xd4'\x9f\x88\x10\xc0\x805qo\xb6\xe6\xff\xbf"
p246
tp247
bag22
(g23
(I0
tp248
g25
tp249
Rp250
(I1
(I3
tp251
g162
I00
S'\xf09\xb6\x1c*\x86\xee?\xc4\n/\x96\xcb\xe3\n\xc0\xa0\xc9\xd6F6\x0f\x00\xc0'
p252
tp253
bag22
(g23
(I0
tp254
g25
tp255
Rp256
(I1
(I3
tp257
g162
I00
S'3\xe9\xaf\x05T\x89\xe7?+~\xcb\xd3\x15\xc7\x04\xc0x6(d5\xed\x07@'
p258
tp259
bas(Vrectangular_packing_box1
p260
g142
tp261
(lp262
g22
(g23
(I0
tp263
g25
tp264
Rp265
(I1
(I3
tp266
g151
I00
S'\xfc\x8c\x81\x06\xae\xff\xf7?\xac\x81\xacm\xbex\x1a\xc0(\xfd\xd3\xb2\xb8$\x04@'
p267
tp268
bag22
(g23
(I0
tp269
g25
tp270
Rp271
(I1
(I3
tp272
g162
I00
S'\xae\xea\x9e\xa3\xa2\xb1\xed?\xa4\xca\x1d?h\x96\x19\xc0dq\xdf\xb1\x9d\xe4\x05@'
p273
tp274
bag22
(g23
(I0
tp275
g25
tp276
Rp277
(I1
(I3
tp278
g162
I00
S'o\xd6\x82\xea\x7f\xb2\xed?9\xf2C\x0b?\xfd\x16\xc0(?d\xe9@\xb5\x02@'
p279
tp280
bag22
(g23
(I0
tp281
g25
tp282
Rp283
(I1
(I3
tp284
g162
I00
S'&>c9\x01,\xeb?\xb2\xc2\xf0\x02\xce\x8e\x14\xc0\xd8p\xbb2\x14\xd2\x03@'
p285
tp286
bag22
(g23
(I0
tp287
g25
tp288
Rp289
(I1
(I3
tp290
g162
I00
S'\xc6\x05\xbdtg\xd9\xe2?F\xdf\x9d@\\\xf3\x11\xc0\x1a\xc4.\xbb\xcc\x12\x02@'
p291
tp292
bag22
(g23
(I0
tp293
g25
tp294
Rp295
(I1
(I3
tp296
g162
I00
S'3z\xed\x8eN)\xe4?\x0c\x96\xd4\xa2\x0e\xd0\r\xc0\xbd%\xf5{\xe9\xf9\x03@'
p297
tp298
bag22
(g23
(I0
tp299
g25
tp300
Rp301
(I1
(I3
tp302
g162
I00
S'\xaf0\xe9h\xba~\xee?k\xbb\xd8\xd4\xd0g\t\xc09\x9ey\xed\xb06\x06@'
p303
tp304
bag22
(g23
(I0
tp305
g25
tp306
Rp307
(I1
(I3
tp308
g162
I00
S'\xf4\xfdJ\x1a(#\xec?H"\x9cD\x1aE\x05\xc0.\xa9\x0b\x87\xf8\xe1\x02@'
p309
tp310
bas(Vsquare_packing_box3
p311
g142
tp312
(lp313
g22
(g23
(I0
tp314
g25
tp315
Rp316
(I1
(I3
tp317
g151
I00
S'\x18\xcb\xb4\x9d09\xee?\x9e\x14\x9c\x8f\x7f\x0c\x1f\xc0P\x83r\x13\xdbX\x08@'
p318
tp319
bag22
(g23
(I0
tp320
g25
tp321
Rp322
(I1
(I3
tp323
g162
I00
S'\x0c\x0f=\x82\xe8\x10\xef?\x95;\xd2\x17&\xe7\x1b\xc0\xf2\xbb\xbd\xb4q\x0b\t@'
p324
tp325
bag22
(g23
(I0
tp326
g25
tp327
Rp328
(I1
(I3
tp329
g162
I00
S'\xae\xea\x9e\xa3\xa2\xb1\xed?\xa4\xca\x1d?h\x96\x19\xc0dq\xdf\xb1\x9d\xe4\x05@'
p330
tp331
bag22
(g23
(I0
tp332
g25
tp333
Rp334
(I1
(I3
tp335
g162
I00
S'o\xd6\x82\xea\x7f\xb2\xed?9\xf2C\x0b?\xfd\x16\xc0(?d\xe9@\xb5\x02@'
p336
tp337
bag22
(g23
(I0
tp338
g25
tp339
Rp340
(I1
(I3
tp341
g162
I00
S'&>c9\x01,\xeb?\xb2\xc2\xf0\x02\xce\x8e\x14\xc0\xd8p\xbb2\x14\xd2\x03@'
p342
tp343
bag22
(g23
(I0
tp344
g25
tp345
Rp346
(I1
(I3
tp347
g162
I00
S'\xc6\x05\xbdtg\xd9\xe2?F\xdf\x9d@\\\xf3\x11\xc0\x1a\xc4.\xbb\xcc\x12\x02@'
p348
tp349
bag22
(g23
(I0
tp350
g25
tp351
Rp352
(I1
(I3
tp353
g162
I00
S'3z\xed\x8eN)\xe4?\x0c\x96\xd4\xa2\x0e\xd0\r\xc0\xbd%\xf5{\xe9\xf9\x03@'
p354
tp355
bag22
(g23
(I0
tp356
g25
tp357
Rp358
(I1
(I3
tp359
g162
I00
S'\xaf0\xe9h\xba~\xee?k\xbb\xd8\xd4\xd0g\t\xc09\x9ey\xed\xb06\x06@'
p360
tp361
bag22
(g23
(I0
tp362
g25
tp363
Rp364
(I1
(I3
tp365
g162
I00
S'\xf4\xfdJ\x1a(#\xec?H"\x9cD\x1aE\x05\xc0.\xa9\x0b\x87\xf8\xe1\x02@'
p366
tp367
bassS'mc_to_entity'
p368
(dp369
(g141
g142
tp370
(lp371
Vsquare_packing_box1
p372
aVrectangular_packing_box1
p373
as(g197
g142
tp374
(lp375
Vsquare_packing_box2
p376
aVsquare_packing_box1
p377
aVrectangular_packing_box1
p378
as(g260
g142
tp379
(lp380
Vsquare_packing_box1
p381
as(g311
g142
tp382
(lp383
Vrectangular_packing_box4
p384
aVsquare_packing_box1
p385
aVrectangular_packing_box1
p386
assS'reachable_entities'
p387
(lp388
Vrectangular_packing_box4
p389
aVrectangular_packing_box2
p390
aVrectangular_packing_box3
p391
aVrectangular_packing_box1
p392
aVsquare_packing_box2
p393
ag12
aVsquare_packing_box4
p394
asS'collides'
p395
(dp396
Vrectangular_packing_box4
p397
c__builtin__
set
p398
((lp399
I384
aI257
aI134
aI135
aI264
aI265
aI394
aI523
aI532
aI580
aI157
aI158
aI159
aI163
aI164
aI165
aI433
aI308
aI575
aI452
aI197
aI583
aI328
aI458
aI589
aI83
aI346
aI478
aI356
aI229
aI366
aI502
aI122
atp400
Rp401
sVrectangular_packing_box2
p402
g398
((lp403
I0
aI1
aI2
aI393
aI144
aI403
aI539
aI541
aI288
aI545
aI546
aI550
aI39
aI40
aI41
aI555
aI302
aI307
aI571
aI62
aI453
aI454
aI342
aI474
aI348
aI605
aI612
aI367
aI368
aI369
aI370
aI371
aI425
aI248
aI377
aI378
atp404
Rp405
sVrectangular_packing_box3
p406
g398
((lp407
I2
aI3
aI393
aI395
aI403
aI404
aI539
aI541
aI160
aI289
aI37
aI38
aI39
aI40
aI41
aI42
aI304
aI561
aI178
aI435
aI309
aI54
aI62
aI63
aI288
aI454
aI342
aI348
aI605
aI611
aI612
aI550
aI115
aI372
aI248
aI379
aI380
atp408
Rp409
sVrectangular_packing_box1
p410
g398
((lp411
I132
aI5
aI6
aI136
aI137
aI523
aI276
aI157
aI133
aI34
aI35
aI165
aI166
aI296
aI584
aI547
aI308
aI310
aI163
aI196
aI197
aI198
aI456
aI162
aI82
aI83
aI84
aI597
aI93
aI94
aI607
aI355
aI107
aI570
aI251
aI252
atp412
Rp413
sVsquare_packing_box2
p414
g398
((lp415
I270
aI405
aI280
aI548
aI425
aI303
aI307
aI565
aI438
aI442
aI193
aI453
aI457
aI343
aI473
aI479
aI614
aI367
aI500
aI246
aI247
aI381
atp416
Rp417
sVsquare_packing_box3
p418
g398
((lp419
I257
aI356
aI583
aI328
aI265
aI589
aI366
aI564
aI433
aI532
aI478
aI502
aI452
aI122
aI158
aI159
atp420
Rp421
sVsquare_packing_box1
p422
g398
((lp423
I5
aI134
aI263
aI136
aI146
aI413
aI35
aI36
aI262
aI296
aI176
aI310
aI570
aI69
aI205
aI80
aI81
aI82
aI83
aI597
aI92
aI464
aI355
aI230
aI593
aI240
aI505
aI124
atp424
Rp425
sVsquare_packing_box4
p426
g398
((lp427
I513
aI386
aI259
aI260
aI268
aI515
aI405
aI286
aI179
aI436
aI565
aI440
aI572
aI573
aI67
aI68
aI337
aI210
aI211
aI340
aI91
aI220
aI479
aI354
aI613
aI358
aI111
aI112
aI113
aI339
aI117
aI375
aI212
aI123
aI254
aI255
atp428
Rp429
ssg78
g79
sS'pick_used'
p430
(dp431
g389
(itrajectory_representation.operator
Operator
p432
(dp433
g8
I01
sg9
(dp434
S'object'
p435
Vrectangular_packing_box4
p436
ssg17
S'two_arm_pick'
p437
sg19
(dp438
S'q_goal'
p439
(lp440
g22
(g23
(I0
tp441
g25
tp442
Rp443
(I1
(I3
tp444
g151
I00
S'>\xda!\x06|\xe0\xea?\x05\r\\ :k\x1b\xc0\xb8\x9eL\x95q\xa0\x05\xc0'
p445
tp446
bag22
(g23
(I0
tp447
g25
tp448
Rp449
(I1
(I3
tp450
g151
I00
S'\xfb\x86\xcb\x87"\xe8\xee?\xab\xba\xaedH\xeb\x1b\xc0L\x02?j\x08\xb6\x05\xc0'
p451
tp452
bag22
(g23
(I0
tp453
g25
tp454
Rp455
(I1
(I3
tp456
g151
I00
S'\x11}\xb2\x04H\x17\xf0?P \xa2S\x1d\xd1\x1e\xc0k\xd6\x18\xc2\x8f\xfd\x04@'
p457
tp458
basS'is_feasible'
p459
I00
ssg47
(lp460
g22
(g23
(I0
tp461
g25
tp462
Rp463
(I1
(I3
tp464
g151
I00
S'd\\\x01M\xb5h\xfa?\xc5\xfb\n\xa4,\xcb\x17\xc0U\xd1p<\xe9\x83\xfe?'
p465
tp466
bag22
(g23
(I0
tp467
g25
tp468
Rp469
(I1
(I3
tp470
g162
I00
S'\xc6\xf1T\x16)\x02\xfe?\xa8\x7fQ\xf5\xbb\x10\x19\xc0\xa38\tS\x83\x84\x05@'
p471
tp472
bag22
(g23
(I0
tp473
g25
tp474
Rp475
(I1
(I3
tp476
g162
I00
S'\xba\x8d\x1a\xa2f&\x03@$\xbc\xba{lE\x1a\xc0172\n\x8c\xab\x03@'
p477
tp478
bag22
(g23
(I0
tp479
g25
tp480
Rp481
(I1
(I3
tp482
g162
I00
S"'DJ\xaet\xe5\x02@&#\x93\x97\x82\xb8\x1b\xc0\xdbM\xcc\xf6#.\x08@"
p483
tp484
bag22
(g23
(I0
tp485
g25
tp486
Rp487
(I1
(I3
tp488
g162
I00
S'\x97hw\xab\xc4\xaf\x00@\xfa\xe6\x8b\x80\x7f\xd5\x1d\xc0\x0e\x07\x94\xe05\x80\x0e@'
p489
tp490
bag22
(g23
(I0
tp491
g25
tp492
Rp493
(I1
(I3
tp494
g162
I00
S'\x1e}\xa1={_\xfa?\xf8\xcc\xba6\xc0\x9b\x1f\xc0\xe5\x11-\x1d\xde\x08\x08@'
p495
tp496
bag455
asbsg390
(itrajectory_representation.operator
Operator
p497
(dp498
g8
I01
sg9
(dp499
g435
Vrectangular_packing_box2
p500
ssg17
g437
sg19
(dp501
g439
(lp502
g22
(g23
(I0
tp503
g25
tp504
Rp505
(I1
(I3
tp506
g151
I00
S'\x9c\xa3M4xP\x07@\x1e\x10X\x06Q\x8a\x19\xc0\x08\xaf\xc4\x87\xfb\x11\xf1?'
p507
tp508
bag22
(g23
(I0
tp509
g25
tp510
Rp511
(I1
(I3
tp512
g151
I00
S'\xb9\xc6"\x950C\x05@\xde\x19\xb7\xb7\xdf\xfb\x18\xc0\xc9\xa8\xdd3\xa2\xe9\xed?'
p513
tp514
bag22
(g23
(I0
tp515
g25
tp516
Rp517
(I1
(I3
tp518
g151
I00
S'q\xe5\xf1\\\xfe\xdb\r@\xa6K<\x12\xba\x94\x19\xc04!R\x19\xca\xce\x01@'
p519
tp520
basg459
I00
ssg47
(lp521
g22
(g23
(I0
tp522
g25
tp523
Rp524
(I1
(I3
tp525
g151
I00
S'd\\\x01M\xb5h\xfa?\xc5\xfb\n\xa4,\xcb\x17\xc0U\xd1p<\xe9\x83\xfe?'
p526
tp527
bag22
(g23
(I0
tp528
g25
tp529
Rp530
(I1
(I3
tp531
g162
I00
S'\xc6\xf1T\x16)\x02\xfe?\xa8\x7fQ\xf5\xbb\x10\x19\xc0\xa38\tS\x83\x84\x05@'
p532
tp533
bag22
(g23
(I0
tp534
g25
tp535
Rp536
(I1
(I3
tp537
g162
I00
S'\x80e\xcc\t\x9a\xde\x04@<\x13[@\x0e\xa9\x19\xc0\xca\xb9\x9c\x08\r\xad\xf4?'
p538
tp539
bag505
asbsg391
(itrajectory_representation.operator
Operator
p540
(dp541
g8
I01
sg9
(dp542
g435
Vrectangular_packing_box3
p543
ssg17
g437
sg19
(dp544
g439
(lp545
g22
(g23
(I0
tp546
g25
tp547
Rp548
(I1
(I3
tp549
g151
I00
S'\xb7\xeb\xf9_\xba\xc4\xfb?\xd1\x0c\xdf\xdb\x8aK\x16\xc0\x12\xfa !\xa3\xbe\xc5\xbf'
p550
tp551
bag22
(g23
(I0
tp552
g25
tp553
Rp554
(I1
(I3
tp555
g151
I00
S'\x9f\x05\xb8f\xb3\xd9\n@\x1d- q\xf3\xc3\x17\xc0:\xdc\x04\t\xacS\n@'
p556
tp557
bag22
(g23
(I0
tp558
g25
tp559
Rp560
(I1
(I3
tp561
g151
I00
S'\x82\xc8\x06\x9c\xf4c\x04@\xed\xe4)?\x1e\xf6\x19\xc0R2\x12\xbe\x12@\xf9?'
p562
tp563
basg459
I00
ssg47
(lp564
g22
(g23
(I0
tp565
g25
tp566
Rp567
(I1
(I3
tp568
g151
I00
S'd\\\x01M\xb5h\xfa?\xc5\xfb\n\xa4,\xcb\x17\xc0U\xd1p<\xe9\x83\xfe?'
p569
tp570
bag22
(g23
(I0
tp571
g25
tp572
Rp573
(I1
(I3
tp574
g162
I00
S'\x84\xa2s4\xa1\xd0\xf6?E=|\xb9\xcam\x17\xc0\xa93^V\xfc\xed\x05@'
p575
tp576
bag22
(g23
(I0
tp577
g25
tp578
Rp579
(I1
(I3
tp580
g162
I00
S'3\x82\x8a\x8fh\xb2\xf8?\xecMw\xff=$\x19\xc0\x10\x03\x08*\x90Q\x89?'
p581
tp582
bag548
asbsg392
(itrajectory_representation.operator
Operator
p583
(dp584
g8
I01
sg9
(dp585
g435
Vrectangular_packing_box1
p586
ssg17
g437
sg19
(dp587
g439
(lp588
g22
(g23
(I0
tp589
g25
tp590
Rp591
(I1
(I3
tp592
g151
I00
S'\x00\x8d\x81\x06\xae\xff\xf7?\xaa\x81\xacm\xbex\x1a\xc0(\xfd\xd3\xb2\xb8$\x04@'
p593
tp594
bag22
(g23
(I0
tp595
g25
tp596
Rp597
(I1
(I3
tp598
g151
I00
S'\x1dm\xdaPZ\xe3\xf7?\x0fF\xe5/O\xa8\x1a\xc0;\x7f\x161\x84\x9d\x06@'
p599
tp600
bag22
(g23
(I0
tp601
g25
tp602
Rp603
(I1
(I3
tp604
g151
I00
S'\xa1\xadx\xf5\xe0\x85\xbb?F\xa2\xd2\xbe\xa1\xba\x18\xc0\xbc\x12\xe1R\xb6\xe3\xdb\xbf'
p605
tp606
basg459
I00
ssg47
(lp607
g22
(g23
(I0
tp608
g25
tp609
Rp610
(I1
(I3
tp611
g151
I00
S'd\\\x01M\xb5h\xfa?\xc5\xfb\n\xa4,\xcb\x17\xc0U\xd1p<\xe9\x83\xfe?'
p612
tp613
bag22
(g23
(I0
tp614
g25
tp615
Rp616
(I1
(I3
tp617
g162
I00
S'\x85\\2\xba\x0b5\xf5?I\r\x06\xd10\xfb\x15\xc0\x9e\x11\xee\xd8\xb9\xd7\xf5?'
p618
tp619
bag22
(g23
(I0
tp620
g25
tp621
Rp622
(I1
(I3
tp623
g162
I00
S",0}\x1d\xd8'\xe3?\x1a_'\xd6T\x08\x17\xc0A\xde\xdb2\xd8\xd0\x14@"
p624
tp625
bag603
asbsg393
(itrajectory_representation.operator
Operator
p626
(dp627
g8
I01
sg9
(dp628
g435
Vsquare_packing_box2
p629
ssg17
g437
sg19
(dp630
g439
(lp631
g22
(g23
(I0
tp632
g25
tp633
Rp634
(I1
(I3
tp635
g151
I00
S'\x10\xb2#/\x98\xfb\x07@\xcap7KtR\x1a\xc0\xe41\xadD\x9a\xda\xe8\xbf'
p636
tp637
bag22
(g23
(I0
tp638
g25
tp639
Rp640
(I1
(I3
tp641
g151
I00
S'\xfb\xc3A6\xeek\x0e@\xa0\x99\x0f\xabd@\x18\xc0U\x9f@\x97\xf8\xbf\xfc\xbf'
p642
tp643
bag22
(g23
(I0
tp644
g25
tp645
Rp646
(I1
(I3
tp647
g151
I00
S'Ebi\xd0f#\x08@\xd2i\xa1wgL\x19\xc0\xff\xd5\xe7I\xdc\xa5\xe6\xbf'
p648
tp649
bag22
(g23
(I0
tp650
g25
tp651
Rp652
(I1
(I3
tp653
g151
I00
S'\x1a\xcdY\xbe\xabs\x0c@{\x91g\xcc\xaf\x10\x1e\xc02\xf4\xfd\xb1K0\xed?'
p654
tp655
basg459
I00
ssg47
(lp656
g22
(g23
(I0
tp657
g25
tp658
Rp659
(I1
(I3
tp660
g151
I00
S'd\\\x01M\xb5h\xfa?\xc5\xfb\n\xa4,\xcb\x17\xc0U\xd1p<\xe9\x83\xfe?'
p661
tp662
bag22
(g23
(I0
tp663
g25
tp664
Rp665
(I1
(I3
tp666
g162
I00
S'\xc6\xf1T\x16)\x02\xfe?\xa8\x7fQ\xf5\xbb\x10\x19\xc0\xa38\tS\x83\x84\x05@'
p667
tp668
bag22
(g23
(I0
tp669
g25
tp670
Rp671
(I1
(I3
tp672
g162
I00
S'\xca\xbc\xd1\x14\xab\xdb\x03@\x1d\xe31\xd0\xab\xb7\x1a\xc0\xbe\x9cO\xe2\x184\x13@'
p673
tp674
bag634
asbsVsquare_packing_box3
p675
(itrajectory_representation.operator
Operator
p676
(dp677
g8
I01
sg9
(dp678
g435
Vsquare_packing_box3
p679
ssg17
g437
sg19
(dp680
g439
(lp681
g22
(g23
(I0
tp682
g25
tp683
Rp684
(I1
(I3
tp685
g151
I00
S'\x1f\xcb\xb4\x9d09\xee?\x9f\x14\x9c\x8f\x7f\x0c\x1f\xc0\xe0\xd6\x15\x95\x1b\xeb\t\xc0'
p686
tp687
bag22
(g23
(I0
tp688
g25
tp689
Rp690
(I1
(I3
tp691
g151
I00
S'\xc0\xf8\x8d\xc63\xe0q?\x9f\xd6\xea\\Q1\x1d\xc0\xd4\xaa\xc0\xc5\x07\xcd\xf2\xbf'
p692
tp693
bag22
(g23
(I0
tp694
g25
tp695
Rp696
(I1
(I3
tp697
g151
I00
S'l\xe1\x9d\x89Io\xec?v\xa9oT\xe5a\x1e\xc0\x84\x13\x10\xc5\xad\xe1\x04\xc0'
p698
tp699
basg459
I00
ssg47
(lp700
g22
(g23
(I0
tp701
g25
tp702
Rp703
(I1
(I3
tp704
g151
I00
S'd\\\x01M\xb5h\xfa?\xc5\xfb\n\xa4,\xcb\x17\xc0U\xd1p<\xe9\x83\xfe?'
p705
tp706
bag22
(g23
(I0
tp707
g25
tp708
Rp709
(I1
(I3
tp710
g162
I00
S'{\xe7\xcc\xce\x02,\xf5?\xeb\x85\xf2\xb4\xc9\x08\x19\xc0\xcd\x97\xf6\xcc\xe4z\x00@'
p711
tp712
bag22
(g23
(I0
tp713
g25
tp714
Rp715
(I1
(I3
tp716
g162
I00
S'\x0c\x0f=\x82\xe8\x10\xef?\x95;\xd2\x17&\xe7\x1b\xc0\xf2\xbb\xbd\xb4q\x0b\t@'
p717
tp718
bag696
asbsg12
(itrajectory_representation.operator
Operator
p719
(dp720
g8
I01
sg9
(dp721
g11
g12
ssg17
S'two_arm_pick'
p722
sg19
(dp723
g21
g22
(g23
(I0
tp724
g25
tp725
Rp726
(I1
(I3
tp727
g32
I00
S'N\x9a\xde\xa7\xc5m\xf9?Q\x99\xa0\x1d\x97B\x19\xc0\x01\x96\x81\xa19a\x00\xc0'
p728
tp729
bssg47
(lp730
g22
(g23
(I0
tp731
g25
tp732
Rp733
(I1
(I3
tp734
g151
I00
S'd\\\x01M\xb5h\xfa?\xc5\xfb\n\xa4,\xcb\x17\xc0U\xd1p<\xe9\x83\xfe?'
p735
tp736
bag22
(g23
(I0
tp737
g25
tp738
Rp739
(I1
(I3
tp740
g162
I00
S'\xe0 ;\x819w\xfd?\xe7\xcc\xc2\xa0\xa5f\x17\xc04\xedq\x1c\x8eK\xfa?'
p741
tp742
bag22
(g23
(I0
tp743
g25
tp744
Rp745
(I1
(I3
tp746
g162
I00
S"'\xc1{\xbc\xf6\x05\xf8?\x02^\x18\xdc\xb7\xac\x18\xc0o\x85MZ3\x91\xf3\xbf"
p747
tp748
bag726
asbsg394
(itrajectory_representation.operator
Operator
p749
(dp750
g8
I01
sg9
(dp751
g435
Vsquare_packing_box4
p752
ssg17
g437
sg19
(dp753
g439
(lp754
g22
(g23
(I0
tp755
g25
tp756
Rp757
(I1
(I3
tp758
g151
I00
S'Wo#`\xabW\t@3B\xadk?\x1c\x1b\xc0b<\xba7\\\xca\xf9\xbf'
p759
tp760
bag22
(g23
(I0
tp761
g25
tp762
Rp763
(I1
(I3
tp764
g151
I00
S'\x8f\xfb\x0f\xa9\xd0N\x03@\xd7=\xb1\x9d\xd1\x1f \xc0\xe8c\x16\xaf\xf7\xe3\xda?'
p765
tp766
bag22
(g23
(I0
tp767
g25
tp768
Rp769
(I1
(I3
tp770
g151
I00
S'\xb1;J\xb5\xfe\xee\n@\xeb\x99\xea\x92\xbd\xe4\x1f\xc0YX(\xa5\xc0\xed\x03@'
p771
tp772
basg459
I00
ssg47
(lp773
g22
(g23
(I0
tp774
g25
tp775
Rp776
(I1
(I3
tp777
g151
I00
S'd\\\x01M\xb5h\xfa?\xc5\xfb\n\xa4,\xcb\x17\xc0U\xd1p<\xe9\x83\xfe?'
p778
tp779
bag22
(g23
(I0
tp780
g25
tp781
Rp782
(I1
(I3
tp783
g162
I00
S'\xc6\xf1T\x16)\x02\xfe?\xa8\x7fQ\xf5\xbb\x10\x19\xc0\xa38\tS\x83\x84\x05@'
p784
tp785
bag22
(g23
(I0
tp786
g25
tp787
Rp788
(I1
(I3
tp789
g162
I00
S'\xba\x8d\x1a\xa2f&\x03@$\xbc\xba{lE\x1a\xc0172\n\x8c\xab\x03@'
p790
tp791
bag22
(g23
(I0
tp792
g25
tp793
Rp794
(I1
(I3
tp795
g162
I00
S'>\xc0\x12$\xd1\xa3\x02@L\xfb\xe9\xe8\x00\xfd\x1c\xc0\x1dL8%\x1b\x13\x04@'
p796
tp797
bag22
(g23
(I0
tp798
g25
tp799
Rp800
(I1
(I3
tp801
g162
I00
S'\xb9O\xa7Y\x02\x91\x00@\x96d\x95\x0e\xe6\xda\x1e\xc0l\xef\x8e\x11Rk\xeb?'
p802
tp803
bag763
asbssS'mc_paths'
p804
(dp805
sS'robot'
p806
NsS'reachable_obj_region_pairs'
p807
(lp808
sS'sampled_pick_configs_for_objects'
p809
(dp810
sS'mc_calls'
p811
I0
sS'pick_poses'
p812
g431
sS'problem_env'
p813
NsS'evaluations'
p814
(dp815
(g260
Vrectangular_packing_box2
p816
g142
tp817
I00
s(g311
g197
g142
tp818
I00
s(g141
Vsquare_packing_box2
p819
g142
tp820
I00
s(g311
Vsquare_packing_box1
p821
g142
tp822
I01
s(g197
g819
g142
tp823
I01
s(g311
g816
g142
tp824
I00
s(g141
g197
g142
tp825
I00
s(g260
g821
g142
tp826
I01
s(g260
g141
g142
tp827
I00
s(g141
g311
g142
tp828
I00
s(g197
g311
g142
tp829
I00
s(g197
g260
g142
tp830
I01
s(g141
g260
g142
tp831
I01
s(g311
g260
g142
tp832
I01
s(g197
g816
g142
tp833
I00
s(g141
g816
g142
tp834
I00
s(g260
g197
g142
tp835
I00
s(g197
g141
g142
tp836
I00
s(g311
g819
g142
tp837
I00
s(g197
Vrectangular_packing_box3
p838
g142
tp839
I00
s(g141
g838
g142
tp840
I00
s(g260
g311
g142
tp841
I00
s(g260
g838
g142
tp842
I00
s(g141
g821
g142
tp843
I01
s(g197
g821
g142
tp844
I01
s(g311
g838
g142
tp845
I00
s(g311
g141
g142
tp846
I01
s(g260
g819
g142
tp847
I00
ssS'paths_to_reachable_entities'
p848
NsS'use_shortest_path'
p849
I01
sbsS'ternary_edges'
p850
(dp851
(g816
g816
g142
tp852
(lp853
I00
as(g821
S'loading_region'
p854
g854
tp855
(lp856
I00
as(S'entire_region'
p857
g260
g142
tp858
(lp859
I00
as(g819
g197
g854
tp860
(lp861
I00
as(g142
g142
g142
tp862
(lp863
I00
as(g197
g816
g854
tp864
(lp865
I00
as(g821
g838
g142
tp866
(lp867
I00
as(g142
g141
g142
tp868
(lp869
I00
as(g819
g821
g142
tp870
(lp871
I00
as(g838
g141
g854
tp872
(lp873
I00
as(g142
g197
g854
tp874
(lp875
I00
as(g819
g857
g142
tp876
(lp877
I00
as(g854
g142
g854
tp878
(lp879
I00
as(g141
g311
g142
tp880
(lp881
I00
as(g197
g857
g142
tp882
(lp883
I00
as(g819
g260
g854
tp884
(lp885
I00
as(g311
g854
g142
tp886
(lp887
I00
as(g857
g816
g854
tp888
(lp889
I00
as(g142
g857
g142
tp890
(lp891
I00
as(g816
g854
g142
tp892
(lp893
I00
as(g311
g857
g142
tp894
(lp895
I00
as(g821
g821
g854
tp896
(lp897
I00
as(g854
g197
g854
tp898
(lp899
I00
as(g857
g854
g142
tp900
(lp901
I00
as(g857
g819
g142
tp902
(lp903
I00
as(g854
g854
g142
tp904
(lp905
I00
as(g311
g141
g854
tp906
(lp907
I00
as(g142
g142
g854
tp908
(lp909
I00
as(g260
g819
g854
tp910
(lp911
I00
as(g816
g197
g142
tp912
(lp913
I00
as(g311
g821
g142
tp914
(lp915
I01
as(g260
g142
g854
tp916
(lp917
I00
as(g142
g816
g854
tp918
(lp919
I00
as(g260
g838
g854
tp920
(lp921
I00
as(g838
g260
g142
tp922
(lp923
I00
as(g854
g821
g854
tp924
(lp925
I00
as(g197
g819
g854
tp926
(lp927
I00
as(g816
g816
g854
tp928
(lp929
I00
as(g857
g197
g142
tp930
(lp931
I00
as(g854
g142
g142
tp932
(lp933
I00
as(g141
g816
g142
tp934
(lp935
I00
as(g142
g838
g142
tp936
(lp937
I00
as(g819
g260
g142
tp938
(lp939
I00
as(g838
g197
g142
tp940
(lp941
I00
as(g821
g838
g854
tp942
(lp943
I00
as(g311
g819
g142
tp944
(lp945
I00
as(g819
g821
g854
tp946
(lp947
I00
as(g819
g816
g854
tp948
(lp949
I00
as(g857
g819
g854
tp950
(lp951
I00
as(g854
g838
g854
tp952
(lp953
I00
as(g857
g142
g142
tp954
(lp955
I00
as(g141
g142
g142
tp956
(lp957
I00
as(g854
g857
g142
tp958
(lp959
I00
as(g816
g197
g854
tp960
(lp961
I00
as(g311
g816
g854
tp962
(lp963
I00
as(g311
g311
g142
tp964
(lp965
I00
as(g260
g838
g142
tp966
(lp967
I00
as(g857
g816
g142
tp968
(lp969
I00
as(g260
g854
g854
tp970
(lp971
I00
as(g197
g821
g142
tp972
(lp973
I01
as(g821
g821
g142
tp974
(lp975
I00
as(g821
g141
g142
tp976
(lp977
I00
as(g141
g816
g854
tp978
(lp979
I00
as(g197
g260
g854
tp980
(lp981
I00
as(g311
g141
g142
tp982
(lp983
I01
as(g260
g819
g142
tp984
(lp985
I00
as(g816
g260
g854
tp986
(lp987
I00
as(g260
g142
g142
tp988
(lp989
I00
as(g819
g816
g142
tp990
(lp991
I00
as(g816
g311
g142
tp992
(lp993
I00
as(g838
g260
g854
tp994
(lp995
I00
as(g142
g819
g854
tp996
(lp997
I00
as(g857
g142
g854
tp998
(lp999
I00
as(g857
g197
g854
tp1000
(lp1001
I00
as(g311
g816
g142
tp1002
(lp1003
I00
as(g838
g311
g854
tp1004
(lp1005
I00
as(g816
g857
g854
tp1006
(lp1007
I00
as(g260
g854
g142
tp1008
(lp1009
I00
as(g311
g819
g854
tp1010
(lp1011
I00
as(g311
g260
g854
tp1012
(lp1013
I00
as(g197
g821
g854
tp1014
(lp1015
I00
as(g142
g838
g854
tp1016
(lp1017
I00
as(g857
g311
g854
tp1018
(lp1019
I00
as(g854
g838
g142
tp1020
(lp1021
I00
as(g854
g819
g854
tp1022
(lp1023
I00
as(g816
g260
g142
tp1024
(lp1025
I00
as(g197
g260
g142
tp1026
(lp1027
I01
as(g854
g311
g142
tp1028
(lp1029
I00
as(g816
g311
g854
tp1030
(lp1031
I00
as(g816
g141
g854
tp1032
(lp1033
I00
as(g838
g197
g854
tp1034
(lp1035
I00
as(g821
g141
g854
tp1036
(lp1037
I00
as(g260
g311
g854
tp1038
(lp1039
I00
as(g142
g821
g854
tp1040
(lp1041
I00
as(g838
g854
g854
tp1042
(lp1043
I00
as(g141
g142
g854
tp1044
(lp1045
I00
as(g821
g260
g142
tp1046
(lp1047
I00
as(g816
g857
g142
tp1048
(lp1049
I00
as(g141
g819
g854
tp1050
(lp1051
I00
as(g838
g816
g854
tp1052
(lp1053
I00
as(g311
g260
g142
tp1054
(lp1055
I01
as(g197
g854
g854
tp1056
(lp1057
I00
as(g819
g142
g142
tp1058
(lp1059
I00
as(g197
g141
g142
tp1060
(lp1061
I00
as(g142
g311
g854
tp1062
(lp1063
I00
as(g854
g260
g854
tp1064
(lp1065
I00
as(g854
g311
g854
tp1066
(lp1067
I00
as(g821
g311
g142
tp1068
(lp1069
I00
as(g260
g311
g142
tp1070
(lp1071
I00
as(g821
g260
g854
tp1072
(lp1073
I00
as(g838
g816
g142
tp1074
(lp1075
I00
as(g816
g819
g142
tp1076
(lp1077
I00
as(g838
g142
g854
tp1078
(lp1079
I00
as(g197
g854
g142
tp1080
(lp1081
I00
as(g854
g141
g854
tp1082
(lp1083
I00
as(g816
g141
g142
tp1084
(lp1085
I00
as(g838
g838
g142
tp1086
(lp1087
I00
as(g141
g141
g142
tp1088
(lp1089
I00
as(g141
g838
g854
tp1090
(lp1091
I00
as(g838
g854
g142
tp1092
(lp1093
I00
as(g311
g197
g142
tp1094
(lp1095
I00
as(g141
g819
g142
tp1096
(lp1097
I00
as(g819
g854
g854
tp1098
(lp1099
I00
as(g838
g857
g854
tp1100
(lp1101
I00
as(g819
g142
g854
tp1102
(lp1103
I00
as(g821
g819
g854
tp1104
(lp1105
I00
as(g197
g141
g854
tp1106
(lp1107
I00
as(g311
g142
g854
tp1108
(lp1109
I00
as(g838
g142
g142
tp1110
(lp1111
I00
as(g854
g141
g142
tp1112
(lp1113
I00
as(g260
g260
g142
tp1114
(lp1115
I00
as(g854
g197
g142
tp1116
(lp1117
I00
as(g197
g311
g142
tp1118
(lp1119
I00
as(g821
g816
g142
tp1120
(lp1121
I00
as(g821
g311
g854
tp1122
(lp1123
I00
as(g141
g821
g854
tp1124
(lp1125
I00
as(g142
g819
g142
tp1126
(lp1127
I00
as(g857
g838
g854
tp1128
(lp1129
I00
as(g838
g821
g142
tp1130
(lp1131
I00
as(g260
g857
g142
tp1132
(lp1133
I00
as(g311
g197
g854
tp1134
(lp1135
I00
as(g311
g838
g854
tp1136
(lp1137
I00
as(g141
g260
g142
tp1138
(lp1139
I01
as(g816
g819
g854
tp1140
(lp1141
I00
as(g141
g854
g142
tp1142
(lp1143
I00
as(g838
g857
g142
tp1144
(lp1145
I00
as(g197
g838
g854
tp1146
(lp1147
I00
as(g816
g821
g142
tp1148
(lp1149
I00
as(g311
g821
g854
tp1150
(lp1151
I00
as(g197
g197
g854
tp1152
(lp1153
I00
as(g141
g141
g854
tp1154
(lp1155
I00
as(g260
g260
g854
tp1156
(lp1157
I00
as(g821
g197
g854
tp1158
(lp1159
I00
as(g197
g819
g142
tp1160
(lp1161
I01
as(g857
g821
g142
tp1162
(lp1163
I00
as(g142
g857
g854
tp1164
(lp1165
I00
as(g142
g260
g854
tp1166
(lp1167
I00
as(g819
g854
g142
tp1168
(lp1169
I00
as(g821
g816
g854
tp1170
(lp1171
I00
as(g260
g821
g854
tp1172
(lp1173
I00
as(g838
g838
g854
tp1174
(lp1175
I00
as(g857
g838
g142
tp1176
(lp1177
I00
as(g819
g838
g854
tp1178
(lp1179
I00
as(g260
g857
g854
tp1180
(lp1181
I00
as(g821
g819
g142
tp1182
(lp1183
I00
as(g141
g260
g854
tp1184
(lp1185
I00
as(g141
g838
g142
tp1186
(lp1187
I00
as(g197
g838
g142
tp1188
(lp1189
I00
as(g821
g142
g854
tp1190
(lp1191
I00
as(g819
g311
g142
tp1192
(lp1193
I00
as(g311
g311
g854
tp1194
(lp1195
I00
as(g141
g857
g142
tp1196
(lp1197
I00
as(g854
g857
g854
tp1198
(lp1199
I00
as(g197
g311
g854
tp1200
(lp1201
I00
as(g854
g260
g142
tp1202
(lp1203
I00
as(g857
g857
g854
tp1204
(lp1205
I00
as(g141
g821
g142
tp1206
(lp1207
I01
as(g821
g197
g142
tp1208
(lp1209
I00
as(g854
g816
g854
tp1210
(lp1211
I00
as(g838
g821
g854
tp1212
(lp1213
I00
as(g311
g142
g142
tp1214
(lp1215
I00
as(g857
g821
g854
tp1216
(lp1217
I00
as(g311
g838
g142
tp1218
(lp1219
I00
as(g838
g819
g142
tp1220
(lp1221
I00
as(g141
g854
g854
tp1222
(lp1223
I00
as(g816
g821
g854
tp1224
(lp1225
I00
as(g260
g816
g142
tp1226
(lp1227
I00
as(g857
g854
g854
tp1228
(lp1229
I00
as(g854
g816
g142
tp1230
(lp1231
I00
as(g821
g857
g142
tp1232
(lp1233
I00
as(g819
g311
g854
tp1234
(lp1235
I00
as(g819
g141
g854
tp1236
(lp1237
I00
as(g197
g142
g142
tp1238
(lp1239
I00
as(g141
g857
g854
tp1240
(lp1241
I00
as(g141
g197
g142
tp1242
(lp1243
I00
as(g857
g141
g854
tp1244
(lp1245
I00
as(g142
g260
g142
tp1246
(lp1247
I00
as(g142
g311
g142
tp1248
(lp1249
I00
as(g260
g821
g142
tp1250
(lp1251
I01
as(g260
g141
g142
tp1252
(lp1253
I00
as(g857
g311
g142
tp1254
(lp1255
I00
as(g819
g838
g142
tp1256
(lp1257
I00
as(g819
g819
g854
tp1258
(lp1259
I00
as(g260
g197
g854
tp1260
(lp1261
I00
as(g197
g142
g854
tp1262
(lp1263
I00
as(g816
g142
g142
tp1264
(lp1265
I00
as(g821
g142
g142
tp1266
(lp1267
I00
as(g260
g816
g854
tp1268
(lp1269
I00
as(g197
g816
g142
tp1270
(lp1271
I00
as(g142
g854
g142
tp1272
(lp1273
I00
as(g857
g857
g142
tp1274
(lp1275
I00
as(g816
g838
g854
tp1276
(lp1277
I00
as(g821
g857
g854
tp1278
(lp1279
I00
as(g854
g819
g142
tp1280
(lp1281
I00
as(g838
g141
g142
tp1282
(lp1283
I00
as(g857
g141
g142
tp1284
(lp1285
I00
as(g821
g854
g142
tp1286
(lp1287
I00
as(g838
g819
g854
tp1288
(lp1289
I00
as(g142
g821
g142
tp1290
(lp1291
I00
as(g857
g260
g854
tp1292
(lp1293
I00
as(g197
g857
g854
tp1294
(lp1295
I00
as(g819
g819
g142
tp1296
(lp1297
I00
as(g260
g197
g142
tp1298
(lp1299
I00
as(g311
g857
g854
tp1300
(lp1301
I00
as(g819
g141
g142
tp1302
(lp1303
I00
as(g142
g197
g142
tp1304
(lp1305
I00
as(g838
g311
g142
tp1306
(lp1307
I00
as(g141
g197
g854
tp1308
(lp1309
I00
as(g197
g197
g142
tp1310
(lp1311
I00
as(g260
g141
g854
tp1312
(lp1313
I00
as(g819
g197
g142
tp1314
(lp1315
I00
as(g311
g854
g854
tp1316
(lp1317
I00
as(g142
g816
g142
tp1318
(lp1319
I00
as(g816
g854
g854
tp1320
(lp1321
I00
as(g142
g141
g854
tp1322
(lp1323
I00
as(g816
g142
g854
tp1324
(lp1325
I00
as(g854
g854
g854
tp1326
(lp1327
I00
as(g819
g857
g854
tp1328
(lp1329
I00
as(g141
g311
g854
tp1330
(lp1331
I00
as(g142
g854
g854
tp1332
(lp1333
I00
as(g816
g838
g142
tp1334
(lp1335
I00
as(g854
g821
g142
tp1336
(lp1337
I00
assg430
g431
sS'use_prm'
p1338
I01
sS'object_names'
p1339
(lp1340
S'square_packing_box1'
p1341
aS'rectangular_packing_box1'
p1342
aS'square_packing_box2'
p1343
aS'rectangular_packing_box2'
p1344
aS'square_packing_box3'
p1345
aS'rectangular_packing_box3'
p1346
aS'square_packing_box4'
p1347
aS'rectangular_packing_box4'
p1348
asg813
NsS'current_holding_collides'
p1349
NsS'object_poses'
p1350
(dp1351
Vrectangular_packing_box4
p1352
g22
(g23
(I0
tp1353
g25
tp1354
Rp1355
(I1
(I1
I3
tp1356
g151
I00
S'H\x18\x1d=\xdc\xc8\xd5?r\x85E\xf4\xfbh\x1d\xc0\x92\x97z\xb9/N\x15@'
p1357
tp1358
bsVrectangular_packing_box2
p1359
g22
(g23
(I0
tp1360
g25
tp1361
Rp1362
(I1
(I1
I3
tp1363
g151
I00
S'^0#3\xaf\n\n@\x93/\x86L\xef\r\x17\xc0\x9e\xb5\x06\x84\xe5y\x02@'
p1364
tp1365
bsVrectangular_packing_box3
p1366
g22
(g23
(I0
tp1367
g25
tp1368
Rp1369
(I1
(I1
I3
tp1370
g151
I00
S'dP\xcc\xa5dL\x04@mZ\xe5L/\xef\x16\xc0z\x02\xee\xac\x95c\xa2?'
p1371
tp1372
bsVrectangular_packing_box1
p1373
g22
(g23
(I0
tp1374
g25
tp1375
Rp1376
(I1
(I1
I3
tp1377
g151
I00
S"\xac\x94/om\x94\xea?\xdaD\x81OB\xac\x19\xc0\xef\xf5\x90\xbb\xb8'\xf2?"
p1378
tp1379
bsVsquare_packing_box2
p1380
g22
(g23
(I0
tp1381
g25
tp1382
Rp1383
(I1
(I1
I3
tp1384
g151
I00
S'\x85\xedyf\xa1\x97\r@\xf4Z\xfe116\x1b\xc0\xb1\x1f\x07\x82\xee^\x05@'
p1385
tp1386
bsVsquare_packing_box3
p1387
g22
(g23
(I0
tp1388
g25
tp1389
Rp1390
(I1
(I1
I3
tp1391
g151
I00
S'\x80\xd3\xfcU\xb1r\xcb?\xd2"\xf3-\xed\xd6\x1f\xc0~R\xd3\xcd\xd3\xdb\x14@'
p1392
tp1393
bsVsquare_packing_box1
p1394
g22
(g23
(I0
tp1395
g25
tp1396
Rp1397
(I1
(I1
I3
tp1398
g151
I00
S'\\\xbe\xe1\xbb1a\xf5?V\x0c\x9e\xe4u\x06\x1c\xc0\xe5\xe9\xc2\x83\xf6\xe2\x16@'
p1399
tp1400
bsVsquare_packing_box4
p1401
g22
(g23
(I0
tp1402
g25
tp1403
Rp1404
(I1
(I1
I3
tp1405
g151
I00
S'\xf2\xbb\xc1\xbcq\x87\x07@\xcc\x877\x88|\x14\x1e\xc0\xe4a/\xaa.:\xf4?'
p1406
tp1407
bssS'reachable_regions_while_holding'
p1408
(lp1409
(g389
g854
tp1410
a(g390
g854
tp1411
a(g391
g854
tp1412
a(g392
g854
tp1413
a(g393
g854
tp1414
a(g675
g854
tp1415
a(g12
g854
tp1416
a(g394
g854
tp1417
a(g390
g142
tp1418
a(g391
g142
tp1419
a(g393
g142
tp1420
a(g12
g142
tp1421
asS'in_region'
p1422
(itrajectory_representation.predicates.in_region
InRegion
p1423
(dp1424
g813
NsbsS'cached_pick_paths'
p1425
(dp1426
g389
g460
sg390
g521
sg391
g564
sg392
g607
sg393
g656
sg675
g700
sg12
g730
sg394
g773
ssg395
(dp1427
(Vsquare_packing_box1
p1428
(cnumpy.core.multiarray
scalar
p1429
(g151
S'\xf2w\xef\xa81a\xf5?'
p1430
tp1431
Rp1432
g1429
(g151
S'\x8e\xae\xd2\xddu\x06\x1c\xc0'
p1433
tp1434
Rp1435
g1429
(g151
S'#k\r\xa5\xf6\xe2\x16@'
p1436
tp1437
Rp1438
tp1439
tp1440
g425
s(Vrectangular_packing_box4
p1441
(g1429
(g151
S')"\xc3*\xde\xc8\xd5?'
p1442
tp1443
Rp1444
g1429
(g151
S'm8,\r\xfch\x1d\xc0'
p1445
tp1446
Rp1447
g1429
(g151
S'\xd6\xac3\xbe/N\x15@'
p1448
tp1449
Rp1450
tp1451
tp1452
g401
s(Vrectangular_packing_box3
p1453
(g1429
(g151
S'a\xddxwdL\x04@'
p1454
tp1455
Rp1456
g1429
(g151
S')!XU/\xef\x16\xc0'
p1457
tp1458
Rp1459
g1429
(g151
S'\xd7g\xce\xfa\x94c\xa2?'
p1460
tp1461
Rp1462
tp1463
tp1464
g409
s(Vsquare_packing_box2
p1465
(g1429
(g151
S'<J%<\xa1\x97\r@'
p1466
tp1467
Rp1468
g1429
(g151
S'\xa5\xf4L/16\x1b\xc0'
p1469
tp1470
Rp1471
g1429
(g151
S'h\x92XR\xee^\x05@'
p1472
tp1473
Rp1474
tp1475
tp1476
g417
s(Vrectangular_packing_box1
p1477
(g1429
(g151
S'\x8c\xf5\rLn\x94\xea?'
p1478
tp1479
Rp1480
g1429
(g151
S'\xf0\xdeQcB\xac\x19\xc0'
p1481
tp1482
Rp1483
g1429
(g151
S"\xbfb\r\x17\xb9'\xf2?"
p1484
tp1485
Rp1486
tp1487
tp1488
g413
s(Vrectangular_packing_box2
p1489
(g1429
(g151
S'\xdc\x10\xe35\xaf\n\n@'
p1490
tp1491
Rp1492
g1429
(g151
S'\x1a\xdbkA\xef\r\x17\xc0'
p1493
tp1494
Rp1495
g1429
(g151
S'\xd2\xa9+\x9f\xe5y\x02@'
p1496
tp1497
Rp1498
tp1499
tp1500
g405
s(Vsquare_packing_box3
p1501
(g1429
(g151
S'\xd3\x83\x82R\xb4r\xcb?'
p1502
tp1503
Rp1504
g1429
(g151
S'\x1c)[$\xed\xd6\x1f\xc0'
p1505
tp1506
Rp1507
g1429
(g151
S'@\x13a\xc3\xd3\xdb\x14@'
p1508
tp1509
Rp1510
tp1511
tp1512
g421
s(Vsquare_packing_box4
p1513
(g1429
(g151
S'\xba\xf7p\xc9q\x87\x07@'
p1514
tp1515
Rp1516
g1429
(g151
S'&\xe5\xees|\x14\x1e\xc0'
p1517
tp1518
Rp1519
g1429
(g151
S'\xee\x08\xa7\x05/:\xf4?'
p1520
tp1521
Rp1522
tp1523
tp1524
g429
ssS'state_saver'
p1525
(igtamp_utils.utils
CustomStateSaver
p1526
(dp1527
S'robot_base_pose'
p1528
g22
(g23
(I0
tp1529
g25
tp1530
Rp1531
(I1
(I1
I3
tp1532
g151
I00
S'^\\\x01M\xb5h\xfa?\xc5\xfb\n\xa4,\xcb\x17\xc0U\xd1p<\xe9\x83\xfe?'
p1533
tp1534
bsS'held_object'
p1535
NsS'robot_name'
p1536
S'pr2'
p1537
sS'env_id'
p1538
I1
sg1350
(dp1539
Vright_wall_1
p1540
g22
(g23
(I0
tp1541
g25
tp1542
Rp1543
(I1
(I4
tp1544
g151
I00
S'H\xe1z\x14\xaeG\x12@&\\\x8f\xc2\xf5(\xd4\xbf\xcc\x7fH\xbf}\x1d\xed?\x00\x00\x00\x00\x00\x00\x00\x00'
p1545
tp1546
bsVc_obst5
p1547
g22
(g23
(I0
tp1548
g25
tp1549
Rp1550
(I1
(I4
tp1551
g151
I00
S"\xfa\xea\xe8\xb8\x17\xf8\x11@\x06\x16|J{\xbf\xe0?e\xaa`TR'\xed?\xd0Y\x8b\xf7\x9b\xa1\x11@"
p1552
tp1553
bsVentrance_right
p1554
g22
(g23
(I0
tp1555
g25
tp1556
Rp1557
(I1
(I4
tp1558
g151
I00
S'ffffff\n@H\xe1z\x14\xaeG\t\xc0\x9c\xc4 \xb0rh\xc1?\x00\x00\x00\x00\x00\x00\x00\x00'
p1559
tp1560
bsVcomputer_table
p1561
g22
(g23
(I0
tp1562
g25
tp1563
Rp1564
(I1
(I4
tp1565
g151
I00
S'\x00\x00\x00\x00\x00\x00\x13@\x00\x00\x00\x00\x00\x00\xf8\xbf\x96C\x8bl\xe7\xfb\xe7?\xd2!3\x7f|\xd9\x12@'
p1566
tp1567
bsVchair_6b56
p1568
g22
(g23
(I0
tp1569
g25
tp1570
Rp1571
(I1
(I4
tp1572
g151
I00
S'u=\n\xd7\xa3p\xf5?K\xe1z\x14\xaeG\xd1?\x00\x00\x00\x00\x00\x00\x00\x00\xd6$\xfaNBm\n@'
p1573
tp1574
bsVsquare_packing_box3
p1575
g22
(g23
(I0
tp1576
g25
tp1577
Rp1578
(I1
(I4
tp1579
g151
I00
S'\xb0\xd3\xfcU\xb1r\xcb?\xd4"\xf3-\xed\xd6\x1f\xc0L7\x89A`\xe5\xd8?~R\xd3\xcd\xd3\xdb\x14@'
p1580
tp1581
bsVsquare_packing_box2
p1582
g22
(g23
(I0
tp1583
g25
tp1584
Rp1585
(I1
(I4
tp1586
g151
I00
S'\x85\xedyf\xa1\x97\r@\xf4Z\xfe116\x1b\xc0L7\x89A`\xe5\xd8?\xb1\x1f\x07\x82\xee^\x05@'
p1587
tp1588
bsVtable
p1589
g22
(g23
(I0
tp1590
g25
tp1591
Rp1592
(I1
(I4
tp1593
g151
I00
S'\x7f\xf6#EdX\xed?\xac\xffs\x98//\xc0\xbf\x00\x00\x00\x00\x00\x00\x00\x00\x00\x00\x00\x00\x00\x00\x00\x00'
p1594
tp1595
bsVsquare_packing_box1
p1596
g22
(g23
(I0
tp1597
g25
tp1598
Rp1599
(I1
(I4
tp1600
g151
I00
S'b\xbe\xe1\xbb1a\xf5?U\x0c\x9e\xe4u\x06\x1c\xc0L7\x89A`\xe5\xd8?\xe5\xe9\xc2\x83\xf6\xe2\x16@'
p1601
tp1602
bsVback_wall_2
p1603
g22
(g23
(I0
tp1604
g25
tp1605
Rp1606
(I1
(I4
tp1607
g151
I00
S'\xaeG\xe1z\x14.\x13@\x80\x14\xaeG\xe1z\xc4?xX\xa85\xcd\xbb\xf2?\x00\x00\x00\x00\x00\x00\x00\x00'
p1608
tp1609
bsVchair_083c
p1610
g22
(g23
(I0
tp1611
g25
tp1612
Rp1613
(I1
(I4
tp1614
g151
I00
S'\xa4p=\n\xd7\xa3\xe0?333333\xe3\xbf\x00\x00\x00\x00\x00\x00\x00\x00\x00\x00\x00\x00\x00\x00\x00\x00'
p1615
tp1616
bsVback_wall_1
p1617
g22
(g23
(I0
tp1618
g25
tp1619
Rp1620
(I1
(I4
tp1621
g151
I00
S'\xaeG\xe1z\x14.\x13@\x80\x14\xaeG\xe1z\xc4?\xcc\x7fH\xbf}\x1d\xed?\x00\x00\x00\x00\x00\x00\x00\x00'
p1622
tp1623
bsVbottom_wall
p1624
g22
(g23
(I0
tp1625
g25
tp1626
Rp1627
(I1
(I4
tp1628
g151
I00
S'\x00\x00\x00\x00\x00\x00\xfc?\x00\x00\x00\x00\x00\x00\x00\x00\x00\x00\x00\x00\x00\x00\x00\x00\x00\x00\x00\x00\x00\x00\x00\x00'
p1629
tp1630
bsVcup_905a
p1631
g22
(g23
(I0
tp1632
g25
tp1633
Rp1634
(I1
(I4
tp1635
g151
I00
S'\x00\x00\x00\x00\x00\x00\xf0?\x83\xc0\xca\xa1E\xb6\xdb?\x1b/\xdd$\x06\x81\xed?\x00\x00\x00\x00\x00\x00\x00\x00'
p1636
tp1637
bsVplate_496f
p1638
g22
(g23
(I0
tp1639
g25
tp1640
Rp1641
(I1
(I4
tp1642
g151
I00
S"q=\n\xd7\xa3p\xe5?\x9dhW!\xe5'\xdd\xbf\x1b/\xdd$\x06\x81\xed?\x00\x00\x00\x00\x00\x00\x00\x00"
p1643
tp1644
bsVtoaster
p1645
g22
(g23
(I0
tp1646
g25
tp1647
Rp1648
(I1
(I4
tp1649
g151
I00
S')\\\x8f\xc2\xf5(\xf4\xbf\xe0z\x14\xaeG\xe1\xf2\xbf\xb8\x1e\x85\xebQ\xb8\xee?\x89/`\x9b\xf8\x8a\xe4?'
p1650
tp1651
bsVc_obst1
p1652
g22
(g23
(I0
tp1653
g25
tp1654
Rp1655
(I1
(I4
tp1656
g151
I00
S"\x8e\xda\x9b\xbe\x06P\x12@xN$e\\\xe9\xcf?e\xaa`TR'\xed?b\xc1\xc1T!\x06\x01@"
p1657
tp1658
bsVrectangular_packing_box4
p1659
g22
(g23
(I0
tp1660
g25
tp1661
Rp1662
(I1
(I4
tp1663
g151
I00
S'8\x18\x1d=\xdc\xc8\xd5?q\x85E\xf4\xfbh\x1d\xc0L7\x89A`\xe5\xd8?\x92\x97z\xb9/N\x15@'
p1664
tp1665
bsVmicrowave
p1666
g22
(g23
(I0
tp1667
g25
tp1668
Rp1669
(I1
(I4
tp1670
g151
I00
S'\x9a\x99\x99\x99\x99\x99\xf1\xbf\x00\x00\x00\x00\x00\x00\x00@7\x89A`\xe5\xd0\xee?\x00\x00\x00\x00\x00\x00\x00\x00'
p1671
tp1672
bsVc_obst7
p1673
g22
(g23
(I0
tp1674
g25
tp1675
Rp1676
(I1
(I4
tp1677
g151
I00
S"b5dB\xeb4\x12@(D\xcb\xe0\xf2\x07\xc4?e\xaa`TR'\xed?\x17\x85\x04\x8f\xa8\xcf\xdc?"
p1678
tp1679
bsVc_obst6
p1680
g22
(g23
(I0
tp1681
g25
tp1682
Rp1683
(I1
(I4
tp1684
g151
I00
S'\xb9\xd3Xj\xb1\x94\x12@"\xe7Q\xb3\xa2_\xe0?e\xaa`TR\'\xed?\x16\xc0\xaa\xeb\xa2\x83\xf9?'
p1685
tp1686
bsVcup_b6af
p1687
g22
(g23
(I0
tp1688
g25
tp1689
Rp1690
(I1
(I4
tp1691
g151
I00
S'R\xb8\x1e\x85\xebQ\xe8?\x9a\x99\x99\x99\x99\x99\xe1?\x1b/\xdd$\x06\x81\xed?\x00\x00\x00\x00\x00\x00\x00\x00'
p1692
tp1693
bsVc_obst4
p1694
g22
(g23
(I0
tp1695
g25
tp1696
Rp1697
(I1
(I4
tp1698
g151
I00
S"\x06\x96Z_\x06 \x12@\xc0\xb6ij\x95C\xb9\xbfe\xaa`TR'\xed?\x04\xe9]c(\xd4\xef?"
p1699
tp1700
bsVrectangular_packing_box2
p1701
g22
(g23
(I0
tp1702
g25
tp1703
Rp1704
(I1
(I4
tp1705
g151
I00
S'b0#3\xaf\n\n@\x95/\x86L\xef\r\x17\xc0L7\x89A`\xe5\xd8?\x9e\xb5\x06\x84\xe5y\x02@'
p1706
tp1707
bsVplate_fa76
p1708
g22
(g23
(I0
tp1709
g25
tp1710
Rp1711
(I1
(I4
tp1712
g151
I00
S'=\n\xd7\xa3p=\xf2?\x00\x00\x00\x00\x00\x00\x00\x00\x1b/\xdd$\x06\x81\xed?\x00\x00\x00\x00\x00\x00\x00\x00'
p1713
tp1714
bsVfloorwalls
p1715
g22
(g23
(I0
tp1716
g25
tp1717
Rp1718
(I1
(I4
tp1719
g151
I00
S'\xc7\xcc\xcc\xcc\xcc\xcc\xfc?\x00\x00\x00\x00\x00\x00\x18\xc0H\xe1z\x14\xaeG\xc1?\x16-DT\xfb!\xf9?'
p1720
tp1721
bsVpin_c671
p1722
g22
(g23
(I0
tp1723
g25
tp1724
Rp1725
(I1
(I4
tp1726
g151
I00
S'\xc3\xf5(\\\x8f\xc2\xf1\xbf}?5^\xbaI\x02@\xb8\x1e\x85\xebQ\xb8\xfa?\x00\x00\x00\x00\x00\x00\x00\x00'
p1727
tp1728
bsVc_obst3
p1729
g22
(g23
(I0
tp1730
g25
tp1731
Rp1732
(I1
(I4
tp1733
g151
I00
S"\x1e^\xb7v\xa8\xe7\x11@L+N\x855\xd3\xc4?e\xaa`TR'\xed?A%\x16\x13\xd8\xbb\xfc?"
p1734
tp1735
bsVchair_2e39
p1736
g22
(g23
(I0
tp1737
g25
tp1738
Rp1739
(I1
(I4
tp1740
g151
I00
S'hfffff\xee?cfffff\xf2\xbf\x00\x00\x00\x00\x00\x00\x00\x00\x07M\xe8QQF\xf3?'
p1741
tp1742
bsVentrance_left
p1743
g22
(g23
(I0
tp1744
g25
tp1745
Rp1746
(I1
(I4
tp1747
g151
I00
S'\x98\x99\x99\x99\x99\x99\xe9\xbfH\xe1z\x14\xaeG\t\xc0\x9c\xc4 \xb0rh\xc1?\x00\x00\x00\x00\x00\x00\x00\x00'
p1748
tp1749
bsVtop_wall_1
p1750
g22
(g23
(I0
tp1751
g25
tp1752
Rp1753
(I1
(I4
tp1754
g151
I00
S'H\xe1z\x14\xaeG\x12@\x80\x14\xaeG\xe1z\xc4?xX\xa85\xcd\xbb\xf2?\x00\x00\x00\x00\x00\x00\x00\x00'
p1755
tp1756
bsVrectangular_packing_box3
p1757
g22
(g23
(I0
tp1758
g25
tp1759
Rp1760
(I1
(I4
tp1761
g151
I00
S'bP\xcc\xa5dL\x04@mZ\xe5L/\xef\x16\xc0L7\x89A`\xe5\xd8?z\x02\xee\xac\x95c\xa2?'
p1762
tp1763
bsVshaker
p1764
g22
(g23
(I0
tp1765
g25
tp1766
Rp1767
(I1
(I4
tp1768
g151
I00
S'\n\xd7\xa3p=\n\x01@\x14\xaeG\xe1z\x14\x02@\\\x8f\xc2\xf5(\\\xef?\x00\x00\x00\x00\x00\x00\x00\x00'
p1769
tp1770
bsVc_obst9
p1771
g22
(g23
(I0
tp1772
g25
tp1773
Rp1774
(I1
(I4
tp1775
g151
I00
S"\xbb\x04\xc5\xe1)Q\x12@t\xb9c\x92L\xd4\xc7\xbfe\xaa`TR'\xed?\xb3\\\x14\xdb\x1dH\x0b@"
p1776
tp1777
bsVplate_835a
p1778
g22
(g23
(I0
tp1779
g25
tp1780
Rp1781
(I1
(I4
tp1782
g151
I00
S'\xf6(\\\x8f\xc2\xf5\xf0?\\\x8f\xc2\xf5(\\\xe7\xbf\x1b/\xdd$\x06\x81\xed?\x00\x00\x00\x00\x00\x00\x00\x00'
p1783
tp1784
bsVcup_58a2
p1785
g22
(g23
(I0
tp1786
g25
tp1787
Rp1788
(I1
(I4
tp1789
g151
I00
S'\x85\xebQ\xb8\x1e\x85\xe3?\xcd\xcc\xcc\xcc\xcc\xcc\xdc?\x1b/\xdd$\x06\x81\xed?\x00\x00\x00\x00\x00\x00\x00\x00'
p1790
tp1791
bsVleft_wall_1
p1792
g22
(g23
(I0
tp1793
g25
tp1794
Rp1795
(I1
(I4
tp1796
g151
I00
S'H\xe1z\x14\xaeG\x12@S\xb8\x1e\x85\xebQ\xe4?\xcc\x7fH\xbf}\x1d\xed?\x00\x00\x00\x00\x00\x00\x00\x00'
p1797
tp1798
bsVc_obst2
p1799
g22
(g23
(I0
tp1800
g25
tp1801
Rp1802
(I1
(I4
tp1803
g151
I00
S"\xde\xd0\xc2\x05\xaae\x12@\xcc\xc4R1\xa6\xb0\x8c\xbfe\xaa`TR'\xed?\xe82zv\xf5\xf6\x15@"
p1804
tp1805
bsVsquare_packing_box4
p1806
g22
(g23
(I0
tp1807
g25
tp1808
Rp1809
(I1
(I4
tp1810
g151
I00
S'\xf8\xbb\xc1\xbcq\x87\x07@\xca\x877\x88|\x14\x1e\xc0L7\x89A`\xe5\xd8?\xe4a/\xaa.:\xf4?'
p1811
tp1812
bsVrectangular_packing_box1
p1813
g22
(g23
(I0
tp1814
g25
tp1815
Rp1816
(I1
(I4
tp1817
g151
I00
S"\xac\x94/om\x94\xea?\xdaD\x81OB\xac\x19\xc0L7\x89A`\xe5\xd8?\xef\xf5\x90\xbb\xb8'\xf2?"
p1818
tp1819
bsVpin_371e
p1820
g22
(g23
(I0
tp1821
g25
tp1822
Rp1823
(I1
(I4
tp1824
g151
I00
S'333333\xf3\xbfffffff\xf6?\xb8\x1e\x85\xebQ\xb8\xee?\x00\x00\x00\x00\x00\x00\x00\x00'
p1825
tp1826
bsVfridge
p1827
g22
(g23
(I0
tp1828
g25
tp1829
Rp1830
(I1
(I4
tp1831
g151
I00
S'\xd7\xa3p=\n\xd7\xeb\xbf\x00\x00\x00\x00\x00\x00\x00\xc0\xcd\xcc\xcc\xcc\xcc\xcc\xf8?\x00\x00\x00\x00\x00\x00\x00\x00'
p1832
tp1833
bsVcup_d441
p1834
g22
(g23
(I0
tp1835
g25
tp1836
Rp1837
(I1
(I4
tp1838
g151
I00
S'\n\xd7\xa3p=\n\xef?\x8f\xc2\xf5(\\\x8f\xe2?\x1b/\xdd$\x06\x81\xed?\x00\x00\x00\x00\x00\x00\x00\x00'
p1839
tp1840
bsVshelf2
p1841
g22
(g23
(I0
tp1842
g25
tp1843
Rp1844
(I1
(I4
tp1845
g151
I00
S'\x00\x00\x00\x00\x00\x00\x0e@\xaeG\xe1z\x14\xae\x07@\x9c\xc4 \xb0rh\xc1?\xd2!3\x7f|\xd9\x12@'
p1846
tp1847
bsVtop_wall_2
p1848
g22
(g23
(I0
tp1849
g25
tp1850
Rp1851
(I1
(I4
tp1852
g151
I00
S'H\xe1z\x14\xaeG\x12@\x80\x14\xaeG\xe1z\xc4?\x16HP\xfc\x18\xf3\xfd?\x00\x00\x00\x00\x00\x00\x00\x00'
p1853
tp1854
bsVc_obst0
p1855
g22
(g23
(I0
tp1856
g25
tp1857
Rp1858
(I1
(I4
tp1859
g151
I00
S"\r\xb1\xc0\x89R}\x12@fH.\xa4+\x15\xd9?e\xaa`TR'\xed?\x1a\xda\x1c\x9d\xe9>\x08@"
p1860
tp1861
bsVshelf1
p1862
g22
(g23
(I0
tp1863
g25
tp1864
Rp1865
(I1
(I4
tp1866
g151
I00
S'\x00\x00\x00\x00\x00\x00\x13@\xaeG\xe1z\x14\xae\x07@\x9c\xc4 \xb0rh\xc1?\xd2!3\x7f|\xd9\x12@'
p1867
tp1868
bsVsink
p1869
g22
(g23
(I0
tp1870
g25
tp1871
Rp1872
(I1
(I4
tp1873
g151
I00
S'ffffff\xd6?333333\x01@\x9a\x99\x99\x99\x99\x99\xb9\xbf\x00\x00\x00\x00\x00\x00\x00\x00'
p1874
tp1875
bsVpr2
p1876
g22
(g23
(I0
tp1877
g25
tp1878
Rp1879
(I1
(I4
tp1880
g151
I00
S'c\\\x01M\xb5h\xfa?\xca\xfb\n\xa4,\xcb\x17\xc0\x9a_\x94\xa0\xbf\xd0\xc1?U\xd1p<\xe9\x83\xfe?'
p1881
tp1882
bsVchair_12d0
p1883
g22
(g23
(I0
tp1884
g25
tp1885
Rp1886
(I1
(I4
tp1887
g151
I00
S'\\\xd2\x18\xad\xa3\xaa\xdb?Of\x83L2r\xc6?\x00\x00\x00\x00\x00\x00\x00\x00\xf8\x81\r\x14M\xa6\x17@'
p1888
tp1889
bsVright_wall_2
p1890
g22
(g23
(I0
tp1891
g25
tp1892
Rp1893
(I1
(I4
tp1894
g151
I00
S'H\xe1z\x14\xaeG\x12@&\\\x8f\xc2\xf5(\xd4\xbfxX\xa85\xcd\xbb\xf2?\x00\x00\x00\x00\x00\x00\x00\x00'
p1895
tp1896
bsVknife_block
p1897
g22
(g23
(I0
tp1898
g25
tp1899
Rp1900
(I1
(I4
tp1901
g151
I00
S'R\xb8\x1e\x85\xebQ\xe0\xbfffffff\x02@`\xe5\xd0"\xdb\xf9\xee?\x00\x00\x00\x00\x00\x00\x00\x00'
p1902
tp1903
bsVleft_wall_2
p1904
g22
(g23
(I0
tp1905
g25
tp1906
Rp1907
(I1
(I4
tp1908
g151
I00
S'H\xe1z\x14\xaeG\x12@S\xb8\x1e\x85\xebQ\xe4?xX\xa85\xcd\xbb\xf2?\x00\x00\x00\x00\x00\x00\x00\x00'
p1909
tp1910
bsVleft_wall
p1911
g22
(g23
(I0
tp1912
g25
tp1913
Rp1914
(I1
(I4
tp1915
g151
I00
S'\x9a\x99\x99\x99\x99\x99\x07@H\xe1z\x14\xaeG\xff?\x9c\xc4 \xb0rh\xc1?\x00\x00\x00\x00\x00\x00\x00\x00'
p1916
tp1917
bsVkitchen
p1918
g22
(g23
(I0
tp1919
g25
tp1920
Rp1921
(I1
(I4
tp1922
g151
I00
S'\x00\x00\x00\x00\x00\x00\x00\x00\x00\x00\x00\x00\x00\x00\x00\x00\x00\x00\x00\x00\x00\x00\x00\x00\x00\x00\x00\x00\x00\x00\x00\x00'
p1923
tp1924
bsVtable2
p1925
g22
(g23
(I0
tp1926
g25
tp1927
Rp1928
(I1
(I4
tp1929
g151
I00
S'\x00\x00\x00\x00\x00\x00\x13@\x80\x14\xaeG\xe1z\xc4?S\x96!\x8euq\xec?\xd2!3\x7f|\xd9\x12@'
p1930
tp1931
bsVc_obst8
p1932
g22
(g23
(I0
tp1933
g25
tp1934
Rp1935
(I1
(I4
tp1936
g151
I00
S" RQ+H\x16\x12@\xe0yi'\xeb/\xb4?e\xaa`TR'\xed?E\xe0{H0S\xf7?"
p1937
tp1938
bsVplate_b4e7
p1939
g22
(g23
(I0
tp1940
g25
tp1941
Rp1942
(I1
(I4
tp1943
g151
I00
S'\x14\xaeG\xe1z\x14\xf2\xbf\x14\xaeG\xe1z\x14\x00@=\n\xd7\xa3p=\xf2?\x00\x00\x00\x00\x00\x00\x00\x00'
p1944
tp1945
bsVcooker
p1946
g22
(g23
(I0
tp1947
g25
tp1948
Rp1949
(I1
(I4
tp1950
g151
I00
S'\xaeG\xe1z\x14\xae\xff?\x85\xebQ\xb8\x1e\x85\xfb?\x00\x00\x00\x00\x00\x00\xe8?\x00\x00\x00\x00\x00\x00\x00\x00'
p1951
tp1952
bsVpin_a091
p1953
g22
(g23
(I0
tp1954
g25
tp1955
Rp1956
(I1
(I4
tp1957
g151
I00
S'\xdb\xf9~j\xbct\xf7\xbf)\\\x8f\xc2\xf5(\x02@\xb8\x1e\x85\xebQ\xb8\xfa?\x00\x00\x00\x00\x00\x00\x00\x00'
p1958
tp1959
bsVside_wall_2
p1960
g22
(g23
(I0
tp1961
g25
tp1962
Rp1963
(I1
(I4
tp1964
g151
I00
S'\xfa\xff\xff\xff\xff\xff\x14@\x00\x00\x00\x00\x00\x00\x00\x00\x9c\xc4 \xb0rh\xc1?\x18-DT\xfb!\xf9?'
p1965
tp1966
bsVside_wall_3
p1967
g22
(g23
(I0
tp1968
g25
tp1969
Rp1970
(I1
(I4
tp1971
g151
I00
S'\x00\x00\x00\x00\x00\x00\xfc?H\xe1z\x14\xaeG\t@\x9c\xc4 \xb0rh\xc1?\x00\x00\x00\x00\x00\x00\x00\x00'
p1972
tp1973
bsVmixer
p1974
g22
(g23
(I0
tp1975
g25
tp1976
Rp1977
(I1
(I4
tp1978
g151
I00
S'\n\xd7\xa3p=\n\xfb?ffffff\x02@d;\xdfO\x8d\x97\xee?\x00\x00\x00\x00\x00\x00\x00\x00'
p1979
tp1980
bsVside_wall_1
p1981
g22
(g23
(I0
tp1982
g25
tp1983
Rp1984
(I1
(I4
tp1985
g151
I00
S'\xf4\xff\xff\xff\xff\xff\xfb\xbf\x00\x00\x00\x00\x00\x00\x00\x00\x9c\xc4 \xb0rh\xc1?\x18-DT\xfb!\xf9?'
p1986
tp1987
bsVbottom_wall_1
p1988
g22
(g23
(I0
tp1989
g25
tp1990
Rp1991
(I1
(I4
tp1992
g151
I00
S'H\xe1z\x14\xaeG\x12@\x80\x14\xaeG\xe1z\xc4?\xcc\x7fH\xbf}\x1d\xed?\x00\x00\x00\x00\x00\x00\x00\x00'
p1993
tp1994
bsVcan
p1995
g22
(g23
(I0
tp1996
g25
tp1997
Rp1998
(I1
(I4
tp1999
g151
I00
S'\x00\x00\x00\x00\x00\x00\xf4\xbfH\xe1z\x14\xaeG\xe1\xbf\n\xd7\xa3p=\n\xef?\x00\x00\x00\x00\x00\x00\x00\x00'
p2000
tp2001
bsVright_wall
p2002
g22
(g23
(I0
tp2003
g25
tp2004
Rp2005
(I1
(I4
tp2006
g151
I00
S'\x9a\x99\x99\x99\x99\x99\x07@H\xe1z\x14\xaeG\xff\xbf\x9c\xc4 \xb0rh\xc1?\x00\x00\x00\x00\x00\x00\x00\x00'
p2007
tp2008
bsVcoffe_machine
p2009
g22
(g23
(I0
tp2010
g25
tp2011
Rp2012
(I1
(I4
tp2013
g151
I00
S'\\\x8f\xc2\xf5(\\\xf5\xbf\xb8\x1e\x85\xebQ\xb8\xee?\n\xd7\xa3p=\n\xef?\x00\x00\x00\x00\x00\x00\x00\x00'
p2014
tp2015
bsVcomputer_chair
p2016
g22
(g23
(I0
tp2017
g25
tp2018
Rp2019
(I1
(I4
tp2020
g151
I00
S'\xcd\xcc\xcc\xcc\xcc\xcc\x10@\x00\x00\x00\x00\x00\x00\xf8\xbf\xa00\xb6\x10\xe4\xa9\x95\xbf\x00\x00\x00\x00\x00\x00\x00\x00'
p2021
tp2022
bssS'robot_dof_values'
p2023
g22
(g23
(I0
tp2024
g25
tp2025
Rp2026
(I1
(I39
tp2027
g151
I00
S'\x00\x00\x00\x00\x00\x00\x00\x00\x00\x00\x00\x00\x00\x00\x00\x00\x00\x00\x00\x00\x00\x00\x00\x00\x00\x00\x00\x00\x00\x00\x00\x00\x00\x00\x00\x00\x00\x00\x00\x00\x00\x00\x00\x00\x00\x00\x00\x00\x00\x00\x00\x00\x00\x00\x00\x00\x00\x00\x00\x00\x00\x00\x00\x00\x00\x00\x00\x00\x00\x00\x00\x00\x00\x00\x00\x00\x00\x00\x00\x00\x00\x00\x00\x00\x00\x00\x00\x00\x00\x00\x00\x00\x00\x00\x00\x00@d;\xdfO\x8d\x87?\x00\x00\x00\x00\x00\x00\x00\x00\x00\x00\x00\x00\x00\x00\x00\x00\x00\x00\x00\x00\x00\x00\x00\x00\xeb\xed\t\xf1\xcc\xa4\xf4?\x00\x00\x00\x00\x00\x00\xb0<N"\xd0^p\xf8\x00\xc0TT\xaf\x99\x8a\xcc\xb3<\x99\x03\r.\x04V\xe6\xbf\xde\'\xe8|\xee\xec\xa8<\x00\x00\x00\x00\x00\x00\x00\x00\x00\x00\x00\x00\x00\x00\xcb\xbc\x00\x00\x00\x00\x00\x00\x00\x00\x00\x00\x00\x00\x00\x00\xf3\xbc\x00\x00\x00\x00\x00\x00\x00\x00\x00\x00\x00\x00\x00\x00\x00\x00\xeb\xed\t\xf1\xcc\xa4\xf4?\x00\x00\x00\x00\x00\x00\xc0\xbcM"\xd0^p\xf8\x00\xc0RT\xaf\x99\x8a\xcc\xa3\xbc\x9a\x03\r.\x04V\xe6\xbf\x00\x00\x00\x00\x00\x00\x00\x00\xcc9\xe3\xc17\x89\xe1?\x00\x00\x00\x00\x00\x80\xd7\xbc\x00\x00\x00\x00\x00\x00\x00\x00\x00\x00\x00\x00\x00\x00\xd7\xbc\x00\x00\x00\x00\x00\x00\x00\x00'
p2028
tp2029
bsS'is_holding'
p2030
I00
sbsS'holding_collides'
p2031
NsS'parent_ternary_predicates'
p2032
(dp2033
sS'cached_place_paths'
p2034
(dp2035
(g392
g854
tp2036
(lp2037
g22
(g23
(I0
tp2038
g25
tp2039
Rp2040
(I1
(I3
tp2041
g151
I00
S'\x00\x8d\x81\x06\xae\xff\xf7?\xaa\x81\xacm\xbex\x1a\xc0(\xfd\xd3\xb2\xb8$\x04@'
p2042
tp2043
bas(g394
g142
tp2044
g199
s(g389
g142
tp2045
g144
s(g675
g854
tp2046
(lp2047
g22
(g23
(I0
tp2048
g25
tp2049
Rp2050
(I1
(I3
tp2051
g151
I00
S'\t\xcb\xb4\x9d09\xee?\x9e\x14\x9c\x8f\x7f\x0c\x1f\xc0P\x83r\x13\xdbX\x08@'
p2052
tp2053
bas(g389
g854
tp2054
(lp2055
g22
(g23
(I0
tp2056
g25
tp2057
Rp2058
(I1
(I3
tp2059
g151
I00
S'L\xda!\x06|\xe0\xea?\x03\r\\ :k\x1b\xc0x\xbb;\x13\x85\xa3\x0c@'
p2060
tp2061
bas(g675
g142
tp2062
g313
s(g393
g854
tp2063
(lp2064
g22
(g23
(I0
tp2065
g25
tp2066
Rp2067
(I1
(I3
tp2068
g151
I00
S'\x0b\xb2#/\x98\xfb\x07@\xcap7KtR\x1a\xc0\xdc\x86\xae\x0b\xa8\x06\x16@'
p2069
tp2070
bas(g393
g142
tp2071
(lp2072
g22
(g23
(I0
tp2073
g25
tp2074
Rp2075
(I1
(I3
tp2076
g151
I00
S'\x12\xb2#/\x98\xfb\x07@\xcdp7KtR\x1a\xc0\xdc\x86\xae\x0b\xa8\x06\x16@'
p2077
tp2078
bag22
(g23
(I0
tp2079
g25
tp2080
Rp2081
(I1
(I3
tp2082
g162
I00
S'\tf\xd5\xc3\xdb\xc1\x02@y9\xac\xaa\x85r\x1a\xc0n\x19\xc0\xf8c\xa8\xe2\xbf'
p2083
tp2084
bag22
(g23
(I0
tp2085
g25
tp2086
Rp2087
(I1
(I3
tp2088
g162
I00
S'\xb1\x91\x83\xd6J:\x00@X\xbf\x9b\xa3\xf7;\x19\xc0\xb4\xa9\x94\xff\xff\xd1\xec?'
p2089
tp2090
bag22
(g23
(I0
tp2091
g25
tp2092
Rp2093
(I1
(I3
tp2094
g162
I00
S'\x0e]\xf2K\xc6E\xf7?\x06\x8c\xb9Ybt\x17\xc0%\xac6\x86\x93\xa8\xdd?'
p2095
tp2096
bag22
(g23
(I0
tp2097
g25
tp2098
Rp2099
(I1
(I3
tp2100
g162
I00
S'\xe4\x9e\xb7\xac\xe0!\xeb?\x8a\x83\x10\xb1\xa2\xad\x15\xc0\x9aS\xfbY\xaf\x8f\xd2\xbf'
p2101
tp2102
bag22
(g23
(I0
tp2103
g25
tp2104
Rp2105
(I1
(I3
tp2106
g162
I00
S'\xcc\x87!\x1f\xfb\x05\xe6?\x14;\x08\xf1<\xc6\x13\xc0V!\xac1j\x94\xc8?'
p2107
tp2108
bag22
(g23
(I0
tp2109
g25
tp2110
Rp2111
(I1
(I3
tp2112
g162
I00
S'`\xc8Aw-\x81\xeb?/\xc3\xe6O\x04\xca\x10\xc0\x8a\xb7K)\x91{\xe4\xbf'
p2113
tp2114
bag22
(g23
(I0
tp2115
g25
tp2116
Rp2117
(I1
(I3
tp2118
g162
I00
S'\xe1\xc6\xc7\xa7\x12X\xe7?\x98\x99\xb0\x9a\xfb\xdb\x0b\xc0R\t\x1b)\xeae\xe0\xbf'
p2119
tp2120
bag22
(g23
(I0
tp2121
g25
tp2122
Rp2123
(I1
(I3
tp2124
g162
I00
S'p\xf1\xbdc^\x84\xf1?"\x88LL\xf9D\x06\xc0~w\r\xe9m\x0f\x19@'
p2125
tp2126
bas(g12
g142
tp2127
(lp2128
g22
(g23
(I0
tp2129
g25
tp2130
Rp2131
(I1
(I3
tp2132
g151
I00
S'J\x9a\xde\xa7\xc5m\xf9?P\x99\xa0\x1d\x97B\x19\xc0\x18b\x83\x83^\xf1\x10@'
p2133
tp2134
bag22
(g23
(I0
tp2135
g25
tp2136
Rp2137
(I1
(I3
tp2138
g162
I00
S'2Z\xe1\xe97J\xf6?\\\x1e`@2v\x16\xc0\xc4\x0c\xcc\x14<\xf9\xf6\xbf'
p2139
tp2140
bag22
(g23
(I0
tp2141
g25
tp2142
Rp2143
(I1
(I3
tp2144
g162
I00
S'tx\x8as\xa8b\xed?\x9ej\x15\xfa\xf0{\x15\xc0@\xed\x9a-\x9eD\xf2\xbf'
p2145
tp2146
bag22
(g23
(I0
tp2147
g25
tp2148
Rp2149
(I1
(I3
tp2150
g162
I00
S"\xb2&6mg)\xe8?\x99\xe0G'\x16\xe0\x13\xc0\xc8oL\xf5\x17p\xe6\xbf"
p2151
tp2152
bag22
(g23
(I0
tp2153
g25
tp2154
Rp2155
(I1
(I3
tp2156
g162
I00
S'`\xc8Aw-\x81\xeb?/\xc3\xe6O\x04\xca\x10\xc0\x8a\xb7K)\x91{\xe4\xbf'
p2157
tp2158
bag22
(g23
(I0
tp2159
g25
tp2160
Rp2161
(I1
(I3
tp2162
g162
I00
S'\xe1\xc6\xc7\xa7\x12X\xe7?\x98\x99\xb0\x9a\xfb\xdb\x0b\xc0R\t\x1b)\xeae\xe0\xbf'
p2163
tp2164
bag22
(g23
(I0
tp2165
g25
tp2166
Rp2167
(I1
(I3
tp2168
g162
I00
S'p\xf1\xbdc^\x84\xf1?"\x88LL\xf9D\x06\xc0~w\r\xe9m\x0f\x19@'
p2169
tp2170
bas(g391
g142
tp2171
(lp2172
g22
(g23
(I0
tp2173
g25
tp2174
Rp2175
(I1
(I3
tp2176
g151
I00
S'\xb8\xeb\xf9_\xba\xc4\xfb?\xd0\x0c\xdf\xdb\x8aK\x16\xc0G%;;\x06t\x18@'
p2177
tp2178
bag22
(g23
(I0
tp2179
g25
tp2180
Rp2181
(I1
(I3
tp2182
g162
I00
S'v%D\x97w\xd1\xf7?Z\xadP\x90\x08<\x17\xc0-\xca\x8a\t\xe2p\xe7\xbf'
p2183
tp2184
bag22
(g23
(I0
tp2185
g25
tp2186
Rp2187
(I1
(I3
tp2188
g162
I00
S'tx\x8as\xa8b\xed?\x9ej\x15\xfa\xf0{\x15\xc0@\xed\x9a-\x9eD\xf2\xbf'
p2189
tp2190
bag22
(g23
(I0
tp2191
g25
tp2192
Rp2193
(I1
(I3
tp2194
g162
I00
S"\xb2&6mg)\xe8?\x99\xe0G'\x16\xe0\x13\xc0\xc8oL\xf5\x17p\xe6\xbf"
p2195
tp2196
bag22
(g23
(I0
tp2197
g25
tp2198
Rp2199
(I1
(I3
tp2200
g162
I00
S'`\xc8Aw-\x81\xeb?/\xc3\xe6O\x04\xca\x10\xc0\x8a\xb7K)\x91{\xe4\xbf'
p2201
tp2202
bag22
(g23
(I0
tp2203
g25
tp2204
Rp2205
(I1
(I3
tp2206
g162
I00
S'\xe1\xc6\xc7\xa7\x12X\xe7?\x98\x99\xb0\x9a\xfb\xdb\x0b\xc0R\t\x1b)\xeae\xe0\xbf'
p2207
tp2208
bag22
(g23
(I0
tp2209
g25
tp2210
Rp2211
(I1
(I3
tp2212
g162
I00
S'p\xf1\xbdc^\x84\xf1?"\x88LL\xf9D\x06\xc0~w\r\xe9m\x0f\x19@'
p2213
tp2214
bas(g391
g854
tp2215
(lp2216
g22
(g23
(I0
tp2217
g25
tp2218
Rp2219
(I1
(I3
tp2220
g151
I00
S'\xc2\xeb\xf9_\xba\xc4\xfb?\xd0\x0c\xdf\xdb\x8aK\x16\xc0H%;;\x06t\x18@'
p2221
tp2222
bas(g394
g854
tp2223
(lp2224
g22
(g23
(I0
tp2225
g25
tp2226
Rp2227
(I1
(I3
tp2228
g151
I00
S'No#`\xabW\t@4B\xadk?\x1c\x1b\xc0\x00\x9eUFd\xaf\x12@'
p2229
tp2230
bas(g12
g854
tp2231
(lp2232
g22
(g23
(I0
tp2233
g25
tp2234
Rp2235
(I1
(I3
tp2236
g151
I00
S'V\x9a\xde\xa7\xc5m\xf9?T\x99\xa0\x1d\x97B\x19\xc0\x18b\x83\x83^\xf1\x10@'
p2237
tp2238
bas(g390
g854
tp2239
(lp2240
g22
(g23
(I0
tp2241
g25
tp2242
Rp2243
(I1
(I3
tp2244
g151
I00
S'\x9e\xa3M4xP\x07@\x1e\x10X\x06Q\x8a\x19\xc0\x08\xaf\xc4\x87\xfb\x11\xf1?'
p2245
tp2246
bas(g390
g142
tp2247
(lp2248
g22
(g23
(I0
tp2249
g25
tp2250
Rp2251
(I1
(I3
tp2252
g151
I00
S'\xa0\xa3M4xP\x07@\x1f\x10X\x06Q\x8a\x19\xc0\t\xaf\xc4\x87\xfb\x11\xf1?'
p2253
tp2254
bag22
(g23
(I0
tp2255
g25
tp2256
Rp2257
(I1
(I3
tp2258
g162
I00
S'\xc3#\x9b"m=\x05@O\x1c\xaf\xffo\x1c\x1b\xc0\xa4\xc19\xdd\xaa\xea\xdd?'
p2259
tp2260
bag22
(g23
(I0
tp2261
g25
tp2262
Rp2263
(I1
(I3
tp2264
g162
I00
S'\xb1\x91\x83\xd6J:\x00@X\xbf\x9b\xa3\xf7;\x19\xc0\xb4\xa9\x94\xff\xff\xd1\xec?'
p2265
tp2266
bag22
(g23
(I0
tp2267
g25
tp2268
Rp2269
(I1
(I3
tp2270
g162
I00
S'\x0e]\xf2K\xc6E\xf7?\x06\x8c\xb9Ybt\x17\xc0%\xac6\x86\x93\xa8\xdd?'
p2271
tp2272
bag22
(g23
(I0
tp2273
g25
tp2274
Rp2275
(I1
(I3
tp2276
g162
I00
S'\xe4\x9e\xb7\xac\xe0!\xeb?\x8a\x83\x10\xb1\xa2\xad\x15\xc0\x9aS\xfbY\xaf\x8f\xd2\xbf'
p2277
tp2278
bag22
(g23
(I0
tp2279
g25
tp2280
Rp2281
(I1
(I3
tp2282
g162
I00
S'\xcc\x87!\x1f\xfb\x05\xe6?\x14;\x08\xf1<\xc6\x13\xc0V!\xac1j\x94\xc8?'
p2283
tp2284
bag22
(g23
(I0
tp2285
g25
tp2286
Rp2287
(I1
(I3
tp2288
g162
I00
S'`\xc8Aw-\x81\xeb?/\xc3\xe6O\x04\xca\x10\xc0\x8a\xb7K)\x91{\xe4\xbf'
p2289
tp2290
bag22
(g23
(I0
tp2291
g25
tp2292
Rp2293
(I1
(I3
tp2294
g162
I00
S'\xe1\xc6\xc7\xa7\x12X\xe7?\x98\x99\xb0\x9a\xfb\xdb\x0b\xc0R\t\x1b)\xeae\xe0\xbf'
p2295
tp2296
bag22
(g23
(I0
tp2297
g25
tp2298
Rp2299
(I1
(I3
tp2300
g162
I00
S'p\xf1\xbdc^\x84\xf1?"\x88LL\xf9D\x06\xc0~w\r\xe9m\x0f\x19@'
p2301
tp2302
bas(g392
g142
tp2303
g262
ssS'parent_binary_predicates'
p2304
(dp2305
sS'nodes'
p2306
(dp2307
g857
(lp2308
I0
aI0
aI0
aI0
aI0
aI0
aI00
aI01
aI00
aI01
aI00
asg854
(lp2309
I0
aI0
aI0
aI0
aI0
aI0
aI00
aI01
aI00
aI01
aI00
asg142
(lp2310
I0
aI0
aI0
aI0
aI0
aI0
aI00
aI01
aI01
aI01
aI00
asg141
(lp2311
I0
aI0
aI0
ag1429
(g151
S'\xb8\x16\x1d=\xdc\xc8\xd5?'
p2312
tp2313
Rp2314
ag1429
(g151
S'n\x85E\xf4\xfbh\x1d\xc0'
p2315
tp2316
Rp2317
ag1429
(g151
S'\x90\x97z\xb9/N\x15@'
p2318
tp2319
Rp2320
aI01
aI00
aI00
aI01
aI00
asg816
(lp2321
I0
aI0
aI0
ag1429
(g151
S'h.#3\xaf\n\n@'
p2322
tp2323
Rp2324
ag1429
(g151
S'^,\x86L\xef\r\x17\xc0'
p2325
tp2326
Rp2327
ag1429
(g151
S'\x9e\xb5\x06\x84\xe5y\x02@'
p2328
tp2329
Rp2330
aI01
aI00
aI00
aI01
aI00
asg838
(lp2331
I0
aI0
aI0
ag1429
(g151
S'\xf5P\xcc\xa5dL\x04@'
p2332
tp2333
Rp2334
ag1429
(g151
S'fZ\xe5L/\xef\x16\xc0'
p2335
tp2336
Rp2337
ag1429
(g151
S'z\x02\xee\xac\x95c\xa2?'
p2338
tp2339
Rp2340
aI01
aI00
aI00
aI01
aI00
asg260
(lp2341
I0
aI0
aI0
ag1429
(g151
S'\x98\x94/om\x94\xea?'
p2342
tp2343
Rp2344
ag1429
(g151
S'\xdeD\x81OB\xac\x19\xc0'
p2345
tp2346
Rp2347
ag1429
(g151
S"\xef\xf5\x90\xbb\xb8'\xf2?"
p2348
tp2349
Rp2350
aI01
aI00
aI00
aI01
aI00
asg819
(lp2351
I0
aI0
aI0
ag1429
(g151
S'H\xedyf\xa1\x97\r@'
p2352
tp2353
Rp2354
ag1429
(g151
S'\xccZ\xfe116\x1b\xc0'
p2355
tp2356
Rp2357
ag1429
(g151
S'\xb2\x1f\x07\x82\xee^\x05@'
p2358
tp2359
Rp2360
aI01
aI00
aI00
aI01
aI00
asg311
(lp2361
I0
aI0
aI0
ag1429
(g151
S'\xc8\xcc\xfcU\xb1r\xcb?'
p2362
tp2363
Rp2364
ag1429
(g151
S'V"\xf3-\xed\xd6\x1f\xc0'
p2365
tp2366
Rp2367
ag1429
(g151
S'}R\xd3\xcd\xd3\xdb\x14@'
p2368
tp2369
Rp2370
aI01
aI00
aI00
aI00
aI00
asg821
(lp2371
I0
aI0
aI0
ag1429
(g151
S'x\xbd\xe1\xbb1a\xf5?'
p2372
tp2373
Rp2374
ag1429
(g151
S'T\x0c\x9e\xe4u\x06\x1c\xc0'
p2375
tp2376
Rp2377
ag1429
(g151
S'\xe5\xe9\xc2\x83\xf6\xe2\x16@'
p2378
tp2379
Rp2380
aI01
aI00
aI01
aI01
aI00
asg197
(lp2381
I0
aI0
aI0
ag1429
(g151
S'B\xbb\xc1\xbcq\x87\x07@'
p2382
tp2383
Rp2384
ag1429
(g151
S'K\x877\x88|\x14\x1e\xc0'
p2385
tp2386
Rp2387
ag1429
(g151
S'\xdfa/\xaa.:\xf4?'
p2388
tp2389
Rp2390
aI01
aI00
aI00
aI01
aI00
assS'mc_place_path'
p2391
(dp2392
sS'parent_state'
p2393
NsS'goal_entities'
p2394
(lp2395
S'square_packing_box1'
p2396
ag142
asS'binary_edges'
p2397
(dp2398
(g819
g197
tp2399
(lp2400
I00
aI00
aI00
as(g819
g141
tp2401
(lp2402
I00
aI00
aI00
as(g838
g311
tp2403
(lp2404
I00
aI00
aI00
as(g838
g838
tp2405
(lp2406
I00
aI00
aI00
as(g816
g311
tp2407
(lp2408
I00
aI00
aI00
as(g816
g838
tp2409
(lp2410
I00
aI00
aI00
as(g197
g816
tp2411
(lp2412
I00
aI00
aI00
as(g819
g821
tp2413
(lp2414
I00
aI00
aI00
as(g260
g838
tp2415
(lp2416
I00
aI00
aI00
as(g141
g141
tp2417
(lp2418
I00
aI00
aI00
as(g816
g854
tp2419
(lp2420
g1429
(g29
(S'b1'
p2421
I0
I1
tp2422
Rp2423
(I3
S'|'
p2424
NNNI-1
I-1
I0
tp2425
bS'\x01'
p2426
tp2427
Rp2428
aI00
aI01
as(g857
g854
tp2429
(lp2430
I00
aI00
aI00
as(g141
g197
tp2431
(lp2432
I00
aI00
aI00
as(g854
g197
tp2433
(lp2434
I00
aI00
aI00
as(g821
g142
tp2435
(lp2436
I00
aI00
aI01
as(g857
g816
tp2437
(lp2438
I00
aI00
aI00
as(g816
g197
tp2439
(lp2440
I00
aI00
aI00
as(g838
g857
tp2441
(lp2442
g2428
aI00
aI00
as(g819
g819
tp2443
(lp2444
I00
aI00
aI00
as(g854
g819
tp2445
(lp2446
I00
aI00
aI00
as(g311
g816
tp2447
(lp2448
I00
aI00
aI00
as(g816
g142
tp2449
(lp2450
I00
aI00
aI01
as(g260
g311
tp2451
(lp2452
I00
aI01
aI00
as(g141
g260
tp2453
(lp2454
I00
aI00
aI00
as(g821
g821
tp2455
(lp2456
I00
aI00
aI00
as(g816
g857
tp2457
(lp2458
g2428
aI00
aI00
as(g854
g816
tp2459
(lp2460
I00
aI00
aI00
as(g854
g311
tp2461
(lp2462
I00
aI00
aI00
as(g854
g838
tp2463
(lp2464
I00
aI00
aI00
as(g311
g142
tp2465
(lp2466
I00
aI00
aI00
as(g197
g141
tp2467
(lp2468
I00
aI00
aI00
as(g260
g141
tp2469
(lp2470
I00
aI00
aI00
as(g311
g260
tp2471
(lp2472
I00
aI00
aI00
as(g854
g141
tp2473
(lp2474
I00
aI00
aI00
as(g857
g142
tp2475
(lp2476
I00
aI00
aI00
as(g821
g816
tp2477
(lp2478
I00
aI00
aI00
as(g141
g311
tp2479
(lp2480
I00
aI01
aI00
as(g857
g311
tp2481
(lp2482
I00
aI00
aI00
as(g311
g857
tp2483
(lp2484
g2428
aI00
aI00
as(g838
g819
tp2485
(lp2486
I00
aI00
aI00
as(g197
g821
tp2487
(lp2488
I00
aI00
aI00
as(g838
g816
tp2489
(lp2490
I00
aI00
aI00
as(g197
g142
tp2491
(lp2492
I00
aI00
aI00
as(g857
g857
tp2493
(lp2494
I00
aI00
aI00
as(g311
g141
tp2495
(lp2496
I00
aI00
aI00
as(g821
g819
tp2497
(lp2498
I00
aI00
aI00
as(g142
g821
tp2499
(lp2500
I00
aI00
aI00
as(g260
g854
tp2501
(lp2502
g2428
aI00
aI01
as(g142
g260
tp2503
(lp2504
I00
aI00
aI00
as(g197
g838
tp2505
(lp2506
I00
aI00
aI00
as(g838
g821
tp2507
(lp2508
I00
aI00
aI00
as(g311
g854
tp2509
(lp2510
g2428
aI00
aI01
as(g838
g260
tp2511
(lp2512
I00
aI00
aI00
as(g311
g311
tp2513
(lp2514
I00
aI00
aI00
as(g260
g816
tp2515
(lp2516
I00
aI00
aI00
as(g854
g142
tp2517
(lp2518
I00
aI00
aI00
as(g142
g819
tp2519
(lp2520
I00
aI00
aI00
as(g141
g142
tp2521
(lp2522
I00
aI00
aI00
as(g857
g260
tp2523
(lp2524
I00
aI00
aI00
as(g142
g197
tp2525
(lp2526
I00
aI00
aI00
as(g838
g197
tp2527
(lp2528
I00
aI00
aI00
as(g260
g857
tp2529
(lp2530
g2428
aI00
aI00
as(g197
g854
tp2531
(lp2532
g2428
aI00
aI01
as(g260
g819
tp2533
(lp2534
I00
aI00
aI00
as(g141
g816
tp2535
(lp2536
I00
aI00
aI00
as(g141
g854
tp2537
(lp2538
g2428
aI00
aI01
as(g142
g838
tp2539
(lp2540
I00
aI00
aI00
as(g857
g197
tp2541
(lp2542
I00
aI00
aI00
as(g857
g141
tp2543
(lp2544
I00
aI00
aI00
as(g260
g142
tp2545
(lp2546
I00
aI00
aI00
as(g819
g260
tp2547
(lp2548
I00
aI00
aI00
as(g821
g260
tp2549
(lp2550
I00
aI00
aI00
as(g142
g311
tp2551
(lp2552
I00
aI00
aI00
as(g854
g854
tp2553
(lp2554
I00
aI00
aI00
as(g819
g838
tp2555
(lp2556
I00
aI00
aI00
as(g821
g311
tp2557
(lp2558
I00
aI01
aI00
as(g854
g821
tp2559
(lp2560
I00
aI00
aI00
as(g816
g141
tp2561
(lp2562
I00
aI00
aI00
as(g854
g260
tp2563
(lp2564
I00
aI00
aI00
as(g821
g857
tp2565
(lp2566
g2428
aI00
aI00
as(g819
g816
tp2567
(lp2568
I00
aI00
aI00
as(g838
g142
tp2569
(lp2570
I00
aI00
aI01
as(g821
g141
tp2571
(lp2572
I00
aI00
aI00
as(g141
g821
tp2573
(lp2574
I00
aI00
aI00
as(g816
g821
tp2575
(lp2576
I00
aI00
aI00
as(g857
g819
tp2577
(lp2578
I00
aI00
aI00
as(g816
g260
tp2579
(lp2580
I00
aI00
aI00
as(g311
g819
tp2581
(lp2582
I00
aI00
aI00
as(g819
g854
tp2583
(lp2584
g2428
aI00
aI01
as(g260
g260
tp2585
(lp2586
I00
aI00
aI00
as(g197
g819
tp2587
(lp2588
I00
aI00
aI00
as(g821
g197
tp2589
(lp2590
I00
aI00
aI00
as(g816
g819
tp2591
(lp2592
I00
aI00
aI00
as(g816
g816
tp2593
(lp2594
I00
aI00
aI00
as(g197
g260
tp2595
(lp2596
I00
aI00
aI00
as(g819
g142
tp2597
(lp2598
I00
aI00
aI01
as(g311
g821
tp2599
(lp2600
I00
aI00
aI00
as(g838
g854
tp2601
(lp2602
g2428
aI00
aI01
as(g142
g816
tp2603
(lp2604
I00
aI00
aI00
as(g260
g821
tp2605
(lp2606
I00
aI00
aI00
as(g141
g838
tp2607
(lp2608
I00
aI00
aI00
as(g142
g854
tp2609
(lp2610
I00
aI00
aI00
as(g819
g311
tp2611
(lp2612
I00
aI00
aI00
as(g857
g838
tp2613
(lp2614
I00
aI00
aI00
as(g819
g857
tp2615
(lp2616
g2428
aI00
aI00
as(g311
g838
tp2617
(lp2618
I00
aI00
aI00
as(g142
g142
tp2619
(lp2620
I00
aI00
aI00
as(g260
g197
tp2621
(lp2622
I00
aI00
aI00
as(g141
g857
tp2623
(lp2624
g2428
aI00
aI00
as(g197
g857
tp2625
(lp2626
g2428
aI00
aI00
as(g142
g857
tp2627
(lp2628
I00
aI00
aI00
as(g142
g141
tp2629
(lp2630
I00
aI00
aI00
as(g311
g197
tp2631
(lp2632
I00
aI00
aI00
as(g197
g311
tp2633
(lp2634
I00
aI00
aI00
as(g838
g141
tp2635
(lp2636
I00
aI00
aI00
as(g854
g857
tp2637
(lp2638
I00
aI00
aI00
as(g821
g838
tp2639
(lp2640
I00
aI00
aI00
as(g141
g819
tp2641
(lp2642
I00
aI00
aI00
as(g197
g197
tp2643
(lp2644
I00
aI00
aI00
as(g821
g854
tp2645
(lp2646
g2428
aI00
aI01
as(g857
g821
tp2647
(lp2648
I00
aI00
aI00
assg387
g388
sS'pick_in_way'
p2649
(itrajectory_representation.predicates.pick_in_way
PickInWay
p2650
(dp2651
g139
(dp2652
g141
g460
sg816
g521
sg838
g564
sg260
g607
sg819
g656
sg311
g700
sg821
g730
sg197
g773
ssg368
(dp2653
g141
(lp2654
sg816
(lp2655
sg838
(lp2656
sg260
(lp2657
sg819
(lp2658
sg311
(lp2659
Vrectangular_packing_box1
p2660
aVsquare_packing_box1
p2661
aVrectangular_packing_box4
p2662
asg821
(lp2663
sg197
(lp2664
ssg387
(lp2665
g260
ag819
ag816
ag838
ag197
ag141
ag857
ag142
ag854
ag821
ag857
ag142
ag854
ag857
ag142
ag854
ag857
ag142
ag854
ag857
ag142
ag854
ag857
ag142
ag854
ag857
ag142
ag854
ag857
ag142
ag854
asg395
g396
sg78
(dp2666
sg430
g431
sg806
Nsg812
g431
sg809
(dp2667
sg811
I8
sg849
I01
sg813
Nsg814
(dp2668
(g819
g197
tp2669
I00
s(g819
g141
tp2670
I00
s(g838
g311
tp2671
I00
s(g838
g838
tp2672
I00
s(g816
g311
tp2673
I00
s(g816
g838
tp2674
I00
s(g197
g816
tp2675
I00
s(g819
g821
tp2676
I00
s(g260
g838
tp2677
I00
s(g141
g141
tp2678
I00
s(g816
g854
tp2679
I00
s(g857
g854
tp2680
I00
s(g141
g197
tp2681
I00
s(g854
g197
tp2682
I00
s(g821
g142
tp2683
I00
s(g857
g816
tp2684
I00
s(g816
g197
tp2685
I00
s(g838
g857
tp2686
I00
s(g819
g819
tp2687
I00
s(g854
g819
tp2688
I00
s(g311
g816
tp2689
I00
s(g816
g142
tp2690
I00
s(g260
g311
tp2691
I01
s(g141
g260
tp2692
I00
s(g821
g821
tp2693
I00
s(g816
g857
tp2694
I00
s(g854
g816
tp2695
I00
s(g854
g311
tp2696
I00
s(g854
g838
tp2697
I00
s(g311
g142
tp2698
I00
s(g197
g141
tp2699
I00
s(g260
g141
tp2700
I00
s(g311
g260
tp2701
I00
s(g854
g141
tp2702
I00
s(g857
g142
tp2703
I00
s(g821
g816
tp2704
I00
s(g141
g311
tp2705
I01
s(g857
g311
tp2706
I00
s(g311
g857
tp2707
I00
s(g838
g819
tp2708
I00
s(g197
g821
tp2709
I00
s(g838
g816
tp2710
I00
s(g197
g142
tp2711
I00
s(g857
g857
tp2712
I00
s(g311
g141
tp2713
I00
s(g821
g819
tp2714
I00
s(g142
g821
tp2715
I00
s(g260
g854
tp2716
I00
s(g142
g260
tp2717
I00
s(g197
g838
tp2718
I00
s(g838
g821
tp2719
I00
s(g311
g854
tp2720
I00
s(g838
g260
tp2721
I00
s(g311
g311
tp2722
I00
s(g260
g816
tp2723
I00
s(g854
g142
tp2724
I00
s(g142
g819
tp2725
I00
s(g141
g142
tp2726
I00
s(g857
g260
tp2727
I00
s(g142
g197
tp2728
I00
s(g838
g197
tp2729
I00
s(g260
g857
tp2730
I00
s(g197
g854
tp2731
I00
s(g260
g819
tp2732
I00
s(g141
g816
tp2733
I00
s(g141
g854
tp2734
I00
s(g142
g838
tp2735
I00
s(g857
g197
tp2736
I00
s(g857
g141
tp2737
I00
s(g260
g142
tp2738
I00
s(g819
g260
tp2739
I00
s(g821
g260
tp2740
I00
s(g142
g311
tp2741
I00
s(g854
g854
tp2742
I00
s(g819
g838
tp2743
I00
s(g821
g311
tp2744
I01
s(g854
g821
tp2745
I00
s(g816
g141
tp2746
I00
s(g854
g260
tp2747
I00
s(g821
g857
tp2748
I00
s(g819
g816
tp2749
I00
s(g838
g142
tp2750
I00
s(g821
g141
tp2751
I00
s(g141
g821
tp2752
I00
s(g816
g821
tp2753
I00
s(g857
g819
tp2754
I00
s(g816
g260
tp2755
I00
s(g311
g819
tp2756
I00
s(g819
g854
tp2757
I00
s(g260
g260
tp2758
I00
s(g197
g819
tp2759
I00
s(g821
g197
tp2760
I00
s(g816
g819
tp2761
I00
s(g816
g816
tp2762
I00
s(g197
g260
tp2763
I00
s(g819
g142
tp2764
I00
s(g311
g821
tp2765
I00
s(g838
g854
tp2766
I00
s(g142
g816
tp2767
I00
s(g260
g821
tp2768
I00
s(g141
g838
tp2769
I00
s(g142
g854
tp2770
I00
s(g819
g311
tp2771
I00
s(g857
g838
tp2772
I00
s(g819
g857
tp2773
I00
s(g311
g838
tp2774
I00
s(g142
g142
tp2775
I00
s(g260
g197
tp2776
I00
s(g141
g857
tp2777
I00
s(g197
g857
tp2778
I00
s(g142
g857
tp2779
I00
s(g142
g141
tp2780
I00
s(g311
g197
tp2781
I00
s(g197
g311
tp2782
I00
s(g838
g141
tp2783
I00
s(g854
g857
tp2784
I00
s(g821
g838
tp2785
I00
s(g141
g819
tp2786
I00
s(g197
g197
tp2787
I00
s(g821
g854
tp2788
I00
s(g857
g821
tp2789
I00
ssg848
NsbsS'robot_pose'
p2790
g22
(g23
(I0
tp2791
g25
tp2792
Rp2793
(I1
(I1
I3
tp2794
g151
I00
S'^\\\x01M\xb5h\xfa?\xc3\xfb\n\xa4,\xcb\x17\xc0U\xd1p<\xe9\x83\xfe?'
p2795
tp2796
bsS'is_holding_goal_entity'
p2797
(itrajectory_representation.predicates.is_holding_goal_entity
IsHoldingGoalEntity
p2798
(dp2799
g2394
g2395
sg813
NsbsS'mc_pick_path'
p2800
(dp2801
sS'current_collides'
p2802
g396
sbasS'seed'
p2803
NsS'state_prime'
p2804
(lp2805
sS'problem_idx'
p2806
I133
sb.