(itrajectory_representation.trajectory
Trajectory
p0
(dp1
S'rewards'
p2
(lp3
I10
asS'actions'
p4
(lp5
(itrajectory_representation.operator
Operator
p6
(dp7
S'is_skeleton'
p8
I00
sS'discrete_parameters'
p9
(dp10
S'object'
p11
Vsquare_packing_box1
p12
sS'two_arm_place_region'
p13
S'home_region'
p14
sS'two_arm_place_object'
p15
Vsquare_packing_box1
p16
ssS'type'
p17
S'two_arm_pick_two_arm_place'
p18
sS'continuous_parameters'
p19
(dp20
S'q_goal'
p21
cnumpy.core.multiarray
_reconstruct
p22
(cnumpy
ndarray
p23
(I0
tp24
S'b'
p25
tp26
Rp27
(I1
(I3
tp28
cnumpy
dtype
p29
(S'f8'
p30
I0
I1
tp31
Rp32
(I3
S'<'
p33
NNNI-1
I-1
I0
tp34
bI00
S'\x1aQ\xe2\xcd\xd0K\xf4?\x14\xf4^X\xf0T\x1a\xc0l\xdd\x0e\x06\xc5\x9f\xc0?'
p35
tp36
bsS'place'
p37
(dp38
g21
g22
(g23
(I0
tp39
g25
tp40
Rp41
(I1
(I3
tp42
g32
I00
S'\x12\xa7\x8epr\r\x03@x4\xf3{\x02\xeb\xfa\xbfA\x08\x15\xa9\x063\xfa\xbf'
p43
tp44
bssS'pick'
p45
(dp46
g21
g27
sssS'low_level_motion'
p47
(lp48
g22
(g23
(I0
tp49
g25
tp50
Rp51
(I1
(I3
tp52
g32
I00
S'\xdd\xcc>\xee\xab\x82\xf1?U \xafy\xfe\xa3\x1a\xc0\x18"\xea\xf5ft\x16@'
p53
tp54
bag27
ag27
asbasS'filename'
p55
S''
p56
sS'states'
p57
(lp58
(itrajectory_representation.shortest_path_pick_and_place_state
ShortestPathPaPState
p59
(dp60
S'place_used'
p61
(dp62
(g16
g14
tp63
(itrajectory_representation.operator
Operator
p64
(dp65
g8
I01
sg9
(dp66
S'region'
p67
g14
sg11
g16
ssg17
S'two_arm_place'
p68
sg19
(dp69
g21
g22
(g23
(I0
tp70
g25
tp71
Rp72
(I1
(I3
tp73
g32
I00
S'\x12\xa7\x8epr\r\x03@x4\xf3{\x02\xeb\xfa\xbfA\x08\x15\xa9\x063\xfa\xbf'
p74
tp75
bssg47
(lp76
g22
(g23
(I0
tp77
g25
tp78
Rp79
(I1
(I3
tp80
g32
I00
S'\xb4P\xe2\xcd\xd0K\xf4?\x1a\xf4^X\xf0T\x1a\xc0\x87\xdd\x0e\x06\xc5\x9f\xc0?'
p81
tp82
bag22
(g23
(I0
tp83
g25
tp84
Rp85
(I1
(I3
tp86
g29
(S'f8'
p87
I0
I1
tp88
Rp89
(I3
S'<'
p90
NNNI-1
I-1
I0
tp91
bI00
S'<k;\xb0\x16\xda\xef?\x01\xf6\xb9DB\xf4\x18\xc0}\xc7/\x02\x8aR\x18@'
p92
tp93
bag22
(g23
(I0
tp94
g25
tp95
Rp96
(I1
(I3
tp97
g89
I00
S'\xac\xb4\xd5\x83\xbb\xf9\xe0?\xe1\x80\xe9+%\xe6\x16\xc0<\xd6N\xab\x06\xcc\xf7\xbf'
p98
tp99
bag22
(g23
(I0
tp100
g25
tp101
Rp102
(I1
(I3
tp103
g89
I00
S'\xcc\x87!\x1f\xfb\x05\xe6?\x14;\x08\xf1<\xc6\x13\xc0V!\xac1j\x94\xc8?'
p104
tp105
bag22
(g23
(I0
tp106
g25
tp107
Rp108
(I1
(I3
tp109
g89
I00
S'\x84\xbf\xf8\xf9m\x80\xeb?\x1dU~\xc98\x83\x11\xc0\x9c\xd2\x8c\xb4xs\xa7\xbf'
p110
tp111
bag22
(g23
(I0
tp112
g25
tp113
Rp114
(I1
(I3
tp115
g89
I00
S'\x93k\xbc\xee\xc2\x10\xe8?\xab^\x86?\x08D\x10\xc0\x10;2\x00\xe5\t\xde?'
p116
tp117
bag22
(g23
(I0
tp118
g25
tp119
Rp120
(I1
(I3
tp121
g89
I00
S'\xef\xc3u*\xfb\xdb\xeb?\x8d\xa5\n\xfd\x03<\n\xc0\xd8\xfb\xde\x16R\xac\xde?'
p122
tp123
bag22
(g23
(I0
tp124
g25
tp125
Rp126
(I1
(I3
tp127
g89
I00
S'S\xf49\xa2+\x89\xf0?\x90\xc6\x1b\xea\xaco\x04\xc0m\xfeq\x0c\x14\x04\xcf\xbf'
p128
tp129
bag22
(g23
(I0
tp130
g25
tp131
Rp132
(I1
(I3
tp133
g89
I00
S'm\xce}C\x08\xbf\xf8?n\x1b_\x80\xc4X\x02\xc0\xa0\xd6\xd4\xb1Na\xa7?'
p134
tp135
bag22
(g23
(I0
tp136
g25
tp137
Rp138
(I1
(I3
tp139
g89
I00
S'~\x94\xd277\xeb\x01@\xc8\xea[\xba\x9d\xd5\xff\xbf\xc3O\x81&B\x1e\xf9?'
p140
tp141
bag72
ag72
asbssS'place_in_way'
p142
(itrajectory_representation.predicates.place_in_way
PlaceInWay
p143
(dp144
S'mc_path_to_entity'
p145
(dp146
(Vrectangular_packing_box3
p147
S'home_region'
p148
tp149
(lp150
g22
(g23
(I0
tp151
g25
tp152
Rp153
(I1
(I3
tp154
g29
(S'f8'
p155
I0
I1
tp156
Rp157
(I3
S'<'
p158
NNNI-1
I-1
I0
tp159
bI00
S'F\xcd\x03\xeb\xf0}\x04@\x82;\x9c-\xcf%\x19\xc0k\xd8\xaf\x10qC\xdc?'
p160
tp161
bag22
(g23
(I0
tp162
g25
tp163
Rp164
(I1
(I3
tp165
g29
(S'f8'
p166
I0
I1
tp167
Rp168
(I3
S'<'
p169
NNNI-1
I-1
I0
tp170
bI00
S'/\xe1\x02^.|\x00@\xb8\xae\xc5\xcfF\x16\x17\xc0\xf8\x01)d\xc5\xf9\xe2?'
p171
tp172
bag22
(g23
(I0
tp173
g25
tp174
Rp175
(I1
(I3
tp176
g168
I00
S'\x85\\2\xba\x0b5\xf5?I\r\x06\xd10\xfb\x15\xc0\x9e\x11\xee\xd8\xb9\xd7\xf5?'
p177
tp178
bag22
(g23
(I0
tp179
g25
tp180
Rp181
(I1
(I3
tp182
g168
I00
S'v\xb8^\x85\xa7[\xea?x\xbe\xff2t\x8d\x13\xc0\x88\x85\x8cCyH\xf6?'
p183
tp184
bag22
(g23
(I0
tp185
g25
tp186
Rp187
(I1
(I3
tp188
g168
I00
S'\xc2\xda(e\x83\x1a\xeb?\x8au\x8d3\xa6E\x11\xc0\xb4c\x1b\xed_\xfd\xfa?'
p189
tp190
bag22
(g23
(I0
tp191
g25
tp192
Rp193
(I1
(I3
tp194
g168
I00
S'\xe4u**\x0e5\xe9?\xaa\xfd\r\xed\xc4\xf6\r\xc0\x0fDE0\x1f\x0b\xfe?'
p195
tp196
bag22
(g23
(I0
tp197
g25
tp198
Rp199
(I1
(I3
tp200
g168
I00
S'\x06\x11,\xef\x98O\xe7??\x10\x01s=b\t\xc04\x92\xb79o\x8c\x00@'
p201
tp202
bag22
(g23
(I0
tp203
g25
tp204
Rp205
(I1
(I3
tp206
g168
I00
S'\x92\xaf\xf3P\x96O\xc2?(\xa1:\x8er}\x05\xc0\xd4_\x91\xb3\xffL\x02@'
p207
tp208
bas(Vsquare_packing_box4
p209
g148
tp210
(lp211
g22
(g23
(I0
tp212
g25
tp213
Rp214
(I1
(I3
tp215
g157
I00
S'@Ye\x00\xe5\x8f\xfe?\xce\xd0\xa0D\xf0\xdd\x1a\xc0P\x1b\xaby\xa2E\x14@'
p216
tp217
bag22
(g23
(I0
tp218
g25
tp219
Rp220
(I1
(I3
tp221
g168
I00
S"'\xc1{\xbc\xf6\x05\xf8?\x02^\x18\xdc\xb7\xac\x18\xc0o\x85MZ3\x91\xf3\xbf"
p222
tp223
bag22
(g23
(I0
tp224
g25
tp225
Rp226
(I1
(I3
tp227
g168
I00
S'2Z\xe1\xe97J\xf6?\\\x1e`@2v\x16\xc0\xc4\x0c\xcc\x14<\xf9\xf6\xbf'
p228
tp229
bag22
(g23
(I0
tp230
g25
tp231
Rp232
(I1
(I3
tp233
g168
I00
S'tx\x8as\xa8b\xed?\x9ej\x15\xfa\xf0{\x15\xc0@\xed\x9a-\x9eD\xf2\xbf'
p234
tp235
bag22
(g23
(I0
tp236
g25
tp237
Rp238
(I1
(I3
tp239
g168
I00
S"\xb2&6mg)\xe8?\x99\xe0G'\x16\xe0\x13\xc0\xc8oL\xf5\x17p\xe6\xbf"
p240
tp241
bag22
(g23
(I0
tp242
g25
tp243
Rp244
(I1
(I3
tp245
g168
I00
S'`\xc8Aw-\x81\xeb?/\xc3\xe6O\x04\xca\x10\xc0\x8a\xb7K)\x91{\xe4\xbf'
p246
tp247
bag22
(g23
(I0
tp248
g25
tp249
Rp250
(I1
(I3
tp251
g168
I00
S'\xe1\xc6\xc7\xa7\x12X\xe7?\x98\x99\xb0\x9a\xfb\xdb\x0b\xc0R\t\x1b)\xeae\xe0\xbf'
p252
tp253
bag22
(g23
(I0
tp254
g25
tp255
Rp256
(I1
(I3
tp257
g168
I00
S'p\xf1\xbdc^\x84\xf1?"\x88LL\xf9D\x06\xc0~w\r\xe9m\x0f\x19@'
p258
tp259
bas(Vrectangular_packing_box4
p260
g148
tp261
(lp262
g22
(g23
(I0
tp263
g25
tp264
Rp265
(I1
(I3
tp266
g157
I00
S"\x14\xc6\xbe\x9aL\xeb\x03@`\x1a|A@\xc5\x1e\xc0[0\x9f'\x1d\x11\xe7?"
p267
tp268
bag22
(g23
(I0
tp269
g25
tp270
Rp271
(I1
(I3
tp272
g168
I00
S'b\x95[\xf7r*\x00@:\x8f7a\xbf]\x1c\xc0\x98.\xce\xc6\x89M\xf2?'
p273
tp274
bag22
(g23
(I0
tp275
g25
tp276
Rp277
(I1
(I3
tp278
g168
I00
S'\xb1\x91\x83\xd6J:\x00@X\xbf\x9b\xa3\xf7;\x19\xc0\xb4\xa9\x94\xff\xff\xd1\xec?'
p279
tp280
bag22
(g23
(I0
tp281
g25
tp282
Rp283
(I1
(I3
tp284
g168
I00
S'/\xe1\x02^.|\x00@\xb8\xae\xc5\xcfF\x16\x17\xc0\xf8\x01)d\xc5\xf9\xe2?'
p285
tp286
bag22
(g23
(I0
tp287
g25
tp288
Rp289
(I1
(I3
tp290
g168
I00
S'\x85\\2\xba\x0b5\xf5?I\r\x06\xd10\xfb\x15\xc0\x9e\x11\xee\xd8\xb9\xd7\xf5?'
p291
tp292
bag22
(g23
(I0
tp293
g25
tp294
Rp295
(I1
(I3
tp296
g168
I00
S'v\xb8^\x85\xa7[\xea?x\xbe\xff2t\x8d\x13\xc0\x88\x85\x8cCyH\xf6?'
p297
tp298
bag22
(g23
(I0
tp299
g25
tp300
Rp301
(I1
(I3
tp302
g168
I00
S'\xc2\xda(e\x83\x1a\xeb?\x8au\x8d3\xa6E\x11\xc0\xb4c\x1b\xed_\xfd\xfa?'
p303
tp304
bag22
(g23
(I0
tp305
g25
tp306
Rp307
(I1
(I3
tp308
g168
I00
S'\xe4u**\x0e5\xe9?\xaa\xfd\r\xed\xc4\xf6\r\xc0\x0fDE0\x1f\x0b\xfe?'
p309
tp310
bag22
(g23
(I0
tp311
g25
tp312
Rp313
(I1
(I3
tp314
g168
I00
S'\x06\x11,\xef\x98O\xe7??\x10\x01s=b\t\xc04\x92\xb79o\x8c\x00@'
p315
tp316
bag22
(g23
(I0
tp317
g25
tp318
Rp319
(I1
(I3
tp320
g168
I00
S'\x92\xaf\xf3P\x96O\xc2?(\xa1:\x8er}\x05\xc0\xd4_\x91\xb3\xffL\x02@'
p321
tp322
bas(Vsquare_packing_box2
p323
g148
tp324
(lp325
g22
(g23
(I0
tp326
g25
tp327
Rp328
(I1
(I3
tp329
g157
I00
S"\x91L;\xec\x00I\x07@\xa0U\xf7.E\x89\x1d\xc0\xf7\xe8\xbe\x825'\x17@"
p330
tp331
bag22
(g23
(I0
tp332
g25
tp333
Rp334
(I1
(I3
tp335
g168
I00
S'\x89\xcfHU\xa1\xf5\x05@\xee\x9b\xa6\x01<)\x1c\xc0W\xa3jE\xe6\xde\x01\xc0'
p336
tp337
bag22
(g23
(I0
tp338
g25
tp339
Rp340
(I1
(I3
tp341
g168
I00
S'2]\x933g}\x00@\xebx\x00&R!\x1b\xc0\xce\x170ZD}\x00\xc0'
p342
tp343
bag22
(g23
(I0
tp344
g25
tp345
Rp346
(I1
(I3
tp347
g168
I00
S'4#\xe8i\x80D\xf8?\xdd\x1dlTl\\\x19\xc0m\xc1\x1a\xec\xde\x01\x01\xc0'
p348
tp349
bag22
(g23
(I0
tp350
g25
tp351
Rp352
(I1
(I3
tp353
g168
I00
S'\x9f5<Q\xb2\xb3\xf7?\xb3\xd6LI,\xe8\x16\xc0\xc2\x13\xbbtu\x87\x00\xc0'
p354
tp355
bag22
(g23
(I0
tp356
g25
tp357
Rp358
(I1
(I3
tp359
g168
I00
S'\xd0\xcb\x13\x8f\xaa\x9d\xed?\x90\x01<]3\x06\x16\xc0F\xf1\xe7x32\x02\xc0'
p360
tp361
bag22
(g23
(I0
tp362
g25
tp363
Rp364
(I1
(I3
tp365
g168
I00
S'l[\xc4\x16<\xe6\xe9?\xa6\xa0\x90\x84X\x9f\x13\xc0\xc2\xd74Q\x00\xaf\xff\xbf'
p366
tp367
bag22
(g23
(I0
tp368
g25
tp369
Rp370
(I1
(I3
tp371
g168
I00
S"\xaeJ\xbd\x1936\xec?\x04\x13\xd4'\x9f\x88\x10\xc0\x805qo\xb6\xe6\xff\xbf"
p372
tp373
bag22
(g23
(I0
tp374
g25
tp375
Rp376
(I1
(I3
tp377
g168
I00
S'\xf09\xb6\x1c*\x86\xee?\xc4\n/\x96\xcb\xe3\n\xc0\xa0\xc9\xd6F6\x0f\x00\xc0'
p378
tp379
bag22
(g23
(I0
tp380
g25
tp381
Rp382
(I1
(I3
tp383
g168
I00
S'3\xe9\xaf\x05T\x89\xe7?+~\xcb\xd3\x15\xc7\x04\xc0x6(d5\xed\x07@'
p384
tp385
bas(Vsquare_packing_box3
p386
g148
tp387
(lp388
g22
(g23
(I0
tp389
g25
tp390
Rp391
(I1
(I3
tp392
g157
I00
S'\x00\xce\xbe\x17f\x05\n@\xb9\xed\xd7\tA\x97\x16\xc0Hx\xa6\xfbm\xfd\x0b@'
p393
tp394
bag22
(g23
(I0
tp395
g25
tp396
Rp397
(I1
(I3
tp398
g168
I00
S'nv\xf9k\xe2Y\x05@\xbf\xa3\xf80pj\x16\xc0\x85\x14\xd6\xdd\x83\x18\x04\xc0'
p399
tp400
bag22
(g23
(I0
tp401
g25
tp402
Rp403
(I1
(I3
tp404
g168
I00
S'_\x1fd\x97D>\x00@W\xf2\x9b\xb2\x92\xd8\x15\xc0\x99\xbc\xd43\xf6\xfa\x08\xc0'
p405
tp406
bag22
(g23
(I0
tp407
g25
tp408
Rp409
(I1
(I3
tp410
g168
I00
S'R\x12);\xaf\xa5\xf7?\xf3\xf9\xeb\x07c\xef\x15\xc0\xf0V^\xd6\x94\x96\x05\xc0'
p411
tp412
bag22
(g23
(I0
tp413
g25
tp414
Rp415
(I1
(I3
tp416
g168
I00
S'\xd0\xcb\x13\x8f\xaa\x9d\xed?\x90\x01<]3\x06\x16\xc0F\xf1\xe7x32\x02\xc0'
p417
tp418
bag22
(g23
(I0
tp419
g25
tp420
Rp421
(I1
(I3
tp422
g168
I00
S'l[\xc4\x16<\xe6\xe9?\xa6\xa0\x90\x84X\x9f\x13\xc0\xc2\xd74Q\x00\xaf\xff\xbf'
p423
tp424
bag22
(g23
(I0
tp425
g25
tp426
Rp427
(I1
(I3
tp428
g168
I00
S"\xaeJ\xbd\x1936\xec?\x04\x13\xd4'\x9f\x88\x10\xc0\x805qo\xb6\xe6\xff\xbf"
p429
tp430
bag22
(g23
(I0
tp431
g25
tp432
Rp433
(I1
(I3
tp434
g168
I00
S'\xf09\xb6\x1c*\x86\xee?\xc4\n/\x96\xcb\xe3\n\xc0\xa0\xc9\xd6F6\x0f\x00\xc0'
p435
tp436
bag22
(g23
(I0
tp437
g25
tp438
Rp439
(I1
(I3
tp440
g168
I00
S'3\xe9\xaf\x05T\x89\xe7?+~\xcb\xd3\x15\xc7\x04\xc0x6(d5\xed\x07@'
p441
tp442
bas(Vrectangular_packing_box2
p443
g148
tp444
(lp445
g22
(g23
(I0
tp446
g25
tp447
Rp448
(I1
(I3
tp449
g157
I00
S'\xdc\x1f#\x7f\x8b\xb9\x00@\x91\x0bI\xe3\xa7\x11\x18\xc0\x8b<^\xde{\x0b\x05@'
p450
tp451
bag22
(g23
(I0
tp452
g25
tp453
Rp454
(I1
(I3
tp455
g168
I00
S'\x84\xa2s4\xa1\xd0\xf6?E=|\xb9\xcam\x17\xc0\xa93^V\xfc\xed\x05@'
p456
tp457
bag22
(g23
(I0
tp458
g25
tp459
Rp460
(I1
(I3
tp461
g168
I00
S'f\xb4\x9c\x07\xac\xbf\xec?n\x96\x96\x9e\x90n\x16\xc0uo!\xa9\x9b\x82\x07@'
p462
tp463
bag22
(g23
(I0
tp464
g25
tp465
Rp466
(I1
(I3
tp467
g168
I00
S'm\xd5h\x072\x03\xea?\xdf\xe5\xe82\xd3\x17\x14\xc0\x08\x9e\xe1\xfbO\x94\x08@'
p468
tp469
bag22
(g23
(I0
tp470
g25
tp471
Rp472
(I1
(I3
tp473
g168
I00
S'\xc6\x05\xbdtg\xd9\xe2?F\xdf\x9d@\\\xf3\x11\xc0\x1a\xc4.\xbb\xcc\x12\x02@'
p474
tp475
bag22
(g23
(I0
tp476
g25
tp477
Rp478
(I1
(I3
tp479
g168
I00
S'3z\xed\x8eN)\xe4?\x0c\x96\xd4\xa2\x0e\xd0\r\xc0\xbd%\xf5{\xe9\xf9\x03@'
p480
tp481
bag22
(g23
(I0
tp482
g25
tp483
Rp484
(I1
(I3
tp485
g168
I00
S'\xaf0\xe9h\xba~\xee?k\xbb\xd8\xd4\xd0g\t\xc09\x9ey\xed\xb06\x06@'
p486
tp487
bag22
(g23
(I0
tp488
g25
tp489
Rp490
(I1
(I3
tp491
g168
I00
S'\xf4\xfdJ\x1a(#\xec?H"\x9cD\x1aE\x05\xc0.\xa9\x0b\x87\xf8\xe1\x02@'
p492
tp493
bassS'mc_to_entity'
p494
(dp495
(g147
g148
tp496
(lp497
Vsquare_packing_box1
p498
aVsquare_packing_box3
p499
aVrectangular_packing_box2
p500
as(g209
g148
tp501
(lp502
Vsquare_packing_box1
p503
aVrectangular_packing_box2
p504
as(g260
g148
tp505
(lp506
Vsquare_packing_box4
p507
aVsquare_packing_box1
p508
aVsquare_packing_box3
p509
aVrectangular_packing_box2
p510
as(g323
g148
tp511
(lp512
Vrectangular_packing_box4
p513
aVsquare_packing_box1
p514
aVsquare_packing_box4
p515
aVrectangular_packing_box2
p516
as(g386
g148
tp517
(lp518
Vrectangular_packing_box3
p519
aVrectangular_packing_box2
p520
as(g443
g148
tp521
(lp522
Vsquare_packing_box1
p523
aVsquare_packing_box3
p524
assS'reachable_entities'
p525
(lp526
Vrectangular_packing_box1
p527
ag12
aVsquare_packing_box4
p528
asS'collides'
p529
(dp530
Vrectangular_packing_box4
p531
c__builtin__
set
p532
((lp533
I513
aI260
aI268
aI194
aI270
aI405
aI280
aI548
aI511
aI303
aI179
aI436
aI565
aI440
aI573
aI193
aI66
aI68
aI210
aI211
aI212
aI213
aI343
aI90
aI91
aI220
aI479
aI354
aI613
aI112
aI113
aI339
aI375
aI340
aI123
aI381
aI254
aI255
atp534
Rp535
sVrectangular_packing_box2
p536
g532
((lp537
I4
aI517
aI8
aI404
aI132
aI416
aI33
aI34
aI554
aI43
aI44
aI301
aI584
aI55
aI56
aI186
aI187
aI449
aI70
aI71
aI456
aI201
aI202
aI203
aI162
aI93
aI94
aI95
aI327
aI484
aI161
aI106
aI108
aI497
aI372
aI233
aI252
aI234
atp538
Rp539
sVrectangular_packing_box3
p540
g532
((lp541
I0
aI1
aI2
aI435
aI144
aI403
aI541
aI548
aI38
aI39
aI40
aI425
aI555
aI302
aI303
aI307
aI438
aI442
aI571
aI62
aI453
aI457
aI342
aI343
aI473
aI474
aI348
aI605
aI612
aI550
aI367
aI368
aI369
aI370
aI371
aI500
aI247
aI248
aI377
aI378
aI511
atp542
Rp543
sVrectangular_packing_box1
p544
g532
((lp545
I518
aI521
aI138
aI276
aI152
aI153
aI154
aI155
aI157
aI547
aI165
aI166
aI424
aI553
aI6
aI197
aI198
aI338
aI84
aI362
aI491
aI249
aI383
atp546
Rp547
sVsquare_packing_box2
p548
g532
((lp549
I193
aI565
aI614
aI405
aI339
aI269
aI270
aI112
aI211
aI212
aI213
aI246
aI280
aI479
aI381
aI254
aI245
atp550
Rp551
sVsquare_packing_box3
p552
g532
((lp553
I2
aI3
aI393
aI395
aI403
aI404
aI539
aI160
aI289
aI37
aI38
aI39
aI40
aI41
aI42
aI304
aI561
aI178
aI435
aI54
aI62
aI288
aI454
aI342
aI348
aI605
aI611
aI550
aI115
aI248
aI379
aI380
atp554
Rp555
sVsquare_packing_box1
p556
g532
((lp557
I3
aI4
aI449
aI577
aI538
aI413
aI36
aI37
aI561
aI178
aI309
aI54
aI55
aI188
aI63
aI64
aI65
aI69
aI70
aI201
aI202
aI205
aI79
aI80
aI595
aI89
aI90
aI219
aI92
aI310
aI115
aI372
aI379
atp558
Rp559
sVsquare_packing_box4
p560
g532
((lp561
I256
aI514
aI259
aI392
aI145
aI146
aI406
aI407
aI538
aI543
aI422
aI556
aI429
aI443
aI444
aI66
aI67
aI585
aI463
aI80
aI593
aI215
aI464
aI610
aI230
aI358
aI240
aI374
aI119
aI120
aI505
aI123
atp562
Rp563
ssg61
g62
sS'pick_used'
p564
(dp565
Vrectangular_packing_box4
p566
(itrajectory_representation.operator
Operator
p567
(dp568
g8
I01
sg9
(dp569
S'object'
p570
Vrectangular_packing_box4
p571
ssg17
S'two_arm_pick'
p572
sg19
(dp573
S'q_goal'
p574
(lp575
g22
(g23
(I0
tp576
g25
tp577
Rp578
(I1
(I3
tp579
g157
I00
S"\x12\xc6\xbe\x9aL\xeb\x03@b\x1a|A@\xc5\x1e\xc0[0\x9f'\x1d\x11\xe7?"
p580
tp581
bag22
(g23
(I0
tp582
g25
tp583
Rp584
(I1
(I3
tp585
g157
I00
S'GJ\xf6sS\xf2\x04@f\xc3m\x97K\x84\x1f\xc0\x1d\xaf\xb0\x8c7\x11\xe5?'
p586
tp587
bag22
(g23
(I0
tp588
g25
tp589
Rp590
(I1
(I3
tp591
g157
I00
S'O\xc9\x93\xed\xe0.\r@\x10\x1b\x8e\n\x0e\xe5\x1a\xc0.m\x8a\x01\xb2v\x01\xc0'
p592
tp593
bag22
(g23
(I0
tp594
g25
tp595
Rp596
(I1
(I3
tp597
g157
I00
S'c/"\xa7U\xcf\x03@\xad\xba\xb6\xce\xd4\x1b\x1f\xc0l\x8f\x82\x9c\xbf\x1e\xe4?'
p598
tp599
basS'is_feasible'
p600
I00
ssg47
(lp601
g22
(g23
(I0
tp602
g25
tp603
Rp604
(I1
(I3
tp605
g157
I00
S'\xc6\xcc>\xee\xab\x82\xf1?V \xafy\xfe\xa3\x1a\xc0\x18"\xea\xf5ft\x16@'
p606
tp607
bag22
(g23
(I0
tp608
g25
tp609
Rp610
(I1
(I3
tp611
g168
I00
S"\x16\x94\x96'9\xeb\xf2?\xa16\xd9K\xf3\xbe\x1d\xc0T\x83\x00\xa9\xa7I\xf0\xbf"
p612
tp613
bag22
(g23
(I0
tp614
g25
tp615
Rp616
(I1
(I3
tp617
g168
I00
S'I&\xa6\xa8\xc8\xcd\xfb?\xc6\x13\x8e\x17\xd6\xf2\x1e\xc0\x8e\xe8\xdc\x06F\xc0\xaa\xbf'
p618
tp619
bag596
asbsVrectangular_packing_box2
p620
(itrajectory_representation.operator
Operator
p621
(dp622
g8
I01
sg9
(dp623
g570
Vrectangular_packing_box2
p624
ssg17
g572
sg19
(dp625
g574
(lp626
g22
(g23
(I0
tp627
g25
tp628
Rp629
(I1
(I3
tp630
g157
I00
S'\xdf\x1f#\x7f\x8b\xb9\x00@\x95\x0bI\xe3\xa7\x11\x18\xc0\x8b<^\xde{\x0b\x05@'
p631
tp632
bag22
(g23
(I0
tp633
g25
tp634
Rp635
(I1
(I3
tp636
g157
I00
S'\xb9\xfbi\xd9@\x1c\x01@\xe7T\r\xba\xf3t\x16\xc0\x15q5!\xec\xa2\x08\xc0'
p637
tp638
bag22
(g23
(I0
tp639
g25
tp640
Rp641
(I1
(I3
tp642
g157
I00
S'\x1e\x07lK_\xef\xfe?\xa5\x98\xa6\xea\xa6Q\x18\xc0\xb8\xa0\x0b\xea\x84\x13\x07@'
p643
tp644
basg600
I00
ssg47
(lp645
g22
(g23
(I0
tp646
g25
tp647
Rp648
(I1
(I3
tp649
g157
I00
S'\xc6\xcc>\xee\xab\x82\xf1?V \xafy\xfe\xa3\x1a\xc0\x18"\xea\xf5ft\x16@'
p650
tp651
bag22
(g23
(I0
tp652
g25
tp653
Rp654
(I1
(I3
tp655
g168
I00
S'\x05\x83iK\x01\x86\xfb?\x162zB{\xdc\x1a\xc0T\xd8\x04\x17\xd4b\xea\xbf'
p656
tp657
bag22
(g23
(I0
tp658
g25
tp659
Rp660
(I1
(I3
tp661
g168
I00
S'\xf5I-\xc1\xee\x1f\xfa?Zc\rx\x9c\n\x18\xc0?_z:D*\x17@'
p662
tp663
bag641
asbsVrectangular_packing_box3
p664
(itrajectory_representation.operator
Operator
p665
(dp666
g8
I01
sg9
(dp667
g570
Vrectangular_packing_box3
p668
ssg17
g572
sg19
(dp669
g574
(lp670
g22
(g23
(I0
tp671
g25
tp672
Rp673
(I1
(I3
tp674
g157
I00
S'D\xcd\x03\xeb\xf0}\x04@\x82;\x9c-\xcf%\x19\xc0m\xd8\xaf\x10qC\xdc?'
p675
tp676
bag22
(g23
(I0
tp677
g25
tp678
Rp679
(I1
(I3
tp680
g157
I00
S'jX[zB\xf0\t@\x1b\x14\xdb{\x96\xcb\x1b\xc0n\x93\xfa\x99\x125\xff?'
p681
tp682
bag22
(g23
(I0
tp683
g25
tp684
Rp685
(I1
(I3
tp686
g157
I00
S'\xe2X>\xd0\xda\xc7\x04@\x91(\xa7/&(\x1a\xc0R\xac\xce\xec\x8bV\xf0?'
p687
tp688
bag22
(g23
(I0
tp689
g25
tp690
Rp691
(I1
(I3
tp692
g157
I00
S'\xde\x90\xaa\xa5H\x98\r@\x08j\xd1\xf13>\x1b\xc0B\x88\x87\x80\x8e\xbc\xfc?'
p693
tp694
basg600
I00
ssg47
(lp695
g22
(g23
(I0
tp696
g25
tp697
Rp698
(I1
(I3
tp699
g157
I00
S'\xc6\xcc>\xee\xab\x82\xf1?V \xafy\xfe\xa3\x1a\xc0\x18"\xea\xf5ft\x16@'
p700
tp701
bag22
(g23
(I0
tp702
g25
tp703
Rp704
(I1
(I3
tp705
g168
I00
S'\x05\x83iK\x01\x86\xfb?\x162zB{\xdc\x1a\xc0T\xd8\x04\x17\xd4b\xea\xbf'
p706
tp707
bag22
(g23
(I0
tp708
g25
tp709
Rp710
(I1
(I3
tp711
g168
I00
S'b\x95[\xf7r*\x00@:\x8f7a\xbf]\x1c\xc0\x98.\xce\xc6\x89M\xf2?'
p712
tp713
bag685
asbsg527
(itrajectory_representation.operator
Operator
p714
(dp715
g8
I01
sg9
(dp716
g570
Vrectangular_packing_box1
p717
ssg17
g572
sg19
(dp718
g574
(lp719
g22
(g23
(I0
tp720
g25
tp721
Rp722
(I1
(I3
tp723
g157
I00
S' =f\x01$\xcb\xca?\xbc\xa2\xe3\xff\xc6w\x1c\xc0@\x05\x9c\x90\xcd\xb5\xf7?'
p724
tp725
bag22
(g23
(I0
tp726
g25
tp727
Rp728
(I1
(I3
tp729
g157
I00
S'\xba\xcb\x87\xe5\x00\xfd\xe9?\x88C\x83\x11R\x82\x19\xc0\xb1\xd7\x02\x0f\xfbp\t\xc0'
p730
tp731
bag22
(g23
(I0
tp732
g25
tp733
Rp734
(I1
(I3
tp735
g157
I00
S'.\xe6\xc3\x93\xdd\xf4\xe5?\x9d4\xc8\xe4\r\r\x18\xc0Ny\xcaOS}\x08\xc0'
p736
tp737
basg600
I00
ssg47
(lp738
g22
(g23
(I0
tp739
g25
tp740
Rp741
(I1
(I3
tp742
g157
I00
S'\xc6\xcc>\xee\xab\x82\xf1?V \xafy\xfe\xa3\x1a\xc0\x18"\xea\xf5ft\x16@'
p743
tp744
bag728
asbsVsquare_packing_box2
p745
(itrajectory_representation.operator
Operator
p746
(dp747
g8
I01
sg9
(dp748
g570
Vsquare_packing_box2
p749
ssg17
g572
sg19
(dp750
g574
(lp751
g22
(g23
(I0
tp752
g25
tp753
Rp754
(I1
(I3
tp755
g157
I00
S'\x8fL;\xec\x00I\x07@\xa0U\xf7.E\x89\x1d\xc0\tBT\x18]\xac\xdf\xbf'
p756
tp757
bag22
(g23
(I0
tp758
g25
tp759
Rp760
(I1
(I3
tp761
g157
I00
S'\xdf\xa9\xaa\xb9\xd3\xc7\r@\x7f\xb7"f\xbb\xa2\x1a\xc0\x8f\xb3\xaaU\x06~\xfc\xbf'
p762
tp763
bag22
(g23
(I0
tp764
g25
tp765
Rp766
(I1
(I3
tp767
g157
I00
S'\xb4\xba\xad\x82J\x0b\x0f@\xa8=v\xa7\xd1\x18\x1b\xc0\xfc\x06\x03j\xcay\xfc\xbf'
p768
tp769
bag22
(g23
(I0
tp770
g25
tp771
Rp772
(I1
(I3
tp773
g157
I00
S'C\x82\xe5\x99!3\r@\xdfU7\xb7\xff1 \xc0\xe8\x0c,\xc7\xe9\xbc\xf4?'
p774
tp775
basg600
I00
ssg47
(lp776
g22
(g23
(I0
tp777
g25
tp778
Rp779
(I1
(I3
tp780
g157
I00
S'\xc6\xcc>\xee\xab\x82\xf1?V \xafy\xfe\xa3\x1a\xc0\x18"\xea\xf5ft\x16@'
p781
tp782
bag22
(g23
(I0
tp783
g25
tp784
Rp785
(I1
(I3
tp786
g168
I00
S'\x05\x83iK\x01\x86\xfb?\x162zB{\xdc\x1a\xc0T\xd8\x04\x17\xd4b\xea\xbf'
p787
tp788
bag22
(g23
(I0
tp789
g25
tp790
Rp791
(I1
(I3
tp792
g168
I00
S'\tf\xd5\xc3\xdb\xc1\x02@y9\xac\xaa\x85r\x1a\xc0n\x19\xc0\xf8c\xa8\xe2\xbf'
p793
tp794
bag22
(g23
(I0
tp795
g25
tp796
Rp797
(I1
(I3
tp798
g168
I00
S'\xfb\xa7\xa0\x03\xca\x8c\x02@:+\xa9\x1c>\x86\x1d\xc0\x8e\x98\xf2\x0f\xf7(\xee\xbf'
p799
tp800
bag754
asbsVsquare_packing_box3
p801
(itrajectory_representation.operator
Operator
p802
(dp803
g8
I01
sg9
(dp804
g570
Vsquare_packing_box3
p805
ssg17
g572
sg19
(dp806
g574
(lp807
g22
(g23
(I0
tp808
g25
tp809
Rp810
(I1
(I3
tp811
g157
I00
S'\x02\xce\xbe\x17f\x05\n@\xb8\xed\xd7\tA\x97\x16\xc0\xe7\xe1\xe1\xac\x88F\x06\xc0'
p812
tp813
bag22
(g23
(I0
tp814
g25
tp815
Rp816
(I1
(I3
tp817
g157
I00
S"S.z\xf1\xc3\x05\x06@\xabSB'\x17r\x19\xc02\xa0D;\x9f?\x00@"
p818
tp819
bag22
(g23
(I0
tp820
g25
tp821
Rp822
(I1
(I3
tp823
g157
I00
S'f*z\xe8SA\t@\xe7#\x12\x98YA\x16\xc0\xe2\x8d\x8a\xe2\xc0\x9e\x06\xc0'
p824
tp825
basg600
I00
ssg47
(lp826
g22
(g23
(I0
tp827
g25
tp828
Rp829
(I1
(I3
tp830
g157
I00
S'\xc6\xcc>\xee\xab\x82\xf1?V \xafy\xfe\xa3\x1a\xc0\x18"\xea\xf5ft\x16@'
p831
tp832
bag22
(g23
(I0
tp833
g25
tp834
Rp835
(I1
(I3
tp836
g168
I00
S'3\x82\x8a\x8fh\xb2\xf8?\xecMw\xff=$\x19\xc0\x10\x03\x08*\x90Q\x89?'
p837
tp838
bag22
(g23
(I0
tp839
g25
tp840
Rp841
(I1
(I3
tp842
g168
I00
S'\xf60LV\xe8\x96\x00@\x9aEw{a\xe2\x18\xc0^\xa8\x8a,\xa3\x98\x00@'
p843
tp844
bag816
asbsg12
(itrajectory_representation.operator
Operator
p845
(dp846
g8
I01
sg9
(dp847
g11
g12
ssg17
S'two_arm_pick'
p848
sg19
(dp849
g21
g22
(g23
(I0
tp850
g25
tp851
Rp852
(I1
(I3
tp853
g32
I00
S'\x1aQ\xe2\xcd\xd0K\xf4?\x14\xf4^X\xf0T\x1a\xc0l\xdd\x0e\x06\xc5\x9f\xc0?'
p854
tp855
bssg47
(lp856
g22
(g23
(I0
tp857
g25
tp858
Rp859
(I1
(I3
tp860
g157
I00
S'\xc6\xcc>\xee\xab\x82\xf1?V \xafy\xfe\xa3\x1a\xc0\x18"\xea\xf5ft\x16@'
p861
tp862
bag852
asbsg528
(itrajectory_representation.operator
Operator
p863
(dp864
g8
I01
sg9
(dp865
g570
Vsquare_packing_box4
p866
ssg17
g572
sg19
(dp867
g574
(lp868
g22
(g23
(I0
tp869
g25
tp870
Rp871
(I1
(I3
tp872
g157
I00
S'?Ye\x00\xe5\x8f\xfe?\xce\xd0\xa0D\xf0\xdd\x1a\xc0\x1eGdjcq\xf3\xbf'
p873
tp874
bag22
(g23
(I0
tp875
g25
tp876
Rp877
(I1
(I3
tp878
g157
I00
S'(\x85\xf8\xd8\xed\xda\xf2?\xfe\x98C\xd8h\xd1\x1e\xc0X\x18\xe9k\xd5\x95\xba\xbf'
p879
tp880
bag22
(g23
(I0
tp881
g25
tp882
Rp883
(I1
(I3
tp884
g157
I00
S'f.S7z2\x01@PO;\xb1\x08p\x1b\xc0\xbc8\xbf\x8b\xc1\xa4\xfe\xbf'
p885
tp886
bag22
(g23
(I0
tp887
g25
tp888
Rp889
(I1
(I3
tp890
g157
I00
S'\x0b\xba[\xcfhN\xf3?\xd7\x15U\x03\xac\x9f\x1e\xc0\xe4\xec\xef\xf8\xc5.\xb6\xbf'
p891
tp892
bag22
(g23
(I0
tp893
g25
tp894
Rp895
(I1
(I3
tp896
g157
I00
S'\x13\xe6\xe0\x19\x81\x16\x01@W\x1f\xfe\x94\xd1\xe3\x1a\xc0j\x16\xe5\xd13\x8b\xf8\xbf'
p897
tp898
basg600
I00
ssg47
(lp899
g22
(g23
(I0
tp900
g25
tp901
Rp902
(I1
(I3
tp903
g157
I00
S'\xc6\xcc>\xee\xab\x82\xf1?V \xafy\xfe\xa3\x1a\xc0\x18"\xea\xf5ft\x16@'
p904
tp905
bag22
(g23
(I0
tp906
g25
tp907
Rp908
(I1
(I3
tp909
g168
I00
S'X\xa4u\xbc=r\xf6?\x90\xee\xc4\x1eW\xf8\x1b\xc0\xcc: \xa4-\x95\x01\xc0'
p910
tp911
bag22
(g23
(I0
tp912
g25
tp913
Rp914
(I1
(I3
tp915
g168
I00
S"4]r\xd3'>\xf0?\xfe\x80\xde\xa9\xc5\xab\x1c\xc0\xda:\xc6?\xd9\x17\xd0?"
p916
tp917
bag889
asbssS'mc_paths'
p918
(dp919
sS'robot'
p920
NsS'reachable_obj_region_pairs'
p921
(lp922
sS'sampled_pick_configs_for_objects'
p923
(dp924
sS'mc_calls'
p925
I0
sS'pick_poses'
p926
g565
sS'problem_env'
p927
NsS'evaluations'
p928
(dp929
(g323
g443
g148
tp930
I01
s(g443
g386
g148
tp931
I01
s(g260
g323
g148
tp932
I00
s(g386
Vsquare_packing_box1
p933
g148
tp934
I00
s(g209
g323
g148
tp935
I00
s(g386
g443
g148
tp936
I01
s(g260
g209
g148
tp937
I01
s(g323
g933
g148
tp938
I01
s(g323
g147
g148
tp939
I00
s(g260
g386
g148
tp940
I01
s(g209
g386
g148
tp941
I00
s(g386
g209
g148
tp942
I00
s(g443
Vrectangular_packing_box1
p943
g148
tp944
I00
s(g147
g933
g148
tp945
I01
s(g209
g943
g148
tp946
I00
s(g260
g943
g148
tp947
I00
s(g443
g933
g148
tp948
I01
s(g147
g260
g148
tp949
I00
s(g443
g209
g148
tp950
I00
s(g443
g147
g148
tp951
I00
s(g147
g386
g148
tp952
I01
s(g147
g943
g148
tp953
I00
s(g386
g943
g148
tp954
I00
s(g209
g443
g148
tp955
I01
s(g260
g443
g148
tp956
I01
s(g323
g943
g148
tp957
I00
s(g209
g260
g148
tp958
I00
s(g147
g209
g148
tp959
I00
s(g323
g260
g148
tp960
I01
s(g386
g323
g148
tp961
I00
s(g443
g260
g148
tp962
I00
s(g323
g209
g148
tp963
I01
s(g209
g147
g148
tp964
I00
s(g323
g386
g148
tp965
I00
s(g260
g147
g148
tp966
I00
s(g147
g443
g148
tp967
I01
s(g443
g323
g148
tp968
I00
s(g260
g933
g148
tp969
I01
s(g209
g933
g148
tp970
I01
s(g386
g147
g148
tp971
I01
s(g147
g323
g148
tp972
I00
s(g386
g260
g148
tp973
I00
ssS'paths_to_reachable_entities'
p974
NsS'use_shortest_path'
p975
I01
sbsS'ternary_edges'
p976
(dp977
(g443
g443
g148
tp978
(lp979
I00
as(g933
S'loading_region'
p980
g980
tp981
(lp982
I00
as(S'entire_region'
p983
g943
g148
tp984
(lp985
I00
as(g323
g209
g980
tp986
(lp987
I00
as(g148
g148
g148
tp988
(lp989
I00
as(g209
g443
g980
tp990
(lp991
I00
as(g933
g147
g148
tp992
(lp993
I00
as(g148
g260
g148
tp994
(lp995
I00
as(g323
g933
g148
tp996
(lp997
I01
as(g147
g260
g980
tp998
(lp999
I00
as(g148
g209
g980
tp1000
(lp1001
I00
as(g323
g983
g148
tp1002
(lp1003
I00
as(g980
g148
g980
tp1004
(lp1005
I00
as(g260
g386
g148
tp1006
(lp1007
I01
as(g209
g983
g148
tp1008
(lp1009
I00
as(g323
g943
g980
tp1010
(lp1011
I00
as(g386
g980
g148
tp1012
(lp1013
I00
as(g983
g443
g980
tp1014
(lp1015
I00
as(g148
g983
g148
tp1016
(lp1017
I00
as(g443
g980
g148
tp1018
(lp1019
I00
as(g386
g983
g148
tp1020
(lp1021
I00
as(g933
g933
g980
tp1022
(lp1023
I00
as(g980
g209
g980
tp1024
(lp1025
I00
as(g983
g980
g148
tp1026
(lp1027
I00
as(g983
g323
g148
tp1028
(lp1029
I00
as(g980
g980
g148
tp1030
(lp1031
I00
as(g386
g260
g980
tp1032
(lp1033
I00
as(g148
g148
g980
tp1034
(lp1035
I00
as(g943
g323
g980
tp1036
(lp1037
I00
as(g443
g209
g148
tp1038
(lp1039
I00
as(g386
g933
g148
tp1040
(lp1041
I00
as(g943
g148
g980
tp1042
(lp1043
I00
as(g148
g443
g980
tp1044
(lp1045
I00
as(g943
g147
g980
tp1046
(lp1047
I00
as(g147
g943
g148
tp1048
(lp1049
I00
as(g980
g933
g980
tp1050
(lp1051
I00
as(g209
g323
g980
tp1052
(lp1053
I00
as(g443
g443
g980
tp1054
(lp1055
I00
as(g983
g209
g148
tp1056
(lp1057
I00
as(g980
g148
g148
tp1058
(lp1059
I00
as(g260
g443
g148
tp1060
(lp1061
I01
as(g148
g147
g148
tp1062
(lp1063
I00
as(g323
g943
g148
tp1064
(lp1065
I00
as(g147
g209
g148
tp1066
(lp1067
I00
as(g933
g147
g980
tp1068
(lp1069
I00
as(g386
g323
g148
tp1070
(lp1071
I00
as(g323
g933
g980
tp1072
(lp1073
I00
as(g323
g443
g980
tp1074
(lp1075
I00
as(g983
g323
g980
tp1076
(lp1077
I00
as(g980
g147
g980
tp1078
(lp1079
I00
as(g983
g148
g148
tp1080
(lp1081
I00
as(g260
g148
g148
tp1082
(lp1083
I00
as(g980
g983
g148
tp1084
(lp1085
I00
as(g443
g209
g980
tp1086
(lp1087
I00
as(g386
g443
g980
tp1088
(lp1089
I00
as(g386
g386
g148
tp1090
(lp1091
I00
as(g943
g147
g148
tp1092
(lp1093
I00
as(g983
g443
g148
tp1094
(lp1095
I00
as(g943
g980
g980
tp1096
(lp1097
I00
as(g209
g933
g148
tp1098
(lp1099
I01
as(g933
g933
g148
tp1100
(lp1101
I00
as(g933
g260
g148
tp1102
(lp1103
I00
as(g260
g443
g980
tp1104
(lp1105
I00
as(g209
g943
g980
tp1106
(lp1107
I00
as(g386
g260
g148
tp1108
(lp1109
I00
as(g943
g323
g148
tp1110
(lp1111
I00
as(g443
g943
g980
tp1112
(lp1113
I00
as(g943
g148
g148
tp1114
(lp1115
I00
as(g323
g443
g148
tp1116
(lp1117
I01
as(g443
g386
g148
tp1118
(lp1119
I01
as(g147
g943
g980
tp1120
(lp1121
I00
as(g148
g323
g980
tp1122
(lp1123
I00
as(g983
g148
g980
tp1124
(lp1125
I00
as(g983
g209
g980
tp1126
(lp1127
I00
as(g386
g443
g148
tp1128
(lp1129
I01
as(g147
g386
g980
tp1130
(lp1131
I00
as(g443
g983
g980
tp1132
(lp1133
I00
as(g943
g980
g148
tp1134
(lp1135
I00
as(g386
g323
g980
tp1136
(lp1137
I00
as(g386
g943
g980
tp1138
(lp1139
I00
as(g209
g933
g980
tp1140
(lp1141
I00
as(g148
g147
g980
tp1142
(lp1143
I00
as(g983
g386
g980
tp1144
(lp1145
I00
as(g980
g147
g148
tp1146
(lp1147
I00
as(g980
g323
g980
tp1148
(lp1149
I00
as(g443
g943
g148
tp1150
(lp1151
I00
as(g209
g943
g148
tp1152
(lp1153
I00
as(g980
g386
g148
tp1154
(lp1155
I00
as(g443
g386
g980
tp1156
(lp1157
I00
as(g443
g260
g980
tp1158
(lp1159
I00
as(g147
g209
g980
tp1160
(lp1161
I00
as(g933
g260
g980
tp1162
(lp1163
I00
as(g943
g386
g980
tp1164
(lp1165
I00
as(g148
g933
g980
tp1166
(lp1167
I00
as(g147
g980
g980
tp1168
(lp1169
I00
as(g260
g148
g980
tp1170
(lp1171
I00
as(g933
g943
g148
tp1172
(lp1173
I00
as(g443
g983
g148
tp1174
(lp1175
I00
as(g260
g323
g980
tp1176
(lp1177
I00
as(g147
g443
g980
tp1178
(lp1179
I00
as(g386
g943
g148
tp1180
(lp1181
I00
as(g209
g980
g980
tp1182
(lp1183
I00
as(g323
g148
g148
tp1184
(lp1185
I00
as(g209
g260
g148
tp1186
(lp1187
I00
as(g148
g386
g980
tp1188
(lp1189
I00
as(g980
g943
g980
tp1190
(lp1191
I00
as(g980
g386
g980
tp1192
(lp1193
I00
as(g933
g386
g148
tp1194
(lp1195
I00
as(g943
g386
g148
tp1196
(lp1197
I00
as(g933
g943
g980
tp1198
(lp1199
I00
as(g147
g443
g148
tp1200
(lp1201
I01
as(g443
g323
g148
tp1202
(lp1203
I00
as(g147
g148
g980
tp1204
(lp1205
I00
as(g209
g980
g148
tp1206
(lp1207
I00
as(g980
g260
g980
tp1208
(lp1209
I00
as(g443
g260
g148
tp1210
(lp1211
I00
as(g147
g147
g148
tp1212
(lp1213
I00
as(g260
g260
g148
tp1214
(lp1215
I00
as(g260
g147
g980
tp1216
(lp1217
I00
as(g147
g980
g148
tp1218
(lp1219
I00
as(g386
g209
g148
tp1220
(lp1221
I00
as(g260
g323
g148
tp1222
(lp1223
I00
as(g323
g980
g980
tp1224
(lp1225
I00
as(g147
g983
g980
tp1226
(lp1227
I00
as(g323
g148
g980
tp1228
(lp1229
I00
as(g933
g323
g980
tp1230
(lp1231
I00
as(g209
g260
g980
tp1232
(lp1233
I00
as(g386
g148
g980
tp1234
(lp1235
I00
as(g147
g148
g148
tp1236
(lp1237
I00
as(g980
g260
g148
tp1238
(lp1239
I00
as(g943
g943
g148
tp1240
(lp1241
I00
as(g980
g209
g148
tp1242
(lp1243
I00
as(g209
g386
g148
tp1244
(lp1245
I00
as(g933
g443
g148
tp1246
(lp1247
I00
as(g933
g386
g980
tp1248
(lp1249
I00
as(g260
g933
g980
tp1250
(lp1251
I00
as(g148
g323
g148
tp1252
(lp1253
I00
as(g983
g147
g980
tp1254
(lp1255
I00
as(g147
g933
g148
tp1256
(lp1257
I01
as(g943
g983
g148
tp1258
(lp1259
I00
as(g386
g209
g980
tp1260
(lp1261
I00
as(g386
g147
g980
tp1262
(lp1263
I00
as(g260
g943
g148
tp1264
(lp1265
I00
as(g443
g323
g980
tp1266
(lp1267
I00
as(g260
g980
g148
tp1268
(lp1269
I00
as(g147
g983
g148
tp1270
(lp1271
I00
as(g209
g147
g980
tp1272
(lp1273
I00
as(g443
g933
g148
tp1274
(lp1275
I01
as(g386
g933
g980
tp1276
(lp1277
I00
as(g209
g209
g980
tp1278
(lp1279
I00
as(g260
g260
g980
tp1280
(lp1281
I00
as(g943
g943
g980
tp1282
(lp1283
I00
as(g933
g209
g980
tp1284
(lp1285
I00
as(g209
g323
g148
tp1286
(lp1287
I00
as(g983
g933
g148
tp1288
(lp1289
I00
as(g148
g983
g980
tp1290
(lp1291
I00
as(g148
g943
g980
tp1292
(lp1293
I00
as(g323
g980
g148
tp1294
(lp1295
I00
as(g933
g443
g980
tp1296
(lp1297
I00
as(g943
g933
g980
tp1298
(lp1299
I00
as(g147
g147
g980
tp1300
(lp1301
I00
as(g983
g147
g148
tp1302
(lp1303
I00
as(g323
g147
g980
tp1304
(lp1305
I00
as(g943
g983
g980
tp1306
(lp1307
I00
as(g933
g323
g148
tp1308
(lp1309
I00
as(g260
g943
g980
tp1310
(lp1311
I00
as(g260
g147
g148
tp1312
(lp1313
I00
as(g209
g147
g148
tp1314
(lp1315
I00
as(g933
g148
g980
tp1316
(lp1317
I00
as(g323
g386
g148
tp1318
(lp1319
I00
as(g386
g386
g980
tp1320
(lp1321
I00
as(g260
g983
g148
tp1322
(lp1323
I00
as(g980
g983
g980
tp1324
(lp1325
I00
as(g209
g386
g980
tp1326
(lp1327
I00
as(g980
g943
g148
tp1328
(lp1329
I00
as(g983
g983
g980
tp1330
(lp1331
I00
as(g260
g933
g148
tp1332
(lp1333
I01
as(g933
g209
g148
tp1334
(lp1335
I00
as(g980
g443
g980
tp1336
(lp1337
I00
as(g147
g933
g980
tp1338
(lp1339
I00
as(g386
g148
g148
tp1340
(lp1341
I00
as(g983
g933
g980
tp1342
(lp1343
I00
as(g386
g147
g148
tp1344
(lp1345
I01
as(g147
g323
g148
tp1346
(lp1347
I00
as(g260
g980
g980
tp1348
(lp1349
I00
as(g443
g933
g980
tp1350
(lp1351
I00
as(g943
g443
g148
tp1352
(lp1353
I00
as(g983
g980
g980
tp1354
(lp1355
I00
as(g980
g443
g148
tp1356
(lp1357
I00
as(g933
g983
g148
tp1358
(lp1359
I00
as(g323
g386
g980
tp1360
(lp1361
I00
as(g323
g260
g980
tp1362
(lp1363
I00
as(g209
g148
g148
tp1364
(lp1365
I00
as(g260
g983
g980
tp1366
(lp1367
I00
as(g260
g209
g148
tp1368
(lp1369
I01
as(g983
g260
g980
tp1370
(lp1371
I00
as(g148
g943
g148
tp1372
(lp1373
I00
as(g148
g386
g148
tp1374
(lp1375
I00
as(g943
g933
g148
tp1376
(lp1377
I00
as(g943
g260
g148
tp1378
(lp1379
I00
as(g983
g386
g148
tp1380
(lp1381
I00
as(g323
g147
g148
tp1382
(lp1383
I00
as(g323
g323
g980
tp1384
(lp1385
I00
as(g943
g209
g980
tp1386
(lp1387
I00
as(g209
g148
g980
tp1388
(lp1389
I00
as(g443
g148
g148
tp1390
(lp1391
I00
as(g933
g148
g148
tp1392
(lp1393
I00
as(g943
g443
g980
tp1394
(lp1395
I00
as(g209
g443
g148
tp1396
(lp1397
I01
as(g148
g980
g148
tp1398
(lp1399
I00
as(g983
g983
g148
tp1400
(lp1401
I00
as(g443
g147
g980
tp1402
(lp1403
I00
as(g933
g983
g980
tp1404
(lp1405
I00
as(g980
g323
g148
tp1406
(lp1407
I00
as(g147
g260
g148
tp1408
(lp1409
I00
as(g983
g260
g148
tp1410
(lp1411
I00
as(g933
g980
g148
tp1412
(lp1413
I00
as(g147
g323
g980
tp1414
(lp1415
I00
as(g148
g933
g148
tp1416
(lp1417
I00
as(g983
g943
g980
tp1418
(lp1419
I00
as(g209
g983
g980
tp1420
(lp1421
I00
as(g323
g323
g148
tp1422
(lp1423
I00
as(g943
g209
g148
tp1424
(lp1425
I00
as(g386
g983
g980
tp1426
(lp1427
I00
as(g323
g260
g148
tp1428
(lp1429
I01
as(g148
g209
g148
tp1430
(lp1431
I00
as(g147
g386
g148
tp1432
(lp1433
I01
as(g260
g209
g980
tp1434
(lp1435
I00
as(g209
g209
g148
tp1436
(lp1437
I00
as(g943
g260
g980
tp1438
(lp1439
I00
as(g323
g209
g148
tp1440
(lp1441
I01
as(g386
g980
g980
tp1442
(lp1443
I00
as(g148
g443
g148
tp1444
(lp1445
I00
as(g443
g980
g980
tp1446
(lp1447
I00
as(g148
g260
g980
tp1448
(lp1449
I00
as(g443
g148
g980
tp1450
(lp1451
I00
as(g980
g980
g980
tp1452
(lp1453
I00
as(g323
g983
g980
tp1454
(lp1455
I00
as(g260
g386
g980
tp1456
(lp1457
I00
as(g148
g980
g980
tp1458
(lp1459
I00
as(g443
g147
g148
tp1460
(lp1461
I00
as(g980
g933
g148
tp1462
(lp1463
I00
assg564
g565
sS'use_prm'
p1464
I01
sS'object_names'
p1465
(lp1466
S'square_packing_box1'
p1467
aS'rectangular_packing_box1'
p1468
aS'square_packing_box2'
p1469
aS'rectangular_packing_box2'
p1470
aS'square_packing_box3'
p1471
aS'rectangular_packing_box3'
p1472
aS'square_packing_box4'
p1473
aS'rectangular_packing_box4'
p1474
asg927
NsS'current_holding_collides'
p1475
NsS'object_poses'
p1476
(dp1477
Vrectangular_packing_box4
p1478
g22
(g23
(I0
tp1479
g25
tp1480
Rp1481
(I1
(I1
I3
tp1482
g157
I00
S'\x85\xb6\xae\x04\xb86\x08@\x14#f\xb9E \x1d\xc0\x7f:\xc9\xde\x05y\x16@'
p1483
tp1484
bsVrectangular_packing_box2
p1485
g22
(g23
(I0
tp1486
g25
tp1487
Rp1488
(I1
(I1
I3
tp1489
g157
I00
S't /\x03\xf1,\xf4?\xf1\xe8r3G\xd8\x16\xc0\xf4?xq\xe1p\x18@'
p1490
tp1491
bsVrectangular_packing_box3
p1492
g22
(g23
(I0
tp1493
g25
tp1494
Rp1495
(I1
(I1
I3
tp1496
g157
I00
S'\x9e\x8f\xde+\xe7B\n@\x0c\x8b\xf8\xde\xf0\x9a\x18\xc0i\xe2\xf0r\xf3F\x14@'
p1497
tp1498
bsVrectangular_packing_box1
p1499
g22
(g23
(I0
tp1500
g25
tp1501
Rp1502
(I1
(I1
I3
tp1503
g157
I00
S'@\xbe\xc0\x04\xd8)S\xbflb\xeax\xaa\x85\x19\xc0\x8b\xb4\xd6\xbb\xf2Y\xd7?'
p1504
tp1505
bsVsquare_packing_box2
p1506
g22
(g23
(I0
tp1507
g25
tp1508
Rp1509
(I1
(I1
I3
tp1510
g157
I00
S'\x83D\x06\x85J\xd6\x0c@\xde\xe6\x88[i|\x1d\xc0m\x08\xd5*o\x08\x18@'
p1511
tp1512
bsVsquare_packing_box3
p1513
g22
(g23
(I0
tp1514
g25
tp1515
Rp1516
(I1
(I1
I3
tp1517
g157
I00
S'Cm\xfa9kU\x04@\x17$\xa7\xdf\xb1\xbf\x16\xc0-&\xae{\xae\xdf\xdb?'
p1518
tp1519
bsVsquare_packing_box1
p1520
g22
(g23
(I0
tp1521
g25
tp1522
Rp1523
(I1
(I1
I3
tp1524
g157
I00
S'\xb4\x17\xd7\xbe\x19\xb1\xff?[\xd4\xe6\xe5W\x96\x19\xc0\xec\xfa\xbf\xa1X\xda\xf9?'
p1525
tp1526
bsVsquare_packing_box4
p1527
g22
(g23
(I0
tp1528
g25
tp1529
Rp1530
(I1
(I1
I3
tp1531
g157
I00
S"n\xc9\x12\xf0+\xfd\xfe?I\x9e\xf8'\xb4\xdb\x1d\xc0\xdaX_\xfb\xef\x8b\t@"
p1532
tp1533
bssS'reachable_regions_while_holding'
p1534
(lp1535
(g566
g980
tp1536
a(g620
g980
tp1537
a(g664
g980
tp1538
a(g527
g980
tp1539
a(g745
g980
tp1540
a(g801
g980
tp1541
a(g12
g980
tp1542
a(g528
g980
tp1543
a(g527
g148
tp1544
a(g12
g148
tp1545
asS'in_region'
p1546
(itrajectory_representation.predicates.in_region
InRegion
p1547
(dp1548
g927
NsbsS'cached_pick_paths'
p1549
(dp1550
g566
g601
sg620
g645
sg664
g695
sg527
g738
sg745
g776
sg801
g826
sg12
g856
sg528
g899
ssg529
(dp1551
(Vrectangular_packing_box1
p1552
(cnumpy.core.multiarray
scalar
p1553
(g157
S'\xec\xdd\x1f\xefU+S\xbf'
p1554
tp1555
Rp1556
g1553
(g157
S'\xf01Xq\xaa\x85\x19\xc0'
p1557
tp1558
Rp1559
g1553
(g157
S'`\x1f\x9d\xba\xf2Y\xd7?'
p1560
tp1561
Rp1562
tp1563
tp1564
g547
s(Vrectangular_packing_box4
p1565
(g1553
(g157
S'Z\xb7A\xed\xb76\x08@'
p1566
tp1567
Rp1568
g1553
(g157
S'\xf43\xf5\xbaE \x1d\xc0'
p1569
tp1570
Rp1571
g1553
(g157
S'Va3\xc0\x05y\x16@'
p1572
tp1573
Rp1574
tp1575
tp1576
g535
s(Vsquare_packing_box3
p1577
(g1553
(g157
S'@\xda\xff\x00kU\x04@'
p1578
tp1579
Rp1580
g1553
(g157
S'\xb1\xfb\x8e\xe1\xb1\xbf\x16\xc0'
p1581
tp1582
Rp1583
g1553
(g157
S'x\x99a\xa3\xac\xdf\xdb?'
p1584
tp1585
Rp1586
tp1587
tp1588
g555
s(Vsquare_packing_box1
p1589
(g1553
(g157
S'j\xa2\xcfG\x19\xb1\xff?'
p1590
tp1591
Rp1592
g1553
(g157
S'J\x98i\xfbW\x96\x19\xc0'
p1593
tp1594
Rp1595
g1553
(g157
S'\xaf]\xdapX\xda\xf9?'
p1596
tp1597
Rp1598
tp1599
tp1600
g559
s(Vrectangular_packing_box3
p1601
(g1553
(g157
S'xD\x85\xea\xe6B\n@'
p1602
tp1603
Rp1604
g1553
(g157
S'\xa3\\\x1a\xbf\xf0\x9a\x18\xc0'
p1605
tp1606
Rp1607
g1553
(g157
S'`\x05\xf8n\xf3F\x14@'
p1608
tp1609
Rp1610
tp1611
tp1612
g543
s(Vsquare_packing_box2
p1613
(g1553
(g157
S'\xb6e\xc0YJ\xd6\x0c@'
p1614
tp1615
Rp1616
g1553
(g157
S'\x17a\x8ari|\x1d\xc0'
p1617
tp1618
Rp1619
g1553
(g157
S'\xf7w\xb6Go\x08\x18@'
p1620
tp1621
Rp1622
tp1623
tp1624
g551
s(Vsquare_packing_box4
p1625
(g1553
(g157
S'O\x93\x19o+\xfd\xfe?'
p1626
tp1627
Rp1628
g1553
(g157
S'h\xe74\x0b\xb4\xdb\x1d\xc0'
p1629
tp1630
Rp1631
g1553
(g157
S's\xf2"\x13\xf0\x8b\t@'
p1632
tp1633
Rp1634
tp1635
tp1636
g563
s(Vrectangular_packing_box2
p1637
(g1553
(g157
S'U\xbf\xd2\xf9\xf0,\xf4?'
p1638
tp1639
Rp1640
g1553
(g157
S'\xc4{\x0e,G\xd8\x16\xc0'
p1641
tp1642
Rp1643
g1553
(g157
S'\x8d\x7f\x9fq\xe1p\x18@'
p1644
tp1645
Rp1646
tp1647
tp1648
g539
ssS'state_saver'
p1649
(igtamp_utils.utils
CustomStateSaver
p1650
(dp1651
S'robot_base_pose'
p1652
g22
(g23
(I0
tp1653
g25
tp1654
Rp1655
(I1
(I1
I3
tp1656
g157
I00
S'\xce\xcc>\xee\xab\x82\xf1?T \xafy\xfe\xa3\x1a\xc0\x18"\xea\xf5ft\x16@'
p1657
tp1658
bsS'held_object'
p1659
NsS'robot_name'
p1660
S'pr2'
p1661
sS'env_id'
p1662
I1
sg1476
(dp1663
Vright_wall_1
p1664
g22
(g23
(I0
tp1665
g25
tp1666
Rp1667
(I1
(I4
tp1668
g157
I00
S'H\xe1z\x14\xaeG\x12@&\\\x8f\xc2\xf5(\xd4\xbf\xcc\x7fH\xbf}\x1d\xed?\x00\x00\x00\x00\x00\x00\x00\x00'
p1669
tp1670
bsVc_obst5
p1671
g22
(g23
(I0
tp1672
g25
tp1673
Rp1674
(I1
(I4
tp1675
g157
I00
S"\xdf\n=\xa5xv\x12@\x87%\x02\xaa\x14\xd5\xcc?e\xaa`TR'\xed?E\x95\xb5\xbd\xb1?\x18@"
p1676
tp1677
bsVentrance_right
p1678
g22
(g23
(I0
tp1679
g25
tp1680
Rp1681
(I1
(I4
tp1682
g157
I00
S'ffffff\n@H\xe1z\x14\xaeG\t\xc0\x9c\xc4 \xb0rh\xc1?\x00\x00\x00\x00\x00\x00\x00\x00'
p1683
tp1684
bsVcomputer_table
p1685
g22
(g23
(I0
tp1686
g25
tp1687
Rp1688
(I1
(I4
tp1689
g157
I00
S'\x00\x00\x00\x00\x00\x00\x13@\x00\x00\x00\x00\x00\x00\xf8\xbf\x96C\x8bl\xe7\xfb\xe7?\xd2!3\x7f|\xd9\x12@'
p1690
tp1691
bsVchair_6b56
p1692
g22
(g23
(I0
tp1693
g25
tp1694
Rp1695
(I1
(I4
tp1696
g157
I00
S'u=\n\xd7\xa3p\xf5?K\xe1z\x14\xaeG\xd1?\x00\x00\x00\x00\x00\x00\x00\x00\xd6$\xfaNBm\n@'
p1697
tp1698
bsVsquare_packing_box3
p1699
g22
(g23
(I0
tp1700
g25
tp1701
Rp1702
(I1
(I4
tp1703
g157
I00
S'Cm\xfa9kU\x04@\x17$\xa7\xdf\xb1\xbf\x16\xc0L7\x89A`\xe5\xd8?-&\xae{\xae\xdf\xdb?'
p1704
tp1705
bsVsquare_packing_box2
p1706
g22
(g23
(I0
tp1707
g25
tp1708
Rp1709
(I1
(I4
tp1710
g157
I00
S'\x84D\x06\x85J\xd6\x0c@\xdd\xe6\x88[i|\x1d\xc0L7\x89A`\xe5\xd8?m\x08\xd5*o\x08\x18@'
p1711
tp1712
bsVtable
p1713
g22
(g23
(I0
tp1714
g25
tp1715
Rp1716
(I1
(I4
tp1717
g157
I00
S'\x7f\xf6#EdX\xed?\xac\xffs\x98//\xc0\xbf\x00\x00\x00\x00\x00\x00\x00\x00\x00\x00\x00\x00\x00\x00\x00\x00'
p1718
tp1719
bsVsquare_packing_box1
p1720
g22
(g23
(I0
tp1721
g25
tp1722
Rp1723
(I1
(I4
tp1724
g157
I00
S'\xad\x17\xd7\xbe\x19\xb1\xff?W\xd4\xe6\xe5W\x96\x19\xc0L7\x89A`\xe5\xd8?\xec\xfa\xbf\xa1X\xda\xf9?'
p1725
tp1726
bsVback_wall_2
p1727
g22
(g23
(I0
tp1728
g25
tp1729
Rp1730
(I1
(I4
tp1731
g157
I00
S'\xaeG\xe1z\x14.\x13@\x80\x14\xaeG\xe1z\xc4?xX\xa85\xcd\xbb\xf2?\x00\x00\x00\x00\x00\x00\x00\x00'
p1732
tp1733
bsVchair_083c
p1734
g22
(g23
(I0
tp1735
g25
tp1736
Rp1737
(I1
(I4
tp1738
g157
I00
S'\xa4p=\n\xd7\xa3\xe0?333333\xe3\xbf\x00\x00\x00\x00\x00\x00\x00\x00\x00\x00\x00\x00\x00\x00\x00\x00'
p1739
tp1740
bsVback_wall_1
p1741
g22
(g23
(I0
tp1742
g25
tp1743
Rp1744
(I1
(I4
tp1745
g157
I00
S'\xaeG\xe1z\x14.\x13@\x80\x14\xaeG\xe1z\xc4?\xcc\x7fH\xbf}\x1d\xed?\x00\x00\x00\x00\x00\x00\x00\x00'
p1746
tp1747
bsVbottom_wall
p1748
g22
(g23
(I0
tp1749
g25
tp1750
Rp1751
(I1
(I4
tp1752
g157
I00
S'\x00\x00\x00\x00\x00\x00\xfc?\x00\x00\x00\x00\x00\x00\x00\x00\x00\x00\x00\x00\x00\x00\x00\x00\x00\x00\x00\x00\x00\x00\x00\x00'
p1753
tp1754
bsVcup_905a
p1755
g22
(g23
(I0
tp1756
g25
tp1757
Rp1758
(I1
(I4
tp1759
g157
I00
S'\x00\x00\x00\x00\x00\x00\xf0?\x83\xc0\xca\xa1E\xb6\xdb?\x1b/\xdd$\x06\x81\xed?\x00\x00\x00\x00\x00\x00\x00\x00'
p1760
tp1761
bsVplate_496f
p1762
g22
(g23
(I0
tp1763
g25
tp1764
Rp1765
(I1
(I4
tp1766
g157
I00
S"q=\n\xd7\xa3p\xe5?\x9dhW!\xe5'\xdd\xbf\x1b/\xdd$\x06\x81\xed?\x00\x00\x00\x00\x00\x00\x00\x00"
p1767
tp1768
bsVtoaster
p1769
g22
(g23
(I0
tp1770
g25
tp1771
Rp1772
(I1
(I4
tp1773
g157
I00
S')\\\x8f\xc2\xf5(\xf4\xbf\xe0z\x14\xaeG\xe1\xf2\xbf\xb8\x1e\x85\xebQ\xb8\xee?\x89/`\x9b\xf8\x8a\xe4?'
p1774
tp1775
bsVc_obst1
p1776
g22
(g23
(I0
tp1777
g25
tp1778
Rp1779
(I1
(I4
tp1780
g157
I00
S"7\xe0\x03\x95\x82\x90\x12@\xa6\xb6w\x82\xfb\x02\xe1?e\xaa`TR'\xed?\x9b\xa7|\x8f-\xf5\x12@"
p1781
tp1782
bsVrectangular_packing_box4
p1783
g22
(g23
(I0
tp1784
g25
tp1785
Rp1786
(I1
(I4
tp1787
g157
I00
S'\x83\xb6\xae\x04\xb86\x08@\x12#f\xb9E \x1d\xc0L7\x89A`\xe5\xd8?\x7f:\xc9\xde\x05y\x16@'
p1788
tp1789
bsVmicrowave
p1790
g22
(g23
(I0
tp1791
g25
tp1792
Rp1793
(I1
(I4
tp1794
g157
I00
S'\x9a\x99\x99\x99\x99\x99\xf1\xbf\x00\x00\x00\x00\x00\x00\x00@7\x89A`\xe5\xd0\xee?\x00\x00\x00\x00\x00\x00\x00\x00'
p1795
tp1796
bsVc_obst7
p1797
g22
(g23
(I0
tp1798
g25
tp1799
Rp1800
(I1
(I4
tp1801
g157
I00
S"V\xcf\xef\x02i\x16\x12@\xc8t\xc4giG\xda?e\xaa`TR'\xed?\xe4l;\x8b#\x1d\x0e@"
p1802
tp1803
bsVc_obst6
p1804
g22
(g23
(I0
tp1805
g25
tp1806
Rp1807
(I1
(I4
tp1808
g157
I00
S"K\xd8\xe3\xab|~\x12@L\xc0\xda8O\x82\xbb?e\xaa`TR'\xed?\x9a\x85\xd2i<\xc3\x0f@"
p1809
tp1810
bsVcup_b6af
p1811
g22
(g23
(I0
tp1812
g25
tp1813
Rp1814
(I1
(I4
tp1815
g157
I00
S'R\xb8\x1e\x85\xebQ\xe8?\x9a\x99\x99\x99\x99\x99\xe1?\x1b/\xdd$\x06\x81\xed?\x00\x00\x00\x00\x00\x00\x00\x00'
p1816
tp1817
bsVc_obst4
p1818
g22
(g23
(I0
tp1819
g25
tp1820
Rp1821
(I1
(I4
tp1822
g157
I00
S"\xa1>OW\xe2\x8e\x12@\x98\xfb\x17\x1aZ\xa6\xd8?e\xaa`TR'\xed?suv\xedV\xcb\xd0?"
p1823
tp1824
bsVrectangular_packing_box2
p1825
g22
(g23
(I0
tp1826
g25
tp1827
Rp1828
(I1
(I4
tp1829
g157
I00
S't /\x03\xf1,\xf4?\xf3\xe8r3G\xd8\x16\xc0L7\x89A`\xe5\xd8?\xf4?xq\xe1p\x18@'
p1830
tp1831
bsVplate_fa76
p1832
g22
(g23
(I0
tp1833
g25
tp1834
Rp1835
(I1
(I4
tp1836
g157
I00
S'=\n\xd7\xa3p=\xf2?\x00\x00\x00\x00\x00\x00\x00\x00\x1b/\xdd$\x06\x81\xed?\x00\x00\x00\x00\x00\x00\x00\x00'
p1837
tp1838
bsVfloorwalls
p1839
g22
(g23
(I0
tp1840
g25
tp1841
Rp1842
(I1
(I4
tp1843
g157
I00
S'\xc7\xcc\xcc\xcc\xcc\xcc\xfc?\x00\x00\x00\x00\x00\x00\x18\xc0H\xe1z\x14\xaeG\xc1?\x16-DT\xfb!\xf9?'
p1844
tp1845
bsVpin_c671
p1846
g22
(g23
(I0
tp1847
g25
tp1848
Rp1849
(I1
(I4
tp1850
g157
I00
S'\xc3\xf5(\\\x8f\xc2\xf1\xbf}?5^\xbaI\x02@\xb8\x1e\x85\xebQ\xb8\xfa?\x00\x00\x00\x00\x00\x00\x00\x00'
p1851
tp1852
bsVc_obst3
p1853
g22
(g23
(I0
tp1854
g25
tp1855
Rp1856
(I1
(I4
tp1857
g157
I00
S"\xb1\xb7\xe6J\x0fQ\x12@\xc0.\xd1\xfe\x80\xb2\xbb\xbfe\xaa`TR'\xed?\xb7\x01\xe0\x8c\x08E\x08@"
p1858
tp1859
bsVchair_2e39
p1860
g22
(g23
(I0
tp1861
g25
tp1862
Rp1863
(I1
(I4
tp1864
g157
I00
S'hfffff\xee?cfffff\xf2\xbf\x00\x00\x00\x00\x00\x00\x00\x00\x07M\xe8QQF\xf3?'
p1865
tp1866
bsVentrance_left
p1867
g22
(g23
(I0
tp1868
g25
tp1869
Rp1870
(I1
(I4
tp1871
g157
I00
S'\x98\x99\x99\x99\x99\x99\xe9\xbfH\xe1z\x14\xaeG\t\xc0\x9c\xc4 \xb0rh\xc1?\x00\x00\x00\x00\x00\x00\x00\x00'
p1872
tp1873
bsVtop_wall_1
p1874
g22
(g23
(I0
tp1875
g25
tp1876
Rp1877
(I1
(I4
tp1878
g157
I00
S'H\xe1z\x14\xaeG\x12@\x80\x14\xaeG\xe1z\xc4?xX\xa85\xcd\xbb\xf2?\x00\x00\x00\x00\x00\x00\x00\x00'
p1879
tp1880
bsVrectangular_packing_box3
p1881
g22
(g23
(I0
tp1882
g25
tp1883
Rp1884
(I1
(I4
tp1885
g157
I00
S'\x98\x8f\xde+\xe7B\n@\x0b\x8b\xf8\xde\xf0\x9a\x18\xc0L7\x89A`\xe5\xd8?i\xe2\xf0r\xf3F\x14@'
p1886
tp1887
bsVshaker
p1888
g22
(g23
(I0
tp1889
g25
tp1890
Rp1891
(I1
(I4
tp1892
g157
I00
S'\n\xd7\xa3p=\n\x01@\x14\xaeG\xe1z\x14\x02@\\\x8f\xc2\xf5(\\\xef?\x00\x00\x00\x00\x00\x00\x00\x00'
p1893
tp1894
bsVc_obst9
p1895
g22
(g23
(I0
tp1896
g25
tp1897
Rp1898
(I1
(I4
tp1899
g157
I00
S"4_\x11\xd4\x1f\x96\x12@\x80\xbbe/\xf0\xa3\xa2?e\xaa`TR'\xed?b1]\x92\x9cV\x10@"
p1900
tp1901
bsVplate_835a
p1902
g22
(g23
(I0
tp1903
g25
tp1904
Rp1905
(I1
(I4
tp1906
g157
I00
S'\xf6(\\\x8f\xc2\xf5\xf0?\\\x8f\xc2\xf5(\\\xe7\xbf\x1b/\xdd$\x06\x81\xed?\x00\x00\x00\x00\x00\x00\x00\x00'
p1907
tp1908
bsVcup_58a2
p1909
g22
(g23
(I0
tp1910
g25
tp1911
Rp1912
(I1
(I4
tp1913
g157
I00
S'\x85\xebQ\xb8\x1e\x85\xe3?\xcd\xcc\xcc\xcc\xcc\xcc\xdc?\x1b/\xdd$\x06\x81\xed?\x00\x00\x00\x00\x00\x00\x00\x00'
p1914
tp1915
bsVleft_wall_1
p1916
g22
(g23
(I0
tp1917
g25
tp1918
Rp1919
(I1
(I4
tp1920
g157
I00
S'H\xe1z\x14\xaeG\x12@S\xb8\x1e\x85\xebQ\xe4?\xcc\x7fH\xbf}\x1d\xed?\x00\x00\x00\x00\x00\x00\x00\x00'
p1921
tp1922
bsVc_obst2
p1923
g22
(g23
(I0
tp1924
g25
tp1925
Rp1926
(I1
(I4
tp1927
g157
I00
S"K\xe3\xf9R\xf3a\x12@{\x14\xd1\x07\xc7\x1e\xd3?e\xaa`TR'\xed?&\xa0\xea\xd0.\r\x11@"
p1928
tp1929
bsVsquare_packing_box4
p1930
g22
(g23
(I0
tp1931
g25
tp1932
Rp1933
(I1
(I4
tp1934
g157
I00
S"r\xc9\x12\xf0+\xfd\xfe?K\x9e\xf8'\xb4\xdb\x1d\xc0L7\x89A`\xe5\xd8?\xdaX_\xfb\xef\x8b\t@"
p1935
tp1936
bsVrectangular_packing_box1
p1937
g22
(g23
(I0
tp1938
g25
tp1939
Rp1940
(I1
(I4
tp1941
g157
I00
S'\x90\xc1\xc0\x04\xd8)S\xbfnb\xeax\xaa\x85\x19\xc0L7\x89A`\xe5\xd8?\x8b\xb4\xd6\xbb\xf2Y\xd7?'
p1942
tp1943
bsVpin_371e
p1944
g22
(g23
(I0
tp1945
g25
tp1946
Rp1947
(I1
(I4
tp1948
g157
I00
S'333333\xf3\xbfffffff\xf6?\xb8\x1e\x85\xebQ\xb8\xee?\x00\x00\x00\x00\x00\x00\x00\x00'
p1949
tp1950
bsVfridge
p1951
g22
(g23
(I0
tp1952
g25
tp1953
Rp1954
(I1
(I4
tp1955
g157
I00
S'\xd7\xa3p=\n\xd7\xeb\xbf\x00\x00\x00\x00\x00\x00\x00\xc0\xcd\xcc\xcc\xcc\xcc\xcc\xf8?\x00\x00\x00\x00\x00\x00\x00\x00'
p1956
tp1957
bsVcup_d441
p1958
g22
(g23
(I0
tp1959
g25
tp1960
Rp1961
(I1
(I4
tp1962
g157
I00
S'\n\xd7\xa3p=\n\xef?\x8f\xc2\xf5(\\\x8f\xe2?\x1b/\xdd$\x06\x81\xed?\x00\x00\x00\x00\x00\x00\x00\x00'
p1963
tp1964
bsVshelf2
p1965
g22
(g23
(I0
tp1966
g25
tp1967
Rp1968
(I1
(I4
tp1969
g157
I00
S'\x00\x00\x00\x00\x00\x00\x0e@\xaeG\xe1z\x14\xae\x07@\x9c\xc4 \xb0rh\xc1?\xd2!3\x7f|\xd9\x12@'
p1970
tp1971
bsVtop_wall_2
p1972
g22
(g23
(I0
tp1973
g25
tp1974
Rp1975
(I1
(I4
tp1976
g157
I00
S'H\xe1z\x14\xaeG\x12@\x80\x14\xaeG\xe1z\xc4?\x16HP\xfc\x18\xf3\xfd?\x00\x00\x00\x00\x00\x00\x00\x00'
p1977
tp1978
bsVc_obst0
p1979
g22
(g23
(I0
tp1980
g25
tp1981
Rp1982
(I1
(I4
tp1983
g157
I00
S"\xf3t\x1bb\xe3\xfd\x11@x\xc0\x9c\x9c\x0eq\xc0\xbfe\xaa`TR'\xed?\xc1xn\x00N\xcc\xf3?"
p1984
tp1985
bsVshelf1
p1986
g22
(g23
(I0
tp1987
g25
tp1988
Rp1989
(I1
(I4
tp1990
g157
I00
S'\x00\x00\x00\x00\x00\x00\x13@\xaeG\xe1z\x14\xae\x07@\x9c\xc4 \xb0rh\xc1?\xd2!3\x7f|\xd9\x12@'
p1991
tp1992
bsVsink
p1993
g22
(g23
(I0
tp1994
g25
tp1995
Rp1996
(I1
(I4
tp1997
g157
I00
S'ffffff\xd6?333333\x01@\x9a\x99\x99\x99\x99\x99\xb9\xbf\x00\x00\x00\x00\x00\x00\x00\x00'
p1998
tp1999
bsVpr2
p2000
g22
(g23
(I0
tp2001
g25
tp2002
Rp2003
(I1
(I4
tp2004
g157
I00
S'\xd6\xcc>\xee\xab\x82\xf1?T \xafy\xfe\xa3\x1a\xc0\x9a_\x94\xa0\xbf\xd0\xc1?\x18"\xea\xf5ft\x16@'
p2005
tp2006
bsVchair_12d0
p2007
g22
(g23
(I0
tp2008
g25
tp2009
Rp2010
(I1
(I4
tp2011
g157
I00
S'\\\xd2\x18\xad\xa3\xaa\xdb?Of\x83L2r\xc6?\x00\x00\x00\x00\x00\x00\x00\x00\xf8\x81\r\x14M\xa6\x17@'
p2012
tp2013
bsVright_wall_2
p2014
g22
(g23
(I0
tp2015
g25
tp2016
Rp2017
(I1
(I4
tp2018
g157
I00
S'H\xe1z\x14\xaeG\x12@&\\\x8f\xc2\xf5(\xd4\xbfxX\xa85\xcd\xbb\xf2?\x00\x00\x00\x00\x00\x00\x00\x00'
p2019
tp2020
bsVknife_block
p2021
g22
(g23
(I0
tp2022
g25
tp2023
Rp2024
(I1
(I4
tp2025
g157
I00
S'R\xb8\x1e\x85\xebQ\xe0\xbfffffff\x02@`\xe5\xd0"\xdb\xf9\xee?\x00\x00\x00\x00\x00\x00\x00\x00'
p2026
tp2027
bsVleft_wall_2
p2028
g22
(g23
(I0
tp2029
g25
tp2030
Rp2031
(I1
(I4
tp2032
g157
I00
S'H\xe1z\x14\xaeG\x12@S\xb8\x1e\x85\xebQ\xe4?xX\xa85\xcd\xbb\xf2?\x00\x00\x00\x00\x00\x00\x00\x00'
p2033
tp2034
bsVleft_wall
p2035
g22
(g23
(I0
tp2036
g25
tp2037
Rp2038
(I1
(I4
tp2039
g157
I00
S'\x9a\x99\x99\x99\x99\x99\x07@H\xe1z\x14\xaeG\xff?\x9c\xc4 \xb0rh\xc1?\x00\x00\x00\x00\x00\x00\x00\x00'
p2040
tp2041
bsVkitchen
p2042
g22
(g23
(I0
tp2043
g25
tp2044
Rp2045
(I1
(I4
tp2046
g157
I00
S'\x00\x00\x00\x00\x00\x00\x00\x00\x00\x00\x00\x00\x00\x00\x00\x00\x00\x00\x00\x00\x00\x00\x00\x00\x00\x00\x00\x00\x00\x00\x00\x00'
p2047
tp2048
bsVtable2
p2049
g22
(g23
(I0
tp2050
g25
tp2051
Rp2052
(I1
(I4
tp2053
g157
I00
S'\x00\x00\x00\x00\x00\x00\x13@\x80\x14\xaeG\xe1z\xc4?S\x96!\x8euq\xec?\xd2!3\x7f|\xd9\x12@'
p2054
tp2055
bsVc_obst8
p2056
g22
(g23
(I0
tp2057
g25
tp2058
Rp2059
(I1
(I4
tp2060
g157
I00
S"<u:k\x9c#\x12@`\x8eH\x17j\xd7\xde?e\xaa`TR'\xed?\xa7\xcb\x80\x8eU]\x06@"
p2061
tp2062
bsVplate_b4e7
p2063
g22
(g23
(I0
tp2064
g25
tp2065
Rp2066
(I1
(I4
tp2067
g157
I00
S'\x14\xaeG\xe1z\x14\xf2\xbf\x14\xaeG\xe1z\x14\x00@=\n\xd7\xa3p=\xf2?\x00\x00\x00\x00\x00\x00\x00\x00'
p2068
tp2069
bsVcooker
p2070
g22
(g23
(I0
tp2071
g25
tp2072
Rp2073
(I1
(I4
tp2074
g157
I00
S'\xaeG\xe1z\x14\xae\xff?\x85\xebQ\xb8\x1e\x85\xfb?\x00\x00\x00\x00\x00\x00\xe8?\x00\x00\x00\x00\x00\x00\x00\x00'
p2075
tp2076
bsVpin_a091
p2077
g22
(g23
(I0
tp2078
g25
tp2079
Rp2080
(I1
(I4
tp2081
g157
I00
S'\xdb\xf9~j\xbct\xf7\xbf)\\\x8f\xc2\xf5(\x02@\xb8\x1e\x85\xebQ\xb8\xfa?\x00\x00\x00\x00\x00\x00\x00\x00'
p2082
tp2083
bsVside_wall_2
p2084
g22
(g23
(I0
tp2085
g25
tp2086
Rp2087
(I1
(I4
tp2088
g157
I00
S'\xfa\xff\xff\xff\xff\xff\x14@\x00\x00\x00\x00\x00\x00\x00\x00\x9c\xc4 \xb0rh\xc1?\x18-DT\xfb!\xf9?'
p2089
tp2090
bsVside_wall_3
p2091
g22
(g23
(I0
tp2092
g25
tp2093
Rp2094
(I1
(I4
tp2095
g157
I00
S'\x00\x00\x00\x00\x00\x00\xfc?H\xe1z\x14\xaeG\t@\x9c\xc4 \xb0rh\xc1?\x00\x00\x00\x00\x00\x00\x00\x00'
p2096
tp2097
bsVmixer
p2098
g22
(g23
(I0
tp2099
g25
tp2100
Rp2101
(I1
(I4
tp2102
g157
I00
S'\n\xd7\xa3p=\n\xfb?ffffff\x02@d;\xdfO\x8d\x97\xee?\x00\x00\x00\x00\x00\x00\x00\x00'
p2103
tp2104
bsVside_wall_1
p2105
g22
(g23
(I0
tp2106
g25
tp2107
Rp2108
(I1
(I4
tp2109
g157
I00
S'\xf4\xff\xff\xff\xff\xff\xfb\xbf\x00\x00\x00\x00\x00\x00\x00\x00\x9c\xc4 \xb0rh\xc1?\x18-DT\xfb!\xf9?'
p2110
tp2111
bsVbottom_wall_1
p2112
g22
(g23
(I0
tp2113
g25
tp2114
Rp2115
(I1
(I4
tp2116
g157
I00
S'H\xe1z\x14\xaeG\x12@\x80\x14\xaeG\xe1z\xc4?\xcc\x7fH\xbf}\x1d\xed?\x00\x00\x00\x00\x00\x00\x00\x00'
p2117
tp2118
bsVcan
p2119
g22
(g23
(I0
tp2120
g25
tp2121
Rp2122
(I1
(I4
tp2123
g157
I00
S'\x00\x00\x00\x00\x00\x00\xf4\xbfH\xe1z\x14\xaeG\xe1\xbf\n\xd7\xa3p=\n\xef?\x00\x00\x00\x00\x00\x00\x00\x00'
p2124
tp2125
bsVright_wall
p2126
g22
(g23
(I0
tp2127
g25
tp2128
Rp2129
(I1
(I4
tp2130
g157
I00
S'\x9a\x99\x99\x99\x99\x99\x07@H\xe1z\x14\xaeG\xff\xbf\x9c\xc4 \xb0rh\xc1?\x00\x00\x00\x00\x00\x00\x00\x00'
p2131
tp2132
bsVcoffe_machine
p2133
g22
(g23
(I0
tp2134
g25
tp2135
Rp2136
(I1
(I4
tp2137
g157
I00
S'\\\x8f\xc2\xf5(\\\xf5\xbf\xb8\x1e\x85\xebQ\xb8\xee?\n\xd7\xa3p=\n\xef?\x00\x00\x00\x00\x00\x00\x00\x00'
p2138
tp2139
bsVcomputer_chair
p2140
g22
(g23
(I0
tp2141
g25
tp2142
Rp2143
(I1
(I4
tp2144
g157
I00
S'\xcd\xcc\xcc\xcc\xcc\xcc\x10@\x00\x00\x00\x00\x00\x00\xf8\xbf\xa00\xb6\x10\xe4\xa9\x95\xbf\x00\x00\x00\x00\x00\x00\x00\x00'
p2145
tp2146
bssS'robot_dof_values'
p2147
g22
(g23
(I0
tp2148
g25
tp2149
Rp2150
(I1
(I39
tp2151
g157
I00
S'\x00\x00\x00\x00\x00\x00\x00\x00\x00\x00\x00\x00\x00\x00\x00\x00\x00\x00\x00\x00\x00\x00\x00\x00\x00\x00\x00\x00\x00\x00\x00\x00\x00\x00\x00\x00\x00\x00\x00\x00\x00\x00\x00\x00\x00\x00\x00\x00\x00\x00\x00\x00\x00\x00\x00\x00\x00\x00\x00\x00\x00\x00\x00\x00\x00\x00\x00\x00\x00\x00\x00\x00\x00\x00\x00\x00\x00\x00\x00\x00\x00\x00\x00\x00\x00\x00\x00\x00\x00\x00\x00\x00\x00\x00\x00\x00@d;\xdfO\x8d\x87?\x00\x00\x00\x00\x00\x00\x00\x00\x00\x00\x00\x00\x00\x00\x00\x00\x00\x00\x00\x00\x00\x00\x00\x00\xee\xed\t\xf1\xcc\xa4\xf4?\x00\x00\x00\x00\x00\x00\xb0\xbcN"\xd0^p\xf8\x00\xc0\x00\x00\x00\x00\x00\x00\x00\x00\x9b\x03\r.\x04V\xe6\xbf\x00\x00\x00\x00\x00\x00\x00\x00\x00\x00\x00\x00\x00\x00\x00\x00\x00\x00\x00\x00\x00\x00\xbe\xbc\x00\x00\x00\x00\x00\x00\x00\x00\x00\x00\x00\x00\x00\x00\xd0<\x00\x00\x00\x00\x00\x00\x00\x00\x00\x00\x00\x00\x00\x00\x00\x00\xec\xed\t\xf1\xcc\xa4\xf4?\x00\x00\x00\x00\x00\x00\x00\x00N"\xd0^p\xf8\x00\xc0\x00\x00\x00\x00\x00\x00\x00\x00\x9d\x03\r.\x04V\xe6\xbf\x00\x00\x00\x00\x00\x00\x00\x00\xce9\xe3\xc17\x89\xe1?\x00\x00\x00\x00\x00\x00\xb2<\x00\x00\x00\x00\x00\x00\x00\x00\x00\x00\x00\x00\x00\x00\xe8<\x00\x00\x00\x00\x00\x00\x00\x00'
p2152
tp2153
bsS'is_holding'
p2154
I00
sbsS'holding_collides'
p2155
NsS'parent_ternary_predicates'
p2156
(dp2157
sS'cached_place_paths'
p2158
(dp2159
(g527
g980
tp2160
(lp2161
g22
(g23
(I0
tp2162
g25
tp2163
Rp2164
(I1
(I3
tp2165
g157
I00
S'\x1d=f\x01$\xcb\xca?\xb8\xa2\xe3\xff\xc6w\x1c\xc0A\x05\x9c\x90\xcd\xb5\xf7?'
p2166
tp2167
bas(g528
g148
tp2168
g211
s(g566
g148
tp2169
g262
s(g801
g980
tp2170
(lp2171
g22
(g23
(I0
tp2172
g25
tp2173
Rp2174
(I1
(I3
tp2175
g157
I00
S'\x01\xce\xbe\x17f\x05\n@\xb8\xed\xd7\tA\x97\x16\xc0Ix\xa6\xfbm\xfd\x0b@'
p2176
tp2177
bas(g566
g980
tp2178
(lp2179
g22
(g23
(I0
tp2180
g25
tp2181
Rp2182
(I1
(I3
tp2183
g157
I00
S"\x10\xc6\xbe\x9aL\xeb\x03@d\x1a|A@\xc5\x1e\xc0^0\x9f'\x1d\x11\xe7?"
p2184
tp2185
bas(g801
g148
tp2186
g388
s(g745
g980
tp2187
(lp2188
g22
(g23
(I0
tp2189
g25
tp2190
Rp2191
(I1
(I3
tp2192
g157
I00
S"\x8fL;\xec\x00I\x07@\x9eU\xf7.E\x89\x1d\xc0\xf7\xe8\xbe\x825'\x17@"
p2193
tp2194
bas(g745
g148
tp2195
g325
s(g12
g148
tp2196
(lp2197
g22
(g23
(I0
tp2198
g25
tp2199
Rp2200
(I1
(I3
tp2201
g157
I00
S'\x14Q\xe2\xcd\xd0K\xf4?\x12\xf4^X\xf0T\x1a\xc0k\xdd\x0e\x06\xc5\x9f\xc0?'
p2202
tp2203
bag22
(g23
(I0
tp2204
g25
tp2205
Rp2206
(I1
(I3
tp2207
g168
I00
S'\xcb\xa0\xb6M\xadU\xef?ny]\x1b[.\x1a\xc0\x99\xfe\xc1BBE\xde?'
p2208
tp2209
bag22
(g23
(I0
tp2210
g25
tp2211
Rp2212
(I1
(I3
tp2213
g168
I00
S'B\x9aa8\x98\xa6\xe8?\xf3\xe9\x94/\xc2\xe4\x18\xc0u\xf8\xb0\x7fO\xb8\xf2?'
p2214
tp2215
bag22
(g23
(I0
tp2216
g25
tp2217
Rp2218
(I1
(I3
tp2219
g168
I00
S'\xd0\x185\xfd);\xc3?\x1c\xdfM\xe9\x03\xf1\x16\xc0y\xe4\x94w\xb3\xb2\x08\xc0'
p2220
tp2221
bag22
(g23
(I0
tp2222
g25
tp2223
Rp2224
(I1
(I3
tp2225
g168
I00
S'\xff\x1dX8\xbe\xd2\xc9?\x91h\xd1{\x1e(\x16\xc0\xee\xfeSI\xc3\xd4\x03\xc0'
p2226
tp2227
bag22
(g23
(I0
tp2228
g25
tp2229
Rp2230
(I1
(I3
tp2231
g168
I00
S"\xb2&6mg)\xe8?\x99\xe0G'\x16\xe0\x13\xc0\xc8oL\xf5\x17p\xe6\xbf"
p2232
tp2233
bag22
(g23
(I0
tp2234
g25
tp2235
Rp2236
(I1
(I3
tp2237
g168
I00
S'`\xc8Aw-\x81\xeb?/\xc3\xe6O\x04\xca\x10\xc0\x8a\xb7K)\x91{\xe4\xbf'
p2238
tp2239
bag22
(g23
(I0
tp2240
g25
tp2241
Rp2242
(I1
(I3
tp2243
g168
I00
S'\xe1\xc6\xc7\xa7\x12X\xe7?\x98\x99\xb0\x9a\xfb\xdb\x0b\xc0R\t\x1b)\xeae\xe0\xbf'
p2244
tp2245
bag22
(g23
(I0
tp2246
g25
tp2247
Rp2248
(I1
(I3
tp2249
g168
I00
S'p\xf1\xbdc^\x84\xf1?"\x88LL\xf9D\x06\xc0~w\r\xe9m\x0f\x19@'
p2250
tp2251
bas(g664
g148
tp2252
g150
s(g664
g980
tp2253
(lp2254
g22
(g23
(I0
tp2255
g25
tp2256
Rp2257
(I1
(I3
tp2258
g157
I00
S'F\xcd\x03\xeb\xf0}\x04@\x82;\x9c-\xcf%\x19\xc0l\xd8\xaf\x10qC\xdc?'
p2259
tp2260
bas(g528
g980
tp2261
(lp2262
g22
(g23
(I0
tp2263
g25
tp2264
Rp2265
(I1
(I3
tp2266
g157
I00
S':Ye\x00\xe5\x8f\xfe?\xcc\xd0\xa0D\xf0\xdd\x1a\xc0P\x1b\xaby\xa2E\x14@'
p2267
tp2268
bas(g12
g980
tp2269
(lp2270
g22
(g23
(I0
tp2271
g25
tp2272
Rp2273
(I1
(I3
tp2274
g157
I00
S'\x16Q\xe2\xcd\xd0K\xf4?\x13\xf4^X\xf0T\x1a\xc0\x16\xdd\x0e\x06\xc5\x9f\xc0?'
p2275
tp2276
bas(g620
g980
tp2277
(lp2278
g22
(g23
(I0
tp2279
g25
tp2280
Rp2281
(I1
(I3
tp2282
g157
I00
S'\xdb\x1f#\x7f\x8b\xb9\x00@\x92\x0bI\xe3\xa7\x11\x18\xc0\x8b<^\xde{\x0b\x05@'
p2283
tp2284
bas(g620
g148
tp2285
g445
s(g527
g148
tp2286
(lp2287
g22
(g23
(I0
tp2288
g25
tp2289
Rp2290
(I1
(I3
tp2291
g157
I00
S'\xe0<f\x01$\xcb\xca?\xb9\xa2\xe3\xff\xc6w\x1c\xc0A\x05\x9c\x90\xcd\xb5\xf7?'
p2292
tp2293
bag22
(g23
(I0
tp2294
g25
tp2295
Rp2296
(I1
(I3
tp2297
g168
I00
S'\xaf3:\xca\x05\xfa\xee?\x17\xfeO1BH\x1c\xc0&\xc3FV\xf0\xcb\xf7?'
p2298
tp2299
bag22
(g23
(I0
tp2300
g25
tp2301
Rp2302
(I1
(I3
tp2303
g168
I00
S'\xae\xea\x9e\xa3\xa2\xb1\xed?\xa4\xca\x1d?h\x96\x19\xc0dq\xdf\xb1\x9d\xe4\x05@'
p2304
tp2305
bag22
(g23
(I0
tp2306
g25
tp2307
Rp2308
(I1
(I3
tp2309
g168
I00
S'\xac\xb4\xd5\x83\xbb\xf9\xe0?\xe1\x80\xe9+%\xe6\x16\xc0<\xd6N\xab\x06\xcc\xf7\xbf'
p2310
tp2311
bag22
(g23
(I0
tp2312
g25
tp2313
Rp2314
(I1
(I3
tp2315
g168
I00
S"\xb2&6mg)\xe8?\x99\xe0G'\x16\xe0\x13\xc0\xc8oL\xf5\x17p\xe6\xbf"
p2316
tp2317
bag22
(g23
(I0
tp2318
g25
tp2319
Rp2320
(I1
(I3
tp2321
g168
I00
S'`\xc8Aw-\x81\xeb?/\xc3\xe6O\x04\xca\x10\xc0\x8a\xb7K)\x91{\xe4\xbf'
p2322
tp2323
bag22
(g23
(I0
tp2324
g25
tp2325
Rp2326
(I1
(I3
tp2327
g168
I00
S'\xe1\xc6\xc7\xa7\x12X\xe7?\x98\x99\xb0\x9a\xfb\xdb\x0b\xc0R\t\x1b)\xeae\xe0\xbf'
p2328
tp2329
bag22
(g23
(I0
tp2330
g25
tp2331
Rp2332
(I1
(I3
tp2333
g168
I00
S'p\xf1\xbdc^\x84\xf1?"\x88LL\xf9D\x06\xc0~w\r\xe9m\x0f\x19@'
p2334
tp2335
bassS'parent_binary_predicates'
p2336
(dp2337
sS'nodes'
p2338
(dp2339
g983
(lp2340
I0
aI0
aI0
aI0
aI0
aI0
aI00
aI01
aI00
aI01
aI00
asg980
(lp2341
I0
aI0
aI0
aI0
aI0
aI0
aI00
aI01
aI00
aI01
aI00
asg148
(lp2342
I0
aI0
aI0
aI0
aI0
aI0
aI00
aI01
aI01
aI01
aI00
asg260
(lp2343
I0
aI0
aI0
ag1553
(g157
S')\xb6\xae\x04\xb86\x08@'
p2344
tp2345
Rp2346
ag1553
(g157
S'C#f\xb9E \x1d\xc0'
p2347
tp2348
Rp2349
ag1553
(g157
S'\x7f:\xc9\xde\x05y\x16@'
p2350
tp2351
Rp2352
aI01
aI00
aI00
aI00
aI00
asg443
(lp2353
I0
aI0
aI0
ag1553
(g157
S'h /\x03\xf1,\xf4?'
p2354
tp2355
Rp2356
ag1553
(g157
S'\xd9\xe8r3G\xd8\x16\xc0'
p2357
tp2358
Rp2359
ag1553
(g157
S'\xf4?xq\xe1p\x18@'
p2360
tp2361
Rp2362
aI01
aI00
aI00
aI00
aI00
asg147
(lp2363
I0
aI0
aI0
ag1553
(g157
S'\xed\x90\xde+\xe7B\n@'
p2364
tp2365
Rp2366
ag1553
(g157
S'\xd0\x8a\xf8\xde\xf0\x9a\x18\xc0'
p2367
tp2368
Rp2369
ag1553
(g157
S'h\xe2\xf0r\xf3F\x14@'
p2370
tp2371
Rp2372
aI01
aI00
aI00
aI00
aI00
asg943
(lp2373
I0
aI0
aI0
ag1553
(g157
S'1k\xc0\x04\xd8)S\xbf'
p2374
tp2375
Rp2376
ag1553
(g157
S'@b\xeax\xaa\x85\x19\xc0'
p2377
tp2378
Rp2379
ag1553
(g157
S'\x8b\xb4\xd6\xbb\xf2Y\xd7?'
p2380
tp2381
Rp2382
aI01
aI00
aI00
aI01
aI00
asg323
(lp2383
I0
aI0
aI0
ag1553
(g157
S'\x81D\x06\x85J\xd6\x0c@'
p2384
tp2385
Rp2386
ag1553
(g157
S'\xe4\xe6\x88[i|\x1d\xc0'
p2387
tp2388
Rp2389
ag1553
(g157
S'm\x08\xd5*o\x08\x18@'
p2390
tp2391
Rp2392
aI01
aI00
aI00
aI00
aI00
asg386
(lp2393
I0
aI0
aI0
ag1553
(g157
S'Bm\xfa9kU\x04@'
p2394
tp2395
Rp2396
ag1553
(g157
S'\x16$\xa7\xdf\xb1\xbf\x16\xc0'
p2397
tp2398
Rp2399
ag1553
(g157
S'-&\xae{\xae\xdf\xdb?'
p2400
tp2401
Rp2402
aI01
aI00
aI00
aI00
aI00
asg933
(lp2403
I0
aI0
aI0
ag1553
(g157
S'D\x17\xd7\xbe\x19\xb1\xff?'
p2404
tp2405
Rp2406
ag1553
(g157
S'Z\xd4\xe6\xe5W\x96\x19\xc0'
p2407
tp2408
Rp2409
ag1553
(g157
S'\xef\xfa\xbf\xa1X\xda\xf9?'
p2410
tp2411
Rp2412
aI01
aI00
aI01
aI01
aI00
asg209
(lp2413
I0
aI0
aI0
ag1553
(g157
S'\x1b\xc8\x12\xf0+\xfd\xfe?'
p2414
tp2415
Rp2416
ag1553
(g157
S"\xee\x9c\xf8'\xb4\xdb\x1d\xc0"
p2417
tp2418
Rp2419
ag1553
(g157
S'\xdaX_\xfb\xef\x8b\t@'
p2420
tp2421
Rp2422
aI01
aI00
aI00
aI01
aI00
assS'mc_place_path'
p2423
(dp2424
sS'parent_state'
p2425
NsS'goal_entities'
p2426
(lp2427
S'square_packing_box1'
p2428
ag148
asS'binary_edges'
p2429
(dp2430
(g323
g209
tp2431
(lp2432
I00
aI00
aI00
as(g323
g260
tp2433
(lp2434
I00
aI00
aI00
as(g147
g386
tp2435
(lp2436
I00
aI00
aI00
as(g147
g147
tp2437
(lp2438
I00
aI00
aI00
as(g443
g386
tp2439
(lp2440
I00
aI01
aI00
as(g443
g147
tp2441
(lp2442
I00
aI00
aI00
as(g209
g443
tp2443
(lp2444
I00
aI00
aI00
as(g323
g933
tp2445
(lp2446
I00
aI00
aI00
as(g943
g147
tp2447
(lp2448
I00
aI00
aI00
as(g260
g260
tp2449
(lp2450
I00
aI00
aI00
as(g443
g980
tp2451
(lp2452
g1553
(g29
(S'b1'
p2453
I0
I1
tp2454
Rp2455
(I3
S'|'
p2456
NNNI-1
I-1
I0
tp2457
bS'\x01'
p2458
tp2459
Rp2460
aI00
aI01
as(g983
g980
tp2461
(lp2462
I00
aI00
aI00
as(g260
g209
tp2463
(lp2464
I00
aI00
aI00
as(g980
g209
tp2465
(lp2466
I00
aI00
aI00
as(g933
g148
tp2467
(lp2468
I00
aI00
aI01
as(g983
g443
tp2469
(lp2470
I00
aI00
aI00
as(g443
g209
tp2471
(lp2472
I00
aI00
aI00
as(g147
g983
tp2473
(lp2474
g2460
aI00
aI00
as(g323
g323
tp2475
(lp2476
I00
aI00
aI00
as(g980
g323
tp2477
(lp2478
I00
aI00
aI00
as(g386
g443
tp2479
(lp2480
I00
aI00
aI00
as(g443
g148
tp2481
(lp2482
I00
aI00
aI00
as(g943
g386
tp2483
(lp2484
I00
aI00
aI00
as(g260
g943
tp2485
(lp2486
I00
aI00
aI00
as(g933
g933
tp2487
(lp2488
I00
aI00
aI00
as(g443
g983
tp2489
(lp2490
g2460
aI00
aI00
as(g980
g443
tp2491
(lp2492
I00
aI00
aI00
as(g980
g386
tp2493
(lp2494
I00
aI00
aI00
as(g980
g147
tp2495
(lp2496
I00
aI00
aI00
as(g386
g148
tp2497
(lp2498
I00
aI00
aI00
as(g209
g260
tp2499
(lp2500
I00
aI01
aI00
as(g943
g260
tp2501
(lp2502
I00
aI00
aI00
as(g386
g943
tp2503
(lp2504
I00
aI00
aI00
as(g980
g260
tp2505
(lp2506
I00
aI00
aI00
as(g983
g148
tp2507
(lp2508
I00
aI00
aI00
as(g933
g443
tp2509
(lp2510
I00
aI01
aI00
as(g260
g386
tp2511
(lp2512
I00
aI00
aI00
as(g983
g386
tp2513
(lp2514
I00
aI00
aI00
as(g386
g983
tp2515
(lp2516
g2460
aI00
aI00
as(g147
g323
tp2517
(lp2518
I00
aI00
aI00
as(g209
g933
tp2519
(lp2520
I00
aI00
aI00
as(g147
g443
tp2521
(lp2522
I00
aI00
aI00
as(g209
g148
tp2523
(lp2524
I00
aI00
aI00
as(g983
g983
tp2525
(lp2526
I00
aI00
aI00
as(g386
g260
tp2527
(lp2528
I00
aI00
aI00
as(g933
g323
tp2529
(lp2530
I00
aI01
aI00
as(g148
g933
tp2531
(lp2532
I00
aI00
aI00
as(g943
g980
tp2533
(lp2534
g2460
aI00
aI01
as(g148
g943
tp2535
(lp2536
I00
aI00
aI00
as(g209
g147
tp2537
(lp2538
I00
aI01
aI00
as(g147
g933
tp2539
(lp2540
I00
aI00
aI00
as(g386
g980
tp2541
(lp2542
g2460
aI00
aI01
as(g147
g943
tp2543
(lp2544
I00
aI00
aI00
as(g386
g386
tp2545
(lp2546
I00
aI00
aI00
as(g943
g443
tp2547
(lp2548
I00
aI00
aI00
as(g980
g148
tp2549
(lp2550
I00
aI00
aI00
as(g148
g323
tp2551
(lp2552
I00
aI00
aI00
as(g260
g148
tp2553
(lp2554
I00
aI00
aI00
as(g983
g943
tp2555
(lp2556
I00
aI00
aI00
as(g148
g209
tp2557
(lp2558
I00
aI00
aI00
as(g147
g209
tp2559
(lp2560
I00
aI00
aI00
as(g943
g983
tp2561
(lp2562
g2460
aI00
aI00
as(g209
g980
tp2563
(lp2564
g2460
aI00
aI01
as(g943
g323
tp2565
(lp2566
I00
aI00
aI00
as(g260
g443
tp2567
(lp2568
I00
aI00
aI00
as(g260
g980
tp2569
(lp2570
g2460
aI00
aI01
as(g148
g147
tp2571
(lp2572
I00
aI00
aI00
as(g983
g209
tp2573
(lp2574
I00
aI00
aI00
as(g983
g260
tp2575
(lp2576
I00
aI00
aI00
as(g943
g148
tp2577
(lp2578
I00
aI00
aI01
as(g323
g943
tp2579
(lp2580
I00
aI00
aI00
as(g933
g943
tp2581
(lp2582
I00
aI00
aI00
as(g148
g386
tp2583
(lp2584
I00
aI00
aI00
as(g980
g980
tp2585
(lp2586
I00
aI00
aI00
as(g323
g147
tp2587
(lp2588
I00
aI00
aI00
as(g933
g386
tp2589
(lp2590
I00
aI01
aI00
as(g980
g933
tp2591
(lp2592
I00
aI00
aI00
as(g443
g260
tp2593
(lp2594
I00
aI00
aI00
as(g980
g943
tp2595
(lp2596
I00
aI00
aI00
as(g933
g983
tp2597
(lp2598
g2460
aI00
aI00
as(g323
g443
tp2599
(lp2600
I00
aI00
aI00
as(g147
g148
tp2601
(lp2602
I00
aI00
aI00
as(g933
g260
tp2603
(lp2604
I00
aI00
aI00
as(g260
g933
tp2605
(lp2606
I00
aI00
aI00
as(g443
g933
tp2607
(lp2608
I00
aI00
aI00
as(g983
g323
tp2609
(lp2610
I00
aI00
aI00
as(g443
g943
tp2611
(lp2612
I00
aI00
aI00
as(g386
g323
tp2613
(lp2614
I00
aI00
aI00
as(g323
g980
tp2615
(lp2616
g2460
aI00
aI01
as(g943
g943
tp2617
(lp2618
I00
aI00
aI00
as(g209
g323
tp2619
(lp2620
I00
aI01
aI00
as(g933
g209
tp2621
(lp2622
I00
aI00
aI00
as(g443
g323
tp2623
(lp2624
I00
aI00
aI00
as(g443
g443
tp2625
(lp2626
I00
aI00
aI00
as(g209
g943
tp2627
(lp2628
I00
aI00
aI00
as(g323
g148
tp2629
(lp2630
I00
aI00
aI00
as(g386
g933
tp2631
(lp2632
I00
aI00
aI00
as(g147
g980
tp2633
(lp2634
g2460
aI00
aI01
as(g148
g443
tp2635
(lp2636
I00
aI00
aI00
as(g943
g933
tp2637
(lp2638
I00
aI00
aI00
as(g260
g147
tp2639
(lp2640
I00
aI00
aI00
as(g148
g980
tp2641
(lp2642
I00
aI00
aI00
as(g323
g386
tp2643
(lp2644
I00
aI00
aI00
as(g983
g147
tp2645
(lp2646
I00
aI00
aI00
as(g323
g983
tp2647
(lp2648
g2460
aI00
aI00
as(g386
g147
tp2649
(lp2650
I00
aI00
aI00
as(g148
g148
tp2651
(lp2652
I00
aI00
aI00
as(g943
g209
tp2653
(lp2654
I00
aI00
aI00
as(g260
g983
tp2655
(lp2656
g2460
aI00
aI00
as(g209
g983
tp2657
(lp2658
g2460
aI00
aI00
as(g148
g983
tp2659
(lp2660
I00
aI00
aI00
as(g148
g260
tp2661
(lp2662
I00
aI00
aI00
as(g386
g209
tp2663
(lp2664
I00
aI00
aI00
as(g209
g386
tp2665
(lp2666
I00
aI00
aI00
as(g147
g260
tp2667
(lp2668
I00
aI00
aI00
as(g980
g983
tp2669
(lp2670
I00
aI00
aI00
as(g933
g147
tp2671
(lp2672
I00
aI01
aI00
as(g260
g323
tp2673
(lp2674
I00
aI01
aI00
as(g209
g209
tp2675
(lp2676
I00
aI00
aI00
as(g933
g980
tp2677
(lp2678
g2460
aI00
aI01
as(g983
g933
tp2679
(lp2680
I00
aI00
aI00
assg525
g526
sS'pick_in_way'
p2681
(itrajectory_representation.predicates.pick_in_way
PickInWay
p2682
(dp2683
g145
(dp2684
g260
g601
sg443
g645
sg147
g695
sg943
g738
sg323
g776
sg386
g826
sg933
g856
sg209
g899
ssg494
(dp2685
g260
(lp2686
Vsquare_packing_box4
p2687
asg443
(lp2688
Vsquare_packing_box1
p2689
aVrectangular_packing_box2
p2690
asg147
(lp2691
Vsquare_packing_box1
p2692
aVsquare_packing_box4
p2693
asg943
(lp2694
sg323
(lp2695
Vsquare_packing_box1
p2696
aVsquare_packing_box4
p2697
aVrectangular_packing_box4
p2698
asg386
(lp2699
Vsquare_packing_box1
p2700
aVrectangular_packing_box2
p2701
asg933
(lp2702
sg209
(lp2703
ssg525
(lp2704
g943
ag209
ag983
ag148
ag980
ag933
ag983
ag148
ag980
ag983
ag148
ag980
ag983
ag148
ag980
ag983
ag148
ag980
ag983
ag148
ag980
ag983
ag148
ag980
ag983
ag148
ag980
asg529
g530
sg61
(dp2705
sg564
g565
sg920
Nsg926
g565
sg923
(dp2706
sg925
I8
sg975
I01
sg927
Nsg928
(dp2707
(g323
g209
tp2708
I00
s(g323
g260
tp2709
I00
s(g147
g386
tp2710
I00
s(g147
g147
tp2711
I00
s(g443
g386
tp2712
I01
s(g443
g147
tp2713
I00
s(g209
g443
tp2714
I00
s(g323
g933
tp2715
I00
s(g943
g147
tp2716
I00
s(g260
g260
tp2717
I00
s(g443
g980
tp2718
I00
s(g983
g980
tp2719
I00
s(g260
g209
tp2720
I00
s(g980
g209
tp2721
I00
s(g933
g148
tp2722
I00
s(g983
g443
tp2723
I00
s(g443
g209
tp2724
I00
s(g147
g983
tp2725
I00
s(g323
g323
tp2726
I00
s(g980
g323
tp2727
I00
s(g386
g443
tp2728
I00
s(g443
g148
tp2729
I00
s(g943
g386
tp2730
I00
s(g260
g943
tp2731
I00
s(g933
g933
tp2732
I00
s(g443
g983
tp2733
I00
s(g980
g443
tp2734
I00
s(g980
g386
tp2735
I00
s(g980
g147
tp2736
I00
s(g386
g148
tp2737
I00
s(g209
g260
tp2738
I01
s(g943
g260
tp2739
I00
s(g386
g943
tp2740
I00
s(g980
g260
tp2741
I00
s(g983
g148
tp2742
I00
s(g933
g443
tp2743
I01
s(g260
g386
tp2744
I00
s(g983
g386
tp2745
I00
s(g386
g983
tp2746
I00
s(g147
g323
tp2747
I00
s(g209
g933
tp2748
I00
s(g147
g443
tp2749
I00
s(g209
g148
tp2750
I00
s(g983
g983
tp2751
I00
s(g386
g260
tp2752
I00
s(g933
g323
tp2753
I01
s(g148
g933
tp2754
I00
s(g943
g980
tp2755
I00
s(g148
g943
tp2756
I00
s(g209
g147
tp2757
I01
s(g147
g933
tp2758
I00
s(g386
g980
tp2759
I00
s(g147
g943
tp2760
I00
s(g386
g386
tp2761
I00
s(g943
g443
tp2762
I00
s(g980
g148
tp2763
I00
s(g148
g323
tp2764
I00
s(g260
g148
tp2765
I00
s(g983
g943
tp2766
I00
s(g148
g209
tp2767
I00
s(g147
g209
tp2768
I00
s(g943
g983
tp2769
I00
s(g209
g980
tp2770
I00
s(g943
g323
tp2771
I00
s(g260
g443
tp2772
I00
s(g260
g980
tp2773
I00
s(g148
g147
tp2774
I00
s(g983
g209
tp2775
I00
s(g983
g260
tp2776
I00
s(g943
g148
tp2777
I00
s(g323
g943
tp2778
I00
s(g933
g943
tp2779
I00
s(g148
g386
tp2780
I00
s(g980
g980
tp2781
I00
s(g323
g147
tp2782
I00
s(g933
g386
tp2783
I01
s(g980
g933
tp2784
I00
s(g443
g260
tp2785
I00
s(g980
g943
tp2786
I00
s(g933
g983
tp2787
I00
s(g323
g443
tp2788
I00
s(g147
g148
tp2789
I00
s(g933
g260
tp2790
I00
s(g260
g933
tp2791
I00
s(g443
g933
tp2792
I00
s(g983
g323
tp2793
I00
s(g443
g943
tp2794
I00
s(g386
g323
tp2795
I00
s(g323
g980
tp2796
I00
s(g943
g943
tp2797
I00
s(g209
g323
tp2798
I01
s(g933
g209
tp2799
I00
s(g443
g323
tp2800
I00
s(g443
g443
tp2801
I00
s(g209
g943
tp2802
I00
s(g323
g148
tp2803
I00
s(g386
g933
tp2804
I00
s(g147
g980
tp2805
I00
s(g148
g443
tp2806
I00
s(g943
g933
tp2807
I00
s(g260
g147
tp2808
I00
s(g148
g980
tp2809
I00
s(g323
g386
tp2810
I00
s(g983
g147
tp2811
I00
s(g323
g983
tp2812
I00
s(g386
g147
tp2813
I00
s(g148
g148
tp2814
I00
s(g943
g209
tp2815
I00
s(g260
g983
tp2816
I00
s(g209
g983
tp2817
I00
s(g148
g983
tp2818
I00
s(g148
g260
tp2819
I00
s(g386
g209
tp2820
I00
s(g209
g386
tp2821
I00
s(g147
g260
tp2822
I00
s(g980
g983
tp2823
I00
s(g933
g147
tp2824
I01
s(g260
g323
tp2825
I01
s(g209
g209
tp2826
I00
s(g933
g980
tp2827
I00
s(g983
g933
tp2828
I00
ssg974
NsbsS'robot_pose'
p2829
g22
(g23
(I0
tp2830
g25
tp2831
Rp2832
(I1
(I1
I3
tp2833
g157
I00
S'\xcc\xcc>\xee\xab\x82\xf1?T \xafy\xfe\xa3\x1a\xc0\x18"\xea\xf5ft\x16@'
p2834
tp2835
bsS'is_holding_goal_entity'
p2836
(itrajectory_representation.predicates.is_holding_goal_entity
IsHoldingGoalEntity
p2837
(dp2838
g2426
g2427
sg927
NsbsS'mc_pick_path'
p2839
(dp2840
sS'current_collides'
p2841
g530
sbasS'seed'
p2842
NsS'state_prime'
p2843
(lp2844
sS'problem_idx'
p2845
I115
sb.