(itrajectory_representation.trajectory
Trajectory
p0
(dp1
S'rewards'
p2
(lp3
I10
asS'actions'
p4
(lp5
(itrajectory_representation.operator
Operator
p6
(dp7
S'is_skeleton'
p8
I00
sS'discrete_parameters'
p9
(dp10
S'object'
p11
Vsquare_packing_box1
p12
sS'two_arm_place_region'
p13
S'home_region'
p14
sS'two_arm_place_object'
p15
Vsquare_packing_box1
p16
ssS'type'
p17
S'two_arm_pick_two_arm_place'
p18
sS'continuous_parameters'
p19
(dp20
S'q_goal'
p21
cnumpy.core.multiarray
_reconstruct
p22
(cnumpy
ndarray
p23
(I0
tp24
S'b'
p25
tp26
Rp27
(I1
(I3
tp28
cnumpy
dtype
p29
(S'f8'
p30
I0
I1
tp31
Rp32
(I3
S'<'
p33
NNNI-1
I-1
I0
tp34
bI00
S'\x97\\\x17\xae\xd9\x95\xf8?\x0f_\xae\xf2W\x8c\x1a\xc0\x0c\xd2\xe1\xcbf\xa8\xf1\xbf'
p35
tp36
bsS'place'
p37
(dp38
g21
g22
(g23
(I0
tp39
g25
tp40
Rp41
(I1
(I3
tp42
g32
I00
S'\xa7\x14\xfb\xba\x12:\xe6?\x1ci]\x84\xaa_\x03\xc0\xd2\x83>\x8d6.\xfb?'
p43
tp44
bssS'pick'
p45
(dp46
g21
g27
sssS'low_level_motion'
p47
(lp48
g22
(g23
(I0
tp49
g25
tp50
Rp51
(I1
(I3
tp52
g32
I00
S'g^\xca\x10\x96_\xed?\x887\x1e\xc9D\xd8\x1a\xc0\xca\x84J\x91\xc3\xb6\x10@'
p53
tp54
bag22
(g23
(I0
tp55
g25
tp56
Rp57
(I1
(I3
tp58
g29
(S'f8'
p59
I0
I1
tp60
Rp61
(I3
S'<'
p62
NNNI-1
I-1
I0
tp63
bI00
S'\xb0\xcfg\xd5._\xe8?\xd6\x8d\xba\x87\x91D\x1a\xc0\xea!\xf73\x0cB\xf7\xbf'
p64
tp65
bag22
(g23
(I0
tp66
g25
tp67
Rp68
(I1
(I3
tp69
g61
I00
S'\xdc\xfdN\xc8J~\xf0?\xc2\xcc\xc4M\xa2\x1d\x1a\xc0\xb4;\xa7?\xcck\xe7\xbf'
p70
tp71
bag27
ag27
asbasS'filename'
p72
S''
p73
sS'states'
p74
(lp75
(itrajectory_representation.shortest_path_pick_and_place_state
ShortestPathPaPState
p76
(dp77
S'place_used'
p78
(dp79
(g16
g14
tp80
(itrajectory_representation.operator
Operator
p81
(dp82
g8
I01
sg9
(dp83
S'region'
p84
g14
sg11
g16
ssg17
S'two_arm_place'
p85
sg19
(dp86
g21
g22
(g23
(I0
tp87
g25
tp88
Rp89
(I1
(I3
tp90
g32
I00
S'\xa7\x14\xfb\xba\x12:\xe6?\x1ci]\x84\xaa_\x03\xc0\xd2\x83>\x8d6.\xfb?'
p91
tp92
bssg47
(lp93
g22
(g23
(I0
tp94
g25
tp95
Rp96
(I1
(I3
tp97
g32
I00
S'x\\\x17\xae\xd9\x95\xf8?\x16_\xae\xf2W\x8c\x1a\xc0\r\xd2\xe1\xcbf\xa8\xf1\xbf'
p98
tp99
bag22
(g23
(I0
tp100
g25
tp101
Rp102
(I1
(I3
tp103
g61
I00
S"'\xc1{\xbc\xf6\x05\xf8?\x02^\x18\xdc\xb7\xac\x18\xc0o\x85MZ3\x91\xf3\xbf"
p104
tp105
bag22
(g23
(I0
tp106
g25
tp107
Rp108
(I1
(I3
tp109
g61
I00
S'\x85\\2\xba\x0b5\xf5?I\r\x06\xd10\xfb\x15\xc0\x9e\x11\xee\xd8\xb9\xd7\xf5?'
p110
tp111
bag22
(g23
(I0
tp112
g25
tp113
Rp114
(I1
(I3
tp115
g61
I00
S'v\xb8^\x85\xa7[\xea?x\xbe\xff2t\x8d\x13\xc0\x88\x85\x8cCyH\xf6?'
p116
tp117
bag22
(g23
(I0
tp118
g25
tp119
Rp120
(I1
(I3
tp121
g61
I00
S'\xc2\xda(e\x83\x1a\xeb?\x8au\x8d3\xa6E\x11\xc0\xb4c\x1b\xed_\xfd\xfa?'
p122
tp123
bag22
(g23
(I0
tp124
g25
tp125
Rp126
(I1
(I3
tp127
g61
I00
S'\xe4u**\x0e5\xe9?\xaa\xfd\r\xed\xc4\xf6\r\xc0\x0fDE0\x1f\x0b\xfe?'
p128
tp129
bag22
(g23
(I0
tp130
g25
tp131
Rp132
(I1
(I3
tp133
g61
I00
S'\x06\x11,\xef\x98O\xe7??\x10\x01s=b\t\xc04\x92\xb79o\x8c\x00@'
p134
tp135
bag89
ag89
asbssS'place_in_way'
p136
(itrajectory_representation.predicates.place_in_way
PlaceInWay
p137
(dp138
S'mc_path_to_entity'
p139
(dp140
(Vrectangular_packing_box2
p141
S'home_region'
p142
tp143
(lp144
g22
(g23
(I0
tp145
g25
tp146
Rp147
(I1
(I3
tp148
g29
(S'f8'
p149
I0
I1
tp150
Rp151
(I3
S'<'
p152
NNNI-1
I-1
I0
tp153
bI00
S't\xa1ra\x93w\x08@\xba5\xf3\xfa\xaf\x15\x1b\xc0?\xa6h\x19\xfc\xc4\xf8?'
p154
tp155
bag22
(g23
(I0
tp156
g25
tp157
Rp158
(I1
(I3
tp159
g29
(S'f8'
p160
I0
I1
tp161
Rp162
(I3
S'<'
p163
NNNI-1
I-1
I0
tp164
bI00
S'\xd8\xd6B\xff\x18\xb2\x05@\xf2%;\x9a\xab\xd5\x18\xc0\xce\xc8,\xa0\x8a\x9a\x00@'
p165
tp166
bag22
(g23
(I0
tp167
g25
tp168
Rp169
(I1
(I3
tp170
g162
I00
S'v\x9f}*\xb2\x19\x02@\x02_\xf4PZ7\x16\xc0\xa8G\xd0\x03\xa3 \x01@'
p171
tp172
bag22
(g23
(I0
tp173
g25
tp174
Rp175
(I1
(I3
tp176
g162
I00
S'\xc2:\x1b=\xad,\xfa?(\x190\xa5<\xab\x16\xc0\x9d\x91\xdc8Kq\x01@'
p177
tp178
bag22
(g23
(I0
tp179
g25
tp180
Rp181
(I1
(I3
tp182
g162
I00
S'o\xd6\x82\xea\x7f\xb2\xed?9\xf2C\x0b?\xfd\x16\xc0(?d\xe9@\xb5\x02@'
p183
tp184
bag22
(g23
(I0
tp185
g25
tp186
Rp187
(I1
(I3
tp188
g162
I00
S'&>c9\x01,\xeb?\xb2\xc2\xf0\x02\xce\x8e\x14\xc0\xd8p\xbb2\x14\xd2\x03@'
p189
tp190
bag22
(g23
(I0
tp191
g25
tp192
Rp193
(I1
(I3
tp194
g162
I00
S'\xc6\x05\xbdtg\xd9\xe2?F\xdf\x9d@\\\xf3\x11\xc0\x1a\xc4.\xbb\xcc\x12\x02@'
p195
tp196
bag22
(g23
(I0
tp197
g25
tp198
Rp199
(I1
(I3
tp200
g162
I00
S'3z\xed\x8eN)\xe4?\x0c\x96\xd4\xa2\x0e\xd0\r\xc0\xbd%\xf5{\xe9\xf9\x03@'
p201
tp202
bag22
(g23
(I0
tp203
g25
tp204
Rp205
(I1
(I3
tp206
g162
I00
S'\xaf0\xe9h\xba~\xee?k\xbb\xd8\xd4\xd0g\t\xc09\x9ey\xed\xb06\x06@'
p207
tp208
bag22
(g23
(I0
tp209
g25
tp210
Rp211
(I1
(I3
tp212
g162
I00
S'\xf4\xfdJ\x1a(#\xec?H"\x9cD\x1aE\x05\xc0.\xa9\x0b\x87\xf8\xe1\x02@'
p213
tp214
bas(Vrectangular_packing_box3
p215
g142
tp216
(lp217
g22
(g23
(I0
tp218
g25
tp219
Rp220
(I1
(I3
tp221
g151
I00
S'Z\x1ac\xfb\x90h\x07@L\\X\xc5\xa5L\x19\xc0\xd0\x19\xed\xb6Q)\x00@'
p222
tp223
bag22
(g23
(I0
tp224
g25
tp225
Rp226
(I1
(I3
tp227
g162
I00
S'\xd8\xd6B\xff\x18\xb2\x05@\xf2%;\x9a\xab\xd5\x18\xc0\xce\xc8,\xa0\x8a\x9a\x00@'
p228
tp229
bag22
(g23
(I0
tp230
g25
tp231
Rp232
(I1
(I3
tp233
g162
I00
S'\xf60LV\xe8\x96\x00@\x9aEw{a\xe2\x18\xc0^\xa8\x8a,\xa3\x98\x00@'
p234
tp235
bag22
(g23
(I0
tp236
g25
tp237
Rp238
(I1
(I3
tp239
g162
I00
S'\xc2:\x1b=\xad,\xfa?(\x190\xa5<\xab\x16\xc0\x9d\x91\xdc8Kq\x01@'
p240
tp241
bag22
(g23
(I0
tp242
g25
tp243
Rp244
(I1
(I3
tp245
g162
I00
S'o\xd6\x82\xea\x7f\xb2\xed?9\xf2C\x0b?\xfd\x16\xc0(?d\xe9@\xb5\x02@'
p246
tp247
bag22
(g23
(I0
tp248
g25
tp249
Rp250
(I1
(I3
tp251
g162
I00
S'&>c9\x01,\xeb?\xb2\xc2\xf0\x02\xce\x8e\x14\xc0\xd8p\xbb2\x14\xd2\x03@'
p252
tp253
bag22
(g23
(I0
tp254
g25
tp255
Rp256
(I1
(I3
tp257
g162
I00
S'\xc6\x05\xbdtg\xd9\xe2?F\xdf\x9d@\\\xf3\x11\xc0\x1a\xc4.\xbb\xcc\x12\x02@'
p258
tp259
bag22
(g23
(I0
tp260
g25
tp261
Rp262
(I1
(I3
tp263
g162
I00
S'3z\xed\x8eN)\xe4?\x0c\x96\xd4\xa2\x0e\xd0\r\xc0\xbd%\xf5{\xe9\xf9\x03@'
p264
tp265
bag22
(g23
(I0
tp266
g25
tp267
Rp268
(I1
(I3
tp269
g162
I00
S'\xaf0\xe9h\xba~\xee?k\xbb\xd8\xd4\xd0g\t\xc09\x9ey\xed\xb06\x06@'
p270
tp271
bag22
(g23
(I0
tp272
g25
tp273
Rp274
(I1
(I3
tp275
g162
I00
S'\xf4\xfdJ\x1a(#\xec?H"\x9cD\x1aE\x05\xc0.\xa9\x0b\x87\xf8\xe1\x02@'
p276
tp277
bas(Vsquare_packing_box4
p278
g142
tp279
(lp280
g22
(g23
(I0
tp281
g25
tp282
Rp283
(I1
(I3
tp284
g151
I00
S'\x92\xb6\x01\x16\x90\x82\x06@9\xf5\xb7.\x84W\x17\xc0\x12\x980\x97Q\xe3\x16@'
p285
tp286
bag22
(g23
(I0
tp287
g25
tp288
Rp289
(I1
(I3
tp290
g162
I00
S'\x00\xda\x1c<\xfd\xdc\x00@j"\x91\xe3 \x1a\x18\xc0i~!@)\xb0\xdc\xbf'
p291
tp292
bag22
(g23
(I0
tp293
g25
tp294
Rp295
(I1
(I3
tp296
g162
I00
S'v%D\x97w\xd1\xf7?Z\xadP\x90\x08<\x17\xc0-\xca\x8a\t\xe2p\xe7\xbf'
p297
tp298
bag22
(g23
(I0
tp299
g25
tp300
Rp301
(I1
(I3
tp302
g162
I00
S'tx\x8as\xa8b\xed?\x9ej\x15\xfa\xf0{\x15\xc0@\xed\x9a-\x9eD\xf2\xbf'
p303
tp304
bag22
(g23
(I0
tp305
g25
tp306
Rp307
(I1
(I3
tp308
g162
I00
S"\xb2&6mg)\xe8?\x99\xe0G'\x16\xe0\x13\xc0\xc8oL\xf5\x17p\xe6\xbf"
p309
tp310
bag22
(g23
(I0
tp311
g25
tp312
Rp313
(I1
(I3
tp314
g162
I00
S'`\xc8Aw-\x81\xeb?/\xc3\xe6O\x04\xca\x10\xc0\x8a\xb7K)\x91{\xe4\xbf'
p315
tp316
bag22
(g23
(I0
tp317
g25
tp318
Rp319
(I1
(I3
tp320
g162
I00
S'\xe1\xc6\xc7\xa7\x12X\xe7?\x98\x99\xb0\x9a\xfb\xdb\x0b\xc0R\t\x1b)\xeae\xe0\xbf'
p321
tp322
bag22
(g23
(I0
tp323
g25
tp324
Rp325
(I1
(I3
tp326
g162
I00
S'p\xf1\xbdc^\x84\xf1?"\x88LL\xf9D\x06\xc0~w\r\xe9m\x0f\x19@'
p327
tp328
bas(Vrectangular_packing_box1
p329
g142
tp330
(lp331
g22
(g23
(I0
tp332
g25
tp333
Rp334
(I1
(I3
tp335
g151
I00
S'l\xbe\x1ci\xb9\x05\xfe?Pm~\x9e\xc7\xa9\x1f\xc0\x1c\xfc\x80\xb1\x0b\xf9\x16@'
p336
tp337
bag22
(g23
(I0
tp338
g25
tp339
Rp340
(I1
(I3
tp341
g162
I00
S'\tAsXx\r\x00@F^\x05/\xfdK\x1d\xc0~\xbbB\x0f\xbe\xe6\xd2?'
p342
tp343
bag22
(g23
(I0
tp344
g25
tp345
Rp346
(I1
(I3
tp347
g162
I00
S'JyH\x8ez\xd6\xfa?\xb3\xf7h\x83\xea\xba\x1a\xc0u\xf9Uf\xb7m\xe0?'
p348
tp349
bag22
(g23
(I0
tp350
g25
tp351
Rp352
(I1
(I3
tp353
g162
I00
S'j\xc7\xc0&\x8ag\xf6?h\x9cH4\x7f\xab\x18\xc0\xd8|\x1d\xfc\xcbV\xf2?'
p354
tp355
bag22
(g23
(I0
tp356
g25
tp357
Rp358
(I1
(I3
tp359
g162
I00
S'\x85\\2\xba\x0b5\xf5?I\r\x06\xd10\xfb\x15\xc0\x9e\x11\xee\xd8\xb9\xd7\xf5?'
p360
tp361
bag22
(g23
(I0
tp362
g25
tp363
Rp364
(I1
(I3
tp365
g162
I00
S'v\xb8^\x85\xa7[\xea?x\xbe\xff2t\x8d\x13\xc0\x88\x85\x8cCyH\xf6?'
p366
tp367
bag22
(g23
(I0
tp368
g25
tp369
Rp370
(I1
(I3
tp371
g162
I00
S'\xc2\xda(e\x83\x1a\xeb?\x8au\x8d3\xa6E\x11\xc0\xb4c\x1b\xed_\xfd\xfa?'
p372
tp373
bag22
(g23
(I0
tp374
g25
tp375
Rp376
(I1
(I3
tp377
g162
I00
S'\xe4u**\x0e5\xe9?\xaa\xfd\r\xed\xc4\xf6\r\xc0\x0fDE0\x1f\x0b\xfe?'
p378
tp379
bag22
(g23
(I0
tp380
g25
tp381
Rp382
(I1
(I3
tp383
g162
I00
S'\x06\x11,\xef\x98O\xe7??\x10\x01s=b\t\xc04\x92\xb79o\x8c\x00@'
p384
tp385
bag22
(g23
(I0
tp386
g25
tp387
Rp388
(I1
(I3
tp389
g162
I00
S'\x92\xaf\xf3P\x96O\xc2?(\xa1:\x8er}\x05\xc0\xd4_\x91\xb3\xffL\x02@'
p390
tp391
bas(Vsquare_packing_box2
p392
g142
tp393
(lp394
g22
(g23
(I0
tp395
g25
tp396
Rp397
(I1
(I3
tp398
g151
I00
S'\x8c\x9c\xab\xf8\r\n\x08@\x99\x0c\x95K\x8d\xde\x1f\xc0\xa3#\xa6\xbby\xd0\xf3?'
p399
tp400
bag22
(g23
(I0
tp401
g25
tp402
Rp403
(I1
(I3
tp404
g162
I00
S'\xadN\xcb\xe7{+\x07@\xd5\x0f;S\xc0\x0f\x1e\xc0\xb8\xd3V\x10\x16\xcb\xf9?'
p405
tp406
bag22
(g23
(I0
tp407
g25
tp408
Rp409
(I1
(I3
tp410
g162
I00
S'\xe8[\xb2\xaa\xa5@\x04@(j\r1!I\x1b\xc0Xj\x8bx\xc9`\xfc?'
p411
tp412
bag22
(g23
(I0
tp413
g25
tp414
Rp415
(I1
(I3
tp416
g162
I00
S'\xf60LV\xe8\x96\x00@\x9aEw{a\xe2\x18\xc0^\xa8\x8a,\xa3\x98\x00@'
p417
tp418
bag22
(g23
(I0
tp419
g25
tp420
Rp421
(I1
(I3
tp422
g162
I00
S'\xe0 ;\x819w\xfd?\xe7\xcc\xc2\xa0\xa5f\x17\xc04\xedq\x1c\x8eK\xfa?'
p423
tp424
bag22
(g23
(I0
tp425
g25
tp426
Rp427
(I1
(I3
tp428
g162
I00
S'\x85\\2\xba\x0b5\xf5?I\r\x06\xd10\xfb\x15\xc0\x9e\x11\xee\xd8\xb9\xd7\xf5?'
p429
tp430
bag22
(g23
(I0
tp431
g25
tp432
Rp433
(I1
(I3
tp434
g162
I00
S'v\xb8^\x85\xa7[\xea?x\xbe\xff2t\x8d\x13\xc0\x88\x85\x8cCyH\xf6?'
p435
tp436
bag22
(g23
(I0
tp437
g25
tp438
Rp439
(I1
(I3
tp440
g162
I00
S'\xc2\xda(e\x83\x1a\xeb?\x8au\x8d3\xa6E\x11\xc0\xb4c\x1b\xed_\xfd\xfa?'
p441
tp442
bag22
(g23
(I0
tp443
g25
tp444
Rp445
(I1
(I3
tp446
g162
I00
S'\xe4u**\x0e5\xe9?\xaa\xfd\r\xed\xc4\xf6\r\xc0\x0fDE0\x1f\x0b\xfe?'
p447
tp448
bag22
(g23
(I0
tp449
g25
tp450
Rp451
(I1
(I3
tp452
g162
I00
S'\x06\x11,\xef\x98O\xe7??\x10\x01s=b\t\xc04\x92\xb79o\x8c\x00@'
p453
tp454
bag22
(g23
(I0
tp455
g25
tp456
Rp457
(I1
(I3
tp458
g162
I00
S'\x92\xaf\xf3P\x96O\xc2?(\xa1:\x8er}\x05\xc0\xd4_\x91\xb3\xffL\x02@'
p459
tp460
bassS'mc_to_entity'
p461
(dp462
(g141
g142
tp463
(lp464
Vsquare_packing_box2
p465
aVrectangular_packing_box3
p466
aVsquare_packing_box3
p467
aVrectangular_packing_box4
p468
as(g215
g142
tp469
(lp470
Vrectangular_packing_box2
p471
aVsquare_packing_box4
p472
aVsquare_packing_box3
p473
as(g278
g142
tp474
(lp475
Vrectangular_packing_box2
p476
aVrectangular_packing_box3
p477
aVsquare_packing_box3
p478
as(g329
g142
tp479
(lp480
Vsquare_packing_box1
p481
aVsquare_packing_box2
p482
aVrectangular_packing_box2
p483
as(g392
g142
tp484
(lp485
Vrectangular_packing_box1
p486
assS'reachable_entities'
p487
(lp488
Vrectangular_packing_box4
p489
aVsquare_packing_box3
p490
ag12
asS'collides'
p491
(dp492
Vrectangular_packing_box4
p493
c__builtin__
set
p494
((lp495
I517
aI6
aI7
aI521
aI138
aI139
aI275
aI152
aI153
aI154
aI417
aI547
aI424
aI553
aI196
aI198
aI459
aI349
aI350
aI351
aI362
aI491
aI503
aI249
aI383
atp496
Rp497
sVrectangular_packing_box2
p498
g494
((lp499
I1
aI2
aI3
aI393
aI144
aI403
aI539
aI541
aI288
aI37
aI38
aI39
aI40
aI41
aI302
aI561
aI178
aI435
aI54
aI442
aI62
aI63
aI64
aI577
aI438
aI376
aI342
aI89
aI219
aI348
aI605
aI611
aI612
aI550
aI367
aI114
aI115
aI500
aI247
aI248
aI377
aI379
aI380
aI511
atp500
Rp501
sVrectangular_packing_box3
p502
g494
((lp503
I1
aI2
aI393
aI395
aI403
aI404
aI539
aI541
aI160
aI289
aI37
aI38
aI39
aI40
aI41
aI42
aI555
aI304
aI435
aI54
aI62
aI288
aI454
aI342
aI348
aI605
aI611
aI550
aI115
aI248
aI380
atp504
Rp505
sVrectangular_packing_box1
p506
g494
((lp507
I513
aI386
aI259
aI260
aI406
aI552
aI585
aI556
aI610
aI337
aI515
aI117
aI118
aI119
aI572
aI573
aI286
aI613
atp508
Rp509
sVsquare_packing_box2
p510
g494
((lp511
I268
aI405
aI280
aI548
aI303
aI179
aI436
aI565
aI438
aI440
aI193
aI194
aI68
aI210
aI211
aI212
aI343
aI90
aI91
aI220
aI479
aI354
aI614
aI113
aI500
aI375
aI340
aI511
aI381
aI254
aI255
atp512
Rp513
sVsquare_packing_box3
p514
g494
((lp515
I491
aI132
aI517
aI6
aI7
aI8
aI139
aI32
aI33
aI34
aI424
aI44
aI94
aI186
aI95
aI196
aI198
aI71
aI459
aI472
aI349
aI350
aI351
aI233
aI234
aI235
aI108
aI417
aI503
aI383
atp516
Rp517
sVsquare_packing_box1
p518
g494
((lp519
I256
aI514
aI145
aI146
aI407
aI538
aI413
aI543
aI36
aI422
aI556
aI429
aI443
aI444
aI64
aI65
aI66
aI67
aI69
aI585
aI79
aI80
aI81
aI215
aI92
aI464
aI358
aI230
aI593
aI374
aI123
aI124
atp520
Rp521
sVsquare_packing_box4
p522
g494
((lp523
I144
aI403
aI541
aI545
aI550
aI425
aI555
aI302
aI303
aI307
aI442
aI571
aI62
aI453
aI457
aI342
aI473
aI474
aI348
aI605
aI612
aI367
aI368
aI369
aI370
aI371
aI500
aI247
aI248
aI377
atp524
Rp525
ssg78
g79
sS'pick_used'
p526
(dp527
g489
(itrajectory_representation.operator
Operator
p528
(dp529
g8
I01
sg9
(dp530
S'object'
p531
Vrectangular_packing_box4
p532
ssg17
S'two_arm_pick'
p533
sg19
(dp534
S'q_goal'
p535
(lp536
g22
(g23
(I0
tp537
g25
tp538
Rp539
(I1
(I3
tp540
g151
I00
S'\xdf\xca\x05\xd7\xd6\xe0\xe2?%ARh$[\x19\xc0\x0c\x02\x1ay\xcc\x16\x03@'
p541
tp542
bag22
(g23
(I0
tp543
g25
tp544
Rp545
(I1
(I3
tp546
g151
I00
S'\x13\xfd\xb62\x97|\xdf?\xb6\xc4\xbfY!\xc3\x19\xc0\xcc\xa64{\x1d\r\xff?'
p547
tp548
bag22
(g23
(I0
tp549
g25
tp550
Rp551
(I1
(I3
tp552
g151
I00
S'&\x12\xa7\xeb\x8d[\xe1?\x144\r\t\x868\x19\xc0\x90\xb4]\x89Rj\x01@'
p553
tp554
basS'is_feasible'
p555
I00
ssg47
(lp556
g22
(g23
(I0
tp557
g25
tp558
Rp559
(I1
(I3
tp560
g151
I00
S'\xe0]\xca\x10\x96_\xed?s7\x1e\xc9D\xd8\x1a\xc0\xca\x84J\x91\xc3\xb6\x10@'
p561
tp562
bag22
(g23
(I0
tp563
g25
tp564
Rp565
(I1
(I3
tp566
g162
I00
S'zP\x91@+\x97\xf6?*&V!\xde-\x1a\xc0\xb2Z\x99\x08\xf1Y\x13@'
p567
tp568
bag22
(g23
(I0
tp569
g25
tp570
Rp571
(I1
(I3
tp572
g162
I00
S'\x0c\x0f=\x82\xe8\x10\xef?\x95;\xd2\x17&\xe7\x1b\xc0\xf2\xbb\xbd\xb4q\x0b\t@'
p573
tp574
bag545
asbsVrectangular_packing_box2
p575
(itrajectory_representation.operator
Operator
p576
(dp577
g8
I01
sg9
(dp578
g531
Vrectangular_packing_box2
p579
ssg17
g533
sg19
(dp580
g535
(lp581
g22
(g23
(I0
tp582
g25
tp583
Rp584
(I1
(I3
tp585
g151
I00
S't\xa1ra\x93w\x08@\xbd5\xf3\xfa\xaf\x15\x1b\xc0>\xa6h\x19\xfc\xc4\xf8?'
p586
tp587
bag22
(g23
(I0
tp588
g25
tp589
Rp590
(I1
(I3
tp591
g151
I00
S'\xcay\x1d\x8b\x89j\r@^\xdc\x0f=#D\x18\xc0\xcb\xa3\xe1\x0c\xe1\xde\x04\xc0'
p592
tp593
bag22
(g23
(I0
tp594
g25
tp595
Rp596
(I1
(I3
tp597
g151
I00
S'4\x8es\x8a\x80\xca\x05@\x9bT2<\xeb\x9f\x15\xc0aD\x9d\xcbX\x83\xf8\xbf'
p598
tp599
basg555
I00
ssg47
(lp600
g22
(g23
(I0
tp601
g25
tp602
Rp603
(I1
(I3
tp604
g151
I00
S'\xe0]\xca\x10\x96_\xed?s7\x1e\xc9D\xd8\x1a\xc0\xca\x84J\x91\xc3\xb6\x10@'
p605
tp606
bag22
(g23
(I0
tp607
g25
tp608
Rp609
(I1
(I3
tp610
g162
I00
S'4#\xe8i\x80D\xf8?\xdd\x1dlTl\\\x19\xc0m\xc1\x1a\xec\xde\x01\x01\xc0'
p611
tp612
bag22
(g23
(I0
tp613
g25
tp614
Rp615
(I1
(I3
tp616
g162
I00
S'\xa1\x0f=\xe0\x1aF\xfc?e&S\xf6\xb5\xfc\x17\xc0s\xad\xdc\xd8h\x9b\x04\xc0'
p617
tp618
bag22
(g23
(I0
tp619
g25
tp620
Rp621
(I1
(I3
tp622
g162
I00
S'\x9a\xbe.\\\\1\x02@n\xc71\xde\x16\x1f\x18\xc0\xa5\xb9\xb4\xac*z\xff\xbf'
p623
tp624
bag596
asbsVrectangular_packing_box3
p625
(itrajectory_representation.operator
Operator
p626
(dp627
g8
I01
sg9
(dp628
g531
Vrectangular_packing_box3
p629
ssg17
g533
sg19
(dp630
g535
(lp631
g22
(g23
(I0
tp632
g25
tp633
Rp634
(I1
(I3
tp635
g151
I00
S'W\x1ac\xfb\x90h\x07@M\\X\xc5\xa5L\x19\xc0\xd0\x19\xed\xb6Q)\x00@'
p636
tp637
bag22
(g23
(I0
tp638
g25
tp639
Rp640
(I1
(I3
tp641
g151
I00
S'\xa5\xb5\xf8k.\x18\x01@.\x8b0\xdb\x10\xd9\x17\xc06\xbc\xec}\xfd\n\xe2?'
p642
tp643
bag22
(g23
(I0
tp644
g25
tp645
Rp646
(I1
(I3
tp647
g151
I00
S'\xb1\xe3\xdf\xf2\x9ah\x00@\x07\xa0\xdd\xd20\xc4\x17\xc0\x8d\xfe\xccYc\n\xd8?'
p648
tp649
basg555
I00
ssg47
(lp650
g22
(g23
(I0
tp651
g25
tp652
Rp653
(I1
(I3
tp654
g151
I00
S'\xe0]\xca\x10\x96_\xed?s7\x1e\xc9D\xd8\x1a\xc0\xca\x84J\x91\xc3\xb6\x10@'
p655
tp656
bag22
(g23
(I0
tp657
g25
tp658
Rp659
(I1
(I3
tp660
g162
I00
S'\xf8C*\xbe\x14\xcf\xe8?\x81d\xab\xeb\xa8<\x18\xc0\xc8\\\xf4\x8c\xc3\xfa\xfe\xbf'
p661
tp662
bag22
(g23
(I0
tp663
g25
tp664
Rp665
(I1
(I3
tp666
g162
I00
S'\x0e]\xf2K\xc6E\xf7?\x06\x8c\xb9Ybt\x17\xc0%\xac6\x86\x93\xa8\xdd?'
p667
tp668
bag646
asbsVrectangular_packing_box1
p669
(itrajectory_representation.operator
Operator
p670
(dp671
g8
I01
sg9
(dp672
g531
Vrectangular_packing_box1
p673
ssg17
g533
sg19
(dp674
g535
(lp675
g22
(g23
(I0
tp676
g25
tp677
Rp678
(I1
(I3
tp679
g151
I00
S't\xbe\x1ci\xb9\x05\xfe?Nm~\x9e\xc7\xa9\x1f\xc0\xe0\x87\x19\x16}G\xe1\xbf'
p680
tp681
bag22
(g23
(I0
tp682
g25
tp683
Rp684
(I1
(I3
tp685
g151
I00
S'a\x9eJ\x1b\x016\x05@\xf7g\x1b\x14-\xdd\x1d\xc0\xacq\x0f\xa6C\xe6\xff\xbf'
p686
tp687
bag22
(g23
(I0
tp688
g25
tp689
Rp690
(I1
(I3
tp691
g151
I00
S'\xda\xc17\xc4\x10\x0c\xfd?\\\xe1ii\xd7\x97\x1f\xc0X\xa3\x95O\xec8\xeb\xbf'
p692
tp693
basg555
I00
ssg47
(lp694
g22
(g23
(I0
tp695
g25
tp696
Rp697
(I1
(I3
tp698
g151
I00
S'\xe0]\xca\x10\x96_\xed?s7\x1e\xc9D\xd8\x1a\xc0\xca\x84J\x91\xc3\xb6\x10@'
p699
tp700
bag22
(g23
(I0
tp701
g25
tp702
Rp703
(I1
(I3
tp704
g162
I00
S'Sx\x1f\xdc\xa9\xe1\xf5?\xb7\xb2\x19\xd8\xf1{\x1c\xc0\x8c\xd5\xa8XX\x00\x08\xc0'
p705
tp706
bag22
(g23
(I0
tp707
g25
tp708
Rp709
(I1
(I3
tp710
g162
I00
S'\tAsXx\r\x00@F^\x05/\xfdK\x1d\xc0~\xbbB\x0f\xbe\xe6\xd2?'
p711
tp712
bag690
asbsVsquare_packing_box2
p713
(itrajectory_representation.operator
Operator
p714
(dp715
g8
I01
sg9
(dp716
g531
Vsquare_packing_box2
p717
ssg17
g533
sg19
(dp718
g535
(lp719
g22
(g23
(I0
tp720
g25
tp721
Rp722
(I1
(I3
tp723
g151
I00
S'\x8c\x9c\xab\xf8\r\n\x08@\x9a\x0c\x95K\x8d\xde\x1f\xc0\xa4#\xa6\xbby\xd0\xf3?'
p724
tp725
bag22
(g23
(I0
tp726
g25
tp727
Rp728
(I1
(I3
tp729
g151
I00
S'"/\xa2\xc9\\\xee\x04@\xab2\x06\xfeh#\x1f\xc0(\x86\xe8`)\xc9\xf1?'
p730
tp731
bag22
(g23
(I0
tp732
g25
tp733
Rp734
(I1
(I3
tp735
g151
I00
S"\xb0;iq\x1c\x94\x02@\xcf\xb5\xdc\r\\'\x1b\xc0\xb0q\x8fy\x16f\xbc\xbf"
p736
tp737
bag22
(g23
(I0
tp738
g25
tp739
Rp740
(I1
(I3
tp741
g151
I00
S'\x8a\x91~f$W\r@\x9bS(Z\x19\xf0\x1b\xc0\xdf\x01\x92\x1d\xce\x80\x07\xc0'
p742
tp743
basg555
I00
ssg47
(lp744
g22
(g23
(I0
tp745
g25
tp746
Rp747
(I1
(I3
tp748
g151
I00
S'\xe0]\xca\x10\x96_\xed?s7\x1e\xc9D\xd8\x1a\xc0\xca\x84J\x91\xc3\xb6\x10@'
p749
tp750
bag22
(g23
(I0
tp751
g25
tp752
Rp753
(I1
(I3
tp754
g162
I00
S'X\xa4u\xbc=r\xf6?\x90\xee\xc4\x1eW\xf8\x1b\xc0\xcc: \xa4-\x95\x01\xc0'
p755
tp756
bag22
(g23
(I0
tp757
g25
tp758
Rp759
(I1
(I3
tp760
g162
I00
S'\tAsXx\r\x00@F^\x05/\xfdK\x1d\xc0~\xbbB\x0f\xbe\xe6\xd2?'
p761
tp762
bag734
asbsg490
(itrajectory_representation.operator
Operator
p763
(dp764
g8
I01
sg9
(dp765
g531
Vsquare_packing_box3
p766
ssg17
g533
sg19
(dp767
g535
(lp768
g22
(g23
(I0
tp769
g25
tp770
Rp771
(I1
(I3
tp772
g151
I00
S'<y\xcaZ\x02\x1f\xee?T\x05%\x905\xdd\x18\xc0\xdeJk\xf3\xd6\xb8\xfc?'
p773
tp774
bag22
(g23
(I0
tp775
g25
tp776
Rp777
(I1
(I3
tp778
g151
I00
S'\xec\n\xaa\n\x94\xab\xe3?\x1e\xc6<\xf6j\xcd\x18\xc0<\xa5C@\xe0(\xfc?'
p779
tp780
bag22
(g23
(I0
tp781
g25
tp782
Rp783
(I1
(I3
tp784
g151
I00
S'b\xb7\xf6\x00S\xa7\xcc\xbf\x91\n\xc7J\xbc/\x17\xc0\xce\xd3\xae\xb2=\x80\xe3?'
p785
tp786
bag22
(g23
(I0
tp787
g25
tp788
Rp789
(I1
(I3
tp790
g151
I00
S'\xdc\xb7\xe2\x91r\xbc\xe9?\xec`\xd3u\x8b\xdc\x18\xc0\r\xd1W\x0b\x8c\xf4\xff?'
p791
tp792
basg555
I00
ssg47
(lp793
g22
(g23
(I0
tp794
g25
tp795
Rp796
(I1
(I3
tp797
g151
I00
S'\xe0]\xca\x10\x96_\xed?s7\x1e\xc9D\xd8\x1a\xc0\xca\x84J\x91\xc3\xb6\x10@'
p798
tp799
bag22
(g23
(I0
tp800
g25
tp801
Rp802
(I1
(I3
tp803
g162
I00
S'\x07\xe5\xeeo\xc2@\xf0?\x80*\x19Ng\xcf\x17\xc0\xccm\xca\xd2+4\x0f@'
p804
tp805
bag22
(g23
(I0
tp806
g25
tp807
Rp808
(I1
(I3
tp809
g162
I00
S'\xae\xea\x9e\xa3\xa2\xb1\xed?\xa4\xca\x1d?h\x96\x19\xc0dq\xdf\xb1\x9d\xe4\x05@'
p810
tp811
bag771
asbsg12
(itrajectory_representation.operator
Operator
p812
(dp813
g8
I01
sg9
(dp814
g11
g12
ssg17
S'two_arm_pick'
p815
sg19
(dp816
g21
g22
(g23
(I0
tp817
g25
tp818
Rp819
(I1
(I3
tp820
g32
I00
S'\x97\\\x17\xae\xd9\x95\xf8?\x0f_\xae\xf2W\x8c\x1a\xc0\x0c\xd2\xe1\xcbf\xa8\xf1\xbf'
p821
tp822
bssg47
(lp823
g22
(g23
(I0
tp824
g25
tp825
Rp826
(I1
(I3
tp827
g151
I00
S'\xe0]\xca\x10\x96_\xed?s7\x1e\xc9D\xd8\x1a\xc0\xca\x84J\x91\xc3\xb6\x10@'
p828
tp829
bag22
(g23
(I0
tp830
g25
tp831
Rp832
(I1
(I3
tp833
g162
I00
S'Z\xd4U\x1d\xf6`\xf4? %_\x1c\x06\x1f\x1b\xc0T\xcf(@X`\r@'
p834
tp835
bag22
(g23
(I0
tp836
g25
tp837
Rp838
(I1
(I3
tp839
g162
I00
S'\xdc\xfdN\xc8J~\xf0?\xc2\xcc\xc4M\xa2\x1d\x1a\xc0\xb4;\xa7?\xcck\xe7\xbf'
p840
tp841
bag819
asbsVsquare_packing_box4
p842
(itrajectory_representation.operator
Operator
p843
(dp844
g8
I01
sg9
(dp845
g531
Vsquare_packing_box4
p846
ssg17
g533
sg19
(dp847
g535
(lp848
g22
(g23
(I0
tp849
g25
tp850
Rp851
(I1
(I3
tp852
g151
I00
S'\x90\xb6\x01\x16\x90\x82\x06@9\xf5\xb7.\x84W\x17\xc04\xa8\x9c\xe8M\xf5\xe1\xbf'
p853
tp854
bag22
(g23
(I0
tp855
g25
tp856
Rp857
(I1
(I3
tp858
g151
I00
S'\x9ab\xe1\xfb\xb5\x87\x0b@\x10\xf6\xb0)\xf2\xab\x1b\xc0\x8aT\xfdHZ\xca\xf4?'
p859
tp860
bag22
(g23
(I0
tp861
g25
tp862
Rp863
(I1
(I3
tp864
g151
I00
S'T\xc0\xa4A\xd2\xe8\t@\xd5\xc3\x08\xb0\tO\x1b\xc0\xf5>\x9bT\r\x0e\xf9?'
p865
tp866
bag22
(g23
(I0
tp867
g25
tp868
Rp869
(I1
(I3
tp870
g151
I00
S'^\xe0\xa7\xba\xb9H\x06@\xf4W\xe9vyT\x18\xc0\xf4z,\x0b\x9b\xca\xd5\xbf'
p871
tp872
basg555
I00
ssg47
(lp873
g22
(g23
(I0
tp874
g25
tp875
Rp876
(I1
(I3
tp877
g151
I00
S'\xe0]\xca\x10\x96_\xed?s7\x1e\xc9D\xd8\x1a\xc0\xca\x84J\x91\xc3\xb6\x10@'
p878
tp879
bag22
(g23
(I0
tp880
g25
tp881
Rp882
(I1
(I3
tp883
g162
I00
S'4#\xe8i\x80D\xf8?\xdd\x1dlTl\\\x19\xc0m\xc1\x1a\xec\xde\x01\x01\xc0'
p884
tp885
bag22
(g23
(I0
tp886
g25
tp887
Rp888
(I1
(I3
tp889
g162
I00
S'\x00\xda\x1c<\xfd\xdc\x00@j"\x91\xe3 \x1a\x18\xc0i~!@)\xb0\xdc\xbf'
p890
tp891
bag869
asbssS'mc_paths'
p892
(dp893
sS'robot'
p894
NsS'reachable_obj_region_pairs'
p895
(lp896
sS'sampled_pick_configs_for_objects'
p897
(dp898
sS'mc_calls'
p899
I0
sS'pick_poses'
p900
g527
sS'problem_env'
p901
NsS'evaluations'
p902
(dp903
(g329
g141
g142
tp904
I01
s(g392
g141
g142
tp905
I00
s(g141
Vsquare_packing_box3
p906
g142
tp907
I01
s(g278
g392
g142
tp908
I00
s(g392
Vsquare_packing_box1
p909
g142
tp910
I00
s(g329
g909
g142
tp911
I01
s(g329
Vrectangular_packing_box4
p912
g142
tp913
I00
s(g392
g215
g142
tp914
I00
s(g278
g906
g142
tp915
I01
s(g141
g329
g142
tp916
I00
s(g215
g909
g142
tp917
I00
s(g278
g329
g142
tp918
I00
s(g141
g909
g142
tp919
I00
s(g215
g912
g142
tp920
I00
s(g141
g278
g142
tp921
I00
s(g215
g906
g142
tp922
I01
s(g215
g329
g142
tp923
I00
s(g278
g141
g142
tp924
I01
s(g329
g278
g142
tp925
I00
s(g392
g329
g142
tp926
I01
s(g278
g912
g142
tp927
I00
s(g215
g278
g142
tp928
I01
s(g392
g912
g142
tp929
I00
s(g392
g278
g142
tp930
I00
s(g278
g215
g142
tp931
I01
s(g392
g906
g142
tp932
I00
s(g329
g906
g142
tp933
I00
s(g329
g215
g142
tp934
I00
s(g215
g141
g142
tp935
I01
s(g141
g392
g142
tp936
I01
s(g278
g909
g142
tp937
I00
s(g141
g912
g142
tp938
I01
s(g215
g392
g142
tp939
I00
s(g141
g215
g142
tp940
I01
s(g329
g392
g142
tp941
I01
ssS'paths_to_reachable_entities'
p942
NsS'use_shortest_path'
p943
I01
sbsS'ternary_edges'
p944
(dp945
(g141
g141
g142
tp946
(lp947
I00
as(g909
S'loading_region'
p948
g948
tp949
(lp950
I00
as(S'entire_region'
p951
g329
g142
tp952
(lp953
I00
as(g392
g278
g948
tp954
(lp955
I00
as(g142
g142
g142
tp956
(lp957
I00
as(g278
g141
g948
tp958
(lp959
I00
as(g909
g215
g142
tp960
(lp961
I00
as(g142
g912
g142
tp962
(lp963
I00
as(g392
g909
g142
tp964
(lp965
I00
as(g215
g912
g948
tp966
(lp967
I00
as(g142
g278
g948
tp968
(lp969
I00
as(g392
g951
g142
tp970
(lp971
I00
as(g948
g142
g948
tp972
(lp973
I00
as(g912
g906
g142
tp974
(lp975
I00
as(g278
g951
g142
tp976
(lp977
I00
as(g392
g329
g948
tp978
(lp979
I00
as(g906
g948
g142
tp980
(lp981
I00
as(g951
g141
g948
tp982
(lp983
I00
as(g142
g951
g142
tp984
(lp985
I00
as(g141
g948
g142
tp986
(lp987
I00
as(g906
g951
g142
tp988
(lp989
I00
as(g909
g909
g948
tp990
(lp991
I00
as(g948
g278
g948
tp992
(lp993
I00
as(g951
g948
g142
tp994
(lp995
I00
as(g951
g392
g142
tp996
(lp997
I00
as(g948
g948
g142
tp998
(lp999
I00
as(g906
g912
g948
tp1000
(lp1001
I00
as(g142
g142
g948
tp1002
(lp1003
I00
as(g329
g392
g948
tp1004
(lp1005
I00
as(g141
g278
g142
tp1006
(lp1007
I00
as(g906
g909
g142
tp1008
(lp1009
I00
as(g329
g142
g948
tp1010
(lp1011
I00
as(g142
g141
g948
tp1012
(lp1013
I00
as(g329
g215
g948
tp1014
(lp1015
I00
as(g215
g329
g142
tp1016
(lp1017
I00
as(g948
g909
g948
tp1018
(lp1019
I00
as(g278
g392
g948
tp1020
(lp1021
I00
as(g141
g141
g948
tp1022
(lp1023
I00
as(g951
g278
g142
tp1024
(lp1025
I00
as(g948
g142
g142
tp1026
(lp1027
I00
as(g912
g141
g142
tp1028
(lp1029
I00
as(g142
g215
g142
tp1030
(lp1031
I00
as(g392
g329
g142
tp1032
(lp1033
I01
as(g215
g278
g142
tp1034
(lp1035
I01
as(g909
g215
g948
tp1036
(lp1037
I00
as(g906
g392
g142
tp1038
(lp1039
I00
as(g392
g909
g948
tp1040
(lp1041
I00
as(g392
g141
g948
tp1042
(lp1043
I00
as(g951
g392
g948
tp1044
(lp1045
I00
as(g948
g215
g948
tp1046
(lp1047
I00
as(g951
g142
g142
tp1048
(lp1049
I00
as(g912
g142
g142
tp1050
(lp1051
I00
as(g948
g951
g142
tp1052
(lp1053
I00
as(g141
g278
g948
tp1054
(lp1055
I00
as(g906
g141
g948
tp1056
(lp1057
I00
as(g906
g906
g142
tp1058
(lp1059
I00
as(g329
g215
g142
tp1060
(lp1061
I00
as(g951
g141
g142
tp1062
(lp1063
I00
as(g329
g948
g948
tp1064
(lp1065
I00
as(g278
g909
g142
tp1066
(lp1067
I00
as(g909
g909
g142
tp1068
(lp1069
I00
as(g909
g912
g142
tp1070
(lp1071
I00
as(g912
g141
g948
tp1072
(lp1073
I00
as(g278
g329
g948
tp1074
(lp1075
I00
as(g906
g912
g142
tp1076
(lp1077
I00
as(g329
g392
g142
tp1078
(lp1079
I01
as(g141
g329
g948
tp1080
(lp1081
I00
as(g329
g142
g142
tp1082
(lp1083
I00
as(g392
g141
g142
tp1084
(lp1085
I00
as(g141
g906
g142
tp1086
(lp1087
I01
as(g215
g329
g948
tp1088
(lp1089
I00
as(g142
g392
g948
tp1090
(lp1091
I00
as(g951
g142
g948
tp1092
(lp1093
I00
as(g951
g278
g948
tp1094
(lp1095
I00
as(g906
g141
g142
tp1096
(lp1097
I00
as(g215
g906
g948
tp1098
(lp1099
I00
as(g141
g951
g948
tp1100
(lp1101
I00
as(g329
g948
g142
tp1102
(lp1103
I00
as(g906
g392
g948
tp1104
(lp1105
I00
as(g906
g329
g948
tp1106
(lp1107
I00
as(g278
g909
g948
tp1108
(lp1109
I00
as(g142
g215
g948
tp1110
(lp1111
I00
as(g951
g906
g948
tp1112
(lp1113
I00
as(g948
g215
g142
tp1114
(lp1115
I00
as(g948
g392
g948
tp1116
(lp1117
I00
as(g141
g329
g142
tp1118
(lp1119
I00
as(g278
g329
g142
tp1120
(lp1121
I00
as(g948
g906
g142
tp1122
(lp1123
I00
as(g141
g906
g948
tp1124
(lp1125
I00
as(g141
g912
g948
tp1126
(lp1127
I00
as(g215
g278
g948
tp1128
(lp1129
I00
as(g909
g912
g948
tp1130
(lp1131
I00
as(g329
g906
g948
tp1132
(lp1133
I00
as(g142
g909
g948
tp1134
(lp1135
I00
as(g215
g948
g948
tp1136
(lp1137
I00
as(g912
g142
g948
tp1138
(lp1139
I00
as(g909
g329
g142
tp1140
(lp1141
I00
as(g141
g951
g142
tp1142
(lp1143
I00
as(g912
g392
g948
tp1144
(lp1145
I00
as(g215
g141
g948
tp1146
(lp1147
I00
as(g906
g329
g142
tp1148
(lp1149
I00
as(g278
g948
g948
tp1150
(lp1151
I00
as(g392
g142
g142
tp1152
(lp1153
I00
as(g278
g912
g142
tp1154
(lp1155
I00
as(g142
g906
g948
tp1156
(lp1157
I00
as(g948
g329
g948
tp1158
(lp1159
I00
as(g948
g906
g948
tp1160
(lp1161
I00
as(g909
g906
g142
tp1162
(lp1163
I00
as(g329
g906
g142
tp1164
(lp1165
I00
as(g909
g329
g948
tp1166
(lp1167
I00
as(g215
g141
g142
tp1168
(lp1169
I01
as(g141
g392
g142
tp1170
(lp1171
I01
as(g215
g142
g948
tp1172
(lp1173
I00
as(g278
g948
g142
tp1174
(lp1175
I00
as(g948
g912
g948
tp1176
(lp1177
I00
as(g141
g912
g142
tp1178
(lp1179
I01
as(g215
g215
g142
tp1180
(lp1181
I00
as(g912
g912
g142
tp1182
(lp1183
I00
as(g912
g215
g948
tp1184
(lp1185
I00
as(g215
g948
g142
tp1186
(lp1187
I00
as(g906
g278
g142
tp1188
(lp1189
I00
as(g912
g392
g142
tp1190
(lp1191
I00
as(g392
g948
g948
tp1192
(lp1193
I00
as(g215
g951
g948
tp1194
(lp1195
I00
as(g392
g142
g948
tp1196
(lp1197
I00
as(g909
g392
g948
tp1198
(lp1199
I00
as(g278
g912
g948
tp1200
(lp1201
I00
as(g906
g142
g948
tp1202
(lp1203
I00
as(g215
g142
g142
tp1204
(lp1205
I00
as(g948
g912
g142
tp1206
(lp1207
I00
as(g329
g329
g142
tp1208
(lp1209
I00
as(g948
g278
g142
tp1210
(lp1211
I00
as(g278
g906
g142
tp1212
(lp1213
I01
as(g909
g141
g142
tp1214
(lp1215
I00
as(g909
g906
g948
tp1216
(lp1217
I00
as(g912
g909
g948
tp1218
(lp1219
I00
as(g142
g392
g142
tp1220
(lp1221
I00
as(g951
g215
g948
tp1222
(lp1223
I00
as(g215
g909
g142
tp1224
(lp1225
I00
as(g329
g951
g142
tp1226
(lp1227
I00
as(g906
g278
g948
tp1228
(lp1229
I00
as(g906
g215
g948
tp1230
(lp1231
I00
as(g912
g329
g142
tp1232
(lp1233
I00
as(g141
g392
g948
tp1234
(lp1235
I00
as(g912
g948
g142
tp1236
(lp1237
I00
as(g215
g951
g142
tp1238
(lp1239
I00
as(g278
g215
g948
tp1240
(lp1241
I00
as(g141
g909
g142
tp1242
(lp1243
I00
as(g906
g909
g948
tp1244
(lp1245
I00
as(g278
g278
g948
tp1246
(lp1247
I00
as(g912
g912
g948
tp1248
(lp1249
I00
as(g329
g329
g948
tp1250
(lp1251
I00
as(g909
g278
g948
tp1252
(lp1253
I00
as(g278
g392
g142
tp1254
(lp1255
I00
as(g951
g909
g142
tp1256
(lp1257
I00
as(g142
g951
g948
tp1258
(lp1259
I00
as(g142
g329
g948
tp1260
(lp1261
I00
as(g392
g948
g142
tp1262
(lp1263
I00
as(g909
g141
g948
tp1264
(lp1265
I00
as(g329
g909
g948
tp1266
(lp1267
I00
as(g215
g215
g948
tp1268
(lp1269
I00
as(g951
g215
g142
tp1270
(lp1271
I00
as(g392
g215
g948
tp1272
(lp1273
I00
as(g329
g951
g948
tp1274
(lp1275
I00
as(g909
g392
g142
tp1276
(lp1277
I00
as(g912
g329
g948
tp1278
(lp1279
I00
as(g912
g215
g142
tp1280
(lp1281
I00
as(g278
g215
g142
tp1282
(lp1283
I01
as(g909
g142
g948
tp1284
(lp1285
I00
as(g392
g906
g142
tp1286
(lp1287
I00
as(g906
g906
g948
tp1288
(lp1289
I00
as(g912
g951
g142
tp1290
(lp1291
I00
as(g948
g951
g948
tp1292
(lp1293
I00
as(g278
g906
g948
tp1294
(lp1295
I00
as(g948
g329
g142
tp1296
(lp1297
I00
as(g951
g951
g948
tp1298
(lp1299
I00
as(g912
g909
g142
tp1300
(lp1301
I00
as(g909
g278
g142
tp1302
(lp1303
I00
as(g948
g141
g948
tp1304
(lp1305
I00
as(g215
g909
g948
tp1306
(lp1307
I00
as(g906
g142
g142
tp1308
(lp1309
I00
as(g951
g909
g948
tp1310
(lp1311
I00
as(g906
g215
g142
tp1312
(lp1313
I00
as(g215
g392
g142
tp1314
(lp1315
I00
as(g912
g948
g948
tp1316
(lp1317
I00
as(g141
g909
g948
tp1318
(lp1319
I00
as(g329
g141
g142
tp1320
(lp1321
I01
as(g951
g948
g948
tp1322
(lp1323
I00
as(g948
g141
g142
tp1324
(lp1325
I00
as(g909
g951
g142
tp1326
(lp1327
I00
as(g392
g906
g948
tp1328
(lp1329
I00
as(g392
g912
g948
tp1330
(lp1331
I00
as(g278
g142
g142
tp1332
(lp1333
I00
as(g912
g951
g948
tp1334
(lp1335
I00
as(g912
g278
g142
tp1336
(lp1337
I00
as(g951
g912
g948
tp1338
(lp1339
I00
as(g142
g329
g142
tp1340
(lp1341
I00
as(g142
g906
g142
tp1342
(lp1343
I00
as(g329
g909
g142
tp1344
(lp1345
I01
as(g329
g912
g142
tp1346
(lp1347
I00
as(g951
g906
g142
tp1348
(lp1349
I00
as(g392
g215
g142
tp1350
(lp1351
I00
as(g392
g392
g948
tp1352
(lp1353
I00
as(g329
g278
g948
tp1354
(lp1355
I00
as(g278
g142
g948
tp1356
(lp1357
I00
as(g141
g142
g142
tp1358
(lp1359
I00
as(g909
g142
g142
tp1360
(lp1361
I00
as(g329
g141
g948
tp1362
(lp1363
I00
as(g278
g141
g142
tp1364
(lp1365
I01
as(g142
g948
g142
tp1366
(lp1367
I00
as(g951
g951
g142
tp1368
(lp1369
I00
as(g141
g215
g948
tp1370
(lp1371
I00
as(g909
g951
g948
tp1372
(lp1373
I00
as(g948
g392
g142
tp1374
(lp1375
I00
as(g215
g912
g142
tp1376
(lp1377
I00
as(g951
g912
g142
tp1378
(lp1379
I00
as(g909
g948
g142
tp1380
(lp1381
I00
as(g215
g392
g948
tp1382
(lp1383
I00
as(g142
g909
g142
tp1384
(lp1385
I00
as(g951
g329
g948
tp1386
(lp1387
I00
as(g278
g951
g948
tp1388
(lp1389
I00
as(g392
g392
g142
tp1390
(lp1391
I00
as(g329
g278
g142
tp1392
(lp1393
I00
as(g906
g951
g948
tp1394
(lp1395
I00
as(g392
g912
g142
tp1396
(lp1397
I00
as(g142
g278
g142
tp1398
(lp1399
I00
as(g215
g906
g142
tp1400
(lp1401
I01
as(g912
g278
g948
tp1402
(lp1403
I00
as(g278
g278
g142
tp1404
(lp1405
I00
as(g329
g912
g948
tp1406
(lp1407
I00
as(g392
g278
g142
tp1408
(lp1409
I00
as(g906
g948
g948
tp1410
(lp1411
I00
as(g142
g141
g142
tp1412
(lp1413
I00
as(g141
g948
g948
tp1414
(lp1415
I00
as(g142
g912
g948
tp1416
(lp1417
I00
as(g141
g142
g948
tp1418
(lp1419
I00
as(g948
g948
g948
tp1420
(lp1421
I00
as(g392
g951
g948
tp1422
(lp1423
I00
as(g912
g906
g948
tp1424
(lp1425
I00
as(g142
g948
g948
tp1426
(lp1427
I00
as(g141
g215
g142
tp1428
(lp1429
I01
as(g948
g909
g142
tp1430
(lp1431
I00
assg526
g527
sS'use_prm'
p1432
I01
sS'object_names'
p1433
(lp1434
S'square_packing_box1'
p1435
aS'rectangular_packing_box1'
p1436
aS'square_packing_box2'
p1437
aS'rectangular_packing_box2'
p1438
aS'square_packing_box3'
p1439
aS'rectangular_packing_box3'
p1440
aS'square_packing_box4'
p1441
aS'rectangular_packing_box4'
p1442
asg901
NsS'current_holding_collides'
p1443
NsS'object_poses'
p1444
(dp1445
Vrectangular_packing_box4
p1446
g22
(g23
(I0
tp1447
g25
tp1448
Rp1449
(I1
(I1
I3
tp1450
g151
I00
S'\x00A\xd6\xa8\xc1\x08\xa3? \xca\xa4\xe6y\x7f\x17\xc0\xa7\xefq;\xf0\xa9\xe3?'
p1451
tp1452
bsVrectangular_packing_box2
p1453
g22
(g23
(I0
tp1454
g25
tp1455
Rp1456
(I1
(I1
I3
tp1457
g151
I00
S'\xb8"\xf3@k\x85\x06@NIBh\xfft\x18\xc0\xd2%K\xc5\xf9\xd9\xc9?'
p1458
tp1459
bsVrectangular_packing_box3
p1460
g22
(g23
(I0
tp1461
g25
tp1462
Rp1463
(I1
(I1
I3
tp1464
g151
I00
S"\xda\xb2\x93\xeb\xa7\x0e\x05@\x9b!\xef\xb7e+\x16\xc0e\xc4\xb2'6\x95\x00@"
p1465
tp1466
bsVrectangular_packing_box1
p1467
g22
(g23
(I0
tp1468
g25
tp1469
Rp1470
(I1
(I1
I3
tp1471
g151
I00
S'\x85\xa0\xa3\x8d\xb3\xf7\x04@\xf7\xc2\x13\x07\xb9a \xc0\xb6"Y\xbeg\xe1\x18@'
p1472
tp1473
bsVsquare_packing_box2
p1474
g22
(g23
(I0
tp1475
g25
tp1476
Rp1477
(I1
(I1
I3
tp1478
g151
I00
S'\x02\x81\xc7\xaa\xc9\x89\x08@\x0b.\xfd\xd3C\x98\x1c\xc0\xc8\xfd2\xbd\xd2p\x11@'
p1479
tp1480
bsVsquare_packing_box3
p1481
g22
(g23
(I0
tp1482
g25
tp1483
Rp1484
(I1
(I1
I3
tp1485
g151
I00
S'\xb0\x94\xd2\xc0\xb9w\xdf?\xdb\xc0\xfa\xfewI\x16\xc0\x8a\xd3\x9e/\x95\xe9\x00@'
p1486
tp1487
bsVsquare_packing_box1
p1488
g22
(g23
(I0
tp1489
g25
tp1490
Rp1491
(I1
(I1
I3
tp1492
g151
I00
S'+\xff\xaa\xf4\xbc*\xff?\xe7$\x0cu}\xfd\x1c\xc0\x8d4q\xd4\xe4w\xd8?'
p1493
tp1494
bsVsquare_packing_box4
p1495
g22
(g23
(I0
tp1496
g25
tp1497
Rp1498
(I1
(I1
I3
tp1499
g151
I00
S"y.\x80(\xbe\x97\x0b@.By\xbee\x7f\x18\xc0\xce'&\xbcqu\x18@"
p1500
tp1501
bssS'reachable_regions_while_holding'
p1502
(lp1503
(g489
g948
tp1504
a(g575
g948
tp1505
a(g625
g948
tp1506
a(g669
g948
tp1507
a(g713
g948
tp1508
a(g490
g948
tp1509
a(g12
g948
tp1510
a(g842
g948
tp1511
a(g489
g142
tp1512
a(g490
g142
tp1513
a(g12
g142
tp1514
asS'in_region'
p1515
(itrajectory_representation.predicates.in_region
InRegion
p1516
(dp1517
g901
NsbsS'cached_pick_paths'
p1518
(dp1519
g489
g556
sg575
g600
sg625
g650
sg669
g694
sg713
g744
sg490
g793
sg12
g823
sg842
g873
ssg491
(dp1520
(Vsquare_packing_box3
p1521
(cnumpy.core.multiarray
scalar
p1522
(g151
S'1\n\x82\xc7\xb7w\xdf?'
p1523
tp1524
Rp1525
g1522
(g151
S'.X\xaa\x0bxI\x16\xc0'
p1526
tp1527
Rp1528
g1522
(g151
S'\xe9\xd2\xbf$\x95\xe9\x00@'
p1529
tp1530
Rp1531
tp1532
tp1533
g517
s(Vsquare_packing_box2
p1534
(g1522
(g151
S'"\xa9\x85\x92\xc9\x89\x08@'
p1535
tp1536
Rp1537
g1522
(g151
S'\x1f/\xa4\xc3C\x98\x1c\xc0'
p1538
tp1539
Rp1540
g1522
(g151
S'\xed\xd2\x86\xc3\xd2p\x11@'
p1541
tp1542
Rp1543
tp1544
tp1545
g513
s(Vsquare_packing_box1
p1546
(g1522
(g151
S'pC\x8c\xd7\xbc*\xff?'
p1547
tp1548
Rp1549
g1522
(g151
S'I\xa1,|}\xfd\x1c\xc0'
p1550
tp1551
Rp1552
g1522
(g151
S'%\x04\xab\xea\xe5w\xd8?'
p1553
tp1554
Rp1555
tp1556
tp1557
g521
s(Vrectangular_packing_box3
p1558
(g1522
(g151
S'\xec\xc2\x0f\xce\xa7\x0e\x05@'
p1559
tp1560
Rp1561
g1522
(g151
S'\x96\x04\xa8\xa9e+\x16\xc0'
p1562
tp1563
Rp1564
g1522
(g151
S'\x02G\x02\r6\x95\x00@'
p1565
tp1566
Rp1567
tp1568
tp1569
g505
s(Vsquare_packing_box4
p1570
(g1522
(g151
S'u\xe6\x1e\x12\xbe\x97\x0b@'
p1571
tp1572
Rp1573
g1522
(g151
S'y\xeb\xfc\xdbe\x7f\x18\xc0'
p1574
tp1575
Rp1576
g1522
(g151
S'\x8as\xd4\xd1qu\x18@'
p1577
tp1578
Rp1579
tp1580
tp1581
g525
s(Vrectangular_packing_box1
p1582
(g1522
(g151
S'\x03"\xc4\x95\xb3\xf7\x04@'
p1583
tp1584
Rp1585
g1522
(g151
S'\xef\xe6\xa9\x0e\xb9a \xc0'
p1586
tp1587
Rp1588
g1522
(g151
S'<\x85\\\xa9g\xe1\x18@'
p1589
tp1590
Rp1591
tp1592
tp1593
g509
s(Vrectangular_packing_box2
p1594
(g1522
(g151
S'\xc3\xb8\x1bDk\x85\x06@'
p1595
tp1596
Rp1597
g1522
(g151
S'\xb3|]\x86\xfft\x18\xc0'
p1598
tp1599
Rp1600
g1522
(g151
S'\xd2\xe3\xf76\xfd\xd9\xc9?'
p1601
tp1602
Rp1603
tp1604
tp1605
g501
s(Vrectangular_packing_box4
p1606
(g1522
(g151
S'\xb2fd\x90\xbb\x08\xa3?'
p1607
tp1608
Rp1609
g1522
(g151
S'Q\xfaB\xc8y\x7f\x17\xc0'
p1610
tp1611
Rp1612
g1522
(g151
S'\xbb\xd22R\xef\xa9\xe3?'
p1613
tp1614
Rp1615
tp1616
tp1617
g497
ssS'state_saver'
p1618
(igtamp_utils.utils
CustomStateSaver
p1619
(dp1620
S'robot_base_pose'
p1621
g22
(g23
(I0
tp1622
g25
tp1623
Rp1624
(I1
(I1
I3
tp1625
g151
I00
S'\x14^\xca\x10\x96_\xed?z7\x1e\xc9D\xd8\x1a\xc0\xca\x84J\x91\xc3\xb6\x10@'
p1626
tp1627
bsS'held_object'
p1628
NsS'robot_name'
p1629
S'pr2'
p1630
sS'env_id'
p1631
I1
sg1444
(dp1632
Vright_wall_1
p1633
g22
(g23
(I0
tp1634
g25
tp1635
Rp1636
(I1
(I4
tp1637
g151
I00
S'H\xe1z\x14\xaeG\x12@&\\\x8f\xc2\xf5(\xd4\xbf\xcc\x7fH\xbf}\x1d\xed?\x00\x00\x00\x00\x00\x00\x00\x00'
p1638
tp1639
bsVc_obst5
p1640
g22
(g23
(I0
tp1641
g25
tp1642
Rp1643
(I1
(I4
tp1644
g151
I00
S"\xe0\x879\x1e\x05\x8a\x12@.\x89\x8b\x9f\x0ch\xc8?e\xaa`TR'\xed?\xd9\xcf\xd9\xd6Xg\x08@"
p1645
tp1646
bsVentrance_right
p1647
g22
(g23
(I0
tp1648
g25
tp1649
Rp1650
(I1
(I4
tp1651
g151
I00
S'ffffff\n@H\xe1z\x14\xaeG\t\xc0\x9c\xc4 \xb0rh\xc1?\x00\x00\x00\x00\x00\x00\x00\x00'
p1652
tp1653
bsVcomputer_table
p1654
g22
(g23
(I0
tp1655
g25
tp1656
Rp1657
(I1
(I4
tp1658
g151
I00
S'\x00\x00\x00\x00\x00\x00\x13@\x00\x00\x00\x00\x00\x00\xf8\xbf\x96C\x8bl\xe7\xfb\xe7?\xd2!3\x7f|\xd9\x12@'
p1659
tp1660
bsVchair_6b56
p1661
g22
(g23
(I0
tp1662
g25
tp1663
Rp1664
(I1
(I4
tp1665
g151
I00
S'u=\n\xd7\xa3p\xf5?K\xe1z\x14\xaeG\xd1?\x00\x00\x00\x00\x00\x00\x00\x00\xd6$\xfaNBm\n@'
p1666
tp1667
bsVsquare_packing_box3
p1668
g22
(g23
(I0
tp1669
g25
tp1670
Rp1671
(I1
(I4
tp1672
g151
I00
S'\xb8\x94\xd2\xc0\xb9w\xdf?\xdc\xc0\xfa\xfewI\x16\xc0L7\x89A`\xe5\xd8?\x8a\xd3\x9e/\x95\xe9\x00@'
p1673
tp1674
bsVsquare_packing_box2
p1675
g22
(g23
(I0
tp1676
g25
tp1677
Rp1678
(I1
(I4
tp1679
g151
I00
S'\x02\x81\xc7\xaa\xc9\x89\x08@\x0b.\xfd\xd3C\x98\x1c\xc0L7\x89A`\xe5\xd8?\xc8\xfd2\xbd\xd2p\x11@'
p1680
tp1681
bsVtable
p1682
g22
(g23
(I0
tp1683
g25
tp1684
Rp1685
(I1
(I4
tp1686
g151
I00
S'\x7f\xf6#EdX\xed?\xac\xffs\x98//\xc0\xbf\x00\x00\x00\x00\x00\x00\x00\x00\x00\x00\x00\x00\x00\x00\x00\x00'
p1687
tp1688
bsVsquare_packing_box1
p1689
g22
(g23
(I0
tp1690
g25
tp1691
Rp1692
(I1
(I4
tp1693
g151
I00
S'-\xff\xaa\xf4\xbc*\xff?\xe9$\x0cu}\xfd\x1c\xc0L7\x89A`\xe5\xd8?\x8d4q\xd4\xe4w\xd8?'
p1694
tp1695
bsVback_wall_2
p1696
g22
(g23
(I0
tp1697
g25
tp1698
Rp1699
(I1
(I4
tp1700
g151
I00
S'\xaeG\xe1z\x14.\x13@\x80\x14\xaeG\xe1z\xc4?xX\xa85\xcd\xbb\xf2?\x00\x00\x00\x00\x00\x00\x00\x00'
p1701
tp1702
bsVchair_083c
p1703
g22
(g23
(I0
tp1704
g25
tp1705
Rp1706
(I1
(I4
tp1707
g151
I00
S'\xa4p=\n\xd7\xa3\xe0?333333\xe3\xbf\x00\x00\x00\x00\x00\x00\x00\x00\x00\x00\x00\x00\x00\x00\x00\x00'
p1708
tp1709
bsVback_wall_1
p1710
g22
(g23
(I0
tp1711
g25
tp1712
Rp1713
(I1
(I4
tp1714
g151
I00
S'\xaeG\xe1z\x14.\x13@\x80\x14\xaeG\xe1z\xc4?\xcc\x7fH\xbf}\x1d\xed?\x00\x00\x00\x00\x00\x00\x00\x00'
p1715
tp1716
bsVbottom_wall
p1717
g22
(g23
(I0
tp1718
g25
tp1719
Rp1720
(I1
(I4
tp1721
g151
I00
S'\x00\x00\x00\x00\x00\x00\xfc?\x00\x00\x00\x00\x00\x00\x00\x00\x00\x00\x00\x00\x00\x00\x00\x00\x00\x00\x00\x00\x00\x00\x00\x00'
p1722
tp1723
bsVcup_905a
p1724
g22
(g23
(I0
tp1725
g25
tp1726
Rp1727
(I1
(I4
tp1728
g151
I00
S'\x00\x00\x00\x00\x00\x00\xf0?\x83\xc0\xca\xa1E\xb6\xdb?\x1b/\xdd$\x06\x81\xed?\x00\x00\x00\x00\x00\x00\x00\x00'
p1729
tp1730
bsVplate_496f
p1731
g22
(g23
(I0
tp1732
g25
tp1733
Rp1734
(I1
(I4
tp1735
g151
I00
S"q=\n\xd7\xa3p\xe5?\x9dhW!\xe5'\xdd\xbf\x1b/\xdd$\x06\x81\xed?\x00\x00\x00\x00\x00\x00\x00\x00"
p1736
tp1737
bsVtoaster
p1738
g22
(g23
(I0
tp1739
g25
tp1740
Rp1741
(I1
(I4
tp1742
g151
I00
S')\\\x8f\xc2\xf5(\xf4\xbf\xe0z\x14\xaeG\xe1\xf2\xbf\xb8\x1e\x85\xebQ\xb8\xee?\x89/`\x9b\xf8\x8a\xe4?'
p1743
tp1744
bsVc_obst1
p1745
g22
(g23
(I0
tp1746
g25
tp1747
Rp1748
(I1
(I4
tp1749
g151
I00
S"\xfcR\xcek\xa0t\x12@\xe2\xe1\x0eSQ\xce\xd2?e\xaa`TR'\xed?\xa8\x14\xb3\xcb\xcc\xca\x07@"
p1750
tp1751
bsVrectangular_packing_box4
p1752
g22
(g23
(I0
tp1753
g25
tp1754
Rp1755
(I1
(I4
tp1756
g151
I00
S'\xb0A\xd6\xa8\xc1\x08\xa3? \xca\xa4\xe6y\x7f\x17\xc0L7\x89A`\xe5\xd8?\xa7\xefq;\xf0\xa9\xe3?'
p1757
tp1758
bsVmicrowave
p1759
g22
(g23
(I0
tp1760
g25
tp1761
Rp1762
(I1
(I4
tp1763
g151
I00
S'\x9a\x99\x99\x99\x99\x99\xf1\xbf\x00\x00\x00\x00\x00\x00\x00@7\x89A`\xe5\xd0\xee?\x00\x00\x00\x00\x00\x00\x00\x00'
p1764
tp1765
bsVc_obst7
p1766
g22
(g23
(I0
tp1767
g25
tp1768
Rp1769
(I1
(I4
tp1770
g151
I00
S"\x11\xdf\xad\xa7\xbe\x07\x12@\x87\x80\xe1\xd2@\xf0\xe0?e\xaa`TR'\xed?\xc0\xf3\x0c4h\xc6\x14@"
p1771
tp1772
bsVc_obst6
p1773
g22
(g23
(I0
tp1774
g25
tp1775
Rp1776
(I1
(I4
tp1777
g151
I00
S"\xa5\x8d\x89\x13\xa9l\x12@x\xa7\xcf\xbf\x8d\xd1\xb7?e\xaa`TR'\xed?\tNF\xe8I/\x0b@"
p1778
tp1779
bsVcup_b6af
p1780
g22
(g23
(I0
tp1781
g25
tp1782
Rp1783
(I1
(I4
tp1784
g151
I00
S'R\xb8\x1e\x85\xebQ\xe8?\x9a\x99\x99\x99\x99\x99\xe1?\x1b/\xdd$\x06\x81\xed?\x00\x00\x00\x00\x00\x00\x00\x00'
p1785
tp1786
bsVc_obst4
p1787
g22
(g23
(I0
tp1788
g25
tp1789
Rp1790
(I1
(I4
tp1791
g151
I00
S"\xda\x9b\xd9\xf4\r0\x12@\xc4O\xba>D|\x89?e\xaa`TR'\xed?nm\x97\xf3\x0b\x07\xa8?"
p1792
tp1793
bsVrectangular_packing_box2
p1794
g22
(g23
(I0
tp1795
g25
tp1796
Rp1797
(I1
(I4
tp1798
g151
I00
S'\xb8"\xf3@k\x85\x06@NIBh\xfft\x18\xc0L7\x89A`\xe5\xd8?\xd2%K\xc5\xf9\xd9\xc9?'
p1799
tp1800
bsVplate_fa76
p1801
g22
(g23
(I0
tp1802
g25
tp1803
Rp1804
(I1
(I4
tp1805
g151
I00
S'=\n\xd7\xa3p=\xf2?\x00\x00\x00\x00\x00\x00\x00\x00\x1b/\xdd$\x06\x81\xed?\x00\x00\x00\x00\x00\x00\x00\x00'
p1806
tp1807
bsVfloorwalls
p1808
g22
(g23
(I0
tp1809
g25
tp1810
Rp1811
(I1
(I4
tp1812
g151
I00
S'\xc7\xcc\xcc\xcc\xcc\xcc\xfc?\x00\x00\x00\x00\x00\x00\x18\xc0H\xe1z\x14\xaeG\xc1?\x16-DT\xfb!\xf9?'
p1813
tp1814
bsVpin_c671
p1815
g22
(g23
(I0
tp1816
g25
tp1817
Rp1818
(I1
(I4
tp1819
g151
I00
S'\xc3\xf5(\\\x8f\xc2\xf1\xbf}?5^\xbaI\x02@\xb8\x1e\x85\xebQ\xb8\xfa?\x00\x00\x00\x00\x00\x00\x00\x00'
p1820
tp1821
bsVc_obst3
p1822
g22
(g23
(I0
tp1823
g25
tp1824
Rp1825
(I1
(I4
tp1826
g151
I00
S"\x08\xb5\xfb\xd1mz\x12@\x10\xc9\x1f\xeai\xf9\xd7?e\xaa`TR'\xed?\xe2\x14\x1b^\xf2$\x02@"
p1827
tp1828
bsVchair_2e39
p1829
g22
(g23
(I0
tp1830
g25
tp1831
Rp1832
(I1
(I4
tp1833
g151
I00
S'hfffff\xee?cfffff\xf2\xbf\x00\x00\x00\x00\x00\x00\x00\x00\x07M\xe8QQF\xf3?'
p1834
tp1835
bsVentrance_left
p1836
g22
(g23
(I0
tp1837
g25
tp1838
Rp1839
(I1
(I4
tp1840
g151
I00
S'\x98\x99\x99\x99\x99\x99\xe9\xbfH\xe1z\x14\xaeG\t\xc0\x9c\xc4 \xb0rh\xc1?\x00\x00\x00\x00\x00\x00\x00\x00'
p1841
tp1842
bsVtop_wall_1
p1843
g22
(g23
(I0
tp1844
g25
tp1845
Rp1846
(I1
(I4
tp1847
g151
I00
S'H\xe1z\x14\xaeG\x12@\x80\x14\xaeG\xe1z\xc4?xX\xa85\xcd\xbb\xf2?\x00\x00\x00\x00\x00\x00\x00\x00'
p1848
tp1849
bsVrectangular_packing_box3
p1850
g22
(g23
(I0
tp1851
g25
tp1852
Rp1853
(I1
(I4
tp1854
g151
I00
S"\xdc\xb2\x93\xeb\xa7\x0e\x05@\x9b!\xef\xb7e+\x16\xc0L7\x89A`\xe5\xd8?e\xc4\xb2'6\x95\x00@"
p1855
tp1856
bsVshaker
p1857
g22
(g23
(I0
tp1858
g25
tp1859
Rp1860
(I1
(I4
tp1861
g151
I00
S'\n\xd7\xa3p=\n\x01@\x14\xaeG\xe1z\x14\x02@\\\x8f\xc2\xf5(\\\xef?\x00\x00\x00\x00\x00\x00\x00\x00'
p1862
tp1863
bsVc_obst9
p1864
g22
(g23
(I0
tp1865
g25
tp1866
Rp1867
(I1
(I4
tp1868
g151
I00
S"\x9es^\xf9\xc3e\x12@\xb0t\xe1\xd9\xe6{\xc9\xbfe\xaa`TR'\xed?J\xdd_\xcb\xd9\xb5\x02@"
p1869
tp1870
bsVplate_835a
p1871
g22
(g23
(I0
tp1872
g25
tp1873
Rp1874
(I1
(I4
tp1875
g151
I00
S'\xf6(\\\x8f\xc2\xf5\xf0?\\\x8f\xc2\xf5(\\\xe7\xbf\x1b/\xdd$\x06\x81\xed?\x00\x00\x00\x00\x00\x00\x00\x00'
p1876
tp1877
bsVcup_58a2
p1878
g22
(g23
(I0
tp1879
g25
tp1880
Rp1881
(I1
(I4
tp1882
g151
I00
S'\x85\xebQ\xb8\x1e\x85\xe3?\xcd\xcc\xcc\xcc\xcc\xcc\xdc?\x1b/\xdd$\x06\x81\xed?\x00\x00\x00\x00\x00\x00\x00\x00'
p1883
tp1884
bsVleft_wall_1
p1885
g22
(g23
(I0
tp1886
g25
tp1887
Rp1888
(I1
(I4
tp1889
g151
I00
S'H\xe1z\x14\xaeG\x12@S\xb8\x1e\x85\xebQ\xe4?\xcc\x7fH\xbf}\x1d\xed?\x00\x00\x00\x00\x00\x00\x00\x00'
p1890
tp1891
bsVc_obst2
p1892
g22
(g23
(I0
tp1893
g25
tp1894
Rp1895
(I1
(I4
tp1896
g151
I00
S"\xe7\xdf\x00\xf2\x1dG\x12@(_b\xa1\xf6\xc8\xb0\xbfe\xaa`TR'\xed?\x1c[\xf3h\xa9\xff\xd9?"
p1897
tp1898
bsVsquare_packing_box4
p1899
g22
(g23
(I0
tp1900
g25
tp1901
Rp1902
(I1
(I4
tp1903
g151
I00
S"z.\x80(\xbe\x97\x0b@,By\xbee\x7f\x18\xc0L7\x89A`\xe5\xd8?\xce'&\xbcqu\x18@"
p1904
tp1905
bsVrectangular_packing_box1
p1906
g22
(g23
(I0
tp1907
g25
tp1908
Rp1909
(I1
(I4
tp1910
g151
I00
S'\x87\xa0\xa3\x8d\xb3\xf7\x04@\xf6\xc2\x13\x07\xb9a \xc0L7\x89A`\xe5\xd8?\xae"Y\xbeg\xe1\x18@'
p1911
tp1912
bsVpin_371e
p1913
g22
(g23
(I0
tp1914
g25
tp1915
Rp1916
(I1
(I4
tp1917
g151
I00
S'333333\xf3\xbfffffff\xf6?\xb8\x1e\x85\xebQ\xb8\xee?\x00\x00\x00\x00\x00\x00\x00\x00'
p1918
tp1919
bsVfridge
p1920
g22
(g23
(I0
tp1921
g25
tp1922
Rp1923
(I1
(I4
tp1924
g151
I00
S'\xd7\xa3p=\n\xd7\xeb\xbf\x00\x00\x00\x00\x00\x00\x00\xc0\xcd\xcc\xcc\xcc\xcc\xcc\xf8?\x00\x00\x00\x00\x00\x00\x00\x00'
p1925
tp1926
bsVcup_d441
p1927
g22
(g23
(I0
tp1928
g25
tp1929
Rp1930
(I1
(I4
tp1931
g151
I00
S'\n\xd7\xa3p=\n\xef?\x8f\xc2\xf5(\\\x8f\xe2?\x1b/\xdd$\x06\x81\xed?\x00\x00\x00\x00\x00\x00\x00\x00'
p1932
tp1933
bsVshelf2
p1934
g22
(g23
(I0
tp1935
g25
tp1936
Rp1937
(I1
(I4
tp1938
g151
I00
S'\x00\x00\x00\x00\x00\x00\x0e@\xaeG\xe1z\x14\xae\x07@\x9c\xc4 \xb0rh\xc1?\xd2!3\x7f|\xd9\x12@'
p1939
tp1940
bsVtop_wall_2
p1941
g22
(g23
(I0
tp1942
g25
tp1943
Rp1944
(I1
(I4
tp1945
g151
I00
S'H\xe1z\x14\xaeG\x12@\x80\x14\xaeG\xe1z\xc4?\x16HP\xfc\x18\xf3\xfd?\x00\x00\x00\x00\x00\x00\x00\x00'
p1946
tp1947
bsVc_obst0
p1948
g22
(g23
(I0
tp1949
g25
tp1950
Rp1951
(I1
(I4
tp1952
g151
I00
S"\x0c\xd7\xf4\xc6,,\x12@\xc8\x0f\x82\xc3kI\xc5\xbfe\xaa`TR'\xed?\xca\xfb\x10\x89\xab\xe3\x14@"
p1953
tp1954
bsVshelf1
p1955
g22
(g23
(I0
tp1956
g25
tp1957
Rp1958
(I1
(I4
tp1959
g151
I00
S'\x00\x00\x00\x00\x00\x00\x13@\xaeG\xe1z\x14\xae\x07@\x9c\xc4 \xb0rh\xc1?\xd2!3\x7f|\xd9\x12@'
p1960
tp1961
bsVsink
p1962
g22
(g23
(I0
tp1963
g25
tp1964
Rp1965
(I1
(I4
tp1966
g151
I00
S'ffffff\xd6?333333\x01@\x9a\x99\x99\x99\x99\x99\xb9\xbf\x00\x00\x00\x00\x00\x00\x00\x00'
p1967
tp1968
bsVpr2
p1969
g22
(g23
(I0
tp1970
g25
tp1971
Rp1972
(I1
(I4
tp1973
g151
I00
S'8^\xca\x10\x96_\xed?\x817\x1e\xc9D\xd8\x1a\xc0\x9a_\x94\xa0\xbf\xd0\xc1?\xca\x84J\x91\xc3\xb6\x10@'
p1974
tp1975
bsVchair_12d0
p1976
g22
(g23
(I0
tp1977
g25
tp1978
Rp1979
(I1
(I4
tp1980
g151
I00
S'\\\xd2\x18\xad\xa3\xaa\xdb?Of\x83L2r\xc6?\x00\x00\x00\x00\x00\x00\x00\x00\xf8\x81\r\x14M\xa6\x17@'
p1981
tp1982
bsVright_wall_2
p1983
g22
(g23
(I0
tp1984
g25
tp1985
Rp1986
(I1
(I4
tp1987
g151
I00
S'H\xe1z\x14\xaeG\x12@&\\\x8f\xc2\xf5(\xd4\xbfxX\xa85\xcd\xbb\xf2?\x00\x00\x00\x00\x00\x00\x00\x00'
p1988
tp1989
bsVknife_block
p1990
g22
(g23
(I0
tp1991
g25
tp1992
Rp1993
(I1
(I4
tp1994
g151
I00
S'R\xb8\x1e\x85\xebQ\xe0\xbfffffff\x02@`\xe5\xd0"\xdb\xf9\xee?\x00\x00\x00\x00\x00\x00\x00\x00'
p1995
tp1996
bsVleft_wall_2
p1997
g22
(g23
(I0
tp1998
g25
tp1999
Rp2000
(I1
(I4
tp2001
g151
I00
S'H\xe1z\x14\xaeG\x12@S\xb8\x1e\x85\xebQ\xe4?xX\xa85\xcd\xbb\xf2?\x00\x00\x00\x00\x00\x00\x00\x00'
p2002
tp2003
bsVleft_wall
p2004
g22
(g23
(I0
tp2005
g25
tp2006
Rp2007
(I1
(I4
tp2008
g151
I00
S'\x9a\x99\x99\x99\x99\x99\x07@H\xe1z\x14\xaeG\xff?\x9c\xc4 \xb0rh\xc1?\x00\x00\x00\x00\x00\x00\x00\x00'
p2009
tp2010
bsVkitchen
p2011
g22
(g23
(I0
tp2012
g25
tp2013
Rp2014
(I1
(I4
tp2015
g151
I00
S'\x00\x00\x00\x00\x00\x00\x00\x00\x00\x00\x00\x00\x00\x00\x00\x00\x00\x00\x00\x00\x00\x00\x00\x00\x00\x00\x00\x00\x00\x00\x00\x00'
p2016
tp2017
bsVtable2
p2018
g22
(g23
(I0
tp2019
g25
tp2020
Rp2021
(I1
(I4
tp2022
g151
I00
S'\x00\x00\x00\x00\x00\x00\x13@\x80\x14\xaeG\xe1z\xc4?S\x96!\x8euq\xec?\xd2!3\x7f|\xd9\x12@'
p2023
tp2024
bsVc_obst8
p2025
g22
(g23
(I0
tp2026
g25
tp2027
Rp2028
(I1
(I4
tp2029
g151
I00
S'\x1c\xf6\xafX7\x81\x12@\xe3\xea&\xc3pf\xdf?e\xaa`TR\'\xed?L(x"M\x1f\xdf?'
p2030
tp2031
bsVplate_b4e7
p2032
g22
(g23
(I0
tp2033
g25
tp2034
Rp2035
(I1
(I4
tp2036
g151
I00
S'\x14\xaeG\xe1z\x14\xf2\xbf\x14\xaeG\xe1z\x14\x00@=\n\xd7\xa3p=\xf2?\x00\x00\x00\x00\x00\x00\x00\x00'
p2037
tp2038
bsVcooker
p2039
g22
(g23
(I0
tp2040
g25
tp2041
Rp2042
(I1
(I4
tp2043
g151
I00
S'\xaeG\xe1z\x14\xae\xff?\x85\xebQ\xb8\x1e\x85\xfb?\x00\x00\x00\x00\x00\x00\xe8?\x00\x00\x00\x00\x00\x00\x00\x00'
p2044
tp2045
bsVpin_a091
p2046
g22
(g23
(I0
tp2047
g25
tp2048
Rp2049
(I1
(I4
tp2050
g151
I00
S'\xdb\xf9~j\xbct\xf7\xbf)\\\x8f\xc2\xf5(\x02@\xb8\x1e\x85\xebQ\xb8\xfa?\x00\x00\x00\x00\x00\x00\x00\x00'
p2051
tp2052
bsVside_wall_2
p2053
g22
(g23
(I0
tp2054
g25
tp2055
Rp2056
(I1
(I4
tp2057
g151
I00
S'\xfa\xff\xff\xff\xff\xff\x14@\x00\x00\x00\x00\x00\x00\x00\x00\x9c\xc4 \xb0rh\xc1?\x18-DT\xfb!\xf9?'
p2058
tp2059
bsVside_wall_3
p2060
g22
(g23
(I0
tp2061
g25
tp2062
Rp2063
(I1
(I4
tp2064
g151
I00
S'\x00\x00\x00\x00\x00\x00\xfc?H\xe1z\x14\xaeG\t@\x9c\xc4 \xb0rh\xc1?\x00\x00\x00\x00\x00\x00\x00\x00'
p2065
tp2066
bsVmixer
p2067
g22
(g23
(I0
tp2068
g25
tp2069
Rp2070
(I1
(I4
tp2071
g151
I00
S'\n\xd7\xa3p=\n\xfb?ffffff\x02@d;\xdfO\x8d\x97\xee?\x00\x00\x00\x00\x00\x00\x00\x00'
p2072
tp2073
bsVside_wall_1
p2074
g22
(g23
(I0
tp2075
g25
tp2076
Rp2077
(I1
(I4
tp2078
g151
I00
S'\xf4\xff\xff\xff\xff\xff\xfb\xbf\x00\x00\x00\x00\x00\x00\x00\x00\x9c\xc4 \xb0rh\xc1?\x18-DT\xfb!\xf9?'
p2079
tp2080
bsVbottom_wall_1
p2081
g22
(g23
(I0
tp2082
g25
tp2083
Rp2084
(I1
(I4
tp2085
g151
I00
S'H\xe1z\x14\xaeG\x12@\x80\x14\xaeG\xe1z\xc4?\xcc\x7fH\xbf}\x1d\xed?\x00\x00\x00\x00\x00\x00\x00\x00'
p2086
tp2087
bsVcan
p2088
g22
(g23
(I0
tp2089
g25
tp2090
Rp2091
(I1
(I4
tp2092
g151
I00
S'\x00\x00\x00\x00\x00\x00\xf4\xbfH\xe1z\x14\xaeG\xe1\xbf\n\xd7\xa3p=\n\xef?\x00\x00\x00\x00\x00\x00\x00\x00'
p2093
tp2094
bsVright_wall
p2095
g22
(g23
(I0
tp2096
g25
tp2097
Rp2098
(I1
(I4
tp2099
g151
I00
S'\x9a\x99\x99\x99\x99\x99\x07@H\xe1z\x14\xaeG\xff\xbf\x9c\xc4 \xb0rh\xc1?\x00\x00\x00\x00\x00\x00\x00\x00'
p2100
tp2101
bsVcoffe_machine
p2102
g22
(g23
(I0
tp2103
g25
tp2104
Rp2105
(I1
(I4
tp2106
g151
I00
S'\\\x8f\xc2\xf5(\\\xf5\xbf\xb8\x1e\x85\xebQ\xb8\xee?\n\xd7\xa3p=\n\xef?\x00\x00\x00\x00\x00\x00\x00\x00'
p2107
tp2108
bsVcomputer_chair
p2109
g22
(g23
(I0
tp2110
g25
tp2111
Rp2112
(I1
(I4
tp2113
g151
I00
S'\xcd\xcc\xcc\xcc\xcc\xcc\x10@\x00\x00\x00\x00\x00\x00\xf8\xbf\xa00\xb6\x10\xe4\xa9\x95\xbf\x00\x00\x00\x00\x00\x00\x00\x00'
p2114
tp2115
bssS'robot_dof_values'
p2116
g22
(g23
(I0
tp2117
g25
tp2118
Rp2119
(I1
(I39
tp2120
g151
I00
S'\x00\x00\x00\x00\x00\x00\x00\x00\x00\x00\x00\x00\x00\x00\x00\x00\x00\x00\x00\x00\x00\x00\x00\x00\x00\x00\x00\x00\x00\x00\x00\x00\x00\x00\x00\x00\x00\x00\x00\x00\x00\x00\x00\x00\x00\x00\x00\x00\x00\x00\x00\x00\x00\x00\x00\x00\x00\x00\x00\x00\x00\x00\x00\x00\x00\x00\x00\x00\x00\x00\x00\x00\x00\x00\x00\x00\x00\x00\x00\x00\x00\x00\x00\x00\x00\x00\x00\x00\x00\x00\x00\x00\x00\x00\x00\x00@d;\xdfO\x8d\x87?\x00\x00\x00\x00\x00\x00\x00\x00\x00\x00\x00\x00\x00\x00\x00\x00\x00\x00\x00\x00\x00\x00\x00\x00\xea\xed\t\xf1\xcc\xa4\xf4?\x00\x00\x00\x00\x00\x00\x00\x00N"\xd0^p\xf8\x00\xc0\x00\x00\x00\x00\x00\x00\x00\x00\xa1\x03\r.\x04V\xe6\xbf\x00\x00\x00\x00\x00\x00\x00\x00\x00\x00\x00\x00\x00\x00\x00\x00\x00\x00\x00\x00\x00\x80\xdc<\x00\x00\x00\x00\x00\x00\x00\x00\x00\x00\x00\x00\x00\x00\xf4\xbc\x00\x00\x00\x00\x00\x00\x00\x00\x00\x00\x00\x00\x00\x00\x00\x00\xeb\xed\t\xf1\xcc\xa4\xf4?\x00\x00\x00\x00\x00\x00\x00\x00N"\xd0^p\xf8\x00\xc0\x00\x00\x00\x00\x00\x00\x00\x00\xa1\x03\r.\x04V\xe6\xbf\x00\x00\x00\x00\x00\x00\x00\x00\xce9\xe3\xc17\x89\xe1?\x00\x00\x00\x00\x00\x00\xb2<\x00\x00\x00\x00\x00\x00\x00\x00\x00\x00\x00\x00\x00\x00\xe0\xbc\x00\x00\x00\x00\x00\x00\x00\x00'
p2121
tp2122
bsS'is_holding'
p2123
I00
sbsS'holding_collides'
p2124
NsS'parent_ternary_predicates'
p2125
(dp2126
sS'cached_place_paths'
p2127
(dp2128
(g669
g948
tp2129
(lp2130
g22
(g23
(I0
tp2131
g25
tp2132
Rp2133
(I1
(I3
tp2134
g151
I00
S'v\xbe\x1ci\xb9\x05\xfe?Nm~\x9e\xc7\xa9\x1f\xc0\x1c\xfc\x80\xb1\x0b\xf9\x16@'
p2135
tp2136
bas(g842
g142
tp2137
g280
s(g489
g142
tp2138
(lp2139
g22
(g23
(I0
tp2140
g25
tp2141
Rp2142
(I1
(I3
tp2143
g151
I00
S'\x10\xcb\x05\xd7\xd6\xe0\xe2?$ARh$[\x19\xc0\x0c\x02\x1ay\xcc\x16\x03@'
p2144
tp2145
bag22
(g23
(I0
tp2146
g25
tp2147
Rp2148
(I1
(I3
tp2149
g162
I00
S'{\xe7\xcc\xce\x02,\xf5?\xeb\x85\xf2\xb4\xc9\x08\x19\xc0\xcd\x97\xf6\xcc\xe4z\x00@'
p2150
tp2151
bag22
(g23
(I0
tp2152
g25
tp2153
Rp2154
(I1
(I3
tp2155
g162
I00
S'\x85\\2\xba\x0b5\xf5?I\r\x06\xd10\xfb\x15\xc0\x9e\x11\xee\xd8\xb9\xd7\xf5?'
p2156
tp2157
bag22
(g23
(I0
tp2158
g25
tp2159
Rp2160
(I1
(I3
tp2161
g162
I00
S'v\xb8^\x85\xa7[\xea?x\xbe\xff2t\x8d\x13\xc0\x88\x85\x8cCyH\xf6?'
p2162
tp2163
bag22
(g23
(I0
tp2164
g25
tp2165
Rp2166
(I1
(I3
tp2167
g162
I00
S'\xc2\xda(e\x83\x1a\xeb?\x8au\x8d3\xa6E\x11\xc0\xb4c\x1b\xed_\xfd\xfa?'
p2168
tp2169
bag22
(g23
(I0
tp2170
g25
tp2171
Rp2172
(I1
(I3
tp2173
g162
I00
S'\xe4u**\x0e5\xe9?\xaa\xfd\r\xed\xc4\xf6\r\xc0\x0fDE0\x1f\x0b\xfe?'
p2174
tp2175
bag22
(g23
(I0
tp2176
g25
tp2177
Rp2178
(I1
(I3
tp2179
g162
I00
S'\x06\x11,\xef\x98O\xe7??\x10\x01s=b\t\xc04\x92\xb79o\x8c\x00@'
p2180
tp2181
bag22
(g23
(I0
tp2182
g25
tp2183
Rp2184
(I1
(I3
tp2185
g162
I00
S'\x92\xaf\xf3P\x96O\xc2?(\xa1:\x8er}\x05\xc0\xd4_\x91\xb3\xffL\x02@'
p2186
tp2187
bas(g490
g948
tp2188
(lp2189
g22
(g23
(I0
tp2190
g25
tp2191
Rp2192
(I1
(I3
tp2193
g151
I00
S'0y\xcaZ\x02\x1f\xee?R\x05%\x905\xdd\x18\xc0\xddJk\xf3\xd6\xb8\xfc?'
p2194
tp2195
bas(g489
g948
tp2196
(lp2197
g22
(g23
(I0
tp2198
g25
tp2199
Rp2200
(I1
(I3
tp2201
g151
I00
S'\xfc\xca\x05\xd7\xd6\xe0\xe2?)ARh$[\x19\xc0\x0c\x02\x1ay\xcc\x16\x03@'
p2202
tp2203
bas(g490
g142
tp2204
(lp2205
g22
(g23
(I0
tp2206
g25
tp2207
Rp2208
(I1
(I3
tp2209
g151
I00
S'0y\xcaZ\x02\x1f\xee?T\x05%\x905\xdd\x18\xc0\xddJk\xf3\xd6\xb8\xfc?'
p2210
tp2211
bag22
(g23
(I0
tp2212
g25
tp2213
Rp2214
(I1
(I3
tp2215
g162
I00
S'{\xe7\xcc\xce\x02,\xf5?\xeb\x85\xf2\xb4\xc9\x08\x19\xc0\xcd\x97\xf6\xcc\xe4z\x00@'
p2216
tp2217
bag22
(g23
(I0
tp2218
g25
tp2219
Rp2220
(I1
(I3
tp2221
g162
I00
S'\x85\\2\xba\x0b5\xf5?I\r\x06\xd10\xfb\x15\xc0\x9e\x11\xee\xd8\xb9\xd7\xf5?'
p2222
tp2223
bag22
(g23
(I0
tp2224
g25
tp2225
Rp2226
(I1
(I3
tp2227
g162
I00
S'v\xb8^\x85\xa7[\xea?x\xbe\xff2t\x8d\x13\xc0\x88\x85\x8cCyH\xf6?'
p2228
tp2229
bag22
(g23
(I0
tp2230
g25
tp2231
Rp2232
(I1
(I3
tp2233
g162
I00
S'\xc2\xda(e\x83\x1a\xeb?\x8au\x8d3\xa6E\x11\xc0\xb4c\x1b\xed_\xfd\xfa?'
p2234
tp2235
bag22
(g23
(I0
tp2236
g25
tp2237
Rp2238
(I1
(I3
tp2239
g162
I00
S'\xe4u**\x0e5\xe9?\xaa\xfd\r\xed\xc4\xf6\r\xc0\x0fDE0\x1f\x0b\xfe?'
p2240
tp2241
bag22
(g23
(I0
tp2242
g25
tp2243
Rp2244
(I1
(I3
tp2245
g162
I00
S'\x06\x11,\xef\x98O\xe7??\x10\x01s=b\t\xc04\x92\xb79o\x8c\x00@'
p2246
tp2247
bag22
(g23
(I0
tp2248
g25
tp2249
Rp2250
(I1
(I3
tp2251
g162
I00
S'\x92\xaf\xf3P\x96O\xc2?(\xa1:\x8er}\x05\xc0\xd4_\x91\xb3\xffL\x02@'
p2252
tp2253
bas(g713
g948
tp2254
(lp2255
g22
(g23
(I0
tp2256
g25
tp2257
Rp2258
(I1
(I3
tp2259
g151
I00
S'\x93\x9c\xab\xf8\r\n\x08@\x9b\x0c\x95K\x8d\xde\x1f\xc0\xa4#\xa6\xbby\xd0\xf3?'
p2260
tp2261
bas(g713
g142
tp2262
g394
s(g12
g142
tp2263
(lp2264
g22
(g23
(I0
tp2265
g25
tp2266
Rp2267
(I1
(I3
tp2268
g151
I00
S'\x9c\\\x17\xae\xd9\x95\xf8?\x0f_\xae\xf2W\x8c\x1a\xc0\x95\xb8K\xa1\xe1\xb7\x14@'
p2269
tp2270
bag22
(g23
(I0
tp2271
g25
tp2272
Rp2273
(I1
(I3
tp2274
g162
I00
S'\xa1\x0f=\xe0\x1aF\xfc?e&S\xf6\xb5\xfc\x17\xc0s\xad\xdc\xd8h\x9b\x04\xc0'
p2275
tp2276
bag22
(g23
(I0
tp2277
g25
tp2278
Rp2279
(I1
(I3
tp2280
g162
I00
S'\x85\\2\xba\x0b5\xf5?I\r\x06\xd10\xfb\x15\xc0\x9e\x11\xee\xd8\xb9\xd7\xf5?'
p2281
tp2282
bag22
(g23
(I0
tp2283
g25
tp2284
Rp2285
(I1
(I3
tp2286
g162
I00
S'v\xb8^\x85\xa7[\xea?x\xbe\xff2t\x8d\x13\xc0\x88\x85\x8cCyH\xf6?'
p2287
tp2288
bag22
(g23
(I0
tp2289
g25
tp2290
Rp2291
(I1
(I3
tp2292
g162
I00
S'\xc2\xda(e\x83\x1a\xeb?\x8au\x8d3\xa6E\x11\xc0\xb4c\x1b\xed_\xfd\xfa?'
p2293
tp2294
bag22
(g23
(I0
tp2295
g25
tp2296
Rp2297
(I1
(I3
tp2298
g162
I00
S'\xe4u**\x0e5\xe9?\xaa\xfd\r\xed\xc4\xf6\r\xc0\x0fDE0\x1f\x0b\xfe?'
p2299
tp2300
bag22
(g23
(I0
tp2301
g25
tp2302
Rp2303
(I1
(I3
tp2304
g162
I00
S'\x06\x11,\xef\x98O\xe7??\x10\x01s=b\t\xc04\x92\xb79o\x8c\x00@'
p2305
tp2306
bag22
(g23
(I0
tp2307
g25
tp2308
Rp2309
(I1
(I3
tp2310
g162
I00
S'\x92\xaf\xf3P\x96O\xc2?(\xa1:\x8er}\x05\xc0\xd4_\x91\xb3\xffL\x02@'
p2311
tp2312
bas(g625
g142
tp2313
g217
s(g625
g948
tp2314
(lp2315
g22
(g23
(I0
tp2316
g25
tp2317
Rp2318
(I1
(I3
tp2319
g151
I00
S'S\x1ac\xfb\x90h\x07@O\\X\xc5\xa5L\x19\xc0\xd1\x19\xed\xb6Q)\x00@'
p2320
tp2321
bas(g842
g948
tp2322
(lp2323
g22
(g23
(I0
tp2324
g25
tp2325
Rp2326
(I1
(I3
tp2327
g151
I00
S'\x92\xb6\x01\x16\x90\x82\x06@:\xf5\xb7.\x84W\x17\xc0\x11\x980\x97Q\xe3\x16@'
p2328
tp2329
bas(g12
g948
tp2330
(lp2331
g22
(g23
(I0
tp2332
g25
tp2333
Rp2334
(I1
(I3
tp2335
g151
I00
S'\x98\\\x17\xae\xd9\x95\xf8?\x0f_\xae\xf2W\x8c\x1a\xc0\x95\xb8K\xa1\xe1\xb7\x14@'
p2336
tp2337
bas(g575
g948
tp2338
(lp2339
g22
(g23
(I0
tp2340
g25
tp2341
Rp2342
(I1
(I3
tp2343
g151
I00
S'\x82\xa1ra\x93w\x08@\xbd5\xf3\xfa\xaf\x15\x1b\xc0<\xa6h\x19\xfc\xc4\xf8?'
p2344
tp2345
bas(g575
g142
tp2346
g144
s(g669
g142
tp2347
g331
ssS'parent_binary_predicates'
p2348
(dp2349
sS'nodes'
p2350
(dp2351
g951
(lp2352
I0
aI0
aI0
aI0
aI0
aI0
aI00
aI01
aI00
aI01
aI00
asg948
(lp2353
I0
aI0
aI0
aI0
aI0
aI0
aI00
aI01
aI00
aI01
aI00
asg142
(lp2354
I0
aI0
aI0
aI0
aI0
aI0
aI00
aI01
aI01
aI01
aI00
asg912
(lp2355
I0
aI0
aI0
ag1522
(g151
S'\x02@\xd6\xa8\xc1\x08\xa3?'
p2356
tp2357
Rp2358
ag1522
(g151
S'(\xca\xa4\xe6y\x7f\x17\xc0'
p2359
tp2360
Rp2361
ag1522
(g151
S'\xa7\xefq;\xf0\xa9\xe3?'
p2362
tp2363
Rp2364
aI01
aI00
aI00
aI01
aI00
asg141
(lp2365
I0
aI0
aI0
ag1522
(g151
S'\xba"\xf3@k\x85\x06@'
p2366
tp2367
Rp2368
ag1522
(g151
S'NIBh\xfft\x18\xc0'
p2369
tp2370
Rp2371
ag1522
(g151
S'\xd2%K\xc5\xf9\xd9\xc9?'
p2372
tp2373
Rp2374
aI01
aI00
aI00
aI00
aI00
asg215
(lp2375
I0
aI0
aI0
ag1522
(g151
S'\x9d\xb2\x93\xeb\xa7\x0e\x05@'
p2376
tp2377
Rp2378
ag1522
(g151
S'\xd6!\xef\xb7e+\x16\xc0'
p2379
tp2380
Rp2381
ag1522
(g151
S"e\xc4\xb2'6\x95\x00@"
p2382
tp2383
Rp2384
aI01
aI00
aI00
aI00
aI00
asg329
(lp2385
I0
aI0
aI0
ag1522
(g151
S'\x8b\xa0\xa3\x8d\xb3\xf7\x04@'
p2386
tp2387
Rp2388
ag1522
(g151
S'\xf9\xc2\x13\x07\xb9a \xc0'
p2389
tp2390
Rp2391
ag1522
(g151
S'\xdd"Y\xbeg\xe1\x18@'
p2392
tp2393
Rp2394
aI01
aI00
aI00
aI00
aI00
asg392
(lp2395
I0
aI0
aI0
ag1522
(g151
S'j\x80\xc7\xaa\xc9\x89\x08@'
p2396
tp2397
Rp2398
ag1522
(g151
S'\xd0-\xfd\xd3C\x98\x1c\xc0'
p2399
tp2400
Rp2401
ag1522
(g151
S'\xc4\xfd2\xbd\xd2p\x11@'
p2402
tp2403
Rp2404
aI01
aI00
aI00
aI00
aI00
asg906
(lp2405
I0
aI0
aI0
ag1522
(g151
S'\xb0\x94\xd2\xc0\xb9w\xdf?'
p2406
tp2407
Rp2408
ag1522
(g151
S'\xbb\xc0\xfa\xfewI\x16\xc0'
p2409
tp2410
Rp2411
ag1522
(g151
S'\x8a\xd3\x9e/\x95\xe9\x00@'
p2412
tp2413
Rp2414
aI01
aI00
aI00
aI01
aI00
asg909
(lp2415
I0
aI0
aI0
ag1522
(g151
S'\x1c\xff\xaa\xf4\xbc*\xff?'
p2416
tp2417
Rp2418
ag1522
(g151
S'\xd5$\x0cu}\xfd\x1c\xc0'
p2419
tp2420
Rp2421
ag1522
(g151
S'\x8d4q\xd4\xe4w\xd8?'
p2422
tp2423
Rp2424
aI01
aI00
aI01
aI01
aI00
asg278
(lp2425
I0
aI0
aI0
ag1522
(g151
S'h.\x80(\xbe\x97\x0b@'
p2426
tp2427
Rp2428
ag1522
(g151
S'gBy\xbee\x7f\x18\xc0'
p2429
tp2430
Rp2431
ag1522
(g151
S"\xce'&\xbcqu\x18@"
p2432
tp2433
Rp2434
aI01
aI00
aI00
aI00
aI00
assS'mc_place_path'
p2435
(dp2436
sS'parent_state'
p2437
NsS'goal_entities'
p2438
(lp2439
S'square_packing_box1'
p2440
ag142
asS'binary_edges'
p2441
(dp2442
(g392
g278
tp2443
(lp2444
I00
aI00
aI00
as(g392
g912
tp2445
(lp2446
I00
aI00
aI00
as(g215
g906
tp2447
(lp2448
I00
aI00
aI00
as(g215
g215
tp2449
(lp2450
I00
aI00
aI00
as(g141
g906
tp2451
(lp2452
I00
aI00
aI00
as(g141
g215
tp2453
(lp2454
I00
aI01
aI00
as(g278
g141
tp2455
(lp2456
I00
aI00
aI00
as(g392
g909
tp2457
(lp2458
I00
aI00
aI00
as(g329
g215
tp2459
(lp2460
I00
aI00
aI00
as(g912
g912
tp2461
(lp2462
I00
aI00
aI00
as(g141
g948
tp2463
(lp2464
g1522
(g29
(S'b1'
p2465
I0
I1
tp2466
Rp2467
(I3
S'|'
p2468
NNNI-1
I-1
I0
tp2469
bS'\x01'
p2470
tp2471
Rp2472
aI00
aI01
as(g951
g948
tp2473
(lp2474
I00
aI00
aI00
as(g912
g278
tp2475
(lp2476
I00
aI00
aI00
as(g948
g278
tp2477
(lp2478
I00
aI00
aI00
as(g909
g142
tp2479
(lp2480
I00
aI00
aI01
as(g951
g141
tp2481
(lp2482
I00
aI00
aI00
as(g141
g278
tp2483
(lp2484
I00
aI01
aI00
as(g215
g951
tp2485
(lp2486
g2472
aI00
aI00
as(g392
g392
tp2487
(lp2488
I00
aI00
aI00
as(g948
g392
tp2489
(lp2490
I00
aI00
aI00
as(g906
g141
tp2491
(lp2492
I00
aI00
aI00
as(g141
g142
tp2493
(lp2494
I00
aI00
aI00
as(g329
g906
tp2495
(lp2496
I00
aI00
aI00
as(g912
g329
tp2497
(lp2498
I00
aI00
aI00
as(g909
g909
tp2499
(lp2500
I00
aI00
aI00
as(g141
g951
tp2501
(lp2502
g2472
aI00
aI00
as(g948
g141
tp2503
(lp2504
I00
aI00
aI00
as(g948
g906
tp2505
(lp2506
I00
aI00
aI00
as(g948
g215
tp2507
(lp2508
I00
aI00
aI00
as(g906
g142
tp2509
(lp2510
I00
aI00
aI01
as(g278
g912
tp2511
(lp2512
I00
aI00
aI00
as(g329
g912
tp2513
(lp2514
I00
aI00
aI00
as(g906
g329
tp2515
(lp2516
I00
aI00
aI00
as(g948
g912
tp2517
(lp2518
I00
aI00
aI00
as(g951
g142
tp2519
(lp2520
I00
aI00
aI00
as(g909
g141
tp2521
(lp2522
I00
aI00
aI00
as(g912
g906
tp2523
(lp2524
I00
aI00
aI00
as(g951
g906
tp2525
(lp2526
I00
aI00
aI00
as(g906
g951
tp2527
(lp2528
g2472
aI00
aI00
as(g215
g392
tp2529
(lp2530
I00
aI00
aI00
as(g278
g909
tp2531
(lp2532
I00
aI00
aI00
as(g215
g141
tp2533
(lp2534
I00
aI01
aI00
as(g278
g142
tp2535
(lp2536
I00
aI00
aI00
as(g951
g951
tp2537
(lp2538
I00
aI00
aI00
as(g906
g912
tp2539
(lp2540
I00
aI00
aI00
as(g909
g392
tp2541
(lp2542
I00
aI01
aI00
as(g142
g909
tp2543
(lp2544
I00
aI00
aI00
as(g329
g948
tp2545
(lp2546
g2472
aI00
aI01
as(g142
g329
tp2547
(lp2548
I00
aI00
aI00
as(g278
g215
tp2549
(lp2550
I00
aI00
aI00
as(g215
g909
tp2551
(lp2552
I00
aI00
aI00
as(g906
g948
tp2553
(lp2554
g2472
aI00
aI01
as(g215
g329
tp2555
(lp2556
I00
aI00
aI00
as(g906
g906
tp2557
(lp2558
I00
aI00
aI00
as(g329
g141
tp2559
(lp2560
I00
aI00
aI00
as(g948
g142
tp2561
(lp2562
I00
aI00
aI00
as(g142
g392
tp2563
(lp2564
I00
aI00
aI00
as(g912
g142
tp2565
(lp2566
I00
aI00
aI01
as(g951
g329
tp2567
(lp2568
I00
aI00
aI00
as(g142
g278
tp2569
(lp2570
I00
aI00
aI00
as(g215
g278
tp2571
(lp2572
I00
aI01
aI00
as(g329
g951
tp2573
(lp2574
g2472
aI00
aI00
as(g278
g948
tp2575
(lp2576
g2472
aI00
aI01
as(g329
g392
tp2577
(lp2578
I00
aI00
aI00
as(g912
g141
tp2579
(lp2580
I00
aI00
aI00
as(g912
g948
tp2581
(lp2582
g2472
aI00
aI01
as(g142
g215
tp2583
(lp2584
I00
aI00
aI00
as(g951
g278
tp2585
(lp2586
I00
aI00
aI00
as(g951
g912
tp2587
(lp2588
I00
aI00
aI00
as(g329
g142
tp2589
(lp2590
I00
aI00
aI00
as(g392
g329
tp2591
(lp2592
I00
aI00
aI00
as(g909
g329
tp2593
(lp2594
I00
aI01
aI00
as(g142
g906
tp2595
(lp2596
I00
aI00
aI00
as(g948
g948
tp2597
(lp2598
I00
aI00
aI00
as(g392
g215
tp2599
(lp2600
I00
aI00
aI00
as(g909
g906
tp2601
(lp2602
I00
aI00
aI00
as(g948
g909
tp2603
(lp2604
I00
aI00
aI00
as(g141
g912
tp2605
(lp2606
I00
aI00
aI00
as(g948
g329
tp2607
(lp2608
I00
aI00
aI00
as(g909
g951
tp2609
(lp2610
g2472
aI00
aI00
as(g392
g141
tp2611
(lp2612
I00
aI00
aI00
as(g215
g142
tp2613
(lp2614
I00
aI00
aI00
as(g909
g912
tp2615
(lp2616
I00
aI00
aI00
as(g912
g909
tp2617
(lp2618
I00
aI00
aI00
as(g141
g909
tp2619
(lp2620
I00
aI00
aI00
as(g951
g392
tp2621
(lp2622
I00
aI00
aI00
as(g141
g329
tp2623
(lp2624
I00
aI00
aI00
as(g906
g392
tp2625
(lp2626
I00
aI00
aI00
as(g392
g948
tp2627
(lp2628
g2472
aI00
aI01
as(g329
g329
tp2629
(lp2630
I00
aI00
aI00
as(g278
g392
tp2631
(lp2632
I00
aI00
aI00
as(g909
g278
tp2633
(lp2634
I00
aI00
aI00
as(g141
g392
tp2635
(lp2636
I00
aI00
aI00
as(g141
g141
tp2637
(lp2638
I00
aI00
aI00
as(g278
g329
tp2639
(lp2640
I00
aI00
aI00
as(g392
g142
tp2641
(lp2642
I00
aI00
aI00
as(g906
g909
tp2643
(lp2644
I00
aI00
aI00
as(g215
g948
tp2645
(lp2646
g2472
aI00
aI01
as(g142
g141
tp2647
(lp2648
I00
aI00
aI00
as(g329
g909
tp2649
(lp2650
I00
aI00
aI00
as(g912
g215
tp2651
(lp2652
I00
aI00
aI00
as(g142
g948
tp2653
(lp2654
I00
aI00
aI00
as(g392
g906
tp2655
(lp2656
I00
aI00
aI00
as(g951
g215
tp2657
(lp2658
I00
aI00
aI00
as(g392
g951
tp2659
(lp2660
g2472
aI00
aI00
as(g906
g215
tp2661
(lp2662
I00
aI01
aI00
as(g142
g142
tp2663
(lp2664
I00
aI00
aI00
as(g329
g278
tp2665
(lp2666
I00
aI00
aI00
as(g912
g951
tp2667
(lp2668
g2472
aI00
aI00
as(g278
g951
tp2669
(lp2670
g2472
aI00
aI00
as(g142
g951
tp2671
(lp2672
I00
aI00
aI00
as(g142
g912
tp2673
(lp2674
I00
aI00
aI00
as(g906
g278
tp2675
(lp2676
I00
aI00
aI00
as(g278
g906
tp2677
(lp2678
I00
aI00
aI00
as(g215
g912
tp2679
(lp2680
I00
aI00
aI00
as(g948
g951
tp2681
(lp2682
I00
aI00
aI00
as(g909
g215
tp2683
(lp2684
I00
aI00
aI00
as(g912
g392
tp2685
(lp2686
I00
aI00
aI00
as(g278
g278
tp2687
(lp2688
I00
aI00
aI00
as(g909
g948
tp2689
(lp2690
g2472
aI00
aI01
as(g951
g909
tp2691
(lp2692
I00
aI00
aI00
assg487
g488
sS'pick_in_way'
p2693
(itrajectory_representation.predicates.pick_in_way
PickInWay
p2694
(dp2695
g139
(dp2696
g912
g556
sg141
g600
sg215
g650
sg329
g694
sg392
g744
sg906
g793
sg909
g823
sg278
g873
ssg461
(dp2697
g912
(lp2698
sg141
(lp2699
Vrectangular_packing_box2
p2700
aVrectangular_packing_box3
p2701
asg215
(lp2702
Vsquare_packing_box3
p2703
aVrectangular_packing_box2
p2704
asg329
(lp2705
Vsquare_packing_box1
p2706
asg392
(lp2707
Vsquare_packing_box1
p2708
asg906
(lp2709
sg909
(lp2710
sg278
(lp2711
Vrectangular_packing_box2
p2712
aVrectangular_packing_box3
p2713
assg487
(lp2714
g906
ag912
ag951
ag142
ag948
ag909
ag951
ag142
ag948
ag951
ag142
ag948
ag951
ag142
ag948
ag951
ag142
ag948
ag951
ag142
ag948
ag951
ag142
ag948
ag951
ag142
ag948
asg491
g492
sg78
(dp2715
sg526
g527
sg894
Nsg900
g527
sg897
(dp2716
sg899
I8
sg943
I01
sg901
Nsg902
(dp2717
(g392
g278
tp2718
I00
s(g392
g912
tp2719
I00
s(g215
g906
tp2720
I00
s(g215
g215
tp2721
I00
s(g141
g906
tp2722
I00
s(g141
g215
tp2723
I01
s(g278
g141
tp2724
I00
s(g392
g909
tp2725
I00
s(g329
g215
tp2726
I00
s(g912
g912
tp2727
I00
s(g141
g948
tp2728
I00
s(g951
g948
tp2729
I00
s(g912
g278
tp2730
I00
s(g948
g278
tp2731
I00
s(g909
g142
tp2732
I00
s(g951
g141
tp2733
I00
s(g141
g278
tp2734
I01
s(g215
g951
tp2735
I00
s(g392
g392
tp2736
I00
s(g948
g392
tp2737
I00
s(g906
g141
tp2738
I00
s(g141
g142
tp2739
I00
s(g329
g906
tp2740
I00
s(g912
g329
tp2741
I00
s(g909
g909
tp2742
I00
s(g141
g951
tp2743
I00
s(g948
g141
tp2744
I00
s(g948
g906
tp2745
I00
s(g948
g215
tp2746
I00
s(g906
g142
tp2747
I00
s(g278
g912
tp2748
I00
s(g329
g912
tp2749
I00
s(g906
g329
tp2750
I00
s(g948
g912
tp2751
I00
s(g951
g142
tp2752
I00
s(g909
g141
tp2753
I00
s(g912
g906
tp2754
I00
s(g951
g906
tp2755
I00
s(g906
g951
tp2756
I00
s(g215
g392
tp2757
I00
s(g278
g909
tp2758
I00
s(g215
g141
tp2759
I01
s(g278
g142
tp2760
I00
s(g951
g951
tp2761
I00
s(g906
g912
tp2762
I00
s(g909
g392
tp2763
I01
s(g142
g909
tp2764
I00
s(g329
g948
tp2765
I00
s(g142
g329
tp2766
I00
s(g278
g215
tp2767
I00
s(g215
g909
tp2768
I00
s(g906
g948
tp2769
I00
s(g215
g329
tp2770
I00
s(g906
g906
tp2771
I00
s(g329
g141
tp2772
I00
s(g948
g142
tp2773
I00
s(g142
g392
tp2774
I00
s(g912
g142
tp2775
I00
s(g951
g329
tp2776
I00
s(g142
g278
tp2777
I00
s(g215
g278
tp2778
I01
s(g329
g951
tp2779
I00
s(g278
g948
tp2780
I00
s(g329
g392
tp2781
I00
s(g912
g141
tp2782
I00
s(g912
g948
tp2783
I00
s(g142
g215
tp2784
I00
s(g951
g278
tp2785
I00
s(g951
g912
tp2786
I00
s(g329
g142
tp2787
I00
s(g392
g329
tp2788
I00
s(g909
g329
tp2789
I01
s(g142
g906
tp2790
I00
s(g948
g948
tp2791
I00
s(g392
g215
tp2792
I00
s(g909
g906
tp2793
I00
s(g948
g909
tp2794
I00
s(g141
g912
tp2795
I00
s(g948
g329
tp2796
I00
s(g909
g951
tp2797
I00
s(g392
g141
tp2798
I00
s(g215
g142
tp2799
I00
s(g909
g912
tp2800
I00
s(g912
g909
tp2801
I00
s(g141
g909
tp2802
I00
s(g951
g392
tp2803
I00
s(g141
g329
tp2804
I00
s(g906
g392
tp2805
I00
s(g392
g948
tp2806
I00
s(g329
g329
tp2807
I00
s(g278
g392
tp2808
I00
s(g909
g278
tp2809
I00
s(g141
g392
tp2810
I00
s(g141
g141
tp2811
I00
s(g278
g329
tp2812
I00
s(g392
g142
tp2813
I00
s(g906
g909
tp2814
I00
s(g215
g948
tp2815
I00
s(g142
g141
tp2816
I00
s(g329
g909
tp2817
I00
s(g912
g215
tp2818
I00
s(g142
g948
tp2819
I00
s(g392
g906
tp2820
I00
s(g951
g215
tp2821
I00
s(g392
g951
tp2822
I00
s(g906
g215
tp2823
I01
s(g142
g142
tp2824
I00
s(g329
g278
tp2825
I00
s(g912
g951
tp2826
I00
s(g278
g951
tp2827
I00
s(g142
g951
tp2828
I00
s(g142
g912
tp2829
I00
s(g906
g278
tp2830
I00
s(g278
g906
tp2831
I00
s(g215
g912
tp2832
I00
s(g948
g951
tp2833
I00
s(g909
g215
tp2834
I00
s(g912
g392
tp2835
I00
s(g278
g278
tp2836
I00
s(g909
g948
tp2837
I00
s(g951
g909
tp2838
I00
ssg942
NsbsS'robot_pose'
p2839
g22
(g23
(I0
tp2840
g25
tp2841
Rp2842
(I1
(I1
I3
tp2843
g151
I00
S'\xfc]\xca\x10\x96_\xed?w7\x1e\xc9D\xd8\x1a\xc0\xca\x84J\x91\xc3\xb6\x10@'
p2844
tp2845
bsS'is_holding_goal_entity'
p2846
(itrajectory_representation.predicates.is_holding_goal_entity
IsHoldingGoalEntity
p2847
(dp2848
g2438
g2439
sg901
NsbsS'mc_pick_path'
p2849
(dp2850
sS'current_collides'
p2851
g492
sbasS'seed'
p2852
NsS'state_prime'
p2853
(lp2854
sS'problem_idx'
p2855
I98
sb.