(itrajectory_representation.trajectory
Trajectory
p0
(dp1
S'rewards'
p2
(lp3
I-1
aI10
asS'actions'
p4
(lp5
(itrajectory_representation.operator
Operator
p6
(dp7
S'is_skeleton'
p8
I00
sS'discrete_parameters'
p9
(dp10
S'object'
p11
Vsquare_packing_box3
p12
sS'two_arm_place_region'
p13
S'loading_region'
p14
sS'two_arm_place_object'
p15
g12
ssS'type'
p16
S'two_arm_pick_two_arm_place'
p17
sS'continuous_parameters'
p18
(dp19
S'q_goal'
p20
cnumpy.core.multiarray
_reconstruct
p21
(cnumpy
ndarray
p22
(I0
tp23
S'b'
p24
tp25
Rp26
(I1
(I3
tp27
cnumpy
dtype
p28
(S'f8'
p29
I0
I1
tp30
Rp31
(I3
S'<'
p32
NNNI-1
I-1
I0
tp33
bI00
S'F\xb3\x9e\xce\xc1\x0f\x02@\xe4\x1d7\xf6\x95\x11\x1b\xc0\x18\xc8\xd6\x86mI\x03@'
p34
tp35
bsS'place'
p36
(dp37
g20
g21
(g22
(I0
tp38
g24
tp39
Rp40
(I1
(I3
tp41
g31
I00
S"Db\x96\x81\xd9\x80\t@I/\xf1\x15\xd10\x1d\xc0>\xa53\xe5'\xc1\x10@"
p42
tp43
bssS'pick'
p44
(dp45
g20
g26
sssS'low_level_motion'
p46
(lp47
g21
(g22
(I0
tp48
g24
tp49
Rp50
(I1
(I3
tp51
g31
I00
S'\xa4\xa0\xeb0i2\x06@D\x00\xc7z\xd2\xc6\x1e\xc0o\xcbUg\x93o\xf5?'
p52
tp53
bag21
(g22
(I0
tp54
g24
tp55
Rp56
(I1
(I3
tp57
g28
(S'f8'
p58
I0
I1
tp59
Rp60
(I3
S'<'
p61
NNNI-1
I-1
I0
tp62
bI00
S'\xf6\x9c\xbc\xd8\xea\x86\x05@\xc8\t,\x83\x04\xa9\x1c\xc0HA\x84\xf4\xe0S\xf1?'
p63
tp64
bag21
(g22
(I0
tp65
g24
tp66
Rp67
(I1
(I3
tp68
g60
I00
S'\tAsXx\r\x00@F^\x05/\xfdK\x1d\xc0~\xbbB\x0f\xbe\xe6\xd2?'
p69
tp70
bag26
ag26
asba(itrajectory_representation.operator
Operator
p71
(dp72
g8
I00
sg9
(dp73
g11
Vsquare_packing_box1
p74
sS'two_arm_place_region'
p75
S'home_region'
p76
sS'two_arm_place_object'
p77
g74
ssg16
S'two_arm_pick_two_arm_place'
p78
sg18
(dp79
g20
g21
(g22
(I0
tp80
g24
tp81
Rp82
(I1
(I3
tp83
g31
I00
S'@r\xf0!-"\r@\xac\xad/;\xa5N\x1a\xc0t\x87\xde\xc3\xcc{\x03@'
p84
tp85
bsg36
(dp86
g20
g21
(g22
(I0
tp87
g24
tp88
Rp89
(I1
(I3
tp90
g31
I00
S'\xd9\xab$\x86\xf3\xcb\xf9?\x1c\xce\xf8\xe5\xfe\xdb\x02\xc0\x9f\xf3\xa6\xf2\x94\x9f\xff?'
p91
tp92
bssg44
(dp93
g20
g82
sssg46
(lp94
g21
(g22
(I0
tp95
g24
tp96
Rp97
(I1
(I3
tp98
g31
I00
S"Db\x96\x81\xd9\x80\t@H/\xf1\x15\xd10\x1d\xc0>\xa53\xe5'\xc1\x10@"
p99
tp100
bag21
(g22
(I0
tp101
g24
tp102
Rp103
(I1
(I3
tp104
g60
I00
S'\xc4Q\xc7C\xc2\x94\x07@g\xab\x8b\xc7\xff\xcd\x1c\xc0\xf74\xc6\xd0z\x89\xfa\xbf'
p105
tp106
bag21
(g22
(I0
tp107
g24
tp108
Rp109
(I1
(I3
tp110
g60
I00
S'\xe8\x81y:#O\t@W\xfe\xf6\x1e\x16\xa2\x1a\xc0\x92%c\x11\x9c\x0e\x06@'
p111
tp112
bag82
ag82
asbasS'filename'
p113
S''
p114
sS'states'
p115
(lp116
(itrajectory_representation.shortest_path_pick_and_place_state
ShortestPathPaPState
p117
(dp118
S'place_used'
p119
(dp120
(Vsquare_packing_box3
p121
g14
tp122
(itrajectory_representation.operator
Operator
p123
(dp124
g8
I01
sg9
(dp125
S'region'
p126
g14
sg11
g121
ssg16
S'two_arm_place'
p127
sg18
(dp128
g20
g21
(g22
(I0
tp129
g24
tp130
Rp131
(I1
(I3
tp132
g31
I00
S"Db\x96\x81\xd9\x80\t@I/\xf1\x15\xd10\x1d\xc0>\xa53\xe5'\xc1\x10@"
p133
tp134
bssg46
(lp135
g21
(g22
(I0
tp136
g24
tp137
Rp138
(I1
(I3
tp139
g31
I00
S'A\xb3\x9e\xce\xc1\x0f\x02@\xa9\x1d7\xf6\x95\x11\x1b\xc0\x17\xc8\xd6\x86mI\x03@'
p140
tp141
bag21
(g22
(I0
tp142
g24
tp143
Rp144
(I1
(I3
tp145
g60
I00
S'py\xe7\x92\x10\x1c\x08@_z\xb4M\xdc\xbc\x1b\xc0\xe2\x81s\x12\x81\x12\x08\xc0'
p146
tp147
bag21
(g22
(I0
tp148
g24
tp149
Rp150
(I1
(I3
tp151
g60
I00
S'\x89\xcfHU\xa1\xf5\x05@\xee\x9b\xa6\x01<)\x1c\xc0W\xa3jE\xe6\xde\x01\xc0'
p152
tp153
bag131
ag131
asbs(Vsquare_packing_box1
p154
g76
tp155
(itrajectory_representation.operator
Operator
p156
(dp157
g8
I01
sg9
(dp158
g126
g76
sg11
g154
ssg16
g127
sg18
(dp159
g20
g21
(g22
(I0
tp160
g24
tp161
Rp162
(I1
(I3
tp163
g31
I00
S'\xd9\xab$\x86\xf3\xcb\xf9?\x1c\xce\xf8\xe5\xfe\xdb\x02\xc0\x9f\xf3\xa6\xf2\x94\x9f\xff?'
p164
tp165
bssg46
(lp166
g21
(g22
(I0
tp167
g24
tp168
Rp169
(I1
(I3
tp170
g31
I00
S'6r\xf0!-"\r@\xa2\xad/;\xa5N\x1a\xc0r\x87\xde\xc3\xcc{\x03@'
p171
tp172
bag21
(g22
(I0
tp173
g24
tp174
Rp175
(I1
(I3
tp176
g60
I00
S'py\xe7\x92\x10\x1c\x08@_z\xb4M\xdc\xbc\x1b\xc0\xe2\x81s\x12\x81\x12\x08\xc0'
p177
tp178
bag21
(g22
(I0
tp179
g24
tp180
Rp181
(I1
(I3
tp182
g60
I00
S'\xc2Fo\n7\x11\x03@\xb6=Ya.\xe0\x1a\xc0,\x0b\x04&"Y\x07\xc0'
p183
tp184
bag21
(g22
(I0
tp185
g24
tp186
Rp187
(I1
(I3
tp188
g60
I00
S'\x05\x83iK\x01\x86\xfb?\x162zB{\xdc\x1a\xc0T\xd8\x04\x17\xd4b\xea\xbf'
p189
tp190
bag21
(g22
(I0
tp191
g24
tp192
Rp193
(I1
(I3
tp194
g60
I00
S'3\x82\x8a\x8fh\xb2\xf8?\xecMw\xff=$\x19\xc0\x10\x03\x08*\x90Q\x89?'
p195
tp196
bag21
(g22
(I0
tp197
g24
tp198
Rp199
(I1
(I3
tp200
g60
I00
S'N\xcd\xaa\x1e;\x0f\xee?&\xa8j\x7f\xa2\xe5\x17\xc0\xc1rR\xf6\xd1Y\xe0\xbf'
p201
tp202
bag21
(g22
(I0
tp203
g24
tp204
Rp205
(I1
(I3
tp206
g60
I00
S'tx\x8as\xa8b\xed?\x9ej\x15\xfa\xf0{\x15\xc0@\xed\x9a-\x9eD\xf2\xbf'
p207
tp208
bag21
(g22
(I0
tp209
g24
tp210
Rp211
(I1
(I3
tp212
g60
I00
S'\xb0E\xbb;Cb\xeb?\x9e\xde\xa7\xdd\xbdd\x12\xc0\xc6\xee\xbd\x16\x8c\xaa\xf3\xbf'
p213
tp214
bag21
(g22
(I0
tp215
g24
tp216
Rp217
(I1
(I3
tp218
g60
I00
S'\xec\x12\xec\x03\xdea\xe9?<\xa5t\x82\x15\x9b\x0e\xc0L\xf0\xe0\xffy\x10\xf5\xbf'
p219
tp220
bag21
(g22
(I0
tp221
g24
tp222
Rp223
(I1
(I3
tp224
g60
I00
S'(\xe0\x1c\xccxa\xe7?<\x8d\x99I\xafl\x08\xc0\xd2\xf1\x03\xe9gv\xf6\xbf'
p225
tp226
bag21
(g22
(I0
tp227
g24
tp228
Rp229
(I1
(I3
tp230
g60
I00
S'\xf4\xfdJ\x1a(#\xec?H"\x9cD\x1aE\x05\xc0.\xa9\x0b\x87\xf8\xe1\x02@'
p231
tp232
bag162
ag162
asbssS'place_in_way'
p233
(itrajectory_representation.predicates.place_in_way
PlaceInWay
p234
(dp235
S'mc_path_to_entity'
p236
(dp237
(Vrectangular_packing_box3
p238
S'home_region'
p239
tp240
(lp241
g21
(g22
(I0
tp242
g24
tp243
Rp244
(I1
(I3
tp245
g28
(S'f8'
p246
I0
I1
tp247
Rp248
(I3
S'<'
p249
NNNI-1
I-1
I0
tp250
bI00
S'\xa8?\xa0\xf5\xfd\x7f\xe0?d\xc66\x80\xf9\x11\x1e\xc0CS\xf59\x81\xee\xdd?'
p251
tp252
bag21
(g22
(I0
tp253
g24
tp254
Rp255
(I1
(I3
tp256
g28
(S'f8'
p257
I0
I1
tp258
Rp259
(I3
S'<'
p260
NNNI-1
I-1
I0
tp261
bI00
S'X\x9b\x8c[e\xe8\xdb?\xdc\xc11jk\x8b\x1b\xc0\xfe\x18\xeb6\xf7\x88\xc3?'
p262
tp263
bag21
(g22
(I0
tp264
g24
tp265
Rp266
(I1
(I3
tp267
g259
I00
S'T]\x0c\x0e\xd89\xda?\xf4\x992\x11%\\\x18\xc0\x95\x7f\x10B\xb1)\xe3?'
p268
tp269
bag21
(g22
(I0
tp270
g24
tp271
Rp272
(I1
(I3
tp273
g259
I00
S'\xe4\x02R\xd9\x08\x8c\xc7?2\xc1\xd4;\xf6\xf3\x15\xc0>\x8c\x8fa?0\xd8?'
p274
tp275
bag21
(g22
(I0
tp276
g24
tp277
Rp278
(I1
(I3
tp279
g259
I00
S'\xcc\x87!\x1f\xfb\x05\xe6?\x14;\x08\xf1<\xc6\x13\xc0V!\xac1j\x94\xc8?'
p280
tp281
bag21
(g22
(I0
tp282
g24
tp283
Rp284
(I1
(I3
tp285
g259
I00
S'`\xc8Aw-\x81\xeb?/\xc3\xe6O\x04\xca\x10\xc0\x8a\xb7K)\x91{\xe4\xbf'
p286
tp287
bag21
(g22
(I0
tp288
g24
tp289
Rp290
(I1
(I3
tp291
g259
I00
S'\xe1\xc6\xc7\xa7\x12X\xe7?\x98\x99\xb0\x9a\xfb\xdb\x0b\xc0R\t\x1b)\xeae\xe0\xbf'
p292
tp293
bag21
(g22
(I0
tp294
g24
tp295
Rp296
(I1
(I3
tp297
g259
I00
S'\xd6\x07{\xd9\x10\xef\xe4?\x1d\xac\x7fu\xfd\xc8\x05\xc0n\xbe\xc6$&8\xd7?'
p298
tp299
bas(Vsquare_packing_box4
p300
g239
tp301
(lp302
g21
(g22
(I0
tp303
g24
tp304
Rp305
(I1
(I3
tp306
g248
I00
S"\x93\x16w\xc0\xa2\xef\x0b@\x8b\xd6X\xcc(q\x18\xc0\xec\x06\xcf\r\xdc'\xf3?"
p307
tp308
bag21
(g22
(I0
tp309
g24
tp310
Rp311
(I1
(I3
tp312
g259
I00
S'\xf0\xc9\xfbt\r)\x06@W\xcf\xbd\x98LA\x17\xc0\x12{h\xe4\xea2\xf8?'
p313
tp314
bag21
(g22
(I0
tp315
g24
tp316
Rp317
(I1
(I3
tp318
g259
I00
S'v\x9f}*\xb2\x19\x02@\x02_\xf4PZ7\x16\xc0\xa8G\xd0\x03\xa3 \x01@'
p319
tp320
bag21
(g22
(I0
tp321
g24
tp322
Rp323
(I1
(I3
tp324
g259
I00
S'\xc2:\x1b=\xad,\xfa?(\x190\xa5<\xab\x16\xc0\x9d\x91\xdc8Kq\x01@'
p325
tp326
bag21
(g22
(I0
tp327
g24
tp328
Rp329
(I1
(I3
tp330
g259
I00
S'o\xd6\x82\xea\x7f\xb2\xed?9\xf2C\x0b?\xfd\x16\xc0(?d\xe9@\xb5\x02@'
p331
tp332
bag21
(g22
(I0
tp333
g24
tp334
Rp335
(I1
(I3
tp336
g259
I00
S'&>c9\x01,\xeb?\xb2\xc2\xf0\x02\xce\x8e\x14\xc0\xd8p\xbb2\x14\xd2\x03@'
p337
tp338
bag21
(g22
(I0
tp339
g24
tp340
Rp341
(I1
(I3
tp342
g259
I00
S'\xc6\x05\xbdtg\xd9\xe2?F\xdf\x9d@\\\xf3\x11\xc0\x1a\xc4.\xbb\xcc\x12\x02@'
p343
tp344
bag21
(g22
(I0
tp345
g24
tp346
Rp347
(I1
(I3
tp348
g259
I00
S'3z\xed\x8eN)\xe4?\x0c\x96\xd4\xa2\x0e\xd0\r\xc0\xbd%\xf5{\xe9\xf9\x03@'
p349
tp350
bag21
(g22
(I0
tp351
g24
tp352
Rp353
(I1
(I3
tp354
g259
I00
S'\xaf0\xe9h\xba~\xee?k\xbb\xd8\xd4\xd0g\t\xc09\x9ey\xed\xb06\x06@'
p355
tp356
bag21
(g22
(I0
tp357
g24
tp358
Rp359
(I1
(I3
tp360
g259
I00
S'\xf4\xfdJ\x1a(#\xec?H"\x9cD\x1aE\x05\xc0.\xa9\x0b\x87\xf8\xe1\x02@'
p361
tp362
bas(Vrectangular_packing_box4
p363
g239
tp364
(lp365
g21
(g22
(I0
tp366
g24
tp367
Rp368
(I1
(I3
tp369
g248
I00
S'\x00[\xc3\x8es\x83\xa8?\xc1\n\xd3\x89"\x1e \xc0\x86=\xc6\x0c\xb0\\\x04@'
p370
tp371
bag21
(g22
(I0
tp372
g24
tp373
Rp374
(I1
(I3
tp375
g259
I00
S'\xdb\xee8\xd0\xa2\xfd\xc5?\xb2\x0e(\xac\xe3\xcd\x1d\xc0a\xbax\xf1*\x16\x01@'
p376
tp377
bag21
(g22
(I0
tp378
g24
tp379
Rp380
(I1
(I3
tp381
g259
I00
S"f'\x1d)\\\x10\xe6?I\x87\x7f\xab\xf9\x9f\x1b\xc0\x90\xd8HX\xe5\x0e\x04@"
p382
tp383
bag21
(g22
(I0
tp384
g24
tp385
Rp386
(I1
(I3
tp387
g259
I00
S'\xae\xea\x9e\xa3\xa2\xb1\xed?\xa4\xca\x1d?h\x96\x19\xc0dq\xdf\xb1\x9d\xe4\x05@'
p388
tp389
bag21
(g22
(I0
tp390
g24
tp391
Rp392
(I1
(I3
tp393
g259
I00
S'o\xd6\x82\xea\x7f\xb2\xed?9\xf2C\x0b?\xfd\x16\xc0(?d\xe9@\xb5\x02@'
p394
tp395
bag21
(g22
(I0
tp396
g24
tp397
Rp398
(I1
(I3
tp399
g259
I00
S'&>c9\x01,\xeb?\xb2\xc2\xf0\x02\xce\x8e\x14\xc0\xd8p\xbb2\x14\xd2\x03@'
p400
tp401
bag21
(g22
(I0
tp402
g24
tp403
Rp404
(I1
(I3
tp405
g259
I00
S'\xc6\x05\xbdtg\xd9\xe2?F\xdf\x9d@\\\xf3\x11\xc0\x1a\xc4.\xbb\xcc\x12\x02@'
p406
tp407
bag21
(g22
(I0
tp408
g24
tp409
Rp410
(I1
(I3
tp411
g259
I00
S'3z\xed\x8eN)\xe4?\x0c\x96\xd4\xa2\x0e\xd0\r\xc0\xbd%\xf5{\xe9\xf9\x03@'
p412
tp413
bag21
(g22
(I0
tp414
g24
tp415
Rp416
(I1
(I3
tp417
g259
I00
S'\xaf0\xe9h\xba~\xee?k\xbb\xd8\xd4\xd0g\t\xc09\x9ey\xed\xb06\x06@'
p418
tp419
bag21
(g22
(I0
tp420
g24
tp421
Rp422
(I1
(I3
tp423
g259
I00
S'\xf4\xfdJ\x1a(#\xec?H"\x9cD\x1aE\x05\xc0.\xa9\x0b\x87\xf8\xe1\x02@'
p424
tp425
bas(Vsquare_packing_box1
p426
g239
tp427
(lp428
g21
(g22
(I0
tp429
g24
tp430
Rp431
(I1
(I3
tp432
g248
I00
S'@r\xf0!-"\r@\xaa\xad/;\xa5N\x1a\xc0t\x87\xde\xc3\xcc{\x03@'
p433
tp434
bag21
(g22
(I0
tp435
g24
tp436
Rp437
(I1
(I3
tp438
g259
I00
S'\xcb\x1a\x84\x1d\\\x9c\x08@\xec\xcbi\xc9#;\x18\xc0\xbf\xf24g\x02T\x05@'
p439
tp440
bag21
(g22
(I0
tp441
g24
tp442
Rp443
(I1
(I3
tp444
g259
I00
S'\xf8d\x877\x12\xfd\x04@h\xdbW\x9a\x83\x8e\x16\xc0\x87\xf16\xb9\x03k\x05@'
p445
tp446
bag21
(g22
(I0
tp447
g24
tp448
Rp449
(I1
(I3
tp450
g259
I00
S'\xc7\xc7\x06s\xd6\xa3\xff?3\x91\xe4\x97\xb5\x07\x16\xc0\x1bW\xbc\xbfY:\x06@'
p451
tp452
bag21
(g22
(I0
tp453
g24
tp454
Rp455
(I1
(I3
tp456
g259
I00
S'\x85\\2\xba\x0b5\xf5?I\r\x06\xd10\xfb\x15\xc0\x9e\x11\xee\xd8\xb9\xd7\xf5?'
p457
tp458
bag21
(g22
(I0
tp459
g24
tp460
Rp461
(I1
(I3
tp462
g259
I00
S'v\xb8^\x85\xa7[\xea?x\xbe\xff2t\x8d\x13\xc0\x88\x85\x8cCyH\xf6?'
p463
tp464
bag21
(g22
(I0
tp465
g24
tp466
Rp467
(I1
(I3
tp468
g259
I00
S'\xc2\xda(e\x83\x1a\xeb?\x8au\x8d3\xa6E\x11\xc0\xb4c\x1b\xed_\xfd\xfa?'
p469
tp470
bag21
(g22
(I0
tp471
g24
tp472
Rp473
(I1
(I3
tp474
g259
I00
S'\xe4u**\x0e5\xe9?\xaa\xfd\r\xed\xc4\xf6\r\xc0\x0fDE0\x1f\x0b\xfe?'
p475
tp476
bag21
(g22
(I0
tp477
g24
tp478
Rp479
(I1
(I3
tp480
g259
I00
S'\x06\x11,\xef\x98O\xe7??\x10\x01s=b\t\xc04\x92\xb79o\x8c\x00@'
p481
tp482
bag21
(g22
(I0
tp483
g24
tp484
Rp485
(I1
(I3
tp486
g259
I00
S'\x92\xaf\xf3P\x96O\xc2?(\xa1:\x8er}\x05\xc0\xd4_\x91\xb3\xffL\x02@'
p487
tp488
bas(Vsquare_packing_box2
p489
g239
tp490
(lp491
g21
(g22
(I0
tp492
g24
tp493
Rp494
(I1
(I3
tp495
g248
I00
S'\xa4\x11\xd3m\xc9\x9e\x06@\xac\xeb\xd9\xc2\xa0"\x19\xc0\xc8\xaar\xb7\x06=\x07@'
p496
tp497
bag21
(g22
(I0
tp498
g24
tp499
Rp500
(I1
(I3
tp501
g259
I00
S'\xf60LV\xe8\x96\x00@\x9aEw{a\xe2\x18\xc0^\xa8\x8a,\xa3\x98\x00@'
p502
tp503
bag21
(g22
(I0
tp504
g24
tp505
Rp506
(I1
(I3
tp507
g259
I00
S'\xe0 ;\x819w\xfd?\xe7\xcc\xc2\xa0\xa5f\x17\xc04\xedq\x1c\x8eK\xfa?'
p508
tp509
bag21
(g22
(I0
tp510
g24
tp511
Rp512
(I1
(I3
tp513
g259
I00
S'\x85\\2\xba\x0b5\xf5?I\r\x06\xd10\xfb\x15\xc0\x9e\x11\xee\xd8\xb9\xd7\xf5?'
p514
tp515
bag21
(g22
(I0
tp516
g24
tp517
Rp518
(I1
(I3
tp519
g259
I00
S'v\xb8^\x85\xa7[\xea?x\xbe\xff2t\x8d\x13\xc0\x88\x85\x8cCyH\xf6?'
p520
tp521
bag21
(g22
(I0
tp522
g24
tp523
Rp524
(I1
(I3
tp525
g259
I00
S'\xc2\xda(e\x83\x1a\xeb?\x8au\x8d3\xa6E\x11\xc0\xb4c\x1b\xed_\xfd\xfa?'
p526
tp527
bag21
(g22
(I0
tp528
g24
tp529
Rp530
(I1
(I3
tp531
g259
I00
S'\xe4u**\x0e5\xe9?\xaa\xfd\r\xed\xc4\xf6\r\xc0\x0fDE0\x1f\x0b\xfe?'
p532
tp533
bag21
(g22
(I0
tp534
g24
tp535
Rp536
(I1
(I3
tp537
g259
I00
S'\x06\x11,\xef\x98O\xe7??\x10\x01s=b\t\xc04\x92\xb79o\x8c\x00@'
p538
tp539
bag21
(g22
(I0
tp540
g24
tp541
Rp542
(I1
(I3
tp543
g259
I00
S'\x92\xaf\xf3P\x96O\xc2?(\xa1:\x8er}\x05\xc0\xd4_\x91\xb3\xffL\x02@'
p544
tp545
bas(Vrectangular_packing_box1
p546
g239
tp547
(lp548
g21
(g22
(I0
tp549
g24
tp550
Rp551
(I1
(I3
tp552
g248
I00
S'P\x7f\xc3%\xd4\xa1\xe8?t\xa3\x10L\xc5\xa0\x1b\xc0(\xc7\xab\x80&P\x14@'
p553
tp554
bag21
(g22
(I0
tp555
g24
tp556
Rp557
(I1
(I3
tp558
g259
I00
S"\xc6'8AN\xb0\xec?\xe0\x975>\x0f\x03\x19\xc0(\xe0e;\x85\x89\x05\xc0"
p559
tp560
bag21
(g22
(I0
tp561
g24
tp562
Rp563
(I1
(I3
tp564
g259
I00
S'\xd0\xcb\x13\x8f\xaa\x9d\xed?\x90\x01<]3\x06\x16\xc0F\xf1\xe7x32\x02\xc0'
p565
tp566
bag21
(g22
(I0
tp567
g24
tp568
Rp569
(I1
(I3
tp570
g259
I00
S'l[\xc4\x16<\xe6\xe9?\xa6\xa0\x90\x84X\x9f\x13\xc0\xc2\xd74Q\x00\xaf\xff\xbf'
p571
tp572
bag21
(g22
(I0
tp573
g24
tp574
Rp575
(I1
(I3
tp576
g259
I00
S"\xaeJ\xbd\x1936\xec?\x04\x13\xd4'\x9f\x88\x10\xc0\x805qo\xb6\xe6\xff\xbf"
p577
tp578
bag21
(g22
(I0
tp579
g24
tp580
Rp581
(I1
(I3
tp582
g259
I00
S'\xf09\xb6\x1c*\x86\xee?\xc4\n/\x96\xcb\xe3\n\xc0\xa0\xc9\xd6F6\x0f\x00\xc0'
p583
tp584
bag21
(g22
(I0
tp585
g24
tp586
Rp587
(I1
(I3
tp588
g259
I00
S'3\xe9\xaf\x05T\x89\xe7?+~\xcb\xd3\x15\xc7\x04\xc0x6(d5\xed\x07@'
p589
tp590
bas(Vsquare_packing_box3
p591
g239
tp592
(lp593
g21
(g22
(I0
tp594
g24
tp595
Rp596
(I1
(I3
tp597
g248
I00
S'J\xb3\x9e\xce\xc1\x0f\x02@\xe4\x1d7\xf6\x95\x11\x1b\xc0\x18\xc8\xd6\x86mI\x03@'
p598
tp599
bag21
(g22
(I0
tp600
g24
tp601
Rp602
(I1
(I3
tp603
g259
I00
S'\xc6\xf1T\x16)\x02\xfe?\xa8\x7fQ\xf5\xbb\x10\x19\xc0\xa38\tS\x83\x84\x05@'
p604
tp605
bag21
(g22
(I0
tp606
g24
tp607
Rp608
(I1
(I3
tp609
g259
I00
S'\x84\xa2s4\xa1\xd0\xf6?E=|\xb9\xcam\x17\xc0\xa93^V\xfc\xed\x05@'
p610
tp611
bag21
(g22
(I0
tp612
g24
tp613
Rp614
(I1
(I3
tp615
g259
I00
S'f\xb4\x9c\x07\xac\xbf\xec?n\x96\x96\x9e\x90n\x16\xc0uo!\xa9\x9b\x82\x07@'
p616
tp617
bag21
(g22
(I0
tp618
g24
tp619
Rp620
(I1
(I3
tp621
g259
I00
S'm\xd5h\x072\x03\xea?\xdf\xe5\xe82\xd3\x17\x14\xc0\x08\x9e\xe1\xfbO\x94\x08@'
p622
tp623
bag21
(g22
(I0
tp624
g24
tp625
Rp626
(I1
(I3
tp627
g259
I00
S'\xc6\x05\xbdtg\xd9\xe2?F\xdf\x9d@\\\xf3\x11\xc0\x1a\xc4.\xbb\xcc\x12\x02@'
p628
tp629
bag21
(g22
(I0
tp630
g24
tp631
Rp632
(I1
(I3
tp633
g259
I00
S'3z\xed\x8eN)\xe4?\x0c\x96\xd4\xa2\x0e\xd0\r\xc0\xbd%\xf5{\xe9\xf9\x03@'
p634
tp635
bag21
(g22
(I0
tp636
g24
tp637
Rp638
(I1
(I3
tp639
g259
I00
S'\xaf0\xe9h\xba~\xee?k\xbb\xd8\xd4\xd0g\t\xc09\x9ey\xed\xb06\x06@'
p640
tp641
bag21
(g22
(I0
tp642
g24
tp643
Rp644
(I1
(I3
tp645
g259
I00
S'\xf4\xfdJ\x1a(#\xec?H"\x9cD\x1aE\x05\xc0.\xa9\x0b\x87\xf8\xe1\x02@'
p646
tp647
bas(Vrectangular_packing_box2
p648
g239
tp649
(lp650
g21
(g22
(I0
tp651
g24
tp652
Rp653
(I1
(I3
tp654
g248
I00
S'Q\xd2\xc6\xcf\x15z\n@`\xbe\x12mR\xe3\x15\xc0K\x15_\x8f\xaf9\x11@'
p655
tp656
bag21
(g22
(I0
tp657
g24
tp658
Rp659
(I1
(I3
tp660
g259
I00
S'nv\xf9k\xe2Y\x05@\xbf\xa3\xf80pj\x16\xc0\x85\x14\xd6\xdd\x83\x18\x04\xc0'
p661
tp662
bag21
(g22
(I0
tp663
g24
tp664
Rp665
(I1
(I3
tp666
g259
I00
S'_\x1fd\x97D>\x00@W\xf2\x9b\xb2\x92\xd8\x15\xc0\x99\xbc\xd43\xf6\xfa\x08\xc0'
p667
tp668
bag21
(g22
(I0
tp669
g24
tp670
Rp671
(I1
(I3
tp672
g259
I00
S'R\x12);\xaf\xa5\xf7?\xf3\xf9\xeb\x07c\xef\x15\xc0\xf0V^\xd6\x94\x96\x05\xc0'
p673
tp674
bag21
(g22
(I0
tp675
g24
tp676
Rp677
(I1
(I3
tp678
g259
I00
S'\xd0\xcb\x13\x8f\xaa\x9d\xed?\x90\x01<]3\x06\x16\xc0F\xf1\xe7x32\x02\xc0'
p679
tp680
bag21
(g22
(I0
tp681
g24
tp682
Rp683
(I1
(I3
tp684
g259
I00
S'l[\xc4\x16<\xe6\xe9?\xa6\xa0\x90\x84X\x9f\x13\xc0\xc2\xd74Q\x00\xaf\xff\xbf'
p685
tp686
bag21
(g22
(I0
tp687
g24
tp688
Rp689
(I1
(I3
tp690
g259
I00
S"\xaeJ\xbd\x1936\xec?\x04\x13\xd4'\x9f\x88\x10\xc0\x805qo\xb6\xe6\xff\xbf"
p691
tp692
bag21
(g22
(I0
tp693
g24
tp694
Rp695
(I1
(I3
tp696
g259
I00
S'\xf09\xb6\x1c*\x86\xee?\xc4\n/\x96\xcb\xe3\n\xc0\xa0\xc9\xd6F6\x0f\x00\xc0'
p697
tp698
bag21
(g22
(I0
tp699
g24
tp700
Rp701
(I1
(I3
tp702
g259
I00
S'3\xe9\xaf\x05T\x89\xe7?+~\xcb\xd3\x15\xc7\x04\xc0x6(d5\xed\x07@'
p703
tp704
bassS'mc_to_entity'
p705
(dp706
(g238
g239
tp707
(lp708
Vrectangular_packing_box1
p709
as(g300
g239
tp710
(lp711
Vsquare_packing_box1
p712
aVrectangular_packing_box2
p713
aVsquare_packing_box2
p714
as(g363
g239
tp715
(lp716
Vrectangular_packing_box3
p717
as(g426
g239
tp718
(lp719
Vrectangular_packing_box2
p720
aVsquare_packing_box2
p721
as(g489
g239
tp722
(lp723
Vsquare_packing_box1
p724
aVrectangular_packing_box2
p725
aVsquare_packing_box3
p726
as(g546
g239
tp727
(lp728
Vrectangular_packing_box3
p729
as(g591
g239
tp730
(lp731
Vsquare_packing_box2
p732
as(g648
g239
tp733
(lp734
Vsquare_packing_box1
p735
aVsquare_packing_box4
p736
aVsquare_packing_box2
p737
assS'reachable_entities'
p738
(lp739
Vrectangular_packing_box2
p740
ag12
ag74
asS'collides'
p741
(dp742
Vrectangular_packing_box4
p743
c__builtin__
set
p744
((lp745
I257
aI452
aI229
aI356
aI589
aI564
aI580
aI532
aI502
aI164
aI478
aI575
atp746
Rp747
sVrectangular_packing_box2
p748
g744
((lp749
I1
aI2
aI3
aI393
aI395
aI144
aI403
aI539
aI541
aI160
aI289
aI37
aI38
aI39
aI40
aI41
aI302
aI304
aI561
aI178
aI435
aI54
aI62
aI63
aI288
aI454
aI376
aI342
aI348
aI605
aI611
aI612
aI550
aI115
aI248
aI377
aI379
aI380
aI511
atp750
Rp751
sVrectangular_packing_box3
p752
g744
((lp753
I384
aI5
aI134
aI263
aI136
aI137
aI523
aI146
aI133
aI35
aI262
aI296
aI135
aI176
aI433
aI308
aI163
aI458
aI80
aI81
aI82
aI83
aI597
aI346
aI570
aI355
aI230
aI240
aI505
aI251
aI124
atp754
Rp755
sVrectangular_packing_box1
p756
g744
((lp757
I262
aI135
aI136
aI146
aI407
aI158
aI134
aI433
aI296
aI263
aI176
aI177
aI448
aI583
aI328
aI458
aI464
aI82
aI83
aI505
aI346
aI486
aI230
aI490
aI494
aI240
aI120
aI121
aI122
aI264
atp758
Rp759
sVsquare_packing_box2
p760
g744
((lp761
I2
aI3
aI449
aI393
aI395
aI404
aI160
aI161
aI37
aI38
aI41
aI42
aI327
aI304
aI178
aI309
aI54
aI187
aI188
aI288
aI289
aI201
aI202
aI595
aI611
aI106
aI497
aI115
aI372
aI379
aI380
aI554
atp762
Rp763
sVsquare_packing_box3
p764
g744
((lp765
I4
aI5
aI538
aI413
aI161
aI162
aI35
aI36
aI422
aI301
aI309
aI310
aI55
aI570
aI188
aI449
aI69
aI70
aI327
aI201
aI202
aI205
aI80
aI595
aI597
aI92
aI93
aI355
aI497
aI379
atp766
Rp767
sVsquare_packing_box1
p768
g744
((lp769
I0
aI1
aI2
aI144
aI403
aI539
aI541
aI545
aI546
aI550
aI39
aI40
aI425
aI555
aI302
aI307
aI571
aI62
aI453
aI454
aI342
aI474
aI348
aI605
aI612
aI367
aI368
aI369
aI370
aI371
aI247
aI248
aI377
aI378
atp770
Rp771
sVsquare_packing_box4
p772
g744
((lp773
I0
aI1
aI546
aI454
aI545
aI40
aI555
aI403
aI541
aI369
aI370
aI371
aI342
aI377
aI378
aI571
aI474
atp774
Rp775
ssg119
g120
sS'pick_used'
p776
(dp777
Vrectangular_packing_box4
p778
(itrajectory_representation.operator
Operator
p779
(dp780
g8
I01
sg9
(dp781
S'object'
p782
Vrectangular_packing_box4
p783
ssg16
S'two_arm_pick'
p784
sg18
(dp785
S'q_goal'
p786
(lp787
g21
(g22
(I0
tp788
g24
tp789
Rp790
(I1
(I3
tp791
g248
I00
S'\xe8Z\xc3\x8es\x83\xa8?\xc0\n\xd3\x89"\x1e \xc0\x86=\xc6\x0c\xb0\\\x04@'
p792
tp793
bag21
(g22
(I0
tp794
g24
tp795
Rp796
(I1
(I3
tp797
g248
I00
S'wAU\xa8FU\xd0?\xb4O\x17K\x05\xad\x1e\xc0\x16E4 \x11\xbe\x06@'
p798
tp799
bag21
(g22
(I0
tp800
g24
tp801
Rp802
(I1
(I3
tp803
g248
I00
S'\x0c\x15\x11\x92\xeaZ\xd5?D\xeb\xaeI\x7f_\x1e\xc0\x15\xfe\x83\xfeW\x95\x05@'
p804
tp805
basS'is_feasible'
p806
I00
ssg46
(lp807
g21
(g22
(I0
tp808
g24
tp809
Rp810
(I1
(I3
tp811
g248
I00
S'\xd0\xab$\x86\xf3\xcb\xf9?\x12\xce\xf8\xe5\xfe\xdb\x02\xc0\xac\xf3\xa6\xf2\x94\x9f\xff?'
p812
tp813
bag21
(g22
(I0
tp814
g24
tp815
Rp816
(I1
(I3
tp817
g259
I00
S'\x0e\n\xf3\x14\x91\x9e\xf3?\x1c\x0cAZ"\xfa\x05\xc0\xf8\x01c\x9bq\'\xfc?'
p818
tp819
bag21
(g22
(I0
tp820
g24
tp821
Rp822
(I1
(I3
tp823
g259
I00
S'\xd1\xaa\x15!\x8c\x06\xed?\x8c\xab\xab^w\xe3\t\xc0~&\xcc\xa2\xcbw\xf6?'
p824
tp825
bag21
(g22
(I0
tp826
g24
tp827
Rp828
(I1
(I3
tp829
g259
I00
S'y\xd4\xbc{`\x0b\xf2?\xb0C6m\xb7\xd6\x0e\xc0\xe8\xe2r\xbe\x16{\xf5?'
p830
tp831
bag21
(g22
(I0
tp832
g24
tp833
Rp834
(I1
(I3
tp835
g259
I00
S'\xf3In\x9c \xb1\xee?\x10D/\xcc\x0f}\x11\xc0\xda0\xdf\x1au:\xf0?'
p836
tp837
bag21
(g22
(I0
tp838
g24
tp839
Rp840
(I1
(I3
tp841
g259
I00
S'\xa9\xd9\x1d\x8d\xa6j\xdf?\xa0\x85\x1a\x84\xc6\xec\x12\xc0\x01\xb6 H\xb1\x91\xeb?'
p842
tp843
bag21
(g22
(I0
tp844
g24
tp845
Rp846
(I1
(I3
tp847
g259
I00
S'\xd8\x87\x03p)T\xe4?\xd5\xabI\xb7V\xd0\x15\xc0vWg\x9a\x87\x8a\xec?'
p848
tp849
bag21
(g22
(I0
tp850
g24
tp851
Rp852
(I1
(I3
tp853
g259
I00
S'\xa6\xc4l\x8d\x92\xcc\xe5?\x10\xc7\xe9C\x0b\xd8\x18\xc0@\xb9\xa4\xa6\xc5\xc5\x8e\xbf'
p854
tp855
bag21
(g22
(I0
tp856
g24
tp857
Rp858
(I1
(I3
tp859
g259
I00
S'\xa1\xa7\xe1\x952\xb8\xd3?\xa5q<Z@\x9e\x1b\xc0\xbc\xd6\x90\xe8\x98\xf3\x08@'
p860
tp861
bag796
asbsg740
(itrajectory_representation.operator
Operator
p862
(dp863
g8
I01
sg9
(dp864
g782
Vrectangular_packing_box2
p865
ssg16
g784
sg18
(dp866
g786
(lp867
g21
(g22
(I0
tp868
g24
tp869
Rp870
(I1
(I3
tp871
g248
I00
S'R\xd2\xc6\xcf\x15z\n@a\xbe\x12mR\xe3\x15\xc04_\x94\x13/\xa1\xff\xbf'
p872
tp873
bag21
(g22
(I0
tp874
g24
tp875
Rp876
(I1
(I3
tp877
g248
I00
S'\xa4\xb0\x88A\xb3\xb1\t@\x82\xa5:"\x0c3\x1a\xc0\x0c\xa7\x83\xac\x80J\x02@'
p878
tp879
bag21
(g22
(I0
tp880
g24
tp881
Rp882
(I1
(I3
tp883
g248
I00
S'\xaa\xaf\xd6\x8c\xa7\xf3\x02@wnKqu\x16\x1a\xc0Q9_8\x87\x82\xe0?'
p884
tp885
basg806
I00
ssg46
(lp886
g21
(g22
(I0
tp887
g24
tp888
Rp889
(I1
(I3
tp890
g248
I00
S'\xd0\xab$\x86\xf3\xcb\xf9?\x12\xce\xf8\xe5\xfe\xdb\x02\xc0\xac\xf3\xa6\xf2\x94\x9f\xff?'
p891
tp892
bag21
(g22
(I0
tp893
g24
tp894
Rp895
(I1
(I3
tp896
g259
I00
S'\x0e\n\xf3\x14\x91\x9e\xf3?\x1c\x0cAZ"\xfa\x05\xc0\xf8\x01c\x9bq\'\xfc?'
p897
tp898
bag21
(g22
(I0
tp899
g24
tp900
Rp901
(I1
(I3
tp902
g259
I00
S'\xd1\xaa\x15!\x8c\x06\xed?\x8c\xab\xab^w\xe3\t\xc0~&\xcc\xa2\xcbw\xf6?'
p903
tp904
bag21
(g22
(I0
tp905
g24
tp906
Rp907
(I1
(I3
tp908
g259
I00
S'y\xd4\xbc{`\x0b\xf2?\xb0C6m\xb7\xd6\x0e\xc0\xe8\xe2r\xbe\x16{\xf5?'
p909
tp910
bag21
(g22
(I0
tp911
g24
tp912
Rp913
(I1
(I3
tp914
g259
I00
S'\xf3In\x9c \xb1\xee?\x10D/\xcc\x0f}\x11\xc0\xda0\xdf\x1au:\xf0?'
p915
tp916
bag21
(g22
(I0
tp917
g24
tp918
Rp919
(I1
(I3
tp920
g259
I00
S'v\xb8^\x85\xa7[\xea?x\xbe\xff2t\x8d\x13\xc0\x88\x85\x8cCyH\xf6?'
p921
tp922
bag21
(g22
(I0
tp923
g24
tp924
Rp925
(I1
(I3
tp926
g259
I00
S'\x85\\2\xba\x0b5\xf5?I\r\x06\xd10\xfb\x15\xc0\x9e\x11\xee\xd8\xb9\xd7\xf5?'
p927
tp928
bag21
(g22
(I0
tp929
g24
tp930
Rp931
(I1
(I3
tp932
g259
I00
S'j\xc7\xc0&\x8ag\xf6?h\x9cH4\x7f\xab\x18\xc0\xd8|\x1d\xfc\xcbV\xf2?'
p933
tp934
bag21
(g22
(I0
tp935
g24
tp936
Rp937
(I1
(I3
tp938
g259
I00
S'JyH\x8ez\xd6\xfa?\xb3\xf7h\x83\xea\xba\x1a\xc0u\xf9Uf\xb7m\xe0?'
p939
tp940
bag882
asbsVrectangular_packing_box3
p941
(itrajectory_representation.operator
Operator
p942
(dp943
g8
I01
sg9
(dp944
g782
Vrectangular_packing_box3
p945
ssg16
g784
sg18
(dp946
g786
(lp947
g21
(g22
(I0
tp948
g24
tp949
Rp950
(I1
(I3
tp951
g248
I00
S'\x9f?\xa0\xf5\xfd\x7f\xe0?d\xc66\x80\xf9\x11\x1e\xc0AS\xf59\x81\xee\xdd?'
p952
tp953
bag21
(g22
(I0
tp954
g24
tp955
Rp956
(I1
(I3
tp957
g248
I00
S'\x83/\xe5\xb8\x95\xd2\xdc?\xc9\xe7\x02\xe5\x13\xc7\x1d\xc0\x9c%\x01f>U\xda?'
p958
tp959
bag21
(g22
(I0
tp960
g24
tp961
Rp962
(I1
(I3
tp963
g248
I00
S'"\x89\x0e%D\xd0\xd6?M\x91\x1a^\xc8r\x1d\xc0\x1a\xd0%\x8b\x97q\xca?'
p964
tp965
basg806
I00
ssg46
(lp966
g21
(g22
(I0
tp967
g24
tp968
Rp969
(I1
(I3
tp970
g248
I00
S'\xd0\xab$\x86\xf3\xcb\xf9?\x12\xce\xf8\xe5\xfe\xdb\x02\xc0\xac\xf3\xa6\xf2\x94\x9f\xff?'
p971
tp972
bag21
(g22
(I0
tp973
g24
tp974
Rp975
(I1
(I3
tp976
g259
I00
S'\xf4\xfdJ\x1a(#\xec?H"\x9cD\x1aE\x05\xc0.\xa9\x0b\x87\xf8\xe1\x02@'
p977
tp978
bag21
(g22
(I0
tp979
g24
tp980
Rp981
(I1
(I3
tp982
g259
I00
S'\x06\x11,\xef\x98O\xe7??\x10\x01s=b\t\xc04\x92\xb79o\x8c\x00@'
p983
tp984
bag21
(g22
(I0
tp985
g24
tp986
Rp987
(I1
(I3
tp988
g259
I00
S'\xe4u**\x0e5\xe9?\xaa\xfd\r\xed\xc4\xf6\r\xc0\x0fDE0\x1f\x0b\xfe?'
p989
tp990
bag21
(g22
(I0
tp991
g24
tp992
Rp993
(I1
(I3
tp994
g259
I00
S'\xc2\xda(e\x83\x1a\xeb?\x8au\x8d3\xa6E\x11\xc0\xb4c\x1b\xed_\xfd\xfa?'
p995
tp996
bag21
(g22
(I0
tp997
g24
tp998
Rp999
(I1
(I3
tp1000
g259
I00
S'v\xb8^\x85\xa7[\xea?x\xbe\xff2t\x8d\x13\xc0\x88\x85\x8cCyH\xf6?'
p1001
tp1002
bag21
(g22
(I0
tp1003
g24
tp1004
Rp1005
(I1
(I3
tp1006
g259
I00
S'\xd8\x87\x03p)T\xe4?\xd5\xabI\xb7V\xd0\x15\xc0vWg\x9a\x87\x8a\xec?'
p1007
tp1008
bag21
(g22
(I0
tp1009
g24
tp1010
Rp1011
(I1
(I3
tp1012
g259
I00
S'T]\x0c\x0e\xd89\xda?\xf4\x992\x11%\\\x18\xc0\x95\x7f\x10B\xb1)\xe3?'
p1013
tp1014
bag21
(g22
(I0
tp1015
g24
tp1016
Rp1017
(I1
(I3
tp1018
g259
I00
S'\xb0\x11@i\x1f\x12\xb4?\x01\xb6C\x19\x0b\x9d\x1a\xc0\xda \xc5\xc8m8\xeb?'
p1019
tp1020
bag962
asbsVrectangular_packing_box1
p1021
(itrajectory_representation.operator
Operator
p1022
(dp1023
g8
I01
sg9
(dp1024
g782
Vrectangular_packing_box1
p1025
ssg16
g784
sg18
(dp1026
g786
(lp1027
g21
(g22
(I0
tp1028
g24
tp1029
Rp1030
(I1
(I3
tp1031
g248
I00
S'b\x7f\xc3%\xd4\xa1\xe8?s\xa3\x10L\xc5\xa0\x1b\xc0\xbe\x97aNSG\xf3\xbf'
p1032
tp1033
bag21
(g22
(I0
tp1034
g24
tp1035
Rp1036
(I1
(I3
tp1037
g248
I00
S'\x03\xb8q\xb1\xe7\xe2\xd9?\x17\x17\x1b\xf2\xec\xf5\x1f\xc0E0f\xbet|\xeb?'
p1038
tp1039
bag21
(g22
(I0
tp1040
g24
tp1041
Rp1042
(I1
(I3
tp1043
g248
I00
S'Y\xb9\xe8\x89zr\xfa?\x95\x8dY\x9a[N\x1d\xc0>\xb4\xac\xb2\xaf\xdf\x08\xc0'
p1044
tp1045
basg806
I00
ssg46
(lp1046
g21
(g22
(I0
tp1047
g24
tp1048
Rp1049
(I1
(I3
tp1050
g248
I00
S'\xd0\xab$\x86\xf3\xcb\xf9?\x12\xce\xf8\xe5\xfe\xdb\x02\xc0\xac\xf3\xa6\xf2\x94\x9f\xff?'
p1051
tp1052
bag21
(g22
(I0
tp1053
g24
tp1054
Rp1055
(I1
(I3
tp1056
g259
I00
S'\x0e\n\xf3\x14\x91\x9e\xf3?\x1c\x0cAZ"\xfa\x05\xc0\xf8\x01c\x9bq\'\xfc?'
p1057
tp1058
bag21
(g22
(I0
tp1059
g24
tp1060
Rp1061
(I1
(I3
tp1062
g259
I00
S'\xd1\xaa\x15!\x8c\x06\xed?\x8c\xab\xab^w\xe3\t\xc0~&\xcc\xa2\xcbw\xf6?'
p1063
tp1064
bag21
(g22
(I0
tp1065
g24
tp1066
Rp1067
(I1
(I3
tp1068
g259
I00
S'y\xd4\xbc{`\x0b\xf2?\xb0C6m\xb7\xd6\x0e\xc0\xe8\xe2r\xbe\x16{\xf5?'
p1069
tp1070
bag21
(g22
(I0
tp1071
g24
tp1072
Rp1073
(I1
(I3
tp1074
g259
I00
S'\xf3In\x9c \xb1\xee?\x10D/\xcc\x0f}\x11\xc0\xda0\xdf\x1au:\xf0?'
p1075
tp1076
bag21
(g22
(I0
tp1077
g24
tp1078
Rp1079
(I1
(I3
tp1080
g259
I00
S'v\xb8^\x85\xa7[\xea?x\xbe\xff2t\x8d\x13\xc0\x88\x85\x8cCyH\xf6?'
p1081
tp1082
bag21
(g22
(I0
tp1083
g24
tp1084
Rp1085
(I1
(I3
tp1086
g259
I00
S'E6\xa2Z]\x01\xe8?\x8b\x06T\x92\xa7\x82\x16\xc0q\xc1\x9f~\xe7\n\xfb?'
p1087
tp1088
bag21
(g22
(I0
tp1089
g24
tp1090
Rp1091
(I1
(I3
tp1092
g259
I00
S'<k;\xb0\x16\xda\xef?\x01\xf6\xb9DB\xf4\x18\xc0}\xc7/\x02\x8aR\x18@'
p1093
tp1094
bag1030
asbsVsquare_packing_box2
p1095
(itrajectory_representation.operator
Operator
p1096
(dp1097
g8
I01
sg9
(dp1098
g782
Vsquare_packing_box2
p1099
ssg16
g784
sg18
(dp1100
g786
(lp1101
g21
(g22
(I0
tp1102
g24
tp1103
Rp1104
(I1
(I3
tp1105
g248
I00
S'\xa5\x11\xd3m\xc9\x9e\x06@\xae\xeb\xd9\xc2\xa0"\x19\xc0\xc8\xaar\xb7\x06=\x07@'
p1106
tp1107
bag21
(g22
(I0
tp1108
g24
tp1109
Rp1110
(I1
(I3
tp1111
g248
I00
S'\xfb\x1aL\x8c3r\x05@\x812p\x01\xd2\xf1\x18\xc0-\xd9\xa4\xa6\xe2\xf4\x03@'
p1112
tp1113
bag21
(g22
(I0
tp1114
g24
tp1115
Rp1116
(I1
(I3
tp1117
g248
I00
S'\xe6o\x03\xa1\xc4\x9b\xf7?\x92f\xe5V\x99\xcc\x18\xc0\x00]H\xb1?\x97\xb6?'
p1118
tp1119
basg806
I00
ssg46
(lp1120
g21
(g22
(I0
tp1121
g24
tp1122
Rp1123
(I1
(I3
tp1124
g248
I00
S'\xd0\xab$\x86\xf3\xcb\xf9?\x12\xce\xf8\xe5\xfe\xdb\x02\xc0\xac\xf3\xa6\xf2\x94\x9f\xff?'
p1125
tp1126
bag21
(g22
(I0
tp1127
g24
tp1128
Rp1129
(I1
(I3
tp1130
g259
I00
S'\xf4\xfdJ\x1a(#\xec?H"\x9cD\x1aE\x05\xc0.\xa9\x0b\x87\xf8\xe1\x02@'
p1131
tp1132
bag21
(g22
(I0
tp1133
g24
tp1134
Rp1135
(I1
(I3
tp1136
g259
I00
S'\x06\x11,\xef\x98O\xe7??\x10\x01s=b\t\xc04\x92\xb79o\x8c\x00@'
p1137
tp1138
bag21
(g22
(I0
tp1139
g24
tp1140
Rp1141
(I1
(I3
tp1142
g259
I00
S'\xe4u**\x0e5\xe9?\xaa\xfd\r\xed\xc4\xf6\r\xc0\x0fDE0\x1f\x0b\xfe?'
p1143
tp1144
bag21
(g22
(I0
tp1145
g24
tp1146
Rp1147
(I1
(I3
tp1148
g259
I00
S'\xc2\xda(e\x83\x1a\xeb?\x8au\x8d3\xa6E\x11\xc0\xb4c\x1b\xed_\xfd\xfa?'
p1149
tp1150
bag21
(g22
(I0
tp1151
g24
tp1152
Rp1153
(I1
(I3
tp1154
g259
I00
S'v\xb8^\x85\xa7[\xea?x\xbe\xff2t\x8d\x13\xc0\x88\x85\x8cCyH\xf6?'
p1155
tp1156
bag21
(g22
(I0
tp1157
g24
tp1158
Rp1159
(I1
(I3
tp1160
g259
I00
S'\xd8\x87\x03p)T\xe4?\xd5\xabI\xb7V\xd0\x15\xc0vWg\x9a\x87\x8a\xec?'
p1161
tp1162
bag21
(g22
(I0
tp1163
g24
tp1164
Rp1165
(I1
(I3
tp1166
g259
I00
S'N\xcd\xaa\x1e;\x0f\xee?&\xa8j\x7f\xa2\xe5\x17\xc0\xc1rR\xf6\xd1Y\xe0\xbf'
p1167
tp1168
bag1116
asbsg12
(itrajectory_representation.operator
Operator
p1169
(dp1170
g8
I01
sg9
(dp1171
g11
g12
ssg16
S'two_arm_pick'
p1172
sg18
(dp1173
g20
g21
(g22
(I0
tp1174
g24
tp1175
Rp1176
(I1
(I3
tp1177
g31
I00
S'F\xb3\x9e\xce\xc1\x0f\x02@\xe4\x1d7\xf6\x95\x11\x1b\xc0\x18\xc8\xd6\x86mI\x03@'
p1178
tp1179
bssg46
(lp1180
g21
(g22
(I0
tp1181
g24
tp1182
Rp1183
(I1
(I3
tp1184
g248
I00
S'\xa4\xa0\xeb0i2\x06@D\x00\xc7z\xd2\xc6\x1e\xc0o\xcbUg\x93o\xf5?'
p1185
tp1186
bag21
(g22
(I0
tp1187
g24
tp1188
Rp1189
(I1
(I3
tp1190
g259
I00
S'h\xe5u\t\x19Z\x05@*\x05#\xa8W\x05\x1f\xc0\t\xdeI\x16\xa6\x8a\xee?'
p1191
tp1192
bag21
(g22
(I0
tp1193
g24
tp1194
Rp1195
(I1
(I3
tp1196
g259
I00
S'~\xb5g\xe2\xce"\x06@\xde\xf4\xbc@Ne\x1d\xc0\xca\x97\xa7\xf7\x9d\x1e\n@'
p1197
tp1198
bag1176
asbsg74
(itrajectory_representation.operator
Operator
p1199
(dp1200
g8
I01
sg9
(dp1201
g11
g74
ssg16
g1172
sg18
(dp1202
g20
g21
(g22
(I0
tp1203
g24
tp1204
Rp1205
(I1
(I3
tp1206
g31
I00
S'@r\xf0!-"\r@\xac\xad/;\xa5N\x1a\xc0t\x87\xde\xc3\xcc{\x03@'
p1207
tp1208
bssg46
(lp1209
g21
(g22
(I0
tp1210
g24
tp1211
Rp1212
(I1
(I3
tp1213
g248
I00
S'\xa4\xa0\xeb0i2\x06@D\x00\xc7z\xd2\xc6\x1e\xc0o\xcbUg\x93o\xf5?'
p1214
tp1215
bag21
(g22
(I0
tp1216
g24
tp1217
Rp1218
(I1
(I3
tp1219
g259
I00
S'X\xa3:\xe5b\x88\t@r\x1f\xf5\xe0\x86\xd2\x1d\xc0#R\x94\x0eU\x99\xe0?'
p1220
tp1221
bag21
(g22
(I0
tp1222
g24
tp1223
Rp1224
(I1
(I3
tp1225
g259
I00
S'py\xe7\x92\x10\x1c\x08@_z\xb4M\xdc\xbc\x1b\xc0\xe2\x81s\x12\x81\x12\x08\xc0'
p1226
tp1227
bag1205
asbsVsquare_packing_box4
p1228
(itrajectory_representation.operator
Operator
p1229
(dp1230
g8
I01
sg9
(dp1231
g782
Vsquare_packing_box4
p1232
ssg16
g784
sg18
(dp1233
g786
(lp1234
g21
(g22
(I0
tp1235
g24
tp1236
Rp1237
(I1
(I3
tp1238
g248
I00
S"\x92\x16w\xc0\xa2\xef\x0b@\x8b\xd6X\xcc(q\x18\xc0\xec\x06\xcf\r\xdc'\xf3?"
p1239
tp1240
bag21
(g22
(I0
tp1241
g24
tp1242
Rp1243
(I1
(I3
tp1244
g248
I00
S'\x05N\\\x0c\xc8\xc1\x08@\x10Z\xa9\xddNl\x17\xc0x\xd7q\x03\xf3\xe0\xe6?'
p1245
tp1246
bag21
(g22
(I0
tp1247
g24
tp1248
Rp1249
(I1
(I3
tp1250
g248
I00
S'\x81\xc9\r\xf0\xa80\t@\x89_\x9d\xfaII\x18\xc0\xea\t\xf2{\x01Z\xe4?'
p1251
tp1252
basg806
I00
ssg46
(lp1253
g21
(g22
(I0
tp1254
g24
tp1255
Rp1256
(I1
(I3
tp1257
g248
I00
S'\xd0\xab$\x86\xf3\xcb\xf9?\x12\xce\xf8\xe5\xfe\xdb\x02\xc0\xac\xf3\xa6\xf2\x94\x9f\xff?'
p1258
tp1259
bag21
(g22
(I0
tp1260
g24
tp1261
Rp1262
(I1
(I3
tp1263
g259
I00
S'\xf4\xfdJ\x1a(#\xec?H"\x9cD\x1aE\x05\xc0.\xa9\x0b\x87\xf8\xe1\x02@'
p1264
tp1265
bag21
(g22
(I0
tp1266
g24
tp1267
Rp1268
(I1
(I3
tp1269
g259
I00
S'\x06\x11,\xef\x98O\xe7??\x10\x01s=b\t\xc04\x92\xb79o\x8c\x00@'
p1270
tp1271
bag21
(g22
(I0
tp1272
g24
tp1273
Rp1274
(I1
(I3
tp1275
g259
I00
S'\xe4u**\x0e5\xe9?\xaa\xfd\r\xed\xc4\xf6\r\xc0\x0fDE0\x1f\x0b\xfe?'
p1276
tp1277
bag21
(g22
(I0
tp1278
g24
tp1279
Rp1280
(I1
(I3
tp1281
g259
I00
S'\xc2\xda(e\x83\x1a\xeb?\x8au\x8d3\xa6E\x11\xc0\xb4c\x1b\xed_\xfd\xfa?'
p1282
tp1283
bag21
(g22
(I0
tp1284
g24
tp1285
Rp1286
(I1
(I3
tp1287
g259
I00
S'v\xb8^\x85\xa7[\xea?x\xbe\xff2t\x8d\x13\xc0\x88\x85\x8cCyH\xf6?'
p1288
tp1289
bag21
(g22
(I0
tp1290
g24
tp1291
Rp1292
(I1
(I3
tp1293
g259
I00
S'\x85\\2\xba\x0b5\xf5?I\r\x06\xd10\xfb\x15\xc0\x9e\x11\xee\xd8\xb9\xd7\xf5?'
p1294
tp1295
bag21
(g22
(I0
tp1296
g24
tp1297
Rp1298
(I1
(I3
tp1299
g259
I00
S'j\xc7\xc0&\x8ag\xf6?h\x9cH4\x7f\xab\x18\xc0\xd8|\x1d\xfc\xcbV\xf2?'
p1300
tp1301
bag21
(g22
(I0
tp1302
g24
tp1303
Rp1304
(I1
(I3
tp1305
g259
I00
S'\xb9\x81\xdfb\xdf\x92\xfe?\x1a\xe3?2\xb6\xec\x1a\xc0B\x1b\x81\xfa\x93C\xfa?'
p1306
tp1307
bag21
(g22
(I0
tp1308
g24
tp1309
Rp1310
(I1
(I3
tp1311
g259
I00
S'\xe8[\xb2\xaa\xa5@\x04@(j\r1!I\x1b\xc0Xj\x8bx\xc9`\xfc?'
p1312
tp1313
bag21
(g22
(I0
tp1314
g24
tp1315
Rp1316
(I1
(I3
tp1317
g259
I00
S'\xd3s\x0b\xfa\xdf\xd9\x08@\xc52\xb7\xa7\x86L\x1b\xc0\xca\xe2\x95Rh\xea\xf6?'
p1318
tp1319
bag21
(g22
(I0
tp1320
g24
tp1321
Rp1322
(I1
(I3
tp1323
g259
I00
S'v\xe5\x1bf\x81J\x0e@D\x94\xea\xf8:\xf1\x1a\xc0\xaf\xad/\x96L(\xfa?'
p1324
tp1325
bag1237
asbssS'mc_paths'
p1326
(dp1327
sS'robot'
p1328
NsS'reachable_obj_region_pairs'
p1329
(lp1330
sS'sampled_pick_configs_for_objects'
p1331
(dp1332
sS'mc_calls'
p1333
I0
sS'pick_poses'
p1334
g777
sS'problem_env'
p1335
NsS'evaluations'
p1336
(dp1337
(g546
g648
g239
tp1338
I00
s(g489
g648
g239
tp1339
I01
s(g648
g591
g239
tp1340
I00
s(g363
g489
g239
tp1341
I00
s(g591
g426
g239
tp1342
I00
s(g300
g489
g239
tp1343
I01
s(g426
g238
g239
tp1344
I00
s(g591
g648
g239
tp1345
I00
s(g363
g300
g239
tp1346
I00
s(g489
g426
g239
tp1347
I01
s(g546
g426
g239
tp1348
I00
s(g546
g363
g239
tp1349
I00
s(g489
g238
g239
tp1350
I00
s(g363
g591
g239
tp1351
I00
s(g591
g238
g239
tp1352
I00
s(g300
g591
g239
tp1353
I00
s(g426
g648
g239
tp1354
I01
s(g591
g300
g239
tp1355
I00
s(g648
g546
g239
tp1356
I00
s(g238
g426
g239
tp1357
I00
s(g300
g546
g239
tp1358
I00
s(g591
g363
g239
tp1359
I00
s(g648
g426
g239
tp1360
I01
s(g238
g363
g239
tp1361
I00
s(g648
g300
g239
tp1362
I01
s(g363
g546
g239
tp1363
I00
s(g426
g546
g239
tp1364
I00
s(g238
g591
g239
tp1365
I00
s(g238
g546
g239
tp1366
I01
s(g591
g546
g239
tp1367
I00
s(g300
g648
g239
tp1368
I01
s(g363
g648
g239
tp1369
I00
s(g546
g300
g239
tp1370
I00
s(g489
g546
g239
tp1371
I00
s(g300
g363
g239
tp1372
I00
s(g238
g300
g239
tp1373
I00
s(g489
g363
g239
tp1374
I00
s(g591
g489
g239
tp1375
I01
s(g426
g489
g239
tp1376
I01
s(g489
g300
g239
tp1377
I00
s(g300
g238
g239
tp1378
I00
s(g426
g591
g239
tp1379
I00
s(g489
g591
g239
tp1380
I01
s(g363
g238
g239
tp1381
I01
s(g546
g591
g239
tp1382
I00
s(g546
g238
g239
tp1383
I01
s(g238
g648
g239
tp1384
I00
s(g648
g489
g239
tp1385
I01
s(g363
g426
g239
tp1386
I00
s(g426
g300
g239
tp1387
I00
s(g300
g426
g239
tp1388
I01
s(g426
g363
g239
tp1389
I00
s(g648
g363
g239
tp1390
I00
s(g238
g489
g239
tp1391
I00
s(g648
g238
g239
tp1392
I00
s(g546
g489
g239
tp1393
I00
ssS'paths_to_reachable_entities'
p1394
NsS'use_shortest_path'
p1395
I01
sbsS'ternary_edges'
p1396
(dp1397
(g648
g648
g239
tp1398
(lp1399
I00
as(g426
S'loading_region'
p1400
g1400
tp1401
(lp1402
I00
as(S'entire_region'
p1403
g546
g239
tp1404
(lp1405
I00
as(g489
g300
g1400
tp1406
(lp1407
I00
as(g239
g239
g239
tp1408
(lp1409
I00
as(g300
g648
g1400
tp1410
(lp1411
I00
as(g426
g238
g239
tp1412
(lp1413
I00
as(g239
g363
g239
tp1414
(lp1415
I00
as(g489
g426
g239
tp1416
(lp1417
I01
as(g238
g363
g1400
tp1418
(lp1419
I00
as(g239
g300
g1400
tp1420
(lp1421
I00
as(g489
g1403
g239
tp1422
(lp1423
I00
as(g1400
g239
g1400
tp1424
(lp1425
I00
as(g363
g591
g239
tp1426
(lp1427
I00
as(g300
g1403
g239
tp1428
(lp1429
I00
as(g489
g546
g1400
tp1430
(lp1431
I00
as(g591
g1400
g239
tp1432
(lp1433
I00
as(g1403
g648
g1400
tp1434
(lp1435
I00
as(g239
g1403
g239
tp1436
(lp1437
I00
as(g648
g1400
g239
tp1438
(lp1439
I00
as(g591
g1403
g239
tp1440
(lp1441
I00
as(g426
g426
g1400
tp1442
(lp1443
I00
as(g1400
g300
g1400
tp1444
(lp1445
I00
as(g1403
g1400
g239
tp1446
(lp1447
I00
as(g1403
g489
g239
tp1448
(lp1449
I00
as(g1400
g1400
g239
tp1450
(lp1451
I00
as(g591
g363
g1400
tp1452
(lp1453
I00
as(g239
g239
g1400
tp1454
(lp1455
I00
as(g546
g489
g1400
tp1456
(lp1457
I00
as(g648
g300
g239
tp1458
(lp1459
I01
as(g591
g426
g239
tp1460
(lp1461
I00
as(g546
g239
g1400
tp1462
(lp1463
I00
as(g239
g648
g1400
tp1464
(lp1465
I00
as(g546
g238
g1400
tp1466
(lp1467
I00
as(g238
g546
g239
tp1468
(lp1469
I01
as(g1400
g426
g1400
tp1470
(lp1471
I00
as(g300
g489
g1400
tp1472
(lp1473
I00
as(g648
g648
g1400
tp1474
(lp1475
I00
as(g1403
g300
g239
tp1476
(lp1477
I00
as(g1400
g239
g239
tp1478
(lp1479
I00
as(g363
g648
g239
tp1480
(lp1481
I00
as(g239
g238
g239
tp1482
(lp1483
I00
as(g489
g546
g239
tp1484
(lp1485
I00
as(g238
g300
g239
tp1486
(lp1487
I00
as(g426
g238
g1400
tp1488
(lp1489
I00
as(g591
g489
g239
tp1490
(lp1491
I01
as(g489
g426
g1400
tp1492
(lp1493
I00
as(g489
g648
g1400
tp1494
(lp1495
I00
as(g1403
g489
g1400
tp1496
(lp1497
I00
as(g1400
g238
g1400
tp1498
(lp1499
I00
as(g1403
g239
g239
tp1500
(lp1501
I00
as(g363
g239
g239
tp1502
(lp1503
I00
as(g1400
g1403
g239
tp1504
(lp1505
I00
as(g648
g300
g1400
tp1506
(lp1507
I00
as(g591
g648
g1400
tp1508
(lp1509
I00
as(g591
g591
g239
tp1510
(lp1511
I00
as(g546
g238
g239
tp1512
(lp1513
I01
as(g1403
g648
g239
tp1514
(lp1515
I00
as(g546
g1400
g1400
tp1516
(lp1517
I00
as(g300
g426
g239
tp1518
(lp1519
I01
as(g426
g426
g239
tp1520
(lp1521
I00
as(g426
g363
g239
tp1522
(lp1523
I00
as(g363
g648
g1400
tp1524
(lp1525
I00
as(g300
g546
g1400
tp1526
(lp1527
I00
as(g591
g363
g239
tp1528
(lp1529
I00
as(g546
g489
g239
tp1530
(lp1531
I00
as(g648
g546
g1400
tp1532
(lp1533
I00
as(g546
g239
g239
tp1534
(lp1535
I00
as(g489
g648
g239
tp1536
(lp1537
I01
as(g648
g591
g239
tp1538
(lp1539
I00
as(g238
g546
g1400
tp1540
(lp1541
I00
as(g239
g489
g1400
tp1542
(lp1543
I00
as(g1403
g239
g1400
tp1544
(lp1545
I00
as(g1403
g300
g1400
tp1546
(lp1547
I00
as(g591
g648
g239
tp1548
(lp1549
I00
as(g238
g591
g1400
tp1550
(lp1551
I00
as(g648
g1403
g1400
tp1552
(lp1553
I00
as(g546
g1400
g239
tp1554
(lp1555
I00
as(g591
g489
g1400
tp1556
(lp1557
I00
as(g591
g546
g1400
tp1558
(lp1559
I00
as(g300
g426
g1400
tp1560
(lp1561
I00
as(g239
g238
g1400
tp1562
(lp1563
I00
as(g1403
g591
g1400
tp1564
(lp1565
I00
as(g1400
g238
g239
tp1566
(lp1567
I00
as(g1400
g489
g1400
tp1568
(lp1569
I00
as(g648
g546
g239
tp1570
(lp1571
I00
as(g300
g546
g239
tp1572
(lp1573
I00
as(g1400
g591
g239
tp1574
(lp1575
I00
as(g648
g591
g1400
tp1576
(lp1577
I00
as(g648
g363
g1400
tp1578
(lp1579
I00
as(g238
g300
g1400
tp1580
(lp1581
I00
as(g426
g363
g1400
tp1582
(lp1583
I00
as(g546
g591
g1400
tp1584
(lp1585
I00
as(g239
g426
g1400
tp1586
(lp1587
I00
as(g238
g1400
g1400
tp1588
(lp1589
I00
as(g363
g239
g1400
tp1590
(lp1591
I00
as(g426
g546
g239
tp1592
(lp1593
I00
as(g648
g1403
g239
tp1594
(lp1595
I00
as(g363
g489
g1400
tp1596
(lp1597
I00
as(g238
g648
g1400
tp1598
(lp1599
I00
as(g591
g546
g239
tp1600
(lp1601
I00
as(g300
g1400
g1400
tp1602
(lp1603
I00
as(g489
g239
g239
tp1604
(lp1605
I00
as(g300
g363
g239
tp1606
(lp1607
I00
as(g239
g591
g1400
tp1608
(lp1609
I00
as(g1400
g546
g1400
tp1610
(lp1611
I00
as(g1400
g591
g1400
tp1612
(lp1613
I00
as(g426
g591
g239
tp1614
(lp1615
I00
as(g546
g591
g239
tp1616
(lp1617
I00
as(g426
g546
g1400
tp1618
(lp1619
I00
as(g238
g648
g239
tp1620
(lp1621
I00
as(g648
g489
g239
tp1622
(lp1623
I01
as(g238
g239
g1400
tp1624
(lp1625
I00
as(g300
g1400
g239
tp1626
(lp1627
I00
as(g1400
g363
g1400
tp1628
(lp1629
I00
as(g648
g363
g239
tp1630
(lp1631
I00
as(g238
g238
g239
tp1632
(lp1633
I00
as(g363
g363
g239
tp1634
(lp1635
I00
as(g363
g238
g1400
tp1636
(lp1637
I00
as(g238
g1400
g239
tp1638
(lp1639
I00
as(g591
g300
g239
tp1640
(lp1641
I00
as(g363
g489
g239
tp1642
(lp1643
I00
as(g489
g1400
g1400
tp1644
(lp1645
I00
as(g238
g1403
g1400
tp1646
(lp1647
I00
as(g489
g239
g1400
tp1648
(lp1649
I00
as(g426
g489
g1400
tp1650
(lp1651
I00
as(g300
g363
g1400
tp1652
(lp1653
I00
as(g591
g239
g1400
tp1654
(lp1655
I00
as(g238
g239
g239
tp1656
(lp1657
I00
as(g1400
g363
g239
tp1658
(lp1659
I00
as(g546
g546
g239
tp1660
(lp1661
I00
as(g1400
g300
g239
tp1662
(lp1663
I00
as(g300
g591
g239
tp1664
(lp1665
I00
as(g426
g648
g239
tp1666
(lp1667
I01
as(g426
g591
g1400
tp1668
(lp1669
I00
as(g363
g426
g1400
tp1670
(lp1671
I00
as(g239
g489
g239
tp1672
(lp1673
I00
as(g1403
g238
g1400
tp1674
(lp1675
I00
as(g238
g426
g239
tp1676
(lp1677
I00
as(g546
g1403
g239
tp1678
(lp1679
I00
as(g591
g300
g1400
tp1680
(lp1681
I00
as(g591
g238
g1400
tp1682
(lp1683
I00
as(g363
g546
g239
tp1684
(lp1685
I00
as(g648
g489
g1400
tp1686
(lp1687
I00
as(g363
g1400
g239
tp1688
(lp1689
I00
as(g238
g1403
g239
tp1690
(lp1691
I00
as(g300
g238
g1400
tp1692
(lp1693
I00
as(g648
g426
g239
tp1694
(lp1695
I01
as(g591
g426
g1400
tp1696
(lp1697
I00
as(g300
g300
g1400
tp1698
(lp1699
I00
as(g363
g363
g1400
tp1700
(lp1701
I00
as(g546
g546
g1400
tp1702
(lp1703
I00
as(g426
g300
g1400
tp1704
(lp1705
I00
as(g300
g489
g239
tp1706
(lp1707
I01
as(g1403
g426
g239
tp1708
(lp1709
I00
as(g239
g1403
g1400
tp1710
(lp1711
I00
as(g239
g546
g1400
tp1712
(lp1713
I00
as(g489
g1400
g239
tp1714
(lp1715
I00
as(g426
g648
g1400
tp1716
(lp1717
I00
as(g546
g426
g1400
tp1718
(lp1719
I00
as(g238
g238
g1400
tp1720
(lp1721
I00
as(g1403
g238
g239
tp1722
(lp1723
I00
as(g489
g238
g1400
tp1724
(lp1725
I00
as(g546
g1403
g1400
tp1726
(lp1727
I00
as(g426
g489
g239
tp1728
(lp1729
I01
as(g363
g546
g1400
tp1730
(lp1731
I00
as(g363
g238
g239
tp1732
(lp1733
I01
as(g300
g238
g239
tp1734
(lp1735
I00
as(g426
g239
g1400
tp1736
(lp1737
I00
as(g489
g591
g239
tp1738
(lp1739
I01
as(g591
g591
g1400
tp1740
(lp1741
I00
as(g363
g1403
g239
tp1742
(lp1743
I00
as(g1400
g1403
g1400
tp1744
(lp1745
I00
as(g300
g591
g1400
tp1746
(lp1747
I00
as(g1400
g546
g239
tp1748
(lp1749
I00
as(g1403
g1403
g1400
tp1750
(lp1751
I00
as(g363
g426
g239
tp1752
(lp1753
I00
as(g426
g300
g239
tp1754
(lp1755
I00
as(g1400
g648
g1400
tp1756
(lp1757
I00
as(g238
g426
g1400
tp1758
(lp1759
I00
as(g591
g239
g239
tp1760
(lp1761
I00
as(g1403
g426
g1400
tp1762
(lp1763
I00
as(g591
g238
g239
tp1764
(lp1765
I00
as(g238
g489
g239
tp1766
(lp1767
I00
as(g363
g1400
g1400
tp1768
(lp1769
I00
as(g648
g426
g1400
tp1770
(lp1771
I00
as(g546
g648
g239
tp1772
(lp1773
I00
as(g1403
g1400
g1400
tp1774
(lp1775
I00
as(g1400
g648
g239
tp1776
(lp1777
I00
as(g426
g1403
g239
tp1778
(lp1779
I00
as(g489
g591
g1400
tp1780
(lp1781
I00
as(g489
g363
g1400
tp1782
(lp1783
I00
as(g300
g239
g239
tp1784
(lp1785
I00
as(g363
g1403
g1400
tp1786
(lp1787
I00
as(g363
g300
g239
tp1788
(lp1789
I00
as(g1403
g363
g1400
tp1790
(lp1791
I00
as(g239
g546
g239
tp1792
(lp1793
I00
as(g239
g591
g239
tp1794
(lp1795
I00
as(g546
g426
g239
tp1796
(lp1797
I00
as(g546
g363
g239
tp1798
(lp1799
I00
as(g1403
g591
g239
tp1800
(lp1801
I00
as(g489
g238
g239
tp1802
(lp1803
I00
as(g489
g489
g1400
tp1804
(lp1805
I00
as(g546
g300
g1400
tp1806
(lp1807
I00
as(g300
g239
g1400
tp1808
(lp1809
I00
as(g648
g239
g239
tp1810
(lp1811
I00
as(g426
g239
g239
tp1812
(lp1813
I00
as(g546
g648
g1400
tp1814
(lp1815
I00
as(g300
g648
g239
tp1816
(lp1817
I01
as(g239
g1400
g239
tp1818
(lp1819
I00
as(g1403
g1403
g239
tp1820
(lp1821
I00
as(g648
g238
g1400
tp1822
(lp1823
I00
as(g426
g1403
g1400
tp1824
(lp1825
I00
as(g1400
g489
g239
tp1826
(lp1827
I00
as(g238
g363
g239
tp1828
(lp1829
I00
as(g1403
g363
g239
tp1830
(lp1831
I00
as(g426
g1400
g239
tp1832
(lp1833
I00
as(g238
g489
g1400
tp1834
(lp1835
I00
as(g239
g426
g239
tp1836
(lp1837
I00
as(g1403
g546
g1400
tp1838
(lp1839
I00
as(g300
g1403
g1400
tp1840
(lp1841
I00
as(g489
g489
g239
tp1842
(lp1843
I00
as(g546
g300
g239
tp1844
(lp1845
I00
as(g591
g1403
g1400
tp1846
(lp1847
I00
as(g489
g363
g239
tp1848
(lp1849
I00
as(g239
g300
g239
tp1850
(lp1851
I00
as(g238
g591
g239
tp1852
(lp1853
I00
as(g363
g300
g1400
tp1854
(lp1855
I00
as(g300
g300
g239
tp1856
(lp1857
I00
as(g546
g363
g1400
tp1858
(lp1859
I00
as(g489
g300
g239
tp1860
(lp1861
I00
as(g591
g1400
g1400
tp1862
(lp1863
I00
as(g239
g648
g239
tp1864
(lp1865
I00
as(g648
g1400
g1400
tp1866
(lp1867
I00
as(g239
g363
g1400
tp1868
(lp1869
I00
as(g648
g239
g1400
tp1870
(lp1871
I00
as(g1400
g1400
g1400
tp1872
(lp1873
I00
as(g489
g1403
g1400
tp1874
(lp1875
I00
as(g363
g591
g1400
tp1876
(lp1877
I00
as(g239
g1400
g1400
tp1878
(lp1879
I00
as(g648
g238
g239
tp1880
(lp1881
I00
as(g1400
g426
g239
tp1882
(lp1883
I00
assg776
g777
sS'use_prm'
p1884
I01
sS'object_names'
p1885
(lp1886
S'square_packing_box1'
p1887
aS'rectangular_packing_box1'
p1888
aS'square_packing_box2'
p1889
aS'rectangular_packing_box2'
p1890
aS'square_packing_box3'
p1891
aS'rectangular_packing_box3'
p1892
aS'square_packing_box4'
p1893
aS'rectangular_packing_box4'
p1894
asg1335
NsS'current_holding_collides'
p1895
NsS'object_poses'
p1896
(dp1897
Vrectangular_packing_box4
p1898
g21
(g22
(I0
tp1899
g24
tp1900
Rp1901
(I1
(I1
I3
tp1902
g248
I00
S'\xe0Ls\xa1\xeb\xb8\xd8\xbf\xb1\xd4*\xb3\xf7@\x1e\xc0\x96\xdd\x8b\xa1]m\x11@'
p1903
tp1904
bsVrectangular_packing_box2
p1905
g21
(g22
(I0
tp1906
g24
tp1907
Rp1908
(I1
(I1
I3
tp1909
g248
I00
S'X\xc8\x07\xc5\xec\xc6\x05@\xae,S\xb6l\xb8\x17\xc0\x0e\xe6\xe6#ZB\x16@'
p1910
tp1911
bsVrectangular_packing_box3
p1912
g21
(g22
(I0
tp1913
g24
tp1914
Rp1915
(I1
(I1
I3
tp1916
g248
I00
S'bNiI\x85t\xf1?\x1d1\x1bK)>\x1c\xc0\xeer\xeeN\xc8\r\x15@'
p1917
tp1918
bsVrectangular_packing_box1
p1919
g21
(g22
(I0
tp1920
g24
tp1921
Rp1922
(I1
(I1
I3
tp1923
g248
I00
S'\x04\xcf\x89`\xa4p\xef?\xb5\xceiQ\x8b\x97\x1e\xc0udx\x15\x08E\x01@'
p1924
tp1925
bsVsquare_packing_box2
p1926
g21
(g22
(I0
tp1927
g24
tp1928
Rp1929
(I1
(I1
I3
tp1930
g248
I00
S'\xbc\xde\xf7\xaa\x93\xf6\x00@MK\x1f\xc4\x19M\x17\xc0\xd4\\\xde}L}\xe8?'
p1931
tp1932
bsVsquare_packing_box3
p1933
g21
(g22
(I0
tp1934
g24
tp1935
Rp1936
(I1
(I1
I3
tp1937
g248
I00
S'H\xc5\x1d\x9ei\xc1\xfa?\xba\x17\xd5\xd1\xa7\xbc\x19\xc0\xdb\xa4m\xecZw\x10@'
p1938
tp1939
bsVsquare_packing_box1
p1940
g21
(g22
(I0
tp1941
g24
tp1942
Rp1943
(I1
(I1
I3
tp1944
g248
I00
S'YMK\x03\x8co\n@Q|\xd1\xa9\r\xad\x17\xc0\xe2\r\xf5/O\xfc\x13@'
p1945
tp1946
bsVsquare_packing_box4
p1947
g21
(g22
(I0
tp1948
g24
tp1949
Rp1950
(I1
(I1
I3
tp1951
g248
I00
S'\x84\xdc\x14\x03\xda\x99\x0c@\x92Nx%\x07\xc5\x15\xc0^\xf5?X^\x95\xf4?'
p1952
tp1953
bssS'reachable_regions_while_holding'
p1954
(lp1955
(g778
g1400
tp1956
a(g740
g1400
tp1957
a(g941
g1400
tp1958
a(g1021
g1400
tp1959
a(g1095
g1400
tp1960
a(g12
g1400
tp1961
a(g74
g1400
tp1962
a(g1228
g1400
tp1963
asS'in_region'
p1964
(itrajectory_representation.predicates.in_region
InRegion
p1965
(dp1966
g1335
NsbsS'cached_pick_paths'
p1967
(dp1968
g778
(lp1969
g21
(g22
(I0
tp1970
g24
tp1971
Rp1972
(I1
(I3
tp1973
g248
I00
S'\xa4\xa0\xeb0i2\x06@D\x00\xc7z\xd2\xc6\x1e\xc0o\xcbUg\x93o\xf5?'
p1974
tp1975
bag21
(g22
(I0
tp1976
g24
tp1977
Rp1978
(I1
(I3
tp1979
g259
I00
S'T\x93\x9d\x1f\xdb\x8b\x00@h\xc33f\x19N\x1f\xc0\n\x0b9\x98\xdd\xa0\xf7?'
p1980
tp1981
bag21
(g22
(I0
tp1982
g24
tp1983
Rp1984
(I1
(I3
tp1985
g259
I00
S'\xa4\xc8\xcc\x88S\x9f\xf6?N\xeaYik!\x1e\xc0\x00W\xeas\x1a)\xfa?'
p1986
tp1987
bag21
(g22
(I0
tp1988
g24
tp1989
Rp1990
(I1
(I3
tp1991
g259
I00
S'\xb5\x99m0\x178\xf0?\x86\xac\x86\xf0\xe37\x1e\xc0\x7f\x06\x9c\xb7E2\x0c@'
p1992
tp1993
bag802
asg740
(lp1994
g21
(g22
(I0
tp1995
g24
tp1996
Rp1997
(I1
(I3
tp1998
g248
I00
S'\xa4\xa0\xeb0i2\x06@D\x00\xc7z\xd2\xc6\x1e\xc0o\xcbUg\x93o\xf5?'
p1999
tp2000
bag21
(g22
(I0
tp2001
g24
tp2002
Rp2003
(I1
(I3
tp2004
g259
I00
S'\xadN\xcb\xe7{+\x07@\xd5\x0f;S\xc0\x0f\x1e\xc0\xb8\xd3V\x10\x16\xcb\xf9?'
p2005
tp2006
bag21
(g22
(I0
tp2007
g24
tp2008
Rp2009
(I1
(I3
tp2010
g259
I00
S'\xc3#\x9b"m=\x05@O\x1c\xaf\xffo\x1c\x1b\xc0\xa4\xc19\xdd\xaa\xea\xdd?'
p2011
tp2012
bag882
asg941
(lp2013
g21
(g22
(I0
tp2014
g24
tp2015
Rp2016
(I1
(I3
tp2017
g248
I00
S'\xa4\xa0\xeb0i2\x06@D\x00\xc7z\xd2\xc6\x1e\xc0o\xcbUg\x93o\xf5?'
p2018
tp2019
bag21
(g22
(I0
tp2020
g24
tp2021
Rp2022
(I1
(I3
tp2023
g259
I00
S'\xb9O\xa7Y\x02\x91\x00@\x96d\x95\x0e\xe6\xda\x1e\xc0l\xef\x8e\x11Rk\xeb?'
p2024
tp2025
bag21
(g22
(I0
tp2026
g24
tp2027
Rp2028
(I1
(I3
tp2029
g259
I00
S'\xad\xa0\xdfFH\xe9\xf6?\xa3\xfc\x14D\x8bb\x1d\xc0\x9e2hH\xc0\xe5\xf0?'
p2030
tp2031
bag21
(g22
(I0
tp2032
g24
tp2033
Rp2034
(I1
(I3
tp2035
g259
I00
S"\xc6S\x92\x8e7i\xef?H}'\xb2\xea\x03\x1f\xc0\x1e\xe8\x98\xe5\t\x12\xf4?"
p2036
tp2037
bag950
asg1021
(lp2038
g21
(g22
(I0
tp2039
g24
tp2040
Rp2041
(I1
(I3
tp2042
g248
I00
S'\xa4\xa0\xeb0i2\x06@D\x00\xc7z\xd2\xc6\x1e\xc0o\xcbUg\x93o\xf5?'
p2043
tp2044
bag21
(g22
(I0
tp2045
g24
tp2046
Rp2047
(I1
(I3
tp2048
g259
I00
S'\xb9O\xa7Y\x02\x91\x00@\x96d\x95\x0e\xe6\xda\x1e\xc0l\xef\x8e\x11Rk\xeb?'
p2049
tp2050
bag21
(g22
(I0
tp2051
g24
tp2052
Rp2053
(I1
(I3
tp2054
g259
I00
S'\xbdNYIgQ\xfe?\xbd\rKh\xfd\x00 \xc0\x05\xc1f\x8dO\xb4\x16@'
p2055
tp2056
bag1042
asg1095
(lp2057
g21
(g22
(I0
tp2058
g24
tp2059
Rp2060
(I1
(I3
tp2061
g248
I00
S'\xa4\xa0\xeb0i2\x06@D\x00\xc7z\xd2\xc6\x1e\xc0o\xcbUg\x93o\xf5?'
p2062
tp2063
bag21
(g22
(I0
tp2064
g24
tp2065
Rp2066
(I1
(I3
tp2067
g259
I00
S'V<\xdb\x99-b\x02@s\xd3@:\x7fA\x1e\xc0\xbf\x94H\xa7$\xf0\xff?'
p2068
tp2069
bag21
(g22
(I0
tp2070
g24
tp2071
Rp2072
(I1
(I3
tp2073
g259
I00
S"'DJ\xaet\xe5\x02@&#\x93\x97\x82\xb8\x1b\xc0\xdbM\xcc\xf6#.\x08@"
p2074
tp2075
bag1110
asg12
g1180
sg74
g1209
sg1228
(lp2076
g21
(g22
(I0
tp2077
g24
tp2078
Rp2079
(I1
(I3
tp2080
g248
I00
S'\xa4\xa0\xeb0i2\x06@D\x00\xc7z\xd2\xc6\x1e\xc0o\xcbUg\x93o\xf5?'
p2081
tp2082
bag21
(g22
(I0
tp2083
g24
tp2084
Rp2085
(I1
(I3
tp2086
g259
I00
S'\xf6\x9c\xbc\xd8\xea\x86\x05@\xc8\t,\x83\x04\xa9\x1c\xc0HA\x84\xf4\xe0S\xf1?'
p2087
tp2088
bag21
(g22
(I0
tp2089
g24
tp2090
Rp2091
(I1
(I3
tp2092
g259
I00
S'\xd3s\x0b\xfa\xdf\xd9\x08@\xc52\xb7\xa7\x86L\x1b\xc0\xca\xe2\x95Rh\xea\xf6?'
p2093
tp2094
bag1249
assg741
(dp2095
(Vsquare_packing_box1
p2096
(cnumpy.core.multiarray
scalar
p2097
(g248
S'\x95\xf3\xc5\xde\x8bo\n@'
p2098
tp2099
Rp2100
g2097
(g248
S'\x0b}\xb0\x8c\r\xad\x17\xc0'
p2101
tp2102
Rp2103
g2097
(g248
S'\xfbu\xa7;O\xfc\x13@'
p2104
tp2105
Rp2106
tp2107
tp2108
g771
s(Vrectangular_packing_box4
p2109
(g2097
(g248
S'K\xad\xf7\x1b\xed\xb8\xd8\xbf'
p2110
tp2111
Rp2112
g2097
(g248
S'\xfe`\xe0\xb9\xf7@\x1e\xc0'
p2113
tp2114
Rp2115
g2097
(g248
S'\xee\x96\xe4\x80]m\x11@'
p2116
tp2117
Rp2118
tp2119
tp2120
g747
s(Vrectangular_packing_box2
p2121
(g2097
(g248
S'\x16l#\x9e\xec\xc6\x05@'
p2122
tp2123
Rp2124
g2097
(g248
S'\xda\xc6\x9f\xa8l\xb8\x17\xc0'
p2125
tp2126
Rp2127
g2097
(g248
S'\x02\x84\x0f%ZB\x16@'
p2128
tp2129
Rp2130
tp2131
tp2132
g751
s(Vsquare_packing_box2
p2133
(g2097
(g248
S'\xd2\xc4;\xc0\x93\xf6\x00@'
p2134
tp2135
Rp2136
g2097
(g248
S'\x11W\xce\xde\x19M\x17\xc0'
p2137
tp2138
Rp2139
g2097
(g248
S'\xafZ\x99\xf0K}\xe8?'
p2140
tp2141
Rp2142
tp2143
tp2144
g763
s(Vsquare_packing_box3
p2145
(g2097
(g248
S'Sy;\xc2i\xc1\xfa?'
p2146
tp2147
Rp2148
g2097
(g248
S'\xbc>s\xd6\xa7\xbc\x19\xc0'
p2149
tp2150
Rp2151
g2097
(g248
S'CY\xf8\xfaZw\x10@'
p2152
tp2153
Rp2154
tp2155
tp2156
g767
s(Vrectangular_packing_box1
p2157
(g2097
(g248
S'q=\n\xd7\xa3p\xef?'
p2158
tp2159
Rp2160
g2097
(g248
S'NG\x007\x8b\x97\x1e\xc0'
p2161
tp2162
Rp2163
g2097
(g248
S'\x91+\xf5,\x08E\x01@'
p2164
tp2165
Rp2166
tp2167
tp2168
g759
s(Vsquare_packing_box4
p2169
(g2097
(g248
S'Uka\x16\xda\x99\x0c@'
p2170
tp2171
Rp2172
g2097
(g248
S'\x85\xb1\x85 \x07\xc5\x15\xc0'
p2173
tp2174
Rp2175
g2097
(g248
S'\xb8!\xc6k^\x95\xf4?'
p2176
tp2177
Rp2178
tp2179
tp2180
g775
s(Vrectangular_packing_box3
p2181
(g2097
(g248
S'\x80\xb5j\xd7\x84t\xf1?'
p2182
tp2183
Rp2184
g2097
(g248
S'\x0f\xf2z0)>\x1c\xc0'
p2185
tp2186
Rp2187
g2097
(g248
S'\xf3X32\xc8\r\x15@'
p2188
tp2189
Rp2190
tp2191
tp2192
g755
ssS'state_saver'
p2193
(igtamp_utils.utils
CustomStateSaver
p2194
(dp2195
S'robot_base_pose'
p2196
g21
(g22
(I0
tp2197
g24
tp2198
Rp2199
(I1
(I1
I3
tp2200
g248
I00
S'\xa4\xa0\xeb0i2\x06@D\x00\xc7z\xd2\xc6\x1e\xc0n\xcbUg\x93o\xf5?'
p2201
tp2202
bsS'held_object'
p2203
NsS'robot_name'
p2204
S'pr2'
p2205
sS'env_id'
p2206
I1
sg1896
(dp2207
Vright_wall_1
p2208
g21
(g22
(I0
tp2209
g24
tp2210
Rp2211
(I1
(I4
tp2212
g248
I00
S'H\xe1z\x14\xaeG\x12@&\\\x8f\xc2\xf5(\xd4\xbf\xcc\x7fH\xbf}\x1d\xed?\x00\x00\x00\x00\x00\x00\x00\x00'
p2213
tp2214
bsVc_obst5
p2215
g21
(g22
(I0
tp2216
g24
tp2217
Rp2218
(I1
(I4
tp2219
g248
I00
S"\xee\x97\xb9I\xbd7\x12@k\xaeMv\xab^\xdc?e\xaa`TR'\xed?\x92=\xc3\x0eNj\x11@"
p2220
tp2221
bsVentrance_right
p2222
g21
(g22
(I0
tp2223
g24
tp2224
Rp2225
(I1
(I4
tp2226
g248
I00
S'ffffff\n@H\xe1z\x14\xaeG\t\xc0\x9c\xc4 \xb0rh\xc1?\x00\x00\x00\x00\x00\x00\x00\x00'
p2227
tp2228
bsVcomputer_table
p2229
g21
(g22
(I0
tp2230
g24
tp2231
Rp2232
(I1
(I4
tp2233
g248
I00
S'\x00\x00\x00\x00\x00\x00\x13@\x00\x00\x00\x00\x00\x00\xf8\xbf\x96C\x8bl\xe7\xfb\xe7?\xd2!3\x7f|\xd9\x12@'
p2234
tp2235
bsVchair_6b56
p2236
g21
(g22
(I0
tp2237
g24
tp2238
Rp2239
(I1
(I4
tp2240
g248
I00
S'u=\n\xd7\xa3p\xf5?K\xe1z\x14\xaeG\xd1?\x00\x00\x00\x00\x00\x00\x00\x00\xd6$\xfaNBm\n@'
p2241
tp2242
bsVsquare_packing_box3
p2243
g21
(g22
(I0
tp2244
g24
tp2245
Rp2246
(I1
(I4
tp2247
g248
I00
S'b\xc5\x1d\x9ei\xc1\xfa?\xc0\x17\xd5\xd1\xa7\xbc\x19\xc0L7\x89A`\xe5\xd8?\xdb\xa4m\xecZw\x10@'
p2248
tp2249
bsVsquare_packing_box2
p2250
g21
(g22
(I0
tp2251
g24
tp2252
Rp2253
(I1
(I4
tp2254
g248
I00
S'\xb7\xde\xf7\xaa\x93\xf6\x00@NK\x1f\xc4\x19M\x17\xc0L7\x89A`\xe5\xd8?\xd4\\\xde}L}\xe8?'
p2255
tp2256
bsVtable
p2257
g21
(g22
(I0
tp2258
g24
tp2259
Rp2260
(I1
(I4
tp2261
g248
I00
S'\x7f\xf6#EdX\xed?\xac\xffs\x98//\xc0\xbf\x00\x00\x00\x00\x00\x00\x00\x00\x00\x00\x00\x00\x00\x00\x00\x00'
p2262
tp2263
bsVsquare_packing_box1
p2264
g21
(g22
(I0
tp2265
g24
tp2266
Rp2267
(I1
(I4
tp2268
g248
I00
S'QMK\x03\x8co\n@T|\xd1\xa9\r\xad\x17\xc0L7\x89A`\xe5\xd8?\xe2\r\xf5/O\xfc\x13@'
p2269
tp2270
bsVback_wall_2
p2271
g21
(g22
(I0
tp2272
g24
tp2273
Rp2274
(I1
(I4
tp2275
g248
I00
S'\xaeG\xe1z\x14.\x13@\x80\x14\xaeG\xe1z\xc4?xX\xa85\xcd\xbb\xf2?\x00\x00\x00\x00\x00\x00\x00\x00'
p2276
tp2277
bsVchair_083c
p2278
g21
(g22
(I0
tp2279
g24
tp2280
Rp2281
(I1
(I4
tp2282
g248
I00
S'\xa4p=\n\xd7\xa3\xe0?333333\xe3\xbf\x00\x00\x00\x00\x00\x00\x00\x00\x00\x00\x00\x00\x00\x00\x00\x00'
p2283
tp2284
bsVback_wall_1
p2285
g21
(g22
(I0
tp2286
g24
tp2287
Rp2288
(I1
(I4
tp2289
g248
I00
S'\xaeG\xe1z\x14.\x13@\x80\x14\xaeG\xe1z\xc4?\xcc\x7fH\xbf}\x1d\xed?\x00\x00\x00\x00\x00\x00\x00\x00'
p2290
tp2291
bsVbottom_wall
p2292
g21
(g22
(I0
tp2293
g24
tp2294
Rp2295
(I1
(I4
tp2296
g248
I00
S'\x00\x00\x00\x00\x00\x00\xfc?\x00\x00\x00\x00\x00\x00\x00\x00\x00\x00\x00\x00\x00\x00\x00\x00\x00\x00\x00\x00\x00\x00\x00\x00'
p2297
tp2298
bsVcup_905a
p2299
g21
(g22
(I0
tp2300
g24
tp2301
Rp2302
(I1
(I4
tp2303
g248
I00
S'\x00\x00\x00\x00\x00\x00\xf0?\x83\xc0\xca\xa1E\xb6\xdb?\x1b/\xdd$\x06\x81\xed?\x00\x00\x00\x00\x00\x00\x00\x00'
p2304
tp2305
bsVplate_496f
p2306
g21
(g22
(I0
tp2307
g24
tp2308
Rp2309
(I1
(I4
tp2310
g248
I00
S"q=\n\xd7\xa3p\xe5?\x9dhW!\xe5'\xdd\xbf\x1b/\xdd$\x06\x81\xed?\x00\x00\x00\x00\x00\x00\x00\x00"
p2311
tp2312
bsVtoaster
p2313
g21
(g22
(I0
tp2314
g24
tp2315
Rp2316
(I1
(I4
tp2317
g248
I00
S')\\\x8f\xc2\xf5(\xf4\xbf\xe0z\x14\xaeG\xe1\xf2\xbf\xb8\x1e\x85\xebQ\xb8\xee?\x89/`\x9b\xf8\x8a\xe4?'
p2318
tp2319
bsVc_obst1
p2320
g21
(g22
(I0
tp2321
g24
tp2322
Rp2323
(I1
(I4
tp2324
g248
I00
S"\xfb\xaf\x18\x17\x8fx\x12@\x00\x11A0\x8b\xd1\x89?e\xaa`TR'\xed?\xebv\xf1P\xf9\xce\x11@"
p2325
tp2326
bsVrectangular_packing_box4
p2327
g21
(g22
(I0
tp2328
g24
tp2329
Rp2330
(I1
(I4
tp2331
g248
I00
S'\xf4Ls\xa1\xeb\xb8\xd8\xbf\xb5\xd4*\xb3\xf7@\x1e\xc0L7\x89A`\xe5\xd8?\x96\xdd\x8b\xa1]m\x11@'
p2332
tp2333
bsVmicrowave
p2334
g21
(g22
(I0
tp2335
g24
tp2336
Rp2337
(I1
(I4
tp2338
g248
I00
S'\x9a\x99\x99\x99\x99\x99\xf1\xbf\x00\x00\x00\x00\x00\x00\x00@7\x89A`\xe5\xd0\xee?\x00\x00\x00\x00\x00\x00\x00\x00'
p2339
tp2340
bsVc_obst7
p2341
g21
(g22
(I0
tp2342
g24
tp2343
Rp2344
(I1
(I4
tp2345
g248
I00
S"0\xb7\x0b\xefs\x07\x12@\xcaN\xc1ds\x93\xd2?e\xaa`TR'\xed?K\xf0K\x04l\xf9\x13@"
p2346
tp2347
bsVc_obst6
p2348
g21
(g22
(I0
tp2349
g24
tp2350
Rp2351
(I1
(I4
tp2352
g248
I00
S"T\xa6\x0bc$)\x12@@\xb4a\x92p\x00\x9d\xbfe\xaa`TR'\xed?\x07\xa1'\xb8\x0c\xbf\x02@"
p2353
tp2354
bsVcup_b6af
p2355
g21
(g22
(I0
tp2356
g24
tp2357
Rp2358
(I1
(I4
tp2359
g248
I00
S'R\xb8\x1e\x85\xebQ\xe8?\x9a\x99\x99\x99\x99\x99\xe1?\x1b/\xdd$\x06\x81\xed?\x00\x00\x00\x00\x00\x00\x00\x00'
p2360
tp2361
bsVc_obst4
p2362
g21
(g22
(I0
tp2363
g24
tp2364
Rp2365
(I1
(I4
tp2366
g248
I00
S"\xb0\xfe\x97P\x8f4\x12@IQ\xaf\xde\x17.\xc6\xbfe\xaa`TR'\xed?\xddQze\x96I\x17@"
p2367
tp2368
bsVrectangular_packing_box2
p2369
g21
(g22
(I0
tp2370
g24
tp2371
Rp2372
(I1
(I4
tp2373
g248
I00
S'Z\xc8\x07\xc5\xec\xc6\x05@\xad,S\xb6l\xb8\x17\xc0L7\x89A`\xe5\xd8?\x0e\xe6\xe6#ZB\x16@'
p2374
tp2375
bsVplate_fa76
p2376
g21
(g22
(I0
tp2377
g24
tp2378
Rp2379
(I1
(I4
tp2380
g248
I00
S'=\n\xd7\xa3p=\xf2?\x00\x00\x00\x00\x00\x00\x00\x00\x1b/\xdd$\x06\x81\xed?\x00\x00\x00\x00\x00\x00\x00\x00'
p2381
tp2382
bsVfloorwalls
p2383
g21
(g22
(I0
tp2384
g24
tp2385
Rp2386
(I1
(I4
tp2387
g248
I00
S'\xc7\xcc\xcc\xcc\xcc\xcc\xfc?\x00\x00\x00\x00\x00\x00\x18\xc0H\xe1z\x14\xaeG\xc1?\x16-DT\xfb!\xf9?'
p2388
tp2389
bsVpin_c671
p2390
g21
(g22
(I0
tp2391
g24
tp2392
Rp2393
(I1
(I4
tp2394
g248
I00
S'\xc3\xf5(\\\x8f\xc2\xf1\xbf}?5^\xbaI\x02@\xb8\x1e\x85\xebQ\xb8\xfa?\x00\x00\x00\x00\x00\x00\x00\x00'
p2395
tp2396
bsVc_obst3
p2397
g21
(g22
(I0
tp2398
g24
tp2399
Rp2400
(I1
(I4
tp2401
g248
I00
S"\x08\x99eW\xae\x12\x12@h\xc3=\t\x14p\xba\xbfe\xaa`TR'\xed?jr\x98\x08\xae\xc3\xea?"
p2402
tp2403
bsVchair_2e39
p2404
g21
(g22
(I0
tp2405
g24
tp2406
Rp2407
(I1
(I4
tp2408
g248
I00
S'hfffff\xee?cfffff\xf2\xbf\x00\x00\x00\x00\x00\x00\x00\x00\x07M\xe8QQF\xf3?'
p2409
tp2410
bsVentrance_left
p2411
g21
(g22
(I0
tp2412
g24
tp2413
Rp2414
(I1
(I4
tp2415
g248
I00
S'\x98\x99\x99\x99\x99\x99\xe9\xbfH\xe1z\x14\xaeG\t\xc0\x9c\xc4 \xb0rh\xc1?\x00\x00\x00\x00\x00\x00\x00\x00'
p2416
tp2417
bsVtop_wall_1
p2418
g21
(g22
(I0
tp2419
g24
tp2420
Rp2421
(I1
(I4
tp2422
g248
I00
S'H\xe1z\x14\xaeG\x12@\x80\x14\xaeG\xe1z\xc4?xX\xa85\xcd\xbb\xf2?\x00\x00\x00\x00\x00\x00\x00\x00'
p2423
tp2424
bsVrectangular_packing_box3
p2425
g21
(g22
(I0
tp2426
g24
tp2427
Rp2428
(I1
(I4
tp2429
g248
I00
S'jNiI\x85t\xf1? 1\x1bK)>\x1c\xc0L7\x89A`\xe5\xd8?\xeer\xeeN\xc8\r\x15@'
p2430
tp2431
bsVshaker
p2432
g21
(g22
(I0
tp2433
g24
tp2434
Rp2435
(I1
(I4
tp2436
g248
I00
S'\n\xd7\xa3p=\n\x01@\x14\xaeG\xe1z\x14\x02@\\\x8f\xc2\xf5(\\\xef?\x00\x00\x00\x00\x00\x00\x00\x00'
p2437
tp2438
bsVc_obst9
p2439
g21
(g22
(I0
tp2440
g24
tp2441
Rp2442
(I1
(I4
tp2443
g248
I00
S"X\x01\x0cq\t\x1a\x12@q}\xb0\x8a\x90\xa4\xe0?e\xaa`TR'\xed?\xb6I\xec\xeb\xc5\xd7\x11@"
p2444
tp2445
bsVplate_835a
p2446
g21
(g22
(I0
tp2447
g24
tp2448
Rp2449
(I1
(I4
tp2450
g248
I00
S'\xf6(\\\x8f\xc2\xf5\xf0?\\\x8f\xc2\xf5(\\\xe7\xbf\x1b/\xdd$\x06\x81\xed?\x00\x00\x00\x00\x00\x00\x00\x00'
p2451
tp2452
bsVcup_58a2
p2453
g21
(g22
(I0
tp2454
g24
tp2455
Rp2456
(I1
(I4
tp2457
g248
I00
S'\x85\xebQ\xb8\x1e\x85\xe3?\xcd\xcc\xcc\xcc\xcc\xcc\xdc?\x1b/\xdd$\x06\x81\xed?\x00\x00\x00\x00\x00\x00\x00\x00'
p2458
tp2459
bsVleft_wall_1
p2460
g21
(g22
(I0
tp2461
g24
tp2462
Rp2463
(I1
(I4
tp2464
g248
I00
S'H\xe1z\x14\xaeG\x12@S\xb8\x1e\x85\xebQ\xe4?\xcc\x7fH\xbf}\x1d\xed?\x00\x00\x00\x00\x00\x00\x00\x00'
p2465
tp2466
bsVc_obst2
p2467
g21
(g22
(I0
tp2468
g24
tp2469
Rp2470
(I1
(I4
tp2471
g248
I00
S"I \xcb\xa69l\x12@\xbab\xc5\x1e\xc7\r\xd8?e\xaa`TR'\xed?\x96\x97\xc2\x85\xf7\xf0\xef?"
p2472
tp2473
bsVsquare_packing_box4
p2474
g21
(g22
(I0
tp2475
g24
tp2476
Rp2477
(I1
(I4
tp2478
g248
I00
S'|\xdc\x14\x03\xda\x99\x0c@\x8dNx%\x07\xc5\x15\xc0L7\x89A`\xe5\xd8?^\xf5?X^\x95\xf4?'
p2479
tp2480
bsVrectangular_packing_box1
p2481
g21
(g22
(I0
tp2482
g24
tp2483
Rp2484
(I1
(I4
tp2485
g248
I00
S'\x00\xcf\x89`\xa4p\xef?\xb7\xceiQ\x8b\x97\x1e\xc0L7\x89A`\xe5\xd8?udx\x15\x08E\x01@'
p2486
tp2487
bsVpin_371e
p2488
g21
(g22
(I0
tp2489
g24
tp2490
Rp2491
(I1
(I4
tp2492
g248
I00
S'333333\xf3\xbfffffff\xf6?\xb8\x1e\x85\xebQ\xb8\xee?\x00\x00\x00\x00\x00\x00\x00\x00'
p2493
tp2494
bsVfridge
p2495
g21
(g22
(I0
tp2496
g24
tp2497
Rp2498
(I1
(I4
tp2499
g248
I00
S'\xd7\xa3p=\n\xd7\xeb\xbf\x00\x00\x00\x00\x00\x00\x00\xc0\xcd\xcc\xcc\xcc\xcc\xcc\xf8?\x00\x00\x00\x00\x00\x00\x00\x00'
p2500
tp2501
bsVcup_d441
p2502
g21
(g22
(I0
tp2503
g24
tp2504
Rp2505
(I1
(I4
tp2506
g248
I00
S'\n\xd7\xa3p=\n\xef?\x8f\xc2\xf5(\\\x8f\xe2?\x1b/\xdd$\x06\x81\xed?\x00\x00\x00\x00\x00\x00\x00\x00'
p2507
tp2508
bsVshelf2
p2509
g21
(g22
(I0
tp2510
g24
tp2511
Rp2512
(I1
(I4
tp2513
g248
I00
S'\x00\x00\x00\x00\x00\x00\x0e@\xaeG\xe1z\x14\xae\x07@\x9c\xc4 \xb0rh\xc1?\xd2!3\x7f|\xd9\x12@'
p2514
tp2515
bsVtop_wall_2
p2516
g21
(g22
(I0
tp2517
g24
tp2518
Rp2519
(I1
(I4
tp2520
g248
I00
S'H\xe1z\x14\xaeG\x12@\x80\x14\xaeG\xe1z\xc4?\x16HP\xfc\x18\xf3\xfd?\x00\x00\x00\x00\x00\x00\x00\x00'
p2521
tp2522
bsVc_obst0
p2523
g21
(g22
(I0
tp2524
g24
tp2525
Rp2526
(I1
(I4
tp2527
g248
I00
S"\x02\xa4\xe7\xf1\xe6v\x12@S\xf8o\xa9\xa01\xc4\xbfe\xaa`TR'\xed?\xf9\x986M\xa2\xe5\x08@"
p2528
tp2529
bsVshelf1
p2530
g21
(g22
(I0
tp2531
g24
tp2532
Rp2533
(I1
(I4
tp2534
g248
I00
S'\x00\x00\x00\x00\x00\x00\x13@\xaeG\xe1z\x14\xae\x07@\x9c\xc4 \xb0rh\xc1?\xd2!3\x7f|\xd9\x12@'
p2535
tp2536
bsVsink
p2537
g21
(g22
(I0
tp2538
g24
tp2539
Rp2540
(I1
(I4
tp2541
g248
I00
S'ffffff\xd6?333333\x01@\x9a\x99\x99\x99\x99\x99\xb9\xbf\x00\x00\x00\x00\x00\x00\x00\x00'
p2542
tp2543
bsVpr2
p2544
g21
(g22
(I0
tp2545
g24
tp2546
Rp2547
(I1
(I4
tp2548
g248
I00
S'\xa4\xa0\xeb0i2\x06@D\x00\xc7z\xd2\xc6\x1e\xc0\x9a_\x94\xa0\xbf\xd0\xc1?n\xcbUg\x93o\xf5?'
p2549
tp2550
bsVchair_12d0
p2551
g21
(g22
(I0
tp2552
g24
tp2553
Rp2554
(I1
(I4
tp2555
g248
I00
S'\\\xd2\x18\xad\xa3\xaa\xdb?Of\x83L2r\xc6?\x00\x00\x00\x00\x00\x00\x00\x00\xf8\x81\r\x14M\xa6\x17@'
p2556
tp2557
bsVright_wall_2
p2558
g21
(g22
(I0
tp2559
g24
tp2560
Rp2561
(I1
(I4
tp2562
g248
I00
S'H\xe1z\x14\xaeG\x12@&\\\x8f\xc2\xf5(\xd4\xbfxX\xa85\xcd\xbb\xf2?\x00\x00\x00\x00\x00\x00\x00\x00'
p2563
tp2564
bsVknife_block
p2565
g21
(g22
(I0
tp2566
g24
tp2567
Rp2568
(I1
(I4
tp2569
g248
I00
S'R\xb8\x1e\x85\xebQ\xe0\xbfffffff\x02@`\xe5\xd0"\xdb\xf9\xee?\x00\x00\x00\x00\x00\x00\x00\x00'
p2570
tp2571
bsVleft_wall_2
p2572
g21
(g22
(I0
tp2573
g24
tp2574
Rp2575
(I1
(I4
tp2576
g248
I00
S'H\xe1z\x14\xaeG\x12@S\xb8\x1e\x85\xebQ\xe4?xX\xa85\xcd\xbb\xf2?\x00\x00\x00\x00\x00\x00\x00\x00'
p2577
tp2578
bsVleft_wall
p2579
g21
(g22
(I0
tp2580
g24
tp2581
Rp2582
(I1
(I4
tp2583
g248
I00
S'\x9a\x99\x99\x99\x99\x99\x07@H\xe1z\x14\xaeG\xff?\x9c\xc4 \xb0rh\xc1?\x00\x00\x00\x00\x00\x00\x00\x00'
p2584
tp2585
bsVkitchen
p2586
g21
(g22
(I0
tp2587
g24
tp2588
Rp2589
(I1
(I4
tp2590
g248
I00
S'\x00\x00\x00\x00\x00\x00\x00\x00\x00\x00\x00\x00\x00\x00\x00\x00\x00\x00\x00\x00\x00\x00\x00\x00\x00\x00\x00\x00\x00\x00\x00\x00'
p2591
tp2592
bsVtable2
p2593
g21
(g22
(I0
tp2594
g24
tp2595
Rp2596
(I1
(I4
tp2597
g248
I00
S'\x00\x00\x00\x00\x00\x00\x13@\x80\x14\xaeG\xe1z\xc4?S\x96!\x8euq\xec?\xd2!3\x7f|\xd9\x12@'
p2598
tp2599
bsVc_obst8
p2600
g21
(g22
(I0
tp2601
g24
tp2602
Rp2603
(I1
(I4
tp2604
g248
I00
S'\x1e\xf3\xa5,\x82\x82\x12@\xe8"b\xe0\xad\x07\xd4?e\xaa`TR\'\xed?\x80\xbfm\xc7\xdc\xcf\x07@'
p2605
tp2606
bsVplate_b4e7
p2607
g21
(g22
(I0
tp2608
g24
tp2609
Rp2610
(I1
(I4
tp2611
g248
I00
S'\x14\xaeG\xe1z\x14\xf2\xbf\x14\xaeG\xe1z\x14\x00@=\n\xd7\xa3p=\xf2?\x00\x00\x00\x00\x00\x00\x00\x00'
p2612
tp2613
bsVcooker
p2614
g21
(g22
(I0
tp2615
g24
tp2616
Rp2617
(I1
(I4
tp2618
g248
I00
S'\xaeG\xe1z\x14\xae\xff?\x85\xebQ\xb8\x1e\x85\xfb?\x00\x00\x00\x00\x00\x00\xe8?\x00\x00\x00\x00\x00\x00\x00\x00'
p2619
tp2620
bsVpin_a091
p2621
g21
(g22
(I0
tp2622
g24
tp2623
Rp2624
(I1
(I4
tp2625
g248
I00
S'\xdb\xf9~j\xbct\xf7\xbf)\\\x8f\xc2\xf5(\x02@\xb8\x1e\x85\xebQ\xb8\xfa?\x00\x00\x00\x00\x00\x00\x00\x00'
p2626
tp2627
bsVside_wall_2
p2628
g21
(g22
(I0
tp2629
g24
tp2630
Rp2631
(I1
(I4
tp2632
g248
I00
S'\xfa\xff\xff\xff\xff\xff\x14@\x00\x00\x00\x00\x00\x00\x00\x00\x9c\xc4 \xb0rh\xc1?\x18-DT\xfb!\xf9?'
p2633
tp2634
bsVside_wall_3
p2635
g21
(g22
(I0
tp2636
g24
tp2637
Rp2638
(I1
(I4
tp2639
g248
I00
S'\x00\x00\x00\x00\x00\x00\xfc?H\xe1z\x14\xaeG\t@\x9c\xc4 \xb0rh\xc1?\x00\x00\x00\x00\x00\x00\x00\x00'
p2640
tp2641
bsVmixer
p2642
g21
(g22
(I0
tp2643
g24
tp2644
Rp2645
(I1
(I4
tp2646
g248
I00
S'\n\xd7\xa3p=\n\xfb?ffffff\x02@d;\xdfO\x8d\x97\xee?\x00\x00\x00\x00\x00\x00\x00\x00'
p2647
tp2648
bsVside_wall_1
p2649
g21
(g22
(I0
tp2650
g24
tp2651
Rp2652
(I1
(I4
tp2653
g248
I00
S'\xf4\xff\xff\xff\xff\xff\xfb\xbf\x00\x00\x00\x00\x00\x00\x00\x00\x9c\xc4 \xb0rh\xc1?\x18-DT\xfb!\xf9?'
p2654
tp2655
bsVbottom_wall_1
p2656
g21
(g22
(I0
tp2657
g24
tp2658
Rp2659
(I1
(I4
tp2660
g248
I00
S'H\xe1z\x14\xaeG\x12@\x80\x14\xaeG\xe1z\xc4?\xcc\x7fH\xbf}\x1d\xed?\x00\x00\x00\x00\x00\x00\x00\x00'
p2661
tp2662
bsVcan
p2663
g21
(g22
(I0
tp2664
g24
tp2665
Rp2666
(I1
(I4
tp2667
g248
I00
S'\x00\x00\x00\x00\x00\x00\xf4\xbfH\xe1z\x14\xaeG\xe1\xbf\n\xd7\xa3p=\n\xef?\x00\x00\x00\x00\x00\x00\x00\x00'
p2668
tp2669
bsVright_wall
p2670
g21
(g22
(I0
tp2671
g24
tp2672
Rp2673
(I1
(I4
tp2674
g248
I00
S'\x9a\x99\x99\x99\x99\x99\x07@H\xe1z\x14\xaeG\xff\xbf\x9c\xc4 \xb0rh\xc1?\x00\x00\x00\x00\x00\x00\x00\x00'
p2675
tp2676
bsVcoffe_machine
p2677
g21
(g22
(I0
tp2678
g24
tp2679
Rp2680
(I1
(I4
tp2681
g248
I00
S'\\\x8f\xc2\xf5(\\\xf5\xbf\xb8\x1e\x85\xebQ\xb8\xee?\n\xd7\xa3p=\n\xef?\x00\x00\x00\x00\x00\x00\x00\x00'
p2682
tp2683
bsVcomputer_chair
p2684
g21
(g22
(I0
tp2685
g24
tp2686
Rp2687
(I1
(I4
tp2688
g248
I00
S'\xcd\xcc\xcc\xcc\xcc\xcc\x10@\x00\x00\x00\x00\x00\x00\xf8\xbf\xa00\xb6\x10\xe4\xa9\x95\xbf\x00\x00\x00\x00\x00\x00\x00\x00'
p2689
tp2690
bssS'robot_dof_values'
p2691
g21
(g22
(I0
tp2692
g24
tp2693
Rp2694
(I1
(I39
tp2695
g248
I00
S'\x00\x00\x00\x00\x00\x00\x00\x00\x00\x00\x00\x00\x00\x00\x00\x00\x00\x00\x00\x00\x00\x00\x00\x00\x00\x00\x00\x00\x00\x00\x00\x00\x00\x00\x00\x00\x00\x00\x00\x00\x00\x00\x00\x00\x00\x00\x00\x00\x00\x00\x00\x00\x00\x00\x00\x00\x00\x00\x00\x00\x00\x00\x00\x00\x00\x00\x00\x00\x00\x00\x00\x00\x00\x00\x00\x00\x00\x00\x00\x00\x00\x00\x00\x00\x00\x00\x00\x00\x00\x00\x00\x00\x00\x00\x00\x00@d;\xdfO\x8d\x87?\x00\x00\x00\x00\x00\x00\x00\x00\x00\x00\x00\x00\x00\x00\x00\x00\x00\x00\x00\x00\x00\x00\x00\x00\xec\xed\t\xf1\xcc\xa4\xf4?\x00\x00\x00\x00\x00\x00\x00\x00N"\xd0^p\xf8\x00\xc0\x00\x00\x00\x00\x00\x00\x00\x00\x9a\x03\r.\x04V\xe6\xbf\x00\x00\x00\x00\x00\x00\x00\x00\x00\x00\x00\x00\x00\x00\x00\x00\x00\x00\x00\x00\x00\x00\xcf\xbc\xd8l\xdf\xccv\xf8\xa0\xbc\x00\x00\x00\x00\x00\x00\xf8\xbc\x00\x00\x00\x00\x00\x00\x00\x00\x00\x00\x00\x00\x00\x00\x00\x00\xea\xed\t\xf1\xcc\xa4\xf4?\x00\x00\x00\x00\x00\x00\xc0\xbcN"\xd0^p\xf8\x00\xc09\xf2\xee\xcc\xd9\x1c\xaf<\xa2\x03\r.\x04V\xe6\xbf\x00\x00\x00\x00\x00\x00\x00\x00\xcd9\xe3\xc17\x89\xe1?\x00\x00\x00\x00\x00\xc0\xe7\xbc\xcd;\x7ff\x9e\xa0\xa6\xbc\x00\x00\x00\x00\x00\x00\xd0\xbc\x00\x00\x00\x00\x00\x00\x00\x00'
p2696
tp2697
bsS'is_holding'
p2698
I00
sbsS'holding_collides'
p2699
NsS'parent_ternary_predicates'
p2700
(dp2701
sS'cached_place_paths'
p2702
(dp2703
(g1021
g1400
tp2704
(lp2705
g21
(g22
(I0
tp2706
g24
tp2707
Rp2708
(I1
(I3
tp2709
g248
I00
S'\\\x7f\xc3%\xd4\xa1\xe8?s\xa3\x10L\xc5\xa0\x1b\xc0(\xc7\xab\x80&P\x14@'
p2710
tp2711
bas(g1228
g239
tp2712
g302
s(g778
g239
tp2713
g365
s(g12
g1400
tp2714
(lp2715
g21
(g22
(I0
tp2716
g24
tp2717
Rp2718
(I1
(I3
tp2719
g248
I00
S'H\xb3\x9e\xce\xc1\x0f\x02@\xe1\x1d7\xf6\x95\x11\x1b\xc0\x17\xc8\xd6\x86mI\x03@'
p2720
tp2721
bas(g778
g1400
tp2722
(lp2723
g21
(g22
(I0
tp2724
g24
tp2725
Rp2726
(I1
(I3
tp2727
g248
I00
S'@\\\xc3\x8es\x83\xa8?\xc0\n\xd3\x89"\x1e \xc0\x86=\xc6\x0c\xb0\\\x04@'
p2728
tp2729
bas(g12
g239
tp2730
g593
s(g1095
g1400
tp2731
(lp2732
g21
(g22
(I0
tp2733
g24
tp2734
Rp2735
(I1
(I3
tp2736
g248
I00
S'\xa5\x11\xd3m\xc9\x9e\x06@\xa8\xeb\xd9\xc2\xa0"\x19\xc0\xc8\xaar\xb7\x06=\x07@'
p2737
tp2738
bas(g1095
g239
tp2739
g491
s(g74
g239
tp2740
g428
s(g941
g239
tp2741
g241
s(g941
g1400
tp2742
(lp2743
g21
(g22
(I0
tp2744
g24
tp2745
Rp2746
(I1
(I3
tp2747
g248
I00
S'\xb3?\xa0\xf5\xfd\x7f\xe0?d\xc66\x80\xf9\x11\x1e\xc0JS\xf59\x81\xee\xdd?'
p2748
tp2749
bas(g1228
g1400
tp2750
(lp2751
g21
(g22
(I0
tp2752
g24
tp2753
Rp2754
(I1
(I3
tp2755
g248
I00
S"\x99\x16w\xc0\xa2\xef\x0b@\x8b\xd6X\xcc(q\x18\xc0\xed\x06\xcf\r\xdc'\xf3?"
p2756
tp2757
bas(g74
g1400
tp2758
(lp2759
g21
(g22
(I0
tp2760
g24
tp2761
Rp2762
(I1
(I3
tp2763
g248
I00
S'=r\xf0!-"\r@\xae\xad/;\xa5N\x1a\xc0t\x87\xde\xc3\xcc{\x03@'
p2764
tp2765
bas(g740
g1400
tp2766
(lp2767
g21
(g22
(I0
tp2768
g24
tp2769
Rp2770
(I1
(I3
tp2771
g248
I00
S'M\xd2\xc6\xcf\x15z\n@_\xbe\x12mR\xe3\x15\xc0L\x15_\x8f\xaf9\x11@'
p2772
tp2773
bas(g740
g239
tp2774
g650
s(g1021
g239
tp2775
g548
ssS'parent_binary_predicates'
p2776
(dp2777
sS'nodes'
p2778
(dp2779
g1403
(lp2780
I0
aI0
aI0
aI0
aI0
aI0
aI00
aI01
aI00
aI01
aI00
asg1400
(lp2781
I0
aI0
aI0
aI0
aI0
aI0
aI00
aI01
aI00
aI01
aI00
asg239
(lp2782
I0
aI0
aI0
aI0
aI0
aI0
aI00
aI01
aI01
aI01
aI00
asg363
(lp2783
I0
aI0
aI0
ag2097
(g248
S'\x98Ls\xa1\xeb\xb8\xd8\xbf'
p2784
tp2785
Rp2786
ag2097
(g248
S'\xa2\xd2*\xb3\xf7@\x1e\xc0'
p2787
tp2788
Rp2789
ag2097
(g248
S'\x96\xdd\x8b\xa1]m\x11@'
p2790
tp2791
Rp2792
aI01
aI00
aI00
aI00
aI00
asg648
(lp2793
I0
aI0
aI0
ag2097
(g248
S'\x1c\xc8\x07\xc5\xec\xc6\x05@'
p2794
tp2795
Rp2796
ag2097
(g248
S'\xbc,S\xb6l\xb8\x17\xc0'
p2797
tp2798
Rp2799
ag2097
(g248
S'\x0e\xe6\xe6#ZB\x16@'
p2800
tp2801
Rp2802
aI01
aI00
aI00
aI01
aI00
asg238
(lp2803
I0
aI0
aI0
ag2097
(g248
S'\x1cKiI\x85t\xf1?'
p2804
tp2805
Rp2806
ag2097
(g248
S'\xda0\x1bK)>\x1c\xc0'
p2807
tp2808
Rp2809
ag2097
(g248
S'\xecr\xeeN\xc8\r\x15@'
p2810
tp2811
Rp2812
aI01
aI00
aI00
aI00
aI00
asg546
(lp2813
I0
aI0
aI0
ag2097
(g248
S' \xcd\x89`\xa4p\xef?'
p2814
tp2815
Rp2816
ag2097
(g248
S'\xe0\xcciQ\x8b\x97\x1e\xc0'
p2817
tp2818
Rp2819
ag2097
(g248
S'udx\x15\x08E\x01@'
p2820
tp2821
Rp2822
aI01
aI00
aI00
aI00
aI00
asg489
(lp2823
I0
aI0
aI0
ag2097
(g248
S'\xf0\xe0\xf7\xaa\x93\xf6\x00@'
p2824
tp2825
Rp2826
ag2097
(g248
S'\xf4J\x1f\xc4\x19M\x17\xc0'
p2827
tp2828
Rp2829
ag2097
(g248
S'\xd4\\\xde}L}\xe8?'
p2830
tp2831
Rp2832
aI01
aI00
aI00
aI00
aI00
asg591
(lp2833
I0
aI0
aI0
ag2097
(g248
S'\xcc\xc3\x1d\x9ei\xc1\xfa?'
p2834
tp2835
Rp2836
ag2097
(g248
S'F\x17\xd5\xd1\xa7\xbc\x19\xc0'
p2837
tp2838
Rp2839
ag2097
(g248
S'\xdb\xa4m\xecZw\x10@'
p2840
tp2841
Rp2842
aI01
aI00
aI00
aI01
aI00
asg426
(lp2843
I0
aI0
aI0
ag2097
(g248
S'\xb0MK\x03\x8co\n@'
p2844
tp2845
Rp2846
ag2097
(g248
S'J|\xd1\xa9\r\xad\x17\xc0'
p2847
tp2848
Rp2849
ag2097
(g248
S'\xe2\r\xf5/O\xfc\x13@'
p2850
tp2851
Rp2852
aI01
aI00
aI01
aI01
aI00
asg300
(lp2853
I0
aI0
aI0
ag2097
(g248
S'\x06\xdf\x14\x03\xda\x99\x0c@'
p2854
tp2855
Rp2856
ag2097
(g248
S'\x84Px%\x07\xc5\x15\xc0'
p2857
tp2858
Rp2859
ag2097
(g248
S'^\xf5?X^\x95\xf4?'
p2860
tp2861
Rp2862
aI01
aI00
aI00
aI00
aI00
assS'mc_place_path'
p2863
(dp2864
sS'parent_state'
p2865
NsS'goal_entities'
p2866
(lp2867
S'square_packing_box1'
p2868
ag239
asS'binary_edges'
p2869
(dp2870
(g489
g300
tp2871
(lp2872
I00
aI00
aI00
as(g489
g363
tp2873
(lp2874
I00
aI00
aI00
as(g238
g591
tp2875
(lp2876
I00
aI00
aI00
as(g238
g238
tp2877
(lp2878
I00
aI00
aI00
as(g648
g591
tp2879
(lp2880
I00
aI00
aI00
as(g648
g238
tp2881
(lp2882
I00
aI00
aI00
as(g300
g648
tp2883
(lp2884
I00
aI00
aI00
as(g489
g426
tp2885
(lp2886
I00
aI00
aI00
as(g546
g238
tp2887
(lp2888
I00
aI01
aI00
as(g363
g363
tp2889
(lp2890
I00
aI00
aI00
as(g648
g1400
tp2891
(lp2892
g2097
(g28
(S'b1'
p2893
I0
I1
tp2894
Rp2895
(I3
S'|'
p2896
NNNI-1
I-1
I0
tp2897
bS'\x01'
p2898
tp2899
Rp2900
aI00
aI01
as(g1403
g1400
tp2901
(lp2902
I00
aI00
aI00
as(g363
g300
tp2903
(lp2904
I00
aI00
aI00
as(g1400
g300
tp2905
(lp2906
I00
aI00
aI00
as(g426
g239
tp2907
(lp2908
I00
aI00
aI00
as(g1403
g648
tp2909
(lp2910
I00
aI00
aI00
as(g648
g300
tp2911
(lp2912
I00
aI01
aI00
as(g238
g1403
tp2913
(lp2914
g2900
aI00
aI00
as(g489
g489
tp2915
(lp2916
I00
aI00
aI00
as(g1400
g489
tp2917
(lp2918
I00
aI00
aI00
as(g591
g648
tp2919
(lp2920
I00
aI00
aI00
as(g648
g239
tp2921
(lp2922
I00
aI00
aI00
as(g546
g591
tp2923
(lp2924
I00
aI00
aI00
as(g363
g546
tp2925
(lp2926
I00
aI00
aI00
as(g426
g426
tp2927
(lp2928
I00
aI00
aI00
as(g648
g1403
tp2929
(lp2930
g2900
aI00
aI00
as(g1400
g648
tp2931
(lp2932
I00
aI00
aI00
as(g1400
g591
tp2933
(lp2934
I00
aI00
aI00
as(g1400
g238
tp2935
(lp2936
I00
aI00
aI00
as(g591
g239
tp2937
(lp2938
I00
aI00
aI00
as(g300
g363
tp2939
(lp2940
I00
aI00
aI00
as(g546
g363
tp2941
(lp2942
I00
aI01
aI00
as(g591
g546
tp2943
(lp2944
I00
aI00
aI00
as(g1400
g363
tp2945
(lp2946
I00
aI00
aI00
as(g1403
g239
tp2947
(lp2948
I00
aI00
aI00
as(g426
g648
tp2949
(lp2950
I00
aI00
aI00
as(g363
g591
tp2951
(lp2952
I00
aI00
aI00
as(g1403
g591
tp2953
(lp2954
I00
aI00
aI00
as(g591
g1403
tp2955
(lp2956
g2900
aI00
aI00
as(g238
g489
tp2957
(lp2958
I00
aI00
aI00
as(g300
g426
tp2959
(lp2960
I00
aI00
aI00
as(g238
g648
tp2961
(lp2962
I00
aI00
aI00
as(g300
g239
tp2963
(lp2964
I00
aI00
aI00
as(g1403
g1403
tp2965
(lp2966
I00
aI00
aI00
as(g591
g363
tp2967
(lp2968
I00
aI00
aI00
as(g426
g489
tp2969
(lp2970
I00
aI00
aI00
as(g239
g426
tp2971
(lp2972
I00
aI00
aI00
as(g546
g1400
tp2973
(lp2974
g2900
aI00
aI01
as(g239
g546
tp2975
(lp2976
I00
aI00
aI00
as(g300
g238
tp2977
(lp2978
I00
aI00
aI00
as(g238
g426
tp2979
(lp2980
I00
aI00
aI00
as(g591
g1400
tp2981
(lp2982
g2900
aI00
aI01
as(g238
g546
tp2983
(lp2984
I00
aI01
aI00
as(g591
g591
tp2985
(lp2986
I00
aI00
aI00
as(g546
g648
tp2987
(lp2988
I00
aI00
aI00
as(g1400
g239
tp2989
(lp2990
I00
aI00
aI00
as(g239
g489
tp2991
(lp2992
I00
aI00
aI00
as(g363
g239
tp2993
(lp2994
I00
aI00
aI00
as(g1403
g546
tp2995
(lp2996
I00
aI00
aI00
as(g239
g300
tp2997
(lp2998
I00
aI00
aI00
as(g238
g300
tp2999
(lp3000
I00
aI00
aI00
as(g546
g1403
tp3001
(lp3002
g2900
aI00
aI00
as(g300
g1400
tp3003
(lp3004
g2900
aI00
aI01
as(g546
g489
tp3005
(lp3006
I00
aI00
aI00
as(g363
g648
tp3007
(lp3008
I00
aI00
aI00
as(g363
g1400
tp3009
(lp3010
g2900
aI00
aI01
as(g239
g238
tp3011
(lp3012
I00
aI00
aI00
as(g1403
g300
tp3013
(lp3014
I00
aI00
aI00
as(g1403
g363
tp3015
(lp3016
I00
aI00
aI00
as(g546
g239
tp3017
(lp3018
I00
aI00
aI00
as(g489
g546
tp3019
(lp3020
I00
aI00
aI00
as(g426
g546
tp3021
(lp3022
I00
aI00
aI00
as(g239
g591
tp3023
(lp3024
I00
aI00
aI00
as(g1400
g1400
tp3025
(lp3026
I00
aI00
aI00
as(g489
g238
tp3027
(lp3028
I00
aI00
aI00
as(g426
g591
tp3029
(lp3030
I00
aI00
aI00
as(g1400
g426
tp3031
(lp3032
I00
aI00
aI00
as(g648
g363
tp3033
(lp3034
I00
aI00
aI00
as(g1400
g546
tp3035
(lp3036
I00
aI00
aI00
as(g426
g1403
tp3037
(lp3038
g2900
aI00
aI00
as(g489
g648
tp3039
(lp3040
I00
aI00
aI00
as(g238
g239
tp3041
(lp3042
I00
aI00
aI00
as(g426
g363
tp3043
(lp3044
I00
aI00
aI00
as(g363
g426
tp3045
(lp3046
I00
aI00
aI00
as(g648
g426
tp3047
(lp3048
I00
aI00
aI00
as(g1403
g489
tp3049
(lp3050
I00
aI00
aI00
as(g648
g546
tp3051
(lp3052
I00
aI00
aI00
as(g591
g489
tp3053
(lp3054
I00
aI00
aI00
as(g489
g1400
tp3055
(lp3056
g2900
aI00
aI01
as(g546
g546
tp3057
(lp3058
I00
aI00
aI00
as(g300
g489
tp3059
(lp3060
I00
aI00
aI00
as(g426
g300
tp3061
(lp3062
I00
aI01
aI00
as(g648
g489
tp3063
(lp3064
I00
aI01
aI00
as(g648
g648
tp3065
(lp3066
I00
aI00
aI00
as(g300
g546
tp3067
(lp3068
I00
aI00
aI00
as(g489
g239
tp3069
(lp3070
I00
aI00
aI00
as(g591
g426
tp3071
(lp3072
I00
aI00
aI00
as(g238
g1400
tp3073
(lp3074
g2900
aI00
aI01
as(g239
g648
tp3075
(lp3076
I00
aI00
aI00
as(g546
g426
tp3077
(lp3078
I00
aI00
aI00
as(g363
g238
tp3079
(lp3080
I00
aI00
aI00
as(g239
g1400
tp3081
(lp3082
I00
aI00
aI00
as(g489
g591
tp3083
(lp3084
I00
aI00
aI00
as(g1403
g238
tp3085
(lp3086
I00
aI00
aI00
as(g489
g1403
tp3087
(lp3088
g2900
aI00
aI00
as(g591
g238
tp3089
(lp3090
I00
aI00
aI00
as(g239
g239
tp3091
(lp3092
I00
aI00
aI00
as(g546
g300
tp3093
(lp3094
I00
aI00
aI00
as(g363
g1403
tp3095
(lp3096
g2900
aI00
aI00
as(g300
g1403
tp3097
(lp3098
g2900
aI00
aI00
as(g239
g1403
tp3099
(lp3100
I00
aI00
aI00
as(g239
g363
tp3101
(lp3102
I00
aI00
aI00
as(g591
g300
tp3103
(lp3104
I00
aI00
aI00
as(g300
g591
tp3105
(lp3106
I00
aI00
aI00
as(g238
g363
tp3107
(lp3108
I00
aI01
aI00
as(g1400
g1403
tp3109
(lp3110
I00
aI00
aI00
as(g426
g238
tp3111
(lp3112
I00
aI00
aI00
as(g363
g489
tp3113
(lp3114
I00
aI00
aI00
as(g300
g300
tp3115
(lp3116
I00
aI00
aI00
as(g426
g1400
tp3117
(lp3118
g2900
aI00
aI01
as(g1403
g426
tp3119
(lp3120
I00
aI00
aI00
assg738
g739
sS'pick_in_way'
p3121
(itrajectory_representation.predicates.pick_in_way
PickInWay
p3122
(dp3123
g236
(dp3124
g363
g1969
sg648
g1994
sg238
g2013
sg546
g2038
sg489
g2057
sg591
g1180
sg426
g1209
sg300
g2076
ssg705
(dp3125
g363
(lp3126
Vrectangular_packing_box1
p3127
aVrectangular_packing_box3
p3128
asg648
(lp3129
sg238
(lp3130
Vrectangular_packing_box1
p3131
aVrectangular_packing_box3
p3132
asg546
(lp3133
Vrectangular_packing_box3
p3134
asg489
(lp3135
Vrectangular_packing_box2
p3136
asg591
(lp3137
sg426
(lp3138
sg300
(lp3139
Vsquare_packing_box1
p3140
aVrectangular_packing_box2
p3141
assg738
(lp3142
g648
ag591
ag1403
ag239
ag1400
ag426
ag1403
ag239
ag1400
ag1403
ag239
ag1400
ag1403
ag239
ag1400
ag1403
ag239
ag1400
ag1403
ag239
ag1400
ag1403
ag239
ag1400
ag1403
ag239
ag1400
asg741
g742
sg119
(dp3143
sg776
g777
sg1328
Nsg1334
g777
sg1331
(dp3144
sg1333
I8
sg1395
I01
sg1335
Nsg1336
(dp3145
(g489
g300
tp3146
I00
s(g489
g363
tp3147
I00
s(g238
g591
tp3148
I00
s(g238
g238
tp3149
I00
s(g648
g591
tp3150
I00
s(g648
g238
tp3151
I00
s(g300
g648
tp3152
I00
s(g489
g426
tp3153
I00
s(g546
g238
tp3154
I01
s(g363
g363
tp3155
I00
s(g648
g1400
tp3156
I00
s(g1403
g1400
tp3157
I00
s(g363
g300
tp3158
I00
s(g1400
g300
tp3159
I00
s(g426
g239
tp3160
I00
s(g1403
g648
tp3161
I00
s(g648
g300
tp3162
I01
s(g238
g1403
tp3163
I00
s(g489
g489
tp3164
I00
s(g1400
g489
tp3165
I00
s(g591
g648
tp3166
I00
s(g648
g239
tp3167
I00
s(g546
g591
tp3168
I00
s(g363
g546
tp3169
I00
s(g426
g426
tp3170
I00
s(g648
g1403
tp3171
I00
s(g1400
g648
tp3172
I00
s(g1400
g591
tp3173
I00
s(g1400
g238
tp3174
I00
s(g591
g239
tp3175
I00
s(g300
g363
tp3176
I00
s(g546
g363
tp3177
I01
s(g591
g546
tp3178
I00
s(g1400
g363
tp3179
I00
s(g1403
g239
tp3180
I00
s(g426
g648
tp3181
I00
s(g363
g591
tp3182
I00
s(g1403
g591
tp3183
I00
s(g591
g1403
tp3184
I00
s(g238
g489
tp3185
I00
s(g300
g426
tp3186
I00
s(g238
g648
tp3187
I00
s(g300
g239
tp3188
I00
s(g1403
g1403
tp3189
I00
s(g591
g363
tp3190
I00
s(g426
g489
tp3191
I00
s(g239
g426
tp3192
I00
s(g546
g1400
tp3193
I00
s(g239
g546
tp3194
I00
s(g300
g238
tp3195
I00
s(g238
g426
tp3196
I00
s(g591
g1400
tp3197
I00
s(g238
g546
tp3198
I01
s(g591
g591
tp3199
I00
s(g546
g648
tp3200
I00
s(g1400
g239
tp3201
I00
s(g239
g489
tp3202
I00
s(g363
g239
tp3203
I00
s(g1403
g546
tp3204
I00
s(g239
g300
tp3205
I00
s(g238
g300
tp3206
I00
s(g546
g1403
tp3207
I00
s(g300
g1400
tp3208
I00
s(g546
g489
tp3209
I00
s(g363
g648
tp3210
I00
s(g363
g1400
tp3211
I00
s(g239
g238
tp3212
I00
s(g1403
g300
tp3213
I00
s(g1403
g363
tp3214
I00
s(g546
g239
tp3215
I00
s(g489
g546
tp3216
I00
s(g426
g546
tp3217
I00
s(g239
g591
tp3218
I00
s(g1400
g1400
tp3219
I00
s(g489
g238
tp3220
I00
s(g426
g591
tp3221
I00
s(g1400
g426
tp3222
I00
s(g648
g363
tp3223
I00
s(g1400
g546
tp3224
I00
s(g426
g1403
tp3225
I00
s(g489
g648
tp3226
I00
s(g238
g239
tp3227
I00
s(g426
g363
tp3228
I00
s(g363
g426
tp3229
I00
s(g648
g426
tp3230
I00
s(g1403
g489
tp3231
I00
s(g648
g546
tp3232
I00
s(g591
g489
tp3233
I00
s(g489
g1400
tp3234
I00
s(g546
g546
tp3235
I00
s(g300
g489
tp3236
I00
s(g426
g300
tp3237
I01
s(g648
g489
tp3238
I01
s(g648
g648
tp3239
I00
s(g300
g546
tp3240
I00
s(g489
g239
tp3241
I00
s(g591
g426
tp3242
I00
s(g238
g1400
tp3243
I00
s(g239
g648
tp3244
I00
s(g546
g426
tp3245
I00
s(g363
g238
tp3246
I00
s(g239
g1400
tp3247
I00
s(g489
g591
tp3248
I00
s(g1403
g238
tp3249
I00
s(g489
g1403
tp3250
I00
s(g591
g238
tp3251
I00
s(g239
g239
tp3252
I00
s(g546
g300
tp3253
I00
s(g363
g1403
tp3254
I00
s(g300
g1403
tp3255
I00
s(g239
g1403
tp3256
I00
s(g239
g363
tp3257
I00
s(g591
g300
tp3258
I00
s(g300
g591
tp3259
I00
s(g238
g363
tp3260
I01
s(g1400
g1403
tp3261
I00
s(g426
g238
tp3262
I00
s(g363
g489
tp3263
I00
s(g300
g300
tp3264
I00
s(g426
g1400
tp3265
I00
s(g1403
g426
tp3266
I00
ssg1394
NsbsS'robot_pose'
p3267
g21
(g22
(I0
tp3268
g24
tp3269
Rp3270
(I1
(I1
I3
tp3271
g248
I00
S'\xa4\xa0\xeb0i2\x06@D\x00\xc7z\xd2\xc6\x1e\xc0n\xcbUg\x93o\xf5?'
p3272
tp3273
bsS'is_holding_goal_entity'
p3274
(itrajectory_representation.predicates.is_holding_goal_entity
IsHoldingGoalEntity
p3275
(dp3276
g2866
g2867
sg1335
NsbsS'mc_pick_path'
p3277
(dp3278
sS'current_collides'
p3279
g742
sba(itrajectory_representation.shortest_path_pick_and_place_state
ShortestPathPaPState
p3280
(dp3281
g119
(dp3282
g155
(itrajectory_representation.operator
Operator
p3283
(dp3284
g8
I01
sg9
(dp3285
g126
g76
sg11
g154
ssg16
g127
sg18
(dp3286
g20
g21
(g22
(I0
tp3287
g24
tp3288
Rp3289
(I1
(I3
tp3290
g31
I00
S'\xd9\xab$\x86\xf3\xcb\xf9?\x1c\xce\xf8\xe5\xfe\xdb\x02\xc0\x9f\xf3\xa6\xf2\x94\x9f\xff?'
p3291
tp3292
bssg46
(lp3293
g21
(g22
(I0
tp3294
g24
tp3295
Rp3296
(I1
(I3
tp3297
g31
I00
S'6r\xf0!-"\r@\xa2\xad/;\xa5N\x1a\xc0r\x87\xde\xc3\xcc{\x03@'
p3298
tp3299
bag21
(g22
(I0
tp3300
g24
tp3301
Rp3302
(I1
(I3
tp3303
g60
I00
S'py\xe7\x92\x10\x1c\x08@_z\xb4M\xdc\xbc\x1b\xc0\xe2\x81s\x12\x81\x12\x08\xc0'
p3304
tp3305
bag21
(g22
(I0
tp3306
g24
tp3307
Rp3308
(I1
(I3
tp3309
g60
I00
S'\xc2Fo\n7\x11\x03@\xb6=Ya.\xe0\x1a\xc0,\x0b\x04&"Y\x07\xc0'
p3310
tp3311
bag21
(g22
(I0
tp3312
g24
tp3313
Rp3314
(I1
(I3
tp3315
g60
I00
S'\x05\x83iK\x01\x86\xfb?\x162zB{\xdc\x1a\xc0T\xd8\x04\x17\xd4b\xea\xbf'
p3316
tp3317
bag21
(g22
(I0
tp3318
g24
tp3319
Rp3320
(I1
(I3
tp3321
g60
I00
S'3\x82\x8a\x8fh\xb2\xf8?\xecMw\xff=$\x19\xc0\x10\x03\x08*\x90Q\x89?'
p3322
tp3323
bag21
(g22
(I0
tp3324
g24
tp3325
Rp3326
(I1
(I3
tp3327
g60
I00
S'N\xcd\xaa\x1e;\x0f\xee?&\xa8j\x7f\xa2\xe5\x17\xc0\xc1rR\xf6\xd1Y\xe0\xbf'
p3328
tp3329
bag21
(g22
(I0
tp3330
g24
tp3331
Rp3332
(I1
(I3
tp3333
g60
I00
S'tx\x8as\xa8b\xed?\x9ej\x15\xfa\xf0{\x15\xc0@\xed\x9a-\x9eD\xf2\xbf'
p3334
tp3335
bag21
(g22
(I0
tp3336
g24
tp3337
Rp3338
(I1
(I3
tp3339
g60
I00
S'\xb0E\xbb;Cb\xeb?\x9e\xde\xa7\xdd\xbdd\x12\xc0\xc6\xee\xbd\x16\x8c\xaa\xf3\xbf'
p3340
tp3341
bag21
(g22
(I0
tp3342
g24
tp3343
Rp3344
(I1
(I3
tp3345
g60
I00
S'\xec\x12\xec\x03\xdea\xe9?<\xa5t\x82\x15\x9b\x0e\xc0L\xf0\xe0\xffy\x10\xf5\xbf'
p3346
tp3347
bag21
(g22
(I0
tp3348
g24
tp3349
Rp3350
(I1
(I3
tp3351
g60
I00
S'(\xe0\x1c\xccxa\xe7?<\x8d\x99I\xafl\x08\xc0\xd2\xf1\x03\xe9gv\xf6\xbf'
p3352
tp3353
bag21
(g22
(I0
tp3354
g24
tp3355
Rp3356
(I1
(I3
tp3357
g60
I00
S'\xf4\xfdJ\x1a(#\xec?H"\x9cD\x1aE\x05\xc0.\xa9\x0b\x87\xf8\xe1\x02@'
p3358
tp3359
bag3289
ag3289
asbssg233
(itrajectory_representation.predicates.place_in_way
PlaceInWay
p3360
(dp3361
g236
(dp3362
(g238
g239
tp3363
(lp3364
g21
(g22
(I0
tp3365
g24
tp3366
Rp3367
(I1
(I3
tp3368
g248
I00
S'\xaf?\xa0\xf5\xfd\x7f\xe0?i\xc66\x80\xf9\x11\x1e\xc0BS\xf59\x81\xee\xdd?'
p3369
tp3370
bag21
(g22
(I0
tp3371
g24
tp3372
Rp3373
(I1
(I3
tp3374
g259
I00
S'X\x9b\x8c[e\xe8\xdb?\xdc\xc11jk\x8b\x1b\xc0\xfe\x18\xeb6\xf7\x88\xc3?'
p3375
tp3376
bag21
(g22
(I0
tp3377
g24
tp3378
Rp3379
(I1
(I3
tp3380
g259
I00
S'T]\x0c\x0e\xd89\xda?\xf4\x992\x11%\\\x18\xc0\x95\x7f\x10B\xb1)\xe3?'
p3381
tp3382
bag21
(g22
(I0
tp3383
g24
tp3384
Rp3385
(I1
(I3
tp3386
g259
I00
S'\xe4\x02R\xd9\x08\x8c\xc7?2\xc1\xd4;\xf6\xf3\x15\xc0>\x8c\x8fa?0\xd8?'
p3387
tp3388
bag21
(g22
(I0
tp3389
g24
tp3390
Rp3391
(I1
(I3
tp3392
g259
I00
S'\xcc\x87!\x1f\xfb\x05\xe6?\x14;\x08\xf1<\xc6\x13\xc0V!\xac1j\x94\xc8?'
p3393
tp3394
bag21
(g22
(I0
tp3395
g24
tp3396
Rp3397
(I1
(I3
tp3398
g259
I00
S'`\xc8Aw-\x81\xeb?/\xc3\xe6O\x04\xca\x10\xc0\x8a\xb7K)\x91{\xe4\xbf'
p3399
tp3400
bag21
(g22
(I0
tp3401
g24
tp3402
Rp3403
(I1
(I3
tp3404
g259
I00
S'\xe1\xc6\xc7\xa7\x12X\xe7?\x98\x99\xb0\x9a\xfb\xdb\x0b\xc0R\t\x1b)\xeae\xe0\xbf'
p3405
tp3406
bag21
(g22
(I0
tp3407
g24
tp3408
Rp3409
(I1
(I3
tp3410
g259
I00
S'p\xf1\xbdc^\x84\xf1?"\x88LL\xf9D\x06\xc0~w\r\xe9m\x0f\x19@'
p3411
tp3412
bas(g300
g239
tp3413
(lp3414
g21
(g22
(I0
tp3415
g24
tp3416
Rp3417
(I1
(I3
tp3418
g248
I00
S"\x96\x16w\xc0\xa2\xef\x0b@\x8d\xd6X\xcc(q\x18\xc0\xed\x06\xcf\r\xdc'\xf3?"
p3419
tp3420
bag21
(g22
(I0
tp3421
g24
tp3422
Rp3423
(I1
(I3
tp3424
g259
I00
S'\xf0\xc9\xfbt\r)\x06@W\xcf\xbd\x98LA\x17\xc0\x12{h\xe4\xea2\xf8?'
p3425
tp3426
bag21
(g22
(I0
tp3427
g24
tp3428
Rp3429
(I1
(I3
tp3430
g259
I00
S'v\x9f}*\xb2\x19\x02@\x02_\xf4PZ7\x16\xc0\xa8G\xd0\x03\xa3 \x01@'
p3431
tp3432
bag21
(g22
(I0
tp3433
g24
tp3434
Rp3435
(I1
(I3
tp3436
g259
I00
S'\xc2:\x1b=\xad,\xfa?(\x190\xa5<\xab\x16\xc0\x9d\x91\xdc8Kq\x01@'
p3437
tp3438
bag21
(g22
(I0
tp3439
g24
tp3440
Rp3441
(I1
(I3
tp3442
g259
I00
S'o\xd6\x82\xea\x7f\xb2\xed?9\xf2C\x0b?\xfd\x16\xc0(?d\xe9@\xb5\x02@'
p3443
tp3444
bag21
(g22
(I0
tp3445
g24
tp3446
Rp3447
(I1
(I3
tp3448
g259
I00
S'&>c9\x01,\xeb?\xb2\xc2\xf0\x02\xce\x8e\x14\xc0\xd8p\xbb2\x14\xd2\x03@'
p3449
tp3450
bag21
(g22
(I0
tp3451
g24
tp3452
Rp3453
(I1
(I3
tp3454
g259
I00
S'\xc6\x05\xbdtg\xd9\xe2?F\xdf\x9d@\\\xf3\x11\xc0\x1a\xc4.\xbb\xcc\x12\x02@'
p3455
tp3456
bag21
(g22
(I0
tp3457
g24
tp3458
Rp3459
(I1
(I3
tp3460
g259
I00
S'3z\xed\x8eN)\xe4?\x0c\x96\xd4\xa2\x0e\xd0\r\xc0\xbd%\xf5{\xe9\xf9\x03@'
p3461
tp3462
bag21
(g22
(I0
tp3463
g24
tp3464
Rp3465
(I1
(I3
tp3466
g259
I00
S'\xaf0\xe9h\xba~\xee?k\xbb\xd8\xd4\xd0g\t\xc09\x9ey\xed\xb06\x06@'
p3467
tp3468
bag21
(g22
(I0
tp3469
g24
tp3470
Rp3471
(I1
(I3
tp3472
g259
I00
S'\xf4\xfdJ\x1a(#\xec?H"\x9cD\x1aE\x05\xc0.\xa9\x0b\x87\xf8\xe1\x02@'
p3473
tp3474
bas(g363
g239
tp3475
(lp3476
g21
(g22
(I0
tp3477
g24
tp3478
Rp3479
(I1
(I3
tp3480
g248
I00
S'\x00[\xc3\x8es\x83\xa8?\xbe\n\xd3\x89"\x1e \xc0\x86=\xc6\x0c\xb0\\\x04@'
p3481
tp3482
bag21
(g22
(I0
tp3483
g24
tp3484
Rp3485
(I1
(I3
tp3486
g259
I00
S'\xdb\xee8\xd0\xa2\xfd\xc5?\xb2\x0e(\xac\xe3\xcd\x1d\xc0a\xbax\xf1*\x16\x01@'
p3487
tp3488
bag21
(g22
(I0
tp3489
g24
tp3490
Rp3491
(I1
(I3
tp3492
g259
I00
S"f'\x1d)\\\x10\xe6?I\x87\x7f\xab\xf9\x9f\x1b\xc0\x90\xd8HX\xe5\x0e\x04@"
p3493
tp3494
bag21
(g22
(I0
tp3495
g24
tp3496
Rp3497
(I1
(I3
tp3498
g259
I00
S'\xae\xea\x9e\xa3\xa2\xb1\xed?\xa4\xca\x1d?h\x96\x19\xc0dq\xdf\xb1\x9d\xe4\x05@'
p3499
tp3500
bag21
(g22
(I0
tp3501
g24
tp3502
Rp3503
(I1
(I3
tp3504
g259
I00
S'o\xd6\x82\xea\x7f\xb2\xed?9\xf2C\x0b?\xfd\x16\xc0(?d\xe9@\xb5\x02@'
p3505
tp3506
bag21
(g22
(I0
tp3507
g24
tp3508
Rp3509
(I1
(I3
tp3510
g259
I00
S'&>c9\x01,\xeb?\xb2\xc2\xf0\x02\xce\x8e\x14\xc0\xd8p\xbb2\x14\xd2\x03@'
p3511
tp3512
bag21
(g22
(I0
tp3513
g24
tp3514
Rp3515
(I1
(I3
tp3516
g259
I00
S'\xc6\x05\xbdtg\xd9\xe2?F\xdf\x9d@\\\xf3\x11\xc0\x1a\xc4.\xbb\xcc\x12\x02@'
p3517
tp3518
bag21
(g22
(I0
tp3519
g24
tp3520
Rp3521
(I1
(I3
tp3522
g259
I00
S'3z\xed\x8eN)\xe4?\x0c\x96\xd4\xa2\x0e\xd0\r\xc0\xbd%\xf5{\xe9\xf9\x03@'
p3523
tp3524
bag21
(g22
(I0
tp3525
g24
tp3526
Rp3527
(I1
(I3
tp3528
g259
I00
S'\xaf0\xe9h\xba~\xee?k\xbb\xd8\xd4\xd0g\t\xc09\x9ey\xed\xb06\x06@'
p3529
tp3530
bag21
(g22
(I0
tp3531
g24
tp3532
Rp3533
(I1
(I3
tp3534
g259
I00
S'\xf4\xfdJ\x1a(#\xec?H"\x9cD\x1aE\x05\xc0.\xa9\x0b\x87\xf8\xe1\x02@'
p3535
tp3536
bas(g489
g239
tp3537
(lp3538
g21
(g22
(I0
tp3539
g24
tp3540
Rp3541
(I1
(I3
tp3542
g248
I00
S'\xa8\x11\xd3m\xc9\x9e\x06@\xae\xeb\xd9\xc2\xa0"\x19\xc0\xc8\xaar\xb7\x06=\x07@'
p3543
tp3544
bag21
(g22
(I0
tp3545
g24
tp3546
Rp3547
(I1
(I3
tp3548
g259
I00
S'\xf60LV\xe8\x96\x00@\x9aEw{a\xe2\x18\xc0^\xa8\x8a,\xa3\x98\x00@'
p3549
tp3550
bag21
(g22
(I0
tp3551
g24
tp3552
Rp3553
(I1
(I3
tp3554
g259
I00
S'{\xe7\xcc\xce\x02,\xf5?\xeb\x85\xf2\xb4\xc9\x08\x19\xc0\xcd\x97\xf6\xcc\xe4z\x00@'
p3555
tp3556
bag21
(g22
(I0
tp3557
g24
tp3558
Rp3559
(I1
(I3
tp3560
g259
I00
S'o\xd6\x82\xea\x7f\xb2\xed?9\xf2C\x0b?\xfd\x16\xc0(?d\xe9@\xb5\x02@'
p3561
tp3562
bag21
(g22
(I0
tp3563
g24
tp3564
Rp3565
(I1
(I3
tp3566
g259
I00
S'm\xd5h\x072\x03\xea?\xdf\xe5\xe82\xd3\x17\x14\xc0\x08\x9e\xe1\xfbO\x94\x08@'
p3567
tp3568
bag21
(g22
(I0
tp3569
g24
tp3570
Rp3571
(I1
(I3
tp3572
g259
I00
S'\xc6\x05\xbdtg\xd9\xe2?F\xdf\x9d@\\\xf3\x11\xc0\x1a\xc4.\xbb\xcc\x12\x02@'
p3573
tp3574
bag21
(g22
(I0
tp3575
g24
tp3576
Rp3577
(I1
(I3
tp3578
g259
I00
S'3z\xed\x8eN)\xe4?\x0c\x96\xd4\xa2\x0e\xd0\r\xc0\xbd%\xf5{\xe9\xf9\x03@'
p3579
tp3580
bag21
(g22
(I0
tp3581
g24
tp3582
Rp3583
(I1
(I3
tp3584
g259
I00
S'\xaf0\xe9h\xba~\xee?k\xbb\xd8\xd4\xd0g\t\xc09\x9ey\xed\xb06\x06@'
p3585
tp3586
bag21
(g22
(I0
tp3587
g24
tp3588
Rp3589
(I1
(I3
tp3590
g259
I00
S'\xf4\xfdJ\x1a(#\xec?H"\x9cD\x1aE\x05\xc0.\xa9\x0b\x87\xf8\xe1\x02@'
p3591
tp3592
bas(g546
g239
tp3593
(lp3594
g21
(g22
(I0
tp3595
g24
tp3596
Rp3597
(I1
(I3
tp3598
g248
I00
S'`\x7f\xc3%\xd4\xa1\xe8?t\xa3\x10L\xc5\xa0\x1b\xc0(\xc7\xab\x80&P\x14@'
p3599
tp3600
bag21
(g22
(I0
tp3601
g24
tp3602
Rp3603
(I1
(I3
tp3604
g259
I00
S"\xc6'8AN\xb0\xec?\xe0\x975>\x0f\x03\x19\xc0(\xe0e;\x85\x89\x05\xc0"
p3605
tp3606
bag21
(g22
(I0
tp3607
g24
tp3608
Rp3609
(I1
(I3
tp3610
g259
I00
S'\xd0\xcb\x13\x8f\xaa\x9d\xed?\x90\x01<]3\x06\x16\xc0F\xf1\xe7x32\x02\xc0'
p3611
tp3612
bag21
(g22
(I0
tp3613
g24
tp3614
Rp3615
(I1
(I3
tp3616
g259
I00
S'l[\xc4\x16<\xe6\xe9?\xa6\xa0\x90\x84X\x9f\x13\xc0\xc2\xd74Q\x00\xaf\xff\xbf'
p3617
tp3618
bag21
(g22
(I0
tp3619
g24
tp3620
Rp3621
(I1
(I3
tp3622
g259
I00
S"\xaeJ\xbd\x1936\xec?\x04\x13\xd4'\x9f\x88\x10\xc0\x805qo\xb6\xe6\xff\xbf"
p3623
tp3624
bag21
(g22
(I0
tp3625
g24
tp3626
Rp3627
(I1
(I3
tp3628
g259
I00
S'\xf09\xb6\x1c*\x86\xee?\xc4\n/\x96\xcb\xe3\n\xc0\xa0\xc9\xd6F6\x0f\x00\xc0'
p3629
tp3630
bag21
(g22
(I0
tp3631
g24
tp3632
Rp3633
(I1
(I3
tp3634
g259
I00
S'3\xe9\xaf\x05T\x89\xe7?+~\xcb\xd3\x15\xc7\x04\xc0x6(d5\xed\x07@'
p3635
tp3636
bas(g648
g239
tp3637
(lp3638
g21
(g22
(I0
tp3639
g24
tp3640
Rp3641
(I1
(I3
tp3642
g248
I00
S'J\xd2\xc6\xcf\x15z\n@b\xbe\x12mR\xe3\x15\xc0K\x15_\x8f\xaf9\x11@'
p3643
tp3644
bag21
(g22
(I0
tp3645
g24
tp3646
Rp3647
(I1
(I3
tp3648
g259
I00
S'nv\xf9k\xe2Y\x05@\xbf\xa3\xf80pj\x16\xc0\x85\x14\xd6\xdd\x83\x18\x04\xc0'
p3649
tp3650
bag21
(g22
(I0
tp3651
g24
tp3652
Rp3653
(I1
(I3
tp3654
g259
I00
S'_\x1fd\x97D>\x00@W\xf2\x9b\xb2\x92\xd8\x15\xc0\x99\xbc\xd43\xf6\xfa\x08\xc0'
p3655
tp3656
bag21
(g22
(I0
tp3657
g24
tp3658
Rp3659
(I1
(I3
tp3660
g259
I00
S'R\x12);\xaf\xa5\xf7?\xf3\xf9\xeb\x07c\xef\x15\xc0\xf0V^\xd6\x94\x96\x05\xc0'
p3661
tp3662
bag21
(g22
(I0
tp3663
g24
tp3664
Rp3665
(I1
(I3
tp3666
g259
I00
S'\xd0\xcb\x13\x8f\xaa\x9d\xed?\x90\x01<]3\x06\x16\xc0F\xf1\xe7x32\x02\xc0'
p3667
tp3668
bag21
(g22
(I0
tp3669
g24
tp3670
Rp3671
(I1
(I3
tp3672
g259
I00
S'l[\xc4\x16<\xe6\xe9?\xa6\xa0\x90\x84X\x9f\x13\xc0\xc2\xd74Q\x00\xaf\xff\xbf'
p3673
tp3674
bag21
(g22
(I0
tp3675
g24
tp3676
Rp3677
(I1
(I3
tp3678
g259
I00
S"\xaeJ\xbd\x1936\xec?\x04\x13\xd4'\x9f\x88\x10\xc0\x805qo\xb6\xe6\xff\xbf"
p3679
tp3680
bag21
(g22
(I0
tp3681
g24
tp3682
Rp3683
(I1
(I3
tp3684
g259
I00
S'\xf09\xb6\x1c*\x86\xee?\xc4\n/\x96\xcb\xe3\n\xc0\xa0\xc9\xd6F6\x0f\x00\xc0'
p3685
tp3686
bag21
(g22
(I0
tp3687
g24
tp3688
Rp3689
(I1
(I3
tp3690
g259
I00
S'3\xe9\xaf\x05T\x89\xe7?+~\xcb\xd3\x15\xc7\x04\xc0x6(d5\xed\x07@'
p3691
tp3692
bassg705
(dp3693
(g238
g239
tp3694
(lp3695
Vrectangular_packing_box1
p3696
as(g300
g239
tp3697
(lp3698
Vsquare_packing_box1
p3699
aVrectangular_packing_box2
p3700
aVsquare_packing_box2
p3701
as(g363
g239
tp3702
(lp3703
Vrectangular_packing_box3
p3704
as(g489
g239
tp3705
(lp3706
Vsquare_packing_box1
p3707
aVrectangular_packing_box2
p3708
as(g546
g239
tp3709
(lp3710
Vrectangular_packing_box3
p3711
as(g648
g239
tp3712
(lp3713
Vsquare_packing_box1
p3714
aVsquare_packing_box4
p3715
aVsquare_packing_box2
p3716
assg738
(lp3717
Vrectangular_packing_box4
p3718
aVrectangular_packing_box2
p3719
aVsquare_packing_box2
p3720
aVsquare_packing_box3
p3721
ag74
asg741
(dp3722
Vrectangular_packing_box4
p3723
g747
sVrectangular_packing_box2
p3724
g751
sVrectangular_packing_box3
p3725
g755
sVrectangular_packing_box1
p3726
g759
sVsquare_packing_box2
p3727
g763
sVsquare_packing_box3
p3728
g744
((lp3729
I513
aI386
aI515
aI68
aI613
aI552
aI111
aI112
aI337
aI286
aI339
aI340
aI117
aI118
aI375
aI440
aI260
aI572
aI573
aI254
atp3730
Rp3731
sVsquare_packing_box1
p3732
g771
sVsquare_packing_box4
p3733
g775
ssg119
g3282
sg776
(dp3734
g3718
g779
sg3719
g862
sVrectangular_packing_box3
p3735
g942
sVrectangular_packing_box1
p3736
g1022
sg3720
g1096
sg3721
(itrajectory_representation.operator
Operator
p3737
(dp3738
g8
I01
sg9
(dp3739
g782
Vsquare_packing_box3
p3740
ssg16
g784
sg18
(dp3741
g786
(lp3742
g21
(g22
(I0
tp3743
g24
tp3744
Rp3745
(I1
(I3
tp3746
g248
I00
S'\xa74Q\xb5!B\x06@/\x89\x8e\xd3\xcb\x1a\x1d\xc0\x01\x17tx\xc1\xff\xf5\xbf'
p3747
tp3748
bag21
(g22
(I0
tp3749
g24
tp3750
Rp3751
(I1
(I3
tp3752
g248
I00
S'2A\ns\x84\xf5\x0b@\x18\xdc\x0e\xd5\x88\xe9\x1d\xc0\x19\x07\xb3\x97\xcb\xa9\x03\xc0'
p3753
tp3754
bag21
(g22
(I0
tp3755
g24
tp3756
Rp3757
(I1
(I3
tp3758
g248
I00
S'\x81\xd0b\xd3\xa5\xe1\x07@\xc4\xf4\xf0z\xca\x84\x1c\xc0\xf07j\xd5\xb7{\xf4\xbf'
p3759
tp3760
basg806
I00
ssg46
(lp3761
g21
(g22
(I0
tp3762
g24
tp3763
Rp3764
(I1
(I3
tp3765
g248
I00
S'\xd0\xab$\x86\xf3\xcb\xf9?\x12\xce\xf8\xe5\xfe\xdb\x02\xc0\xac\xf3\xa6\xf2\x94\x9f\xff?'
p3766
tp3767
bag21
(g22
(I0
tp3768
g24
tp3769
Rp3770
(I1
(I3
tp3771
g259
I00
S'\xf4\xfdJ\x1a(#\xec?H"\x9cD\x1aE\x05\xc0.\xa9\x0b\x87\xf8\xe1\x02@'
p3772
tp3773
bag21
(g22
(I0
tp3774
g24
tp3775
Rp3776
(I1
(I3
tp3777
g259
I00
S'\x06\x11,\xef\x98O\xe7??\x10\x01s=b\t\xc04\x92\xb79o\x8c\x00@'
p3778
tp3779
bag21
(g22
(I0
tp3780
g24
tp3781
Rp3782
(I1
(I3
tp3783
g259
I00
S'\xe4u**\x0e5\xe9?\xaa\xfd\r\xed\xc4\xf6\r\xc0\x0fDE0\x1f\x0b\xfe?'
p3784
tp3785
bag21
(g22
(I0
tp3786
g24
tp3787
Rp3788
(I1
(I3
tp3789
g259
I00
S'\xc2\xda(e\x83\x1a\xeb?\x8au\x8d3\xa6E\x11\xc0\xb4c\x1b\xed_\xfd\xfa?'
p3790
tp3791
bag21
(g22
(I0
tp3792
g24
tp3793
Rp3794
(I1
(I3
tp3795
g259
I00
S'v\xb8^\x85\xa7[\xea?x\xbe\xff2t\x8d\x13\xc0\x88\x85\x8cCyH\xf6?'
p3796
tp3797
bag21
(g22
(I0
tp3798
g24
tp3799
Rp3800
(I1
(I3
tp3801
g259
I00
S'\x85\\2\xba\x0b5\xf5?I\r\x06\xd10\xfb\x15\xc0\x9e\x11\xee\xd8\xb9\xd7\xf5?'
p3802
tp3803
bag21
(g22
(I0
tp3804
g24
tp3805
Rp3806
(I1
(I3
tp3807
g259
I00
S'j\xc7\xc0&\x8ag\xf6?h\x9cH4\x7f\xab\x18\xc0\xd8|\x1d\xfc\xcbV\xf2?'
p3808
tp3809
bag21
(g22
(I0
tp3810
g24
tp3811
Rp3812
(I1
(I3
tp3813
g259
I00
S'JyH\x8ez\xd6\xfa?\xb3\xf7h\x83\xea\xba\x1a\xc0u\xf9Uf\xb7m\xe0?'
p3814
tp3815
bag21
(g22
(I0
tp3816
g24
tp3817
Rp3818
(I1
(I3
tp3819
g259
I00
S'd"x~\xf6\x99\x00@\xe4\xfe\xc6G\x1d\xfb\x1b\xc0\x98\xbd;g\xb8\x8f\xf5\xbf'
p3820
tp3821
bag3745
asbsg74
(itrajectory_representation.operator
Operator
p3822
(dp3823
g8
I01
sg9
(dp3824
g11
g74
ssg16
g1172
sg18
(dp3825
g20
g21
(g22
(I0
tp3826
g24
tp3827
Rp3828
(I1
(I3
tp3829
g31
I00
S'@r\xf0!-"\r@\xac\xad/;\xa5N\x1a\xc0t\x87\xde\xc3\xcc{\x03@'
p3830
tp3831
bssg46
(lp3832
g21
(g22
(I0
tp3833
g24
tp3834
Rp3835
(I1
(I3
tp3836
g248
I00
S"Hb\x96\x81\xd9\x80\t@N/\xf1\x15\xd10\x1d\xc0>\xa53\xe5'\xc1\x10@"
p3837
tp3838
bag21
(g22
(I0
tp3839
g24
tp3840
Rp3841
(I1
(I3
tp3842
g259
I00
S'\x00\xb3\x82\xcf\x06o\x0b@\xee\x82h^\xc0\xd1\x1d\xc0\x06B\xc4\x83X\x1d\x08\xc0'
p3843
tp3844
bag21
(g22
(I0
tp3845
g24
tp3846
Rp3847
(I1
(I3
tp3848
g259
I00
S'\xe5\xb8@X\xe8=\x0e@\\)$S\xc1\xc0\x1c\xc0aK\x8aV`/\x08@'
p3849
tp3850
bag3828
asbsVsquare_packing_box4
p3851
g1229
ssg1326
(dp3852
sg1328
Nsg1329
(lp3853
sg1331
(dp3854
sg1333
I0
sg1334
g3734
sg1335
Nsg1336
(dp3855
(g238
g591
g239
tp3856
I00
s(g363
g591
g239
tp3857
I00
s(g489
g591
g239
tp3858
I00
s(g300
g591
g239
tp3859
I00
s(g546
g591
g239
tp3860
I00
s(g648
g591
g239
tp3861
I00
ssg1394
Nsg1395
I01
sbsg1396
(dp3862
(g648
g648
g239
tp3863
g1399
s(g426
g1400
g1400
tp3864
g1402
s(g1403
g546
g239
tp3865
g1405
s(g489
g300
g1400
tp3866
g1407
s(g239
g239
g239
tp3867
g1409
s(g300
g648
g1400
tp3868
g1411
s(g426
g238
g239
tp3869
g1413
s(g239
g363
g239
tp3870
g1415
s(g489
g426
g239
tp3871
g1417
s(g238
g363
g1400
tp3872
g1419
s(g239
g300
g1400
tp3873
g1421
s(g489
g1403
g239
tp3874
g1423
s(g1400
g239
g1400
tp3875
g1425
s(g363
g591
g239
tp3876
(lp3877
I00
as(g300
g1403
g239
tp3878
g1429
s(g489
g546
g1400
tp3879
g1431
s(g591
g1400
g239
tp3880
(lp3881
I00
as(g1403
g648
g1400
tp3882
g1435
s(g239
g1403
g239
tp3883
g1437
s(g648
g1400
g239
tp3884
g1439
s(g591
g1403
g239
tp3885
(lp3886
I00
as(g426
g426
g1400
tp3887
g1443
s(g1400
g300
g1400
tp3888
g1445
s(g1403
g1400
g239
tp3889
g1447
s(g1403
g489
g239
tp3890
g1449
s(g1400
g1400
g239
tp3891
g1451
s(g591
g363
g1400
tp3892
(lp3893
I00
as(g239
g239
g1400
tp3894
g1455
s(g546
g489
g1400
tp3895
g1457
s(g648
g300
g239
tp3896
g1459
s(g591
g426
g239
tp3897
(lp3898
I00
as(g546
g239
g1400
tp3899
g1463
s(g239
g648
g1400
tp3900
g1465
s(g546
g238
g1400
tp3901
g1467
s(g238
g546
g239
tp3902
g1469
s(g1400
g426
g1400
tp3903
g1471
s(g300
g489
g1400
tp3904
g1473
s(g648
g648
g1400
tp3905
g1475
s(g1403
g300
g239
tp3906
g1477
s(g1400
g239
g239
tp3907
g1479
s(g363
g648
g239
tp3908
g1481
s(g239
g238
g239
tp3909
g1483
s(g489
g546
g239
tp3910
g1485
s(g238
g300
g239
tp3911
g1487
s(g426
g238
g1400
tp3912
g1489
s(g591
g489
g239
tp3913
(lp3914
I00
as(g489
g426
g1400
tp3915
g1493
s(g489
g648
g1400
tp3916
g1495
s(g1403
g489
g1400
tp3917
g1497
s(g1400
g238
g1400
tp3918
g1499
s(g1403
g239
g239
tp3919
g1501
s(g363
g239
g239
tp3920
g1503
s(g1400
g1403
g239
tp3921
g1505
s(g648
g300
g1400
tp3922
g1507
s(g591
g648
g1400
tp3923
(lp3924
I00
as(g591
g591
g239
tp3925
(lp3926
I00
as(g546
g238
g239
tp3927
g1513
s(g1403
g648
g239
tp3928
g1515
s(g546
g1400
g1400
tp3929
g1517
s(g300
g426
g239
tp3930
g1519
s(g426
g426
g239
tp3931
g1521
s(g426
g363
g239
tp3932
g1523
s(g363
g648
g1400
tp3933
g1525
s(g300
g546
g1400
tp3934
g1527
s(g591
g363
g239
tp3935
(lp3936
I00
as(g546
g489
g239
tp3937
g1531
s(g648
g546
g1400
tp3938
g1533
s(g546
g239
g239
tp3939
g1535
s(g489
g648
g239
tp3940
g1537
s(g648
g591
g239
tp3941
(lp3942
I00
as(g238
g546
g1400
tp3943
g1541
s(g239
g489
g1400
tp3944
g1543
s(g1403
g239
g1400
tp3945
g1545
s(g1403
g300
g1400
tp3946
g1547
s(g591
g648
g239
tp3947
(lp3948
I00
as(g238
g591
g1400
tp3949
(lp3950
I00
as(g648
g1403
g1400
tp3951
g1553
s(g546
g1400
g239
tp3952
g1555
s(g591
g489
g1400
tp3953
(lp3954
I00
as(g591
g546
g1400
tp3955
(lp3956
I00
as(g300
g426
g1400
tp3957
g1561
s(g239
g238
g1400
tp3958
g1563
s(g1403
g591
g1400
tp3959
(lp3960
I00
as(g1400
g238
g239
tp3961
g1567
s(g1400
g489
g1400
tp3962
g1569
s(g648
g546
g239
tp3963
g1571
s(g300
g546
g239
tp3964
g1573
s(g1400
g591
g239
tp3965
(lp3966
I00
as(g648
g591
g1400
tp3967
(lp3968
I00
as(g648
g363
g1400
tp3969
g1579
s(g238
g300
g1400
tp3970
g1581
s(g426
g363
g1400
tp3971
g1583
s(g546
g591
g1400
tp3972
(lp3973
I00
as(g239
g426
g1400
tp3974
g1587
s(g238
g1400
g1400
tp3975
g1589
s(g363
g239
g1400
tp3976
g1591
s(g426
g546
g239
tp3977
g1593
s(g648
g1403
g239
tp3978
g1595
s(g363
g489
g1400
tp3979
g1597
s(g238
g648
g1400
tp3980
g1599
s(g591
g546
g239
tp3981
(lp3982
I00
as(g300
g1400
g1400
tp3983
g1603
s(g489
g239
g239
tp3984
g1605
s(g300
g363
g239
tp3985
g1607
s(g239
g591
g1400
tp3986
(lp3987
I00
as(g1400
g546
g1400
tp3988
g1611
s(g1400
g591
g1400
tp3989
(lp3990
I00
as(g426
g591
g239
tp3991
(lp3992
I00
as(g546
g591
g239
tp3993
(lp3994
I00
as(g426
g546
g1400
tp3995
g1619
s(g238
g648
g239
tp3996
g1621
s(g648
g489
g239
tp3997
g1623
s(g238
g239
g1400
tp3998
g1625
s(g300
g1400
g239
tp3999
g1627
s(g1400
g363
g1400
tp4000
g1629
s(g648
g363
g239
tp4001
g1631
s(g238
g238
g239
tp4002
g1633
s(g363
g363
g239
tp4003
g1635
s(g363
g238
g1400
tp4004
g1637
s(g238
g1400
g239
tp4005
g1639
s(g591
g300
g239
tp4006
(lp4007
I00
as(g363
g489
g239
tp4008
g1643
s(g489
g1400
g1400
tp4009
g1645
s(g238
g1403
g1400
tp4010
g1647
s(g489
g239
g1400
tp4011
g1649
s(g426
g489
g1400
tp4012
g1651
s(g300
g363
g1400
tp4013
g1653
s(g591
g239
g1400
tp4014
(lp4015
I00
as(g238
g239
g239
tp4016
g1657
s(g1400
g363
g239
tp4017
g1659
s(g546
g546
g239
tp4018
g1661
s(g1400
g300
g239
tp4019
g1663
s(g300
g591
g239
tp4020
(lp4021
I00
as(g426
g648
g239
tp4022
g1667
s(g426
g591
g1400
tp4023
(lp4024
I00
as(g363
g426
g1400
tp4025
g1671
s(g239
g489
g239
tp4026
g1673
s(g1403
g238
g1400
tp4027
g1675
s(g238
g426
g239
tp4028
g1677
s(g546
g1403
g239
tp4029
g1679
s(g591
g300
g1400
tp4030
(lp4031
I00
as(g591
g238
g1400
tp4032
(lp4033
I00
as(g363
g546
g239
tp4034
g1685
s(g648
g489
g1400
tp4035
g1687
s(g363
g1400
g239
tp4036
g1689
s(g238
g1403
g239
tp4037
g1691
s(g300
g238
g1400
tp4038
g1693
s(g648
g426
g239
tp4039
g1695
s(g591
g426
g1400
tp4040
(lp4041
I00
as(g300
g300
g1400
tp4042
g1699
s(g363
g363
g1400
tp4043
g1701
s(g546
g546
g1400
tp4044
g1703
s(g426
g300
g1400
tp4045
g1705
s(g300
g489
g239
tp4046
g1707
s(g1403
g426
g239
tp4047
g1709
s(g239
g1403
g1400
tp4048
g1711
s(g239
g546
g1400
tp4049
g1713
s(g489
g1400
g239
tp4050
g1715
s(g426
g648
g1400
tp4051
g1717
s(g546
g426
g1400
tp4052
g1719
s(g238
g238
g1400
tp4053
g1721
s(g1403
g238
g239
tp4054
g1723
s(g489
g238
g1400
tp4055
g1725
s(g546
g1403
g1400
tp4056
g1727
s(g426
g489
g239
tp4057
g1729
s(g363
g546
g1400
tp4058
g1731
s(g363
g238
g239
tp4059
g1733
s(g300
g238
g239
tp4060
g1735
s(g426
g239
g1400
tp4061
g1737
s(g489
g591
g239
tp4062
(lp4063
I00
as(g591
g591
g1400
tp4064
(lp4065
I00
as(g363
g1403
g239
tp4066
g1743
s(g1400
g1403
g1400
tp4067
g1745
s(g300
g591
g1400
tp4068
(lp4069
I00
as(g1400
g546
g239
tp4070
g1749
s(g1403
g1403
g1400
tp4071
g1751
s(g363
g426
g239
tp4072
g1753
s(g426
g300
g239
tp4073
g1755
s(g1400
g648
g1400
tp4074
g1757
s(g238
g426
g1400
tp4075
g1759
s(g591
g239
g239
tp4076
(lp4077
I00
as(g1403
g426
g1400
tp4078
g1763
s(g591
g238
g239
tp4079
(lp4080
I00
as(g238
g489
g239
tp4081
g1767
s(g363
g1400
g1400
tp4082
g1769
s(g648
g426
g1400
tp4083
g1771
s(g546
g648
g239
tp4084
g1773
s(g1403
g1400
g1400
tp4085
g1775
s(g1400
g648
g239
tp4086
g1777
s(g426
g1403
g239
tp4087
g1779
s(g489
g591
g1400
tp4088
(lp4089
I00
as(g489
g363
g1400
tp4090
g1783
s(g300
g239
g239
tp4091
g1785
s(g363
g1403
g1400
tp4092
g1787
s(g363
g300
g239
tp4093
g1789
s(g1403
g363
g1400
tp4094
g1791
s(g239
g546
g239
tp4095
g1793
s(g239
g591
g239
tp4096
(lp4097
I00
as(g546
g426
g239
tp4098
g1797
s(g546
g363
g239
tp4099
g1799
s(g1403
g591
g239
tp4100
(lp4101
I00
as(g489
g238
g239
tp4102
g1803
s(g489
g489
g1400
tp4103
g1805
s(g546
g300
g1400
tp4104
g1807
s(g300
g239
g1400
tp4105
g1809
s(g648
g239
g239
tp4106
g1811
s(g426
g239
g239
tp4107
g1813
s(g546
g648
g1400
tp4108
g1815
s(g300
g648
g239
tp4109
g1817
s(g239
g1400
g239
tp4110
g1819
s(g1403
g1403
g239
tp4111
g1821
s(g648
g238
g1400
tp4112
g1823
s(g426
g1403
g1400
tp4113
g1825
s(g1400
g489
g239
tp4114
g1827
s(g238
g363
g239
tp4115
g1829
s(g1403
g363
g239
tp4116
g1831
s(g426
g1400
g239
tp4117
g1833
s(g238
g489
g1400
tp4118
g1835
s(g239
g426
g239
tp4119
g1837
s(g1403
g546
g1400
tp4120
g1839
s(g300
g1403
g1400
tp4121
g1841
s(g489
g489
g239
tp4122
g1843
s(g546
g300
g239
tp4123
g1845
s(g591
g1403
g1400
tp4124
(lp4125
I00
as(g489
g363
g239
tp4126
g1849
s(g239
g300
g239
tp4127
g1851
s(g238
g591
g239
tp4128
(lp4129
I00
as(g363
g300
g1400
tp4130
g1855
s(g300
g300
g239
tp4131
g1857
s(g546
g363
g1400
tp4132
g1859
s(g489
g300
g239
tp4133
g1861
s(g591
g1400
g1400
tp4134
(lp4135
I00
as(g239
g648
g239
tp4136
g1865
s(g648
g1400
g1400
tp4137
g1867
s(g239
g363
g1400
tp4138
g1869
s(g648
g239
g1400
tp4139
g1871
s(g1400
g1400
g1400
tp4140
g1873
s(g489
g1403
g1400
tp4141
g1875
s(g363
g591
g1400
tp4142
(lp4143
I00
as(g239
g1400
g1400
tp4144
g1879
s(g648
g238
g239
tp4145
g1881
s(g1400
g426
g239
tp4146
g1883
ssg776
g3734
sg1884
I01
sg1885
(lp4147
S'square_packing_box1'
p4148
aS'rectangular_packing_box1'
p4149
aS'square_packing_box2'
p4150
aS'rectangular_packing_box2'
p4151
aS'square_packing_box3'
p4152
aS'rectangular_packing_box3'
p4153
aS'square_packing_box4'
p4154
aS'rectangular_packing_box4'
p4155
asg1335
Nsg1895
Nsg1896
(dp4156
Vrectangular_packing_box4
p4157
g21
(g22
(I0
tp4158
g24
tp4159
Rp4160
(I1
(I1
I3
tp4161
g248
I00
S'\x81Ls\xa1\xeb\xb8\xd8\xbf\x88\xd2*\xb3\xf7@\x1e\xc0\x96\xdd\x8b\xa1]m\x11@'
p4162
tp4163
bsVrectangular_packing_box2
p4164
g21
(g22
(I0
tp4165
g24
tp4166
Rp4167
(I1
(I1
I3
tp4168
g248
I00
S'\x16\xc8\x07\xc5\xec\xc6\x05@\xbc,S\xb6l\xb8\x17\xc0\x0e\xe6\xe6#ZB\x16@'
p4169
tp4170
bsVrectangular_packing_box3
p4171
g21
(g22
(I0
tp4172
g24
tp4173
Rp4174
(I1
(I1
I3
tp4175
g248
I00
S'\x92JiI\x85t\xf1?\xdc0\x1bK)>\x1c\xc0\xecr\xeeN\xc8\r\x15@'
p4176
tp4177
bsVrectangular_packing_box1
p4178
g21
(g22
(I0
tp4179
g24
tp4180
Rp4181
(I1
(I1
I3
tp4182
g248
I00
S'\x1c\xcd\x89`\xa4p\xef?\xba\xcciQ\x8b\x97\x1e\xc0udx\x15\x08E\x01@'
p4183
tp4184
bsVsquare_packing_box2
p4185
g21
(g22
(I0
tp4186
g24
tp4187
Rp4188
(I1
(I1
I3
tp4189
g248
I00
S'+\xe1\xf7\xaa\x93\xf6\x00@\xe8J\x1f\xc4\x19M\x17\xc0\xd4\\\xde}L}\xe8?'
p4190
tp4191
bsVsquare_packing_box3
p4192
g21
(g22
(I0
tp4193
g24
tp4194
Rp4195
(I1
(I1
I3
tp4196
g248
I00
S'3-\x83\xe6\xf3\xdb\x07@\xd4pr\xce\x9b\xc1\x1f\xc0\r\xe65\x0e\xcc\x93\x17@'
p4197
tp4198
bsVsquare_packing_box1
p4199
g21
(g22
(I0
tp4200
g24
tp4201
Rp4202
(I1
(I1
I3
tp4203
g248
I00
S'\x8aMK\x03\x8co\n@4|\xd1\xa9\r\xad\x17\xc0\xe2\r\xf5/O\xfc\x13@'
p4204
tp4205
bsVsquare_packing_box4
p4206
g21
(g22
(I0
tp4207
g24
tp4208
Rp4209
(I1
(I1
I3
tp4210
g248
I00
S'9\xdf\x14\x03\xda\x99\x0c@\xa8Px%\x07\xc5\x15\xc0^\xf5?X^\x95\xf4?'
p4211
tp4212
bssg1954
(lp4213
(g3718
g1400
tp4214
a(g3719
g1400
tp4215
a(g3735
g1400
tp4216
a(g3736
g1400
tp4217
a(g3720
g1400
tp4218
a(g3721
g1400
tp4219
a(g74
g1400
tp4220
a(g3851
g1400
tp4221
a(g3721
g239
tp4222
a(g74
g239
tp4223
asg1964
(itrajectory_representation.predicates.in_region
InRegion
p4224
(dp4225
g1335
Nsbsg1967
(dp4226
g3718
(lp4227
g21
(g22
(I0
tp4228
g24
tp4229
Rp4230
(I1
(I3
tp4231
g248
I00
S"Hb\x96\x81\xd9\x80\t@N/\xf1\x15\xd10\x1d\xc0>\xa53\xe5'\xc1\x10@"
p4232
tp4233
bag21
(g22
(I0
tp4234
g24
tp4235
Rp4236
(I1
(I3
tp4237
g259
I00
S'\x89\xcfHU\xa1\xf5\x05@\xee\x9b\xa6\x01<)\x1c\xc0W\xa3jE\xe6\xde\x01\xc0'
p4238
tp4239
bag21
(g22
(I0
tp4240
g24
tp4241
Rp4242
(I1
(I3
tp4243
g259
I00
S'2]\x933g}\x00@\xebx\x00&R!\x1b\xc0\xce\x170ZD}\x00\xc0'
p4244
tp4245
bag21
(g22
(I0
tp4246
g24
tp4247
Rp4248
(I1
(I3
tp4249
g259
I00
S'4#\xe8i\x80D\xf8?\xdd\x1dlTl\\\x19\xc0m\xc1\x1a\xec\xde\x01\x01\xc0'
p4250
tp4251
bag21
(g22
(I0
tp4252
g24
tp4253
Rp4254
(I1
(I3
tp4255
g259
I00
S'\xf8C*\xbe\x14\xcf\xe8?\x81d\xab\xeb\xa8<\x18\xc0\xc8\\\xf4\x8c\xc3\xfa\xfe\xbf'
p4256
tp4257
bag21
(g22
(I0
tp4258
g24
tp4259
Rp4260
(I1
(I3
tp4261
g259
I00
S'\xda:H\x99\\\xf4\xd7?\x9d\xfe\xfa\xb2d\xee\x1a\xc0\xb9=\xe66\x01\xe0\x07\xc0'
p4262
tp4263
bag21
(g22
(I0
tp4264
g24
tp4265
Rp4266
(I1
(I3
tp4267
g259
I00
S'\xa1\xa7\xe1\x952\xb8\xd3?\xa5q<Z@\x9e\x1b\xc0\xbc\xd6\x90\xe8\x98\xf3\x08@'
p4268
tp4269
bag796
asg3719
(lp4270
g21
(g22
(I0
tp4271
g24
tp4272
Rp4273
(I1
(I3
tp4274
g248
I00
S"Hb\x96\x81\xd9\x80\t@N/\xf1\x15\xd10\x1d\xc0>\xa53\xe5'\xc1\x10@"
p4275
tp4276
bag21
(g22
(I0
tp4277
g24
tp4278
Rp4279
(I1
(I3
tp4280
g259
I00
S"\xd4\\\xc6OT'\n@x\r\xc3F\xfex\x1a\xc0n\xd6\xe7\xac\x933\x0c@"
p4281
tp4282
bag21
(g22
(I0
tp4283
g24
tp4284
Rp4285
(I1
(I3
tp4286
g259
I00
S'\xc3#\x9b"m=\x05@O\x1c\xaf\xffo\x1c\x1b\xc0\xa4\xc19\xdd\xaa\xea\xdd?'
p4287
tp4288
bag882
asg3735
(lp4289
g21
(g22
(I0
tp4290
g24
tp4291
Rp4292
(I1
(I3
tp4293
g248
I00
S"Hb\x96\x81\xd9\x80\t@N/\xf1\x15\xd10\x1d\xc0>\xa53\xe5'\xc1\x10@"
p4294
tp4295
bag21
(g22
(I0
tp4296
g24
tp4297
Rp4298
(I1
(I3
tp4299
g259
I00
S'^\xcd\x14~%\xc5\x03@\xfel\xd3\x16S\xe0\x1d\xc0\x82\x18\xf2;\xe9\xd6\x07\xc0'
p4300
tp4301
bag21
(g22
(I0
tp4302
g24
tp4303
Rp4304
(I1
(I3
tp4305
g259
I00
S'j3^\x1e\x86u\xff?:\xcbg\xab\x92\xaa\x1f\xc0\x05\x95\xa3X\x1c\x93\x07\xc0'
p4306
tp4307
bag21
(g22
(I0
tp4308
g24
tp4309
Rp4310
(I1
(I3
tp4311
g259
I00
S'\xb9J\x81M;\x1a\xf3?^=\n\xa9\xb3\x0b\x1f\xc0\xc6oP\x041\xe5\xe2?'
p4312
tp4313
bag950
asg3736
(lp4314
g21
(g22
(I0
tp4315
g24
tp4316
Rp4317
(I1
(I3
tp4318
g248
I00
S"Hb\x96\x81\xd9\x80\t@N/\xf1\x15\xd10\x1d\xc0>\xa53\xe5'\xc1\x10@"
p4319
tp4320
bag21
(g22
(I0
tp4321
g24
tp4322
Rp4323
(I1
(I3
tp4324
g259
I00
S'\xb0\x97\xdd\xbanH\x06@\x90-op\xee\t\x1e\xc0x\x05a\xc6\xb0U\x13@'
p4325
tp4326
bag21
(g22
(I0
tp4327
g24
tp4328
Rp4329
(I1
(I3
tp4330
g259
I00
S'\x97hw\xab\xc4\xaf\x00@\xfa\xe6\x8b\x80\x7f\xd5\x1d\xc0\x0e\x07\x94\xe05\x80\x0e@'
p4331
tp4332
bag1042
asg3720
(lp4333
g21
(g22
(I0
tp4334
g24
tp4335
Rp4336
(I1
(I3
tp4337
g248
I00
S"Hb\x96\x81\xd9\x80\t@N/\xf1\x15\xd10\x1d\xc0>\xa53\xe5'\xc1\x10@"
p4338
tp4339
bag21
(g22
(I0
tp4340
g24
tp4341
Rp4342
(I1
(I3
tp4343
g259
I00
S'^\xcd\x14~%\xc5\x03@\xfel\xd3\x16S\xe0\x1d\xc0\x82\x18\xf2;\xe9\xd6\x07\xc0'
p4344
tp4345
bag21
(g22
(I0
tp4346
g24
tp4347
Rp4348
(I1
(I3
tp4349
g259
I00
S'\xc4_\xf9\x03N\xba\x00@R\xfd8\x1fs\r\x1d\xc0\xa1\xe6w68\xd4\x03\xc0'
p4350
tp4351
bag21
(g22
(I0
tp4352
g24
tp4353
Rp4354
(I1
(I3
tp4355
g259
I00
S'JyH\x8ez\xd6\xfa?\xb3\xf7h\x83\xea\xba\x1a\xc0u\xf9Uf\xb7m\xe0?'
p4356
tp4357
bag1116
asg3721
(lp4358
g21
(g22
(I0
tp4359
g24
tp4360
Rp4361
(I1
(I3
tp4362
g248
I00
S"Hb\x96\x81\xd9\x80\t@N/\xf1\x15\xd10\x1d\xc0>\xa53\xe5'\xc1\x10@"
p4363
tp4364
bag3745
asg74
g3832
sg3851
(lp4365
g21
(g22
(I0
tp4366
g24
tp4367
Rp4368
(I1
(I3
tp4369
g248
I00
S"Hb\x96\x81\xd9\x80\t@N/\xf1\x15\xd10\x1d\xc0>\xa53\xe5'\xc1\x10@"
p4370
tp4371
bag21
(g22
(I0
tp4372
g24
tp4373
Rp4374
(I1
(I3
tp4375
g259
I00
S'\xb0\x97\xdd\xbanH\x06@\x90-op\xee\t\x1e\xc0x\x05a\xc6\xb0U\x13@'
p4376
tp4377
bag21
(g22
(I0
tp4378
g24
tp4379
Rp4380
(I1
(I3
tp4381
g259
I00
S'\xd3s\x0b\xfa\xdf\xd9\x08@\xc52\xb7\xa7\x86L\x1b\xc0\xca\xe2\x95Rh\xea\xf6?'
p4382
tp4383
bag1249
assg741
(dp4384
(Vsquare_packing_box1
p4385
(g2097
(g248
S'\x95\xf3\xc5\xde\x8bo\n@'
p4386
tp4387
Rp4388
g2097
(g248
S'\x0b}\xb0\x8c\r\xad\x17\xc0'
p4389
tp4390
Rp4391
g2097
(g248
S'\xfbu\xa7;O\xfc\x13@'
p4392
tp4393
Rp4394
tp4395
tp4396
g771
s(Vrectangular_packing_box2
p4397
(g2097
(g248
S'\x16l#\x9e\xec\xc6\x05@'
p4398
tp4399
Rp4400
g2097
(g248
S'\xda\xc6\x9f\xa8l\xb8\x17\xc0'
p4401
tp4402
Rp4403
g2097
(g248
S'\x02\x84\x0f%ZB\x16@'
p4404
tp4405
Rp4406
tp4407
tp4408
g751
s(Vrectangular_packing_box1
p4409
(g2097
(g248
S'q=\n\xd7\xa3p\xef?'
p4410
tp4411
Rp4412
g2097
(g248
S'NG\x007\x8b\x97\x1e\xc0'
p4413
tp4414
Rp4415
g2097
(g248
S'\x91+\xf5,\x08E\x01@'
p4416
tp4417
Rp4418
tp4419
tp4420
g759
s(Vsquare_packing_box2
p4421
(g2097
(g248
S'\xd2\xc4;\xc0\x93\xf6\x00@'
p4422
tp4423
Rp4424
g2097
(g248
S'\x11W\xce\xde\x19M\x17\xc0'
p4425
tp4426
Rp4427
g2097
(g248
S'\xafZ\x99\xf0K}\xe8?'
p4428
tp4429
Rp4430
tp4431
tp4432
g763
s(Vrectangular_packing_box4
p4433
(g2097
(g248
S'K\xad\xf7\x1b\xed\xb8\xd8\xbf'
p4434
tp4435
Rp4436
g2097
(g248
S'\xfe`\xe0\xb9\xf7@\x1e\xc0'
p4437
tp4438
Rp4439
g2097
(g248
S'\xee\x96\xe4\x80]m\x11@'
p4440
tp4441
Rp4442
tp4443
tp4444
g747
s(Vsquare_packing_box3
p4445
(g2097
(g248
S'\x1e\xfc\xc4\x01\xf4\xdb\x07@'
p4446
tp4447
Rp4448
g2097
(g248
S'\xf2|\x06\xd4\x9b\xc1\x1f\xc0'
p4449
tp4450
Rp4451
g2097
(g248
S',\xef\xaa\x07\xcc\x93\x17@'
p4452
tp4453
Rp4454
tp4455
tp4456
g3731
s(Vsquare_packing_box4
p4457
(g2097
(g248
S'Uka\x16\xda\x99\x0c@'
p4458
tp4459
Rp4460
g2097
(g248
S'\x85\xb1\x85 \x07\xc5\x15\xc0'
p4461
tp4462
Rp4463
g2097
(g248
S'\xb8!\xc6k^\x95\xf4?'
p4464
tp4465
Rp4466
tp4467
tp4468
g775
s(Vrectangular_packing_box3
p4469
(g2097
(g248
S'\x80\xb5j\xd7\x84t\xf1?'
p4470
tp4471
Rp4472
g2097
(g248
S'\x0f\xf2z0)>\x1c\xc0'
p4473
tp4474
Rp4475
g2097
(g248
S'\xf3X32\xc8\r\x15@'
p4476
tp4477
Rp4478
tp4479
tp4480
g755
ssg2193
(igtamp_utils.utils
CustomStateSaver
p4481
(dp4482
g2196
g21
(g22
(I0
tp4483
g24
tp4484
Rp4485
(I1
(I1
I3
tp4486
g248
I00
S"Bb\x96\x81\xd9\x80\t@N/\xf1\x15\xd10\x1d\xc0>\xa53\xe5'\xc1\x10@"
p4487
tp4488
bsg2203
Nsg2204
g2205
sg2206
I1
sg1896
(dp4489
Vright_wall_1
p4490
g21
(g22
(I0
tp4491
g24
tp4492
Rp4493
(I1
(I4
tp4494
g248
I00
S'H\xe1z\x14\xaeG\x12@&\\\x8f\xc2\xf5(\xd4\xbf\xcc\x7fH\xbf}\x1d\xed?\x00\x00\x00\x00\x00\x00\x00\x00'
p4495
tp4496
bsVc_obst5
p4497
g21
(g22
(I0
tp4498
g24
tp4499
Rp4500
(I1
(I4
tp4501
g248
I00
S"\xa0\x97\xb9I\xbd7\x12@\x87\xa9Mv\xab^\xdc?e\xaa`TR'\xed?\x92=\xc3\x0eNj\x11@"
p4502
tp4503
bsVentrance_right
p4504
g21
(g22
(I0
tp4505
g24
tp4506
Rp4507
(I1
(I4
tp4508
g248
I00
S'ffffff\n@H\xe1z\x14\xaeG\t\xc0\x9c\xc4 \xb0rh\xc1?\x00\x00\x00\x00\x00\x00\x00\x00'
p4509
tp4510
bsVcomputer_table
p4511
g21
(g22
(I0
tp4512
g24
tp4513
Rp4514
(I1
(I4
tp4515
g248
I00
S'\x00\x00\x00\x00\x00\x00\x13@\x00\x00\x00\x00\x00\x00\xf8\xbf\x96C\x8bl\xe7\xfb\xe7?\xd2!3\x7f|\xd9\x12@'
p4516
tp4517
bsVchair_6b56
p4518
g21
(g22
(I0
tp4519
g24
tp4520
Rp4521
(I1
(I4
tp4522
g248
I00
S'\x96=\n\xd7\xa3p\xf5?]\xe1z\x14\xaeG\xd1?\x00\x00\x00\x00\x00\x00\x00\x00\xd6$\xfaNBm\n@'
p4523
tp4524
bsVsquare_packing_box3
p4525
g21
(g22
(I0
tp4526
g24
tp4527
Rp4528
(I1
(I4
tp4529
g248
I00
S'2-\x83\xe6\xf3\xdb\x07@\xd3pr\xce\x9b\xc1\x1f\xc0L7\x89A`\xe5\xd8?\r\xe65\x0e\xcc\x93\x17@'
p4530
tp4531
bsVsquare_packing_box2
p4532
g21
(g22
(I0
tp4533
g24
tp4534
Rp4535
(I1
(I4
tp4536
g248
I00
S'%\xe1\xf7\xaa\x93\xf6\x00@\xe8J\x1f\xc4\x19M\x17\xc0_7\x89A`\xe5\xd8?\xd4\\\xde}L}\xe8?'
p4537
tp4538
bsVtable
p4539
g21
(g22
(I0
tp4540
g24
tp4541
Rp4542
(I1
(I4
tp4543
g248
I00
S'\x7f\xf6#EdX\xed?\xac\xffs\x98//\xc0\xbf\x00\x00\x00\x00\x00\x00\x00\x00\x00\x00\x00\x00\x00\x00\x00\x00'
p4544
tp4545
bsVsquare_packing_box1
p4546
g21
(g22
(I0
tp4547
g24
tp4548
Rp4549
(I1
(I4
tp4550
g248
I00
S'\x8eMK\x03\x8co\n@8|\xd1\xa9\r\xad\x17\xc0L7\x89A`\xe5\xd8?\xe2\r\xf5/O\xfc\x13@'
p4551
tp4552
bsVback_wall_2
p4553
g21
(g22
(I0
tp4554
g24
tp4555
Rp4556
(I1
(I4
tp4557
g248
I00
S'\xaeG\xe1z\x14.\x13@\x80\x14\xaeG\xe1z\xc4?xX\xa85\xcd\xbb\xf2?\x00\x00\x00\x00\x00\x00\x00\x00'
p4558
tp4559
bsVchair_083c
p4560
g21
(g22
(I0
tp4561
g24
tp4562
Rp4563
(I1
(I4
tp4564
g248
I00
S'\xa4p=\n\xd7\xa3\xe0?333333\xe3\xbf\x00\x00\x00\x00\x00\x00\x00\x00\x00\x00\x00\x00\x00\x00\x00\x00'
p4565
tp4566
bsVback_wall_1
p4567
g21
(g22
(I0
tp4568
g24
tp4569
Rp4570
(I1
(I4
tp4571
g248
I00
S'\xaeG\xe1z\x14.\x13@\x80\x14\xaeG\xe1z\xc4?\xcc\x7fH\xbf}\x1d\xed?\x00\x00\x00\x00\x00\x00\x00\x00'
p4572
tp4573
bsVbottom_wall
p4574
g21
(g22
(I0
tp4575
g24
tp4576
Rp4577
(I1
(I4
tp4578
g248
I00
S'\x00\x00\x00\x00\x00\x00\xfc?\x00\x00\x00\x00\x00\x00\x00\x00\x00\x00\x00\x00\x00\x00\x00\x00\x00\x00\x00\x00\x00\x00\x00\x00'
p4579
tp4580
bsVcup_905a
p4581
g21
(g22
(I0
tp4582
g24
tp4583
Rp4584
(I1
(I4
tp4585
g248
I00
S'\x00\x00\x00\x00\x00\x00\xf0?\x83\xc0\xca\xa1E\xb6\xdb?\x1b/\xdd$\x06\x81\xed?\x00\x00\x00\x00\x00\x00\x00\x00'
p4586
tp4587
bsVplate_496f
p4588
g21
(g22
(I0
tp4589
g24
tp4590
Rp4591
(I1
(I4
tp4592
g248
I00
S"q=\n\xd7\xa3p\xe5?\x9dhW!\xe5'\xdd\xbf\x1b/\xdd$\x06\x81\xed?\x00\x00\x00\x00\x00\x00\x00\x00"
p4593
tp4594
bsVtoaster
p4595
g21
(g22
(I0
tp4596
g24
tp4597
Rp4598
(I1
(I4
tp4599
g248
I00
S')\\\x8f\xc2\xf5(\xf4\xbf\xe0z\x14\xaeG\xe1\xf2\xbf\xb8\x1e\x85\xebQ\xb8\xee?\x89/`\x9b\xf8\x8a\xe4?'
p4600
tp4601
bsVc_obst1
p4602
g21
(g22
(I0
tp4603
g24
tp4604
Rp4605
(I1
(I4
tp4606
g248
I00
S"\xf6\xaf\x18\x17\x8fx\x12@\x80\x11A0\x8b\xd1\x89?e\xaa`TR'\xed?\xebv\xf1P\xf9\xce\x11@"
p4607
tp4608
bsVrectangular_packing_box4
p4609
g21
(g22
(I0
tp4610
g24
tp4611
Rp4612
(I1
(I4
tp4613
g248
I00
S'\x85Ls\xa1\xeb\xb8\xd8\xbf\x88\xd2*\xb3\xf7@\x1e\xc0S7\x89A`\xe5\xd8?\x96\xdd\x8b\xa1]m\x11@'
p4614
tp4615
bsVmicrowave
p4616
g21
(g22
(I0
tp4617
g24
tp4618
Rp4619
(I1
(I4
tp4620
g248
I00
S'\x9a\x99\x99\x99\x99\x99\xf1\xbf\x00\x00\x00\x00\x00\x00\x00@7\x89A`\xe5\xd0\xee?\x00\x00\x00\x00\x00\x00\x00\x00'
p4621
tp4622
bsVc_obst7
p4623
g21
(g22
(I0
tp4624
g24
tp4625
Rp4626
(I1
(I4
tp4627
g248
I00
S"0\xb7\x0b\xefs\x07\x12@\xcaN\xc1ds\x93\xd2?e\xaa`TR'\xed?K\xf0K\x04l\xf9\x13@"
p4628
tp4629
bsVc_obst6
p4630
g21
(g22
(I0
tp4631
g24
tp4632
Rp4633
(I1
(I4
tp4634
g248
I00
S"\xf0\xa5\x0bc$)\x12@\x00\xb4a\x92p\x00\x9d\xbfe\xaa`TR'\xed?\x07\xa1'\xb8\x0c\xbf\x02@"
p4635
tp4636
bsVcup_b6af
p4637
g21
(g22
(I0
tp4638
g24
tp4639
Rp4640
(I1
(I4
tp4641
g248
I00
S'R\xb8\x1e\x85\xebQ\xe8?\x9a\x99\x99\x99\x99\x99\xe1?\x1b/\xdd$\x06\x81\xed?\x00\x00\x00\x00\x00\x00\x00\x00'
p4642
tp4643
bsVc_obst4
p4644
g21
(g22
(I0
tp4645
g24
tp4646
Rp4647
(I1
(I4
tp4648
g248
I00
S"\xac\xfe\x97P\x8f4\x12@`Q\xaf\xde\x17.\xc6\xbfe\xaa`TR'\xed?\xddQze\x96I\x17@"
p4649
tp4650
bsVrectangular_packing_box2
p4651
g21
(g22
(I0
tp4652
g24
tp4653
Rp4654
(I1
(I4
tp4655
g248
I00
S'\x16\xc8\x07\xc5\xec\xc6\x05@\xbc,S\xb6l\xb8\x17\xc0B7\x89A`\xe5\xd8?\x0e\xe6\xe6#ZB\x16@'
p4656
tp4657
bsVplate_fa76
p4658
g21
(g22
(I0
tp4659
g24
tp4660
Rp4661
(I1
(I4
tp4662
g248
I00
S'=\n\xd7\xa3p=\xf2?\x00\x00\x00\x00\x00\x00\x00\x00\x1b/\xdd$\x06\x81\xed?\x00\x00\x00\x00\x00\x00\x00\x00'
p4663
tp4664
bsVfloorwalls
p4665
g21
(g22
(I0
tp4666
g24
tp4667
Rp4668
(I1
(I4
tp4669
g248
I00
S'\xc7\xcc\xcc\xcc\xcc\xcc\xfc?\x00\x00\x00\x00\x00\x00\x18\xc0H\xe1z\x14\xaeG\xc1?\x16-DT\xfb!\xf9?'
p4670
tp4671
bsVpin_c671
p4672
g21
(g22
(I0
tp4673
g24
tp4674
Rp4675
(I1
(I4
tp4676
g248
I00
S'\xc3\xf5(\\\x8f\xc2\xf1\xbf}?5^\xbaI\x02@\xb8\x1e\x85\xebQ\xb8\xfa?\x00\x00\x00\x00\x00\x00\x00\x00'
p4677
tp4678
bsVc_obst3
p4679
g21
(g22
(I0
tp4680
g24
tp4681
Rp4682
(I1
(I4
tp4683
g248
I00
S"\xe4\x98eW\xae\x12\x12@\x9c\xbb=\t\x14p\xba\xbfe\xaa`TR'\xed?jr\x98\x08\xae\xc3\xea?"
p4684
tp4685
bsVchair_2e39
p4686
g21
(g22
(I0
tp4687
g24
tp4688
Rp4689
(I1
(I4
tp4690
g248
I00
S'\x98fffff\xee?\x15fffff\xf2\xbf\x00\x00\x00\x00\x00\x00\x00\x00\x07M\xe8QQF\xf3?'
p4691
tp4692
bsVentrance_left
p4693
g21
(g22
(I0
tp4694
g24
tp4695
Rp4696
(I1
(I4
tp4697
g248
I00
S'\x98\x99\x99\x99\x99\x99\xe9\xbfH\xe1z\x14\xaeG\t\xc0\x9c\xc4 \xb0rh\xc1?\x00\x00\x00\x00\x00\x00\x00\x00'
p4698
tp4699
bsVtop_wall_1
p4700
g21
(g22
(I0
tp4701
g24
tp4702
Rp4703
(I1
(I4
tp4704
g248
I00
S'H\xe1z\x14\xaeG\x12@\x80\x14\xaeG\xe1z\xc4?xX\xa85\xcd\xbb\xf2?\x00\x00\x00\x00\x00\x00\x00\x00'
p4705
tp4706
bsVrectangular_packing_box3
p4707
g21
(g22
(I0
tp4708
g24
tp4709
Rp4710
(I1
(I4
tp4711
g248
I00
S'\xa0JiI\x85t\xf1?\xdb0\x1bK)>\x1c\xc0D7\x89A`\xe5\xd8?\xecr\xeeN\xc8\r\x15@'
p4712
tp4713
bsVshaker
p4714
g21
(g22
(I0
tp4715
g24
tp4716
Rp4717
(I1
(I4
tp4718
g248
I00
S'\n\xd7\xa3p=\n\x01@\x14\xaeG\xe1z\x14\x02@\\\x8f\xc2\xf5(\\\xef?\x00\x00\x00\x00\x00\x00\x00\x00'
p4719
tp4720
bsVc_obst9
p4721
g21
(g22
(I0
tp4722
g24
tp4723
Rp4724
(I1
(I4
tp4725
g248
I00
S"D\x01\x0cq\t\x1a\x12@wy\xb0\x8a\x90\xa4\xe0?e\xaa`TR'\xed?\xb6I\xec\xeb\xc5\xd7\x11@"
p4726
tp4727
bsVplate_835a
p4728
g21
(g22
(I0
tp4729
g24
tp4730
Rp4731
(I1
(I4
tp4732
g248
I00
S'\xf6(\\\x8f\xc2\xf5\xf0?\\\x8f\xc2\xf5(\\\xe7\xbf\x1b/\xdd$\x06\x81\xed?\x00\x00\x00\x00\x00\x00\x00\x00'
p4733
tp4734
bsVcup_58a2
p4735
g21
(g22
(I0
tp4736
g24
tp4737
Rp4738
(I1
(I4
tp4739
g248
I00
S'\x85\xebQ\xb8\x1e\x85\xe3?\xcd\xcc\xcc\xcc\xcc\xcc\xdc?\x1b/\xdd$\x06\x81\xed?\x00\x00\x00\x00\x00\x00\x00\x00'
p4740
tp4741
bsVleft_wall_1
p4742
g21
(g22
(I0
tp4743
g24
tp4744
Rp4745
(I1
(I4
tp4746
g248
I00
S'H\xe1z\x14\xaeG\x12@S\xb8\x1e\x85\xebQ\xe4?\xcc\x7fH\xbf}\x1d\xed?\x00\x00\x00\x00\x00\x00\x00\x00'
p4747
tp4748
bsVc_obst2
p4749
g21
(g22
(I0
tp4750
g24
tp4751
Rp4752
(I1
(I4
tp4753
g248
I00
S"J \xcb\xa69l\x12@\xbcb\xc5\x1e\xc7\r\xd8?e\xaa`TR'\xed?\x96\x97\xc2\x85\xf7\xf0\xef?"
p4754
tp4755
bsVsquare_packing_box4
p4756
g21
(g22
(I0
tp4757
g24
tp4758
Rp4759
(I1
(I4
tp4760
g248
I00
S'3\xdf\x14\x03\xda\x99\x0c@\xa5Px%\x07\xc5\x15\xc0H7\x89A`\xe5\xd8?^\xf5?X^\x95\xf4?'
p4761
tp4762
bsVrectangular_packing_box1
p4763
g21
(g22
(I0
tp4764
g24
tp4765
Rp4766
(I1
(I4
tp4767
g248
I00
S'\x1c\xcd\x89`\xa4p\xef?\xbe\xcciQ\x8b\x97\x1e\xc0Z7\x89A`\xe5\xd8?udx\x15\x08E\x01@'
p4768
tp4769
bsVpin_371e
p4770
g21
(g22
(I0
tp4771
g24
tp4772
Rp4773
(I1
(I4
tp4774
g248
I00
S'333333\xf3\xbfffffff\xf6?\xb8\x1e\x85\xebQ\xb8\xee?\x00\x00\x00\x00\x00\x00\x00\x00'
p4775
tp4776
bsVfridge
p4777
g21
(g22
(I0
tp4778
g24
tp4779
Rp4780
(I1
(I4
tp4781
g248
I00
S'\xd7\xa3p=\n\xd7\xeb\xbf\x00\x00\x00\x00\x00\x00\x00\xc0\xcd\xcc\xcc\xcc\xcc\xcc\xf8?\x00\x00\x00\x00\x00\x00\x00\x00'
p4782
tp4783
bsVcup_d441
p4784
g21
(g22
(I0
tp4785
g24
tp4786
Rp4787
(I1
(I4
tp4788
g248
I00
S'\n\xd7\xa3p=\n\xef?\x8f\xc2\xf5(\\\x8f\xe2?\x1b/\xdd$\x06\x81\xed?\x00\x00\x00\x00\x00\x00\x00\x00'
p4789
tp4790
bsVshelf2
p4791
g21
(g22
(I0
tp4792
g24
tp4793
Rp4794
(I1
(I4
tp4795
g248
I00
S'\x00\x00\x00\x00\x00\x00\x0e@\xaeG\xe1z\x14\xae\x07@\x9c\xc4 \xb0rh\xc1?\xd2!3\x7f|\xd9\x12@'
p4796
tp4797
bsVtop_wall_2
p4798
g21
(g22
(I0
tp4799
g24
tp4800
Rp4801
(I1
(I4
tp4802
g248
I00
S'H\xe1z\x14\xaeG\x12@\x80\x14\xaeG\xe1z\xc4?\x16HP\xfc\x18\xf3\xfd?\x00\x00\x00\x00\x00\x00\x00\x00'
p4803
tp4804
bsVc_obst0
p4805
g21
(g22
(I0
tp4806
g24
tp4807
Rp4808
(I1
(I4
tp4809
g248
I00
S"\x9e\xa3\xe7\xf1\xe6v\x12@\xea\xf7o\xa9\xa01\xc4\xbfe\xaa`TR'\xed?\xf9\x986M\xa2\xe5\x08@"
p4810
tp4811
bsVshelf1
p4812
g21
(g22
(I0
tp4813
g24
tp4814
Rp4815
(I1
(I4
tp4816
g248
I00
S'\x00\x00\x00\x00\x00\x00\x13@\xaeG\xe1z\x14\xae\x07@\x9c\xc4 \xb0rh\xc1?\xd2!3\x7f|\xd9\x12@'
p4817
tp4818
bsVsink
p4819
g21
(g22
(I0
tp4820
g24
tp4821
Rp4822
(I1
(I4
tp4823
g248
I00
S'ffffff\xd6?333333\x01@\x9a\x99\x99\x99\x99\x99\xb9\xbf\x00\x00\x00\x00\x00\x00\x00\x00'
p4824
tp4825
bsVpr2
p4826
g21
(g22
(I0
tp4827
g24
tp4828
Rp4829
(I1
(I4
tp4830
g248
I00
S"Cb\x96\x81\xd9\x80\t@K/\xf1\x15\xd10\x1d\xc0\x9a_\x94\xa0\xbf\xd0\xc1?>\xa53\xe5'\xc1\x10@"
p4831
tp4832
bsVchair_12d0
p4833
g21
(g22
(I0
tp4834
g24
tp4835
Rp4836
(I1
(I4
tp4837
g248
I00
S'^\xd2\x18\xad\xa3\xaa\xdb?Pf\x83L2r\xc6?\x00\x00\x00\x00\x00\x00\x00\x00\xf8\x81\r\x14M\xa6\x17@'
p4838
tp4839
bsVright_wall_2
p4840
g21
(g22
(I0
tp4841
g24
tp4842
Rp4843
(I1
(I4
tp4844
g248
I00
S'H\xe1z\x14\xaeG\x12@&\\\x8f\xc2\xf5(\xd4\xbfxX\xa85\xcd\xbb\xf2?\x00\x00\x00\x00\x00\x00\x00\x00'
p4845
tp4846
bsVknife_block
p4847
g21
(g22
(I0
tp4848
g24
tp4849
Rp4850
(I1
(I4
tp4851
g248
I00
S'R\xb8\x1e\x85\xebQ\xe0\xbfffffff\x02@`\xe5\xd0"\xdb\xf9\xee?\x00\x00\x00\x00\x00\x00\x00\x00'
p4852
tp4853
bsVleft_wall_2
p4854
g21
(g22
(I0
tp4855
g24
tp4856
Rp4857
(I1
(I4
tp4858
g248
I00
S'H\xe1z\x14\xaeG\x12@S\xb8\x1e\x85\xebQ\xe4?xX\xa85\xcd\xbb\xf2?\x00\x00\x00\x00\x00\x00\x00\x00'
p4859
tp4860
bsVleft_wall
p4861
g21
(g22
(I0
tp4862
g24
tp4863
Rp4864
(I1
(I4
tp4865
g248
I00
S'\x9a\x99\x99\x99\x99\x99\x07@H\xe1z\x14\xaeG\xff?\x9c\xc4 \xb0rh\xc1?\x00\x00\x00\x00\x00\x00\x00\x00'
p4866
tp4867
bsVkitchen
p4868
g21
(g22
(I0
tp4869
g24
tp4870
Rp4871
(I1
(I4
tp4872
g248
I00
S'\x00\x00\x00\x00\x00\x00\x00\x00\x00\x00\x00\x00\x00\x00\x00\x00\x00\x00\x00\x00\x00\x00\x00\x00\x00\x00\x00\x00\x00\x00\x00\x00'
p4873
tp4874
bsVtable2
p4875
g21
(g22
(I0
tp4876
g24
tp4877
Rp4878
(I1
(I4
tp4879
g248
I00
S'\x00\x00\x00\x00\x00\x00\x13@\x80\x14\xaeG\xe1z\xc4?S\x96!\x8euq\xec?\xd2!3\x7f|\xd9\x12@'
p4880
tp4881
bsVc_obst8
p4882
g21
(g22
(I0
tp4883
g24
tp4884
Rp4885
(I1
(I4
tp4886
g248
I00
S'\x14\xf3\xa5,\x82\x82\x12@\xdc"b\xe0\xad\x07\xd4?e\xaa`TR\'\xed?\x80\xbfm\xc7\xdc\xcf\x07@'
p4887
tp4888
bsVplate_b4e7
p4889
g21
(g22
(I0
tp4890
g24
tp4891
Rp4892
(I1
(I4
tp4893
g248
I00
S'\x14\xaeG\xe1z\x14\xf2\xbf\x14\xaeG\xe1z\x14\x00@=\n\xd7\xa3p=\xf2?\x00\x00\x00\x00\x00\x00\x00\x00'
p4894
tp4895
bsVcooker
p4896
g21
(g22
(I0
tp4897
g24
tp4898
Rp4899
(I1
(I4
tp4900
g248
I00
S'\xaeG\xe1z\x14\xae\xff?\x85\xebQ\xb8\x1e\x85\xfb?\x00\x00\x00\x00\x00\x00\xe8?\x00\x00\x00\x00\x00\x00\x00\x00'
p4901
tp4902
bsVpin_a091
p4903
g21
(g22
(I0
tp4904
g24
tp4905
Rp4906
(I1
(I4
tp4907
g248
I00
S'\xdb\xf9~j\xbct\xf7\xbf)\\\x8f\xc2\xf5(\x02@\xb8\x1e\x85\xebQ\xb8\xfa?\x00\x00\x00\x00\x00\x00\x00\x00'
p4908
tp4909
bsVside_wall_2
p4910
g21
(g22
(I0
tp4911
g24
tp4912
Rp4913
(I1
(I4
tp4914
g248
I00
S'\xc9\xff\xff\xff\xff\xff\x14@\xba\xff\xff\xff\xff\xaf#=\x9c\xc4 \xb0rh\xc1?#-DT\xfb!\xf9?'
p4915
tp4916
bsVside_wall_3
p4917
g21
(g22
(I0
tp4918
g24
tp4919
Rp4920
(I1
(I4
tp4921
g248
I00
S'\x00\x00\x00\x00\x00\x00\xfc?H\xe1z\x14\xaeG\t@\x9c\xc4 \xb0rh\xc1?\x00\x00\x00\x00\x00\x00\x00\x00'
p4922
tp4923
bsVmixer
p4924
g21
(g22
(I0
tp4925
g24
tp4926
Rp4927
(I1
(I4
tp4928
g248
I00
S'\n\xd7\xa3p=\n\xfb?ffffff\x02@d;\xdfO\x8d\x97\xee?\x00\x00\x00\x00\x00\x00\x00\x00'
p4929
tp4930
bsVside_wall_1
p4931
g21
(g22
(I0
tp4932
g24
tp4933
Rp4934
(I1
(I4
tp4935
g248
I00
S'\x92\xff\xff\xff\xff\xff\xfb\xbf\x81\xff\xff\xff\xff?\n\xbd\x9c\xc4 \xb0rh\xc1?#-DT\xfb!\xf9?'
p4936
tp4937
bsVbottom_wall_1
p4938
g21
(g22
(I0
tp4939
g24
tp4940
Rp4941
(I1
(I4
tp4942
g248
I00
S'H\xe1z\x14\xaeG\x12@\x80\x14\xaeG\xe1z\xc4?\xcc\x7fH\xbf}\x1d\xed?\x00\x00\x00\x00\x00\x00\x00\x00'
p4943
tp4944
bsVcan
p4945
g21
(g22
(I0
tp4946
g24
tp4947
Rp4948
(I1
(I4
tp4949
g248
I00
S'\x00\x00\x00\x00\x00\x00\xf4\xbfH\xe1z\x14\xaeG\xe1\xbf\n\xd7\xa3p=\n\xef?\x00\x00\x00\x00\x00\x00\x00\x00'
p4950
tp4951
bsVright_wall
p4952
g21
(g22
(I0
tp4953
g24
tp4954
Rp4955
(I1
(I4
tp4956
g248
I00
S'\x9a\x99\x99\x99\x99\x99\x07@H\xe1z\x14\xaeG\xff\xbf\x9c\xc4 \xb0rh\xc1?\x00\x00\x00\x00\x00\x00\x00\x00'
p4957
tp4958
bsVcoffe_machine
p4959
g21
(g22
(I0
tp4960
g24
tp4961
Rp4962
(I1
(I4
tp4963
g248
I00
S'\\\x8f\xc2\xf5(\\\xf5\xbf\xb8\x1e\x85\xebQ\xb8\xee?\n\xd7\xa3p=\n\xef?\x00\x00\x00\x00\x00\x00\x00\x00'
p4964
tp4965
bsVcomputer_chair
p4966
g21
(g22
(I0
tp4967
g24
tp4968
Rp4969
(I1
(I4
tp4970
g248
I00
S'\xcd\xcc\xcc\xcc\xcc\xcc\x10@\x00\x00\x00\x00\x00\x00\xf8\xbf\xa00\xb6\x10\xe4\xa9\x95\xbf\x00\x00\x00\x00\x00\x00\x00\x00'
p4971
tp4972
bssg2691
g21
(g22
(I0
tp4973
g24
tp4974
Rp4975
(I1
(I39
tp4976
g248
I00
S'\x00\x00\x00\x00\x00\x00\x00\x00\x00\x00\x00\x00\x00\x00\x00\x00\x00\x00\x00\x00\x00\x00\x00\x00\x00\x00\x00\x00\x00\x00\x00\x00\x00\x00\x00\x00\x00\x00\x00\x00\x00\x00\x00\x00\x00\x00\x00\x00\x00\x00\x00\x00\x00\x00\x00\x00\x00\x00\x00\x00\x00\x00\x00\x00\x00\x00\x00\x00\x00\x00\x00\x00\x00\x00\x00\x00\x00\x00\x00\x00\x00\x00\x00\x00\x00\x00\x00\x00\x00\x00\x00\x00\x00\x00\x00\x00@d;\xdfO\x8d\x87?\x00\x00\x00\x00\x00\x00\x00\x00\x00\x00\x00\x00\x00\x00\x00\x00\x00\x00\x00\x00\x00\x00\x00\x00\xeb\xed\t\xf1\xcc\xa4\xf4?\x00\x00\x00\x00\x00\x00\xb0<N"\xd0^p\xf8\x00\xc0\xd9l\xdf\xccv\xf8\xa0<\xa3\x03\r.\x04V\xe6\xbf\x98IJCS\t\xa5<\x00\x00\x00\x00\x00\x00\x00\x00\x00\x00\x00\x00\x00p\x01\xbd\x00\x00\x00\x00\x00\x00\x00\x00\x00\x00\x00\x00\x00\x80"\xbd\x00\x00\x00\x00\x00\x00\x00\x00\x00\x00\x00\x00\x00\x00\x00\x00\xeb\xed\t\xf1\xcc\xa4\xf4?\x00\x00\x00\x00\x00\x00\x00\x00N"\xd0^p\xf8\x00\xc0\x00\x00\x00\x00\x00\x00\x00\x00\xa0\x03\r.\x04V\xe6\xbfAhF\x83:\x80\xa1<\x8d9\xe3\xc17\x89\xe1?\x00\x00\x00\x00\x00\xf0\x05\xbd\x00\x00\x00\x00\x00\x00\x00\x00\x00\x00\x00\x00\x00\x80"\xbd\x00\x00\x00\x00\x00\x00\x00\x00'
p4977
tp4978
bsg2698
I00
sbsg2699
Nsg2700
(dp4979
(g648
g648
g239
tp4980
g1399
s(g426
g1400
g1400
tp4981
g1402
s(g1403
g546
g239
tp4982
g1405
s(g489
g300
g1400
tp4983
g1407
s(g239
g239
g239
tp4984
g1409
s(g300
g648
g1400
tp4985
g1411
s(g426
g238
g239
tp4986
g1413
s(g239
g363
g239
tp4987
g1415
s(g489
g426
g239
tp4988
g1417
s(g489
g238
g1400
tp4989
g1725
s(g1403
g363
g239
tp4990
g1831
s(g239
g300
g1400
tp4991
g1421
s(g489
g1403
g239
tp4992
g1423
s(g1400
g239
g1400
tp4993
g1425
s(g300
g1403
g239
tp4994
g1429
s(g489
g546
g1400
tp4995
g1431
s(g1403
g648
g1400
tp4996
g1435
s(g648
g1400
g239
tp4997
g1439
s(g426
g426
g1400
tp4998
g1443
s(g1400
g300
g1400
tp4999
g1445
s(g1403
g489
g239
tp5000
g1449
s(g1400
g1400
g239
tp5001
g1451
s(g239
g239
g1400
tp5002
g1455
s(g300
g648
g239
tp5003
g1817
s(g546
g489
g1400
tp5004
g1457
s(g648
g300
g239
tp5005
g1459
s(g546
g239
g1400
tp5006
g1463
s(g648
g238
g1400
tp5007
g1823
s(g546
g238
g1400
tp5008
g1467
s(g238
g546
g239
tp5009
g1469
s(g1400
g426
g1400
tp5010
g1471
s(g426
g1403
g1400
tp5011
g1825
s(g648
g648
g1400
tp5012
g1475
s(g1403
g300
g239
tp5013
g1477
s(g1400
g239
g239
tp5014
g1479
s(g363
g648
g239
tp5015
g1481
s(g489
g546
g239
tp5016
g1485
s(g426
g238
g1400
tp5017
g1489
s(g489
g426
g1400
tp5018
g1493
s(g489
g648
g1400
tp5019
g1495
s(g1403
g489
g1400
tp5020
g1497
s(g1400
g238
g1400
tp5021
g1499
s(g1403
g239
g239
tp5022
g1501
s(g1400
g1403
g239
tp5023
g1505
s(g648
g300
g1400
tp5024
g1507
s(g300
g546
g1400
tp5025
g1527
s(g546
g238
g239
tp5026
g1513
s(g1403
g648
g239
tp5027
g1515
s(g546
g1400
g1400
tp5028
g1517
s(g300
g426
g239
tp5029
g1519
s(g426
g426
g239
tp5030
g1521
s(g426
g363
g239
tp5031
g1523
s(g363
g648
g1400
tp5032
g1525
s(g238
g489
g1400
tp5033
g1835
s(g546
g489
g239
tp5034
g1531
s(g648
g546
g1400
tp5035
g1533
s(g546
g239
g239
tp5036
g1535
s(g489
g648
g239
tp5037
g1537
s(g239
g489
g239
tp5038
g1673
s(g238
g546
g1400
tp5039
g1541
s(g1403
g239
g1400
tp5040
g1545
s(g1403
g300
g1400
tp5041
g1547
s(g1400
g546
g239
tp5042
g1749
s(g648
g1403
g1400
tp5043
g1553
s(g546
g1400
g239
tp5044
g1555
s(g1400
g363
g239
tp5045
g1659
s(g300
g426
g1400
tp5046
g1561
s(g426
g489
g239
tp5047
g1729
s(g1400
g238
g239
tp5048
g1567
s(g648
g546
g239
tp5049
g1571
s(g300
g546
g239
tp5050
g1573
s(g239
g489
g1400
tp5051
g1543
s(g648
g363
g1400
tp5052
g1579
s(g426
g363
g1400
tp5053
g1583
s(g1403
g1400
g1400
tp5054
g1775
s(g489
g489
g239
tp5055
g1843
s(g238
g1400
g1400
tp5056
g1589
s(g426
g546
g239
tp5057
g1593
s(g648
g1403
g239
tp5058
g1595
s(g363
g489
g1400
tp5059
g1597
s(g238
g648
g1400
tp5060
g1599
s(g300
g1400
g1400
tp5061
g1603
s(g489
g239
g239
tp5062
g1605
s(g239
g238
g239
tp5063
g1483
s(g1400
g546
g1400
tp5064
g1611
s(g239
g1403
g1400
tp5065
g1711
s(g1403
g1400
g239
tp5066
g1447
s(g426
g546
g1400
tp5067
g1619
s(g300
g363
g239
tp5068
g1607
s(g648
g489
g239
tp5069
g1623
s(g238
g239
g1400
tp5070
g1625
s(g300
g1400
g239
tp5071
g1627
s(g1400
g363
g1400
tp5072
g1629
s(g648
g363
g239
tp5073
g1631
s(g489
g363
g239
tp5074
g1849
s(g363
g363
g239
tp5075
g1635
s(g363
g238
g1400
tp5076
g1637
s(g238
g1400
g239
tp5077
g1639
s(g300
g239
g239
tp5078
g1785
s(g363
g489
g239
tp5079
g1643
s(g489
g1400
g1400
tp5080
g1645
s(g238
g1403
g1400
tp5081
g1647
s(g489
g239
g1400
tp5082
g1649
s(g426
g489
g1400
tp5083
g1651
s(g300
g363
g1400
tp5084
g1653
s(g300
g300
g1400
tp5085
g1699
s(g238
g239
g239
tp5086
g1657
s(g546
g546
g239
tp5087
g1661
s(g426
g648
g239
tp5088
g1667
s(g239
g1403
g239
tp5089
g1437
s(g363
g426
g1400
tp5090
g1671
s(g1403
g238
g1400
tp5091
g1675
s(g238
g426
g239
tp5092
g1677
s(g546
g1403
g239
tp5093
g1679
s(g300
g239
g1400
tp5094
g1809
s(g1400
g300
g239
tp5095
g1663
s(g648
g489
g1400
tp5096
g1687
s(g363
g1400
g239
tp5097
g1689
s(g238
g1403
g239
tp5098
g1691
s(g300
g238
g1400
tp5099
g1693
s(g648
g426
g239
tp5100
g1695
s(g363
g363
g1400
tp5101
g1701
s(g546
g546
g1400
tp5102
g1703
s(g426
g300
g1400
tp5103
g1705
s(g426
g1403
g239
tp5104
g1779
s(g1403
g426
g239
tp5105
g1709
s(g239
g546
g1400
tp5106
g1713
s(g489
g1400
g239
tp5107
g1715
s(g426
g648
g1400
tp5108
g1717
s(g546
g426
g1400
tp5109
g1719
s(g489
g363
g1400
tp5110
g1783
s(g1403
g238
g239
tp5111
g1723
s(g238
g363
g1400
tp5112
g1419
s(g546
g1403
g1400
tp5113
g1727
s(g1400
g489
g1400
tp5114
g1569
s(g363
g546
g1400
tp5115
g1731
s(g648
g1400
g1400
tp5116
g1867
s(g300
g238
g239
tp5117
g1735
s(g426
g239
g1400
tp5118
g1737
s(g238
g300
g239
tp5119
g1487
s(g363
g1403
g239
tp5120
g1743
s(g1400
g1403
g1400
tp5121
g1745
s(g300
g300
g239
tp5122
g1857
s(g1403
g1403
g1400
tp5123
g1751
s(g363
g426
g239
tp5124
g1753
s(g426
g300
g239
tp5125
g1755
s(g1403
g363
g1400
tp5126
g1791
s(g238
g426
g1400
tp5127
g1759
s(g363
g239
g1400
tp5128
g1591
s(g1403
g426
g1400
tp5129
g1763
s(g238
g489
g239
tp5130
g1767
s(g363
g1400
g1400
tp5131
g1769
s(g648
g426
g1400
tp5132
g1771
s(g546
g648
g239
tp5133
g1773
s(g300
g489
g239
tp5134
g1707
s(g238
g300
g1400
tp5135
g1581
s(g238
g238
g1400
tp5136
g1721
s(g238
g648
g239
tp5137
g1621
s(g363
g1403
g1400
tp5138
g1787
s(g363
g300
g239
tp5139
g1789
s(g1400
g648
g1400
tp5140
g1757
s(g239
g546
g239
tp5141
g1793
s(g546
g426
g239
tp5142
g1797
s(g546
g363
g239
tp5143
g1799
s(g489
g238
g239
tp5144
g1803
s(g489
g489
g1400
tp5145
g1805
s(g546
g300
g1400
tp5146
g1807
s(g648
g239
g239
tp5147
g1811
s(g426
g239
g239
tp5148
g1813
s(g546
g648
g1400
tp5149
g1815
s(g239
g238
g1400
tp5150
g1563
s(g239
g1400
g239
tp5151
g1819
s(g1403
g1403
g239
tp5152
g1821
s(g239
g648
g1400
tp5153
g1465
s(g300
g489
g1400
tp5154
g1473
s(g1400
g489
g239
tp5155
g1827
s(g363
g239
g239
tp5156
g1503
s(g1400
g648
g239
tp5157
g1777
s(g426
g1400
g239
tp5158
g1833
s(g363
g546
g239
tp5159
g1685
s(g239
g426
g239
tp5160
g1837
s(g1403
g546
g1400
tp5161
g1839
s(g300
g1403
g1400
tp5162
g1841
s(g238
g363
g239
tp5163
g1829
s(g239
g426
g1400
tp5164
g1587
s(g546
g300
g239
tp5165
g1845
s(g238
g238
g239
tp5166
g1633
s(g239
g300
g239
tp5167
g1851
s(g363
g300
g1400
tp5168
g1855
s(g546
g363
g1400
tp5169
g1859
s(g489
g300
g239
tp5170
g1861
s(g648
g238
g239
tp5171
g1881
s(g363
g238
g239
tp5172
g1733
s(g239
g363
g1400
tp5173
g1869
s(g648
g239
g1400
tp5174
g1871
s(g1400
g1400
g1400
tp5175
g1873
s(g489
g1403
g1400
tp5176
g1875
s(g239
g1400
g1400
tp5177
g1879
s(g239
g648
g239
tp5178
g1865
s(g1400
g426
g239
tp5179
g1883
ssg2702
(dp5180
(g3736
g1400
tp5181
(lp5182
g21
(g22
(I0
tp5183
g24
tp5184
Rp5185
(I1
(I3
tp5186
g248
I00
S"4\x7f\xc3%\xd4\xa1\xe8?r\xa3\x10L\xc5\xa0\x1b\xc0'\xc7\xab\x80&P\x14@"
p5187
tp5188
bas(g3851
g239
tp5189
g3414
s(g3718
g239
tp5190
g3476
s(g3721
g1400
tp5191
(lp5192
g21
(g22
(I0
tp5193
g24
tp5194
Rp5195
(I1
(I3
tp5196
g248
I00
S"\xa44Q\xb5!B\x06@.\x89\x8e\xd3\xcb\x1a\x1d\xc0W''\xf6\n\xa2\x13@"
p5197
tp5198
bas(g3718
g1400
tp5199
(lp5200
g21
(g22
(I0
tp5201
g24
tp5202
Rp5203
(I1
(I3
tp5204
g248
I00
S'\xbeY\xc3\x8es\x83\xa8?\xc2\n\xd3\x89"\x1e \xc0\x86=\xc6\x0c\xb0\\\x04@'
p5205
tp5206
bas(g3721
g239
tp5207
(lp5208
g21
(g22
(I0
tp5209
g24
tp5210
Rp5211
(I1
(I3
tp5212
g248
I00
S"\xa84Q\xb5!B\x06@/\x89\x8e\xd3\xcb\x1a\x1d\xc0X''\xf6\n\xa2\x13@"
p5213
tp5214
bag21
(g22
(I0
tp5215
g24
tp5216
Rp5217
(I1
(I3
tp5218
g259
I00
S'd"x~\xf6\x99\x00@\xe4\xfe\xc6G\x1d\xfb\x1b\xc0\x98\xbd;g\xb8\x8f\xf5\xbf'
p5219
tp5220
bag21
(g22
(I0
tp5221
g24
tp5222
Rp5223
(I1
(I3
tp5224
g259
I00
S'\x05\x83iK\x01\x86\xfb?\x162zB{\xdc\x1a\xc0T\xd8\x04\x17\xd4b\xea\xbf'
p5225
tp5226
bag21
(g22
(I0
tp5227
g24
tp5228
Rp5229
(I1
(I3
tp5230
g259
I00
S"'\xc1{\xbc\xf6\x05\xf8?\x02^\x18\xdc\xb7\xac\x18\xc0o\x85MZ3\x91\xf3\xbf"
p5231
tp5232
bag21
(g22
(I0
tp5233
g24
tp5234
Rp5235
(I1
(I3
tp5236
g259
I00
S'2Z\xe1\xe97J\xf6?\\\x1e`@2v\x16\xc0\xc4\x0c\xcc\x14<\xf9\xf6\xbf'
p5237
tp5238
bag21
(g22
(I0
tp5239
g24
tp5240
Rp5241
(I1
(I3
tp5242
g259
I00
S'tx\x8as\xa8b\xed?\x9ej\x15\xfa\xf0{\x15\xc0@\xed\x9a-\x9eD\xf2\xbf'
p5243
tp5244
bag21
(g22
(I0
tp5245
g24
tp5246
Rp5247
(I1
(I3
tp5248
g259
I00
S"\xb2&6mg)\xe8?\x99\xe0G'\x16\xe0\x13\xc0\xc8oL\xf5\x17p\xe6\xbf"
p5249
tp5250
bag21
(g22
(I0
tp5251
g24
tp5252
Rp5253
(I1
(I3
tp5254
g259
I00
S'`\xc8Aw-\x81\xeb?/\xc3\xe6O\x04\xca\x10\xc0\x8a\xb7K)\x91{\xe4\xbf'
p5255
tp5256
bag21
(g22
(I0
tp5257
g24
tp5258
Rp5259
(I1
(I3
tp5260
g259
I00
S'\xe1\xc6\xc7\xa7\x12X\xe7?\x98\x99\xb0\x9a\xfb\xdb\x0b\xc0R\t\x1b)\xeae\xe0\xbf'
p5261
tp5262
bag21
(g22
(I0
tp5263
g24
tp5264
Rp5265
(I1
(I3
tp5266
g259
I00
S'p\xf1\xbdc^\x84\xf1?"\x88LL\xf9D\x06\xc0~w\r\xe9m\x0f\x19@'
p5267
tp5268
bas(g3720
g1400
tp5269
(lp5270
g21
(g22
(I0
tp5271
g24
tp5272
Rp5273
(I1
(I3
tp5274
g248
I00
S'\xae\x11\xd3m\xc9\x9e\x06@\xb2\xeb\xd9\xc2\xa0"\x19\xc0\xc8\xaar\xb7\x06=\x07@'
p5275
tp5276
bas(g3720
g239
tp5277
g3538
s(g74
g239
tp5278
(lp5279
g21
(g22
(I0
tp5280
g24
tp5281
Rp5282
(I1
(I3
tp5283
g248
I00
S'@r\xf0!-"\r@\xa8\xad/;\xa5N\x1a\xc0t\x87\xde\xc3\xcc{\x03@'
p5284
tp5285
bag21
(g22
(I0
tp5286
g24
tp5287
Rp5288
(I1
(I3
tp5289
g259
I00
S'\xe8\x81y:#O\t@W\xfe\xf6\x1e\x16\xa2\x1a\xc0\x92%c\x11\x9c\x0e\x06@'
p5290
tp5291
bag21
(g22
(I0
tp5292
g24
tp5293
Rp5294
(I1
(I3
tp5295
g259
I00
S'\xba\x8d\x1a\xa2f&\x03@$\xbc\xba{lE\x1a\xc0172\n\x8c\xab\x03@'
p5296
tp5297
bag21
(g22
(I0
tp5298
g24
tp5299
Rp5300
(I1
(I3
tp5301
g259
I00
S'\xb9\x81\xdfb\xdf\x92\xfe?\x1a\xe3?2\xb6\xec\x1a\xc0B\x1b\x81\xfa\x93C\xfa?'
p5302
tp5303
bag21
(g22
(I0
tp5304
g24
tp5305
Rp5306
(I1
(I3
tp5307
g259
I00
S'{\xe7\xcc\xce\x02,\xf5?\xeb\x85\xf2\xb4\xc9\x08\x19\xc0\xcd\x97\xf6\xcc\xe4z\x00@'
p5308
tp5309
bag21
(g22
(I0
tp5310
g24
tp5311
Rp5312
(I1
(I3
tp5313
g259
I00
S'o\xd6\x82\xea\x7f\xb2\xed?9\xf2C\x0b?\xfd\x16\xc0(?d\xe9@\xb5\x02@'
p5314
tp5315
bag21
(g22
(I0
tp5316
g24
tp5317
Rp5318
(I1
(I3
tp5319
g259
I00
S'&>c9\x01,\xeb?\xb2\xc2\xf0\x02\xce\x8e\x14\xc0\xd8p\xbb2\x14\xd2\x03@'
p5320
tp5321
bag21
(g22
(I0
tp5322
g24
tp5323
Rp5324
(I1
(I3
tp5325
g259
I00
S'\xc6\x05\xbdtg\xd9\xe2?F\xdf\x9d@\\\xf3\x11\xc0\x1a\xc4.\xbb\xcc\x12\x02@'
p5326
tp5327
bag21
(g22
(I0
tp5328
g24
tp5329
Rp5330
(I1
(I3
tp5331
g259
I00
S'3z\xed\x8eN)\xe4?\x0c\x96\xd4\xa2\x0e\xd0\r\xc0\xbd%\xf5{\xe9\xf9\x03@'
p5332
tp5333
bag21
(g22
(I0
tp5334
g24
tp5335
Rp5336
(I1
(I3
tp5337
g259
I00
S'\xaf0\xe9h\xba~\xee?k\xbb\xd8\xd4\xd0g\t\xc09\x9ey\xed\xb06\x06@'
p5338
tp5339
bag21
(g22
(I0
tp5340
g24
tp5341
Rp5342
(I1
(I3
tp5343
g259
I00
S'\xf4\xfdJ\x1a(#\xec?H"\x9cD\x1aE\x05\xc0.\xa9\x0b\x87\xf8\xe1\x02@'
p5344
tp5345
bas(g3735
g239
tp5346
g3364
s(g3735
g1400
tp5347
(lp5348
g21
(g22
(I0
tp5349
g24
tp5350
Rp5351
(I1
(I3
tp5352
g248
I00
S'\xb4?\xa0\xf5\xfd\x7f\xe0?h\xc66\x80\xf9\x11\x1e\xc0JS\xf59\x81\xee\xdd?'
p5353
tp5354
bas(g3851
g1400
tp5355
(lp5356
g21
(g22
(I0
tp5357
g24
tp5358
Rp5359
(I1
(I3
tp5360
g248
I00
S"\x9e\x16w\xc0\xa2\xef\x0b@\x8d\xd6X\xcc(q\x18\xc0\xed\x06\xcf\r\xdc'\xf3?"
p5361
tp5362
bas(g74
g1400
tp5363
(lp5364
g21
(g22
(I0
tp5365
g24
tp5366
Rp5367
(I1
(I3
tp5368
g248
I00
S'?r\xf0!-"\r@\xa4\xad/;\xa5N\x1a\xc0t\x87\xde\xc3\xcc{\x03@'
p5369
tp5370
bas(g3719
g1400
tp5371
(lp5372
g21
(g22
(I0
tp5373
g24
tp5374
Rp5375
(I1
(I3
tp5376
g248
I00
S'E\xd2\xc6\xcf\x15z\n@a\xbe\x12mR\xe3\x15\xc0L\x15_\x8f\xaf9\x11@'
p5377
tp5378
bas(g3719
g239
tp5379
g3638
s(g3736
g239
tp5380
g3594
ssg2776
(dp5381
(g489
g300
tp5382
g2872
s(g489
g363
tp5383
g2874
s(g648
g648
tp5384
g3066
s(g238
g238
tp5385
g2878
s(g239
g489
tp5386
g2992
s(g239
g648
tp5387
g3076
s(g300
g648
tp5388
g2884
s(g489
g426
tp5389
g2886
s(g546
g238
tp5390
g2888
s(g363
g363
tp5391
g2890
s(g648
g1400
tp5392
g2892
s(g363
g300
tp5393
g2904
s(g1403
g489
tp5394
g3050
s(g426
g239
tp5395
g2908
s(g1400
g363
tp5396
g2946
s(g648
g300
tp5397
g2912
s(g238
g1403
tp5398
g2914
s(g489
g489
tp5399
g2916
s(g1403
g300
tp5400
g3014
s(g648
g239
tp5401
g2922
s(g1403
g1400
tp5402
g2902
s(g363
g546
tp5403
g2926
s(g426
g426
tp5404
g2928
s(g648
g1403
tp5405
g2930
s(g1403
g363
tp5406
g3016
s(g1400
g238
tp5407
g2936
s(g300
g300
tp5408
g3116
s(g300
g363
tp5409
g2940
s(g546
g363
tp5410
g2942
s(g1403
g239
tp5411
g2948
s(g426
g648
tp5412
g2950
s(g238
g489
tp5413
g2958
s(g300
g426
tp5414
g2960
s(g238
g648
tp5415
g2962
s(g300
g239
tp5416
g2964
s(g1403
g1403
tp5417
g2966
s(g300
g1403
tp5418
g3098
s(g239
g1403
tp5419
g3100
s(g239
g426
tp5420
g2972
s(g546
g1400
tp5421
g2974
s(g239
g546
tp5422
g2976
s(g300
g238
tp5423
g2978
s(g238
g426
tp5424
g2980
s(g238
g546
tp5425
g2984
s(g546
g648
tp5426
g2988
s(g1400
g239
tp5427
g2990
s(g363
g239
tp5428
g2994
s(g1403
g546
tp5429
g2996
s(g239
g300
tp5430
g2998
s(g238
g300
tp5431
g3000
s(g648
g238
tp5432
g2882
s(g300
g1400
tp5433
g3004
s(g546
g489
tp5434
g3006
s(g363
g648
tp5435
g3008
s(g363
g1400
tp5436
g3010
s(g1400
g489
tp5437
g2918
s(g1400
g648
tp5438
g2932
s(g546
g239
tp5439
g3018
s(g489
g546
tp5440
g3020
s(g426
g546
tp5441
g3022
s(g1400
g1400
tp5442
g3026
s(g238
g363
tp5443
g3108
s(g1400
g426
tp5444
g3032
s(g648
g363
tp5445
g3034
s(g1400
g546
tp5446
g3036
s(g426
g1403
tp5447
g3038
s(g489
g648
tp5448
g3040
s(g238
g239
tp5449
g3042
s(g426
g363
tp5450
g3044
s(g363
g426
tp5451
g3046
s(g648
g426
tp5452
g3048
s(g1400
g300
tp5453
g2906
s(g648
g546
tp5454
g3052
s(g489
g1400
tp5455
g3056
s(g546
g546
tp5456
g3058
s(g300
g489
tp5457
g3060
s(g426
g300
tp5458
g3062
s(g648
g489
tp5459
g3064
s(g239
g238
tp5460
g3012
s(g300
g546
tp5461
g3068
s(g489
g239
tp5462
g3070
s(g238
g1400
tp5463
g3074
s(g546
g426
tp5464
g3078
s(g363
g238
tp5465
g3080
s(g239
g1400
tp5466
g3082
s(g546
g1403
tp5467
g3002
s(g1403
g238
tp5468
g3086
s(g489
g1403
tp5469
g3088
s(g239
g239
tp5470
g3092
s(g546
g300
tp5471
g3094
s(g363
g1403
tp5472
g3096
s(g426
g489
tp5473
g2970
s(g1403
g648
tp5474
g2910
s(g239
g363
tp5475
g3102
s(g489
g238
tp5476
g3028
s(g1400
g1403
tp5477
g3110
s(g426
g238
tp5478
g3112
s(g363
g489
tp5479
g3114
s(g426
g1400
tp5480
g3118
s(g1403
g426
tp5481
g3120
ssg2778
(dp5482
g1403
(lp5483
I0
aI0
aI0
aI0
aI0
aI0
aI00
aI01
aI00
aI01
aI00
asg1400
(lp5484
I0
aI0
aI0
aI0
aI0
aI0
aI00
aI01
aI00
aI01
aI00
asg239
(lp5485
I0
aI0
aI0
aI0
aI0
aI0
aI00
aI01
aI01
aI01
aI00
asg363
(lp5486
I0
aI0
aI0
ag2097
(g248
S'0Ls\xa1\xeb\xb8\xd8\xbf'
p5487
tp5488
Rp5489
ag2097
(g248
S'T\xd2*\xb3\xf7@\x1e\xc0'
p5490
tp5491
Rp5492
ag2097
(g248
S'\x96\xdd\x8b\xa1]m\x11@'
p5493
tp5494
Rp5495
aI01
aI00
aI00
aI01
aI00
asg648
(lp5496
I0
aI0
aI0
ag2097
(g248
S'\x14\xc8\x07\xc5\xec\xc6\x05@'
p5497
tp5498
Rp5499
ag2097
(g248
S'\xc2,S\xb6l\xb8\x17\xc0'
p5500
tp5501
Rp5502
ag2097
(g248
S'\x0e\xe6\xe6#ZB\x16@'
p5503
tp5504
Rp5505
aI01
aI00
aI00
aI01
aI00
asg238
(lp5506
I0
aI0
aI0
ag2097
(g248
S'\x9eIiI\x85t\xf1?'
p5507
tp5508
Rp5509
ag2097
(g248
S'\xe20\x1bK)>\x1c\xc0'
p5510
tp5511
Rp5512
ag2097
(g248
S'\xecr\xeeN\xc8\r\x15@'
p5513
tp5514
Rp5515
aI01
aI00
aI00
aI00
aI00
asg546
(lp5516
I0
aI0
aI0
ag2097
(g248
S'\xf4\xcc\x89`\xa4p\xef?'
p5517
tp5518
Rp5519
ag2097
(g248
S'{\xcciQ\x8b\x97\x1e\xc0'
p5520
tp5521
Rp5522
ag2097
(g248
S'udx\x15\x08E\x01@'
p5523
tp5524
Rp5525
aI01
aI00
aI00
aI00
aI00
asg489
(lp5526
I0
aI0
aI0
ag2097
(g248
S'\x8c\xe1\xf7\xaa\x93\xf6\x00@'
p5527
tp5528
Rp5529
ag2097
(g248
S'\xd6J\x1f\xc4\x19M\x17\xc0'
p5530
tp5531
Rp5532
ag2097
(g248
S'\xd4\\\xde}L}\xe8?'
p5533
tp5534
Rp5535
aI01
aI00
aI00
aI01
aI00
asg591
(lp5536
I0
aI0
aI0
ag2097
(g248
S'\x16-\x83\xe6\xf3\xdb\x07@'
p5537
tp5538
Rp5539
ag2097
(g248
S'\xbapr\xce\x9b\xc1\x1f\xc0'
p5540
tp5541
Rp5542
ag2097
(g248
S'\x08\xe65\x0e\xcc\x93\x17@'
p5543
tp5544
Rp5545
aI01
aI00
aI00
aI01
aI00
asg426
(lp5546
I0
aI0
aI0
ag2097
(g248
S'<MK\x03\x8co\n@'
p5547
tp5548
Rp5549
ag2097
(g248
S'\x0b|\xd1\xa9\r\xad\x17\xc0'
p5550
tp5551
Rp5552
ag2097
(g248
S'\xe2\r\xf5/O\xfc\x13@'
p5553
tp5554
Rp5555
aI01
aI00
aI01
aI01
aI00
asg300
(lp5556
I0
aI0
aI0
ag2097
(g248
S'\x9d\xdf\x14\x03\xda\x99\x0c@'
p5557
tp5558
Rp5559
ag2097
(g248
S'\xe0Px%\x07\xc5\x15\xc0'
p5560
tp5561
Rp5562
ag2097
(g248
S'^\xf5?X^\x95\xf4?'
p5563
tp5564
Rp5565
aI01
aI00
aI00
aI00
aI00
assg2863
(dp5566
sg2865
g117
sg2866
g2867
sg2869
(dp5567
(g489
g300
tp5568
(lp5569
I00
aI00
aI00
as(g489
g363
tp5570
(lp5571
I00
aI00
aI00
as(g238
g591
tp5572
(lp5573
I00
aI00
aI00
as(g238
g238
tp5574
(lp5575
I00
aI00
aI00
as(g648
g591
tp5576
(lp5577
I00
aI00
aI00
as(g648
g238
tp5578
(lp5579
I00
aI00
aI00
as(g300
g648
tp5580
(lp5581
I00
aI00
aI00
as(g489
g426
tp5582
(lp5583
I00
aI00
aI00
as(g546
g238
tp5584
(lp5585
I00
aI01
aI00
as(g363
g363
tp5586
(lp5587
I00
aI00
aI00
as(g648
g1400
tp5588
(lp5589
g2900
aI00
aI01
as(g1403
g1400
tp5590
(lp5591
I00
aI00
aI00
as(g363
g300
tp5592
(lp5593
I00
aI00
aI00
as(g1400
g300
tp5594
(lp5595
I00
aI00
aI00
as(g426
g239
tp5596
(lp5597
I00
aI00
aI01
as(g1403
g648
tp5598
(lp5599
I00
aI00
aI00
as(g648
g300
tp5600
(lp5601
I00
aI01
aI00
as(g238
g1403
tp5602
(lp5603
g2900
aI00
aI00
as(g489
g489
tp5604
(lp5605
I00
aI00
aI00
as(g1400
g489
tp5606
(lp5607
I00
aI00
aI00
as(g591
g648
tp5608
(lp5609
I00
aI00
aI00
as(g648
g239
tp5610
(lp5611
I00
aI00
aI00
as(g546
g591
tp5612
(lp5613
I00
aI00
aI00
as(g363
g546
tp5614
(lp5615
I00
aI00
aI00
as(g426
g426
tp5616
(lp5617
I00
aI00
aI00
as(g648
g1403
tp5618
(lp5619
g2900
aI00
aI00
as(g1400
g648
tp5620
(lp5621
I00
aI00
aI00
as(g1400
g591
tp5622
(lp5623
I00
aI00
aI00
as(g1400
g238
tp5624
(lp5625
I00
aI00
aI00
as(g591
g239
tp5626
(lp5627
I00
aI00
aI01
as(g300
g363
tp5628
(lp5629
I00
aI00
aI00
as(g546
g363
tp5630
(lp5631
I00
aI00
aI00
as(g591
g546
tp5632
(lp5633
I00
aI01
aI00
as(g1400
g363
tp5634
(lp5635
I00
aI00
aI00
as(g1403
g239
tp5636
(lp5637
I00
aI00
aI00
as(g426
g648
tp5638
(lp5639
I00
aI00
aI00
as(g363
g591
tp5640
(lp5641
I00
aI00
aI00
as(g1403
g591
tp5642
(lp5643
I00
aI00
aI00
as(g591
g1403
tp5644
(lp5645
g2900
aI00
aI00
as(g238
g489
tp5646
(lp5647
I00
aI00
aI00
as(g300
g426
tp5648
(lp5649
I00
aI00
aI00
as(g238
g648
tp5650
(lp5651
I00
aI00
aI00
as(g300
g239
tp5652
(lp5653
I00
aI00
aI00
as(g1403
g1403
tp5654
(lp5655
I00
aI00
aI00
as(g591
g363
tp5656
(lp5657
I00
aI00
aI00
as(g426
g489
tp5658
(lp5659
I00
aI00
aI00
as(g239
g426
tp5660
(lp5661
I00
aI00
aI00
as(g546
g1400
tp5662
(lp5663
g2900
aI00
aI01
as(g239
g546
tp5664
(lp5665
I00
aI00
aI00
as(g300
g238
tp5666
(lp5667
I00
aI00
aI00
as(g238
g426
tp5668
(lp5669
I00
aI00
aI00
as(g591
g1400
tp5670
(lp5671
g2900
aI00
aI01
as(g238
g546
tp5672
(lp5673
I00
aI01
aI00
as(g591
g591
tp5674
(lp5675
I00
aI00
aI00
as(g546
g648
tp5676
(lp5677
I00
aI00
aI00
as(g1400
g239
tp5678
(lp5679
I00
aI00
aI00
as(g239
g489
tp5680
(lp5681
I00
aI00
aI00
as(g363
g239
tp5682
(lp5683
I00
aI00
aI00
as(g1403
g546
tp5684
(lp5685
I00
aI00
aI00
as(g239
g300
tp5686
(lp5687
I00
aI00
aI00
as(g238
g300
tp5688
(lp5689
I00
aI00
aI00
as(g546
g1403
tp5690
(lp5691
g2900
aI00
aI00
as(g300
g1400
tp5692
(lp5693
g2900
aI00
aI01
as(g546
g489
tp5694
(lp5695
I00
aI00
aI00
as(g363
g648
tp5696
(lp5697
I00
aI00
aI00
as(g363
g1400
tp5698
(lp5699
g2900
aI00
aI01
as(g239
g238
tp5700
(lp5701
I00
aI00
aI00
as(g1403
g300
tp5702
(lp5703
I00
aI00
aI00
as(g1403
g363
tp5704
(lp5705
I00
aI00
aI00
as(g546
g239
tp5706
(lp5707
I00
aI00
aI00
as(g489
g546
tp5708
(lp5709
I00
aI00
aI00
as(g426
g546
tp5710
(lp5711
I00
aI00
aI00
as(g239
g591
tp5712
(lp5713
I00
aI00
aI00
as(g1400
g1400
tp5714
(lp5715
I00
aI00
aI00
as(g489
g238
tp5716
(lp5717
I00
aI00
aI00
as(g426
g591
tp5718
(lp5719
I00
aI00
aI00
as(g1400
g426
tp5720
(lp5721
I00
aI00
aI00
as(g648
g363
tp5722
(lp5723
I00
aI00
aI00
as(g1400
g546
tp5724
(lp5725
I00
aI00
aI00
as(g426
g1403
tp5726
(lp5727
g2900
aI00
aI00
as(g489
g648
tp5728
(lp5729
I00
aI00
aI00
as(g238
g239
tp5730
(lp5731
I00
aI00
aI00
as(g426
g363
tp5732
(lp5733
I00
aI00
aI00
as(g363
g426
tp5734
(lp5735
I00
aI00
aI00
as(g648
g426
tp5736
(lp5737
I00
aI00
aI00
as(g1403
g489
tp5738
(lp5739
I00
aI00
aI00
as(g648
g546
tp5740
(lp5741
I00
aI00
aI00
as(g591
g489
tp5742
(lp5743
I00
aI00
aI00
as(g489
g1400
tp5744
(lp5745
g2900
aI00
aI01
as(g546
g546
tp5746
(lp5747
I00
aI00
aI00
as(g300
g489
tp5748
(lp5749
I00
aI00
aI00
as(g426
g300
tp5750
(lp5751
I00
aI01
aI00
as(g648
g489
tp5752
(lp5753
I00
aI00
aI00
as(g648
g648
tp5754
(lp5755
I00
aI00
aI00
as(g300
g546
tp5756
(lp5757
I00
aI00
aI00
as(g489
g239
tp5758
(lp5759
I00
aI00
aI00
as(g591
g426
tp5760
(lp5761
I00
aI00
aI00
as(g238
g1400
tp5762
(lp5763
g2900
aI00
aI01
as(g239
g648
tp5764
(lp5765
I00
aI00
aI00
as(g546
g426
tp5766
(lp5767
I00
aI00
aI00
as(g363
g238
tp5768
(lp5769
I00
aI00
aI00
as(g239
g1400
tp5770
(lp5771
I00
aI00
aI00
as(g489
g591
tp5772
(lp5773
I00
aI00
aI00
as(g1403
g238
tp5774
(lp5775
I00
aI00
aI00
as(g489
g1403
tp5776
(lp5777
g2900
aI00
aI00
as(g591
g238
tp5778
(lp5779
I00
aI00
aI00
as(g239
g239
tp5780
(lp5781
I00
aI00
aI00
as(g546
g300
tp5782
(lp5783
I00
aI00
aI00
as(g363
g1403
tp5784
(lp5785
g2900
aI00
aI00
as(g300
g1403
tp5786
(lp5787
g2900
aI00
aI00
as(g239
g1403
tp5788
(lp5789
I00
aI00
aI00
as(g239
g363
tp5790
(lp5791
I00
aI00
aI00
as(g591
g300
tp5792
(lp5793
I00
aI01
aI00
as(g300
g591
tp5794
(lp5795
I00
aI00
aI00
as(g238
g363
tp5796
(lp5797
I00
aI00
aI00
as(g1400
g1403
tp5798
(lp5799
I00
aI00
aI00
as(g426
g238
tp5800
(lp5801
I00
aI00
aI00
as(g363
g489
tp5802
(lp5803
I00
aI00
aI00
as(g300
g300
tp5804
(lp5805
I00
aI00
aI00
as(g426
g1400
tp5806
(lp5807
g2900
aI00
aI01
as(g1403
g426
tp5808
(lp5809
I00
aI00
aI00
assg738
g3717
sg3121
(itrajectory_representation.predicates.pick_in_way
PickInWay
p5810
(dp5811
g236
(dp5812
g363
g4227
sg648
g4270
sg238
g4289
sg546
g4314
sg489
g4333
sg591
g4358
sg426
g3832
sg300
g4365
ssg705
(dp5813
g363
(lp5814
sg648
(lp5815
sg238
(lp5816
Vrectangular_packing_box1
p5817
asg546
(lp5818
Vsquare_packing_box3
p5819
aVrectangular_packing_box3
p5820
asg489
(lp5821
sg591
(lp5822
sg426
(lp5823
sg300
(lp5824
Vsquare_packing_box3
p5825
aVsquare_packing_box1
p5826
aVrectangular_packing_box2
p5827
assg738
(lp5828
g489
ag648
ag591
ag363
ag1403
ag239
ag1400
ag426
ag1403
ag239
ag1400
ag1403
ag239
ag1400
ag1403
ag239
ag1400
ag1403
ag239
ag1400
ag1403
ag239
ag1400
ag1403
ag239
ag1400
ag1403
ag239
ag1400
asg741
g3722
sg119
(dp5829
sg776
g3734
sg1328
Nsg1334
g3734
sg1331
(dp5830
sg1333
I8
sg1395
I01
sg1335
Nsg1336
(dp5831
(g489
g300
tp5832
I00
s(g489
g363
tp5833
I00
s(g238
g591
tp5834
I00
s(g238
g238
tp5835
I00
s(g648
g591
tp5836
I00
s(g648
g238
tp5837
I00
s(g300
g648
tp5838
I00
s(g489
g426
tp5839
I00
s(g546
g238
tp5840
I01
s(g363
g363
tp5841
I00
s(g648
g1400
tp5842
I00
s(g1403
g1400
tp5843
I00
s(g363
g300
tp5844
I00
s(g1400
g300
tp5845
I00
s(g426
g239
tp5846
I00
s(g1403
g648
tp5847
I00
s(g648
g300
tp5848
I01
s(g238
g1403
tp5849
I00
s(g489
g489
tp5850
I00
s(g1400
g489
tp5851
I00
s(g591
g648
tp5852
I00
s(g648
g239
tp5853
I00
s(g546
g591
tp5854
I00
s(g363
g546
tp5855
I00
s(g426
g426
tp5856
I00
s(g648
g1403
tp5857
I00
s(g1400
g648
tp5858
I00
s(g1400
g591
tp5859
I00
s(g1400
g238
tp5860
I00
s(g591
g239
tp5861
I00
s(g300
g363
tp5862
I00
s(g546
g363
tp5863
I00
s(g591
g546
tp5864
I01
s(g1400
g363
tp5865
I00
s(g1403
g239
tp5866
I00
s(g426
g648
tp5867
I00
s(g363
g591
tp5868
I00
s(g1403
g591
tp5869
I00
s(g591
g1403
tp5870
I00
s(g238
g489
tp5871
I00
s(g300
g426
tp5872
I00
s(g238
g648
tp5873
I00
s(g300
g239
tp5874
I00
s(g1403
g1403
tp5875
I00
s(g591
g363
tp5876
I00
s(g426
g489
tp5877
I00
s(g239
g426
tp5878
I00
s(g546
g1400
tp5879
I00
s(g239
g546
tp5880
I00
s(g300
g238
tp5881
I00
s(g238
g426
tp5882
I00
s(g591
g1400
tp5883
I00
s(g238
g546
tp5884
I01
s(g591
g591
tp5885
I00
s(g546
g648
tp5886
I00
s(g1400
g239
tp5887
I00
s(g239
g489
tp5888
I00
s(g363
g239
tp5889
I00
s(g1403
g546
tp5890
I00
s(g239
g300
tp5891
I00
s(g238
g300
tp5892
I00
s(g546
g1403
tp5893
I00
s(g300
g1400
tp5894
I00
s(g546
g489
tp5895
I00
s(g363
g648
tp5896
I00
s(g363
g1400
tp5897
I00
s(g239
g238
tp5898
I00
s(g1403
g300
tp5899
I00
s(g1403
g363
tp5900
I00
s(g546
g239
tp5901
I00
s(g489
g546
tp5902
I00
s(g426
g546
tp5903
I00
s(g239
g591
tp5904
I00
s(g1400
g1400
tp5905
I00
s(g489
g238
tp5906
I00
s(g426
g591
tp5907
I00
s(g1400
g426
tp5908
I00
s(g648
g363
tp5909
I00
s(g1400
g546
tp5910
I00
s(g426
g1403
tp5911
I00
s(g489
g648
tp5912
I00
s(g238
g239
tp5913
I00
s(g426
g363
tp5914
I00
s(g363
g426
tp5915
I00
s(g648
g426
tp5916
I00
s(g1403
g489
tp5917
I00
s(g648
g546
tp5918
I00
s(g591
g489
tp5919
I00
s(g489
g1400
tp5920
I00
s(g546
g546
tp5921
I00
s(g300
g489
tp5922
I00
s(g426
g300
tp5923
I01
s(g648
g489
tp5924
I00
s(g648
g648
tp5925
I00
s(g300
g546
tp5926
I00
s(g489
g239
tp5927
I00
s(g591
g426
tp5928
I00
s(g238
g1400
tp5929
I00
s(g239
g648
tp5930
I00
s(g546
g426
tp5931
I00
s(g363
g238
tp5932
I00
s(g239
g1400
tp5933
I00
s(g489
g591
tp5934
I00
s(g1403
g238
tp5935
I00
s(g489
g1403
tp5936
I00
s(g591
g238
tp5937
I00
s(g239
g239
tp5938
I00
s(g546
g300
tp5939
I00
s(g363
g1403
tp5940
I00
s(g300
g1403
tp5941
I00
s(g239
g1403
tp5942
I00
s(g239
g363
tp5943
I00
s(g591
g300
tp5944
I01
s(g300
g591
tp5945
I00
s(g238
g363
tp5946
I00
s(g1400
g1403
tp5947
I00
s(g426
g238
tp5948
I00
s(g363
g489
tp5949
I00
s(g300
g300
tp5950
I00
s(g426
g1400
tp5951
I00
s(g1403
g426
tp5952
I00
ssg1394
Nsbsg3267
g21
(g22
(I0
tp5953
g24
tp5954
Rp5955
(I1
(I1
I3
tp5956
g248
I00
S"Cb\x96\x81\xd9\x80\t@O/\xf1\x15\xd10\x1d\xc0>\xa53\xe5'\xc1\x10@"
p5957
tp5958
bsg3274
(itrajectory_representation.predicates.is_holding_goal_entity
IsHoldingGoalEntity
p5959
(dp5960
g2866
g2867
sg1335
Nsbsg3277
(dp5961
sg3279
g3722
sbasS'seed'
p5962
NsS'state_prime'
p5963
(lp5964
g3280
asS'problem_idx'
p5965
I236
sb.