(itrajectory_representation.trajectory
Trajectory
p0
(dp1
S'rewards'
p2
(lp3
I10
asS'actions'
p4
(lp5
(itrajectory_representation.operator
Operator
p6
(dp7
S'is_skeleton'
p8
I00
sS'discrete_parameters'
p9
(dp10
S'object'
p11
Vsquare_packing_box1
p12
sS'two_arm_place_region'
p13
S'home_region'
p14
sS'two_arm_place_object'
p15
Vsquare_packing_box1
p16
ssS'type'
p17
S'two_arm_pick_two_arm_place'
p18
sS'continuous_parameters'
p19
(dp20
S'q_goal'
p21
cnumpy.core.multiarray
_reconstruct
p22
(cnumpy
ndarray
p23
(I0
tp24
S'b'
p25
tp26
Rp27
(I1
(I3
tp28
cnumpy
dtype
p29
(S'f8'
p30
I0
I1
tp31
Rp32
(I3
S'<'
p33
NNNI-1
I-1
I0
tp34
bI00
S'\xdf\xa5\xe0\xb3\x9f\xa3\xf6?U]H*Z\x80\x18\xc0\x10\x1fZ\xe2\xae\xc0\x04@'
p35
tp36
bsS'place'
p37
(dp38
g21
g22
(g23
(I0
tp39
g25
tp40
Rp41
(I1
(I3
tp42
g32
I00
S'm\xd2d\x1f\tX\x06@ ;\xa2(\x05\x0b\xba\xbf\x1et6\x86\xcd\xf0\x0b@'
p43
tp44
bssS'pick'
p45
(dp46
g21
g27
sssS'low_level_motion'
p47
(lp48
g22
(g23
(I0
tp49
g25
tp50
Rp51
(I1
(I3
tp52
g32
I00
S'\xe1U\x93\xca\x1b\x82\xfa?\x05\xac\xf2\x0e\x0b\xe4\x18\xc0\x0cS\x18\x99\x0f\xbe\x17@'
p53
tp54
bag22
(g23
(I0
tp55
g25
tp56
Rp57
(I1
(I3
tp58
g29
(S'f8'
p59
I0
I1
tp60
Rp61
(I3
S'<'
p62
NNNI-1
I-1
I0
tp63
bI00
S'JyH\x8ez\xd6\xfa?\xb3\xf7h\x83\xea\xba\x1a\xc0u\xf9Uf\xb7m\xe0?'
p64
tp65
bag22
(g23
(I0
tp66
g25
tp67
Rp68
(I1
(I3
tp69
g61
I00
S'\xc6\xf1T\x16)\x02\xfe?\xa8\x7fQ\xf5\xbb\x10\x19\xc0\xa38\tS\x83\x84\x05@'
p70
tp71
bag27
ag27
asbasS'filename'
p72
S''
p73
sS'states'
p74
(lp75
(itrajectory_representation.shortest_path_pick_and_place_state
ShortestPathPaPState
p76
(dp77
S'place_used'
p78
(dp79
(g16
g14
tp80
(itrajectory_representation.operator
Operator
p81
(dp82
g8
I01
sg9
(dp83
S'region'
p84
g14
sg11
g16
ssg17
S'two_arm_place'
p85
sg19
(dp86
g21
g22
(g23
(I0
tp87
g25
tp88
Rp89
(I1
(I3
tp90
g32
I00
S'm\xd2d\x1f\tX\x06@ ;\xa2(\x05\x0b\xba\xbf\x1et6\x86\xcd\xf0\x0b@'
p91
tp92
bssg47
(lp93
g22
(g23
(I0
tp94
g25
tp95
Rp96
(I1
(I3
tp97
g32
I00
S'\xbc\xa5\xe0\xb3\x9f\xa3\xf6?U]H*Z\x80\x18\xc0\x11\x1fZ\xe2\xae\xc0\x04@'
p98
tp99
bag22
(g23
(I0
tp100
g25
tp101
Rp102
(I1
(I3
tp103
g61
I00
S'f\xb4\x9c\x07\xac\xbf\xec?n\x96\x96\x9e\x90n\x16\xc0uo!\xa9\x9b\x82\x07@'
p104
tp105
bag22
(g23
(I0
tp106
g25
tp107
Rp108
(I1
(I3
tp109
g61
I00
S'&>c9\x01,\xeb?\xb2\xc2\xf0\x02\xce\x8e\x14\xc0\xd8p\xbb2\x14\xd2\x03@'
p110
tp111
bag22
(g23
(I0
tp112
g25
tp113
Rp114
(I1
(I3
tp115
g61
I00
S'\xc6\x05\xbdtg\xd9\xe2?F\xdf\x9d@\\\xf3\x11\xc0\x1a\xc4.\xbb\xcc\x12\x02@'
p116
tp117
bag22
(g23
(I0
tp118
g25
tp119
Rp120
(I1
(I3
tp121
g61
I00
S'\xe4u**\x0e5\xe9?\xaa\xfd\r\xed\xc4\xf6\r\xc0\x0fDE0\x1f\x0b\xfe?'
p122
tp123
bag22
(g23
(I0
tp124
g25
tp125
Rp126
(I1
(I3
tp127
g61
I00
S'\x06\x11,\xef\x98O\xe7??\x10\x01s=b\t\xc04\x92\xb79o\x8c\x00@'
p128
tp129
bag22
(g23
(I0
tp130
g25
tp131
Rp132
(I1
(I3
tp133
g61
I00
S'\x0e\n\xf3\x14\x91\x9e\xf3?\x1c\x0cAZ"\xfa\x05\xc0\xf8\x01c\x9bq\'\xfc?'
p134
tp135
bag22
(g23
(I0
tp136
g25
tp137
Rp138
(I1
(I3
tp139
g61
I00
S'\x8f(7\x81\xf2\x03\xfc?\x10z\xfa\xa9\xbc,\x01\xc0\xe0&b\xc5\xe2\x0c\xeb?'
p140
tp141
bag22
(g23
(I0
tp142
g25
tp143
Rp144
(I1
(I3
tp145
g61
I00
S'\x92\xc5\x92gr\x81\x00@2\x02d\xaf3\xa6\xf9\xbf}7\xa1\x8a4\xaa\xf0?'
p146
tp147
bag22
(g23
(I0
tp148
g25
tp149
Rp150
(I1
(I3
tp151
g61
I00
S'\x8e\xc4]\r\xbfu\x01@H=\xc5i\x98\xc1\xf0\xbf\x84\xa1-\xdd\x1a\xda\xf3?'
p152
tp153
bag22
(g23
(I0
tp154
g25
tp155
Rp156
(I1
(I3
tp157
g61
I00
S'vI#x\xce\xa4\x02@\x96)\x1b\x95;\xc7\xd0\xbf\xe8\xdc7%(\xbc\x03\xc0'
p158
tp159
bag89
ag89
asbssS'place_in_way'
p160
(itrajectory_representation.predicates.place_in_way
PlaceInWay
p161
(dp162
S'mc_path_to_entity'
p163
(dp164
(Vrectangular_packing_box3
p165
S'home_region'
p166
tp167
(lp168
g22
(g23
(I0
tp169
g25
tp170
Rp171
(I1
(I3
tp172
g29
(S'f8'
p173
I0
I1
tp174
Rp175
(I3
S'<'
p176
NNNI-1
I-1
I0
tp177
bI00
S'\x00\n7\x85\x19\x1c\x8b\xbf\x90\xb7k\x18\x82\xe8\x15\xc0\x94T\xf0\xdf\xe2\x01\x13@'
p178
tp179
bag22
(g23
(I0
tp180
g25
tp181
Rp182
(I1
(I3
tp183
g29
(S'f8'
p184
I0
I1
tp185
Rp186
(I3
S'<'
p187
NNNI-1
I-1
I0
tp188
bI00
S'\xbc\xcaD\xb3\xa5\xd0\xda?5\x9e\xd8L\xbc\xff\x15\xc0\x86v/\xef\x06;\xe9\xbf'
p189
tp190
bag22
(g23
(I0
tp191
g25
tp192
Rp193
(I1
(I3
tp194
g186
I00
S"\xb2&6mg)\xe8?\x99\xe0G'\x16\xe0\x13\xc0\xc8oL\xf5\x17p\xe6\xbf"
p195
tp196
bag22
(g23
(I0
tp197
g25
tp198
Rp199
(I1
(I3
tp200
g186
I00
S'`\xc8Aw-\x81\xeb?/\xc3\xe6O\x04\xca\x10\xc0\x8a\xb7K)\x91{\xe4\xbf'
p201
tp202
bag22
(g23
(I0
tp203
g25
tp204
Rp205
(I1
(I3
tp206
g186
I00
S'\xe1\xc6\xc7\xa7\x12X\xe7?\x98\x99\xb0\x9a\xfb\xdb\x0b\xc0R\t\x1b)\xeae\xe0\xbf'
p207
tp208
bag22
(g23
(I0
tp209
g25
tp210
Rp211
(I1
(I3
tp212
g186
I00
S'p\xf1\xbdc^\x84\xf1?"\x88LL\xf9D\x06\xc0~w\r\xe9m\x0f\x19@'
p213
tp214
bas(Vsquare_packing_box4
p215
g166
tp216
(lp217
g22
(g23
(I0
tp218
g25
tp219
Rp220
(I1
(I3
tp221
g175
I00
S'\xfay\xf7w\xadJ\x02@F2@!XO\x19\xc0LX\x1e\x95| \xf6?'
p222
tp223
bag22
(g23
(I0
tp224
g25
tp225
Rp226
(I1
(I3
tp227
g186
I00
S'\xe0 ;\x819w\xfd?\xe7\xcc\xc2\xa0\xa5f\x17\xc04\xedq\x1c\x8eK\xfa?'
p228
tp229
bag22
(g23
(I0
tp230
g25
tp231
Rp232
(I1
(I3
tp233
g186
I00
S'\x85\\2\xba\x0b5\xf5?I\r\x06\xd10\xfb\x15\xc0\x9e\x11\xee\xd8\xb9\xd7\xf5?'
p234
tp235
bag22
(g23
(I0
tp236
g25
tp237
Rp238
(I1
(I3
tp239
g186
I00
S'v\xb8^\x85\xa7[\xea?x\xbe\xff2t\x8d\x13\xc0\x88\x85\x8cCyH\xf6?'
p240
tp241
bag22
(g23
(I0
tp242
g25
tp243
Rp244
(I1
(I3
tp245
g186
I00
S'\xc2\xda(e\x83\x1a\xeb?\x8au\x8d3\xa6E\x11\xc0\xb4c\x1b\xed_\xfd\xfa?'
p246
tp247
bag22
(g23
(I0
tp248
g25
tp249
Rp250
(I1
(I3
tp251
g186
I00
S'\xe4u**\x0e5\xe9?\xaa\xfd\r\xed\xc4\xf6\r\xc0\x0fDE0\x1f\x0b\xfe?'
p252
tp253
bag22
(g23
(I0
tp254
g25
tp255
Rp256
(I1
(I3
tp257
g186
I00
S'\x06\x11,\xef\x98O\xe7??\x10\x01s=b\t\xc04\x92\xb79o\x8c\x00@'
p258
tp259
bag22
(g23
(I0
tp260
g25
tp261
Rp262
(I1
(I3
tp263
g186
I00
S'\x92\xaf\xf3P\x96O\xc2?(\xa1:\x8er}\x05\xc0\xd4_\x91\xb3\xffL\x02@'
p264
tp265
bas(Vrectangular_packing_box4
p266
g166
tp267
(lp268
g22
(g23
(I0
tp269
g25
tp270
Rp271
(I1
(I3
tp272
g175
I00
S'\xff\xca\xb5\xec)v\x07@xmr\xca2\xd4\x1c\xc0\xf8\xfc\x8b\xc2GL\xfe?'
p273
tp274
bag22
(g23
(I0
tp275
g25
tp276
Rp277
(I1
(I3
tp278
g186
I00
S'\xe8[\xb2\xaa\xa5@\x04@(j\r1!I\x1b\xc0Xj\x8bx\xc9`\xfc?'
p279
tp280
bag22
(g23
(I0
tp281
g25
tp282
Rp283
(I1
(I3
tp284
g186
I00
S'\xf60LV\xe8\x96\x00@\x9aEw{a\xe2\x18\xc0^\xa8\x8a,\xa3\x98\x00@'
p285
tp286
bag22
(g23
(I0
tp287
g25
tp288
Rp289
(I1
(I3
tp290
g186
I00
S'\xe0 ;\x819w\xfd?\xe7\xcc\xc2\xa0\xa5f\x17\xc04\xedq\x1c\x8eK\xfa?'
p291
tp292
bag22
(g23
(I0
tp293
g25
tp294
Rp295
(I1
(I3
tp296
g186
I00
S'\x85\\2\xba\x0b5\xf5?I\r\x06\xd10\xfb\x15\xc0\x9e\x11\xee\xd8\xb9\xd7\xf5?'
p297
tp298
bag22
(g23
(I0
tp299
g25
tp300
Rp301
(I1
(I3
tp302
g186
I00
S'v\xb8^\x85\xa7[\xea?x\xbe\xff2t\x8d\x13\xc0\x88\x85\x8cCyH\xf6?'
p303
tp304
bag22
(g23
(I0
tp305
g25
tp306
Rp307
(I1
(I3
tp308
g186
I00
S'\xc2\xda(e\x83\x1a\xeb?\x8au\x8d3\xa6E\x11\xc0\xb4c\x1b\xed_\xfd\xfa?'
p309
tp310
bag22
(g23
(I0
tp311
g25
tp312
Rp313
(I1
(I3
tp314
g186
I00
S'\xe4u**\x0e5\xe9?\xaa\xfd\r\xed\xc4\xf6\r\xc0\x0fDE0\x1f\x0b\xfe?'
p315
tp316
bag22
(g23
(I0
tp317
g25
tp318
Rp319
(I1
(I3
tp320
g186
I00
S'\x06\x11,\xef\x98O\xe7??\x10\x01s=b\t\xc04\x92\xb79o\x8c\x00@'
p321
tp322
bag22
(g23
(I0
tp323
g25
tp324
Rp325
(I1
(I3
tp326
g186
I00
S'\x92\xaf\xf3P\x96O\xc2?(\xa1:\x8er}\x05\xc0\xd4_\x91\xb3\xffL\x02@'
p327
tp328
bas(Vsquare_packing_box1
p329
g166
tp330
(lp331
g22
(g23
(I0
tp332
g25
tp333
Rp334
(I1
(I3
tp335
g175
I00
S'\xdd\xa5\xe0\xb3\x9f\xa3\xf6?R]H*Z\x80\x18\xc0\x10\x1fZ\xe2\xae\xc0\x04@'
p336
tp337
bag22
(g23
(I0
tp338
g25
tp339
Rp340
(I1
(I3
tp341
g186
I00
S'o\xd6\x82\xea\x7f\xb2\xed?9\xf2C\x0b?\xfd\x16\xc0(?d\xe9@\xb5\x02@'
p342
tp343
bag22
(g23
(I0
tp344
g25
tp345
Rp346
(I1
(I3
tp347
g186
I00
S'&>c9\x01,\xeb?\xb2\xc2\xf0\x02\xce\x8e\x14\xc0\xd8p\xbb2\x14\xd2\x03@'
p348
tp349
bag22
(g23
(I0
tp350
g25
tp351
Rp352
(I1
(I3
tp353
g186
I00
S'\xc6\x05\xbdtg\xd9\xe2?F\xdf\x9d@\\\xf3\x11\xc0\x1a\xc4.\xbb\xcc\x12\x02@'
p354
tp355
bag22
(g23
(I0
tp356
g25
tp357
Rp358
(I1
(I3
tp359
g186
I00
S'3z\xed\x8eN)\xe4?\x0c\x96\xd4\xa2\x0e\xd0\r\xc0\xbd%\xf5{\xe9\xf9\x03@'
p360
tp361
bag22
(g23
(I0
tp362
g25
tp363
Rp364
(I1
(I3
tp365
g186
I00
S'\xaf0\xe9h\xba~\xee?k\xbb\xd8\xd4\xd0g\t\xc09\x9ey\xed\xb06\x06@'
p366
tp367
bag22
(g23
(I0
tp368
g25
tp369
Rp370
(I1
(I3
tp371
g186
I00
S'\xf4\xfdJ\x1a(#\xec?H"\x9cD\x1aE\x05\xc0.\xa9\x0b\x87\xf8\xe1\x02@'
p372
tp373
bas(Vsquare_packing_box2
p374
g166
tp375
(lp376
g22
(g23
(I0
tp377
g25
tp378
Rp379
(I1
(I3
tp380
g175
I00
S'P\x89\xf9_\xf0\x1b\x05@\x8d%+\xe2\x1f\x88\x18\xc0\t\xfa\x9a\xcciv\xe0?'
p381
tp382
bag22
(g23
(I0
tp383
g25
tp384
Rp385
(I1
(I3
tp386
g186
I00
S'/\xe1\x02^.|\x00@\xb8\xae\xc5\xcfF\x16\x17\xc0\xf8\x01)d\xc5\xf9\xe2?'
p387
tp388
bag22
(g23
(I0
tp389
g25
tp390
Rp391
(I1
(I3
tp392
g186
I00
S'\x85\\2\xba\x0b5\xf5?I\r\x06\xd10\xfb\x15\xc0\x9e\x11\xee\xd8\xb9\xd7\xf5?'
p393
tp394
bag22
(g23
(I0
tp395
g25
tp396
Rp397
(I1
(I3
tp398
g186
I00
S'v\xb8^\x85\xa7[\xea?x\xbe\xff2t\x8d\x13\xc0\x88\x85\x8cCyH\xf6?'
p399
tp400
bag22
(g23
(I0
tp401
g25
tp402
Rp403
(I1
(I3
tp404
g186
I00
S'\xc2\xda(e\x83\x1a\xeb?\x8au\x8d3\xa6E\x11\xc0\xb4c\x1b\xed_\xfd\xfa?'
p405
tp406
bag22
(g23
(I0
tp407
g25
tp408
Rp409
(I1
(I3
tp410
g186
I00
S'\xe4u**\x0e5\xe9?\xaa\xfd\r\xed\xc4\xf6\r\xc0\x0fDE0\x1f\x0b\xfe?'
p411
tp412
bag22
(g23
(I0
tp413
g25
tp414
Rp415
(I1
(I3
tp416
g186
I00
S'\x06\x11,\xef\x98O\xe7??\x10\x01s=b\t\xc04\x92\xb79o\x8c\x00@'
p417
tp418
bag22
(g23
(I0
tp419
g25
tp420
Rp421
(I1
(I3
tp422
g186
I00
S'\x92\xaf\xf3P\x96O\xc2?(\xa1:\x8er}\x05\xc0\xd4_\x91\xb3\xffL\x02@'
p423
tp424
bas(Vrectangular_packing_box1
p425
g166
tp426
(lp427
g22
(g23
(I0
tp428
g25
tp429
Rp430
(I1
(I3
tp431
g175
I00
S'\xd4\xf9m\xf9\xa0i\xf6?\x0e\xed\x0fp\xe5d\x1a\xc0\x1c\xf11Y\x04e\x0b@'
p432
tp433
bag22
(g23
(I0
tp434
g25
tp435
Rp436
(I1
(I3
tp437
g186
I00
S'\x07\xe5\xeeo\xc2@\xf0?\x80*\x19Ng\xcf\x17\xc0\xccm\xca\xd2+4\x0f@'
p438
tp439
bag22
(g23
(I0
tp440
g25
tp441
Rp442
(I1
(I3
tp443
g186
I00
S'\xa5P\xd1\x87\x88:\xe5?\xd8\xf1\xd1l\xc6\x00\x15\xc0{\xeaM\xb0\xfa\x02\x0e@'
p444
tp445
bag22
(g23
(I0
tp446
g25
tp447
Rp448
(I1
(I3
tp449
g186
I00
S'\xc6\x05\xbdtg\xd9\xe2?F\xdf\x9d@\\\xf3\x11\xc0\x1a\xc4.\xbb\xcc\x12\x02@'
p450
tp451
bag22
(g23
(I0
tp452
g25
tp453
Rp454
(I1
(I3
tp455
g186
I00
S'3z\xed\x8eN)\xe4?\x0c\x96\xd4\xa2\x0e\xd0\r\xc0\xbd%\xf5{\xe9\xf9\x03@'
p456
tp457
bag22
(g23
(I0
tp458
g25
tp459
Rp460
(I1
(I3
tp461
g186
I00
S'\xaf0\xe9h\xba~\xee?k\xbb\xd8\xd4\xd0g\t\xc09\x9ey\xed\xb06\x06@'
p462
tp463
bag22
(g23
(I0
tp464
g25
tp465
Rp466
(I1
(I3
tp467
g186
I00
S'\xf4\xfdJ\x1a(#\xec?H"\x9cD\x1aE\x05\xc0.\xa9\x0b\x87\xf8\xe1\x02@'
p468
tp469
bas(Vsquare_packing_box3
p470
g166
tp471
(lp472
g22
(g23
(I0
tp473
g25
tp474
Rp475
(I1
(I3
tp476
g175
I00
S'\xa6\x93+a\xae\x91\n@\xd5\x1d&\x1a\xb9$\x1d\xc0\x9e\xb7|\x95\n\xca\x10@'
p477
tp478
bag22
(g23
(I0
tp479
g25
tp480
Rp481
(I1
(I3
tp482
g186
I00
S'\x89\xcfHU\xa1\xf5\x05@\xee\x9b\xa6\x01<)\x1c\xc0W\xa3jE\xe6\xde\x01\xc0'
p483
tp484
bag22
(g23
(I0
tp485
g25
tp486
Rp487
(I1
(I3
tp488
g186
I00
S'2]\x933g}\x00@\xebx\x00&R!\x1b\xc0\xce\x170ZD}\x00\xc0'
p489
tp490
bag22
(g23
(I0
tp491
g25
tp492
Rp493
(I1
(I3
tp494
g186
I00
S'4#\xe8i\x80D\xf8?\xdd\x1dlTl\\\x19\xc0m\xc1\x1a\xec\xde\x01\x01\xc0'
p495
tp496
bag22
(g23
(I0
tp497
g25
tp498
Rp499
(I1
(I3
tp500
g186
I00
S'\x9f5<Q\xb2\xb3\xf7?\xb3\xd6LI,\xe8\x16\xc0\xc2\x13\xbbtu\x87\x00\xc0'
p501
tp502
bag22
(g23
(I0
tp503
g25
tp504
Rp505
(I1
(I3
tp506
g186
I00
S'\xd0\xcb\x13\x8f\xaa\x9d\xed?\x90\x01<]3\x06\x16\xc0F\xf1\xe7x32\x02\xc0'
p507
tp508
bag22
(g23
(I0
tp509
g25
tp510
Rp511
(I1
(I3
tp512
g186
I00
S'l[\xc4\x16<\xe6\xe9?\xa6\xa0\x90\x84X\x9f\x13\xc0\xc2\xd74Q\x00\xaf\xff\xbf'
p513
tp514
bag22
(g23
(I0
tp515
g25
tp516
Rp517
(I1
(I3
tp518
g186
I00
S"\xaeJ\xbd\x1936\xec?\x04\x13\xd4'\x9f\x88\x10\xc0\x805qo\xb6\xe6\xff\xbf"
p519
tp520
bag22
(g23
(I0
tp521
g25
tp522
Rp523
(I1
(I3
tp524
g186
I00
S'\xf09\xb6\x1c*\x86\xee?\xc4\n/\x96\xcb\xe3\n\xc0\xa0\xc9\xd6F6\x0f\x00\xc0'
p525
tp526
bag22
(g23
(I0
tp527
g25
tp528
Rp529
(I1
(I3
tp530
g186
I00
S'3\xe9\xaf\x05T\x89\xe7?+~\xcb\xd3\x15\xc7\x04\xc0x6(d5\xed\x07@'
p531
tp532
bas(Vrectangular_packing_box2
p533
g166
tp534
(lp535
g22
(g23
(I0
tp536
g25
tp537
Rp538
(I1
(I3
tp539
g175
I00
S'#\x88\x107,\x99\x0e@h\xd9\xdd[\x10\x85\x1c\xc0%R\xb5\xc8\xcc\x0c\x14@'
p540
tp541
bag22
(g23
(I0
tp542
g25
tp543
Rp544
(I1
(I3
tp545
g186
I00
S'A\x03\x1d\xda\x16\xfc\n@\x9e 1\xe0c;\x1a\xc0\xbc\xfe\x1aH\xbe\xf1\xfc\xbf'
p546
tp547
bag22
(g23
(I0
tp548
g25
tp549
Rp550
(I1
(I3
tp551
g186
I00
S'/\x08\xfbO\x0f\xe3\x04@j\xb9\xdeR\x8bv\x1a\xc0Nw\xbd\xbe\xd2\x01\xfd\xbf'
p552
tp553
bag22
(g23
(I0
tp554
g25
tp555
Rp556
(I1
(I3
tp557
g186
I00
S'2]\x933g}\x00@\xebx\x00&R!\x1b\xc0\xce\x170ZD}\x00\xc0'
p558
tp559
bag22
(g23
(I0
tp560
g25
tp561
Rp562
(I1
(I3
tp563
g186
I00
S'4#\xe8i\x80D\xf8?\xdd\x1dlTl\\\x19\xc0m\xc1\x1a\xec\xde\x01\x01\xc0'
p564
tp565
bag22
(g23
(I0
tp566
g25
tp567
Rp568
(I1
(I3
tp569
g186
I00
S'\x9f5<Q\xb2\xb3\xf7?\xb3\xd6LI,\xe8\x16\xc0\xc2\x13\xbbtu\x87\x00\xc0'
p570
tp571
bag22
(g23
(I0
tp572
g25
tp573
Rp574
(I1
(I3
tp575
g186
I00
S'\xd0\xcb\x13\x8f\xaa\x9d\xed?\x90\x01<]3\x06\x16\xc0F\xf1\xe7x32\x02\xc0'
p576
tp577
bag22
(g23
(I0
tp578
g25
tp579
Rp580
(I1
(I3
tp581
g186
I00
S'l[\xc4\x16<\xe6\xe9?\xa6\xa0\x90\x84X\x9f\x13\xc0\xc2\xd74Q\x00\xaf\xff\xbf'
p582
tp583
bag22
(g23
(I0
tp584
g25
tp585
Rp586
(I1
(I3
tp587
g186
I00
S"\xaeJ\xbd\x1936\xec?\x04\x13\xd4'\x9f\x88\x10\xc0\x805qo\xb6\xe6\xff\xbf"
p588
tp589
bag22
(g23
(I0
tp590
g25
tp591
Rp592
(I1
(I3
tp593
g186
I00
S'\xf09\xb6\x1c*\x86\xee?\xc4\n/\x96\xcb\xe3\n\xc0\xa0\xc9\xd6F6\x0f\x00\xc0'
p594
tp595
bag22
(g23
(I0
tp596
g25
tp597
Rp598
(I1
(I3
tp599
g186
I00
S'3\xe9\xaf\x05T\x89\xe7?+~\xcb\xd3\x15\xc7\x04\xc0x6(d5\xed\x07@'
p600
tp601
bassS'mc_to_entity'
p602
(dp603
(g165
g166
tp604
(lp605
Vsquare_packing_box1
p606
aVrectangular_packing_box1
p607
as(g215
g166
tp608
(lp609
Vrectangular_packing_box4
p610
aVsquare_packing_box1
p611
as(g266
g166
tp612
(lp613
Vsquare_packing_box3
p614
aVsquare_packing_box4
p615
aVsquare_packing_box1
p616
as(g329
g166
tp617
(lp618
s(g374
g166
tp619
(lp620
Vrectangular_packing_box4
p621
aVsquare_packing_box4
p622
aVsquare_packing_box1
p623
as(g425
g166
tp624
(lp625
Vsquare_packing_box1
p626
aVrectangular_packing_box3
p627
as(g470
g166
tp628
(lp629
Vrectangular_packing_box4
p630
aVsquare_packing_box1
p631
aVrectangular_packing_box1
p632
as(g533
g166
tp633
(lp634
Vrectangular_packing_box4
p635
aVsquare_packing_box1
p636
aVrectangular_packing_box1
p637
aVrectangular_packing_box3
p638
assS'reachable_entities'
p639
(lp640
Vrectangular_packing_box4
p641
aVrectangular_packing_box2
p642
aVrectangular_packing_box1
p643
aVsquare_packing_box2
p644
aVsquare_packing_box3
p645
ag12
aVsquare_packing_box4
p646
asS'collides'
p647
(dp648
Vrectangular_packing_box4
p649
c__builtin__
set
p650
((lp651
I2
aI3
aI577
aI393
aI268
aI435
aI144
aI91
aI548
aI37
aI38
aI39
aI348
aI302
aI303
aI561
aI178
aI179
aI309
aI54
aI188
aI62
aI63
aI64
aI65
aI194
aI438
aI79
aI376
aI343
aI89
aI90
aI219
aI220
aI605
aI611
aI612
aI550
aI114
aI115
aI500
aI248
aI379
aI511
atp652
Rp653
sVrectangular_packing_box2
p654
g650
((lp655
I193
aI387
aI617
aI269
aI270
aI339
aI212
aI213
aI245
atp656
Rp657
sVrectangular_packing_box3
p658
g650
((lp659
I6
aI521
aI138
aI139
aI275
aI276
aI152
aI153
aI154
aI155
aI417
aI547
aI518
aI424
aI553
aI198
aI338
aI349
aI351
aI362
aI491
aI249
aI383
atp660
Rp661
sVrectangular_packing_box1
p662
g650
((lp663
I132
aI5
aI6
aI136
aI137
aI394
aI523
aI276
aI157
aI133
aI34
aI35
aI165
aI166
aI296
aI584
aI517
aI547
aI308
aI163
aI134
aI197
aI198
aI456
aI518
aI82
aI83
aI84
aI597
aI93
aI607
aI362
aI107
aI338
aI251
aI252
atp664
Rp665
sVsquare_packing_box2
p666
g650
((lp667
I0
aI1
aI144
aI403
aI541
aI545
aI546
aI550
aI40
aI425
aI555
aI302
aI307
aI571
aI62
aI453
aI342
aI474
aI348
aI605
aI612
aI367
aI368
aI369
aI370
aI371
aI247
aI248
aI377
aI378
atp668
Rp669
sVsquare_packing_box3
p670
g650
((lp671
I513
aI386
aI259
aI260
aI515
aI286
aI552
aI436
aI440
aI572
aI573
aI68
aI337
aI339
aI340
aI213
aI91
aI354
aI613
aI111
aI112
aI113
aI117
aI118
aI375
aI212
aI123
aI254
aI255
atp672
Rp673
sVsquare_packing_box1
p674
g650
((lp675
I107
aI132
aI517
aI6
aI8
aI276
aI416
aI33
aI34
aI607
aI327
aI44
aI301
aI584
aI56
aI186
aI187
aI459
aI196
aI71
aI456
aI203
aI84
aI93
aI94
aI95
aI484
aI233
aI234
aI235
aI108
aI252
atp676
Rp677
sVsquare_packing_box4
p678
g650
((lp679
I2
aI3
aI393
aI395
aI404
aI160
aI161
aI41
aI554
aI304
aI288
aI289
aI201
aI202
aI416
aI611
aI106
aI497
aI115
aI372
aI380
aI42
atp680
Rp681
ssg78
g79
sS'pick_used'
p682
(dp683
g641
(itrajectory_representation.operator
Operator
p684
(dp685
g8
I01
sg9
(dp686
S'object'
p687
Vrectangular_packing_box4
p688
ssg17
S'two_arm_pick'
p689
sg19
(dp690
S'q_goal'
p691
(lp692
g22
(g23
(I0
tp693
g25
tp694
Rp695
(I1
(I3
tp696
g175
I00
S'\xfe\xca\xb5\xec)v\x07@zmr\xca2\xd4\x1c\xc0\xf8\xfc\x8b\xc2GL\xfe?'
p697
tp698
bag22
(g23
(I0
tp699
g25
tp700
Rp701
(I1
(I3
tp702
g175
I00
S'\xde\xbc\xcd\x94\xa6\xc5\x07@#\xfb\x957,\x80\x1c\xc0\xde\x0f\x80f\x99\x8f\xfd?'
p703
tp704
bag22
(g23
(I0
tp705
g25
tp706
Rp707
(I1
(I3
tp708
g175
I00
S'?\x94\x84m\x14\x18\x03@ n\x85\x11T\x92\x16\xc0\xe8U\x8a\xbe\xa9\xca\xf6\xbf'
p709
tp710
bag22
(g23
(I0
tp711
g25
tp712
Rp713
(I1
(I3
tp714
g175
I00
S'z%\x0e\x99}m\n@\xdb\x13\xfb=Z\x9d\x18\xc0d\xf5x\x8d\xdfZ\x02\xc0'
p715
tp716
bag22
(g23
(I0
tp717
g25
tp718
Rp719
(I1
(I3
tp720
g175
I00
S'\x1c(\xb5\xa3d\xff\x03@\xbe\xcd\xaa"\x85m\x16\xc0\xc8\xb8L\xb8\x1a\xb4\xf3\xbf'
p721
tp722
basS'is_feasible'
p723
I00
ssg47
(lp724
g22
(g23
(I0
tp725
g25
tp726
Rp727
(I1
(I3
tp728
g175
I00
S'\xc9U\x93\xca\x1b\x82\xfa?\x04\xac\xf2\x0e\x0b\xe4\x18\xc0\x0cS\x18\x99\x0f\xbe\x17@'
p729
tp730
bag22
(g23
(I0
tp731
g25
tp732
Rp733
(I1
(I3
tp734
g186
I00
S'\x84\xa3|.\x10\xee\xfc?\xfc\xc5\t\x9e\xc3\xe9\x1a\xc0\xec\x96S\xb5\x05\x08\x05\xc0'
p735
tp736
bag22
(g23
(I0
tp737
g25
tp738
Rp739
(I1
(I3
tp740
g186
I00
S'>\xc0\x12$\xd1\xa3\x02@L\xfb\xe9\xe8\x00\xfd\x1c\xc0\x1dL8%\x1b\x13\x04@'
p741
tp742
bag701
asbsg642
(itrajectory_representation.operator
Operator
p743
(dp744
g8
I01
sg9
(dp745
g687
Vrectangular_packing_box2
p746
ssg17
g689
sg19
(dp747
g691
(lp748
g22
(g23
(I0
tp749
g25
tp750
Rp751
(I1
(I3
tp752
g175
I00
S'-\x88\x107,\x99\x0e@i\xd9\xdd[\x10\x85\x1c\xc0\xc8k;.\xbaT\xf4\xbf'
p753
tp754
bag22
(g23
(I0
tp755
g25
tp756
Rp757
(I1
(I3
tp758
g175
I00
S'T\xfa\xf2\xd8\t=\t@zv\xa9\xeb\xf6\xb6\x1f\xc0T\xac\xb6fdA\xcc?'
p759
tp760
bag22
(g23
(I0
tp761
g25
tp762
Rp763
(I1
(I3
tp764
g175
I00
S'\xeafS\xa0/\x13\t@\x86\xca\xd5\xda*! \xc0k\x8bN\xeb\x0e\x1e\xd9?'
p765
tp766
bag22
(g23
(I0
tp767
g25
tp768
Rp769
(I1
(I3
tp770
g175
I00
S'k\xf8\xb6\xc9s+\r@^6:\x1d\xad,\x1c\xc0z\x0fS\xbeyz\xf3\xbf'
p771
tp772
basg723
I00
ssg47
(lp773
g22
(g23
(I0
tp774
g25
tp775
Rp776
(I1
(I3
tp777
g175
I00
S'\xc9U\x93\xca\x1b\x82\xfa?\x04\xac\xf2\x0e\x0b\xe4\x18\xc0\x0cS\x18\x99\x0f\xbe\x17@'
p778
tp779
bag22
(g23
(I0
tp780
g25
tp781
Rp782
(I1
(I3
tp783
g186
I00
S'2]\x933g}\x00@\xebx\x00&R!\x1b\xc0\xce\x170ZD}\x00\xc0'
p784
tp785
bag22
(g23
(I0
tp786
g25
tp787
Rp788
(I1
(I3
tp789
g186
I00
S'\xfb\xa7\xa0\x03\xca\x8c\x02@:+\xa9\x1c>\x86\x1d\xc0\x8e\x98\xf2\x0f\xf7(\xee\xbf'
p790
tp791
bag22
(g23
(I0
tp792
g25
tp793
Rp794
(I1
(I3
tp795
g186
I00
S'\xa3\xe7\xb4\x16R\xf0\x07@\xbc\n8\xab\xe3x\x1c\xc0=\x94\xaf\xa7P\t\x01@'
p796
tp797
bag22
(g23
(I0
tp798
g25
tp799
Rp800
(I1
(I3
tp801
g186
I00
S'S\xb5\xd0\x1cl\xf0\x0c@>\x04.\xd9\xd9\xa1\x1c\xc0|\x85\x1fUEk\xf8\xbf'
p802
tp803
bag769
asbsVrectangular_packing_box3
p804
(itrajectory_representation.operator
Operator
p805
(dp806
g8
I01
sg9
(dp807
g687
Vrectangular_packing_box3
p808
ssg17
g689
sg19
(dp809
g691
(lp810
g22
(g23
(I0
tp811
g25
tp812
Rp813
(I1
(I3
tp814
g175
I00
S' \n7\x85\x19\x1c\x8b\xbf\x8f\xb7k\x18\x82\xe8\x15\xc0\x0ebO\xd1a\x80\xf8\xbf'
p815
tp816
bag22
(g23
(I0
tp817
g25
tp818
Rp819
(I1
(I3
tp820
g175
I00
S'N~\x1b:\xc2\x03\xe2?|.\xd8\xa9Z\xf5\x18\xc0\xc9Y\xf4\x9b\xae\xa1\x06@'
p821
tp822
bag22
(g23
(I0
tp823
g25
tp824
Rp825
(I1
(I3
tp826
g175
I00
S'\xb8)\x92T6\xe4\xd2\xbf\xe14;\xb45\xed\x15\xc0~\xe9A\xff\x9e\x10\xfe\xbf'
p827
tp828
basg723
I00
ssg47
(lp829
g22
(g23
(I0
tp830
g25
tp831
Rp832
(I1
(I3
tp833
g175
I00
S'\xc9U\x93\xca\x1b\x82\xfa?\x04\xac\xf2\x0e\x0b\xe4\x18\xc0\x0cS\x18\x99\x0f\xbe\x17@'
p834
tp835
bag22
(g23
(I0
tp836
g25
tp837
Rp838
(I1
(I3
tp839
g186
I00
S'\xdc\xfdN\xc8J~\xf0?\xc2\xcc\xc4M\xa2\x1d\x1a\xc0\xb4;\xa7?\xcck\xe7\xbf'
p840
tp841
bag22
(g23
(I0
tp842
g25
tp843
Rp844
(I1
(I3
tp845
g186
I00
S'\xae\xea\x9e\xa3\xa2\xb1\xed?\xa4\xca\x1d?h\x96\x19\xc0dq\xdf\xb1\x9d\xe4\x05@'
p846
tp847
bag819
asbsg643
(itrajectory_representation.operator
Operator
p848
(dp849
g8
I01
sg9
(dp850
g687
Vrectangular_packing_box1
p851
ssg17
g689
sg19
(dp852
g691
(lp853
g22
(g23
(I0
tp854
g25
tp855
Rp856
(I1
(I3
tp857
g175
I00
S'\xd8\xf9m\xf9\xa0i\xf6?\x11\xed\x0fp\xe5d\x1a\xc0\x1c\xf11Y\x04e\x0b@'
p858
tp859
bag22
(g23
(I0
tp860
g25
tp861
Rp862
(I1
(I3
tp863
g175
I00
S'\xe9[\xeb\xfbW(\xf4?F\xa6\x9f\x15\x07)\x1b\xc0\xee\xf3\x95\xba\x1d\xdf\x05@'
p864
tp865
bag22
(g23
(I0
tp866
g25
tp867
Rp868
(I1
(I3
tp869
g175
I00
S'\xbf\xab\xeb\x83\x87N\xaf?\x01\x97h\x93\x85\xa8\x18\xc0\xa8\xbe\x14&Ck\xdd\xbf'
p870
tp871
bag22
(g23
(I0
tp872
g25
tp873
Rp874
(I1
(I3
tp875
g175
I00
S'c<\xbe\xa1yx\xf4?\xe0\xdb\xf97v\xb8\x1a\xc0P\x9b\xd7D\x8f\x8f\x05@'
p876
tp877
bag22
(g23
(I0
tp878
g25
tp879
Rp880
(I1
(I3
tp881
g175
I00
S'\x0e\xeaQ\xe6\xc8+\xf5?<\x1a\x1fwl\xdc\x1a\xc0\xa7p\x94\xf5Vt\t@'
p882
tp883
basg723
I00
ssg47
(lp884
g22
(g23
(I0
tp885
g25
tp886
Rp887
(I1
(I3
tp888
g175
I00
S'\xc9U\x93\xca\x1b\x82\xfa?\x04\xac\xf2\x0e\x0b\xe4\x18\xc0\x0cS\x18\x99\x0f\xbe\x17@'
p889
tp890
bag22
(g23
(I0
tp891
g25
tp892
Rp893
(I1
(I3
tp894
g186
I00
S"'\xc1{\xbc\xf6\x05\xf8?\x02^\x18\xdc\xb7\xac\x18\xc0o\x85MZ3\x91\xf3\xbf"
p895
tp896
bag22
(g23
(I0
tp897
g25
tp898
Rp899
(I1
(I3
tp900
g186
I00
S'zNu~${\xfb?c\xfe\x8c\xbf\x1f\xab\x1b\xc0\x9b\xbb\x05m\x02\x02\x07@'
p901
tp902
bag880
asbsg644
(itrajectory_representation.operator
Operator
p903
(dp904
g8
I01
sg9
(dp905
g687
Vsquare_packing_box2
p906
ssg17
g689
sg19
(dp907
g691
(lp908
g22
(g23
(I0
tp909
g25
tp910
Rp911
(I1
(I3
tp912
g175
I00
S'N\x89\xf9_\xf0\x1b\x05@\x8e%+\xe2\x1f\x88\x18\xc0\t\xfa\x9a\xcciv\xe0?'
p913
tp914
bag22
(g23
(I0
tp915
g25
tp916
Rp917
(I1
(I3
tp918
g175
I00
S'w\xc8"\xae\xdea\r@\x17\xcah*\xa6\xc2\x1a\xc0\xa9\xef\xbc\x00i\x12\x01@'
p919
tp920
bag22
(g23
(I0
tp921
g25
tp922
Rp923
(I1
(I3
tp924
g175
I00
S's\xc6\xe2\xab\xcb\x80\x0c@\xe3\x8d\xe7E\xc0\xa0\x1a\xc0\xa4\xbd#O!\xe4\xfe?'
p925
tp926
bag22
(g23
(I0
tp927
g25
tp928
Rp929
(I1
(I3
tp930
g175
I00
S'3\xcb\x00}\x11\x90\x06@\xe8\x84\xd3l\xc4\xcd\x18\xc0\xd6qQMo\xb1\xd8?'
p931
tp932
bag22
(g23
(I0
tp933
g25
tp934
Rp935
(I1
(I3
tp936
g175
I00
S'\x9f\xc0\xc9\xa5\xe7\x00\x0e@\xe3O\xfa\xdcs\xaa\x1a\xc0\x06\x94\x98\xbdY\x8d\x00@'
p937
tp938
basg723
I00
ssg47
(lp939
g22
(g23
(I0
tp940
g25
tp941
Rp942
(I1
(I3
tp943
g175
I00
S'\xc9U\x93\xca\x1b\x82\xfa?\x04\xac\xf2\x0e\x0b\xe4\x18\xc0\x0cS\x18\x99\x0f\xbe\x17@'
p944
tp945
bag22
(g23
(I0
tp946
g25
tp947
Rp948
(I1
(I3
tp949
g186
I00
S'<|\xa2\xc3\xfag\xfe?Q\xd0\th}W\x1b\xc0\x8b\xe36n\xc16\xce\xbf'
p950
tp951
bag22
(g23
(I0
tp952
g25
tp953
Rp954
(I1
(I3
tp955
g186
I00
S'\xfb\xa7\xa0\x03\xca\x8c\x02@:+\xa9\x1c>\x86\x1d\xc0\x8e\x98\xf2\x0f\xf7(\xee\xbf'
p956
tp957
bag22
(g23
(I0
tp958
g25
tp959
Rp960
(I1
(I3
tp961
g186
I00
S'\xa3\xe7\xb4\x16R\xf0\x07@\xbc\n8\xab\xe3x\x1c\xc0=\x94\xaf\xa7P\t\x01@'
p962
tp963
bag923
asbsg645
(itrajectory_representation.operator
Operator
p964
(dp965
g8
I01
sg9
(dp966
g687
Vsquare_packing_box3
p967
ssg17
g689
sg19
(dp968
g691
(lp969
g22
(g23
(I0
tp970
g25
tp971
Rp972
(I1
(I3
tp973
g175
I00
S'\xa3\x93+a\xae\x91\n@\xd4\x1d&\x1a\xb9$\x1d\xc0\xf2\xea\x8e}\xe1\xaf\x00\xc0'
p974
tp975
bag22
(g23
(I0
tp976
g25
tp977
Rp978
(I1
(I3
tp979
g175
I00
S'\x9e\x91]\xfa?e\x01@\xfe\x81*\x9b)\x0c\x1e\xc0\x80\x9f.\xf54\xf7\xa7?'
p980
tp981
bag22
(g23
(I0
tp982
g25
tp983
Rp984
(I1
(I3
tp985
g175
I00
S'\xa2\x80e\xfb\xdb)\n@\x0e\x99\x8b3@\xb3\x1c\xc0\x84\xcb\xb1X\xd0\x01\x03\xc0'
p986
tp987
basg723
I00
ssg47
(lp988
g22
(g23
(I0
tp989
g25
tp990
Rp991
(I1
(I3
tp992
g175
I00
S'\xc9U\x93\xca\x1b\x82\xfa?\x04\xac\xf2\x0e\x0b\xe4\x18\xc0\x0cS\x18\x99\x0f\xbe\x17@'
p993
tp994
bag22
(g23
(I0
tp995
g25
tp996
Rp997
(I1
(I3
tp998
g186
I00
S'\x84\xa3|.\x10\xee\xfc?\xfc\xc5\t\x9e\xc3\xe9\x1a\xc0\xec\x96S\xb5\x05\x08\x05\xc0'
p999
tp1000
bag22
(g23
(I0
tp1001
g25
tp1002
Rp1003
(I1
(I3
tp1004
g186
I00
S'\tAsXx\r\x00@F^\x05/\xfdK\x1d\xc0~\xbbB\x0f\xbe\xe6\xd2?'
p1005
tp1006
bag978
asbsg12
(itrajectory_representation.operator
Operator
p1007
(dp1008
g8
I01
sg9
(dp1009
g11
g12
ssg17
S'two_arm_pick'
p1010
sg19
(dp1011
g21
g22
(g23
(I0
tp1012
g25
tp1013
Rp1014
(I1
(I3
tp1015
g32
I00
S'\xdf\xa5\xe0\xb3\x9f\xa3\xf6?U]H*Z\x80\x18\xc0\x10\x1fZ\xe2\xae\xc0\x04@'
p1016
tp1017
bssg47
(lp1018
g22
(g23
(I0
tp1019
g25
tp1020
Rp1021
(I1
(I3
tp1022
g175
I00
S'\xc9U\x93\xca\x1b\x82\xfa?\x04\xac\xf2\x0e\x0b\xe4\x18\xc0\x0cS\x18\x99\x0f\xbe\x17@'
p1023
tp1024
bag22
(g23
(I0
tp1025
g25
tp1026
Rp1027
(I1
(I3
tp1028
g186
I00
S'2]\x933g}\x00@\xebx\x00&R!\x1b\xc0\xce\x170ZD}\x00\xc0'
p1029
tp1030
bag22
(g23
(I0
tp1031
g25
tp1032
Rp1033
(I1
(I3
tp1034
g186
I00
S'\xc6\xf1T\x16)\x02\xfe?\xa8\x7fQ\xf5\xbb\x10\x19\xc0\xa38\tS\x83\x84\x05@'
p1035
tp1036
bag1014
asbsg646
(itrajectory_representation.operator
Operator
p1037
(dp1038
g8
I01
sg9
(dp1039
g687
Vsquare_packing_box4
p1040
ssg17
g689
sg19
(dp1041
g691
(lp1042
g22
(g23
(I0
tp1043
g25
tp1044
Rp1045
(I1
(I3
tp1046
g175
I00
S'\xfay\xf7w\xadJ\x02@H2@!XO\x19\xc0LX\x1e\x95| \xf6?'
p1047
tp1048
bag22
(g23
(I0
tp1049
g25
tp1050
Rp1051
(I1
(I3
tp1052
g175
I00
S"bk\xe6X'\xfd\xf7?\xa5\xb6\xc5h1\xdc\x15\xc0\x90h\xd0\x97\xdc}\xa6?"
p1053
tp1054
bag22
(g23
(I0
tp1055
g25
tp1056
Rp1057
(I1
(I3
tp1058
g175
I00
S'\xff+\xa1Z\xb8\xe8\x06@\xb0\xee\x1b\x02d\xfe\x15\xc0\x96\x13\xe1s\x91\xd2\x04@'
p1059
tp1060
basg723
I00
ssg47
(lp1061
g22
(g23
(I0
tp1062
g25
tp1063
Rp1064
(I1
(I3
tp1065
g175
I00
S'\xc9U\x93\xca\x1b\x82\xfa?\x04\xac\xf2\x0e\x0b\xe4\x18\xc0\x0cS\x18\x99\x0f\xbe\x17@'
p1066
tp1067
bag1051
asbssS'mc_paths'
p1068
(dp1069
sS'robot'
p1070
NsS'reachable_obj_region_pairs'
p1071
(lp1072
(g329
g166
tp1073
asS'sampled_pick_configs_for_objects'
p1074
(dp1075
sS'mc_calls'
p1076
I0
sS'pick_poses'
p1077
g683
sS'problem_env'
p1078
NsS'evaluations'
p1079
(dp1080
(g425
g533
g166
tp1081
I00
s(g374
g533
g166
tp1082
I00
s(g533
g470
g166
tp1083
I00
s(g266
g374
g166
tp1084
I00
s(g470
g329
g166
tp1085
I01
s(g215
g374
g166
tp1086
I00
s(g329
g165
g166
tp1087
I00
s(g470
g533
g166
tp1088
I00
s(g266
g215
g166
tp1089
I01
s(g374
g329
g166
tp1090
I01
s(g425
g329
g166
tp1091
I01
s(g425
g266
g166
tp1092
I00
s(g374
g165
g166
tp1093
I00
s(g266
g470
g166
tp1094
I01
s(g470
g165
g166
tp1095
I00
s(g215
g470
g166
tp1096
I00
s(g329
g533
g166
tp1097
I00
s(g470
g215
g166
tp1098
I00
s(g533
g425
g166
tp1099
I01
s(g165
g329
g166
tp1100
I01
s(g215
g425
g166
tp1101
I00
s(g470
g266
g166
tp1102
I01
s(g533
g329
g166
tp1103
I01
s(g165
g266
g166
tp1104
I00
s(g533
g215
g166
tp1105
I00
s(g266
g425
g166
tp1106
I00
s(g329
g425
g166
tp1107
I00
s(g165
g470
g166
tp1108
I00
s(g165
g425
g166
tp1109
I01
s(g470
g425
g166
tp1110
I01
s(g215
g533
g166
tp1111
I00
s(g266
g533
g166
tp1112
I00
s(g425
g215
g166
tp1113
I00
s(g374
g425
g166
tp1114
I00
s(g215
g266
g166
tp1115
I01
s(g165
g215
g166
tp1116
I00
s(g374
g266
g166
tp1117
I01
s(g470
g374
g166
tp1118
I00
s(g329
g374
g166
tp1119
I00
s(g374
g215
g166
tp1120
I01
s(g215
g165
g166
tp1121
I00
s(g329
g470
g166
tp1122
I00
s(g374
g470
g166
tp1123
I00
s(g266
g165
g166
tp1124
I00
s(g425
g470
g166
tp1125
I00
s(g425
g165
g166
tp1126
I01
s(g165
g533
g166
tp1127
I00
s(g533
g374
g166
tp1128
I00
s(g266
g329
g166
tp1129
I01
s(g329
g215
g166
tp1130
I00
s(g215
g329
g166
tp1131
I01
s(g329
g266
g166
tp1132
I00
s(g533
g266
g166
tp1133
I01
s(g165
g374
g166
tp1134
I00
s(g533
g165
g166
tp1135
I01
s(g425
g374
g166
tp1136
I00
ssS'paths_to_reachable_entities'
p1137
NsS'use_shortest_path'
p1138
I01
sbsS'ternary_edges'
p1139
(dp1140
(g533
g533
g166
tp1141
(lp1142
I00
as(g329
S'loading_region'
p1143
g1143
tp1144
(lp1145
I00
as(S'entire_region'
p1146
g425
g166
tp1147
(lp1148
I00
as(g374
g215
g1143
tp1149
(lp1150
I00
as(g166
g166
g166
tp1151
(lp1152
I00
as(g215
g533
g1143
tp1153
(lp1154
I00
as(g329
g165
g166
tp1155
(lp1156
I00
as(g166
g266
g166
tp1157
(lp1158
I00
as(g374
g329
g166
tp1159
(lp1160
I01
as(g165
g266
g1143
tp1161
(lp1162
I00
as(g166
g215
g1143
tp1163
(lp1164
I00
as(g374
g1146
g166
tp1165
(lp1166
I00
as(g1143
g166
g1143
tp1167
(lp1168
I00
as(g266
g470
g166
tp1169
(lp1170
I01
as(g215
g1146
g166
tp1171
(lp1172
I00
as(g374
g425
g1143
tp1173
(lp1174
I00
as(g470
g1143
g166
tp1175
(lp1176
I00
as(g1146
g533
g1143
tp1177
(lp1178
I00
as(g166
g1146
g166
tp1179
(lp1180
I00
as(g533
g1143
g166
tp1181
(lp1182
I00
as(g470
g1146
g166
tp1183
(lp1184
I00
as(g329
g329
g1143
tp1185
(lp1186
I00
as(g1143
g215
g1143
tp1187
(lp1188
I00
as(g1146
g1143
g166
tp1189
(lp1190
I00
as(g1146
g374
g166
tp1191
(lp1192
I00
as(g1143
g1143
g166
tp1193
(lp1194
I00
as(g470
g266
g1143
tp1195
(lp1196
I00
as(g166
g166
g1143
tp1197
(lp1198
I00
as(g425
g374
g1143
tp1199
(lp1200
I00
as(g533
g215
g166
tp1201
(lp1202
I00
as(g470
g329
g166
tp1203
(lp1204
I01
as(g425
g166
g1143
tp1205
(lp1206
I00
as(g166
g533
g1143
tp1207
(lp1208
I00
as(g425
g165
g1143
tp1209
(lp1210
I00
as(g165
g425
g166
tp1211
(lp1212
I01
as(g1143
g329
g1143
tp1213
(lp1214
I00
as(g215
g374
g1143
tp1215
(lp1216
I00
as(g533
g533
g1143
tp1217
(lp1218
I00
as(g1146
g215
g166
tp1219
(lp1220
I00
as(g1143
g166
g166
tp1221
(lp1222
I00
as(g266
g533
g166
tp1223
(lp1224
I00
as(g166
g165
g166
tp1225
(lp1226
I00
as(g374
g425
g166
tp1227
(lp1228
I00
as(g165
g215
g166
tp1229
(lp1230
I00
as(g329
g165
g1143
tp1231
(lp1232
I00
as(g470
g374
g166
tp1233
(lp1234
I00
as(g374
g329
g1143
tp1235
(lp1236
I00
as(g374
g533
g1143
tp1237
(lp1238
I00
as(g1146
g374
g1143
tp1239
(lp1240
I00
as(g1143
g165
g1143
tp1241
(lp1242
I00
as(g1146
g166
g166
tp1243
(lp1244
I00
as(g266
g166
g166
tp1245
(lp1246
I00
as(g1143
g1146
g166
tp1247
(lp1248
I00
as(g533
g215
g1143
tp1249
(lp1250
I00
as(g470
g533
g1143
tp1251
(lp1252
I00
as(g470
g470
g166
tp1253
(lp1254
I00
as(g425
g165
g166
tp1255
(lp1256
I01
as(g1146
g533
g166
tp1257
(lp1258
I00
as(g425
g1143
g1143
tp1259
(lp1260
I00
as(g215
g329
g166
tp1261
(lp1262
I01
as(g329
g329
g166
tp1263
(lp1264
I00
as(g329
g266
g166
tp1265
(lp1266
I00
as(g266
g533
g1143
tp1267
(lp1268
I00
as(g215
g425
g1143
tp1269
(lp1270
I00
as(g470
g266
g166
tp1271
(lp1272
I01
as(g425
g374
g166
tp1273
(lp1274
I00
as(g533
g425
g1143
tp1275
(lp1276
I00
as(g425
g166
g166
tp1277
(lp1278
I00
as(g374
g533
g166
tp1279
(lp1280
I00
as(g533
g470
g166
tp1281
(lp1282
I00
as(g165
g425
g1143
tp1283
(lp1284
I00
as(g166
g374
g1143
tp1285
(lp1286
I00
as(g1146
g166
g1143
tp1287
(lp1288
I00
as(g1146
g215
g1143
tp1289
(lp1290
I00
as(g470
g533
g166
tp1291
(lp1292
I00
as(g165
g470
g1143
tp1293
(lp1294
I00
as(g533
g1146
g1143
tp1295
(lp1296
I00
as(g425
g1143
g166
tp1297
(lp1298
I00
as(g470
g374
g1143
tp1299
(lp1300
I00
as(g470
g425
g1143
tp1301
(lp1302
I00
as(g215
g329
g1143
tp1303
(lp1304
I00
as(g166
g165
g1143
tp1305
(lp1306
I00
as(g1146
g470
g1143
tp1307
(lp1308
I00
as(g1143
g165
g166
tp1309
(lp1310
I00
as(g1143
g374
g1143
tp1311
(lp1312
I00
as(g533
g425
g166
tp1313
(lp1314
I01
as(g215
g425
g166
tp1315
(lp1316
I00
as(g1143
g470
g166
tp1317
(lp1318
I00
as(g533
g470
g1143
tp1319
(lp1320
I00
as(g533
g266
g1143
tp1321
(lp1322
I00
as(g165
g215
g1143
tp1323
(lp1324
I00
as(g329
g266
g1143
tp1325
(lp1326
I00
as(g425
g470
g1143
tp1327
(lp1328
I00
as(g166
g329
g1143
tp1329
(lp1330
I00
as(g165
g1143
g1143
tp1331
(lp1332
I00
as(g266
g166
g1143
tp1333
(lp1334
I00
as(g329
g425
g166
tp1335
(lp1336
I00
as(g533
g1146
g166
tp1337
(lp1338
I00
as(g266
g374
g1143
tp1339
(lp1340
I00
as(g165
g533
g1143
tp1341
(lp1342
I00
as(g470
g425
g166
tp1343
(lp1344
I01
as(g215
g1143
g1143
tp1345
(lp1346
I00
as(g374
g166
g166
tp1347
(lp1348
I00
as(g215
g266
g166
tp1349
(lp1350
I01
as(g166
g470
g1143
tp1351
(lp1352
I00
as(g1143
g425
g1143
tp1353
(lp1354
I00
as(g1143
g470
g1143
tp1355
(lp1356
I00
as(g329
g470
g166
tp1357
(lp1358
I00
as(g425
g470
g166
tp1359
(lp1360
I00
as(g329
g425
g1143
tp1361
(lp1362
I00
as(g165
g533
g166
tp1363
(lp1364
I00
as(g533
g374
g166
tp1365
(lp1366
I00
as(g165
g166
g1143
tp1367
(lp1368
I00
as(g215
g1143
g166
tp1369
(lp1370
I00
as(g1143
g266
g1143
tp1371
(lp1372
I00
as(g533
g266
g166
tp1373
(lp1374
I01
as(g165
g165
g166
tp1375
(lp1376
I00
as(g266
g266
g166
tp1377
(lp1378
I00
as(g266
g165
g1143
tp1379
(lp1380
I00
as(g165
g1143
g166
tp1381
(lp1382
I00
as(g470
g215
g166
tp1383
(lp1384
I00
as(g266
g374
g166
tp1385
(lp1386
I00
as(g374
g1143
g1143
tp1387
(lp1388
I00
as(g165
g1146
g1143
tp1389
(lp1390
I00
as(g374
g166
g1143
tp1391
(lp1392
I00
as(g329
g374
g1143
tp1393
(lp1394
I00
as(g215
g266
g1143
tp1395
(lp1396
I00
as(g470
g166
g1143
tp1397
(lp1398
I00
as(g165
g166
g166
tp1399
(lp1400
I00
as(g1143
g266
g166
tp1401
(lp1402
I00
as(g425
g425
g166
tp1403
(lp1404
I00
as(g1143
g215
g166
tp1405
(lp1406
I00
as(g215
g470
g166
tp1407
(lp1408
I00
as(g329
g533
g166
tp1409
(lp1410
I00
as(g329
g470
g1143
tp1411
(lp1412
I00
as(g266
g329
g1143
tp1413
(lp1414
I00
as(g166
g374
g166
tp1415
(lp1416
I00
as(g1146
g165
g1143
tp1417
(lp1418
I00
as(g165
g329
g166
tp1419
(lp1420
I01
as(g425
g1146
g166
tp1421
(lp1422
I00
as(g470
g215
g1143
tp1423
(lp1424
I00
as(g470
g165
g1143
tp1425
(lp1426
I00
as(g266
g425
g166
tp1427
(lp1428
I00
as(g533
g374
g1143
tp1429
(lp1430
I00
as(g266
g1143
g166
tp1431
(lp1432
I00
as(g165
g1146
g166
tp1433
(lp1434
I00
as(g215
g165
g1143
tp1435
(lp1436
I00
as(g533
g329
g166
tp1437
(lp1438
I01
as(g470
g329
g1143
tp1439
(lp1440
I00
as(g215
g215
g1143
tp1441
(lp1442
I00
as(g266
g266
g1143
tp1443
(lp1444
I00
as(g425
g425
g1143
tp1445
(lp1446
I00
as(g329
g215
g1143
tp1447
(lp1448
I00
as(g215
g374
g166
tp1449
(lp1450
I00
as(g1146
g329
g166
tp1451
(lp1452
I00
as(g166
g1146
g1143
tp1453
(lp1454
I00
as(g166
g425
g1143
tp1455
(lp1456
I00
as(g374
g1143
g166
tp1457
(lp1458
I00
as(g329
g533
g1143
tp1459
(lp1460
I00
as(g425
g329
g1143
tp1461
(lp1462
I00
as(g165
g165
g1143
tp1463
(lp1464
I00
as(g1146
g165
g166
tp1465
(lp1466
I00
as(g374
g165
g1143
tp1467
(lp1468
I00
as(g425
g1146
g1143
tp1469
(lp1470
I00
as(g329
g374
g166
tp1471
(lp1472
I00
as(g266
g425
g1143
tp1473
(lp1474
I00
as(g266
g165
g166
tp1475
(lp1476
I00
as(g215
g165
g166
tp1477
(lp1478
I00
as(g329
g166
g1143
tp1479
(lp1480
I00
as(g374
g470
g166
tp1481
(lp1482
I00
as(g470
g470
g1143
tp1483
(lp1484
I00
as(g266
g1146
g166
tp1485
(lp1486
I00
as(g1143
g1146
g1143
tp1487
(lp1488
I00
as(g215
g470
g1143
tp1489
(lp1490
I00
as(g1143
g425
g166
tp1491
(lp1492
I00
as(g1146
g1146
g1143
tp1493
(lp1494
I00
as(g266
g329
g166
tp1495
(lp1496
I01
as(g329
g215
g166
tp1497
(lp1498
I00
as(g1143
g533
g1143
tp1499
(lp1500
I00
as(g165
g329
g1143
tp1501
(lp1502
I00
as(g470
g166
g166
tp1503
(lp1504
I00
as(g1146
g329
g1143
tp1505
(lp1506
I00
as(g470
g165
g166
tp1507
(lp1508
I00
as(g165
g374
g166
tp1509
(lp1510
I00
as(g266
g1143
g1143
tp1511
(lp1512
I00
as(g533
g329
g1143
tp1513
(lp1514
I00
as(g425
g533
g166
tp1515
(lp1516
I00
as(g1146
g1143
g1143
tp1517
(lp1518
I00
as(g1143
g533
g166
tp1519
(lp1520
I00
as(g329
g1146
g166
tp1521
(lp1522
I00
as(g374
g470
g1143
tp1523
(lp1524
I00
as(g374
g266
g1143
tp1525
(lp1526
I00
as(g215
g166
g166
tp1527
(lp1528
I00
as(g266
g1146
g1143
tp1529
(lp1530
I00
as(g266
g215
g166
tp1531
(lp1532
I01
as(g1146
g266
g1143
tp1533
(lp1534
I00
as(g166
g425
g166
tp1535
(lp1536
I00
as(g166
g470
g166
tp1537
(lp1538
I00
as(g425
g329
g166
tp1539
(lp1540
I01
as(g425
g266
g166
tp1541
(lp1542
I00
as(g1146
g470
g166
tp1543
(lp1544
I00
as(g374
g165
g166
tp1545
(lp1546
I00
as(g374
g374
g1143
tp1547
(lp1548
I00
as(g425
g215
g1143
tp1549
(lp1550
I00
as(g215
g166
g1143
tp1551
(lp1552
I00
as(g533
g166
g166
tp1553
(lp1554
I00
as(g329
g166
g166
tp1555
(lp1556
I00
as(g425
g533
g1143
tp1557
(lp1558
I00
as(g215
g533
g166
tp1559
(lp1560
I00
as(g166
g1143
g166
tp1561
(lp1562
I00
as(g1146
g1146
g166
tp1563
(lp1564
I00
as(g533
g165
g1143
tp1565
(lp1566
I00
as(g329
g1146
g1143
tp1567
(lp1568
I00
as(g1143
g374
g166
tp1569
(lp1570
I00
as(g165
g266
g166
tp1571
(lp1572
I00
as(g1146
g266
g166
tp1573
(lp1574
I00
as(g329
g1143
g166
tp1575
(lp1576
I00
as(g165
g374
g1143
tp1577
(lp1578
I00
as(g166
g329
g166
tp1579
(lp1580
I00
as(g1146
g425
g1143
tp1581
(lp1582
I00
as(g215
g1146
g1143
tp1583
(lp1584
I00
as(g374
g374
g166
tp1585
(lp1586
I00
as(g425
g215
g166
tp1587
(lp1588
I00
as(g470
g1146
g1143
tp1589
(lp1590
I00
as(g374
g266
g166
tp1591
(lp1592
I01
as(g166
g215
g166
tp1593
(lp1594
I00
as(g165
g470
g166
tp1595
(lp1596
I00
as(g266
g215
g1143
tp1597
(lp1598
I00
as(g215
g215
g166
tp1599
(lp1600
I00
as(g425
g266
g1143
tp1601
(lp1602
I00
as(g374
g215
g166
tp1603
(lp1604
I01
as(g470
g1143
g1143
tp1605
(lp1606
I00
as(g166
g533
g166
tp1607
(lp1608
I00
as(g533
g1143
g1143
tp1609
(lp1610
I00
as(g166
g266
g1143
tp1611
(lp1612
I00
as(g533
g166
g1143
tp1613
(lp1614
I00
as(g1143
g1143
g1143
tp1615
(lp1616
I00
as(g374
g1146
g1143
tp1617
(lp1618
I00
as(g266
g470
g1143
tp1619
(lp1620
I00
as(g166
g1143
g1143
tp1621
(lp1622
I00
as(g533
g165
g166
tp1623
(lp1624
I01
as(g1143
g329
g166
tp1625
(lp1626
I00
assg682
g683
sS'use_prm'
p1627
I01
sS'object_names'
p1628
(lp1629
S'square_packing_box1'
p1630
aS'rectangular_packing_box1'
p1631
aS'square_packing_box2'
p1632
aS'rectangular_packing_box2'
p1633
aS'square_packing_box3'
p1634
aS'rectangular_packing_box3'
p1635
aS'square_packing_box4'
p1636
aS'rectangular_packing_box4'
p1637
asg1078
NsS'current_holding_collides'
p1638
NsS'object_poses'
p1639
(dp1640
Vrectangular_packing_box4
p1641
g22
(g23
(I0
tp1642
g25
tp1643
Rp1644
(I1
(I1
I3
tp1645
g175
I00
S"\x16:\xd0\xf7\x97D\x05@0'N\x8f\xe4\xab\x19\xc0i\xe6\x91E\x95\x8a\xff?"
p1646
tp1647
bsVrectangular_packing_box2
p1648
g22
(g23
(I0
tp1649
g25
tp1650
Rp1651
(I1
(I1
I3
tp1652
g175
I00
S'\x0b\x8f\xe4U\xec\x8f\x0f@\xd0\xe4e\x0b&j\x1f\xc0\xba\x02\xc7eX\xf2\xfc?'
p1653
tp1654
bsVrectangular_packing_box3
p1655
g22
(g23
(I0
tp1656
g25
tp1657
Rp1658
(I1
(I1
I3
tp1659
g175
I00
S'\r\xae\xb4\xa5zs\xcb\xbfb\xc0\xbcU\xb4\x9b\x18\xc0\xc7p\xed\x96\xf5\x93\x08@'
p1660
tp1661
bsVrectangular_packing_box1
p1662
g22
(g23
(I0
tp1663
g25
tp1664
Rp1665
(I1
(I1
I3
tp1666
g175
I00
S'\xd0\x80;\x0e\xdcS\xe5?\xc1b\x12\r\xf8\xe7\x19\xc0R\x83LCQ\x91\x11@'
p1667
tp1668
bsVsquare_packing_box2
p1669
g22
(g23
(I0
tp1670
g25
tp1671
Rp1672
(I1
(I1
I3
tp1673
g175
I00
S'\xde\xdfp@_\x06\x0c@\xe6\xab\x97K\x90\xd3\x17\xc0}`C\x9e5f\n@'
p1674
tp1675
bsVsquare_packing_box3
p1676
g22
(g23
(I0
tp1677
g25
tp1678
Rp1679
(I1
(I1
I3
tp1680
g175
I00
S'g$\x8c\x14\x92\x8f\x07@\x12\xde\t\xc6\x800\x1f\xc0\xe3\x81w\xa3c\x04\x05@'
p1681
tp1682
bsVsquare_packing_box1
p1683
g22
(g23
(I0
tp1684
g25
tp1685
Rp1686
(I1
(I1
I3
tp1687
g175
I00
S'>\xf7@\xc6]\xc5\xec?f\xe2\xe2\xc3c\x08\x17\xc0\xe8\x89W]\x8f\xc7\x06@'
p1688
tp1689
bsVsquare_packing_box4
p1690
g22
(g23
(I0
tp1691
g25
tp1692
Rp1693
(I1
(I1
I3
tp1694
g175
I00
S'\x0b\x01f\xa2\xd8\x10\x01@\x02^\xbe\xe8*\xe6\x15\xc0W\xb5,)<7\x13@'
p1695
tp1696
bssS'reachable_regions_while_holding'
p1697
(lp1698
(g641
g1143
tp1699
a(g642
g1143
tp1700
a(g804
g1143
tp1701
a(g643
g1143
tp1702
a(g644
g1143
tp1703
a(g645
g1143
tp1704
a(g12
g1143
tp1705
a(g646
g1143
tp1706
asS'in_region'
p1707
(itrajectory_representation.predicates.in_region
InRegion
p1708
(dp1709
g1078
NsbsS'cached_pick_paths'
p1710
(dp1711
g641
g724
sg642
g773
sg804
g829
sg643
g884
sg644
g939
sg645
g988
sg12
g1018
sg646
g1061
ssg647
(dp1712
(Vrectangular_packing_box4
p1713
(cnumpy.core.multiarray
scalar
p1714
(g175
S'\xd0(]\xfa\x97D\x05@'
p1715
tp1716
Rp1717
g1714
(g175
S'\xf6\xb3X\x8a\xe4\xab\x19\xc0'
p1718
tp1719
Rp1720
g1714
(g175
S'\xc5\xe27\x85\x95\x8a\xff?'
p1721
tp1722
Rp1723
tp1724
tp1725
g653
s(Vrectangular_packing_box1
p1726
(g1714
(g175
S'`\xb1\x86\x8b\xdcS\xe5?'
p1727
tp1728
Rp1729
g1714
(g175
S'i\xfd-\x01\xf8\xe7\x19\xc0'
p1730
tp1731
Rp1732
g1714
(g175
S'\xca\xa3\x1baQ\x91\x11@'
p1733
tp1734
Rp1735
tp1736
tp1737
g665
s(Vsquare_packing_box4
p1738
(g1714
(g175
S'\xaf\xd0\x07\xcb\xd8\x10\x01@'
p1739
tp1740
Rp1741
g1714
(g175
S'a\x18\xb0\xe4*\xe6\x15\xc0'
p1742
tp1743
Rp1744
g1714
(g175
S'\xf3\xc8\x1f\x0c<7\x13@'
p1745
tp1746
Rp1747
tp1748
tp1749
g681
s(Vrectangular_packing_box3
p1750
(g1714
(g175
S'[\x0c\x1e\xa6}s\xcb\xbf'
p1751
tp1752
Rp1753
g1714
(g175
S'\xeb\xc5PN\xb4\x9b\x18\xc0'
p1754
tp1755
Rp1756
g1714
(g175
S'p"\xfa\xb5\xf5\x93\x08@'
p1757
tp1758
Rp1759
tp1760
tp1761
g661
s(Vsquare_packing_box1
p1762
(g1714
(g175
S';\x00\xe2\xae^\xc5\xec?'
p1763
tp1764
Rp1765
g1714
(g175
S'z9\xec\xbec\x08\x17\xc0'
p1766
tp1767
Rp1768
g1714
(g175
S'\xf8P\xa2%\x8f\xc7\x06@'
p1769
tp1770
Rp1771
tp1772
tp1773
g677
s(Vsquare_packing_box3
p1774
(g1714
(g175
S'\xd9\xcfb)\x92\x8f\x07@'
p1775
tp1776
Rp1777
g1714
(g175
S'\xf4\xc4s\xb6\x800\x1f\xc0'
p1778
tp1779
Rp1780
g1714
(g175
S'\x97R\x97\x8cc\x04\x05@'
p1781
tp1782
Rp1783
tp1784
tp1785
g673
s(Vrectangular_packing_box2
p1786
(g1714
(g175
S'\xab\xcf\xd5V\xec\x8f\x0f@'
p1787
tp1788
Rp1789
g1714
(g175
S'\x8d{\xf3\x1b&j\x1f\xc0'
p1790
tp1791
Rp1792
g1714
(g175
S'\xeb\x8f0\x0cX\xf2\xfc?'
p1793
tp1794
Rp1795
tp1796
tp1797
g657
s(Vsquare_packing_box2
p1798
(g1714
(g175
S'\x17\x10Z\x0f_\x06\x0c@'
p1799
tp1800
Rp1801
g1714
(g175
S'\xa4\xc2\xd8B\x90\xd3\x17\xc0'
p1802
tp1803
Rp1804
g1714
(g175
S'V\xbb&\xa45f\n@'
p1805
tp1806
Rp1807
tp1808
tp1809
g669
ssS'state_saver'
p1810
(igtamp_utils.utils
CustomStateSaver
p1811
(dp1812
S'robot_base_pose'
p1813
g22
(g23
(I0
tp1814
g25
tp1815
Rp1816
(I1
(I1
I3
tp1817
g175
I00
S'\xd1U\x93\xca\x1b\x82\xfa?\x04\xac\xf2\x0e\x0b\xe4\x18\xc0\x0cS\x18\x99\x0f\xbe\x17@'
p1818
tp1819
bsS'held_object'
p1820
NsS'robot_name'
p1821
S'pr2'
p1822
sS'env_id'
p1823
I1
sg1639
(dp1824
Vright_wall_1
p1825
g22
(g23
(I0
tp1826
g25
tp1827
Rp1828
(I1
(I4
tp1829
g175
I00
S'H\xe1z\x14\xaeG\x12@&\\\x8f\xc2\xf5(\xd4\xbf\xcc\x7fH\xbf}\x1d\xed?\x00\x00\x00\x00\x00\x00\x00\x00'
p1830
tp1831
bsVc_obst5
p1832
g22
(g23
(I0
tp1833
g25
tp1834
Rp1835
(I1
(I4
tp1836
g175
I00
S"P.\xf3\xc6\xf8 \x12@\xa0XLO\xb4,\xba\xbfe\xaa`TR'\xed?\xaa\xb1\xb0\xd2^\x93\x15@"
p1837
tp1838
bsVentrance_right
p1839
g22
(g23
(I0
tp1840
g25
tp1841
Rp1842
(I1
(I4
tp1843
g175
I00
S'ffffff\n@H\xe1z\x14\xaeG\t\xc0\x9c\xc4 \xb0rh\xc1?\x00\x00\x00\x00\x00\x00\x00\x00'
p1844
tp1845
bsVcomputer_table
p1846
g22
(g23
(I0
tp1847
g25
tp1848
Rp1849
(I1
(I4
tp1850
g175
I00
S'\x00\x00\x00\x00\x00\x00\x13@\x00\x00\x00\x00\x00\x00\xf8\xbf\x96C\x8bl\xe7\xfb\xe7?\xd2!3\x7f|\xd9\x12@'
p1851
tp1852
bsVchair_6b56
p1853
g22
(g23
(I0
tp1854
g25
tp1855
Rp1856
(I1
(I4
tp1857
g175
I00
S'u=\n\xd7\xa3p\xf5?K\xe1z\x14\xaeG\xd1?\x00\x00\x00\x00\x00\x00\x00\x00\xd6$\xfaNBm\n@'
p1858
tp1859
bsVsquare_packing_box3
p1860
g22
(g23
(I0
tp1861
g25
tp1862
Rp1863
(I1
(I4
tp1864
g175
I00
S'g$\x8c\x14\x92\x8f\x07@\x12\xde\t\xc6\x800\x1f\xc0L7\x89A`\xe5\xd8?\xe3\x81w\xa3c\x04\x05@'
p1865
tp1866
bsVsquare_packing_box2
p1867
g22
(g23
(I0
tp1868
g25
tp1869
Rp1870
(I1
(I4
tp1871
g175
I00
S'\xde\xdfp@_\x06\x0c@\xe6\xab\x97K\x90\xd3\x17\xc0L7\x89A`\xe5\xd8?}`C\x9e5f\n@'
p1872
tp1873
bsVtable
p1874
g22
(g23
(I0
tp1875
g25
tp1876
Rp1877
(I1
(I4
tp1878
g175
I00
S'\x7f\xf6#EdX\xed?\xac\xffs\x98//\xc0\xbf\x00\x00\x00\x00\x00\x00\x00\x00\x00\x00\x00\x00\x00\x00\x00\x00'
p1879
tp1880
bsVsquare_packing_box1
p1881
g22
(g23
(I0
tp1882
g25
tp1883
Rp1884
(I1
(I4
tp1885
g175
I00
S'F\xf7@\xc6]\xc5\xec?n\xe2\xe2\xc3c\x08\x17\xc0L7\x89A`\xe5\xd8?\xe8\x89W]\x8f\xc7\x06@'
p1886
tp1887
bsVback_wall_2
p1888
g22
(g23
(I0
tp1889
g25
tp1890
Rp1891
(I1
(I4
tp1892
g175
I00
S'\xaeG\xe1z\x14.\x13@\x80\x14\xaeG\xe1z\xc4?xX\xa85\xcd\xbb\xf2?\x00\x00\x00\x00\x00\x00\x00\x00'
p1893
tp1894
bsVchair_083c
p1895
g22
(g23
(I0
tp1896
g25
tp1897
Rp1898
(I1
(I4
tp1899
g175
I00
S'\xa4p=\n\xd7\xa3\xe0?333333\xe3\xbf\x00\x00\x00\x00\x00\x00\x00\x00\x00\x00\x00\x00\x00\x00\x00\x00'
p1900
tp1901
bsVback_wall_1
p1902
g22
(g23
(I0
tp1903
g25
tp1904
Rp1905
(I1
(I4
tp1906
g175
I00
S'\xaeG\xe1z\x14.\x13@\x80\x14\xaeG\xe1z\xc4?\xcc\x7fH\xbf}\x1d\xed?\x00\x00\x00\x00\x00\x00\x00\x00'
p1907
tp1908
bsVbottom_wall
p1909
g22
(g23
(I0
tp1910
g25
tp1911
Rp1912
(I1
(I4
tp1913
g175
I00
S'\x00\x00\x00\x00\x00\x00\xfc?\x00\x00\x00\x00\x00\x00\x00\x00\x00\x00\x00\x00\x00\x00\x00\x00\x00\x00\x00\x00\x00\x00\x00\x00'
p1914
tp1915
bsVcup_905a
p1916
g22
(g23
(I0
tp1917
g25
tp1918
Rp1919
(I1
(I4
tp1920
g175
I00
S'\x00\x00\x00\x00\x00\x00\xf0?\x83\xc0\xca\xa1E\xb6\xdb?\x1b/\xdd$\x06\x81\xed?\x00\x00\x00\x00\x00\x00\x00\x00'
p1921
tp1922
bsVplate_496f
p1923
g22
(g23
(I0
tp1924
g25
tp1925
Rp1926
(I1
(I4
tp1927
g175
I00
S"q=\n\xd7\xa3p\xe5?\x9dhW!\xe5'\xdd\xbf\x1b/\xdd$\x06\x81\xed?\x00\x00\x00\x00\x00\x00\x00\x00"
p1928
tp1929
bsVtoaster
p1930
g22
(g23
(I0
tp1931
g25
tp1932
Rp1933
(I1
(I4
tp1934
g175
I00
S')\\\x8f\xc2\xf5(\xf4\xbf\xe0z\x14\xaeG\xe1\xf2\xbf\xb8\x1e\x85\xebQ\xb8\xee?\x89/`\x9b\xf8\x8a\xe4?'
p1935
tp1936
bsVc_obst1
p1937
g22
(g23
(I0
tp1938
g25
tp1939
Rp1940
(I1
(I4
tp1941
g175
I00
S"w\xb1\xbb\t\n\xea\x11@\xe4RL\x95\x9d!\xbc?e\xaa`TR'\xed?\xf7\xbe\x88\x1c\xaa\x81\t@"
p1942
tp1943
bsVrectangular_packing_box4
p1944
g22
(g23
(I0
tp1945
g25
tp1946
Rp1947
(I1
(I4
tp1948
g175
I00
S"\x19:\xd0\xf7\x97D\x05@-'N\x8f\xe4\xab\x19\xc0L7\x89A`\xe5\xd8?i\xe6\x91E\x95\x8a\xff?"
p1949
tp1950
bsVmicrowave
p1951
g22
(g23
(I0
tp1952
g25
tp1953
Rp1954
(I1
(I4
tp1955
g175
I00
S'\x9a\x99\x99\x99\x99\x99\xf1\xbf\x00\x00\x00\x00\x00\x00\x00@7\x89A`\xe5\xd0\xee?\x00\x00\x00\x00\x00\x00\x00\x00'
p1956
tp1957
bsVc_obst7
p1958
g22
(g23
(I0
tp1959
g25
tp1960
Rp1961
(I1
(I4
tp1962
g175
I00
S"\xcc\xd40\x08\x05W\x12@\xa1\xe3\x04A\x1b\xd4\xd0?e\xaa`TR'\xed?\xa6~P2)+\xf2?"
p1963
tp1964
bsVc_obst6
p1965
g22
(g23
(I0
tp1966
g25
tp1967
Rp1968
(I1
(I4
tp1969
g175
I00
S"\xa4\xb0\x99(\x81$\x12@P\xbb\xfd\xdf\xf3%\xd9?e\xaa`TR'\xed?\xdd@l!\xfc\xae\xe7?"
p1970
tp1971
bsVcup_b6af
p1972
g22
(g23
(I0
tp1973
g25
tp1974
Rp1975
(I1
(I4
tp1976
g175
I00
S'R\xb8\x1e\x85\xebQ\xe8?\x9a\x99\x99\x99\x99\x99\xe1?\x1b/\xdd$\x06\x81\xed?\x00\x00\x00\x00\x00\x00\x00\x00'
p1977
tp1978
bsVc_obst4
p1979
g22
(g23
(I0
tp1980
g25
tp1981
Rp1982
(I1
(I4
tp1983
g175
I00
S"\x98\x06\xe4\xabo\x9f\x12@\xdc\x15\xc6\x08\xc2Q\xc6\xbfe\xaa`TR'\xed?L\xc5\x91Ix\xf0\x03@"
p1984
tp1985
bsVrectangular_packing_box2
p1986
g22
(g23
(I0
tp1987
g25
tp1988
Rp1989
(I1
(I4
tp1990
g175
I00
S'\x0f\x8f\xe4U\xec\x8f\x0f@\xd1\xe4e\x0b&j\x1f\xc0L7\x89A`\xe5\xd8?\xba\x02\xc7eX\xf2\xfc?'
p1991
tp1992
bsVplate_fa76
p1993
g22
(g23
(I0
tp1994
g25
tp1995
Rp1996
(I1
(I4
tp1997
g175
I00
S'=\n\xd7\xa3p=\xf2?\x00\x00\x00\x00\x00\x00\x00\x00\x1b/\xdd$\x06\x81\xed?\x00\x00\x00\x00\x00\x00\x00\x00'
p1998
tp1999
bsVfloorwalls
p2000
g22
(g23
(I0
tp2001
g25
tp2002
Rp2003
(I1
(I4
tp2004
g175
I00
S'\xc7\xcc\xcc\xcc\xcc\xcc\xfc?\x00\x00\x00\x00\x00\x00\x18\xc0H\xe1z\x14\xaeG\xc1?\x16-DT\xfb!\xf9?'
p2005
tp2006
bsVpin_c671
p2007
g22
(g23
(I0
tp2008
g25
tp2009
Rp2010
(I1
(I4
tp2011
g175
I00
S'\xc3\xf5(\\\x8f\xc2\xf1\xbf}?5^\xbaI\x02@\xb8\x1e\x85\xebQ\xb8\xfa?\x00\x00\x00\x00\x00\x00\x00\x00'
p2012
tp2013
bsVc_obst3
p2014
g22
(g23
(I0
tp2015
g25
tp2016
Rp2017
(I1
(I4
tp2018
g175
I00
S"\x94C43\xe1\x99\x12@\x00\xdeF\xf2g\xc0\xcb?e\xaa`TR'\xed?Y\xd0\xef\xad\xc9\x89\x0f@"
p2019
tp2020
bsVchair_2e39
p2021
g22
(g23
(I0
tp2022
g25
tp2023
Rp2024
(I1
(I4
tp2025
g175
I00
S'hfffff\xee?cfffff\xf2\xbf\x00\x00\x00\x00\x00\x00\x00\x00\x07M\xe8QQF\xf3?'
p2026
tp2027
bsVentrance_left
p2028
g22
(g23
(I0
tp2029
g25
tp2030
Rp2031
(I1
(I4
tp2032
g175
I00
S'\x98\x99\x99\x99\x99\x99\xe9\xbfH\xe1z\x14\xaeG\t\xc0\x9c\xc4 \xb0rh\xc1?\x00\x00\x00\x00\x00\x00\x00\x00'
p2033
tp2034
bsVtop_wall_1
p2035
g22
(g23
(I0
tp2036
g25
tp2037
Rp2038
(I1
(I4
tp2039
g175
I00
S'H\xe1z\x14\xaeG\x12@\x80\x14\xaeG\xe1z\xc4?xX\xa85\xcd\xbb\xf2?\x00\x00\x00\x00\x00\x00\x00\x00'
p2040
tp2041
bsVrectangular_packing_box3
p2042
g22
(g23
(I0
tp2043
g25
tp2044
Rp2045
(I1
(I4
tp2046
g175
I00
S'\x1d\xae\xb4\xa5zs\xcb\xbfd\xc0\xbcU\xb4\x9b\x18\xc0L7\x89A`\xe5\xd8?\xc7p\xed\x96\xf5\x93\x08@'
p2047
tp2048
bsVshaker
p2049
g22
(g23
(I0
tp2050
g25
tp2051
Rp2052
(I1
(I4
tp2053
g175
I00
S'\n\xd7\xa3p=\n\x01@\x14\xaeG\xe1z\x14\x02@\\\x8f\xc2\xf5(\\\xef?\x00\x00\x00\x00\x00\x00\x00\x00'
p2054
tp2055
bsVc_obst9
p2056
g22
(g23
(I0
tp2057
g25
tp2058
Rp2059
(I1
(I4
tp2060
g175
I00
S"\\\x98\x8e\xae\xd4$\x12@p\xfd\xc3\xe9U\x97\xcc?e\xaa`TR'\xed?\xdc\xf8\xe8\xff=~\x05@"
p2061
tp2062
bsVplate_835a
p2063
g22
(g23
(I0
tp2064
g25
tp2065
Rp2066
(I1
(I4
tp2067
g175
I00
S'\xf6(\\\x8f\xc2\xf5\xf0?\\\x8f\xc2\xf5(\\\xe7\xbf\x1b/\xdd$\x06\x81\xed?\x00\x00\x00\x00\x00\x00\x00\x00'
p2068
tp2069
bsVcup_58a2
p2070
g22
(g23
(I0
tp2071
g25
tp2072
Rp2073
(I1
(I4
tp2074
g175
I00
S'\x85\xebQ\xb8\x1e\x85\xe3?\xcd\xcc\xcc\xcc\xcc\xcc\xdc?\x1b/\xdd$\x06\x81\xed?\x00\x00\x00\x00\x00\x00\x00\x00'
p2075
tp2076
bsVleft_wall_1
p2077
g22
(g23
(I0
tp2078
g25
tp2079
Rp2080
(I1
(I4
tp2081
g175
I00
S'H\xe1z\x14\xaeG\x12@S\xb8\x1e\x85\xebQ\xe4?\xcc\x7fH\xbf}\x1d\xed?\x00\x00\x00\x00\x00\x00\x00\x00'
p2082
tp2083
bsVc_obst2
p2084
g22
(g23
(I0
tp2085
g25
tp2086
Rp2087
(I1
(I4
tp2088
g175
I00
S"e\xbc\x0b>`\x01\x12@`\x12\xae\xbdt\xf0\xa6\xbfe\xaa`TR'\xed?\x92\x1cr\x94\xf3\xc7\x14@"
p2089
tp2090
bsVsquare_packing_box4
p2091
g22
(g23
(I0
tp2092
g25
tp2093
Rp2094
(I1
(I4
tp2095
g175
I00
S'\x10\x01f\xa2\xd8\x10\x01@\x06^\xbe\xe8*\xe6\x15\xc0L7\x89A`\xe5\xd8?W\xb5,)<7\x13@'
p2096
tp2097
bsVrectangular_packing_box1
p2098
g22
(g23
(I0
tp2099
g25
tp2100
Rp2101
(I1
(I4
tp2102
g175
I00
S'\xd6\x80;\x0e\xdcS\xe5?\xbfb\x12\r\xf8\xe7\x19\xc0L7\x89A`\xe5\xd8?R\x83LCQ\x91\x11@'
p2103
tp2104
bsVpin_371e
p2105
g22
(g23
(I0
tp2106
g25
tp2107
Rp2108
(I1
(I4
tp2109
g175
I00
S'333333\xf3\xbfffffff\xf6?\xb8\x1e\x85\xebQ\xb8\xee?\x00\x00\x00\x00\x00\x00\x00\x00'
p2110
tp2111
bsVfridge
p2112
g22
(g23
(I0
tp2113
g25
tp2114
Rp2115
(I1
(I4
tp2116
g175
I00
S'\xd7\xa3p=\n\xd7\xeb\xbf\x00\x00\x00\x00\x00\x00\x00\xc0\xcd\xcc\xcc\xcc\xcc\xcc\xf8?\x00\x00\x00\x00\x00\x00\x00\x00'
p2117
tp2118
bsVcup_d441
p2119
g22
(g23
(I0
tp2120
g25
tp2121
Rp2122
(I1
(I4
tp2123
g175
I00
S'\n\xd7\xa3p=\n\xef?\x8f\xc2\xf5(\\\x8f\xe2?\x1b/\xdd$\x06\x81\xed?\x00\x00\x00\x00\x00\x00\x00\x00'
p2124
tp2125
bsVshelf2
p2126
g22
(g23
(I0
tp2127
g25
tp2128
Rp2129
(I1
(I4
tp2130
g175
I00
S'\x00\x00\x00\x00\x00\x00\x0e@\xaeG\xe1z\x14\xae\x07@\x9c\xc4 \xb0rh\xc1?\xd2!3\x7f|\xd9\x12@'
p2131
tp2132
bsVtop_wall_2
p2133
g22
(g23
(I0
tp2134
g25
tp2135
Rp2136
(I1
(I4
tp2137
g175
I00
S'H\xe1z\x14\xaeG\x12@\x80\x14\xaeG\xe1z\xc4?\x16HP\xfc\x18\xf3\xfd?\x00\x00\x00\x00\x00\x00\x00\x00'
p2138
tp2139
bsVc_obst0
p2140
g22
(g23
(I0
tp2141
g25
tp2142
Rp2143
(I1
(I4
tp2144
g175
I00
S"M\x8c?\xc3\x88c\x12@H\xb1@j\xe0\xe4\xc3\xbfe\xaa`TR'\xed??e\xdd\x95|T\xee?"
p2145
tp2146
bsVshelf1
p2147
g22
(g23
(I0
tp2148
g25
tp2149
Rp2150
(I1
(I4
tp2151
g175
I00
S'\x00\x00\x00\x00\x00\x00\x13@\xaeG\xe1z\x14\xae\x07@\x9c\xc4 \xb0rh\xc1?\xd2!3\x7f|\xd9\x12@'
p2152
tp2153
bsVsink
p2154
g22
(g23
(I0
tp2155
g25
tp2156
Rp2157
(I1
(I4
tp2158
g175
I00
S'ffffff\xd6?333333\x01@\x9a\x99\x99\x99\x99\x99\xb9\xbf\x00\x00\x00\x00\x00\x00\x00\x00'
p2159
tp2160
bsVpr2
p2161
g22
(g23
(I0
tp2162
g25
tp2163
Rp2164
(I1
(I4
tp2165
g175
I00
S'\xd5U\x93\xca\x1b\x82\xfa?\x04\xac\xf2\x0e\x0b\xe4\x18\xc0\x9a_\x94\xa0\xbf\xd0\xc1?\x0cS\x18\x99\x0f\xbe\x17@'
p2166
tp2167
bsVchair_12d0
p2168
g22
(g23
(I0
tp2169
g25
tp2170
Rp2171
(I1
(I4
tp2172
g175
I00
S'\\\xd2\x18\xad\xa3\xaa\xdb?Of\x83L2r\xc6?\x00\x00\x00\x00\x00\x00\x00\x00\xf8\x81\r\x14M\xa6\x17@'
p2173
tp2174
bsVright_wall_2
p2175
g22
(g23
(I0
tp2176
g25
tp2177
Rp2178
(I1
(I4
tp2179
g175
I00
S'H\xe1z\x14\xaeG\x12@&\\\x8f\xc2\xf5(\xd4\xbfxX\xa85\xcd\xbb\xf2?\x00\x00\x00\x00\x00\x00\x00\x00'
p2180
tp2181
bsVknife_block
p2182
g22
(g23
(I0
tp2183
g25
tp2184
Rp2185
(I1
(I4
tp2186
g175
I00
S'R\xb8\x1e\x85\xebQ\xe0\xbfffffff\x02@`\xe5\xd0"\xdb\xf9\xee?\x00\x00\x00\x00\x00\x00\x00\x00'
p2187
tp2188
bsVleft_wall_2
p2189
g22
(g23
(I0
tp2190
g25
tp2191
Rp2192
(I1
(I4
tp2193
g175
I00
S'H\xe1z\x14\xaeG\x12@S\xb8\x1e\x85\xebQ\xe4?xX\xa85\xcd\xbb\xf2?\x00\x00\x00\x00\x00\x00\x00\x00'
p2194
tp2195
bsVleft_wall
p2196
g22
(g23
(I0
tp2197
g25
tp2198
Rp2199
(I1
(I4
tp2200
g175
I00
S'\x9a\x99\x99\x99\x99\x99\x07@H\xe1z\x14\xaeG\xff?\x9c\xc4 \xb0rh\xc1?\x00\x00\x00\x00\x00\x00\x00\x00'
p2201
tp2202
bsVkitchen
p2203
g22
(g23
(I0
tp2204
g25
tp2205
Rp2206
(I1
(I4
tp2207
g175
I00
S'\x00\x00\x00\x00\x00\x00\x00\x00\x00\x00\x00\x00\x00\x00\x00\x00\x00\x00\x00\x00\x00\x00\x00\x00\x00\x00\x00\x00\x00\x00\x00\x00'
p2208
tp2209
bsVtable2
p2210
g22
(g23
(I0
tp2211
g25
tp2212
Rp2213
(I1
(I4
tp2214
g175
I00
S'\x00\x00\x00\x00\x00\x00\x13@\x80\x14\xaeG\xe1z\xc4?S\x96!\x8euq\xec?\xd2!3\x7f|\xd9\x12@'
p2215
tp2216
bsVc_obst8
p2217
g22
(g23
(I0
tp2218
g25
tp2219
Rp2220
(I1
(I4
tp2221
g175
I00
S'A\x8b1\x89\xec\x0f\x12@\x18"2\xce\x8b\xd0\xd2?e\xaa`TR\'\xed?\xb0C\xcb\xc0\x90\xf7\xd7?'
p2222
tp2223
bsVplate_b4e7
p2224
g22
(g23
(I0
tp2225
g25
tp2226
Rp2227
(I1
(I4
tp2228
g175
I00
S'\x14\xaeG\xe1z\x14\xf2\xbf\x14\xaeG\xe1z\x14\x00@=\n\xd7\xa3p=\xf2?\x00\x00\x00\x00\x00\x00\x00\x00'
p2229
tp2230
bsVcooker
p2231
g22
(g23
(I0
tp2232
g25
tp2233
Rp2234
(I1
(I4
tp2235
g175
I00
S'\xaeG\xe1z\x14\xae\xff?\x85\xebQ\xb8\x1e\x85\xfb?\x00\x00\x00\x00\x00\x00\xe8?\x00\x00\x00\x00\x00\x00\x00\x00'
p2236
tp2237
bsVpin_a091
p2238
g22
(g23
(I0
tp2239
g25
tp2240
Rp2241
(I1
(I4
tp2242
g175
I00
S'\xdb\xf9~j\xbct\xf7\xbf)\\\x8f\xc2\xf5(\x02@\xb8\x1e\x85\xebQ\xb8\xfa?\x00\x00\x00\x00\x00\x00\x00\x00'
p2243
tp2244
bsVside_wall_2
p2245
g22
(g23
(I0
tp2246
g25
tp2247
Rp2248
(I1
(I4
tp2249
g175
I00
S'\xfa\xff\xff\xff\xff\xff\x14@\x00\x00\x00\x00\x00\x00\x00\x00\x9c\xc4 \xb0rh\xc1?\x18-DT\xfb!\xf9?'
p2250
tp2251
bsVside_wall_3
p2252
g22
(g23
(I0
tp2253
g25
tp2254
Rp2255
(I1
(I4
tp2256
g175
I00
S'\x00\x00\x00\x00\x00\x00\xfc?H\xe1z\x14\xaeG\t@\x9c\xc4 \xb0rh\xc1?\x00\x00\x00\x00\x00\x00\x00\x00'
p2257
tp2258
bsVmixer
p2259
g22
(g23
(I0
tp2260
g25
tp2261
Rp2262
(I1
(I4
tp2263
g175
I00
S'\n\xd7\xa3p=\n\xfb?ffffff\x02@d;\xdfO\x8d\x97\xee?\x00\x00\x00\x00\x00\x00\x00\x00'
p2264
tp2265
bsVside_wall_1
p2266
g22
(g23
(I0
tp2267
g25
tp2268
Rp2269
(I1
(I4
tp2270
g175
I00
S'\xf4\xff\xff\xff\xff\xff\xfb\xbf\x00\x00\x00\x00\x00\x00\x00\x00\x9c\xc4 \xb0rh\xc1?\x18-DT\xfb!\xf9?'
p2271
tp2272
bsVbottom_wall_1
p2273
g22
(g23
(I0
tp2274
g25
tp2275
Rp2276
(I1
(I4
tp2277
g175
I00
S'H\xe1z\x14\xaeG\x12@\x80\x14\xaeG\xe1z\xc4?\xcc\x7fH\xbf}\x1d\xed?\x00\x00\x00\x00\x00\x00\x00\x00'
p2278
tp2279
bsVcan
p2280
g22
(g23
(I0
tp2281
g25
tp2282
Rp2283
(I1
(I4
tp2284
g175
I00
S'\x00\x00\x00\x00\x00\x00\xf4\xbfH\xe1z\x14\xaeG\xe1\xbf\n\xd7\xa3p=\n\xef?\x00\x00\x00\x00\x00\x00\x00\x00'
p2285
tp2286
bsVright_wall
p2287
g22
(g23
(I0
tp2288
g25
tp2289
Rp2290
(I1
(I4
tp2291
g175
I00
S'\x9a\x99\x99\x99\x99\x99\x07@H\xe1z\x14\xaeG\xff\xbf\x9c\xc4 \xb0rh\xc1?\x00\x00\x00\x00\x00\x00\x00\x00'
p2292
tp2293
bsVcoffe_machine
p2294
g22
(g23
(I0
tp2295
g25
tp2296
Rp2297
(I1
(I4
tp2298
g175
I00
S'\\\x8f\xc2\xf5(\\\xf5\xbf\xb8\x1e\x85\xebQ\xb8\xee?\n\xd7\xa3p=\n\xef?\x00\x00\x00\x00\x00\x00\x00\x00'
p2299
tp2300
bsVcomputer_chair
p2301
g22
(g23
(I0
tp2302
g25
tp2303
Rp2304
(I1
(I4
tp2305
g175
I00
S'\xcd\xcc\xcc\xcc\xcc\xcc\x10@\x00\x00\x00\x00\x00\x00\xf8\xbf\xa00\xb6\x10\xe4\xa9\x95\xbf\x00\x00\x00\x00\x00\x00\x00\x00'
p2306
tp2307
bssS'robot_dof_values'
p2308
g22
(g23
(I0
tp2309
g25
tp2310
Rp2311
(I1
(I39
tp2312
g175
I00
S'\x00\x00\x00\x00\x00\x00\x00\x00\x00\x00\x00\x00\x00\x00\x00\x00\x00\x00\x00\x00\x00\x00\x00\x00\x00\x00\x00\x00\x00\x00\x00\x00\x00\x00\x00\x00\x00\x00\x00\x00\x00\x00\x00\x00\x00\x00\x00\x00\x00\x00\x00\x00\x00\x00\x00\x00\x00\x00\x00\x00\x00\x00\x00\x00\x00\x00\x00\x00\x00\x00\x00\x00\x00\x00\x00\x00\x00\x00\x00\x00\x00\x00\x00\x00\x00\x00\x00\x00\x00\x00\x00\x00\x00\x00\x00\x00@d;\xdfO\x8d\x87?\x00\x00\x00\x00\x00\x00\x00\x00\x00\x00\x00\x00\x00\x00\x00\x00\x00\x00\x00\x00\x00\x00\x00\x00\xee\xed\t\xf1\xcc\xa4\xf4?\x00\x00\x00\x00\x00\x00\xb0<N"\xd0^p\xf8\x00\xc0\x00\x00\x00\x00\x00\x00\x00\x00\x9b\x03\r.\x04V\xe6\xbf\x00\x00\x00\x00\x00\x00\x00\x00\x00\x00\x00\x00\x00\x00\x00\x00\x00\x00\x00\x00\x00\x80\xd4<\x00\x00\x00\x00\x00\x00\x00\x00\x00\x00\x00\x00\x00\x00\xd0<\x00\x00\x00\x00\x00\x00\x00\x00\x00\x00\x00\x00\x00\x00\x00\x00\xee\xed\t\xf1\xcc\xa4\xf4?\x00\x00\x00\x00\x00\x00\x00\x00N"\xd0^p\xf8\x00\xc0\x00\x00\x00\x00\x00\x00\x00\x00\x9b\x03\r.\x04V\xe6\xbf\x00\x00\x00\x00\x00\x00\x00\x00\xcd9\xe3\xc17\x89\xe1?\x00\x00\x00\x00\x00\x00\xc9<\x00\x00\x00\x00\x00\x00\x00\x00\x00\x00\x00\x00\x00\x00\xe8\xbc\x00\x00\x00\x00\x00\x00\x00\x00'
p2313
tp2314
bsS'is_holding'
p2315
I00
sbsS'holding_collides'
p2316
NsS'parent_ternary_predicates'
p2317
(dp2318
sS'cached_place_paths'
p2319
(dp2320
(g643
g1143
tp2321
(lp2322
g22
(g23
(I0
tp2323
g25
tp2324
Rp2325
(I1
(I3
tp2326
g175
I00
S'\xd5\xf9m\xf9\xa0i\xf6?\x0f\xed\x0fp\xe5d\x1a\xc0\x1c\xf11Y\x04e\x0b@'
p2327
tp2328
bas(g646
g166
tp2329
g217
s(g641
g166
tp2330
g268
s(g645
g1143
tp2331
(lp2332
g22
(g23
(I0
tp2333
g25
tp2334
Rp2335
(I1
(I3
tp2336
g175
I00
S'\xa5\x93+a\xae\x91\n@\xd6\x1d&\x1a\xb9$\x1d\xc0\x9e\xb7|\x95\n\xca\x10@'
p2337
tp2338
bas(g641
g1143
tp2339
(lp2340
g22
(g23
(I0
tp2341
g25
tp2342
Rp2343
(I1
(I3
tp2344
g175
I00
S'\xff\xca\xb5\xec)v\x07@wmr\xca2\xd4\x1c\xc0\xf7\xfc\x8b\xc2GL\xfe?'
p2345
tp2346
bas(g645
g166
tp2347
g472
s(g644
g1143
tp2348
(lp2349
g22
(g23
(I0
tp2350
g25
tp2351
Rp2352
(I1
(I3
tp2353
g175
I00
S'R\x89\xf9_\xf0\x1b\x05@\x8c%+\xe2\x1f\x88\x18\xc0\n\xfa\x9a\xcciv\xe0?'
p2354
tp2355
bas(g644
g166
tp2356
g376
s(g12
g166
tp2357
g331
s(g804
g166
tp2358
g168
s(g804
g1143
tp2359
(lp2360
g22
(g23
(I0
tp2361
g25
tp2362
Rp2363
(I1
(I3
tp2364
g175
I00
S'O\t7\x85\x19\x1c\x8b\xbf\x8e\xb7k\x18\x82\xe8\x15\xc0\x94T\xf0\xdf\xe2\x01\x13@'
p2365
tp2366
bas(g646
g1143
tp2367
(lp2368
g22
(g23
(I0
tp2369
g25
tp2370
Rp2371
(I1
(I3
tp2372
g175
I00
S'\xfdy\xf7w\xadJ\x02@K2@!XO\x19\xc0LX\x1e\x95| \xf6?'
p2373
tp2374
bas(g12
g1143
tp2375
(lp2376
g22
(g23
(I0
tp2377
g25
tp2378
Rp2379
(I1
(I3
tp2380
g175
I00
S'\xdc\xa5\xe0\xb3\x9f\xa3\xf6?M]H*Z\x80\x18\xc0\x0f\x1fZ\xe2\xae\xc0\x04@'
p2381
tp2382
bas(g642
g1143
tp2383
(lp2384
g22
(g23
(I0
tp2385
g25
tp2386
Rp2387
(I1
(I3
tp2388
g175
I00
S')\x88\x107,\x99\x0e@i\xd9\xdd[\x10\x85\x1c\xc0%R\xb5\xc8\xcc\x0c\x14@'
p2389
tp2390
bas(g642
g166
tp2391
g535
s(g643
g166
tp2392
g427
ssS'parent_binary_predicates'
p2393
(dp2394
sS'nodes'
p2395
(dp2396
g1146
(lp2397
I0
aI0
aI0
aI0
aI0
aI0
aI00
aI01
aI00
aI01
aI00
asg1143
(lp2398
I0
aI0
aI0
aI0
aI0
aI0
aI00
aI01
aI00
aI01
aI00
asg166
(lp2399
I0
aI0
aI0
aI0
aI0
aI0
aI00
aI01
aI01
aI01
aI00
asg266
(lp2400
I0
aI0
aI0
ag1714
(g175
S'>9\xd0\xf7\x97D\x05@'
p2401
tp2402
Rp2403
ag1714
(g175
S'\x87&N\x8f\xe4\xab\x19\xc0'
p2404
tp2405
Rp2406
ag1714
(g175
S'i\xe6\x91E\x95\x8a\xff?'
p2407
tp2408
Rp2409
aI01
aI00
aI00
aI01
aI00
asg533
(lp2410
I0
aI0
aI0
ag1714
(g175
S'\xae\x8e\xe4U\xec\x8f\x0f@'
p2411
tp2412
Rp2413
ag1714
(g175
S'w\xe4e\x0b&j\x1f\xc0'
p2414
tp2415
Rp2416
ag1714
(g175
S'\xba\x02\xc7eX\xf2\xfc?'
p2417
tp2418
Rp2419
aI01
aI00
aI00
aI01
aI00
asg165
(lp2420
I0
aI0
aI0
ag1714
(g175
S'\x14\xaa\xb4\xa5zs\xcb\xbf'
p2421
tp2422
Rp2423
ag1714
(g175
S'\x19\xc0\xbcU\xb4\x9b\x18\xc0'
p2424
tp2425
Rp2426
ag1714
(g175
S'\xc7p\xed\x96\xf5\x93\x08@'
p2427
tp2428
Rp2429
aI01
aI00
aI00
aI00
aI00
asg425
(lp2430
I0
aI0
aI0
ag1714
(g175
S'\xca\x80;\x0e\xdcS\xe5?'
p2431
tp2432
Rp2433
ag1714
(g175
S'\xc6b\x12\r\xf8\xe7\x19\xc0'
p2434
tp2435
Rp2436
ag1714
(g175
S'R\x83LCQ\x91\x11@'
p2437
tp2438
Rp2439
aI01
aI00
aI00
aI01
aI00
asg374
(lp2440
I0
aI0
aI0
ag1714
(g175
S'\xea\xdfp@_\x06\x0c@'
p2441
tp2442
Rp2443
ag1714
(g175
S'\xe6\xab\x97K\x90\xd3\x17\xc0'
p2444
tp2445
Rp2446
ag1714
(g175
S'}`C\x9e5f\n@'
p2447
tp2448
Rp2449
aI01
aI00
aI00
aI01
aI00
asg470
(lp2450
I0
aI0
aI0
ag1714
(g175
S'l$\x8c\x14\x92\x8f\x07@'
p2451
tp2452
Rp2453
ag1714
(g175
S'\x1a\xde\t\xc6\x800\x1f\xc0'
p2454
tp2455
Rp2456
ag1714
(g175
S'\xe3\x81w\xa3c\x04\x05@'
p2457
tp2458
Rp2459
aI01
aI00
aI00
aI01
aI00
asg329
(lp2460
I0
aI0
aI0
ag1714
(g175
S'\x84\xf6@\xc6]\xc5\xec?'
p2461
tp2462
Rp2463
ag1714
(g175
S'\xd8\xe1\xe2\xc3c\x08\x17\xc0'
p2464
tp2465
Rp2466
ag1714
(g175
S'\xe8\x89W]\x8f\xc7\x06@'
p2467
tp2468
Rp2469
aI01
aI00
aI01
aI01
aI00
asg215
(lp2470
I0
aI0
aI0
ag1714
(g175
S']\x00f\xa2\xd8\x10\x01@'
p2471
tp2472
Rp2473
ag1714
(g175
S'\xc0]\xbe\xe8*\xe6\x15\xc0'
p2474
tp2475
Rp2476
ag1714
(g175
S'V\xb5,)<7\x13@'
p2477
tp2478
Rp2479
aI01
aI00
aI00
aI01
aI00
assS'mc_place_path'
p2480
(dp2481
sS'parent_state'
p2482
NsS'goal_entities'
p2483
(lp2484
S'square_packing_box1'
p2485
ag166
asS'binary_edges'
p2486
(dp2487
(g374
g215
tp2488
(lp2489
I00
aI00
aI00
as(g374
g266
tp2490
(lp2491
I00
aI00
aI00
as(g165
g470
tp2492
(lp2493
I00
aI00
aI00
as(g165
g165
tp2494
(lp2495
I00
aI00
aI00
as(g533
g470
tp2496
(lp2497
I00
aI00
aI00
as(g533
g165
tp2498
(lp2499
I00
aI00
aI00
as(g215
g533
tp2500
(lp2501
I00
aI00
aI00
as(g374
g329
tp2502
(lp2503
I00
aI00
aI00
as(g425
g165
tp2504
(lp2505
I00
aI01
aI00
as(g266
g266
tp2506
(lp2507
I00
aI00
aI00
as(g533
g1143
tp2508
(lp2509
g1714
(g29
(S'b1'
p2510
I0
I1
tp2511
Rp2512
(I3
S'|'
p2513
NNNI-1
I-1
I0
tp2514
bS'\x01'
p2515
tp2516
Rp2517
aI00
aI01
as(g1146
g1143
tp2518
(lp2519
I00
aI00
aI00
as(g266
g215
tp2520
(lp2521
I00
aI00
aI00
as(g1143
g215
tp2522
(lp2523
I00
aI00
aI00
as(g329
g166
tp2524
(lp2525
I00
aI00
aI00
as(g1146
g533
tp2526
(lp2527
I00
aI00
aI00
as(g533
g215
tp2528
(lp2529
I00
aI00
aI00
as(g165
g1146
tp2530
(lp2531
g2517
aI00
aI00
as(g374
g374
tp2532
(lp2533
I00
aI00
aI00
as(g1143
g374
tp2534
(lp2535
I00
aI00
aI00
as(g470
g533
tp2536
(lp2537
I00
aI00
aI00
as(g533
g166
tp2538
(lp2539
I00
aI00
aI00
as(g425
g470
tp2540
(lp2541
I00
aI00
aI00
as(g266
g425
tp2542
(lp2543
I00
aI00
aI00
as(g329
g329
tp2544
(lp2545
I00
aI00
aI00
as(g533
g1146
tp2546
(lp2547
g2517
aI00
aI00
as(g1143
g533
tp2548
(lp2549
I00
aI00
aI00
as(g1143
g470
tp2550
(lp2551
I00
aI00
aI00
as(g1143
g165
tp2552
(lp2553
I00
aI00
aI00
as(g470
g166
tp2554
(lp2555
I00
aI00
aI00
as(g215
g266
tp2556
(lp2557
I00
aI00
aI00
as(g425
g266
tp2558
(lp2559
I00
aI00
aI00
as(g470
g425
tp2560
(lp2561
I00
aI00
aI00
as(g1143
g266
tp2562
(lp2563
I00
aI00
aI00
as(g1146
g166
tp2564
(lp2565
I00
aI00
aI00
as(g329
g533
tp2566
(lp2567
I00
aI00
aI00
as(g266
g470
tp2568
(lp2569
I00
aI00
aI00
as(g1146
g470
tp2570
(lp2571
I00
aI00
aI00
as(g470
g1146
tp2572
(lp2573
g2517
aI00
aI00
as(g165
g374
tp2574
(lp2575
I00
aI00
aI00
as(g215
g329
tp2576
(lp2577
I00
aI00
aI00
as(g165
g533
tp2578
(lp2579
I00
aI00
aI00
as(g215
g166
tp2580
(lp2581
I00
aI00
aI00
as(g1146
g1146
tp2582
(lp2583
I00
aI00
aI00
as(g470
g266
tp2584
(lp2585
I00
aI00
aI00
as(g329
g374
tp2586
(lp2587
I00
aI00
aI00
as(g166
g329
tp2588
(lp2589
I00
aI00
aI00
as(g425
g1143
tp2590
(lp2591
g2517
aI00
aI01
as(g166
g425
tp2592
(lp2593
I00
aI00
aI00
as(g215
g165
tp2594
(lp2595
I00
aI00
aI00
as(g165
g329
tp2596
(lp2597
I00
aI00
aI00
as(g470
g1143
tp2598
(lp2599
g2517
aI00
aI01
as(g165
g425
tp2600
(lp2601
I00
aI00
aI00
as(g470
g470
tp2602
(lp2603
I00
aI00
aI00
as(g425
g533
tp2604
(lp2605
I00
aI00
aI00
as(g1143
g166
tp2606
(lp2607
I00
aI00
aI00
as(g166
g374
tp2608
(lp2609
I00
aI00
aI00
as(g266
g166
tp2610
(lp2611
I00
aI00
aI00
as(g1146
g425
tp2612
(lp2613
I00
aI00
aI00
as(g166
g215
tp2614
(lp2615
I00
aI00
aI00
as(g165
g215
tp2616
(lp2617
I00
aI00
aI00
as(g425
g1146
tp2618
(lp2619
g2517
aI00
aI00
as(g215
g1143
tp2620
(lp2621
g2517
aI00
aI01
as(g425
g374
tp2622
(lp2623
I00
aI00
aI00
as(g266
g533
tp2624
(lp2625
I00
aI00
aI00
as(g266
g1143
tp2626
(lp2627
g2517
aI00
aI01
as(g166
g165
tp2628
(lp2629
I00
aI00
aI00
as(g1146
g215
tp2630
(lp2631
I00
aI00
aI00
as(g1146
g266
tp2632
(lp2633
I00
aI00
aI00
as(g425
g166
tp2634
(lp2635
I00
aI00
aI00
as(g374
g425
tp2636
(lp2637
I00
aI00
aI00
as(g329
g425
tp2638
(lp2639
I00
aI00
aI00
as(g166
g470
tp2640
(lp2641
I00
aI00
aI00
as(g1143
g1143
tp2642
(lp2643
I00
aI00
aI00
as(g374
g165
tp2644
(lp2645
I00
aI00
aI00
as(g329
g470
tp2646
(lp2647
I00
aI00
aI00
as(g1143
g329
tp2648
(lp2649
I00
aI00
aI00
as(g533
g266
tp2650
(lp2651
I00
aI00
aI00
as(g1143
g425
tp2652
(lp2653
I00
aI00
aI00
as(g329
g1146
tp2654
(lp2655
g2517
aI00
aI00
as(g374
g533
tp2656
(lp2657
I00
aI00
aI00
as(g165
g166
tp2658
(lp2659
I00
aI00
aI00
as(g329
g266
tp2660
(lp2661
I00
aI00
aI00
as(g266
g329
tp2662
(lp2663
I00
aI00
aI00
as(g533
g329
tp2664
(lp2665
I00
aI00
aI00
as(g1146
g374
tp2666
(lp2667
I00
aI00
aI00
as(g533
g425
tp2668
(lp2669
I00
aI00
aI00
as(g470
g374
tp2670
(lp2671
I00
aI00
aI00
as(g374
g1143
tp2672
(lp2673
g2517
aI00
aI01
as(g425
g425
tp2674
(lp2675
I00
aI00
aI00
as(g215
g374
tp2676
(lp2677
I00
aI00
aI00
as(g329
g215
tp2678
(lp2679
I00
aI00
aI00
as(g533
g374
tp2680
(lp2681
I00
aI00
aI00
as(g533
g533
tp2682
(lp2683
I00
aI00
aI00
as(g215
g425
tp2684
(lp2685
I00
aI00
aI00
as(g374
g166
tp2686
(lp2687
I00
aI00
aI00
as(g470
g329
tp2688
(lp2689
I00
aI00
aI00
as(g165
g1143
tp2690
(lp2691
g2517
aI00
aI01
as(g166
g533
tp2692
(lp2693
I00
aI00
aI00
as(g425
g329
tp2694
(lp2695
I00
aI00
aI00
as(g266
g165
tp2696
(lp2697
I00
aI00
aI00
as(g166
g1143
tp2698
(lp2699
I00
aI00
aI00
as(g374
g470
tp2700
(lp2701
I00
aI00
aI00
as(g1146
g165
tp2702
(lp2703
I00
aI00
aI00
as(g374
g1146
tp2704
(lp2705
g2517
aI00
aI00
as(g470
g165
tp2706
(lp2707
I00
aI00
aI00
as(g166
g166
tp2708
(lp2709
I00
aI00
aI00
as(g425
g215
tp2710
(lp2711
I00
aI00
aI00
as(g266
g1146
tp2712
(lp2713
g2517
aI00
aI00
as(g215
g1146
tp2714
(lp2715
g2517
aI00
aI00
as(g166
g1146
tp2716
(lp2717
I00
aI00
aI00
as(g166
g266
tp2718
(lp2719
I00
aI00
aI00
as(g470
g215
tp2720
(lp2721
I00
aI00
aI00
as(g215
g470
tp2722
(lp2723
I00
aI00
aI00
as(g165
g266
tp2724
(lp2725
I00
aI00
aI00
as(g1143
g1146
tp2726
(lp2727
I00
aI00
aI00
as(g329
g165
tp2728
(lp2729
I00
aI00
aI00
as(g266
g374
tp2730
(lp2731
I00
aI00
aI00
as(g215
g215
tp2732
(lp2733
I00
aI00
aI00
as(g329
g1143
tp2734
(lp2735
g2517
aI00
aI01
as(g1146
g329
tp2736
(lp2737
I00
aI00
aI00
assg639
g640
sS'pick_in_way'
p2738
(itrajectory_representation.predicates.pick_in_way
PickInWay
p2739
(dp2740
g163
(dp2741
g266
g724
sg533
g773
sg165
g829
sg425
g884
sg374
g939
sg470
g988
sg329
g1018
sg215
g1061
ssg602
(dp2742
g266
(lp2743
sg533
(lp2744
sg165
(lp2745
Vrectangular_packing_box1
p2746
asg425
(lp2747
sg374
(lp2748
sg470
(lp2749
sg329
(lp2750
sg215
(lp2751
ssg639
(lp2752
g425
ag374
ag533
ag470
ag215
ag266
ag1146
ag166
ag1143
ag329
ag1146
ag166
ag1143
ag1146
ag166
ag1143
ag1146
ag166
ag1143
ag1146
ag166
ag1143
ag1146
ag166
ag1143
ag1146
ag166
ag1143
ag1146
ag166
ag1143
asg647
g648
sg78
(dp2753
sg682
g683
sg1070
Nsg1077
g683
sg1074
(dp2754
sg1076
I8
sg1138
I01
sg1078
Nsg1079
(dp2755
(g374
g215
tp2756
I00
s(g374
g266
tp2757
I00
s(g165
g470
tp2758
I00
s(g165
g165
tp2759
I00
s(g533
g470
tp2760
I00
s(g533
g165
tp2761
I00
s(g215
g533
tp2762
I00
s(g374
g329
tp2763
I00
s(g425
g165
tp2764
I01
s(g266
g266
tp2765
I00
s(g533
g1143
tp2766
I00
s(g1146
g1143
tp2767
I00
s(g266
g215
tp2768
I00
s(g1143
g215
tp2769
I00
s(g329
g166
tp2770
I00
s(g1146
g533
tp2771
I00
s(g533
g215
tp2772
I00
s(g165
g1146
tp2773
I00
s(g374
g374
tp2774
I00
s(g1143
g374
tp2775
I00
s(g470
g533
tp2776
I00
s(g533
g166
tp2777
I00
s(g425
g470
tp2778
I00
s(g266
g425
tp2779
I00
s(g329
g329
tp2780
I00
s(g533
g1146
tp2781
I00
s(g1143
g533
tp2782
I00
s(g1143
g470
tp2783
I00
s(g1143
g165
tp2784
I00
s(g470
g166
tp2785
I00
s(g215
g266
tp2786
I00
s(g425
g266
tp2787
I00
s(g470
g425
tp2788
I00
s(g1143
g266
tp2789
I00
s(g1146
g166
tp2790
I00
s(g329
g533
tp2791
I00
s(g266
g470
tp2792
I00
s(g1146
g470
tp2793
I00
s(g470
g1146
tp2794
I00
s(g165
g374
tp2795
I00
s(g215
g329
tp2796
I00
s(g165
g533
tp2797
I00
s(g215
g166
tp2798
I00
s(g1146
g1146
tp2799
I00
s(g470
g266
tp2800
I00
s(g329
g374
tp2801
I00
s(g166
g329
tp2802
I00
s(g425
g1143
tp2803
I00
s(g166
g425
tp2804
I00
s(g215
g165
tp2805
I00
s(g165
g329
tp2806
I00
s(g470
g1143
tp2807
I00
s(g165
g425
tp2808
I00
s(g470
g470
tp2809
I00
s(g425
g533
tp2810
I00
s(g1143
g166
tp2811
I00
s(g166
g374
tp2812
I00
s(g266
g166
tp2813
I00
s(g1146
g425
tp2814
I00
s(g166
g215
tp2815
I00
s(g165
g215
tp2816
I00
s(g425
g1146
tp2817
I00
s(g215
g1143
tp2818
I00
s(g425
g374
tp2819
I00
s(g266
g533
tp2820
I00
s(g266
g1143
tp2821
I00
s(g166
g165
tp2822
I00
s(g1146
g215
tp2823
I00
s(g1146
g266
tp2824
I00
s(g425
g166
tp2825
I00
s(g374
g425
tp2826
I00
s(g329
g425
tp2827
I00
s(g166
g470
tp2828
I00
s(g1143
g1143
tp2829
I00
s(g374
g165
tp2830
I00
s(g329
g470
tp2831
I00
s(g1143
g329
tp2832
I00
s(g533
g266
tp2833
I00
s(g1143
g425
tp2834
I00
s(g329
g1146
tp2835
I00
s(g374
g533
tp2836
I00
s(g165
g166
tp2837
I00
s(g329
g266
tp2838
I00
s(g266
g329
tp2839
I00
s(g533
g329
tp2840
I00
s(g1146
g374
tp2841
I00
s(g533
g425
tp2842
I00
s(g470
g374
tp2843
I00
s(g374
g1143
tp2844
I00
s(g425
g425
tp2845
I00
s(g215
g374
tp2846
I00
s(g329
g215
tp2847
I00
s(g533
g374
tp2848
I00
s(g533
g533
tp2849
I00
s(g215
g425
tp2850
I00
s(g374
g166
tp2851
I00
s(g470
g329
tp2852
I00
s(g165
g1143
tp2853
I00
s(g166
g533
tp2854
I00
s(g425
g329
tp2855
I00
s(g266
g165
tp2856
I00
s(g166
g1143
tp2857
I00
s(g374
g470
tp2858
I00
s(g1146
g165
tp2859
I00
s(g374
g1146
tp2860
I00
s(g470
g165
tp2861
I00
s(g166
g166
tp2862
I00
s(g425
g215
tp2863
I00
s(g266
g1146
tp2864
I00
s(g215
g1146
tp2865
I00
s(g166
g1146
tp2866
I00
s(g166
g266
tp2867
I00
s(g470
g215
tp2868
I00
s(g215
g470
tp2869
I00
s(g165
g266
tp2870
I00
s(g1143
g1146
tp2871
I00
s(g329
g165
tp2872
I00
s(g266
g374
tp2873
I00
s(g215
g215
tp2874
I00
s(g329
g1143
tp2875
I00
s(g1146
g329
tp2876
I00
ssg1137
NsbsS'robot_pose'
p2877
g22
(g23
(I0
tp2878
g25
tp2879
Rp2880
(I1
(I1
I3
tp2881
g175
I00
S'\xcfU\x93\xca\x1b\x82\xfa?\x04\xac\xf2\x0e\x0b\xe4\x18\xc0\x0cS\x18\x99\x0f\xbe\x17@'
p2882
tp2883
bsS'is_holding_goal_entity'
p2884
(itrajectory_representation.predicates.is_holding_goal_entity
IsHoldingGoalEntity
p2885
(dp2886
g2483
g2484
sg1078
NsbsS'mc_pick_path'
p2887
(dp2888
sS'current_collides'
p2889
g648
sbasS'seed'
p2890
NsS'state_prime'
p2891
(lp2892
sS'problem_idx'
p2893
I7
sb.