(itrajectory_representation.trajectory
Trajectory
p0
(dp1
S'rewards'
p2
(lp3
I10
asS'actions'
p4
(lp5
(itrajectory_representation.operator
Operator
p6
(dp7
S'is_skeleton'
p8
I00
sS'discrete_parameters'
p9
(dp10
S'object'
p11
Vsquare_packing_box1
p12
sS'two_arm_place_region'
p13
S'home_region'
p14
sS'two_arm_place_object'
p15
Vsquare_packing_box1
p16
ssS'type'
p17
S'two_arm_pick_two_arm_place'
p18
sS'continuous_parameters'
p19
(dp20
S'q_goal'
p21
cnumpy.core.multiarray
_reconstruct
p22
(cnumpy
ndarray
p23
(I0
tp24
S'b'
p25
tp26
Rp27
(I1
(I3
tp28
cnumpy
dtype
p29
(S'f8'
p30
I0
I1
tp31
Rp32
(I3
S'<'
p33
NNNI-1
I-1
I0
tp34
bI00
S'\xee\x97\xeb\xabY\xf9\xd4?\x9c\xed\xde\x1d\x00\xb8\x18\xc0/\xf6p\xb21\xa3\xfd?'
p35
tp36
bsS'place'
p37
(dp38
g21
g22
(g23
(I0
tp39
g25
tp40
Rp41
(I1
(I3
tp42
g32
I00
S'\x1c\x07@\x11d\xca\xf7?\xe6H\xac\xfb\xa3\x9d\x01\xc0\xee\x9a\xe25\x81\x1b\x0c@'
p43
tp44
bssS'pick'
p45
(dp46
g21
g27
sssS'low_level_motion'
p47
(lp48
g22
(g23
(I0
tp49
g25
tp50
Rp51
(I1
(I3
tp52
g32
I00
S'K\\pi{\xbe\x02@\xbc%\x98S\x1eN\x1d\xc0\xf0\xe1\xc8\x1e"\xd5\n@'
p53
tp54
bag22
(g23
(I0
tp55
g25
tp56
Rp57
(I1
(I3
tp58
g29
(S'f8'
p59
I0
I1
tp60
Rp61
(I3
S'<'
p62
NNNI-1
I-1
I0
tp63
bI00
S'zNu~${\xfb?c\xfe\x8c\xbf\x1f\xab\x1b\xc0\x9b\xbb\x05m\x02\x02\x07@'
p64
tp65
bag22
(g23
(I0
tp66
g25
tp67
Rp68
(I1
(I3
tp69
g61
I00
S'\x0c\x0f=\x82\xe8\x10\xef?\x95;\xd2\x17&\xe7\x1b\xc0\xf2\xbb\xbd\xb4q\x0b\t@'
p70
tp71
bag22
(g23
(I0
tp72
g25
tp73
Rp74
(I1
(I3
tp75
g61
I00
S'\xfe\xcb\x95>\x9aG\xe1?\xc8?\x9f\xd9\xb8\xe7\x19\xc0\xdb\x1a;\xf0\x837\xfe?'
p76
tp77
bag27
ag27
asbasS'filename'
p78
S''
p79
sS'states'
p80
(lp81
(itrajectory_representation.shortest_path_pick_and_place_state
ShortestPathPaPState
p82
(dp83
S'place_used'
p84
(dp85
(g16
g14
tp86
(itrajectory_representation.operator
Operator
p87
(dp88
g8
I01
sg9
(dp89
S'region'
p90
g14
sg11
g16
ssg17
S'two_arm_place'
p91
sg19
(dp92
g21
g22
(g23
(I0
tp93
g25
tp94
Rp95
(I1
(I3
tp96
g32
I00
S'\x1c\x07@\x11d\xca\xf7?\xe6H\xac\xfb\xa3\x9d\x01\xc0\xee\x9a\xe25\x81\x1b\x0c@'
p97
tp98
bssg47
(lp99
g22
(g23
(I0
tp100
g25
tp101
Rp102
(I1
(I3
tp103
g32
I00
S'\xb0\x97\xeb\xabY\xf9\xd4?\x96\xed\xde\x1d\x00\xb8\x18\xc0*\xf6p\xb21\xa3\xfd?'
p104
tp105
bag22
(g23
(I0
tp106
g25
tp107
Rp108
(I1
(I3
tp109
g61
I00
S'Dz\xddx\xe9\xf0\xb4?\x9c\xf2\xf6\xf0\xef \x18\xc0\x03\xe5\x88\xf0JN\xf3?'
p110
tp111
bag22
(g23
(I0
tp112
g25
tp113
Rp114
(I1
(I3
tp115
g61
I00
S'\xbc\xcaD\xb3\xa5\xd0\xda?5\x9e\xd8L\xbc\xff\x15\xc0\x86v/\xef\x06;\xe9\xbf'
p116
tp117
bag22
(g23
(I0
tp118
g25
tp119
Rp120
(I1
(I3
tp121
g61
I00
S'\xa9\xd9\x1d\x8d\xa6j\xdf?\xa0\x85\x1a\x84\xc6\xec\x12\xc0\x01\xb6 H\xb1\x91\xeb?'
p122
tp123
bag22
(g23
(I0
tp124
g25
tp125
Rp126
(I1
(I3
tp127
g61
I00
S'\x93k\xbc\xee\xc2\x10\xe8?\xab^\x86?\x08D\x10\xc0\x10;2\x00\xe5\t\xde?'
p128
tp129
bag22
(g23
(I0
tp130
g25
tp131
Rp132
(I1
(I3
tp133
g61
I00
S"'\x9a\xf9\xb6\xa6\x07\xd4?\xfd&XK\xc6_\x0c\xc0\xaeF\xa6S\xdb\xad\xba?"
p134
tp135
bag22
(g23
(I0
tp136
g25
tp137
Rp138
(I1
(I3
tp139
g61
I00
S'M\x96\xea\xee\x17\x04\xdd?R\xe0T\xecA\xde\x06\xc0\x9a +sW,\xe5\xbf'
p140
tp141
bag22
(g23
(I0
tp142
g25
tp143
Rp144
(I1
(I3
tp145
g61
I00
S'\x99\x94\xd7\x8f\x10k\xf0?\x7f\xef\xb5\xdcX\xb6\x04\xc0~\xf8\xf4U\x11+\x00\xc0'
p146
tp147
bag95
ag95
asbssS'place_in_way'
p148
(itrajectory_representation.predicates.place_in_way
PlaceInWay
p149
(dp150
S'mc_path_to_entity'
p151
(dp152
(Vrectangular_packing_box3
p153
S'home_region'
p154
tp155
(lp156
g22
(g23
(I0
tp157
g25
tp158
Rp159
(I1
(I3
tp160
g29
(S'f8'
p161
I0
I1
tp162
Rp163
(I3
S'<'
p164
NNNI-1
I-1
I0
tp165
bI00
S'\x10}D#\xd7\xc3\x05@\x8a\xc4~\xca\x15{\x18\xc0\xd7\xe7p\x86r.\xe5?'
p166
tp167
bag22
(g23
(I0
tp168
g25
tp169
Rp170
(I1
(I3
tp171
g29
(S'f8'
p172
I0
I1
tp173
Rp174
(I3
S'<'
p175
NNNI-1
I-1
I0
tp176
bI00
S'/\xe1\x02^.|\x00@\xb8\xae\xc5\xcfF\x16\x17\xc0\xf8\x01)d\xc5\xf9\xe2?'
p177
tp178
bag22
(g23
(I0
tp179
g25
tp180
Rp181
(I1
(I3
tp182
g174
I00
S'\x85\\2\xba\x0b5\xf5?I\r\x06\xd10\xfb\x15\xc0\x9e\x11\xee\xd8\xb9\xd7\xf5?'
p183
tp184
bag22
(g23
(I0
tp185
g25
tp186
Rp187
(I1
(I3
tp188
g174
I00
S'v\xb8^\x85\xa7[\xea?x\xbe\xff2t\x8d\x13\xc0\x88\x85\x8cCyH\xf6?'
p189
tp190
bag22
(g23
(I0
tp191
g25
tp192
Rp193
(I1
(I3
tp194
g174
I00
S'\xc2\xda(e\x83\x1a\xeb?\x8au\x8d3\xa6E\x11\xc0\xb4c\x1b\xed_\xfd\xfa?'
p195
tp196
bag22
(g23
(I0
tp197
g25
tp198
Rp199
(I1
(I3
tp200
g174
I00
S'\xe4u**\x0e5\xe9?\xaa\xfd\r\xed\xc4\xf6\r\xc0\x0fDE0\x1f\x0b\xfe?'
p201
tp202
bag22
(g23
(I0
tp203
g25
tp204
Rp205
(I1
(I3
tp206
g174
I00
S'\x06\x11,\xef\x98O\xe7??\x10\x01s=b\t\xc04\x92\xb79o\x8c\x00@'
p207
tp208
bag22
(g23
(I0
tp209
g25
tp210
Rp211
(I1
(I3
tp212
g174
I00
S'\x92\xaf\xf3P\x96O\xc2?(\xa1:\x8er}\x05\xc0\xd4_\x91\xb3\xffL\x02@'
p213
tp214
bas(Vsquare_packing_box4
p215
g154
tp216
(lp217
g22
(g23
(I0
tp218
g25
tp219
Rp220
(I1
(I3
tp221
g163
I00
S'v\xd6\x8f-X\xb9\x06@\xb9`\xe5\x0c,k\x19\xc0\x9c\xd1\x8d?\xb0\xd9\x02@'
p222
tp223
bag22
(g23
(I0
tp224
g25
tp225
Rp226
(I1
(I3
tp227
g174
I00
S'\xf60LV\xe8\x96\x00@\x9aEw{a\xe2\x18\xc0^\xa8\x8a,\xa3\x98\x00@'
p228
tp229
bag22
(g23
(I0
tp230
g25
tp231
Rp232
(I1
(I3
tp233
g174
I00
S'\xe0 ;\x819w\xfd?\xe7\xcc\xc2\xa0\xa5f\x17\xc04\xedq\x1c\x8eK\xfa?'
p234
tp235
bag22
(g23
(I0
tp236
g25
tp237
Rp238
(I1
(I3
tp239
g174
I00
S'\x85\\2\xba\x0b5\xf5?I\r\x06\xd10\xfb\x15\xc0\x9e\x11\xee\xd8\xb9\xd7\xf5?'
p240
tp241
bag22
(g23
(I0
tp242
g25
tp243
Rp244
(I1
(I3
tp245
g174
I00
S'v\xb8^\x85\xa7[\xea?x\xbe\xff2t\x8d\x13\xc0\x88\x85\x8cCyH\xf6?'
p246
tp247
bag22
(g23
(I0
tp248
g25
tp249
Rp250
(I1
(I3
tp251
g174
I00
S'\xc2\xda(e\x83\x1a\xeb?\x8au\x8d3\xa6E\x11\xc0\xb4c\x1b\xed_\xfd\xfa?'
p252
tp253
bag22
(g23
(I0
tp254
g25
tp255
Rp256
(I1
(I3
tp257
g174
I00
S'\xe4u**\x0e5\xe9?\xaa\xfd\r\xed\xc4\xf6\r\xc0\x0fDE0\x1f\x0b\xfe?'
p258
tp259
bag22
(g23
(I0
tp260
g25
tp261
Rp262
(I1
(I3
tp263
g174
I00
S'\x06\x11,\xef\x98O\xe7??\x10\x01s=b\t\xc04\x92\xb79o\x8c\x00@'
p264
tp265
bag22
(g23
(I0
tp266
g25
tp267
Rp268
(I1
(I3
tp269
g174
I00
S'\x92\xaf\xf3P\x96O\xc2?(\xa1:\x8er}\x05\xc0\xd4_\x91\xb3\xffL\x02@'
p270
tp271
bas(Vrectangular_packing_box4
p272
g154
tp273
(lp274
g22
(g23
(I0
tp275
g25
tp276
Rp277
(I1
(I3
tp278
g163
I00
S'\xa0\xa7\xa9\xf3$[\xf2?^e\xc9\x80A\xdc\x1d\xc0"\x89\xbf\xdb\xea\x13\x14@'
p279
tp280
bag22
(g23
(I0
tp281
g25
tp282
Rp283
(I1
(I3
tp284
g174
I00
S'\xba)c\x05l\x93\xf4?\x8f\x0f\xa1<\xee\x05\x1c\xc0\xf9-\x16\x17\xc6`\xf8\xbf'
p285
tp286
bag22
(g23
(I0
tp287
g25
tp288
Rp289
(I1
(I3
tp290
g174
I00
S'\xb0\xcfg\xd5._\xe8?\xd6\x8d\xba\x87\x91D\x1a\xc0\xea!\xf73\x0cB\xf7\xbf'
p291
tp292
bag22
(g23
(I0
tp293
g25
tp294
Rp295
(I1
(I3
tp296
g174
I00
S"\x1aq\xa1\x96-\xd2\xec?\xa2\x8f\xd2'\xa1I\x18\xc0\x06\xea(\x89^*\xf2\xbf"
p297
tp298
bag22
(g23
(I0
tp299
g25
tp300
Rp301
(I1
(I3
tp302
g174
I00
S'tx\x8as\xa8b\xed?\x9ej\x15\xfa\xf0{\x15\xc0@\xed\x9a-\x9eD\xf2\xbf'
p303
tp304
bag22
(g23
(I0
tp305
g25
tp306
Rp307
(I1
(I3
tp308
g174
I00
S'\xb0E\xbb;Cb\xeb?\x9e\xde\xa7\xdd\xbdd\x12\xc0\xc6\xee\xbd\x16\x8c\xaa\xf3\xbf'
p309
tp310
bag22
(g23
(I0
tp311
g25
tp312
Rp313
(I1
(I3
tp314
g174
I00
S'`\xc8Aw-\x81\xeb?/\xc3\xe6O\x04\xca\x10\xc0\x8a\xb7K)\x91{\xe4\xbf'
p315
tp316
bag22
(g23
(I0
tp317
g25
tp318
Rp319
(I1
(I3
tp320
g174
I00
S'\xe1\xc6\xc7\xa7\x12X\xe7?\x98\x99\xb0\x9a\xfb\xdb\x0b\xc0R\t\x1b)\xeae\xe0\xbf'
p321
tp322
bag22
(g23
(I0
tp323
g25
tp324
Rp325
(I1
(I3
tp326
g174
I00
S'p\xf1\xbdc^\x84\xf1?"\x88LL\xf9D\x06\xc0~w\r\xe9m\x0f\x19@'
p327
tp328
bas(Vsquare_packing_box1
p329
g154
tp330
(lp331
g22
(g23
(I0
tp332
g25
tp333
Rp334
(I1
(I3
tp335
g163
I00
S'\x00\x98\xeb\xabY\xf9\xd4?\x9e\xed\xde\x1d\x00\xb8\x18\xc00\xf6p\xb21\xa3\xfd?'
p336
tp337
bag22
(g23
(I0
tp338
g25
tp339
Rp340
(I1
(I3
tp341
g174
I00
S'E6\xa2Z]\x01\xe8?\x8b\x06T\x92\xa7\x82\x16\xc0q\xc1\x9f~\xe7\n\xfb?'
p342
tp343
bag22
(g23
(I0
tp344
g25
tp345
Rp346
(I1
(I3
tp347
g174
I00
S'v\xb8^\x85\xa7[\xea?x\xbe\xff2t\x8d\x13\xc0\x88\x85\x8cCyH\xf6?'
p348
tp349
bag22
(g23
(I0
tp350
g25
tp351
Rp352
(I1
(I3
tp353
g174
I00
S'\xc2\xda(e\x83\x1a\xeb?\x8au\x8d3\xa6E\x11\xc0\xb4c\x1b\xed_\xfd\xfa?'
p354
tp355
bag22
(g23
(I0
tp356
g25
tp357
Rp358
(I1
(I3
tp359
g174
I00
S'\xe4u**\x0e5\xe9?\xaa\xfd\r\xed\xc4\xf6\r\xc0\x0fDE0\x1f\x0b\xfe?'
p360
tp361
bag22
(g23
(I0
tp362
g25
tp363
Rp364
(I1
(I3
tp365
g174
I00
S'\x06\x11,\xef\x98O\xe7??\x10\x01s=b\t\xc04\x92\xb79o\x8c\x00@'
p366
tp367
bag22
(g23
(I0
tp368
g25
tp369
Rp370
(I1
(I3
tp371
g174
I00
S'\x92\xaf\xf3P\x96O\xc2?(\xa1:\x8er}\x05\xc0\xd4_\x91\xb3\xffL\x02@'
p372
tp373
bas(Vsquare_packing_box2
p374
g154
tp375
(lp376
g22
(g23
(I0
tp377
g25
tp378
Rp379
(I1
(I3
tp380
g163
I00
S'\xc6\x85\x92\xbc!{\x06@\xe4\x82\x83\xb1\xba\xaf\x1d\xc0J.+\x9a0k\x14@'
p381
tp382
bag22
(g23
(I0
tp383
g25
tp384
Rp385
(I1
(I3
tp386
g174
I00
S'\xc4_\xf9\x03N\xba\x00@R\xfd8\x1fs\r\x1d\xc0\xa1\xe6w68\xd4\x03\xc0'
p387
tp388
bag22
(g23
(I0
tp389
g25
tp390
Rp391
(I1
(I3
tp392
g174
I00
S'\x84\xa3|.\x10\xee\xfc?\xfc\xc5\t\x9e\xc3\xe9\x1a\xc0\xec\x96S\xb5\x05\x08\x05\xc0'
p393
tp394
bag22
(g23
(I0
tp395
g25
tp396
Rp397
(I1
(I3
tp398
g174
I00
S'\xa1\x0f=\xe0\x1aF\xfc?e&S\xf6\xb5\xfc\x17\xc0s\xad\xdc\xd8h\x9b\x04\xc0'
p399
tp400
bag22
(g23
(I0
tp401
g25
tp402
Rp403
(I1
(I3
tp404
g174
I00
S'R\x12);\xaf\xa5\xf7?\xf3\xf9\xeb\x07c\xef\x15\xc0\xf0V^\xd6\x94\x96\x05\xc0'
p405
tp406
bag22
(g23
(I0
tp407
g25
tp408
Rp409
(I1
(I3
tp410
g174
I00
S'K\x19\xdd\x9a\xe6\xce\xe9?\xe1\x08\xb9\xe6+\xc9\x15\xc0\xeeN\x0e\xdd1/\x08\xc0'
p411
tp412
bag22
(g23
(I0
tp413
g25
tp414
Rp415
(I1
(I3
tp416
g174
I00
S'\x16nfXE \xf2?\x06\xf1|#c\xe6\x12\xc08\x98\x8f,\xc1@\x04\xc0'
p417
tp418
bag22
(g23
(I0
tp419
g25
tp420
Rp421
(I1
(I3
tp422
g174
I00
S'\xc1E\xbb\x1b\xed\x13\xf3?\xca\xdcw\xec\x1a\x18\x10\xc0j\xed\xec2j\x8c\x04\xc0'
p423
tp424
bag22
(g23
(I0
tp425
g25
tp426
Rp427
(I1
(I3
tp428
g174
I00
S'\xf09\xb6\x1c*\x86\xee?\xc4\n/\x96\xcb\xe3\n\xc0\xa0\xc9\xd6F6\x0f\x00\xc0'
p429
tp430
bag22
(g23
(I0
tp431
g25
tp432
Rp433
(I1
(I3
tp434
g174
I00
S'3\xe9\xaf\x05T\x89\xe7?+~\xcb\xd3\x15\xc7\x04\xc0x6(d5\xed\x07@'
p435
tp436
bas(Vrectangular_packing_box1
p437
g154
tp438
(lp439
g22
(g23
(I0
tp440
g25
tp441
Rp442
(I1
(I3
tp443
g163
I00
S'\xd8=l\xffZ*\xfb?R"\xac2\xfe\xde\x19\xc0\xd8\x11\xf9\xec\x84\xc0\x03@'
p444
tp445
bag22
(g23
(I0
tp446
g25
tp447
Rp448
(I1
(I3
tp449
g174
I00
S'\x84\xa2s4\xa1\xd0\xf6?E=|\xb9\xcam\x17\xc0\xa93^V\xfc\xed\x05@'
p450
tp451
bag22
(g23
(I0
tp452
g25
tp453
Rp454
(I1
(I3
tp455
g174
I00
S'f\xb4\x9c\x07\xac\xbf\xec?n\x96\x96\x9e\x90n\x16\xc0uo!\xa9\x9b\x82\x07@'
p456
tp457
bag22
(g23
(I0
tp458
g25
tp459
Rp460
(I1
(I3
tp461
g174
I00
S'm\xd5h\x072\x03\xea?\xdf\xe5\xe82\xd3\x17\x14\xc0\x08\x9e\xe1\xfbO\x94\x08@'
p462
tp463
bag22
(g23
(I0
tp464
g25
tp465
Rp466
(I1
(I3
tp467
g174
I00
S'\xc6\x05\xbdtg\xd9\xe2?F\xdf\x9d@\\\xf3\x11\xc0\x1a\xc4.\xbb\xcc\x12\x02@'
p468
tp469
bag22
(g23
(I0
tp470
g25
tp471
Rp472
(I1
(I3
tp473
g174
I00
S'3z\xed\x8eN)\xe4?\x0c\x96\xd4\xa2\x0e\xd0\r\xc0\xbd%\xf5{\xe9\xf9\x03@'
p474
tp475
bag22
(g23
(I0
tp476
g25
tp477
Rp478
(I1
(I3
tp479
g174
I00
S'\xaf0\xe9h\xba~\xee?k\xbb\xd8\xd4\xd0g\t\xc09\x9ey\xed\xb06\x06@'
p480
tp481
bag22
(g23
(I0
tp482
g25
tp483
Rp484
(I1
(I3
tp485
g174
I00
S'\xf4\xfdJ\x1a(#\xec?H"\x9cD\x1aE\x05\xc0.\xa9\x0b\x87\xf8\xe1\x02@'
p486
tp487
bas(Vsquare_packing_box3
p488
g154
tp489
(lp490
g22
(g23
(I0
tp491
g25
tp492
Rp493
(I1
(I3
tp494
g163
I00
S'\xd0-\n$\xc9?\xd0\xbf\xf6\xe3$$\xfb\xf5\x18\xc0\xe3R\x84l7%\xf5?'
p495
tp496
bag22
(g23
(I0
tp497
g25
tp498
Rp499
(I1
(I3
tp500
g174
I00
S'T]\x0c\x0e\xd89\xda?\xf4\x992\x11%\\\x18\xc0\x95\x7f\x10B\xb1)\xe3?'
p501
tp502
bag22
(g23
(I0
tp503
g25
tp504
Rp505
(I1
(I3
tp506
g174
I00
S'\xd8\x87\x03p)T\xe4?\xd5\xabI\xb7V\xd0\x15\xc0vWg\x9a\x87\x8a\xec?'
p507
tp508
bag22
(g23
(I0
tp509
g25
tp510
Rp511
(I1
(I3
tp512
g174
I00
S'\xa9\xd9\x1d\x8d\xa6j\xdf?\xa0\x85\x1a\x84\xc6\xec\x12\xc0\x01\xb6 H\xb1\x91\xeb?'
p513
tp514
bag22
(g23
(I0
tp515
g25
tp516
Rp517
(I1
(I3
tp518
g174
I00
S'\x93k\xbc\xee\xc2\x10\xe8?\xab^\x86?\x08D\x10\xc0\x10;2\x00\xe5\t\xde?'
p519
tp520
bag22
(g23
(I0
tp521
g25
tp522
Rp523
(I1
(I3
tp524
g174
I00
S'\xef\xc3u*\xfb\xdb\xeb?\x8d\xa5\n\xfd\x03<\n\xc0\xd8\xfb\xde\x16R\xac\xde?'
p525
tp526
bag22
(g23
(I0
tp527
g25
tp528
Rp529
(I1
(I3
tp530
g174
I00
S'\xf4\xfdJ\x1a(#\xec?H"\x9cD\x1aE\x05\xc0.\xa9\x0b\x87\xf8\xe1\x02@'
p531
tp532
bas(Vrectangular_packing_box2
p533
g154
tp534
(lp535
g22
(g23
(I0
tp536
g25
tp537
Rp538
(I1
(I3
tp539
g163
I00
S'\xec"vp\xe44\n@\x19h5\xb3~\xee\x1f\xc0y\xc4\xd2v\x1dn\xda?'
p540
tp541
bag22
(g23
(I0
tp542
g25
tp543
Rp544
(I1
(I3
tp545
g174
I00
S'X\xa3:\xe5b\x88\t@r\x1f\xf5\xe0\x86\xd2\x1d\xc0#R\x94\x0eU\x99\xe0?'
p546
tp547
bag22
(g23
(I0
tp548
g25
tp549
Rp550
(I1
(I3
tp551
g174
I00
S'0\xf2\xd6\x9e\xed\xca\x04@\xdc>\xfd\x07B\x8f\x1d\xc0\xe2\xaf5\x16\xb4\x0c\xda?'
p552
tp553
bag22
(g23
(I0
tp554
g25
tp555
Rp556
(I1
(I3
tp557
g174
I00
S'\xc3#\x9b"m=\x05@O\x1c\xaf\xffo\x1c\x1b\xc0\xa4\xc19\xdd\xaa\xea\xdd?'
p558
tp559
bag22
(g23
(I0
tp560
g25
tp561
Rp562
(I1
(I3
tp563
g174
I00
S'A\xec\xb55+(\x03@v\x14\x1a\xc5J\xca\x18\xc0\xe9\rA\xa0%\xbe\xc7?'
p564
tp565
bag22
(g23
(I0
tp566
g25
tp567
Rp568
(I1
(I3
tp569
g174
I00
S'/\xe1\x02^.|\x00@\xb8\xae\xc5\xcfF\x16\x17\xc0\xf8\x01)d\xc5\xf9\xe2?'
p570
tp571
bag22
(g23
(I0
tp572
g25
tp573
Rp574
(I1
(I3
tp575
g174
I00
S'\x85\\2\xba\x0b5\xf5?I\r\x06\xd10\xfb\x15\xc0\x9e\x11\xee\xd8\xb9\xd7\xf5?'
p576
tp577
bag22
(g23
(I0
tp578
g25
tp579
Rp580
(I1
(I3
tp581
g174
I00
S'v\xb8^\x85\xa7[\xea?x\xbe\xff2t\x8d\x13\xc0\x88\x85\x8cCyH\xf6?'
p582
tp583
bag22
(g23
(I0
tp584
g25
tp585
Rp586
(I1
(I3
tp587
g174
I00
S'\xc2\xda(e\x83\x1a\xeb?\x8au\x8d3\xa6E\x11\xc0\xb4c\x1b\xed_\xfd\xfa?'
p588
tp589
bag22
(g23
(I0
tp590
g25
tp591
Rp592
(I1
(I3
tp593
g174
I00
S'\xe4u**\x0e5\xe9?\xaa\xfd\r\xed\xc4\xf6\r\xc0\x0fDE0\x1f\x0b\xfe?'
p594
tp595
bag22
(g23
(I0
tp596
g25
tp597
Rp598
(I1
(I3
tp599
g174
I00
S'\x06\x11,\xef\x98O\xe7??\x10\x01s=b\t\xc04\x92\xb79o\x8c\x00@'
p600
tp601
bag22
(g23
(I0
tp602
g25
tp603
Rp604
(I1
(I3
tp605
g174
I00
S'\x92\xaf\xf3P\x96O\xc2?(\xa1:\x8er}\x05\xc0\xd4_\x91\xb3\xffL\x02@'
p606
tp607
bassS'mc_to_entity'
p608
(dp609
(g153
g154
tp610
(lp611
Vsquare_packing_box4
p612
aVrectangular_packing_box1
p613
aVsquare_packing_box1
p614
as(g215
g154
tp615
(lp616
Vrectangular_packing_box1
p617
aVsquare_packing_box1
p618
as(g272
g154
tp619
(lp620
Vrectangular_packing_box1
p621
aVsquare_packing_box1
p622
as(g329
g154
tp623
(lp624
Vrectangular_packing_box1
p625
as(g374
g154
tp626
(lp627
Vrectangular_packing_box1
p628
aVsquare_packing_box1
p629
aVsquare_packing_box3
p630
as(g437
g154
tp631
(lp632
Vsquare_packing_box1
p633
aVsquare_packing_box3
p634
as(g488
g154
tp635
(lp636
Vsquare_packing_box1
p637
as(g533
g154
tp638
(lp639
Vsquare_packing_box2
p640
aVsquare_packing_box4
p641
aVrectangular_packing_box3
p642
aVrectangular_packing_box1
p643
aVsquare_packing_box1
p644
assS'reachable_entities'
p645
(lp646
Vrectangular_packing_box4
p647
aVrectangular_packing_box3
p648
aVrectangular_packing_box1
p649
aVsquare_packing_box2
p650
aVsquare_packing_box3
p651
ag12
aVsquare_packing_box4
p652
asS'collides'
p653
(dp654
Vrectangular_packing_box4
p655
c__builtin__
set
p656
((lp657
I448
aI392
aI505
aI406
aI486
aI593
aI264
aI490
aI494
aI463
aI464
aI177
aI374
aI407
aI120
aI121
aI122
aI159
atp658
Rp659
sVrectangular_packing_box2
p660
g656
((lp661
I193
aI387
aI617
aI269
aI213
aI280
aI245
atp662
Rp663
sVrectangular_packing_box3
p664
g656
((lp665
I0
aI1
aI2
aI393
aI403
aI539
aI541
aI288
aI289
aI546
aI39
aI40
aI41
aI555
aI304
aI571
aI62
aI454
aI342
aI348
aI605
aI371
aI377
aI378
atp666
Rp667
sVrectangular_packing_box1
p668
g656
((lp669
I4
aI5
aI137
aI132
aI517
aI416
aI33
aI34
aI35
aI554
aI43
aI44
aI301
aI584
aI310
aI55
aI56
aI187
aI449
aI70
aI161
aI456
aI201
aI202
aI203
aI162
aI595
aI84
aI597
aI93
aI94
aI607
aI327
aI484
aI233
aI106
aI107
aI108
aI497
aI252
atp670
Rp671
sVsquare_packing_box2
p672
g656
((lp673
I513
aI386
aI515
aI260
aI613
aI552
aI111
aI112
aI337
aI339
aI117
aI118
aI375
aI440
aI572
aI573
aI286
atp674
Rp675
sVsquare_packing_box3
p676
g656
((lp677
I417
aI491
aI7
aI139
aI275
aI503
aI349
aI350
aI351
atp678
Rp679
sVsquare_packing_box1
p680
g656
((lp681
I517
aI7
aI8
aI9
aI139
aI31
aI32
aI33
aI44
aI45
aI186
aI95
aI189
aI196
aI71
aI459
aI472
aI349
aI350
aI351
aI233
aI234
aI235
aI108
aI503
atp682
Rp683
sVsquare_packing_box4
p684
g656
((lp685
I2
aI3
aI393
aI395
aI404
aI539
aI160
aI161
aI37
aI38
aI39
aI40
aI41
aI42
aI304
aI561
aI178
aI435
aI309
aI54
aI62
aI63
aI288
aI289
aI248
aI611
aI550
aI115
aI372
aI376
aI379
aI380
atp686
Rp687
ssg84
g85
sS'pick_used'
p688
(dp689
g647
(itrajectory_representation.operator
Operator
p690
(dp691
g8
I01
sg9
(dp692
S'object'
p693
Vrectangular_packing_box4
p694
ssg17
S'two_arm_pick'
p695
sg19
(dp696
S'q_goal'
p697
(lp698
g22
(g23
(I0
tp699
g25
tp700
Rp701
(I1
(I3
tp702
g163
I00
S'\x97\xa7\xa9\xf3$[\xf2?`e\xc9\x80A\xdc\x1d\xc0\xd8\x8f\x12\xe2A8\xf4\xbf'
p703
tp704
bag22
(g23
(I0
tp705
g25
tp706
Rp707
(I1
(I3
tp708
g163
I00
S'\x88\x81\x8d\x19\xa1C\xf0?\xaeK\x06w\xf2\xdb\x1d\xc0\xe0\x1e\xbf\r\x10\xbb\xf1\xbf'
p709
tp710
bag22
(g23
(I0
tp711
g25
tp712
Rp713
(I1
(I3
tp714
g163
I00
S'\xf4\x86\x9f\x85\x08\x9c\xfd?)\xb8\x92\x85W\n\x1f\xc0\xaa\xa7\xd1\x16\x06o\x06\xc0'
p715
tp716
bag22
(g23
(I0
tp717
g25
tp718
Rp719
(I1
(I3
tp720
g163
I00
S'\x981\x06\x93\x8d\x99\xed?D\x11\xd9$\x81\xe9\x1d\xc0\xee\xf3\x12\xd8&\xb4\xf4\xbf'
p721
tp722
basS'is_feasible'
p723
I00
ssg47
(lp724
g22
(g23
(I0
tp725
g25
tp726
Rp727
(I1
(I3
tp728
g163
I00
S'@\\pi{\xbe\x02@\xaa%\x98S\x1eN\x1d\xc0\xf0\xe1\xc8\x1e"\xd5\n@'
p729
tp730
bag713
asbsVrectangular_packing_box2
p731
(itrajectory_representation.operator
Operator
p732
(dp733
g8
I01
sg9
(dp734
g693
Vrectangular_packing_box2
p735
ssg17
g695
sg19
(dp736
g697
(lp737
g22
(g23
(I0
tp738
g25
tp739
Rp740
(I1
(I3
tp741
g163
I00
S'\xe5"vp\xe44\n@\x14h5\xb3~\xee\x1f\xc0x\xc4\xd2v\x1dn\xda?'
p742
tp743
bag22
(g23
(I0
tp744
g25
tp745
Rp746
(I1
(I3
tp747
g163
I00
S'\xb1\x8d@\xf6R1\n@\x1c\xff\x1e{*\xb3\x1e\xc0\xfa$\xa8\x08\x18\x01\xc2\xbf'
p748
tp749
bag22
(g23
(I0
tp750
g25
tp751
Rp752
(I1
(I3
tp753
g163
I00
S"\xe5VeA\xed\xe6\n@\xa2\x19\x81\x85q\x93\x1e\xc0\x05'\xbc\xb2\xcf\x0b\xd1\xbf"
p754
tp755
basg723
I00
ssg47
(lp756
g22
(g23
(I0
tp757
g25
tp758
Rp759
(I1
(I3
tp760
g163
I00
S'@\\pi{\xbe\x02@\xaa%\x98S\x1eN\x1d\xc0\xf0\xe1\xc8\x1e"\xd5\n@'
p761
tp762
bag22
(g23
(I0
tp763
g25
tp764
Rp765
(I1
(I3
tp766
g174
I00
S'\x97hw\xab\xc4\xaf\x00@\xfa\xe6\x8b\x80\x7f\xd5\x1d\xc0\x0e\x07\x94\xe05\x80\x0e@'
p767
tp768
bag22
(g23
(I0
tp769
g25
tp770
Rp771
(I1
(I3
tp772
g174
I00
S'h\xe5u\t\x19Z\x05@*\x05#\xa8W\x05\x1f\xc0\t\xdeI\x16\xa6\x8a\xee?'
p773
tp774
bag746
asbsg648
(itrajectory_representation.operator
Operator
p775
(dp776
g8
I01
sg9
(dp777
g693
Vrectangular_packing_box3
p778
ssg17
g695
sg19
(dp779
g697
(lp780
g22
(g23
(I0
tp781
g25
tp782
Rp783
(I1
(I3
tp784
g163
I00
S'\x0c}D#\xd7\xc3\x05@\x88\xc4~\xca\x15{\x18\xc0\xd6\xe7p\x86r.\xe5?'
p785
tp786
bag22
(g23
(I0
tp787
g25
tp788
Rp789
(I1
(I3
tp790
g163
I00
S'J\xce\xf2Be\xe6\x0b@T\xe7\xe8\x91 \xa3\x12\xc0\xf6\xc9i\x97\xd1\x86\xfc\xbf'
p791
tp792
bag22
(g23
(I0
tp793
g25
tp794
Rp795
(I1
(I3
tp796
g163
I00
S's\xd1pub\x92\x04@\x080*(R\t\x18\xc0\x8a\x1cF\xa2\xcc\x9c\xe6?'
p797
tp798
bag22
(g23
(I0
tp799
g25
tp800
Rp801
(I1
(I3
tp802
g163
I00
S'\xda\xbb\xf1\xcf\xa4r\r@\xc33&\x80\xd2\xcb\x17\xc0\x02\xbb\xa8\xcb\xb59\x07@'
p803
tp804
basg723
I00
ssg47
(lp805
g22
(g23
(I0
tp806
g25
tp807
Rp808
(I1
(I3
tp809
g163
I00
S'@\\pi{\xbe\x02@\xaa%\x98S\x1eN\x1d\xc0\xf0\xe1\xc8\x1e"\xd5\n@'
p810
tp811
bag22
(g23
(I0
tp812
g25
tp813
Rp814
(I1
(I3
tp815
g174
I00
S'py\xe7\x92\x10\x1c\x08@_z\xb4M\xdc\xbc\x1b\xc0\xe2\x81s\x12\x81\x12\x08\xc0'
p816
tp817
bag22
(g23
(I0
tp818
g25
tp819
Rp820
(I1
(I3
tp821
g174
I00
S'\x1a\x93i\x05\xaa2\t@a5{\xa3z\xe3\x18\xc0\xcc\x05-\x9f\x13\x12\x05\xc0'
p822
tp823
bag801
asbsg649
(itrajectory_representation.operator
Operator
p824
(dp825
g8
I01
sg9
(dp826
g693
Vrectangular_packing_box1
p827
ssg17
g695
sg19
(dp828
g697
(lp829
g22
(g23
(I0
tp830
g25
tp831
Rp832
(I1
(I3
tp833
g163
I00
S'\xd6=l\xffZ*\xfb?S"\xac2\xfe\xde\x19\xc0\xd8\x11\xf9\xec\x84\xc0\x03@'
p834
tp835
bag22
(g23
(I0
tp836
g25
tp837
Rp838
(I1
(I3
tp839
g163
I00
S'\x8c\x860P\x997\xdf?\x89_\x14\xc9=D\x19\xc0\xae\x1e}x\xf7\x92\xe3?'
p840
tp841
bag22
(g23
(I0
tp842
g25
tp843
Rp844
(I1
(I3
tp845
g163
I00
S'\x1e\n\xc8\x87\x0b\x13\xfb?\xf3\x97\x9f\x00/A\x1a\xc0\x98:\xfd\n\x1a\r\x00@'
p846
tp847
basg723
I00
ssg47
(lp848
g22
(g23
(I0
tp849
g25
tp850
Rp851
(I1
(I3
tp852
g163
I00
S'@\\pi{\xbe\x02@\xaa%\x98S\x1eN\x1d\xc0\xf0\xe1\xc8\x1e"\xd5\n@'
p853
tp854
bag22
(g23
(I0
tp855
g25
tp856
Rp857
(I1
(I3
tp858
g174
I00
S"'DJ\xaet\xe5\x02@&#\x93\x97\x82\xb8\x1b\xc0\xdbM\xcc\xf6#.\x08@"
p859
tp860
bag22
(g23
(I0
tp861
g25
tp862
Rp863
(I1
(I3
tp864
g174
I00
S'b\x95[\xf7r*\x00@:\x8f7a\xbf]\x1c\xc0\x98.\xce\xc6\x89M\xf2?'
p865
tp866
bag844
asbsg650
(itrajectory_representation.operator
Operator
p867
(dp868
g8
I01
sg9
(dp869
g693
Vsquare_packing_box2
p870
ssg17
g695
sg19
(dp871
g697
(lp872
g22
(g23
(I0
tp873
g25
tp874
Rp875
(I1
(I3
tp876
g163
I00
S'\xc4\x85\x92\xbc!{\x06@\xe6\x82\x83\xb1\xba\xaf\x1d\xc03\xfbc\xe8*\xdb\xf2\xbf'
p877
tp878
bag22
(g23
(I0
tp879
g25
tp880
Rp881
(I1
(I3
tp882
g163
I00
S'`\xbc`\xa4\xaa6\x02@\x03\xa3\x9f\x82n& \xc0.#\xde\xc2\xaa\xf6\xa9\xbf'
p883
tp884
bag22
(g23
(I0
tp885
g25
tp886
Rp887
(I1
(I3
tp888
g163
I00
S'ZWj\xb40\xdf\x00@J\xcf\xde\xe9\xc9\xcb\x1f\xc0\x9b\x92\x8c6z \xd4\xbf'
p889
tp890
bag22
(g23
(I0
tp891
g25
tp892
Rp893
(I1
(I3
tp894
g163
I00
S'\\\x8f\x14\xeaM\xd8\x02@\xbe5\xa4 Vg\x1f\xc0tC\xf3K\x1fg\xd9\xbf'
p895
tp896
basg723
I00
ssg47
(lp897
g22
(g23
(I0
tp898
g25
tp899
Rp900
(I1
(I3
tp901
g163
I00
S'@\\pi{\xbe\x02@\xaa%\x98S\x1eN\x1d\xc0\xf0\xe1\xc8\x1e"\xd5\n@'
p902
tp903
bag22
(g23
(I0
tp904
g25
tp905
Rp906
(I1
(I3
tp907
g174
I00
S'\xc4_\xf9\x03N\xba\x00@R\xfd8\x1fs\r\x1d\xc0\xa1\xe6w68\xd4\x03\xc0'
p908
tp909
bag22
(g23
(I0
tp910
g25
tp911
Rp912
(I1
(I3
tp913
g174
I00
S'\tAsXx\r\x00@F^\x05/\xfdK\x1d\xc0~\xbbB\x0f\xbe\xe6\xd2?'
p914
tp915
bag893
asbsg651
(itrajectory_representation.operator
Operator
p916
(dp917
g8
I01
sg9
(dp918
g693
Vsquare_packing_box3
p919
ssg17
g695
sg19
(dp920
g697
(lp921
g22
(g23
(I0
tp922
g25
tp923
Rp924
(I1
(I3
tp925
g163
I00
S'\xe8-\n$\xc9?\xd0\xbf\xf6\xe3$$\xfb\xf5\x18\xc0\xe3R\x84l7%\xf5?'
p926
tp927
bag22
(g23
(I0
tp928
g25
tp929
Rp930
(I1
(I3
tp931
g163
I00
S'\x96\x9a_\xfd`\x87\xdc?\x9ee:\xaeP\xaa\x16\xc0\xfd\xa6e\xa4\x0b\x1d\x04@'
p932
tp933
bag22
(g23
(I0
tp934
g25
tp935
Rp936
(I1
(I3
tp937
g163
I00
S'm4x\xa8\x1a(\xb5\xbf\x00-\xad\x004+\x18\xc0\xe4!w2`j\xfb?'
p938
tp939
basg723
I00
ssg47
(lp940
g22
(g23
(I0
tp941
g25
tp942
Rp943
(I1
(I3
tp944
g163
I00
S'@\\pi{\xbe\x02@\xaa%\x98S\x1eN\x1d\xc0\xf0\xe1\xc8\x1e"\xd5\n@'
p945
tp946
bag22
(g23
(I0
tp947
g25
tp948
Rp949
(I1
(I3
tp950
g174
I00
S'zNu~${\xfb?c\xfe\x8c\xbf\x1f\xab\x1b\xc0\x9b\xbb\x05m\x02\x02\x07@'
p951
tp952
bag22
(g23
(I0
tp953
g25
tp954
Rp955
(I1
(I3
tp956
g174
I00
S'\x0c\x0f=\x82\xe8\x10\xef?\x95;\xd2\x17&\xe7\x1b\xc0\xf2\xbb\xbd\xb4q\x0b\t@'
p957
tp958
bag22
(g23
(I0
tp959
g25
tp960
Rp961
(I1
(I3
tp962
g174
I00
S'\xfe\xcb\x95>\x9aG\xe1?\xc8?\x9f\xd9\xb8\xe7\x19\xc0\xdb\x1a;\xf0\x837\xfe?'
p963
tp964
bag936
asbsg12
(itrajectory_representation.operator
Operator
p965
(dp966
g8
I01
sg9
(dp967
g11
g12
ssg17
S'two_arm_pick'
p968
sg19
(dp969
g21
g22
(g23
(I0
tp970
g25
tp971
Rp972
(I1
(I3
tp973
g32
I00
S'\xee\x97\xeb\xabY\xf9\xd4?\x9c\xed\xde\x1d\x00\xb8\x18\xc0/\xf6p\xb21\xa3\xfd?'
p974
tp975
bssg47
(lp976
g22
(g23
(I0
tp977
g25
tp978
Rp979
(I1
(I3
tp980
g163
I00
S'@\\pi{\xbe\x02@\xaa%\x98S\x1eN\x1d\xc0\xf0\xe1\xc8\x1e"\xd5\n@'
p981
tp982
bag22
(g23
(I0
tp983
g25
tp984
Rp985
(I1
(I3
tp986
g174
I00
S'zNu~${\xfb?c\xfe\x8c\xbf\x1f\xab\x1b\xc0\x9b\xbb\x05m\x02\x02\x07@'
p987
tp988
bag22
(g23
(I0
tp989
g25
tp990
Rp991
(I1
(I3
tp992
g174
I00
S'\x0c\x0f=\x82\xe8\x10\xef?\x95;\xd2\x17&\xe7\x1b\xc0\xf2\xbb\xbd\xb4q\x0b\t@'
p993
tp994
bag22
(g23
(I0
tp995
g25
tp996
Rp997
(I1
(I3
tp998
g174
I00
S'\xfe\xcb\x95>\x9aG\xe1?\xc8?\x9f\xd9\xb8\xe7\x19\xc0\xdb\x1a;\xf0\x837\xfe?'
p999
tp1000
bag972
asbsg652
(itrajectory_representation.operator
Operator
p1001
(dp1002
g8
I01
sg9
(dp1003
g693
Vsquare_packing_box4
p1004
ssg17
g695
sg19
(dp1005
g697
(lp1006
g22
(g23
(I0
tp1007
g25
tp1008
Rp1009
(I1
(I3
tp1010
g163
I00
S'v\xd6\x8f-X\xb9\x06@\xbc`\xe5\x0c,k\x19\xc0\x9c\xd1\x8d?\xb0\xd9\x02@'
p1011
tp1012
bag22
(g23
(I0
tp1013
g25
tp1014
Rp1015
(I1
(I3
tp1016
g163
I00
S'y\xadT\r1~\x07@\xca\x0b\x85E\x87w\x19\xc0\xc0\xa6\x00\xcdt8\x02@'
p1017
tp1018
bag22
(g23
(I0
tp1019
g25
tp1020
Rp1021
(I1
(I3
tp1022
g163
I00
S'%L\x92F\x07\xd0\x02@\xc5\xbd8\xfb?\xaf\x19\xc0i\xaaRj4\x9f\xf7?'
p1023
tp1024
bag22
(g23
(I0
tp1025
g25
tp1026
Rp1027
(I1
(I3
tp1028
g163
I00
S'\xbat\xd8`*\x01\xfb?O\xcc\x05\x01(\xdb\x18\xc0\xe2^\xb2\xf0\xf7u\xd6?'
p1029
tp1030
bag22
(g23
(I0
tp1031
g25
tp1032
Rp1033
(I1
(I3
tp1034
g163
I00
S'\x0b\x8b\xe7?<\x97\x00@\x88\xa9W\xe4\xd3\x8d\x19\xc0\x0b\x8e\x9c\x12\x03\x10\xe9?'
p1035
tp1036
basg723
I00
ssg47
(lp1037
g22
(g23
(I0
tp1038
g25
tp1039
Rp1040
(I1
(I3
tp1041
g163
I00
S'@\\pi{\xbe\x02@\xaa%\x98S\x1eN\x1d\xc0\xf0\xe1\xc8\x1e"\xd5\n@'
p1042
tp1043
bag22
(g23
(I0
tp1044
g25
tp1045
Rp1046
(I1
(I3
tp1047
g174
I00
S'>\xc0\x12$\xd1\xa3\x02@L\xfb\xe9\xe8\x00\xfd\x1c\xc0\x1dL8%\x1b\x13\x04@'
p1048
tp1049
bag22
(g23
(I0
tp1050
g25
tp1051
Rp1052
(I1
(I3
tp1053
g174
I00
S'b\x95[\xf7r*\x00@:\x8f7a\xbf]\x1c\xc0\x98.\xce\xc6\x89M\xf2?'
p1054
tp1055
bag1033
asbssS'mc_paths'
p1056
(dp1057
sS'robot'
p1058
NsS'reachable_obj_region_pairs'
p1059
(lp1060
sS'sampled_pick_configs_for_objects'
p1061
(dp1062
sS'mc_calls'
p1063
I0
sS'pick_poses'
p1064
g689
sS'problem_env'
p1065
NsS'evaluations'
p1066
(dp1067
(g437
g533
g154
tp1068
I00
s(g374
g533
g154
tp1069
I00
s(g533
g488
g154
tp1070
I00
s(g272
g374
g154
tp1071
I00
s(g488
g329
g154
tp1072
I01
s(g215
g374
g154
tp1073
I00
s(g329
g153
g154
tp1074
I00
s(g488
g533
g154
tp1075
I00
s(g272
g215
g154
tp1076
I00
s(g374
g329
g154
tp1077
I01
s(g437
g329
g154
tp1078
I01
s(g437
g272
g154
tp1079
I00
s(g374
g153
g154
tp1080
I00
s(g272
g488
g154
tp1081
I00
s(g488
g153
g154
tp1082
I00
s(g215
g488
g154
tp1083
I00
s(g329
g533
g154
tp1084
I00
s(g488
g215
g154
tp1085
I00
s(g533
g437
g154
tp1086
I01
s(g153
g329
g154
tp1087
I01
s(g215
g437
g154
tp1088
I01
s(g488
g272
g154
tp1089
I00
s(g533
g329
g154
tp1090
I01
s(g153
g272
g154
tp1091
I00
s(g533
g215
g154
tp1092
I01
s(g272
g437
g154
tp1093
I01
s(g329
g437
g154
tp1094
I01
s(g153
g488
g154
tp1095
I00
s(g153
g437
g154
tp1096
I01
s(g488
g437
g154
tp1097
I00
s(g215
g533
g154
tp1098
I00
s(g272
g533
g154
tp1099
I00
s(g437
g215
g154
tp1100
I00
s(g374
g437
g154
tp1101
I01
s(g215
g272
g154
tp1102
I00
s(g153
g215
g154
tp1103
I01
s(g374
g272
g154
tp1104
I00
s(g488
g374
g154
tp1105
I00
s(g329
g374
g154
tp1106
I00
s(g374
g215
g154
tp1107
I00
s(g215
g153
g154
tp1108
I00
s(g329
g488
g154
tp1109
I00
s(g374
g488
g154
tp1110
I01
s(g272
g153
g154
tp1111
I00
s(g437
g488
g154
tp1112
I01
s(g437
g153
g154
tp1113
I00
s(g153
g533
g154
tp1114
I00
s(g533
g374
g154
tp1115
I01
s(g272
g329
g154
tp1116
I01
s(g329
g215
g154
tp1117
I00
s(g215
g329
g154
tp1118
I01
s(g329
g272
g154
tp1119
I00
s(g533
g272
g154
tp1120
I00
s(g153
g374
g154
tp1121
I00
s(g533
g153
g154
tp1122
I01
s(g437
g374
g154
tp1123
I00
ssS'paths_to_reachable_entities'
p1124
NsS'use_shortest_path'
p1125
I01
sbsS'ternary_edges'
p1126
(dp1127
(g533
g533
g154
tp1128
(lp1129
I00
as(g329
S'loading_region'
p1130
g1130
tp1131
(lp1132
I00
as(S'entire_region'
p1133
g437
g154
tp1134
(lp1135
I00
as(g374
g215
g1130
tp1136
(lp1137
I00
as(g154
g154
g154
tp1138
(lp1139
I00
as(g215
g533
g1130
tp1140
(lp1141
I00
as(g329
g153
g154
tp1142
(lp1143
I00
as(g154
g272
g154
tp1144
(lp1145
I00
as(g374
g329
g154
tp1146
(lp1147
I01
as(g153
g272
g1130
tp1148
(lp1149
I00
as(g154
g215
g1130
tp1150
(lp1151
I00
as(g374
g1133
g154
tp1152
(lp1153
I00
as(g1130
g154
g1130
tp1154
(lp1155
I00
as(g272
g488
g154
tp1156
(lp1157
I00
as(g215
g1133
g154
tp1158
(lp1159
I00
as(g374
g437
g1130
tp1160
(lp1161
I00
as(g488
g1130
g154
tp1162
(lp1163
I00
as(g1133
g533
g1130
tp1164
(lp1165
I00
as(g154
g1133
g154
tp1166
(lp1167
I00
as(g533
g1130
g154
tp1168
(lp1169
I00
as(g488
g1133
g154
tp1170
(lp1171
I00
as(g329
g329
g1130
tp1172
(lp1173
I00
as(g1130
g215
g1130
tp1174
(lp1175
I00
as(g1133
g1130
g154
tp1176
(lp1177
I00
as(g1133
g374
g154
tp1178
(lp1179
I00
as(g1130
g1130
g154
tp1180
(lp1181
I00
as(g488
g272
g1130
tp1182
(lp1183
I00
as(g154
g154
g1130
tp1184
(lp1185
I00
as(g437
g374
g1130
tp1186
(lp1187
I00
as(g533
g215
g154
tp1188
(lp1189
I01
as(g488
g329
g154
tp1190
(lp1191
I01
as(g437
g154
g1130
tp1192
(lp1193
I00
as(g154
g533
g1130
tp1194
(lp1195
I00
as(g437
g153
g1130
tp1196
(lp1197
I00
as(g153
g437
g154
tp1198
(lp1199
I01
as(g1130
g329
g1130
tp1200
(lp1201
I00
as(g215
g374
g1130
tp1202
(lp1203
I00
as(g533
g533
g1130
tp1204
(lp1205
I00
as(g1133
g215
g154
tp1206
(lp1207
I00
as(g1130
g154
g154
tp1208
(lp1209
I00
as(g272
g533
g154
tp1210
(lp1211
I00
as(g154
g153
g154
tp1212
(lp1213
I00
as(g374
g437
g154
tp1214
(lp1215
I01
as(g153
g215
g154
tp1216
(lp1217
I01
as(g329
g153
g1130
tp1218
(lp1219
I00
as(g488
g374
g154
tp1220
(lp1221
I00
as(g374
g329
g1130
tp1222
(lp1223
I00
as(g374
g533
g1130
tp1224
(lp1225
I00
as(g1133
g374
g1130
tp1226
(lp1227
I00
as(g1130
g153
g1130
tp1228
(lp1229
I00
as(g1133
g154
g154
tp1230
(lp1231
I00
as(g272
g154
g154
tp1232
(lp1233
I00
as(g1130
g1133
g154
tp1234
(lp1235
I00
as(g533
g215
g1130
tp1236
(lp1237
I00
as(g488
g533
g1130
tp1238
(lp1239
I00
as(g488
g488
g154
tp1240
(lp1241
I00
as(g437
g153
g154
tp1242
(lp1243
I00
as(g1133
g533
g154
tp1244
(lp1245
I00
as(g437
g1130
g1130
tp1246
(lp1247
I00
as(g215
g329
g154
tp1248
(lp1249
I01
as(g329
g329
g154
tp1250
(lp1251
I00
as(g329
g272
g154
tp1252
(lp1253
I00
as(g272
g533
g1130
tp1254
(lp1255
I00
as(g215
g437
g1130
tp1256
(lp1257
I00
as(g488
g272
g154
tp1258
(lp1259
I00
as(g437
g374
g154
tp1260
(lp1261
I00
as(g533
g437
g1130
tp1262
(lp1263
I00
as(g437
g154
g154
tp1264
(lp1265
I00
as(g374
g533
g154
tp1266
(lp1267
I00
as(g533
g488
g154
tp1268
(lp1269
I00
as(g153
g437
g1130
tp1270
(lp1271
I00
as(g154
g374
g1130
tp1272
(lp1273
I00
as(g1133
g154
g1130
tp1274
(lp1275
I00
as(g1133
g215
g1130
tp1276
(lp1277
I00
as(g488
g533
g154
tp1278
(lp1279
I00
as(g153
g488
g1130
tp1280
(lp1281
I00
as(g533
g1133
g1130
tp1282
(lp1283
I00
as(g437
g1130
g154
tp1284
(lp1285
I00
as(g488
g374
g1130
tp1286
(lp1287
I00
as(g488
g437
g1130
tp1288
(lp1289
I00
as(g215
g329
g1130
tp1290
(lp1291
I00
as(g154
g153
g1130
tp1292
(lp1293
I00
as(g1133
g488
g1130
tp1294
(lp1295
I00
as(g1130
g153
g154
tp1296
(lp1297
I00
as(g1130
g374
g1130
tp1298
(lp1299
I00
as(g533
g437
g154
tp1300
(lp1301
I01
as(g215
g437
g154
tp1302
(lp1303
I01
as(g1130
g488
g154
tp1304
(lp1305
I00
as(g533
g488
g1130
tp1306
(lp1307
I00
as(g533
g272
g1130
tp1308
(lp1309
I00
as(g153
g215
g1130
tp1310
(lp1311
I00
as(g329
g272
g1130
tp1312
(lp1313
I00
as(g437
g488
g1130
tp1314
(lp1315
I00
as(g154
g329
g1130
tp1316
(lp1317
I00
as(g153
g1130
g1130
tp1318
(lp1319
I00
as(g272
g154
g1130
tp1320
(lp1321
I00
as(g329
g437
g154
tp1322
(lp1323
I01
as(g533
g1133
g154
tp1324
(lp1325
I00
as(g272
g374
g1130
tp1326
(lp1327
I00
as(g153
g533
g1130
tp1328
(lp1329
I00
as(g488
g437
g154
tp1330
(lp1331
I00
as(g215
g1130
g1130
tp1332
(lp1333
I00
as(g374
g154
g154
tp1334
(lp1335
I00
as(g215
g272
g154
tp1336
(lp1337
I00
as(g154
g488
g1130
tp1338
(lp1339
I00
as(g1130
g437
g1130
tp1340
(lp1341
I00
as(g1130
g488
g1130
tp1342
(lp1343
I00
as(g329
g488
g154
tp1344
(lp1345
I00
as(g437
g488
g154
tp1346
(lp1347
I01
as(g329
g437
g1130
tp1348
(lp1349
I00
as(g153
g533
g154
tp1350
(lp1351
I00
as(g533
g374
g154
tp1352
(lp1353
I01
as(g153
g154
g1130
tp1354
(lp1355
I00
as(g215
g1130
g154
tp1356
(lp1357
I00
as(g1130
g272
g1130
tp1358
(lp1359
I00
as(g533
g272
g154
tp1360
(lp1361
I00
as(g153
g153
g154
tp1362
(lp1363
I00
as(g272
g272
g154
tp1364
(lp1365
I00
as(g272
g153
g1130
tp1366
(lp1367
I00
as(g153
g1130
g154
tp1368
(lp1369
I00
as(g488
g215
g154
tp1370
(lp1371
I00
as(g272
g374
g154
tp1372
(lp1373
I00
as(g374
g1130
g1130
tp1374
(lp1375
I00
as(g153
g1133
g1130
tp1376
(lp1377
I00
as(g374
g154
g1130
tp1378
(lp1379
I00
as(g329
g374
g1130
tp1380
(lp1381
I00
as(g215
g272
g1130
tp1382
(lp1383
I00
as(g488
g154
g1130
tp1384
(lp1385
I00
as(g153
g154
g154
tp1386
(lp1387
I00
as(g1130
g272
g154
tp1388
(lp1389
I00
as(g437
g437
g154
tp1390
(lp1391
I00
as(g1130
g215
g154
tp1392
(lp1393
I00
as(g215
g488
g154
tp1394
(lp1395
I00
as(g329
g533
g154
tp1396
(lp1397
I00
as(g329
g488
g1130
tp1398
(lp1399
I00
as(g272
g329
g1130
tp1400
(lp1401
I00
as(g154
g374
g154
tp1402
(lp1403
I00
as(g1133
g153
g1130
tp1404
(lp1405
I00
as(g153
g329
g154
tp1406
(lp1407
I01
as(g437
g1133
g154
tp1408
(lp1409
I00
as(g488
g215
g1130
tp1410
(lp1411
I00
as(g488
g153
g1130
tp1412
(lp1413
I00
as(g272
g437
g154
tp1414
(lp1415
I01
as(g533
g374
g1130
tp1416
(lp1417
I00
as(g272
g1130
g154
tp1418
(lp1419
I00
as(g153
g1133
g154
tp1420
(lp1421
I00
as(g215
g153
g1130
tp1422
(lp1423
I00
as(g533
g329
g154
tp1424
(lp1425
I01
as(g488
g329
g1130
tp1426
(lp1427
I00
as(g215
g215
g1130
tp1428
(lp1429
I00
as(g272
g272
g1130
tp1430
(lp1431
I00
as(g437
g437
g1130
tp1432
(lp1433
I00
as(g329
g215
g1130
tp1434
(lp1435
I00
as(g215
g374
g154
tp1436
(lp1437
I00
as(g1133
g329
g154
tp1438
(lp1439
I00
as(g154
g1133
g1130
tp1440
(lp1441
I00
as(g154
g437
g1130
tp1442
(lp1443
I00
as(g374
g1130
g154
tp1444
(lp1445
I00
as(g329
g533
g1130
tp1446
(lp1447
I00
as(g437
g329
g1130
tp1448
(lp1449
I00
as(g153
g153
g1130
tp1450
(lp1451
I00
as(g1133
g153
g154
tp1452
(lp1453
I00
as(g374
g153
g1130
tp1454
(lp1455
I00
as(g437
g1133
g1130
tp1456
(lp1457
I00
as(g329
g374
g154
tp1458
(lp1459
I00
as(g272
g437
g1130
tp1460
(lp1461
I00
as(g272
g153
g154
tp1462
(lp1463
I00
as(g215
g153
g154
tp1464
(lp1465
I00
as(g329
g154
g1130
tp1466
(lp1467
I00
as(g374
g488
g154
tp1468
(lp1469
I01
as(g488
g488
g1130
tp1470
(lp1471
I00
as(g272
g1133
g154
tp1472
(lp1473
I00
as(g1130
g1133
g1130
tp1474
(lp1475
I00
as(g215
g488
g1130
tp1476
(lp1477
I00
as(g1130
g437
g154
tp1478
(lp1479
I00
as(g1133
g1133
g1130
tp1480
(lp1481
I00
as(g272
g329
g154
tp1482
(lp1483
I01
as(g329
g215
g154
tp1484
(lp1485
I00
as(g1130
g533
g1130
tp1486
(lp1487
I00
as(g153
g329
g1130
tp1488
(lp1489
I00
as(g488
g154
g154
tp1490
(lp1491
I00
as(g1133
g329
g1130
tp1492
(lp1493
I00
as(g488
g153
g154
tp1494
(lp1495
I00
as(g153
g374
g154
tp1496
(lp1497
I00
as(g272
g1130
g1130
tp1498
(lp1499
I00
as(g533
g329
g1130
tp1500
(lp1501
I00
as(g437
g533
g154
tp1502
(lp1503
I00
as(g1133
g1130
g1130
tp1504
(lp1505
I00
as(g1130
g533
g154
tp1506
(lp1507
I00
as(g329
g1133
g154
tp1508
(lp1509
I00
as(g374
g488
g1130
tp1510
(lp1511
I00
as(g374
g272
g1130
tp1512
(lp1513
I00
as(g215
g154
g154
tp1514
(lp1515
I00
as(g272
g1133
g1130
tp1516
(lp1517
I00
as(g272
g215
g154
tp1518
(lp1519
I00
as(g1133
g272
g1130
tp1520
(lp1521
I00
as(g154
g437
g154
tp1522
(lp1523
I00
as(g154
g488
g154
tp1524
(lp1525
I00
as(g437
g329
g154
tp1526
(lp1527
I01
as(g437
g272
g154
tp1528
(lp1529
I00
as(g1133
g488
g154
tp1530
(lp1531
I00
as(g374
g153
g154
tp1532
(lp1533
I00
as(g374
g374
g1130
tp1534
(lp1535
I00
as(g437
g215
g1130
tp1536
(lp1537
I00
as(g215
g154
g1130
tp1538
(lp1539
I00
as(g533
g154
g154
tp1540
(lp1541
I00
as(g329
g154
g154
tp1542
(lp1543
I00
as(g437
g533
g1130
tp1544
(lp1545
I00
as(g215
g533
g154
tp1546
(lp1547
I00
as(g154
g1130
g154
tp1548
(lp1549
I00
as(g1133
g1133
g154
tp1550
(lp1551
I00
as(g533
g153
g1130
tp1552
(lp1553
I00
as(g329
g1133
g1130
tp1554
(lp1555
I00
as(g1130
g374
g154
tp1556
(lp1557
I00
as(g153
g272
g154
tp1558
(lp1559
I00
as(g1133
g272
g154
tp1560
(lp1561
I00
as(g329
g1130
g154
tp1562
(lp1563
I00
as(g153
g374
g1130
tp1564
(lp1565
I00
as(g154
g329
g154
tp1566
(lp1567
I00
as(g1133
g437
g1130
tp1568
(lp1569
I00
as(g215
g1133
g1130
tp1570
(lp1571
I00
as(g374
g374
g154
tp1572
(lp1573
I00
as(g437
g215
g154
tp1574
(lp1575
I00
as(g488
g1133
g1130
tp1576
(lp1577
I00
as(g374
g272
g154
tp1578
(lp1579
I00
as(g154
g215
g154
tp1580
(lp1581
I00
as(g153
g488
g154
tp1582
(lp1583
I00
as(g272
g215
g1130
tp1584
(lp1585
I00
as(g215
g215
g154
tp1586
(lp1587
I00
as(g437
g272
g1130
tp1588
(lp1589
I00
as(g374
g215
g154
tp1590
(lp1591
I00
as(g488
g1130
g1130
tp1592
(lp1593
I00
as(g154
g533
g154
tp1594
(lp1595
I00
as(g533
g1130
g1130
tp1596
(lp1597
I00
as(g154
g272
g1130
tp1598
(lp1599
I00
as(g533
g154
g1130
tp1600
(lp1601
I00
as(g1130
g1130
g1130
tp1602
(lp1603
I00
as(g374
g1133
g1130
tp1604
(lp1605
I00
as(g272
g488
g1130
tp1606
(lp1607
I00
as(g154
g1130
g1130
tp1608
(lp1609
I00
as(g533
g153
g154
tp1610
(lp1611
I01
as(g1130
g329
g154
tp1612
(lp1613
I00
assg688
g689
sS'use_prm'
p1614
I01
sS'object_names'
p1615
(lp1616
S'square_packing_box1'
p1617
aS'rectangular_packing_box1'
p1618
aS'square_packing_box2'
p1619
aS'rectangular_packing_box2'
p1620
aS'square_packing_box3'
p1621
aS'rectangular_packing_box3'
p1622
aS'square_packing_box4'
p1623
aS'rectangular_packing_box4'
p1624
asg1065
NsS'current_holding_collides'
p1625
NsS'object_poses'
p1626
(dp1627
Vrectangular_packing_box4
p1628
g22
(g23
(I0
tp1629
g25
tp1630
Rp1631
(I1
(I1
I3
tp1632
g163
I00
S'\xe82\x01\x91`G\xf3?\xc4D\xf1y\xb4V \xc0\xa4n\xfb\xa8\xe0\xdf\xcf?'
p1633
tp1634
bsVrectangular_packing_box2
p1635
g22
(g23
(I0
tp1636
g25
tp1637
Rp1638
(I1
(I1
I3
tp1639
g163
I00
S'D\xe9\xfd\xd4Q\x19\x10@\xf6\xe1\xe5W\xcez\x1f\xc0P\xf6^\xe8\x15e\x12@'
p1640
tp1641
bsVrectangular_packing_box3
p1642
g22
(g23
(I0
tp1643
g25
tp1644
Rp1645
(I1
(I1
I3
tp1646
g163
I00
S'\x14k\x1a\xa0t\xc8\x08@\xd1\xa3\xf6\to\xbd\x15\xc0\xc5\xd60D\xc8\x12\xeb?'
p1647
tp1648
bsVrectangular_packing_box1
p1649
g22
(g23
(I0
tp1650
g25
tp1651
Rp1652
(I1
(I1
I3
tp1653
g163
I00
S'm>\xba\n^9\xf4?d\x98\x0c\xd6\xd7\xa3\x17\xc0] \x86;\xb1\xa1\x0c@'
p1654
tp1655
bsVsquare_packing_box2
p1656
g22
(g23
(I0
tp1657
g25
tp1658
Rp1659
(I1
(I1
I3
tp1660
g163
I00
S'fz\xbf\xc3\xd3?\x07@\x02*\xbd\xf6\xee9 \xc0\x06\xe7\x93\xb8U\x9f\xf8?'
p1661
tp1662
bsVsquare_packing_box3
p1663
g22
(g23
(I0
tp1664
g25
tp1665
Rp1666
(I1
(I1
I3
tp1667
g163
I00
S'W\n\xb6\x0cl\x97\xd1\xbf\xa9\xdd\xda\x16\n\x9b\x15\xc0\xf1\xb3\x98Gs\x9c\xfb?'
p1668
tp1669
bsVsquare_packing_box1
p1670
g22
(g23
(I0
tp1671
g25
tp1672
Rp1673
(I1
(I1
I3
tp1674
g163
I00
S"i[\x0e'\x85\x14\xda?\x9b\x03^\xa9\xaeR\x15\xc0a\xd8NyT\x1f\n@"
p1675
tp1676
bsVsquare_packing_box4
p1677
g22
(g23
(I0
tp1678
g25
tp1679
Rp1680
(I1
(I1
I3
tp1681
g163
I00
S'FZ^\xcb\x809\x03@\x01\x8dC\xe5G*\x17\xc0\xa4\xc3\xb3|\xbbZ\x03@'
p1682
tp1683
bssS'reachable_regions_while_holding'
p1684
(lp1685
(g647
g1130
tp1686
a(g731
g1130
tp1687
a(g648
g1130
tp1688
a(g649
g1130
tp1689
a(g650
g1130
tp1690
a(g651
g1130
tp1691
a(g12
g1130
tp1692
a(g652
g1130
tp1693
asS'in_region'
p1694
(itrajectory_representation.predicates.in_region
InRegion
p1695
(dp1696
g1065
NsbsS'cached_pick_paths'
p1697
(dp1698
g647
g724
sg731
g756
sg648
g805
sg649
g848
sg650
g897
sg651
g940
sg12
g976
sg652
g1037
ssg653
(dp1699
(Vsquare_packing_box4
p1700
(cnumpy.core.multiarray
scalar
p1701
(g163
S'\x8e\xe5]\xf5\x809\x03@'
p1702
tp1703
Rp1704
g1701
(g163
S'|\x9b\xfe\xecG*\x17\xc0'
p1705
tp1706
Rp1707
g1701
(g163
S'\xe2\xea\x00\x88\xbbZ\x03@'
p1708
tp1709
Rp1710
tp1711
tp1712
g687
s(Vrectangular_packing_box2
p1713
(g1701
(g163
S'\x8fq\xc5\xc5Q\x19\x10@'
p1714
tp1715
Rp1716
g1701
(g163
S'\xae\x7f\xd7g\xcez\x1f\xc0'
p1717
tp1718
Rp1719
g1701
(g163
S'$^\x9e\xce\x15e\x12@'
p1720
tp1721
Rp1722
tp1723
tp1724
g663
s(Vsquare_packing_box2
p1725
(g1701
(g163
S'"\xfa\xb5\xf5\xd3?\x07@'
p1726
tp1727
Rp1728
g1701
(g163
S'\xf7\x04\x89\xed\xee9 \xc0'
p1729
tp1730
Rp1731
g1701
(g163
S'\xc8\x07=\x9bU\x9f\xf8?'
p1732
tp1733
Rp1734
tp1735
tp1736
g675
s(Vsquare_packing_box3
p1737
(g1701
(g163
S'\xf8\xf9\xef\xc1k\x97\xd1\xbf'
p1738
tp1739
Rp1740
g1701
(g163
S'6\xac\xa9,\n\x9b\x15\xc0'
p1741
tp1742
Rp1743
g1701
(g163
S'\x83h\xadhs\x9c\xfb?'
p1744
tp1745
Rp1746
tp1747
tp1748
g679
s(Vrectangular_packing_box4
p1749
(g1701
(g163
S'\xfe\x99A|`G\xf3?'
p1750
tp1751
Rp1752
g1701
(g163
S'\xb6j\xd7\x84\xb4V \xc0'
p1753
tp1754
Rp1755
g1701
(g163
S'\xc7c\x06*\xe3\xdf\xcf?'
p1756
tp1757
Rp1758
tp1759
tp1760
g659
s(Vsquare_packing_box1
p1761
(g1701
(g163
S'o~\xc3D\x83\x14\xda?'
p1762
tp1763
Rp1764
g1701
(g163
S'\x95d\x1d\x8e\xaeR\x15\xc0'
p1765
tp1766
Rp1767
g1701
(g163
S'\xbd\x8d\xcd\x8eT\x1f\n@'
p1768
tp1769
Rp1770
tp1771
tp1772
g683
s(Vrectangular_packing_box1
p1773
(g1701
(g163
S'\x17*\xffZ^9\xf4?'
p1774
tp1775
Rp1776
g1701
(g163
S',\x0c\x91\xd3\xd7\xa3\x17\xc0'
p1777
tp1778
Rp1779
g1701
(g163
S'X\xe4\xd7\x0f\xb1\xa1\x0c@'
p1780
tp1781
Rp1782
tp1783
tp1784
g671
s(Vrectangular_packing_box3
p1785
(g1701
(g163
S'\xb2\xb8\xff\xc8t\xc8\x08@'
p1786
tp1787
Rp1788
g1701
(g163
S',\xd3/\x11o\xbd\x15\xc0'
p1789
tp1790
Rp1791
g1701
(g163
S'\xb1O\x00\xc5\xc8\x12\xeb?'
p1792
tp1793
Rp1794
tp1795
tp1796
g667
ssS'state_saver'
p1797
(igtamp_utils.utils
CustomStateSaver
p1798
(dp1799
S'robot_base_pose'
p1800
g22
(g23
(I0
tp1801
g25
tp1802
Rp1803
(I1
(I1
I3
tp1804
g163
I00
S'D\\pi{\xbe\x02@\xb1%\x98S\x1eN\x1d\xc0\xf1\xe1\xc8\x1e"\xd5\n@'
p1805
tp1806
bsS'held_object'
p1807
NsS'robot_name'
p1808
S'pr2'
p1809
sS'env_id'
p1810
I1
sg1626
(dp1811
Vright_wall_1
p1812
g22
(g23
(I0
tp1813
g25
tp1814
Rp1815
(I1
(I4
tp1816
g163
I00
S'H\xe1z\x14\xaeG\x12@&\\\x8f\xc2\xf5(\xd4\xbf\xcc\x7fH\xbf}\x1d\xed?\x00\x00\x00\x00\x00\x00\x00\x00'
p1817
tp1818
bsVc_obst5
p1819
g22
(g23
(I0
tp1820
g25
tp1821
Rp1822
(I1
(I4
tp1823
g163
I00
S"\xf7\x88hQ\x87\x0f\x12@\xd4W\x9c\xb4n\xf3\xcb?e\xaa`TR'\xed?\x1f\x90\x16+\x0f\xa0\x07@"
p1824
tp1825
bsVentrance_right
p1826
g22
(g23
(I0
tp1827
g25
tp1828
Rp1829
(I1
(I4
tp1830
g163
I00
S'ffffff\n@H\xe1z\x14\xaeG\t\xc0\x9c\xc4 \xb0rh\xc1?\x00\x00\x00\x00\x00\x00\x00\x00'
p1831
tp1832
bsVcomputer_table
p1833
g22
(g23
(I0
tp1834
g25
tp1835
Rp1836
(I1
(I4
tp1837
g163
I00
S'\x00\x00\x00\x00\x00\x00\x13@\x00\x00\x00\x00\x00\x00\xf8\xbf\x96C\x8bl\xe7\xfb\xe7?\xd2!3\x7f|\xd9\x12@'
p1838
tp1839
bsVchair_6b56
p1840
g22
(g23
(I0
tp1841
g25
tp1842
Rp1843
(I1
(I4
tp1844
g163
I00
S'u=\n\xd7\xa3p\xf5?K\xe1z\x14\xaeG\xd1?\x00\x00\x00\x00\x00\x00\x00\x00\xd6$\xfaNBm\n@'
p1845
tp1846
bsVsquare_packing_box3
p1847
g22
(g23
(I0
tp1848
g25
tp1849
Rp1850
(I1
(I4
tp1851
g163
I00
S'\x95\n\xb6\x0cl\x97\xd1\xbf\xad\xdd\xda\x16\n\x9b\x15\xc0L7\x89A`\xe5\xd8?\xf1\xb3\x98Gs\x9c\xfb?'
p1852
tp1853
bsVsquare_packing_box2
p1854
g22
(g23
(I0
tp1855
g25
tp1856
Rp1857
(I1
(I4
tp1858
g163
I00
S'`z\xbf\xc3\xd3?\x07@\xfc)\xbd\xf6\xee9 \xc0L7\x89A`\xe5\xd8?\x06\xe7\x93\xb8U\x9f\xf8?'
p1859
tp1860
bsVtable
p1861
g22
(g23
(I0
tp1862
g25
tp1863
Rp1864
(I1
(I4
tp1865
g163
I00
S'\x7f\xf6#EdX\xed?\xac\xffs\x98//\xc0\xbf\x00\x00\x00\x00\x00\x00\x00\x00\x00\x00\x00\x00\x00\x00\x00\x00'
p1866
tp1867
bsVsquare_packing_box1
p1868
g22
(g23
(I0
tp1869
g25
tp1870
Rp1871
(I1
(I4
tp1872
g163
I00
S"m[\x0e'\x85\x14\xda?\x9d\x03^\xa9\xaeR\x15\xc0L7\x89A`\xe5\xd8?a\xd8NyT\x1f\n@"
p1873
tp1874
bsVback_wall_2
p1875
g22
(g23
(I0
tp1876
g25
tp1877
Rp1878
(I1
(I4
tp1879
g163
I00
S'\xaeG\xe1z\x14.\x13@\x80\x14\xaeG\xe1z\xc4?xX\xa85\xcd\xbb\xf2?\x00\x00\x00\x00\x00\x00\x00\x00'
p1880
tp1881
bsVchair_083c
p1882
g22
(g23
(I0
tp1883
g25
tp1884
Rp1885
(I1
(I4
tp1886
g163
I00
S'\xa4p=\n\xd7\xa3\xe0?333333\xe3\xbf\x00\x00\x00\x00\x00\x00\x00\x00\x00\x00\x00\x00\x00\x00\x00\x00'
p1887
tp1888
bsVback_wall_1
p1889
g22
(g23
(I0
tp1890
g25
tp1891
Rp1892
(I1
(I4
tp1893
g163
I00
S'\xaeG\xe1z\x14.\x13@\x80\x14\xaeG\xe1z\xc4?\xcc\x7fH\xbf}\x1d\xed?\x00\x00\x00\x00\x00\x00\x00\x00'
p1894
tp1895
bsVbottom_wall
p1896
g22
(g23
(I0
tp1897
g25
tp1898
Rp1899
(I1
(I4
tp1900
g163
I00
S'\x00\x00\x00\x00\x00\x00\xfc?\x00\x00\x00\x00\x00\x00\x00\x00\x00\x00\x00\x00\x00\x00\x00\x00\x00\x00\x00\x00\x00\x00\x00\x00'
p1901
tp1902
bsVcup_905a
p1903
g22
(g23
(I0
tp1904
g25
tp1905
Rp1906
(I1
(I4
tp1907
g163
I00
S'\x00\x00\x00\x00\x00\x00\xf0?\x83\xc0\xca\xa1E\xb6\xdb?\x1b/\xdd$\x06\x81\xed?\x00\x00\x00\x00\x00\x00\x00\x00'
p1908
tp1909
bsVplate_496f
p1910
g22
(g23
(I0
tp1911
g25
tp1912
Rp1913
(I1
(I4
tp1914
g163
I00
S"q=\n\xd7\xa3p\xe5?\x9dhW!\xe5'\xdd\xbf\x1b/\xdd$\x06\x81\xed?\x00\x00\x00\x00\x00\x00\x00\x00"
p1915
tp1916
bsVtoaster
p1917
g22
(g23
(I0
tp1918
g25
tp1919
Rp1920
(I1
(I4
tp1921
g163
I00
S')\\\x8f\xc2\xf5(\xf4\xbf\xe0z\x14\xaeG\xe1\xf2\xbf\xb8\x1e\x85\xebQ\xb8\xee?\x89/`\x9b\xf8\x8a\xe4?'
p1922
tp1923
bsVc_obst1
p1924
g22
(g23
(I0
tp1925
g25
tp1926
Rp1927
(I1
(I4
tp1928
g163
I00
S"\x1a\xb9N\x19s\x15\x12@\xd4P\xb2\xe60\xda\xb6\xbfe\xaa`TR'\xed?\xde0\x91w3x\xcf?"
p1929
tp1930
bsVrectangular_packing_box4
p1931
g22
(g23
(I0
tp1932
g25
tp1933
Rp1934
(I1
(I4
tp1935
g163
I00
S'\xe82\x01\x91`G\xf3?\xc4D\xf1y\xb4V \xc0L7\x89A`\xe5\xd8?\xa4n\xfb\xa8\xe0\xdf\xcf?'
p1936
tp1937
bsVmicrowave
p1938
g22
(g23
(I0
tp1939
g25
tp1940
Rp1941
(I1
(I4
tp1942
g163
I00
S'\x9a\x99\x99\x99\x99\x99\xf1\xbf\x00\x00\x00\x00\x00\x00\x00@7\x89A`\xe5\xd0\xee?\x00\x00\x00\x00\x00\x00\x00\x00'
p1943
tp1944
bsVc_obst7
p1945
g22
(g23
(I0
tp1946
g25
tp1947
Rp1948
(I1
(I4
tp1949
g163
I00
S"\x9bT\xc6\xc1\xe5\x98\x12@\xa8\xa4\xc8\x96\xa1\x1f\xd6?e\xaa`TR'\xed?\xd9\xd6[\xbd\xcb\x08\x07@"
p1950
tp1951
bsVc_obst6
p1952
g22
(g23
(I0
tp1953
g25
tp1954
Rp1955
(I1
(I4
tp1956
g163
I00
S"\xaadz\x90k9\x12@\x80\x9f\x1c\xd9\x9d]\xc0?e\xaa`TR'\xed?\x93=\x1c\xe1\xe8%\x15@"
p1957
tp1958
bsVcup_b6af
p1959
g22
(g23
(I0
tp1960
g25
tp1961
Rp1962
(I1
(I4
tp1963
g163
I00
S'R\xb8\x1e\x85\xebQ\xe8?\x9a\x99\x99\x99\x99\x99\xe1?\x1b/\xdd$\x06\x81\xed?\x00\x00\x00\x00\x00\x00\x00\x00'
p1964
tp1965
bsVc_obst4
p1966
g22
(g23
(I0
tp1967
g25
tp1968
Rp1969
(I1
(I4
tp1970
g163
I00
S"\xb5\xd4\x81\xf1\xed\x80\x12@\xb0\xe2>\xf9\x81j\xb7\xbfe\xaa`TR'\xed?>\xce\xcaF\xaeq\x16@"
p1971
tp1972
bsVrectangular_packing_box2
p1973
g22
(g23
(I0
tp1974
g25
tp1975
Rp1976
(I1
(I4
tp1977
g163
I00
S'G\xe9\xfd\xd4Q\x19\x10@\xfb\xe1\xe5W\xcez\x1f\xc0L7\x89A`\xe5\xd8?P\xf6^\xe8\x15e\x12@'
p1978
tp1979
bsVplate_fa76
p1980
g22
(g23
(I0
tp1981
g25
tp1982
Rp1983
(I1
(I4
tp1984
g163
I00
S'=\n\xd7\xa3p=\xf2?\x00\x00\x00\x00\x00\x00\x00\x00\x1b/\xdd$\x06\x81\xed?\x00\x00\x00\x00\x00\x00\x00\x00'
p1985
tp1986
bsVfloorwalls
p1987
g22
(g23
(I0
tp1988
g25
tp1989
Rp1990
(I1
(I4
tp1991
g163
I00
S'\xc7\xcc\xcc\xcc\xcc\xcc\xfc?\x00\x00\x00\x00\x00\x00\x18\xc0H\xe1z\x14\xaeG\xc1?\x16-DT\xfb!\xf9?'
p1992
tp1993
bsVpin_c671
p1994
g22
(g23
(I0
tp1995
g25
tp1996
Rp1997
(I1
(I4
tp1998
g163
I00
S'\xc3\xf5(\\\x8f\xc2\xf1\xbf}?5^\xbaI\x02@\xb8\x1e\x85\xebQ\xb8\xfa?\x00\x00\x00\x00\x00\x00\x00\x00'
p1999
tp2000
bsVc_obst3
p2001
g22
(g23
(I0
tp2002
g25
tp2003
Rp2004
(I1
(I4
tp2005
g163
I00
S"\xd6\xa3\xa0\xb2\xb5P\x12@\x80\x91\xddm\x8e\x87\x92?e\xaa`TR'\xed?0\x12\xdaW\x85-\x07@"
p2006
tp2007
bsVchair_2e39
p2008
g22
(g23
(I0
tp2009
g25
tp2010
Rp2011
(I1
(I4
tp2012
g163
I00
S'hfffff\xee?cfffff\xf2\xbf\x00\x00\x00\x00\x00\x00\x00\x00\x07M\xe8QQF\xf3?'
p2013
tp2014
bsVentrance_left
p2015
g22
(g23
(I0
tp2016
g25
tp2017
Rp2018
(I1
(I4
tp2019
g163
I00
S'\x98\x99\x99\x99\x99\x99\xe9\xbfH\xe1z\x14\xaeG\t\xc0\x9c\xc4 \xb0rh\xc1?\x00\x00\x00\x00\x00\x00\x00\x00'
p2020
tp2021
bsVtop_wall_1
p2022
g22
(g23
(I0
tp2023
g25
tp2024
Rp2025
(I1
(I4
tp2026
g163
I00
S'H\xe1z\x14\xaeG\x12@\x80\x14\xaeG\xe1z\xc4?xX\xa85\xcd\xbb\xf2?\x00\x00\x00\x00\x00\x00\x00\x00'
p2027
tp2028
bsVrectangular_packing_box3
p2029
g22
(g23
(I0
tp2030
g25
tp2031
Rp2032
(I1
(I4
tp2033
g163
I00
S'\x12k\x1a\xa0t\xc8\x08@\xd3\xa3\xf6\to\xbd\x15\xc0L7\x89A`\xe5\xd8?\xc5\xd60D\xc8\x12\xeb?'
p2034
tp2035
bsVshaker
p2036
g22
(g23
(I0
tp2037
g25
tp2038
Rp2039
(I1
(I4
tp2040
g163
I00
S'\n\xd7\xa3p=\n\x01@\x14\xaeG\xe1z\x14\x02@\\\x8f\xc2\xf5(\\\xef?\x00\x00\x00\x00\x00\x00\x00\x00'
p2041
tp2042
bsVc_obst9
p2043
g22
(g23
(I0
tp2044
g25
tp2045
Rp2046
(I1
(I4
tp2047
g163
I00
S"\xd0\xda\x86\xbc\x08\x83\x12@X\x96.t\xb7\xed\x90\xbfe\xaa`TR'\xed?!\x18\x83mMQ\t@"
p2048
tp2049
bsVplate_835a
p2050
g22
(g23
(I0
tp2051
g25
tp2052
Rp2053
(I1
(I4
tp2054
g163
I00
S'\xf6(\\\x8f\xc2\xf5\xf0?\\\x8f\xc2\xf5(\\\xe7\xbf\x1b/\xdd$\x06\x81\xed?\x00\x00\x00\x00\x00\x00\x00\x00'
p2055
tp2056
bsVcup_58a2
p2057
g22
(g23
(I0
tp2058
g25
tp2059
Rp2060
(I1
(I4
tp2061
g163
I00
S'\x85\xebQ\xb8\x1e\x85\xe3?\xcd\xcc\xcc\xcc\xcc\xcc\xdc?\x1b/\xdd$\x06\x81\xed?\x00\x00\x00\x00\x00\x00\x00\x00'
p2062
tp2063
bsVleft_wall_1
p2064
g22
(g23
(I0
tp2065
g25
tp2066
Rp2067
(I1
(I4
tp2068
g163
I00
S'H\xe1z\x14\xaeG\x12@S\xb8\x1e\x85\xebQ\xe4?\xcc\x7fH\xbf}\x1d\xed?\x00\x00\x00\x00\x00\x00\x00\x00'
p2069
tp2070
bsVc_obst2
p2071
g22
(g23
(I0
tp2072
g25
tp2073
Rp2074
(I1
(I4
tp2075
g163
I00
S"\xc0w\x96\x89\xf76\x12@p\xc0\xf7=\x0ck\xdf?e\xaa`TR'\xed?\xd0\x07(\xda\x1f\xd0\x02@"
p2076
tp2077
bsVsquare_packing_box4
p2078
g22
(g23
(I0
tp2079
g25
tp2080
Rp2081
(I1
(I4
tp2082
g163
I00
S'DZ^\xcb\x809\x03@\x0b\x8dC\xe5G*\x17\xc0L7\x89A`\xe5\xd8?\xa4\xc3\xb3|\xbbZ\x03@'
p2083
tp2084
bsVrectangular_packing_box1
p2085
g22
(g23
(I0
tp2086
g25
tp2087
Rp2088
(I1
(I4
tp2089
g163
I00
S'o>\xba\n^9\xf4?d\x98\x0c\xd6\xd7\xa3\x17\xc0L7\x89A`\xe5\xd8?] \x86;\xb1\xa1\x0c@'
p2090
tp2091
bsVpin_371e
p2092
g22
(g23
(I0
tp2093
g25
tp2094
Rp2095
(I1
(I4
tp2096
g163
I00
S'333333\xf3\xbfffffff\xf6?\xb8\x1e\x85\xebQ\xb8\xee?\x00\x00\x00\x00\x00\x00\x00\x00'
p2097
tp2098
bsVfridge
p2099
g22
(g23
(I0
tp2100
g25
tp2101
Rp2102
(I1
(I4
tp2103
g163
I00
S'\xd7\xa3p=\n\xd7\xeb\xbf\x00\x00\x00\x00\x00\x00\x00\xc0\xcd\xcc\xcc\xcc\xcc\xcc\xf8?\x00\x00\x00\x00\x00\x00\x00\x00'
p2104
tp2105
bsVcup_d441
p2106
g22
(g23
(I0
tp2107
g25
tp2108
Rp2109
(I1
(I4
tp2110
g163
I00
S'\n\xd7\xa3p=\n\xef?\x8f\xc2\xf5(\\\x8f\xe2?\x1b/\xdd$\x06\x81\xed?\x00\x00\x00\x00\x00\x00\x00\x00'
p2111
tp2112
bsVshelf2
p2113
g22
(g23
(I0
tp2114
g25
tp2115
Rp2116
(I1
(I4
tp2117
g163
I00
S'\x00\x00\x00\x00\x00\x00\x0e@\xaeG\xe1z\x14\xae\x07@\x9c\xc4 \xb0rh\xc1?\xd2!3\x7f|\xd9\x12@'
p2118
tp2119
bsVtop_wall_2
p2120
g22
(g23
(I0
tp2121
g25
tp2122
Rp2123
(I1
(I4
tp2124
g163
I00
S'H\xe1z\x14\xaeG\x12@\x80\x14\xaeG\xe1z\xc4?\x16HP\xfc\x18\xf3\xfd?\x00\x00\x00\x00\x00\x00\x00\x00'
p2125
tp2126
bsVc_obst0
p2127
g22
(g23
(I0
tp2128
g25
tp2129
Rp2130
(I1
(I4
tp2131
g163
I00
S"\xa0\xe3\xfe\xa2bS\x12@\x90Y\xb9\x00\xd0}\xc4\xbfe\xaa`TR'\xed?\xaf\x8e\xa0`\x06s\x17@"
p2132
tp2133
bsVshelf1
p2134
g22
(g23
(I0
tp2135
g25
tp2136
Rp2137
(I1
(I4
tp2138
g163
I00
S'\x00\x00\x00\x00\x00\x00\x13@\xaeG\xe1z\x14\xae\x07@\x9c\xc4 \xb0rh\xc1?\xd2!3\x7f|\xd9\x12@'
p2139
tp2140
bsVsink
p2141
g22
(g23
(I0
tp2142
g25
tp2143
Rp2144
(I1
(I4
tp2145
g163
I00
S'ffffff\xd6?333333\x01@\x9a\x99\x99\x99\x99\x99\xb9\xbf\x00\x00\x00\x00\x00\x00\x00\x00'
p2146
tp2147
bsVpr2
p2148
g22
(g23
(I0
tp2149
g25
tp2150
Rp2151
(I1
(I4
tp2152
g163
I00
S'H\\pi{\xbe\x02@\xb7%\x98S\x1eN\x1d\xc0\x9a_\x94\xa0\xbf\xd0\xc1?\xf1\xe1\xc8\x1e"\xd5\n@'
p2153
tp2154
bsVchair_12d0
p2155
g22
(g23
(I0
tp2156
g25
tp2157
Rp2158
(I1
(I4
tp2159
g163
I00
S'\\\xd2\x18\xad\xa3\xaa\xdb?Of\x83L2r\xc6?\x00\x00\x00\x00\x00\x00\x00\x00\xf8\x81\r\x14M\xa6\x17@'
p2160
tp2161
bsVright_wall_2
p2162
g22
(g23
(I0
tp2163
g25
tp2164
Rp2165
(I1
(I4
tp2166
g163
I00
S'H\xe1z\x14\xaeG\x12@&\\\x8f\xc2\xf5(\xd4\xbfxX\xa85\xcd\xbb\xf2?\x00\x00\x00\x00\x00\x00\x00\x00'
p2167
tp2168
bsVknife_block
p2169
g22
(g23
(I0
tp2170
g25
tp2171
Rp2172
(I1
(I4
tp2173
g163
I00
S'R\xb8\x1e\x85\xebQ\xe0\xbfffffff\x02@`\xe5\xd0"\xdb\xf9\xee?\x00\x00\x00\x00\x00\x00\x00\x00'
p2174
tp2175
bsVleft_wall_2
p2176
g22
(g23
(I0
tp2177
g25
tp2178
Rp2179
(I1
(I4
tp2180
g163
I00
S'H\xe1z\x14\xaeG\x12@S\xb8\x1e\x85\xebQ\xe4?xX\xa85\xcd\xbb\xf2?\x00\x00\x00\x00\x00\x00\x00\x00'
p2181
tp2182
bsVleft_wall
p2183
g22
(g23
(I0
tp2184
g25
tp2185
Rp2186
(I1
(I4
tp2187
g163
I00
S'\x9a\x99\x99\x99\x99\x99\x07@H\xe1z\x14\xaeG\xff?\x9c\xc4 \xb0rh\xc1?\x00\x00\x00\x00\x00\x00\x00\x00'
p2188
tp2189
bsVkitchen
p2190
g22
(g23
(I0
tp2191
g25
tp2192
Rp2193
(I1
(I4
tp2194
g163
I00
S'\x00\x00\x00\x00\x00\x00\x00\x00\x00\x00\x00\x00\x00\x00\x00\x00\x00\x00\x00\x00\x00\x00\x00\x00\x00\x00\x00\x00\x00\x00\x00\x00'
p2195
tp2196
bsVtable2
p2197
g22
(g23
(I0
tp2198
g25
tp2199
Rp2200
(I1
(I4
tp2201
g163
I00
S'\x00\x00\x00\x00\x00\x00\x13@\x80\x14\xaeG\xe1z\xc4?S\x96!\x8euq\xec?\xd2!3\x7f|\xd9\x12@'
p2202
tp2203
bsVc_obst8
p2204
g22
(g23
(I0
tp2205
g25
tp2206
Rp2207
(I1
(I4
tp2208
g163
I00
S'L\xfa\xffW\xd1\x8f\x12@\x1c\x98Q\xdf"\xbc\xdd?e\xaa`TR\'\xed?i4\xc2r\x87\xba\t@'
p2209
tp2210
bsVplate_b4e7
p2211
g22
(g23
(I0
tp2212
g25
tp2213
Rp2214
(I1
(I4
tp2215
g163
I00
S'\x14\xaeG\xe1z\x14\xf2\xbf\x14\xaeG\xe1z\x14\x00@=\n\xd7\xa3p=\xf2?\x00\x00\x00\x00\x00\x00\x00\x00'
p2216
tp2217
bsVcooker
p2218
g22
(g23
(I0
tp2219
g25
tp2220
Rp2221
(I1
(I4
tp2222
g163
I00
S'\xaeG\xe1z\x14\xae\xff?\x85\xebQ\xb8\x1e\x85\xfb?\x00\x00\x00\x00\x00\x00\xe8?\x00\x00\x00\x00\x00\x00\x00\x00'
p2223
tp2224
bsVpin_a091
p2225
g22
(g23
(I0
tp2226
g25
tp2227
Rp2228
(I1
(I4
tp2229
g163
I00
S'\xdb\xf9~j\xbct\xf7\xbf)\\\x8f\xc2\xf5(\x02@\xb8\x1e\x85\xebQ\xb8\xfa?\x00\x00\x00\x00\x00\x00\x00\x00'
p2230
tp2231
bsVside_wall_2
p2232
g22
(g23
(I0
tp2233
g25
tp2234
Rp2235
(I1
(I4
tp2236
g163
I00
S'\xfa\xff\xff\xff\xff\xff\x14@\x00\x00\x00\x00\x00\x00\x00\x00\x9c\xc4 \xb0rh\xc1?\x18-DT\xfb!\xf9?'
p2237
tp2238
bsVside_wall_3
p2239
g22
(g23
(I0
tp2240
g25
tp2241
Rp2242
(I1
(I4
tp2243
g163
I00
S'\x00\x00\x00\x00\x00\x00\xfc?H\xe1z\x14\xaeG\t@\x9c\xc4 \xb0rh\xc1?\x00\x00\x00\x00\x00\x00\x00\x00'
p2244
tp2245
bsVmixer
p2246
g22
(g23
(I0
tp2247
g25
tp2248
Rp2249
(I1
(I4
tp2250
g163
I00
S'\n\xd7\xa3p=\n\xfb?ffffff\x02@d;\xdfO\x8d\x97\xee?\x00\x00\x00\x00\x00\x00\x00\x00'
p2251
tp2252
bsVside_wall_1
p2253
g22
(g23
(I0
tp2254
g25
tp2255
Rp2256
(I1
(I4
tp2257
g163
I00
S'\xf4\xff\xff\xff\xff\xff\xfb\xbf\x00\x00\x00\x00\x00\x00\x00\x00\x9c\xc4 \xb0rh\xc1?\x18-DT\xfb!\xf9?'
p2258
tp2259
bsVbottom_wall_1
p2260
g22
(g23
(I0
tp2261
g25
tp2262
Rp2263
(I1
(I4
tp2264
g163
I00
S'H\xe1z\x14\xaeG\x12@\x80\x14\xaeG\xe1z\xc4?\xcc\x7fH\xbf}\x1d\xed?\x00\x00\x00\x00\x00\x00\x00\x00'
p2265
tp2266
bsVcan
p2267
g22
(g23
(I0
tp2268
g25
tp2269
Rp2270
(I1
(I4
tp2271
g163
I00
S'\x00\x00\x00\x00\x00\x00\xf4\xbfH\xe1z\x14\xaeG\xe1\xbf\n\xd7\xa3p=\n\xef?\x00\x00\x00\x00\x00\x00\x00\x00'
p2272
tp2273
bsVright_wall
p2274
g22
(g23
(I0
tp2275
g25
tp2276
Rp2277
(I1
(I4
tp2278
g163
I00
S'\x9a\x99\x99\x99\x99\x99\x07@H\xe1z\x14\xaeG\xff\xbf\x9c\xc4 \xb0rh\xc1?\x00\x00\x00\x00\x00\x00\x00\x00'
p2279
tp2280
bsVcoffe_machine
p2281
g22
(g23
(I0
tp2282
g25
tp2283
Rp2284
(I1
(I4
tp2285
g163
I00
S'\\\x8f\xc2\xf5(\\\xf5\xbf\xb8\x1e\x85\xebQ\xb8\xee?\n\xd7\xa3p=\n\xef?\x00\x00\x00\x00\x00\x00\x00\x00'
p2286
tp2287
bsVcomputer_chair
p2288
g22
(g23
(I0
tp2289
g25
tp2290
Rp2291
(I1
(I4
tp2292
g163
I00
S'\xcd\xcc\xcc\xcc\xcc\xcc\x10@\x00\x00\x00\x00\x00\x00\xf8\xbf\xa00\xb6\x10\xe4\xa9\x95\xbf\x00\x00\x00\x00\x00\x00\x00\x00'
p2293
tp2294
bssS'robot_dof_values'
p2295
g22
(g23
(I0
tp2296
g25
tp2297
Rp2298
(I1
(I39
tp2299
g163
I00
S'\x00\x00\x00\x00\x00\x00\x00\x00\x00\x00\x00\x00\x00\x00\x00\x00\x00\x00\x00\x00\x00\x00\x00\x00\x00\x00\x00\x00\x00\x00\x00\x00\x00\x00\x00\x00\x00\x00\x00\x00\x00\x00\x00\x00\x00\x00\x00\x00\x00\x00\x00\x00\x00\x00\x00\x00\x00\x00\x00\x00\x00\x00\x00\x00\x00\x00\x00\x00\x00\x00\x00\x00\x00\x00\x00\x00\x00\x00\x00\x00\x00\x00\x00\x00\x00\x00\x00\x00\x00\x00\x00\x00\x00\x00\x00\x00@d;\xdfO\x8d\x87?\x00\x00\x00\x00\x00\x00\x00\x00\x00\x00\x00\x00\x00\x00\x00\x00\x00\x00\x00\x00\x00\x00\x00\x00\xec\xed\t\xf1\xcc\xa4\xf4?\x00\x00\x00\x00\x00\x00\xb0\xbcN"\xd0^p\xf8\x00\xc0\x00\x00\x00\x00\x00\x00\x00\x00\x9b\x03\r.\x04V\xe6\xbf\x00\x00\x00\x00\x00\x00\x00\x00\x00\x00\x00\x00\x00\x00\x00\x00\x00\x00\x00\x00\x00\x00\xb6\xbc\x00\x00\x00\x00\x00\x00\x00\x00\x00\x00\x00\x00\x00\x00\xd0<\x00\x00\x00\x00\x00\x00\x00\x00\x00\x00\x00\x00\x00\x00\x00\x00\xec\xed\t\xf1\xcc\xa4\xf4?\x00\x00\x00\x00\x00\x00\x00\x00N"\xd0^p\xf8\x00\xc0\x00\x00\x00\x00\x00\x00\x00\x00\xa1\x03\r.\x04V\xe6\xbf\x00\x00\x00\x00\x00\x00\x00\x00\xcd9\xe3\xc17\x89\xe1?\x00\x00\x00\x00\x00\x00\xb6\xbc\x00\x00\x00\x00\x00\x00\x00\x00\x00\x00\x00\x00\x00\x00\xd0<\x00\x00\x00\x00\x00\x00\x00\x00'
p2300
tp2301
bsS'is_holding'
p2302
I00
sbsS'holding_collides'
p2303
NsS'parent_ternary_predicates'
p2304
(dp2305
sS'cached_place_paths'
p2306
(dp2307
(g649
g1130
tp2308
(lp2309
g22
(g23
(I0
tp2310
g25
tp2311
Rp2312
(I1
(I3
tp2313
g163
I00
S'\xd3=l\xffZ*\xfb?P"\xac2\xfe\xde\x19\xc0\xd8\x11\xf9\xec\x84\xc0\x03@'
p2314
tp2315
bas(g652
g154
tp2316
g217
s(g647
g154
tp2317
g274
s(g651
g1130
tp2318
(lp2319
g22
(g23
(I0
tp2320
g25
tp2321
Rp2322
(I1
(I3
tp2323
g163
I00
S'\xb8-\n$\xc9?\xd0\xbf\xf3\xe3$$\xfb\xf5\x18\xc0\xe3R\x84l7%\xf5?'
p2324
tp2325
bas(g647
g1130
tp2326
(lp2327
g22
(g23
(I0
tp2328
g25
tp2329
Rp2330
(I1
(I3
tp2331
g163
I00
S'u\xa7\xa9\xf3$[\xf2?be\xc9\x80A\xdc\x1d\xc0"\x89\xbf\xdb\xea\x13\x14@'
p2332
tp2333
bas(g651
g154
tp2334
g490
s(g650
g1130
tp2335
(lp2336
g22
(g23
(I0
tp2337
g25
tp2338
Rp2339
(I1
(I3
tp2340
g163
I00
S'\xc3\x85\x92\xbc!{\x06@\xe4\x82\x83\xb1\xba\xaf\x1d\xc0J.+\x9a0k\x14@'
p2341
tp2342
bas(g650
g154
tp2343
g376
s(g12
g154
tp2344
g331
s(g648
g154
tp2345
g156
s(g648
g1130
tp2346
(lp2347
g22
(g23
(I0
tp2348
g25
tp2349
Rp2350
(I1
(I3
tp2351
g163
I00
S'\x12}D#\xd7\xc3\x05@\x89\xc4~\xca\x15{\x18\xc0\xd7\xe7p\x86r.\xe5?'
p2352
tp2353
bas(g652
g1130
tp2354
(lp2355
g22
(g23
(I0
tp2356
g25
tp2357
Rp2358
(I1
(I3
tp2359
g163
I00
S'r\xd6\x8f-X\xb9\x06@\xbd`\xe5\x0c,k\x19\xc0\x9d\xd1\x8d?\xb0\xd9\x02@'
p2360
tp2361
bas(g12
g1130
tp2362
(lp2363
g22
(g23
(I0
tp2364
g25
tp2365
Rp2366
(I1
(I3
tp2367
g163
I00
S'\xd0\x97\xeb\xabY\xf9\xd4?\x9e\xed\xde\x1d\x00\xb8\x18\xc01\xf6p\xb21\xa3\xfd?'
p2368
tp2369
bas(g731
g1130
tp2370
(lp2371
g22
(g23
(I0
tp2372
g25
tp2373
Rp2374
(I1
(I3
tp2375
g163
I00
S'\xe6"vp\xe44\n@\x13h5\xb3~\xee\x1f\xc0m\xc4\xd2v\x1dn\xda?'
p2376
tp2377
bas(g731
g154
tp2378
g535
s(g649
g154
tp2379
g439
ssS'parent_binary_predicates'
p2380
(dp2381
sS'nodes'
p2382
(dp2383
g1133
(lp2384
I0
aI0
aI0
aI0
aI0
aI0
aI00
aI01
aI00
aI01
aI00
asg1130
(lp2385
I0
aI0
aI0
aI0
aI0
aI0
aI00
aI01
aI00
aI01
aI00
asg154
(lp2386
I0
aI0
aI0
aI0
aI0
aI0
aI00
aI01
aI01
aI01
aI00
asg272
(lp2387
I0
aI0
aI0
ag1701
(g163
S'\xdc2\x01\x91`G\xf3?'
p2388
tp2389
Rp2390
ag1701
(g163
S'\xc1D\xf1y\xb4V \xc0'
p2391
tp2392
Rp2393
ag1701
(g163
S'#n\xfb\xa8\xe0\xdf\xcf?'
p2394
tp2395
Rp2396
aI01
aI00
aI00
aI01
aI00
asg533
(lp2397
I0
aI0
aI0
ag1701
(g163
S'y\xe5\xfd\xd4Q\x19\x10@'
p2398
tp2399
Rp2400
ag1701
(g163
S'\xec\xde\xe5W\xcez\x1f\xc0'
p2401
tp2402
Rp2403
ag1701
(g163
S'P\xf6^\xe8\x15e\x12@'
p2404
tp2405
Rp2406
aI01
aI00
aI00
aI00
aI00
asg153
(lp2407
I0
aI0
aI0
ag1701
(g163
S'Mk\x1a\xa0t\xc8\x08@'
p2408
tp2409
Rp2410
ag1701
(g163
S'h\xa3\xf6\to\xbd\x15\xc0'
p2411
tp2412
Rp2413
ag1701
(g163
S'\xc5\xd60D\xc8\x12\xeb?'
p2414
tp2415
Rp2416
aI01
aI00
aI00
aI01
aI00
asg437
(lp2417
I0
aI0
aI0
ag1701
(g163
S'\xa6=\xba\n^9\xf4?'
p2418
tp2419
Rp2420
ag1701
(g163
S'B\x98\x0c\xd6\xd7\xa3\x17\xc0'
p2421
tp2422
Rp2423
ag1701
(g163
S'\\ \x86;\xb1\xa1\x0c@'
p2424
tp2425
Rp2426
aI01
aI00
aI00
aI01
aI00
asg374
(lp2427
I0
aI0
aI0
ag1701
(g163
S'\x8cz\xbf\xc3\xd3?\x07@'
p2428
tp2429
Rp2430
ag1701
(g163
S'\xe6*\xbd\xf6\xee9 \xc0'
p2431
tp2432
Rp2433
ag1701
(g163
S'\x03\xe7\x93\xb8U\x9f\xf8?'
p2434
tp2435
Rp2436
aI01
aI00
aI00
aI01
aI00
asg488
(lp2437
I0
aI0
aI0
ag1701
(g163
S'\xdb\xf5\xb5\x0cl\x97\xd1\xbf'
p2438
tp2439
Rp2440
ag1701
(g163
S'\xa2\xdc\xda\x16\n\x9b\x15\xc0'
p2441
tp2442
Rp2443
ag1701
(g163
S'\xf1\xb3\x98Gs\x9c\xfb?'
p2444
tp2445
Rp2446
aI01
aI00
aI00
aI01
aI00
asg329
(lp2447
I0
aI0
aI0
ag1701
(g163
S" [\x0e'\x85\x14\xda?"
p2448
tp2449
Rp2450
ag1701
(g163
S'\x80\x03^\xa9\xaeR\x15\xc0'
p2451
tp2452
Rp2453
ag1701
(g163
S'a\xd8NyT\x1f\n@'
p2454
tp2455
Rp2456
aI01
aI00
aI01
aI01
aI00
asg215
(lp2457
I0
aI0
aI0
ag1701
(g163
S'\x01Z^\xcb\x809\x03@'
p2458
tp2459
Rp2460
ag1701
(g163
S'\x13\x8aC\xe5G*\x17\xc0'
p2461
tp2462
Rp2463
ag1701
(g163
S'\xa3\xc3\xb3|\xbbZ\x03@'
p2464
tp2465
Rp2466
aI01
aI00
aI00
aI01
aI00
assS'mc_place_path'
p2467
(dp2468
sS'parent_state'
p2469
NsS'goal_entities'
p2470
(lp2471
S'square_packing_box1'
p2472
ag154
asS'binary_edges'
p2473
(dp2474
(g374
g215
tp2475
(lp2476
I00
aI00
aI00
as(g374
g272
tp2477
(lp2478
I00
aI00
aI00
as(g153
g488
tp2479
(lp2480
I00
aI00
aI00
as(g153
g153
tp2481
(lp2482
I00
aI00
aI00
as(g533
g488
tp2483
(lp2484
I00
aI00
aI00
as(g533
g153
tp2485
(lp2486
I00
aI00
aI00
as(g215
g533
tp2487
(lp2488
I00
aI00
aI00
as(g374
g329
tp2489
(lp2490
I00
aI00
aI00
as(g437
g153
tp2491
(lp2492
I00
aI00
aI00
as(g272
g272
tp2493
(lp2494
I00
aI00
aI00
as(g533
g1130
tp2495
(lp2496
g1701
(g29
(S'b1'
p2497
I0
I1
tp2498
Rp2499
(I3
S'|'
p2500
NNNI-1
I-1
I0
tp2501
bS'\x01'
p2502
tp2503
Rp2504
aI00
aI01
as(g1133
g1130
tp2505
(lp2506
I00
aI00
aI00
as(g272
g215
tp2507
(lp2508
I00
aI00
aI00
as(g1130
g215
tp2509
(lp2510
I00
aI00
aI00
as(g329
g154
tp2511
(lp2512
I00
aI00
aI00
as(g1133
g533
tp2513
(lp2514
I00
aI00
aI00
as(g533
g215
tp2515
(lp2516
I00
aI00
aI00
as(g153
g1133
tp2517
(lp2518
g2504
aI00
aI00
as(g374
g374
tp2519
(lp2520
I00
aI00
aI00
as(g1130
g374
tp2521
(lp2522
I00
aI00
aI00
as(g488
g533
tp2523
(lp2524
I00
aI00
aI00
as(g533
g154
tp2525
(lp2526
I00
aI00
aI00
as(g437
g488
tp2527
(lp2528
I00
aI00
aI00
as(g272
g437
tp2529
(lp2530
I00
aI00
aI00
as(g329
g329
tp2531
(lp2532
I00
aI00
aI00
as(g533
g1133
tp2533
(lp2534
g2504
aI00
aI00
as(g1130
g533
tp2535
(lp2536
I00
aI00
aI00
as(g1130
g488
tp2537
(lp2538
I00
aI00
aI00
as(g1130
g153
tp2539
(lp2540
I00
aI00
aI00
as(g488
g154
tp2541
(lp2542
I00
aI00
aI00
as(g215
g272
tp2543
(lp2544
I00
aI00
aI00
as(g437
g272
tp2545
(lp2546
I00
aI00
aI00
as(g488
g437
tp2547
(lp2548
I00
aI00
aI00
as(g1130
g272
tp2549
(lp2550
I00
aI00
aI00
as(g1133
g154
tp2551
(lp2552
I00
aI00
aI00
as(g329
g533
tp2553
(lp2554
I00
aI00
aI00
as(g272
g488
tp2555
(lp2556
I00
aI00
aI00
as(g1133
g488
tp2557
(lp2558
I00
aI00
aI00
as(g488
g1133
tp2559
(lp2560
g2504
aI00
aI00
as(g153
g374
tp2561
(lp2562
I00
aI00
aI00
as(g215
g329
tp2563
(lp2564
I00
aI00
aI00
as(g153
g533
tp2565
(lp2566
I00
aI00
aI00
as(g215
g154
tp2567
(lp2568
I00
aI00
aI00
as(g1133
g1133
tp2569
(lp2570
I00
aI00
aI00
as(g488
g272
tp2571
(lp2572
I00
aI00
aI00
as(g329
g374
tp2573
(lp2574
I00
aI00
aI00
as(g154
g329
tp2575
(lp2576
I00
aI00
aI00
as(g437
g1130
tp2577
(lp2578
g2504
aI00
aI01
as(g154
g437
tp2579
(lp2580
I00
aI00
aI00
as(g215
g153
tp2581
(lp2582
I00
aI00
aI00
as(g153
g329
tp2583
(lp2584
I00
aI00
aI00
as(g488
g1130
tp2585
(lp2586
g2504
aI00
aI01
as(g153
g437
tp2587
(lp2588
I00
aI00
aI00
as(g488
g488
tp2589
(lp2590
I00
aI00
aI00
as(g437
g533
tp2591
(lp2592
I00
aI00
aI00
as(g1130
g154
tp2593
(lp2594
I00
aI00
aI00
as(g154
g374
tp2595
(lp2596
I00
aI00
aI00
as(g272
g154
tp2597
(lp2598
I00
aI00
aI00
as(g1133
g437
tp2599
(lp2600
I00
aI00
aI00
as(g154
g215
tp2601
(lp2602
I00
aI00
aI00
as(g153
g215
tp2603
(lp2604
I00
aI00
aI00
as(g437
g1133
tp2605
(lp2606
g2504
aI00
aI00
as(g215
g1130
tp2607
(lp2608
g2504
aI00
aI01
as(g437
g374
tp2609
(lp2610
I00
aI00
aI00
as(g272
g533
tp2611
(lp2612
I00
aI00
aI00
as(g272
g1130
tp2613
(lp2614
g2504
aI00
aI01
as(g154
g153
tp2615
(lp2616
I00
aI00
aI00
as(g1133
g215
tp2617
(lp2618
I00
aI00
aI00
as(g1133
g272
tp2619
(lp2620
I00
aI00
aI00
as(g437
g154
tp2621
(lp2622
I00
aI00
aI00
as(g374
g437
tp2623
(lp2624
I00
aI00
aI00
as(g329
g437
tp2625
(lp2626
I00
aI00
aI00
as(g154
g488
tp2627
(lp2628
I00
aI00
aI00
as(g1130
g1130
tp2629
(lp2630
I00
aI00
aI00
as(g374
g153
tp2631
(lp2632
I00
aI00
aI00
as(g329
g488
tp2633
(lp2634
I00
aI00
aI00
as(g1130
g329
tp2635
(lp2636
I00
aI00
aI00
as(g533
g272
tp2637
(lp2638
I00
aI00
aI00
as(g1130
g437
tp2639
(lp2640
I00
aI00
aI00
as(g329
g1133
tp2641
(lp2642
g2504
aI00
aI00
as(g374
g533
tp2643
(lp2644
I00
aI01
aI00
as(g153
g154
tp2645
(lp2646
I00
aI00
aI00
as(g329
g272
tp2647
(lp2648
I00
aI00
aI00
as(g272
g329
tp2649
(lp2650
I00
aI00
aI00
as(g533
g329
tp2651
(lp2652
I00
aI00
aI00
as(g1133
g374
tp2653
(lp2654
I00
aI00
aI00
as(g533
g437
tp2655
(lp2656
I00
aI00
aI00
as(g488
g374
tp2657
(lp2658
I00
aI00
aI00
as(g374
g1130
tp2659
(lp2660
g2504
aI00
aI01
as(g437
g437
tp2661
(lp2662
I00
aI00
aI00
as(g215
g374
tp2663
(lp2664
I00
aI00
aI00
as(g329
g215
tp2665
(lp2666
I00
aI00
aI00
as(g533
g374
tp2667
(lp2668
I00
aI00
aI00
as(g533
g533
tp2669
(lp2670
I00
aI00
aI00
as(g215
g437
tp2671
(lp2672
I00
aI00
aI00
as(g374
g154
tp2673
(lp2674
I00
aI00
aI00
as(g488
g329
tp2675
(lp2676
I00
aI00
aI00
as(g153
g1130
tp2677
(lp2678
g2504
aI00
aI01
as(g154
g533
tp2679
(lp2680
I00
aI00
aI00
as(g437
g329
tp2681
(lp2682
I00
aI00
aI00
as(g272
g153
tp2683
(lp2684
I00
aI00
aI00
as(g154
g1130
tp2685
(lp2686
I00
aI00
aI00
as(g374
g488
tp2687
(lp2688
I00
aI00
aI00
as(g1133
g153
tp2689
(lp2690
I00
aI00
aI00
as(g374
g1133
tp2691
(lp2692
g2504
aI00
aI00
as(g488
g153
tp2693
(lp2694
I00
aI00
aI00
as(g154
g154
tp2695
(lp2696
I00
aI00
aI00
as(g437
g215
tp2697
(lp2698
I00
aI00
aI00
as(g272
g1133
tp2699
(lp2700
g2504
aI00
aI00
as(g215
g1133
tp2701
(lp2702
g2504
aI00
aI00
as(g154
g1133
tp2703
(lp2704
I00
aI00
aI00
as(g154
g272
tp2705
(lp2706
I00
aI00
aI00
as(g488
g215
tp2707
(lp2708
I00
aI00
aI00
as(g215
g488
tp2709
(lp2710
I00
aI00
aI00
as(g153
g272
tp2711
(lp2712
I00
aI00
aI00
as(g1130
g1133
tp2713
(lp2714
I00
aI00
aI00
as(g329
g153
tp2715
(lp2716
I00
aI00
aI00
as(g272
g374
tp2717
(lp2718
I00
aI00
aI00
as(g215
g215
tp2719
(lp2720
I00
aI00
aI00
as(g329
g1130
tp2721
(lp2722
g2504
aI00
aI01
as(g1133
g329
tp2723
(lp2724
I00
aI00
aI00
assg645
g646
sS'pick_in_way'
p2725
(itrajectory_representation.predicates.pick_in_way
PickInWay
p2726
(dp2727
g151
(dp2728
g272
g724
sg533
g756
sg153
g805
sg437
g848
sg374
g897
sg488
g940
sg329
g976
sg215
g1037
ssg608
(dp2729
g272
(lp2730
sg533
(lp2731
Vsquare_packing_box2
p2732
asg153
(lp2733
sg437
(lp2734
sg374
(lp2735
sg488
(lp2736
sg329
(lp2737
sg215
(lp2738
ssg645
(lp2739
g437
ag374
ag488
ag153
ag215
ag272
ag1133
ag154
ag1130
ag329
ag1133
ag154
ag1130
ag1133
ag154
ag1130
ag1133
ag154
ag1130
ag1133
ag154
ag1130
ag1133
ag154
ag1130
ag1133
ag154
ag1130
ag1133
ag154
ag1130
asg653
g654
sg84
(dp2740
sg688
g689
sg1058
Nsg1064
g689
sg1061
(dp2741
sg1063
I8
sg1125
I01
sg1065
Nsg1066
(dp2742
(g374
g215
tp2743
I00
s(g374
g272
tp2744
I00
s(g153
g488
tp2745
I00
s(g153
g153
tp2746
I00
s(g533
g488
tp2747
I00
s(g533
g153
tp2748
I00
s(g215
g533
tp2749
I00
s(g374
g329
tp2750
I00
s(g437
g153
tp2751
I00
s(g272
g272
tp2752
I00
s(g533
g1130
tp2753
I00
s(g1133
g1130
tp2754
I00
s(g272
g215
tp2755
I00
s(g1130
g215
tp2756
I00
s(g329
g154
tp2757
I00
s(g1133
g533
tp2758
I00
s(g533
g215
tp2759
I00
s(g153
g1133
tp2760
I00
s(g374
g374
tp2761
I00
s(g1130
g374
tp2762
I00
s(g488
g533
tp2763
I00
s(g533
g154
tp2764
I00
s(g437
g488
tp2765
I00
s(g272
g437
tp2766
I00
s(g329
g329
tp2767
I00
s(g533
g1133
tp2768
I00
s(g1130
g533
tp2769
I00
s(g1130
g488
tp2770
I00
s(g1130
g153
tp2771
I00
s(g488
g154
tp2772
I00
s(g215
g272
tp2773
I00
s(g437
g272
tp2774
I00
s(g488
g437
tp2775
I00
s(g1130
g272
tp2776
I00
s(g1133
g154
tp2777
I00
s(g329
g533
tp2778
I00
s(g272
g488
tp2779
I00
s(g1133
g488
tp2780
I00
s(g488
g1133
tp2781
I00
s(g153
g374
tp2782
I00
s(g215
g329
tp2783
I00
s(g153
g533
tp2784
I00
s(g215
g154
tp2785
I00
s(g1133
g1133
tp2786
I00
s(g488
g272
tp2787
I00
s(g329
g374
tp2788
I00
s(g154
g329
tp2789
I00
s(g437
g1130
tp2790
I00
s(g154
g437
tp2791
I00
s(g215
g153
tp2792
I00
s(g153
g329
tp2793
I00
s(g488
g1130
tp2794
I00
s(g153
g437
tp2795
I00
s(g488
g488
tp2796
I00
s(g437
g533
tp2797
I00
s(g1130
g154
tp2798
I00
s(g154
g374
tp2799
I00
s(g272
g154
tp2800
I00
s(g1133
g437
tp2801
I00
s(g154
g215
tp2802
I00
s(g153
g215
tp2803
I00
s(g437
g1133
tp2804
I00
s(g215
g1130
tp2805
I00
s(g437
g374
tp2806
I00
s(g272
g533
tp2807
I00
s(g272
g1130
tp2808
I00
s(g154
g153
tp2809
I00
s(g1133
g215
tp2810
I00
s(g1133
g272
tp2811
I00
s(g437
g154
tp2812
I00
s(g374
g437
tp2813
I00
s(g329
g437
tp2814
I00
s(g154
g488
tp2815
I00
s(g1130
g1130
tp2816
I00
s(g374
g153
tp2817
I00
s(g329
g488
tp2818
I00
s(g1130
g329
tp2819
I00
s(g533
g272
tp2820
I00
s(g1130
g437
tp2821
I00
s(g329
g1133
tp2822
I00
s(g374
g533
tp2823
I01
s(g153
g154
tp2824
I00
s(g329
g272
tp2825
I00
s(g272
g329
tp2826
I00
s(g533
g329
tp2827
I00
s(g1133
g374
tp2828
I00
s(g533
g437
tp2829
I00
s(g488
g374
tp2830
I00
s(g374
g1130
tp2831
I00
s(g437
g437
tp2832
I00
s(g215
g374
tp2833
I00
s(g329
g215
tp2834
I00
s(g533
g374
tp2835
I00
s(g533
g533
tp2836
I00
s(g215
g437
tp2837
I00
s(g374
g154
tp2838
I00
s(g488
g329
tp2839
I00
s(g153
g1130
tp2840
I00
s(g154
g533
tp2841
I00
s(g437
g329
tp2842
I00
s(g272
g153
tp2843
I00
s(g154
g1130
tp2844
I00
s(g374
g488
tp2845
I00
s(g1133
g153
tp2846
I00
s(g374
g1133
tp2847
I00
s(g488
g153
tp2848
I00
s(g154
g154
tp2849
I00
s(g437
g215
tp2850
I00
s(g272
g1133
tp2851
I00
s(g215
g1133
tp2852
I00
s(g154
g1133
tp2853
I00
s(g154
g272
tp2854
I00
s(g488
g215
tp2855
I00
s(g215
g488
tp2856
I00
s(g153
g272
tp2857
I00
s(g1130
g1133
tp2858
I00
s(g329
g153
tp2859
I00
s(g272
g374
tp2860
I00
s(g215
g215
tp2861
I00
s(g329
g1130
tp2862
I00
s(g1133
g329
tp2863
I00
ssg1124
NsbsS'robot_pose'
p2864
g22
(g23
(I0
tp2865
g25
tp2866
Rp2867
(I1
(I1
I3
tp2868
g163
I00
S'B\\pi{\xbe\x02@\xae%\x98S\x1eN\x1d\xc0\xf1\xe1\xc8\x1e"\xd5\n@'
p2869
tp2870
bsS'is_holding_goal_entity'
p2871
(itrajectory_representation.predicates.is_holding_goal_entity
IsHoldingGoalEntity
p2872
(dp2873
g2470
g2471
sg1065
NsbsS'mc_pick_path'
p2874
(dp2875
sS'current_collides'
p2876
g654
sbasS'seed'
p2877
NsS'state_prime'
p2878
(lp2879
sS'problem_idx'
p2880
I250
sb.