(dp0
S'found_solution'
p1
I00
sS'n_nodes'
p2
I13
sS'n_remaining_objs'
p3
I1
sS'goal_entities'
p4
(lp5
Vsquare_packing_box1
p6
aS'home_region'
p7
asS'plan'
p8
(lp9
sS'time_taken'
p10
F1068.6100058555603
s.