(dp0
S'found_solution'
p1
I01
sS'n_nodes'
p2
I1
sS'n_remaining_objs'
p3
I0
sS'goal_entities'
p4
(lp5
Vsquare_packing_box1
p6
aS'home_region'
p7
asS'plan'
p8
(lp9
(itrajectory_representation.operator
Operator
p10
(dp11
S'is_skeleton'
p12
I01
sS'discrete_parameters'
p13
(dp14
S'object'
p15
Vsquare_packing_box1
p16
ssS'type'
p17
S'two_arm_pick'
p18
sS'continuous_parameters'
p19
(dp20
S'q_goal'
p21
cnumpy.core.multiarray
_reconstruct
p22
(cnumpy
ndarray
p23
(I0
tp24
S'b'
p25
tp26
Rp27
(I1
(I3
tp28
cnumpy
dtype
p29
(S'f8'
p30
I0
I1
tp31
Rp32
(I3
S'<'
p33
NNNI-1
I-1
I0
tp34
bI00
S'\xc1\xbc\'\xc1\x9d.\xd3?\xb2"\xaaeB\xf4\x15\xc02\xa8A\xe6Vp\xd8?'
p35
tp36
bssS'low_level_motion'
p37
(lp38
g22
(g23
(I0
tp39
g25
tp40
Rp41
(I1
(I3
tp42
g32
I00
S'\x8bQ&4\xc1\xab\xc3?\x84Q\n|@\x8f\x1a\xc0\x0e1\x81#G$\xe1?'
p43
tp44
bag22
(g23
(I0
tp45
g25
tp46
Rp47
(I1
(I3
tp48
g29
(S'f8'
p49
I0
I1
tp50
Rp51
(I3
S'<'
p52
NNNI-1
I-1
I0
tp53
bI00
S'T]\x0c\x0e\xd89\xda?\xf4\x992\x11%\\\x18\xc0\x95\x7f\x10B\xb1)\xe3?'
p54
tp55
bag22
(g23
(I0
tp56
g25
tp57
Rp58
(I1
(I3
tp59
g51
I00
S'\xe4\x02R\xd9\x08\x8c\xc7?2\xc1\xd4;\xf6\xf3\x15\xc0>\x8c\x8fa?0\xd8?'
p60
tp61
bag27
ag27
asba(itrajectory_representation.operator
Operator
p62
(dp63
g12
I01
sg13
(dp64
S'region'
p65
g7
sg15
Vsquare_packing_box1
p66
ssg17
S'two_arm_place'
p67
sg19
(dp68
g21
g22
(g23
(I0
tp69
g25
tp70
Rp71
(I1
(I3
tp72
g32
I00
S'f\xb0\xb5])_\xdd?~\x8a\x11a\xfe\xd0\x05\xc0#zQFMS\n@'
p73
tp74
bssg37
(lp75
g22
(g23
(I0
tp76
g25
tp77
Rp78
(I1
(I3
tp79
g32
I00
S'\x02\xbd\'\xc1\x9d.\xd3?\xb0"\xaaeB\xf4\x15\xc0*\xa8A\xe6Vp\xd8?'
p80
tp81
bag22
(g23
(I0
tp82
g25
tp83
Rp84
(I1
(I3
tp85
g51
I00
S'\xa9\xd9\x1d\x8d\xa6j\xdf?\xa0\x85\x1a\x84\xc6\xec\x12\xc0\x01\xb6 H\xb1\x91\xeb?'
p86
tp87
bag22
(g23
(I0
tp88
g25
tp89
Rp90
(I1
(I3
tp91
g51
I00
S'\x93k\xbc\xee\xc2\x10\xe8?\xab^\x86?\x08D\x10\xc0\x10;2\x00\xe5\t\xde?'
p92
tp93
bag22
(g23
(I0
tp94
g25
tp95
Rp96
(I1
(I3
tp97
g51
I00
S"'\x9a\xf9\xb6\xa6\x07\xd4?\xfd&XK\xc6_\x0c\xc0\xaeF\xa6S\xdb\xad\xba?"
p98
tp99
bag22
(g23
(I0
tp100
g25
tp101
Rp102
(I1
(I3
tp103
g51
I00
S'\xaf0\xe9h\xba~\xee?k\xbb\xd8\xd4\xd0g\t\xc09\x9ey\xed\xb06\x06@'
p104
tp105
bag71
ag71
asbasS'time_taken'
p106
F37.26305603981018
s.