(dp0
S'found_solution'
p1
I01
sS'n_nodes'
p2
I1
sS'n_remaining_objs'
p3
I0
sS'goal_entities'
p4
(lp5
Vsquare_packing_box1
p6
aS'home_region'
p7
asS'plan'
p8
(lp9
(itrajectory_representation.operator
Operator
p10
(dp11
S'is_skeleton'
p12
I01
sS'discrete_parameters'
p13
(dp14
S'object'
p15
Vsquare_packing_box1
p16
ssS'type'
p17
S'two_arm_pick'
p18
sS'continuous_parameters'
p19
(dp20
S'q_goal'
p21
cnumpy.core.multiarray
_reconstruct
p22
(cnumpy
ndarray
p23
(I0
tp24
S'b'
p25
tp26
Rp27
(I1
(I3
tp28
cnumpy
dtype
p29
(S'f8'
p30
I0
I1
tp31
Rp32
(I3
S'<'
p33
NNNI-1
I-1
I0
tp34
bI00
S'\x88W\x02<\t\x13\xee?5\xe8)\xdc\x1as\x16\xc0\xfa\x8ea&\xafD\xf1\xbf'
p35
tp36
bssS'low_level_motion'
p37
(lp38
g22
(g23
(I0
tp39
g25
tp40
Rp41
(I1
(I3
tp42
g32
I00
S'\x83w\x9a\x9dsu\xc1?\x0b$\xff\xeb\x8e/\x16\xc0/Pq\x14+\xa8\xe6?'
p43
tp44
bag22
(g23
(I0
tp45
g25
tp46
Rp47
(I1
(I3
tp48
g29
(S'f8'
p49
I0
I1
tp50
Rp51
(I3
S'<'
p52
NNNI-1
I-1
I0
tp53
bI00
S'Dz\xddx\xe9\xf0\xb4?\x9c\xf2\xf6\xf0\xef \x18\xc0\x03\xe5\x88\xf0JN\xf3?'
p54
tp55
bag22
(g23
(I0
tp56
g25
tp57
Rp58
(I1
(I3
tp59
g51
I00
S",0}\x1d\xd8'\xe3?\x1a_'\xd6T\x08\x17\xc0A\xde\xdb2\xd8\xd0\x14@"
p60
tp61
bag27
ag27
asba(itrajectory_representation.operator
Operator
p62
(dp63
g12
I01
sg13
(dp64
S'region'
p65
g7
sg15
Vsquare_packing_box1
p66
ssg17
S'two_arm_place'
p67
sg19
(dp68
g21
g22
(g23
(I0
tp69
g25
tp70
Rp71
(I1
(I3
tp72
g32
I00
S'4vdW\x02\xc2\xf2?b\xa1#\x1c\xb3\t\x04\xc0\xb1\x80(\x84\x90(\x06@'
p73
tp74
bssg37
(lp75
g22
(g23
(I0
tp76
g25
tp77
Rp78
(I1
(I3
tp79
g32
I00
S'cW\x02<\t\x13\xee??\xe8)\xdc\x1as\x16\xc0\x03\x8fa&\xafD\xf1\xbf'
p80
tp81
bag22
(g23
(I0
tp82
g25
tp83
Rp84
(I1
(I3
tp85
g51
I00
S"\xb2&6mg)\xe8?\x99\xe0G'\x16\xe0\x13\xc0\xc8oL\xf5\x17p\xe6\xbf"
p86
tp87
bag22
(g23
(I0
tp88
g25
tp89
Rp90
(I1
(I3
tp91
g51
I00
S'`\xc8Aw-\x81\xeb?/\xc3\xe6O\x04\xca\x10\xc0\x8a\xb7K)\x91{\xe4\xbf'
p92
tp93
bag22
(g23
(I0
tp94
g25
tp95
Rp96
(I1
(I3
tp97
g51
I00
S'D\xd4f\xd4\xfa\x1e\xf4?I!\xc6|\x02#\r\xc0{+;\x1d74\xe9\xbf'
p98
tp99
bag22
(g23
(I0
tp100
g25
tp101
Rp102
(I1
(I3
tp103
g51
I00
S'\xaf0\xe9h\xba~\xee?k\xbb\xd8\xd4\xd0g\t\xc09\x9ey\xed\xb06\x06@'
p104
tp105
bag71
ag71
asbasS'time_taken'
p106
F18.88730001449585
s.